; Listing generated by Microsoft (R) Optimizing Compiler Version 19.16.27045.0 

	TITLE	C:\Users\nhv90\Projects\eech\modules\3d\terrain\terrtype.c
	.686P
	.XMM
	include listing.inc
	.model	flat

INCLUDELIB MSVCRTD
INCLUDELIB OLDNAMES

PUBLIC	?terrain_type_information@@3PAUTERRAIN_TYPE_INFO@@A ; terrain_type_information
PUBLIC	?terrain_dual_pass_rendering_enabled@@3HA	; terrain_dual_pass_rendering_enabled
PUBLIC	?terrain_type_names@@3PAUTERRAIN_TYPE_NAME@@A	; terrain_type_names
PUBLIC	??_C@_0BF@KLJKPJCE@TERRAIN_TYPE_INVALID@	; `string'
PUBLIC	??_C@_0BD@MHNACIBO@TERRAIN_TYPE_RIVER@		; `string'
PUBLIC	??_C@_0BH@CPJGKDBB@TERRAIN_TYPE_RESERVOIR@	; `string'
PUBLIC	??_C@_0BE@CFAMEMDA@TERRAIN_TYPE_TRENCH@		; `string'
PUBLIC	??_C@_0BI@CGKOGCNM@TERRAIN_TYPE_RIVER_BANK@	; `string'
PUBLIC	??_C@_0BL@CALCHMPL@TERRAIN_TYPE_TRENCH_SIDE_X@	; `string'
PUBLIC	??_C@_0BL@BCIEBOHJ@TERRAIN_TYPE_TRENCH_SIDE_Z@	; `string'
PUBLIC	??_C@_0BB@FPPNMNNO@TERRAIN_TYPE_SEA@		; `string'
PUBLIC	??_C@_0BD@HIJICOML@TERRAIN_TYPE_BEACH@		; `string'
PUBLIC	??_C@_0BC@JDKPFICG@TERRAIN_TYPE_LAND@		; `string'
PUBLIC	??_C@_0BE@ONOHCPDO@TERRAIN_TYPE_FIELD1@		; `string'
PUBLIC	??_C@_0BE@MGMKHMPN@TERRAIN_TYPE_FIELD2@		; `string'
PUBLIC	??_C@_0BE@NPNBENLM@TERRAIN_TYPE_FIELD3@		; `string'
PUBLIC	??_C@_0BE@JAJANLHL@TERRAIN_TYPE_FIELD4@		; `string'
PUBLIC	??_C@_0BE@IJILOKDK@TERRAIN_TYPE_FIELD5@		; `string'
PUBLIC	??_C@_0BE@KCKGLJPJ@TERRAIN_TYPE_FIELD6@		; `string'
PUBLIC	??_C@_0BE@LLLNIILI@TERRAIN_TYPE_FIELD7@		; `string'
PUBLIC	??_C@_0BE@DMCFJEHH@TERRAIN_TYPE_FIELD8@		; `string'
PUBLIC	??_C@_0BE@CFDOKFDG@TERRAIN_TYPE_FIELD9@		; `string'
PUBLIC	??_C@_0BF@BOMKMMHH@TERRAIN_TYPE_FIELD10@	; `string'
PUBLIC	??_C@_0BF@HNBPNDG@TERRAIN_TYPE_FIELD11@		; `string'
PUBLIC	??_C@_0BL@MOMONHC@TERRAIN_TYPE_ALTERED_LAND1@	; `string'
PUBLIC	??_C@_0BL@CHMBLOLB@TERRAIN_TYPE_ALTERED_LAND2@	; `string'
PUBLIC	??_C@_0BL@DONKIPPA@TERRAIN_TYPE_ALTERED_LAND3@	; `string'
PUBLIC	??_C@_0BK@PCJPECFI@TERRAIN_TYPE_FOREST_FLOOR@	; `string'
PUBLIC	??_C@_0BH@HFDPPOFP@TERRAIN_TYPE_ROAD_BANK@	; `string'
PUBLIC	??_C@_0BH@FNPHHABP@TERRAIN_TYPE_RAIL_BANK@	; `string'
PUBLIC	??_C@_0BK@KNLKGHGP@TERRAIN_TYPE_HEDGE_SIDE_X@	; `string'
PUBLIC	??_C@_0BK@JPIMAFON@TERRAIN_TYPE_HEDGE_SIDE_Z@	; `string'
PUBLIC	??_C@_0BJ@HBMCFKFF@TERRAIN_TYPE_WALL_SIDE_X@	; `string'
PUBLIC	??_C@_0BJ@EDPEDINH@TERRAIN_TYPE_WALL_SIDE_Z@	; `string'
PUBLIC	??_C@_0CC@PEGNDAIM@TERRAIN_TYPE_FOREST_SIDE_BOTTOM@ ; `string'
PUBLIC	??_C@_0CC@MGFLFCAO@TERRAIN_TYPE_FOREST_SIDE_BOTTOM@ ; `string'
PUBLIC	??_C@_0BP@EFKAHKGH@TERRAIN_TYPE_FOREST_SIDE_MID_X@ ; `string'
PUBLIC	??_C@_0BP@HHJGBIOF@TERRAIN_TYPE_FOREST_SIDE_MID_Z@ ; `string'
PUBLIC	??_C@_0BP@DBECBMFM@TERRAIN_TYPE_FOREST_SIDE_TOP_X@ ; `string'
PUBLIC	??_C@_0BP@DHEHONO@TERRAIN_TYPE_FOREST_SIDE_TOP_Z@ ; `string'
PUBLIC	??_C@_0BM@GKIIMCDG@TERRAIN_TYPE_BUILT_UP_AREA1@	; `string'
PUBLIC	??_C@_0BM@EBKFJBPF@TERRAIN_TYPE_BUILT_UP_AREA2@	; `string'
PUBLIC	??_C@_0BM@FILOKALE@TERRAIN_TYPE_BUILT_UP_AREA3@	; `string'
PUBLIC	??_C@_0BM@BHPPDGHD@TERRAIN_TYPE_BUILT_UP_AREA4@	; `string'
PUBLIC	??_C@_0BC@KHPMEBML@TERRAIN_TYPE_ROAD@		; `string'
PUBLIC	??_C@_0BD@FEPKNHBM@TERRAIN_TYPE_TRACK@		; `string'
PUBLIC	??_C@_0BC@IBOJONEI@TERRAIN_TYPE_RAIL@		; `string'
PUBLIC	??_C@_0BG@MNGHPFJM@TERRAIN_TYPE_WALL_TOP@	; `string'
PUBLIC	??_C@_0BH@FMJLAFNH@TERRAIN_TYPE_HEDGE_TOP@	; `string'
PUBLIC	??_C@_0BI@PDIAFKJK@TERRAIN_TYPE_FOREST_TOP@	; `string'
PUBLIC	??_C@_0BJ@JMINDAAA@TEMP_TERRAIN_TYPE_FRINGE@	; `string'
PUBLIC	??_C@_0BN@OFDKHGHN@TEMP_TERRAIN_TYPE_POWER_LINE@ ; `string'
PUBLIC	??_C@_0CB@LFGMNIFC@TEMP_TERRAIN_TYPE_TELEPHONE_LIN@ ; `string'
PUBLIC	??_C@_0BL@GDJOCCFH@TEMP_TERRAIN_TYPE_SEA_BANK@	; `string'
PUBLIC	??_C@_0CA@JALJOMDF@TEMP_TERRAIN_TYPE_COASTAL_RIVER@ ; `string'
PUBLIC	??_C@_0BM@GGBBLNBN@TEMP_TERRAIN_TYPE_BEACH_MID@	; `string'
PUBLIC	??_C@_0CG@EJFONOKM@TEMP_TERRAIN_TYPE_STEPPED_RIVER@ ; `string'
PUBLIC	??_C@_0CG@BPAEHJCK@TEMP_TERRAIN_TYPE_STEPPED_RIVER@ ; `string'
PUBLIC	??_C@_0CG@CNDCBLKI@TEMP_TERRAIN_TYPE_STEPPED_RIVER@ ; `string'
PUBLIC	??_C@_0BH@IIDMCDBA@TEMP_TERRAIN_TYPE_LAKE@	; `string'
PUBLIC	??_C@_0CA@CALDPDJD@TEMP_TERRAIN_TYPE_FOREST_SIDE_X@ ; `string'
PUBLIC	??_C@_0CA@BCIFJBBB@TEMP_TERRAIN_TYPE_FOREST_SIDE_Z@ ; `string'
PUBLIC	??_C@_0BK@IOKMOMKC@TEMP_TERRAIN_TYPE_OFFROAD@	; `string'
PUBLIC	??_C@_0CF@MDCLHAEG@TEMP_TERRAIN_TYPE_POLITICAL_BOU@ ; `string'
PUBLIC	??_C@_0CF@IBMDLBFC@TEMP_TERRAIN_TYPE_BUILT_UP_AREA@ ; `string'
PUBLIC	??_C@_0BC@MNJDHKFE@TERRAIN_TYPE_LAST@		; `string'
_BSS	SEGMENT
?terrain_type_information@@3PAUTERRAIN_TYPE_INFO@@A DB 0d90H DUP (?) ; terrain_type_information
_BSS	ENDS
;	COMDAT ??_C@_0BC@MNJDHKFE@TERRAIN_TYPE_LAST@
CONST	SEGMENT
??_C@_0BC@MNJDHKFE@TERRAIN_TYPE_LAST@ DB 'TERRAIN_TYPE_LAST', 00H ; `string'
CONST	ENDS
;	COMDAT ??_C@_0CF@IBMDLBFC@TEMP_TERRAIN_TYPE_BUILT_UP_AREA@
CONST	SEGMENT
??_C@_0CF@IBMDLBFC@TEMP_TERRAIN_TYPE_BUILT_UP_AREA@ DB 'TEMP_TERRAIN_TYPE'
	DB	'_BUILT_UP_AREA_BANK', 00H			; `string'
CONST	ENDS
;	COMDAT ??_C@_0CF@MDCLHAEG@TEMP_TERRAIN_TYPE_POLITICAL_BOU@
CONST	SEGMENT
??_C@_0CF@MDCLHAEG@TEMP_TERRAIN_TYPE_POLITICAL_BOU@ DB 'TEMP_TERRAIN_TYPE'
	DB	'_POLITICAL_BOUNDARY', 00H			; `string'
CONST	ENDS
;	COMDAT ??_C@_0BK@IOKMOMKC@TEMP_TERRAIN_TYPE_OFFROAD@
CONST	SEGMENT
??_C@_0BK@IOKMOMKC@TEMP_TERRAIN_TYPE_OFFROAD@ DB 'TEMP_TERRAIN_TYPE_OFFRO'
	DB	'AD', 00H					; `string'
CONST	ENDS
;	COMDAT ??_C@_0CA@BCIFJBBB@TEMP_TERRAIN_TYPE_FOREST_SIDE_Z@
CONST	SEGMENT
??_C@_0CA@BCIFJBBB@TEMP_TERRAIN_TYPE_FOREST_SIDE_Z@ DB 'TEMP_TERRAIN_TYPE'
	DB	'_FOREST_SIDE_Z', 00H			; `string'
CONST	ENDS
;	COMDAT ??_C@_0CA@CALDPDJD@TEMP_TERRAIN_TYPE_FOREST_SIDE_X@
CONST	SEGMENT
??_C@_0CA@CALDPDJD@TEMP_TERRAIN_TYPE_FOREST_SIDE_X@ DB 'TEMP_TERRAIN_TYPE'
	DB	'_FOREST_SIDE_X', 00H			; `string'
CONST	ENDS
;	COMDAT ??_C@_0BH@IIDMCDBA@TEMP_TERRAIN_TYPE_LAKE@
CONST	SEGMENT
??_C@_0BH@IIDMCDBA@TEMP_TERRAIN_TYPE_LAKE@ DB 'TEMP_TERRAIN_TYPE_LAKE', 00H ; `string'
CONST	ENDS
;	COMDAT ??_C@_0CG@CNDCBLKI@TEMP_TERRAIN_TYPE_STEPPED_RIVER@
CONST	SEGMENT
??_C@_0CG@CNDCBLKI@TEMP_TERRAIN_TYPE_STEPPED_RIVER@ DB 'TEMP_TERRAIN_TYPE'
	DB	'_STEPPED_RIVER_BANK7', 00H			; `string'
CONST	ENDS
;	COMDAT ??_C@_0CG@BPAEHJCK@TEMP_TERRAIN_TYPE_STEPPED_RIVER@
CONST	SEGMENT
??_C@_0CG@BPAEHJCK@TEMP_TERRAIN_TYPE_STEPPED_RIVER@ DB 'TEMP_TERRAIN_TYPE'
	DB	'_STEPPED_RIVER_BANK5', 00H			; `string'
CONST	ENDS
;	COMDAT ??_C@_0CG@EJFONOKM@TEMP_TERRAIN_TYPE_STEPPED_RIVER@
CONST	SEGMENT
??_C@_0CG@EJFONOKM@TEMP_TERRAIN_TYPE_STEPPED_RIVER@ DB 'TEMP_TERRAIN_TYPE'
	DB	'_STEPPED_RIVER_BANK3', 00H			; `string'
CONST	ENDS
;	COMDAT ??_C@_0BM@GGBBLNBN@TEMP_TERRAIN_TYPE_BEACH_MID@
CONST	SEGMENT
??_C@_0BM@GGBBLNBN@TEMP_TERRAIN_TYPE_BEACH_MID@ DB 'TEMP_TERRAIN_TYPE_BEA'
	DB	'CH_MID', 00H				; `string'
CONST	ENDS
;	COMDAT ??_C@_0CA@JALJOMDF@TEMP_TERRAIN_TYPE_COASTAL_RIVER@
CONST	SEGMENT
??_C@_0CA@JALJOMDF@TEMP_TERRAIN_TYPE_COASTAL_RIVER@ DB 'TEMP_TERRAIN_TYPE'
	DB	'_COASTAL_RIVER', 00H			; `string'
CONST	ENDS
;	COMDAT ??_C@_0BL@GDJOCCFH@TEMP_TERRAIN_TYPE_SEA_BANK@
CONST	SEGMENT
??_C@_0BL@GDJOCCFH@TEMP_TERRAIN_TYPE_SEA_BANK@ DB 'TEMP_TERRAIN_TYPE_SEA_'
	DB	'BANK', 00H					; `string'
CONST	ENDS
;	COMDAT ??_C@_0CB@LFGMNIFC@TEMP_TERRAIN_TYPE_TELEPHONE_LIN@
CONST	SEGMENT
??_C@_0CB@LFGMNIFC@TEMP_TERRAIN_TYPE_TELEPHONE_LIN@ DB 'TEMP_TERRAIN_TYPE'
	DB	'_TELEPHONE_LINE', 00H			; `string'
CONST	ENDS
;	COMDAT ??_C@_0BN@OFDKHGHN@TEMP_TERRAIN_TYPE_POWER_LINE@
CONST	SEGMENT
??_C@_0BN@OFDKHGHN@TEMP_TERRAIN_TYPE_POWER_LINE@ DB 'TEMP_TERRAIN_TYPE_PO'
	DB	'WER_LINE', 00H				; `string'
CONST	ENDS
;	COMDAT ??_C@_0BJ@JMINDAAA@TEMP_TERRAIN_TYPE_FRINGE@
CONST	SEGMENT
??_C@_0BJ@JMINDAAA@TEMP_TERRAIN_TYPE_FRINGE@ DB 'TEMP_TERRAIN_TYPE_FRINGE'
	DB	00H						; `string'
CONST	ENDS
;	COMDAT ??_C@_0BI@PDIAFKJK@TERRAIN_TYPE_FOREST_TOP@
CONST	SEGMENT
??_C@_0BI@PDIAFKJK@TERRAIN_TYPE_FOREST_TOP@ DB 'TERRAIN_TYPE_FOREST_TOP', 00H ; `string'
CONST	ENDS
;	COMDAT ??_C@_0BH@FMJLAFNH@TERRAIN_TYPE_HEDGE_TOP@
CONST	SEGMENT
??_C@_0BH@FMJLAFNH@TERRAIN_TYPE_HEDGE_TOP@ DB 'TERRAIN_TYPE_HEDGE_TOP', 00H ; `string'
CONST	ENDS
;	COMDAT ??_C@_0BG@MNGHPFJM@TERRAIN_TYPE_WALL_TOP@
CONST	SEGMENT
??_C@_0BG@MNGHPFJM@TERRAIN_TYPE_WALL_TOP@ DB 'TERRAIN_TYPE_WALL_TOP', 00H ; `string'
CONST	ENDS
;	COMDAT ??_C@_0BC@IBOJONEI@TERRAIN_TYPE_RAIL@
CONST	SEGMENT
??_C@_0BC@IBOJONEI@TERRAIN_TYPE_RAIL@ DB 'TERRAIN_TYPE_RAIL', 00H ; `string'
CONST	ENDS
;	COMDAT ??_C@_0BD@FEPKNHBM@TERRAIN_TYPE_TRACK@
CONST	SEGMENT
??_C@_0BD@FEPKNHBM@TERRAIN_TYPE_TRACK@ DB 'TERRAIN_TYPE_TRACK', 00H ; `string'
CONST	ENDS
;	COMDAT ??_C@_0BC@KHPMEBML@TERRAIN_TYPE_ROAD@
CONST	SEGMENT
??_C@_0BC@KHPMEBML@TERRAIN_TYPE_ROAD@ DB 'TERRAIN_TYPE_ROAD', 00H ; `string'
CONST	ENDS
;	COMDAT ??_C@_0BM@BHPPDGHD@TERRAIN_TYPE_BUILT_UP_AREA4@
CONST	SEGMENT
??_C@_0BM@BHPPDGHD@TERRAIN_TYPE_BUILT_UP_AREA4@ DB 'TERRAIN_TYPE_BUILT_UP'
	DB	'_AREA4', 00H				; `string'
CONST	ENDS
;	COMDAT ??_C@_0BM@FILOKALE@TERRAIN_TYPE_BUILT_UP_AREA3@
CONST	SEGMENT
??_C@_0BM@FILOKALE@TERRAIN_TYPE_BUILT_UP_AREA3@ DB 'TERRAIN_TYPE_BUILT_UP'
	DB	'_AREA3', 00H				; `string'
CONST	ENDS
;	COMDAT ??_C@_0BM@EBKFJBPF@TERRAIN_TYPE_BUILT_UP_AREA2@
CONST	SEGMENT
??_C@_0BM@EBKFJBPF@TERRAIN_TYPE_BUILT_UP_AREA2@ DB 'TERRAIN_TYPE_BUILT_UP'
	DB	'_AREA2', 00H				; `string'
CONST	ENDS
;	COMDAT ??_C@_0BM@GKIIMCDG@TERRAIN_TYPE_BUILT_UP_AREA1@
CONST	SEGMENT
??_C@_0BM@GKIIMCDG@TERRAIN_TYPE_BUILT_UP_AREA1@ DB 'TERRAIN_TYPE_BUILT_UP'
	DB	'_AREA1', 00H				; `string'
CONST	ENDS
;	COMDAT ??_C@_0BP@DHEHONO@TERRAIN_TYPE_FOREST_SIDE_TOP_Z@
CONST	SEGMENT
??_C@_0BP@DHEHONO@TERRAIN_TYPE_FOREST_SIDE_TOP_Z@ DB 'TERRAIN_TYPE_FOREST'
	DB	'_SIDE_TOP_Z', 00H				; `string'
CONST	ENDS
;	COMDAT ??_C@_0BP@DBECBMFM@TERRAIN_TYPE_FOREST_SIDE_TOP_X@
CONST	SEGMENT
??_C@_0BP@DBECBMFM@TERRAIN_TYPE_FOREST_SIDE_TOP_X@ DB 'TERRAIN_TYPE_FORES'
	DB	'T_SIDE_TOP_X', 00H				; `string'
CONST	ENDS
;	COMDAT ??_C@_0BP@HHJGBIOF@TERRAIN_TYPE_FOREST_SIDE_MID_Z@
CONST	SEGMENT
??_C@_0BP@HHJGBIOF@TERRAIN_TYPE_FOREST_SIDE_MID_Z@ DB 'TERRAIN_TYPE_FORES'
	DB	'T_SIDE_MID_Z', 00H				; `string'
CONST	ENDS
;	COMDAT ??_C@_0BP@EFKAHKGH@TERRAIN_TYPE_FOREST_SIDE_MID_X@
CONST	SEGMENT
??_C@_0BP@EFKAHKGH@TERRAIN_TYPE_FOREST_SIDE_MID_X@ DB 'TERRAIN_TYPE_FORES'
	DB	'T_SIDE_MID_X', 00H				; `string'
CONST	ENDS
;	COMDAT ??_C@_0CC@MGFLFCAO@TERRAIN_TYPE_FOREST_SIDE_BOTTOM@
CONST	SEGMENT
??_C@_0CC@MGFLFCAO@TERRAIN_TYPE_FOREST_SIDE_BOTTOM@ DB 'TERRAIN_TYPE_FORE'
	DB	'ST_SIDE_BOTTOM_Z', 00H			; `string'
CONST	ENDS
;	COMDAT ??_C@_0CC@PEGNDAIM@TERRAIN_TYPE_FOREST_SIDE_BOTTOM@
CONST	SEGMENT
??_C@_0CC@PEGNDAIM@TERRAIN_TYPE_FOREST_SIDE_BOTTOM@ DB 'TERRAIN_TYPE_FORE'
	DB	'ST_SIDE_BOTTOM_X', 00H			; `string'
CONST	ENDS
;	COMDAT ??_C@_0BJ@EDPEDINH@TERRAIN_TYPE_WALL_SIDE_Z@
CONST	SEGMENT
??_C@_0BJ@EDPEDINH@TERRAIN_TYPE_WALL_SIDE_Z@ DB 'TERRAIN_TYPE_WALL_SIDE_Z'
	DB	00H						; `string'
CONST	ENDS
;	COMDAT ??_C@_0BJ@HBMCFKFF@TERRAIN_TYPE_WALL_SIDE_X@
CONST	SEGMENT
??_C@_0BJ@HBMCFKFF@TERRAIN_TYPE_WALL_SIDE_X@ DB 'TERRAIN_TYPE_WALL_SIDE_X'
	DB	00H						; `string'
CONST	ENDS
;	COMDAT ??_C@_0BK@JPIMAFON@TERRAIN_TYPE_HEDGE_SIDE_Z@
CONST	SEGMENT
??_C@_0BK@JPIMAFON@TERRAIN_TYPE_HEDGE_SIDE_Z@ DB 'TERRAIN_TYPE_HEDGE_SIDE'
	DB	'_Z', 00H					; `string'
CONST	ENDS
;	COMDAT ??_C@_0BK@KNLKGHGP@TERRAIN_TYPE_HEDGE_SIDE_X@
CONST	SEGMENT
??_C@_0BK@KNLKGHGP@TERRAIN_TYPE_HEDGE_SIDE_X@ DB 'TERRAIN_TYPE_HEDGE_SIDE'
	DB	'_X', 00H					; `string'
CONST	ENDS
;	COMDAT ??_C@_0BH@FNPHHABP@TERRAIN_TYPE_RAIL_BANK@
CONST	SEGMENT
??_C@_0BH@FNPHHABP@TERRAIN_TYPE_RAIL_BANK@ DB 'TERRAIN_TYPE_RAIL_BANK', 00H ; `string'
CONST	ENDS
;	COMDAT ??_C@_0BH@HFDPPOFP@TERRAIN_TYPE_ROAD_BANK@
CONST	SEGMENT
??_C@_0BH@HFDPPOFP@TERRAIN_TYPE_ROAD_BANK@ DB 'TERRAIN_TYPE_ROAD_BANK', 00H ; `string'
CONST	ENDS
;	COMDAT ??_C@_0BK@PCJPECFI@TERRAIN_TYPE_FOREST_FLOOR@
CONST	SEGMENT
??_C@_0BK@PCJPECFI@TERRAIN_TYPE_FOREST_FLOOR@ DB 'TERRAIN_TYPE_FOREST_FLO'
	DB	'OR', 00H					; `string'
CONST	ENDS
;	COMDAT ??_C@_0BL@DONKIPPA@TERRAIN_TYPE_ALTERED_LAND3@
CONST	SEGMENT
??_C@_0BL@DONKIPPA@TERRAIN_TYPE_ALTERED_LAND3@ DB 'TERRAIN_TYPE_ALTERED_L'
	DB	'AND3', 00H					; `string'
CONST	ENDS
;	COMDAT ??_C@_0BL@CHMBLOLB@TERRAIN_TYPE_ALTERED_LAND2@
CONST	SEGMENT
??_C@_0BL@CHMBLOLB@TERRAIN_TYPE_ALTERED_LAND2@ DB 'TERRAIN_TYPE_ALTERED_L'
	DB	'AND2', 00H					; `string'
CONST	ENDS
;	COMDAT ??_C@_0BL@MOMONHC@TERRAIN_TYPE_ALTERED_LAND1@
CONST	SEGMENT
??_C@_0BL@MOMONHC@TERRAIN_TYPE_ALTERED_LAND1@ DB 'TERRAIN_TYPE_ALTERED_LA'
	DB	'ND1', 00H					; `string'
CONST	ENDS
;	COMDAT ??_C@_0BF@HNBPNDG@TERRAIN_TYPE_FIELD11@
CONST	SEGMENT
??_C@_0BF@HNBPNDG@TERRAIN_TYPE_FIELD11@ DB 'TERRAIN_TYPE_FIELD11', 00H ; `string'
CONST	ENDS
;	COMDAT ??_C@_0BF@BOMKMMHH@TERRAIN_TYPE_FIELD10@
CONST	SEGMENT
??_C@_0BF@BOMKMMHH@TERRAIN_TYPE_FIELD10@ DB 'TERRAIN_TYPE_FIELD10', 00H ; `string'
CONST	ENDS
;	COMDAT ??_C@_0BE@CFDOKFDG@TERRAIN_TYPE_FIELD9@
CONST	SEGMENT
??_C@_0BE@CFDOKFDG@TERRAIN_TYPE_FIELD9@ DB 'TERRAIN_TYPE_FIELD9', 00H ; `string'
CONST	ENDS
;	COMDAT ??_C@_0BE@DMCFJEHH@TERRAIN_TYPE_FIELD8@
CONST	SEGMENT
??_C@_0BE@DMCFJEHH@TERRAIN_TYPE_FIELD8@ DB 'TERRAIN_TYPE_FIELD8', 00H ; `string'
CONST	ENDS
;	COMDAT ??_C@_0BE@LLLNIILI@TERRAIN_TYPE_FIELD7@
CONST	SEGMENT
??_C@_0BE@LLLNIILI@TERRAIN_TYPE_FIELD7@ DB 'TERRAIN_TYPE_FIELD7', 00H ; `string'
CONST	ENDS
;	COMDAT ??_C@_0BE@KCKGLJPJ@TERRAIN_TYPE_FIELD6@
CONST	SEGMENT
??_C@_0BE@KCKGLJPJ@TERRAIN_TYPE_FIELD6@ DB 'TERRAIN_TYPE_FIELD6', 00H ; `string'
CONST	ENDS
;	COMDAT ??_C@_0BE@IJILOKDK@TERRAIN_TYPE_FIELD5@
CONST	SEGMENT
??_C@_0BE@IJILOKDK@TERRAIN_TYPE_FIELD5@ DB 'TERRAIN_TYPE_FIELD5', 00H ; `string'
CONST	ENDS
;	COMDAT ??_C@_0BE@JAJANLHL@TERRAIN_TYPE_FIELD4@
CONST	SEGMENT
??_C@_0BE@JAJANLHL@TERRAIN_TYPE_FIELD4@ DB 'TERRAIN_TYPE_FIELD4', 00H ; `string'
CONST	ENDS
;	COMDAT ??_C@_0BE@NPNBENLM@TERRAIN_TYPE_FIELD3@
CONST	SEGMENT
??_C@_0BE@NPNBENLM@TERRAIN_TYPE_FIELD3@ DB 'TERRAIN_TYPE_FIELD3', 00H ; `string'
CONST	ENDS
;	COMDAT ??_C@_0BE@MGMKHMPN@TERRAIN_TYPE_FIELD2@
CONST	SEGMENT
??_C@_0BE@MGMKHMPN@TERRAIN_TYPE_FIELD2@ DB 'TERRAIN_TYPE_FIELD2', 00H ; `string'
CONST	ENDS
;	COMDAT ??_C@_0BE@ONOHCPDO@TERRAIN_TYPE_FIELD1@
CONST	SEGMENT
??_C@_0BE@ONOHCPDO@TERRAIN_TYPE_FIELD1@ DB 'TERRAIN_TYPE_FIELD1', 00H ; `string'
CONST	ENDS
;	COMDAT ??_C@_0BC@JDKPFICG@TERRAIN_TYPE_LAND@
CONST	SEGMENT
??_C@_0BC@JDKPFICG@TERRAIN_TYPE_LAND@ DB 'TERRAIN_TYPE_LAND', 00H ; `string'
CONST	ENDS
;	COMDAT ??_C@_0BD@HIJICOML@TERRAIN_TYPE_BEACH@
CONST	SEGMENT
??_C@_0BD@HIJICOML@TERRAIN_TYPE_BEACH@ DB 'TERRAIN_TYPE_BEACH', 00H ; `string'
CONST	ENDS
;	COMDAT ??_C@_0BB@FPPNMNNO@TERRAIN_TYPE_SEA@
CONST	SEGMENT
??_C@_0BB@FPPNMNNO@TERRAIN_TYPE_SEA@ DB 'TERRAIN_TYPE_SEA', 00H ; `string'
CONST	ENDS
;	COMDAT ??_C@_0BL@BCIEBOHJ@TERRAIN_TYPE_TRENCH_SIDE_Z@
CONST	SEGMENT
??_C@_0BL@BCIEBOHJ@TERRAIN_TYPE_TRENCH_SIDE_Z@ DB 'TERRAIN_TYPE_TRENCH_SI'
	DB	'DE_Z', 00H					; `string'
CONST	ENDS
;	COMDAT ??_C@_0BL@CALCHMPL@TERRAIN_TYPE_TRENCH_SIDE_X@
CONST	SEGMENT
??_C@_0BL@CALCHMPL@TERRAIN_TYPE_TRENCH_SIDE_X@ DB 'TERRAIN_TYPE_TRENCH_SI'
	DB	'DE_X', 00H					; `string'
CONST	ENDS
;	COMDAT ??_C@_0BI@CGKOGCNM@TERRAIN_TYPE_RIVER_BANK@
CONST	SEGMENT
??_C@_0BI@CGKOGCNM@TERRAIN_TYPE_RIVER_BANK@ DB 'TERRAIN_TYPE_RIVER_BANK', 00H ; `string'
CONST	ENDS
;	COMDAT ??_C@_0BE@CFAMEMDA@TERRAIN_TYPE_TRENCH@
CONST	SEGMENT
??_C@_0BE@CFAMEMDA@TERRAIN_TYPE_TRENCH@ DB 'TERRAIN_TYPE_TRENCH', 00H ; `string'
CONST	ENDS
;	COMDAT ??_C@_0BH@CPJGKDBB@TERRAIN_TYPE_RESERVOIR@
CONST	SEGMENT
??_C@_0BH@CPJGKDBB@TERRAIN_TYPE_RESERVOIR@ DB 'TERRAIN_TYPE_RESERVOIR', 00H ; `string'
CONST	ENDS
;	COMDAT ??_C@_0BD@MHNACIBO@TERRAIN_TYPE_RIVER@
CONST	SEGMENT
??_C@_0BD@MHNACIBO@TERRAIN_TYPE_RIVER@ DB 'TERRAIN_TYPE_RIVER', 00H ; `string'
CONST	ENDS
;	COMDAT ??_C@_0BF@KLJKPJCE@TERRAIN_TYPE_INVALID@
CONST	SEGMENT
??_C@_0BF@KLJKPJCE@TERRAIN_TYPE_INVALID@ DB 'TERRAIN_TYPE_INVALID', 00H ; `string'
CONST	ENDS
_DATA	SEGMENT
?terrain_dual_pass_rendering_enabled@@3HA DD 01H	; terrain_dual_pass_rendering_enabled
	ORG $+4
?terrain_type_names@@3PAUTERRAIN_TYPE_NAME@@A DD 00H	; terrain_type_names
	DD	FLAT:??_C@_0BF@KLJKPJCE@TERRAIN_TYPE_INVALID@
	DD	01H
	DD	FLAT:??_C@_0BD@MHNACIBO@TERRAIN_TYPE_RIVER@
	DD	02H
	DD	FLAT:??_C@_0BH@CPJGKDBB@TERRAIN_TYPE_RESERVOIR@
	DD	03H
	DD	FLAT:??_C@_0BE@CFAMEMDA@TERRAIN_TYPE_TRENCH@
	DD	04H
	DD	FLAT:??_C@_0BI@CGKOGCNM@TERRAIN_TYPE_RIVER_BANK@
	DD	05H
	DD	FLAT:??_C@_0BL@CALCHMPL@TERRAIN_TYPE_TRENCH_SIDE_X@
	DD	06H
	DD	FLAT:??_C@_0BL@BCIEBOHJ@TERRAIN_TYPE_TRENCH_SIDE_Z@
	DD	07H
	DD	FLAT:??_C@_0BB@FPPNMNNO@TERRAIN_TYPE_SEA@
	DD	08H
	DD	FLAT:??_C@_0BD@HIJICOML@TERRAIN_TYPE_BEACH@
	DD	09H
	DD	FLAT:??_C@_0BC@JDKPFICG@TERRAIN_TYPE_LAND@
	DD	0aH
	DD	FLAT:??_C@_0BE@ONOHCPDO@TERRAIN_TYPE_FIELD1@
	DD	0bH
	DD	FLAT:??_C@_0BE@MGMKHMPN@TERRAIN_TYPE_FIELD2@
	DD	0cH
	DD	FLAT:??_C@_0BE@NPNBENLM@TERRAIN_TYPE_FIELD3@
	DD	0dH
	DD	FLAT:??_C@_0BE@JAJANLHL@TERRAIN_TYPE_FIELD4@
	DD	0eH
	DD	FLAT:??_C@_0BE@IJILOKDK@TERRAIN_TYPE_FIELD5@
	DD	0fH
	DD	FLAT:??_C@_0BE@KCKGLJPJ@TERRAIN_TYPE_FIELD6@
	DD	010H
	DD	FLAT:??_C@_0BE@LLLNIILI@TERRAIN_TYPE_FIELD7@
	DD	011H
	DD	FLAT:??_C@_0BE@DMCFJEHH@TERRAIN_TYPE_FIELD8@
	DD	012H
	DD	FLAT:??_C@_0BE@CFDOKFDG@TERRAIN_TYPE_FIELD9@
	DD	013H
	DD	FLAT:??_C@_0BF@BOMKMMHH@TERRAIN_TYPE_FIELD10@
	DD	014H
	DD	FLAT:??_C@_0BF@HNBPNDG@TERRAIN_TYPE_FIELD11@
	DD	015H
	DD	FLAT:??_C@_0BL@MOMONHC@TERRAIN_TYPE_ALTERED_LAND1@
	DD	016H
	DD	FLAT:??_C@_0BL@CHMBLOLB@TERRAIN_TYPE_ALTERED_LAND2@
	DD	017H
	DD	FLAT:??_C@_0BL@DONKIPPA@TERRAIN_TYPE_ALTERED_LAND3@
	DD	018H
	DD	FLAT:??_C@_0BK@PCJPECFI@TERRAIN_TYPE_FOREST_FLOOR@
	DD	019H
	DD	FLAT:??_C@_0BH@HFDPPOFP@TERRAIN_TYPE_ROAD_BANK@
	DD	01aH
	DD	FLAT:??_C@_0BH@FNPHHABP@TERRAIN_TYPE_RAIL_BANK@
	DD	01bH
	DD	FLAT:??_C@_0BK@KNLKGHGP@TERRAIN_TYPE_HEDGE_SIDE_X@
	DD	01cH
	DD	FLAT:??_C@_0BK@JPIMAFON@TERRAIN_TYPE_HEDGE_SIDE_Z@
	DD	01dH
	DD	FLAT:??_C@_0BJ@HBMCFKFF@TERRAIN_TYPE_WALL_SIDE_X@
	DD	01eH
	DD	FLAT:??_C@_0BJ@EDPEDINH@TERRAIN_TYPE_WALL_SIDE_Z@
	DD	01fH
	DD	FLAT:??_C@_0CC@PEGNDAIM@TERRAIN_TYPE_FOREST_SIDE_BOTTOM@
	DD	020H
	DD	FLAT:??_C@_0CC@MGFLFCAO@TERRAIN_TYPE_FOREST_SIDE_BOTTOM@
	DD	021H
	DD	FLAT:??_C@_0BP@EFKAHKGH@TERRAIN_TYPE_FOREST_SIDE_MID_X@
	DD	022H
	DD	FLAT:??_C@_0BP@HHJGBIOF@TERRAIN_TYPE_FOREST_SIDE_MID_Z@
	DD	023H
	DD	FLAT:??_C@_0BP@DBECBMFM@TERRAIN_TYPE_FOREST_SIDE_TOP_X@
	DD	024H
	DD	FLAT:??_C@_0BP@DHEHONO@TERRAIN_TYPE_FOREST_SIDE_TOP_Z@
	DD	025H
	DD	FLAT:??_C@_0BM@GKIIMCDG@TERRAIN_TYPE_BUILT_UP_AREA1@
	DD	026H
	DD	FLAT:??_C@_0BM@EBKFJBPF@TERRAIN_TYPE_BUILT_UP_AREA2@
	DD	027H
	DD	FLAT:??_C@_0BM@FILOKALE@TERRAIN_TYPE_BUILT_UP_AREA3@
	DD	028H
	DD	FLAT:??_C@_0BM@BHPPDGHD@TERRAIN_TYPE_BUILT_UP_AREA4@
	DD	029H
	DD	FLAT:??_C@_0BC@KHPMEBML@TERRAIN_TYPE_ROAD@
	DD	02aH
	DD	FLAT:??_C@_0BD@FEPKNHBM@TERRAIN_TYPE_TRACK@
	DD	02bH
	DD	FLAT:??_C@_0BC@IBOJONEI@TERRAIN_TYPE_RAIL@
	DD	02cH
	DD	FLAT:??_C@_0BG@MNGHPFJM@TERRAIN_TYPE_WALL_TOP@
	DD	02dH
	DD	FLAT:??_C@_0BH@FMJLAFNH@TERRAIN_TYPE_HEDGE_TOP@
	DD	02eH
	DD	FLAT:??_C@_0BI@PDIAFKJK@TERRAIN_TYPE_FOREST_TOP@
	DD	02fH
	DD	FLAT:??_C@_0BJ@JMINDAAA@TEMP_TERRAIN_TYPE_FRINGE@
	DD	030H
	DD	FLAT:??_C@_0BN@OFDKHGHN@TEMP_TERRAIN_TYPE_POWER_LINE@
	DD	031H
	DD	FLAT:??_C@_0CB@LFGMNIFC@TEMP_TERRAIN_TYPE_TELEPHONE_LIN@
	DD	032H
	DD	FLAT:??_C@_0BL@GDJOCCFH@TEMP_TERRAIN_TYPE_SEA_BANK@
	DD	033H
	DD	FLAT:??_C@_0CA@JALJOMDF@TEMP_TERRAIN_TYPE_COASTAL_RIVER@
	DD	034H
	DD	FLAT:??_C@_0BM@GGBBLNBN@TEMP_TERRAIN_TYPE_BEACH_MID@
	DD	035H
	DD	FLAT:??_C@_0CG@EJFONOKM@TEMP_TERRAIN_TYPE_STEPPED_RIVER@
	DD	036H
	DD	FLAT:??_C@_0CG@BPAEHJCK@TEMP_TERRAIN_TYPE_STEPPED_RIVER@
	DD	037H
	DD	FLAT:??_C@_0CG@CNDCBLKI@TEMP_TERRAIN_TYPE_STEPPED_RIVER@
	DD	038H
	DD	FLAT:??_C@_0BH@IIDMCDBA@TEMP_TERRAIN_TYPE_LAKE@
	DD	039H
	DD	FLAT:??_C@_0CA@CALDPDJD@TEMP_TERRAIN_TYPE_FOREST_SIDE_X@
	DD	03aH
	DD	FLAT:??_C@_0CA@BCIFJBBB@TEMP_TERRAIN_TYPE_FOREST_SIDE_Z@
	DD	03bH
	DD	FLAT:??_C@_0BK@IOKMOMKC@TEMP_TERRAIN_TYPE_OFFROAD@
	DD	03cH
	DD	FLAT:??_C@_0CF@MDCLHAEG@TEMP_TERRAIN_TYPE_POLITICAL_BOU@
	DD	03dH
	DD	FLAT:??_C@_0CF@IBMDLBFC@TEMP_TERRAIN_TYPE_BUILT_UP_AREA@
	DD	03eH
	DD	FLAT:??_C@_0BC@MNJDHKFE@TERRAIN_TYPE_LAST@
_DATA	ENDS
PUBLIC	?set_3d_terrain_dual_pass_rendering@@YGXH@Z	; set_3d_terrain_dual_pass_rendering
PUBLIC	?get_3d_terrain_dual_pass_rendering@@YGHXZ	; get_3d_terrain_dual_pass_rendering
PUBLIC	?initialise_3d_terrain_rendering_routines@@YGXH@Z ; initialise_3d_terrain_rendering_routines
PUBLIC	?initialise_3d_terrain_types@@YGXXZ		; initialise_3d_terrain_types
PUBLIC	?initialise_3d_terrain_map_specific_texture_indices@@YGXXZ ; initialise_3d_terrain_map_specific_texture_indices
PUBLIC	?get_terrain_type_name@@YGPBDH@Z		; get_terrain_type_name
PUBLIC	?get_terrain_surface_type@@YGHH@Z		; get_terrain_surface_type
PUBLIC	?texture_gamma_correction@@YGMH@Z		; texture_gamma_correction
PUBLIC	?initialise_noisemaps@@YGXXZ			; initialise_noisemaps
PUBLIC	?set_terrain_type_textures@@YGXHHHMMMMMHHHW4SURFACE_TYPES@@@Z ; set_terrain_type_textures
PUBLIC	?set_terrain_textures@@YGXHHH@Z			; set_terrain_textures
PUBLIC	??_C@_0CA@IOGBLHOJ@terrain?5type?5?$CFs?5not?5initialised@ ; `string'
PUBLIC	??_C@_0O@DCAMCMDE@TERRAIN_SEA_1@		; `string'
PUBLIC	??_C@_0BA@EEKPDLHD@COLOUR_PASS_SEA@		; `string'
PUBLIC	??_C@_0O@BBEHGFKB@TERRAIN_BEACH@		; `string'
PUBLIC	??_C@_0M@LDEJELLC@COLOUR_PASS@			; `string'
PUBLIC	??_C@_0BB@BDNEEDDA@TERRAIN_DETAIL_4@		; `string'
PUBLIC	??_C@_0P@EOGCBCMK@CH_TERRAIN_CP1@		; `string'
PUBLIC	??_C@_0BG@EOMIBGLD@TERRAIN_TREE_CANOPY_1@	; `string'
PUBLIC	??_C@_0BD@KHLAAODF@TERRAIN_THAI_CITY4@		; `string'
PUBLIC	??_C@_0BD@OIPBJIPC@TERRAIN_THAI_CITY3@		; `string'
PUBLIC	??_C@_0BD@PBOKKJLD@TERRAIN_THAI_CITY2@		; `string'
PUBLIC	??_C@_0BD@NKMHPKHA@TERRAIN_THAI_CITY1@		; `string'
PUBLIC	??_C@_0BB@IALPPKNP@TERRAIN_BW_CITY4@		; `string'
PUBLIC	??_C@_0BB@MPPOGMBI@TERRAIN_BW_CITY3@		; `string'
PUBLIC	??_C@_0BB@NGOFFNFJ@TERRAIN_BW_CITY2@		; `string'
PUBLIC	??_C@_0BB@PNMIAOJK@TERRAIN_BW_CITY1@		; `string'
PUBLIC	??_C@_0BE@EOMJEIPI@TERRAIN_DETAIL_ROAD@		; `string'
PUBLIC	??_C@_0BB@OHLOCNHA@COLOUR_PASS_WALL@		; `string'
PUBLIC	??_C@_0BI@HCKGLJHJ@TERRAIN_THAI_DIRT_TRACK@	; `string'
PUBLIC	??_C@_0BH@LCADFALJ@TERRAIN_THAILAND_RIVER@	; `string'
PUBLIC	??_C@_0BF@GFEKLLKL@TERRAIN_MUSTARDFIELD@	; `string'
PUBLIC	??_C@_0BH@JNGNCFED@TERRAIN_PLOUGHED1FIELD@	; `string'
PUBLIC	??_C@_0BH@KMIFDPNO@TERRAIN_PLOUGHED2FIELD@	; `string'
PUBLIC	??_C@_0BC@KJPKDFNB@TERRAIN_CORNFIELD@		; `string'
PUBLIC	??_C@_0BD@DPOGMPFD@TERRAIN_WHEATFIELD@		; `string'
PUBLIC	??_C@_0BI@KPJCKJLC@TERRAIN_LIGHTGREENFIELD@	; `string'
PUBLIC	??_C@_0BH@BEINOGAP@TERRAIN_DARKGREENFIELD@	; `string'
PUBLIC	??_C@_0P@BKMAGCLI@TERRAIN_SWAMP1@		; `string'
PUBLIC	??_C@_0P@DBONDBHL@TERRAIN_SWAMP2@		; `string'
PUBLIC	??_C@_0BB@NLCHJFOM@TERRAIN_HIGHLAND@		; `string'
PUBLIC	??_C@_0BB@ILJMAEMJ@COLOUR_PASS_ROCK@		; `string'
PUBLIC	??_C@_07MGCPDNLD@DEFAULT@			; `string'
PUBLIC	??_C@_0BD@MIKAIJBD@ENVIRO_YEMEN_SMALL@		; `string'
PUBLIC	??_C@_0BD@BIEFPCFF@TERRAIN_CUBA_CITY4@		; `string'
PUBLIC	??_C@_0BD@FHAEGEJC@TERRAIN_CUBA_CITY3@		; `string'
PUBLIC	??_C@_0BD@EOBPFFND@TERRAIN_CUBA_CITY2@		; `string'
PUBLIC	??_C@_0BD@GFDCAGBA@TERRAIN_CUBA_CITY1@		; `string'
PUBLIC	??_C@_0BD@HAICHOLH@TERRAIN_THAI_TRACK@		; `string'
PUBLIC	??_C@_0O@KOAPGDHE@TERRAIN_RIVER@		; `string'
PUBLIC	??_C@_0O@PGGFIOAG@TERRAIN_SCRUB@		; `string'
PUBLIC	??_C@_0BG@IGFCFCHF@COLOUR_PASS_MOUNTAINS@	; `string'
PUBLIC	??_C@_0BD@BMPINLKM@TERRAIN_BARE_ROCK2@		; `string'
PUBLIC	??_C@_0N@JANIPHBF@TERRAIN_SNOW@			; `string'
PUBLIC	??_C@_0BB@OBCNOOCF@COLOUR_PASS_SNOW@		; `string'
PUBLIC	??_C@_0BE@HJIDJHBJ@COLOUR_PASS_GRG_SEA@		; `string'
PUBLIC	??_C@_0BC@IFNGCBJM@TERRAIN_GRG_CITY4@		; `string'
PUBLIC	??_C@_0BC@MKJHLHFL@TERRAIN_GRG_CITY3@		; `string'
PUBLIC	??_C@_0BC@NDIMIGBK@TERRAIN_GRG_CITY2@		; `string'
PUBLIC	??_C@_0BC@PIKBNFNJ@TERRAIN_GRG_CITY1@		; `string'
PUBLIC	??_C@_0BI@EBJMGEFE@COLOUR_PASS_SEA_LEBANON@	; `string'
PUBLIC	??_C@_0BE@CBPBIHAE@COLOUR_PASS_LEBANON@		; `string'
PUBLIC	??_C@_0BH@IMANJLMO@TERRAIN_DETAIL_LEBANON@	; `string'
PUBLIC	??_C@_0BM@NCJBOGKD@TERRAIN_TREE_CANOPY_LEBANON@	; `string'
PUBLIC	??_C@_0BL@LIHLPOJG@COLOUR_PASS_FOREST_LEBANON@	; `string'
PUBLIC	??_C@_0BE@JDCCELCI@CP_LEBANON_V2_CITY1@		; `string'
PUBLIC	??_C@_0BE@LIAPBIOL@CP_LEBANON_V2_CITY2@		; `string'
PUBLIC	??_C@_0BE@KBBECJKK@CP_LEBANON_V2_CITY3@		; `string'
PUBLIC	??_C@_0BE@OOFFLPGN@CP_LEBANON_V2_CITY4@		; `string'
PUBLIC	??_C@_0BE@LMHLPLCF@BW_LEBANON_V2_CITY1@		; `string'
PUBLIC	??_C@_0BE@JHFGKIOG@BW_LEBANON_V2_CITY2@		; `string'
PUBLIC	??_C@_0BE@IOENJJKH@BW_LEBANON_V2_CITY3@		; `string'
PUBLIC	??_C@_0BE@MBAMAPGA@BW_LEBANON_V2_CITY4@		; `string'
PUBLIC	??_C@_0BJ@LBCKHBIJ@COLOUR_PASS_ROCK_LEBANON@	; `string'
PUBLIC	??_C@_0BK@LGOINMMJ@COLOUR_PASS_SCRUB_LEBANON@	; `string'
PUBLIC	??_C@_0BK@BGKABACE@TERRAIN_BARE_ROCK_LEBANON@	; `string'
PUBLIC	??_C@_0BF@DGPHNMHH@TERRAIN_SNOW_LEBANON@	; `string'
PUBLIC	??_C@_0BF@MCHGDFIO@TERRAIN_WALL_LEBANON@	; `string'
PUBLIC	??_C@_06OPNEJFKO@DESERT@			; `string'
PUBLIC	??_C@_0BF@MBOPLBDO@TERRAIN_YEMEN_GRITTY@	; `string'
PUBLIC	??_C@_0BJ@OILJFHJP@COLOUR_PASS_YEMEN_BAKED2@	; `string'
PUBLIC	??_C@_0M@JLGKMFHJ@YEMEN_CITY3@			; `string'
PUBLIC	??_C@_0M@KJFMKHPL@YEMEN_CITY1@			; `string'
PUBLIC	??_C@_0BE@KGIMOHE@TERRAIN_YEMEN_STONY@		; `string'
PUBLIC	??_C@_0BE@BGLJBDBC@TERRAIN_YEMEN_BAKED@		; `string'
PUBLIC	??_C@_0BE@JFJMKOBJ@TERRAIN_YEMEN_LUNAR@		; `string'
PUBLIC	??_C@_0BC@GNMAAAJL@COLOUR_PASS_SWAMP@		; `string'
PUBLIC	??_C@_0L@GAEOMBKJ@terrtype?4c@			; `string'
PUBLIC	??_C@_0P@CBMAAOCK@NOISEMAP_FIELD@		; `string'
PUBLIC	??_C@_0BF@CENFCBOJ@NOISEMAP_TREE_CANOPY@	; `string'
PUBLIC	??_C@_0O@KMHDEPEJ@NOISEMAP_SAND@		; `string'
PUBLIC	??_C@_0O@JEDNHELK@NOISEMAP_SNOW@		; `string'
PUBLIC	??_C@_0P@GADHIMJA@NOISEMAP_GRASS@		; `string'
PUBLIC	??_C@_08JGBMEEAM@NOISEMAP@			; `string'
PUBLIC	??_C@_0P@CCNGCKHH@NOISEMAP_WATER@		; `string'
PUBLIC	??_C@_0P@FHCKDOFL@NOISEMAP_BEACH@		; `string'
PUBLIC	??_C@_0BE@PCKHIBHJ@CH_TERRAIN_DRY_MUD1@		; `string'
PUBLIC	??_C@_0N@JGELDEEA@TERRAIN_WALL@			; `string'
PUBLIC	??_C@_0BO@FDKKCFKA@noisemap?5array?5out?5of?5bounds?$CB@ ; `string'
PUBLIC	__real@0000000000000000
PUBLIC	__real@3f800000
PUBLIC	__real@3fa00000
PUBLIC	__real@3fb0000000000000
PUBLIC	__real@3fb33333
PUBLIC	__real@3ff0000000000000
PUBLIC	__real@40000000
PUBLIC	__real@4003333333333333
PUBLIC	__real@40800000
PUBLIC	__real@40a00000
PUBLIC	__real@41000000
PUBLIC	__real@42000000
PUBLIC	__real@42200000
PUBLIC	__real@43000000
PUBLIC	__real@437a0000
PUBLIC	__real@43800000
PUBLIC	__real@43fa0000
PUBLIC	__real@44000000
PUBLIC	__real@443b8000
PUBLIC	__real@447a0000
PUBLIC	__real@44800000
PUBLIC	__real@44898000
PUBLIC	__real@448d0000
PUBLIC	__real@44996000
PUBLIC	__real@449c4000
PUBLIC	__real@44a5e000
PUBLIC	__real@44bb8000
PUBLIC	__real@44bee000
PUBLIC	__real@44c80000
PUBLIC	__real@44dac000
PUBLIC	__real@44e46000
PUBLIC	__real@44fa0000
PUBLIC	__real@45000000
PUBLIC	__real@45098000
PUBLIC	__real@450fc000
PUBLIC	__real@451c4000
PUBLIC	__real@45228000
PUBLIC	__real@453b8000
PUBLIC	__real@4541c000
PUBLIC	__real@454e2000
PUBLIC	__real@45674000
PUBLIC	__real@459c4000
PUBLIC	__real@b8d1b717
PUBLIC	__real@c47a0000
EXTRN	_memset:PROC
EXTRN	?debug_fatal@@YAXPBDZZ:PROC			; debug_fatal
EXTRN	?debug_log@@YAXPBDZZ:PROC			; debug_log
EXTRN	?get_system_texture_index@@YGHPBD@Z:PROC	; get_system_texture_index
EXTRN	?add_new_texture@@YGHPBD0@Z:PROC		; add_new_texture
EXTRN	?set_object_3d_texture_camoflage_by_name@@YGXPAD@Z:PROC ; set_object_3d_texture_camoflage_by_name
EXTRN	?set_object_3d_reflection_texture_map@@YGXH@Z:PROC ; set_object_3d_reflection_texture_map
EXTRN	?set_3d_rain_special_snow_flag@@YGXH@Z:PROC	; set_3d_rain_special_snow_flag
EXTRN	?draw_3d_terrain_unclipped_fan_word_face@@YGXH@Z:PROC ; draw_3d_terrain_unclipped_fan_word_face
EXTRN	?draw_3d_terrain_unclipped_fan_byte_face@@YGXH@Z:PROC ; draw_3d_terrain_unclipped_fan_byte_face
EXTRN	?draw_3d_terrain_unclipped_strip_word_face@@YGXH@Z:PROC ; draw_3d_terrain_unclipped_strip_word_face
EXTRN	?draw_3d_terrain_unclipped_strip_byte_face@@YGXH@Z:PROC ; draw_3d_terrain_unclipped_strip_byte_face
EXTRN	?draw_3d_terrain_texture_x_unclipped_fan_word_face@@YGXH@Z:PROC ; draw_3d_terrain_texture_x_unclipped_fan_word_face
EXTRN	?draw_3d_terrain_texture_x_unclipped_fan_byte_face@@YGXH@Z:PROC ; draw_3d_terrain_texture_x_unclipped_fan_byte_face
EXTRN	?draw_3d_terrain_texture_z_unclipped_fan_word_face@@YGXH@Z:PROC ; draw_3d_terrain_texture_z_unclipped_fan_word_face
EXTRN	?draw_3d_terrain_texture_z_unclipped_fan_byte_face@@YGXH@Z:PROC ; draw_3d_terrain_texture_z_unclipped_fan_byte_face
EXTRN	?draw_3d_terrain_texture_x_unclipped_strip_word_face@@YGXH@Z:PROC ; draw_3d_terrain_texture_x_unclipped_strip_word_face
EXTRN	?draw_3d_terrain_texture_x_unclipped_strip_byte_face@@YGXH@Z:PROC ; draw_3d_terrain_texture_x_unclipped_strip_byte_face
EXTRN	?draw_3d_terrain_texture_z_unclipped_strip_word_face@@YGXH@Z:PROC ; draw_3d_terrain_texture_z_unclipped_strip_word_face
EXTRN	?draw_3d_terrain_texture_z_unclipped_strip_byte_face@@YGXH@Z:PROC ; draw_3d_terrain_texture_z_unclipped_strip_byte_face
EXTRN	?draw_3d_terrain_colour_unclipped_fan_word_face@@YGXH@Z:PROC ; draw_3d_terrain_colour_unclipped_fan_word_face
EXTRN	?draw_3d_terrain_colour_unclipped_fan_byte_face@@YGXH@Z:PROC ; draw_3d_terrain_colour_unclipped_fan_byte_face
EXTRN	?draw_3d_terrain_colour_unclipped_strip_word_face@@YGXH@Z:PROC ; draw_3d_terrain_colour_unclipped_strip_word_face
EXTRN	?draw_3d_terrain_colour_unclipped_strip_byte_face@@YGXH@Z:PROC ; draw_3d_terrain_colour_unclipped_strip_byte_face
EXTRN	?draw_3d_terrain_texture_x_colour_unclipped_fan_word_face@@YGXH@Z:PROC ; draw_3d_terrain_texture_x_colour_unclipped_fan_word_face
EXTRN	?draw_3d_terrain_texture_x_colour_unclipped_fan_byte_face@@YGXH@Z:PROC ; draw_3d_terrain_texture_x_colour_unclipped_fan_byte_face
EXTRN	?draw_3d_terrain_texture_z_colour_unclipped_fan_word_face@@YGXH@Z:PROC ; draw_3d_terrain_texture_z_colour_unclipped_fan_word_face
EXTRN	?draw_3d_terrain_texture_z_colour_unclipped_fan_byte_face@@YGXH@Z:PROC ; draw_3d_terrain_texture_z_colour_unclipped_fan_byte_face
EXTRN	?draw_3d_terrain_texture_x_colour_unclipped_strip_word_face@@YGXH@Z:PROC ; draw_3d_terrain_texture_x_colour_unclipped_strip_word_face
EXTRN	?draw_3d_terrain_texture_x_colour_unclipped_strip_byte_face@@YGXH@Z:PROC ; draw_3d_terrain_texture_x_colour_unclipped_strip_byte_face
EXTRN	?draw_3d_terrain_texture_z_colour_unclipped_strip_word_face@@YGXH@Z:PROC ; draw_3d_terrain_texture_z_colour_unclipped_strip_word_face
EXTRN	?draw_3d_terrain_texture_z_colour_unclipped_strip_byte_face@@YGXH@Z:PROC ; draw_3d_terrain_texture_z_colour_unclipped_strip_byte_face
EXTRN	?draw_3d_terrain_twopass_unclipped_fan_word_face@@YGXH@Z:PROC ; draw_3d_terrain_twopass_unclipped_fan_word_face
EXTRN	?draw_3d_terrain_twopass_unclipped_fan_byte_face@@YGXH@Z:PROC ; draw_3d_terrain_twopass_unclipped_fan_byte_face
EXTRN	?draw_3d_terrain_twopass_unclipped_strip_word_face@@YGXH@Z:PROC ; draw_3d_terrain_twopass_unclipped_strip_word_face
EXTRN	?draw_3d_terrain_twopass_unclipped_strip_byte_face@@YGXH@Z:PROC ; draw_3d_terrain_twopass_unclipped_strip_byte_face
EXTRN	?draw_3d_terrain_twopass_texture_x_unclipped_fan_word_face@@YGXH@Z:PROC ; draw_3d_terrain_twopass_texture_x_unclipped_fan_word_face
EXTRN	?draw_3d_terrain_twopass_texture_x_unclipped_fan_byte_face@@YGXH@Z:PROC ; draw_3d_terrain_twopass_texture_x_unclipped_fan_byte_face
EXTRN	?draw_3d_terrain_twopass_texture_z_unclipped_fan_word_face@@YGXH@Z:PROC ; draw_3d_terrain_twopass_texture_z_unclipped_fan_word_face
EXTRN	?draw_3d_terrain_twopass_texture_z_unclipped_fan_byte_face@@YGXH@Z:PROC ; draw_3d_terrain_twopass_texture_z_unclipped_fan_byte_face
EXTRN	?draw_3d_terrain_twopass_texture_x_unclipped_strip_word_face@@YGXH@Z:PROC ; draw_3d_terrain_twopass_texture_x_unclipped_strip_word_face
EXTRN	?draw_3d_terrain_twopass_texture_x_unclipped_strip_byte_face@@YGXH@Z:PROC ; draw_3d_terrain_twopass_texture_x_unclipped_strip_byte_face
EXTRN	?draw_3d_terrain_twopass_texture_z_unclipped_strip_word_face@@YGXH@Z:PROC ; draw_3d_terrain_twopass_texture_z_unclipped_strip_word_face
EXTRN	?draw_3d_terrain_twopass_texture_z_unclipped_strip_byte_face@@YGXH@Z:PROC ; draw_3d_terrain_twopass_texture_z_unclipped_strip_byte_face
EXTRN	?draw_3d_terrain_twopass_colour_unclipped_fan_word_face@@YGXH@Z:PROC ; draw_3d_terrain_twopass_colour_unclipped_fan_word_face
EXTRN	?draw_3d_terrain_twopass_colour_unclipped_fan_byte_face@@YGXH@Z:PROC ; draw_3d_terrain_twopass_colour_unclipped_fan_byte_face
EXTRN	?draw_3d_terrain_twopass_colour_unclipped_strip_word_face@@YGXH@Z:PROC ; draw_3d_terrain_twopass_colour_unclipped_strip_word_face
EXTRN	?draw_3d_terrain_twopass_colour_unclipped_strip_byte_face@@YGXH@Z:PROC ; draw_3d_terrain_twopass_colour_unclipped_strip_byte_face
EXTRN	?draw_3d_terrain_twopass_texture_x_colour_unclipped_fan_word_face@@YGXH@Z:PROC ; draw_3d_terrain_twopass_texture_x_colour_unclipped_fan_word_face
EXTRN	?draw_3d_terrain_twopass_texture_x_colour_unclipped_fan_byte_face@@YGXH@Z:PROC ; draw_3d_terrain_twopass_texture_x_colour_unclipped_fan_byte_face
EXTRN	?draw_3d_terrain_twopass_texture_z_colour_unclipped_fan_word_face@@YGXH@Z:PROC ; draw_3d_terrain_twopass_texture_z_colour_unclipped_fan_word_face
EXTRN	?draw_3d_terrain_twopass_texture_z_colour_unclipped_fan_byte_face@@YGXH@Z:PROC ; draw_3d_terrain_twopass_texture_z_colour_unclipped_fan_byte_face
EXTRN	?draw_3d_terrain_twopass_texture_x_colour_unclipped_strip_word_face@@YGXH@Z:PROC ; draw_3d_terrain_twopass_texture_x_colour_unclipped_strip_word_face
EXTRN	?draw_3d_terrain_twopass_texture_x_colour_unclipped_strip_byte_face@@YGXH@Z:PROC ; draw_3d_terrain_twopass_texture_x_colour_unclipped_strip_byte_face
EXTRN	?draw_3d_terrain_twopass_texture_z_colour_unclipped_strip_word_face@@YGXH@Z:PROC ; draw_3d_terrain_twopass_texture_z_colour_unclipped_strip_word_face
EXTRN	?draw_3d_terrain_twopass_texture_z_colour_unclipped_strip_byte_face@@YGXH@Z:PROC ; draw_3d_terrain_twopass_texture_z_colour_unclipped_strip_byte_face
EXTRN	?draw_3d_terrain_clipped_fan_word_face@@YGXH@Z:PROC ; draw_3d_terrain_clipped_fan_word_face
EXTRN	?draw_3d_terrain_clipped_fan_byte_face@@YGXH@Z:PROC ; draw_3d_terrain_clipped_fan_byte_face
EXTRN	?draw_3d_terrain_clipped_strip_word_face@@YGXH@Z:PROC ; draw_3d_terrain_clipped_strip_word_face
EXTRN	?draw_3d_terrain_clipped_strip_byte_face@@YGXH@Z:PROC ; draw_3d_terrain_clipped_strip_byte_face
EXTRN	?draw_3d_terrain_texture_x_clipped_fan_word_face@@YGXH@Z:PROC ; draw_3d_terrain_texture_x_clipped_fan_word_face
EXTRN	?draw_3d_terrain_texture_x_clipped_fan_byte_face@@YGXH@Z:PROC ; draw_3d_terrain_texture_x_clipped_fan_byte_face
EXTRN	?draw_3d_terrain_texture_z_clipped_fan_word_face@@YGXH@Z:PROC ; draw_3d_terrain_texture_z_clipped_fan_word_face
EXTRN	?draw_3d_terrain_texture_z_clipped_fan_byte_face@@YGXH@Z:PROC ; draw_3d_terrain_texture_z_clipped_fan_byte_face
EXTRN	?draw_3d_terrain_texture_x_clipped_strip_word_face@@YGXH@Z:PROC ; draw_3d_terrain_texture_x_clipped_strip_word_face
EXTRN	?draw_3d_terrain_texture_x_clipped_strip_byte_face@@YGXH@Z:PROC ; draw_3d_terrain_texture_x_clipped_strip_byte_face
EXTRN	?draw_3d_terrain_texture_z_clipped_strip_word_face@@YGXH@Z:PROC ; draw_3d_terrain_texture_z_clipped_strip_word_face
EXTRN	?draw_3d_terrain_texture_z_clipped_strip_byte_face@@YGXH@Z:PROC ; draw_3d_terrain_texture_z_clipped_strip_byte_face
EXTRN	?draw_3d_terrain_colour_clipped_fan_word_face@@YGXH@Z:PROC ; draw_3d_terrain_colour_clipped_fan_word_face
EXTRN	?draw_3d_terrain_colour_clipped_fan_byte_face@@YGXH@Z:PROC ; draw_3d_terrain_colour_clipped_fan_byte_face
EXTRN	?draw_3d_terrain_colour_clipped_strip_word_face@@YGXH@Z:PROC ; draw_3d_terrain_colour_clipped_strip_word_face
EXTRN	?draw_3d_terrain_colour_clipped_strip_byte_face@@YGXH@Z:PROC ; draw_3d_terrain_colour_clipped_strip_byte_face
EXTRN	?draw_3d_terrain_texture_x_colour_clipped_fan_word_face@@YGXH@Z:PROC ; draw_3d_terrain_texture_x_colour_clipped_fan_word_face
EXTRN	?draw_3d_terrain_texture_x_colour_clipped_fan_byte_face@@YGXH@Z:PROC ; draw_3d_terrain_texture_x_colour_clipped_fan_byte_face
EXTRN	?draw_3d_terrain_texture_z_colour_clipped_fan_word_face@@YGXH@Z:PROC ; draw_3d_terrain_texture_z_colour_clipped_fan_word_face
EXTRN	?draw_3d_terrain_texture_z_colour_clipped_fan_byte_face@@YGXH@Z:PROC ; draw_3d_terrain_texture_z_colour_clipped_fan_byte_face
EXTRN	?draw_3d_terrain_texture_x_colour_clipped_strip_word_face@@YGXH@Z:PROC ; draw_3d_terrain_texture_x_colour_clipped_strip_word_face
EXTRN	?draw_3d_terrain_texture_x_colour_clipped_strip_byte_face@@YGXH@Z:PROC ; draw_3d_terrain_texture_x_colour_clipped_strip_byte_face
EXTRN	?draw_3d_terrain_texture_z_colour_clipped_strip_word_face@@YGXH@Z:PROC ; draw_3d_terrain_texture_z_colour_clipped_strip_word_face
EXTRN	?draw_3d_terrain_texture_z_colour_clipped_strip_byte_face@@YGXH@Z:PROC ; draw_3d_terrain_texture_z_colour_clipped_strip_byte_face
EXTRN	?draw_3d_terrain_twopass_clipped_fan_word_face@@YGXH@Z:PROC ; draw_3d_terrain_twopass_clipped_fan_word_face
EXTRN	?draw_3d_terrain_twopass_clipped_fan_byte_face@@YGXH@Z:PROC ; draw_3d_terrain_twopass_clipped_fan_byte_face
EXTRN	?draw_3d_terrain_twopass_clipped_strip_word_face@@YGXH@Z:PROC ; draw_3d_terrain_twopass_clipped_strip_word_face
EXTRN	?draw_3d_terrain_twopass_clipped_strip_byte_face@@YGXH@Z:PROC ; draw_3d_terrain_twopass_clipped_strip_byte_face
EXTRN	?draw_3d_terrain_twopass_texture_x_clipped_fan_word_face@@YGXH@Z:PROC ; draw_3d_terrain_twopass_texture_x_clipped_fan_word_face
EXTRN	?draw_3d_terrain_twopass_texture_x_clipped_fan_byte_face@@YGXH@Z:PROC ; draw_3d_terrain_twopass_texture_x_clipped_fan_byte_face
EXTRN	?draw_3d_terrain_twopass_texture_z_clipped_fan_word_face@@YGXH@Z:PROC ; draw_3d_terrain_twopass_texture_z_clipped_fan_word_face
EXTRN	?draw_3d_terrain_twopass_texture_z_clipped_fan_byte_face@@YGXH@Z:PROC ; draw_3d_terrain_twopass_texture_z_clipped_fan_byte_face
EXTRN	?draw_3d_terrain_twopass_texture_x_clipped_strip_word_face@@YGXH@Z:PROC ; draw_3d_terrain_twopass_texture_x_clipped_strip_word_face
EXTRN	?draw_3d_terrain_twopass_texture_x_clipped_strip_byte_face@@YGXH@Z:PROC ; draw_3d_terrain_twopass_texture_x_clipped_strip_byte_face
EXTRN	?draw_3d_terrain_twopass_texture_z_clipped_strip_word_face@@YGXH@Z:PROC ; draw_3d_terrain_twopass_texture_z_clipped_strip_word_face
EXTRN	?draw_3d_terrain_twopass_texture_z_clipped_strip_byte_face@@YGXH@Z:PROC ; draw_3d_terrain_twopass_texture_z_clipped_strip_byte_face
EXTRN	?draw_3d_terrain_twopass_colour_clipped_fan_word_face@@YGXH@Z:PROC ; draw_3d_terrain_twopass_colour_clipped_fan_word_face
EXTRN	?draw_3d_terrain_twopass_colour_clipped_fan_byte_face@@YGXH@Z:PROC ; draw_3d_terrain_twopass_colour_clipped_fan_byte_face
EXTRN	?draw_3d_terrain_twopass_colour_clipped_strip_word_face@@YGXH@Z:PROC ; draw_3d_terrain_twopass_colour_clipped_strip_word_face
EXTRN	?draw_3d_terrain_twopass_colour_clipped_strip_byte_face@@YGXH@Z:PROC ; draw_3d_terrain_twopass_colour_clipped_strip_byte_face
EXTRN	?draw_3d_terrain_twopass_texture_x_colour_clipped_fan_word_face@@YGXH@Z:PROC ; draw_3d_terrain_twopass_texture_x_colour_clipped_fan_word_face
EXTRN	?draw_3d_terrain_twopass_texture_x_colour_clipped_fan_byte_face@@YGXH@Z:PROC ; draw_3d_terrain_twopass_texture_x_colour_clipped_fan_byte_face
EXTRN	?draw_3d_terrain_twopass_texture_z_colour_clipped_fan_word_face@@YGXH@Z:PROC ; draw_3d_terrain_twopass_texture_z_colour_clipped_fan_word_face
EXTRN	?draw_3d_terrain_twopass_texture_z_colour_clipped_fan_byte_face@@YGXH@Z:PROC ; draw_3d_terrain_twopass_texture_z_colour_clipped_fan_byte_face
EXTRN	?draw_3d_terrain_twopass_texture_x_colour_clipped_strip_word_face@@YGXH@Z:PROC ; draw_3d_terrain_twopass_texture_x_colour_clipped_strip_word_face
EXTRN	?draw_3d_terrain_twopass_texture_x_colour_clipped_strip_byte_face@@YGXH@Z:PROC ; draw_3d_terrain_twopass_texture_x_colour_clipped_strip_byte_face
EXTRN	?draw_3d_terrain_twopass_texture_z_colour_clipped_strip_word_face@@YGXH@Z:PROC ; draw_3d_terrain_twopass_texture_z_colour_clipped_strip_word_face
EXTRN	?draw_3d_terrain_twopass_texture_z_colour_clipped_strip_byte_face@@YGXH@Z:PROC ; draw_3d_terrain_twopass_texture_z_colour_clipped_strip_byte_face
EXTRN	?set_2d_terrain_contour_heights@@YGXHPAM@Z:PROC	; set_2d_terrain_contour_heights
EXTRN	?d3d_modulate_alpha@@3HA:DWORD			; d3d_modulate_alpha
EXTRN	?system_textures@@3PAPAUSCREEN@@A:BYTE		; system_textures
EXTRN	?current_map_info@@3UCUSTOM_MAP_INFO@@A:BYTE	; current_map_info
EXTRN	?active_3d_environment@@3PAUENV_3D@@A:DWORD	; active_3d_environment
EXTRN	?current_terrain_version@@3UTERRAIN_3D_FILE_VALIDATION@@A:DWORD ; current_terrain_version
EXTRN	?command_line_texture_colour@@3HA:DWORD		; command_line_texture_colour
EXTRN	?global_dynamic_water@@3HA:DWORD		; global_dynamic_water
EXTRN	__fltused:DWORD
_BSS	SEGMENT
?change_river_texture@@3HA DD 01H DUP (?)		; change_river_texture
?change_sea_texture@@3HA DD 01H DUP (?)			; change_sea_texture
?change_reservoir_texture@@3HA DD 01H DUP (?)		; change_reservoir_texture
?terrain_texture_sea_detail@@3HA DD 01H DUP (?)		; terrain_texture_sea_detail
?terrain_texture_sea_colour_pass@@3HA DD 01H DUP (?)	; terrain_texture_sea_colour_pass
?terrain_texture_beach_detail@@3HA DD 01H DUP (?)	; terrain_texture_beach_detail
?terrain_texture_beach_colour_pass@@3HA DD 01H DUP (?)	; terrain_texture_beach_colour_pass
?terrain_texture_land_detail@@3HA DD 01H DUP (?)	; terrain_texture_land_detail
?terrain_texture_land_colour_pass@@3HA DD 01H DUP (?)	; terrain_texture_land_colour_pass
?terrain_texture_forest_detail@@3HA DD 01H DUP (?)	; terrain_texture_forest_detail
?terrain_texture_forest_colour_pass@@3HA DD 01H DUP (?)	; terrain_texture_forest_colour_pass
?terrain_texture_forest_top_detail@@3HA DD 01H DUP (?)	; terrain_texture_forest_top_detail
?terrain_texture_forest_top_colour_pass@@3HA DD 01H DUP (?) ; terrain_texture_forest_top_colour_pass
?terrain_texture_forest_middle_detail@@3HA DD 01H DUP (?) ; terrain_texture_forest_middle_detail
?terrain_texture_forest_middle_colour_pass@@3HA DD 01H DUP (?) ; terrain_texture_forest_middle_colour_pass
?terrain_texture_forest_bottom_detail@@3HA DD 01H DUP (?) ; terrain_texture_forest_bottom_detail
?terrain_texture_forest_bottom_colour_pass@@3HA DD 01H DUP (?) ; terrain_texture_forest_bottom_colour_pass
?terrain_texture_builtup_area1_detail@@3HA DD 01H DUP (?) ; terrain_texture_builtup_area1_detail
?terrain_texture_builtup_area1_colour_pass@@3HA DD 01H DUP (?) ; terrain_texture_builtup_area1_colour_pass
?terrain_texture_builtup_area2_detail@@3HA DD 01H DUP (?) ; terrain_texture_builtup_area2_detail
?terrain_texture_builtup_area2_colour_pass@@3HA DD 01H DUP (?) ; terrain_texture_builtup_area2_colour_pass
?terrain_texture_builtup_area3_detail@@3HA DD 01H DUP (?) ; terrain_texture_builtup_area3_detail
?terrain_texture_builtup_area3_colour_pass@@3HA DD 01H DUP (?) ; terrain_texture_builtup_area3_colour_pass
?terrain_texture_builtup_area4_detail@@3HA DD 01H DUP (?) ; terrain_texture_builtup_area4_detail
?terrain_texture_builtup_area4_colour_pass@@3HA DD 01H DUP (?) ; terrain_texture_builtup_area4_colour_pass
?terrain_texture_builtup_area1_infrared_detail@@3HA DD 01H DUP (?) ; terrain_texture_builtup_area1_infrared_detail
?terrain_texture_builtup_area1_infrared_colour_pass@@3HA DD 01H DUP (?) ; terrain_texture_builtup_area1_infrared_colour_pass
?terrain_texture_builtup_area2_infrared_detail@@3HA DD 01H DUP (?) ; terrain_texture_builtup_area2_infrared_detail
?terrain_texture_builtup_area2_infrared_colour_pass@@3HA DD 01H DUP (?) ; terrain_texture_builtup_area2_infrared_colour_pass
?terrain_texture_builtup_area3_infrared_detail@@3HA DD 01H DUP (?) ; terrain_texture_builtup_area3_infrared_detail
?terrain_texture_builtup_area3_infrared_colour_pass@@3HA DD 01H DUP (?) ; terrain_texture_builtup_area3_infrared_colour_pass
?terrain_texture_builtup_area4_infrared_detail@@3HA DD 01H DUP (?) ; terrain_texture_builtup_area4_infrared_detail
?terrain_texture_builtup_area4_infrared_colour_pass@@3HA DD 01H DUP (?) ; terrain_texture_builtup_area4_infrared_colour_pass
?terrain_texture_road_detail@@3HA DD 01H DUP (?)	; terrain_texture_road_detail
?terrain_texture_road_colour_pass@@3HA DD 01H DUP (?)	; terrain_texture_road_colour_pass
?terrain_texture_track_detail@@3HA DD 01H DUP (?)	; terrain_texture_track_detail
?terrain_texture_track_colour_pass@@3HA DD 01H DUP (?)	; terrain_texture_track_colour_pass
?terrain_texture_river_detail@@3HA DD 01H DUP (?)	; terrain_texture_river_detail
?terrain_texture_river_colour_pass@@3HA DD 01H DUP (?)	; terrain_texture_river_colour_pass
?terrain_texture_reservoir_detail@@3HA DD 01H DUP (?)	; terrain_texture_reservoir_detail
?terrain_texture_reservoir_colour_pass@@3HA DD 01H DUP (?) ; terrain_texture_reservoir_colour_pass
?terrain_texture_rail_detail@@3HA DD 01H DUP (?)	; terrain_texture_rail_detail
?terrain_texture_rail_colour_pass@@3HA DD 01H DUP (?)	; terrain_texture_rail_colour_pass
?terrain_texture_road_bank_detail@@3HA DD 01H DUP (?)	; terrain_texture_road_bank_detail
?terrain_texture_road_bank_colour_pass@@3HA DD 01H DUP (?) ; terrain_texture_road_bank_colour_pass
?terrain_texture_river_bank_detail@@3HA DD 01H DUP (?)	; terrain_texture_river_bank_detail
?terrain_texture_river_bank_colour_pass@@3HA DD 01H DUP (?) ; terrain_texture_river_bank_colour_pass
?terrain_texture_rail_bank_detail@@3HA DD 01H DUP (?)	; terrain_texture_rail_bank_detail
?terrain_texture_rail_bank_colour_pass@@3HA DD 01H DUP (?) ; terrain_texture_rail_bank_colour_pass
?terrain_texture_field1_detail@@3HA DD 01H DUP (?)	; terrain_texture_field1_detail
?terrain_texture_field1_colour_pass@@3HA DD 01H DUP (?)	; terrain_texture_field1_colour_pass
?terrain_texture_field2_detail@@3HA DD 01H DUP (?)	; terrain_texture_field2_detail
?terrain_texture_field2_colour_pass@@3HA DD 01H DUP (?)	; terrain_texture_field2_colour_pass
?terrain_texture_field3_detail@@3HA DD 01H DUP (?)	; terrain_texture_field3_detail
?terrain_texture_field3_colour_pass@@3HA DD 01H DUP (?)	; terrain_texture_field3_colour_pass
?terrain_texture_field4_detail@@3HA DD 01H DUP (?)	; terrain_texture_field4_detail
?terrain_texture_field4_colour_pass@@3HA DD 01H DUP (?)	; terrain_texture_field4_colour_pass
?terrain_texture_field5_detail@@3HA DD 01H DUP (?)	; terrain_texture_field5_detail
?terrain_texture_field5_colour_pass@@3HA DD 01H DUP (?)	; terrain_texture_field5_colour_pass
?terrain_texture_field6_detail@@3HA DD 01H DUP (?)	; terrain_texture_field6_detail
?terrain_texture_field6_colour_pass@@3HA DD 01H DUP (?)	; terrain_texture_field6_colour_pass
?terrain_texture_field7_detail@@3HA DD 01H DUP (?)	; terrain_texture_field7_detail
?terrain_texture_field7_colour_pass@@3HA DD 01H DUP (?)	; terrain_texture_field7_colour_pass
?terrain_texture_field8_detail@@3HA DD 01H DUP (?)	; terrain_texture_field8_detail
?terrain_texture_field8_colour_pass@@3HA DD 01H DUP (?)	; terrain_texture_field8_colour_pass
?terrain_texture_field9_detail@@3HA DD 01H DUP (?)	; terrain_texture_field9_detail
?terrain_texture_field9_colour_pass@@3HA DD 01H DUP (?)	; terrain_texture_field9_colour_pass
?terrain_texture_field10_detail@@3HA DD 01H DUP (?)	; terrain_texture_field10_detail
?terrain_texture_field10_colour_pass@@3HA DD 01H DUP (?) ; terrain_texture_field10_colour_pass
?terrain_texture_field11_detail@@3HA DD 01H DUP (?)	; terrain_texture_field11_detail
?terrain_texture_field11_colour_pass@@3HA DD 01H DUP (?) ; terrain_texture_field11_colour_pass
?terrain_texture_altered_land1_detail@@3HA DD 01H DUP (?) ; terrain_texture_altered_land1_detail
?terrain_texture_altered_land1_colour_pass@@3HA DD 01H DUP (?) ; terrain_texture_altered_land1_colour_pass
?terrain_texture_altered_land2_detail@@3HA DD 01H DUP (?) ; terrain_texture_altered_land2_detail
?terrain_texture_altered_land2_colour_pass@@3HA DD 01H DUP (?) ; terrain_texture_altered_land2_colour_pass
?terrain_texture_altered_land3_detail@@3HA DD 01H DUP (?) ; terrain_texture_altered_land3_detail
?terrain_texture_altered_land3_colour_pass@@3HA DD 01H DUP (?) ; terrain_texture_altered_land3_colour_pass
?terrain_texture_hedge_detail@@3HA DD 01H DUP (?)	; terrain_texture_hedge_detail
?terrain_texture_hedge_colour_pass@@3HA DD 01H DUP (?)	; terrain_texture_hedge_colour_pass
?terrain_texture_wall_detail@@3HA DD 01H DUP (?)	; terrain_texture_wall_detail
?terrain_texture_wall_colour_pass@@3HA DD 01H DUP (?)	; terrain_texture_wall_colour_pass
?terrain_texture_trench_detail@@3HA DD 01H DUP (?)	; terrain_texture_trench_detail
?terrain_texture_trench_colour_pass@@3HA DD 01H DUP (?)	; terrain_texture_trench_colour_pass
?terrain_surface_sea@@3W4SURFACE_TYPES@@A DD 01H DUP (?) ; terrain_surface_sea
?terrain_surface_beach@@3W4SURFACE_TYPES@@A DD 01H DUP (?) ; terrain_surface_beach
?terrain_surface_land@@3W4SURFACE_TYPES@@A DD 01H DUP (?) ; terrain_surface_land
?terrain_surface_forest@@3W4SURFACE_TYPES@@A DD 01H DUP (?) ; terrain_surface_forest
?terrain_surface_builtup_area1@@3W4SURFACE_TYPES@@A DD 01H DUP (?) ; terrain_surface_builtup_area1
?terrain_surface_builtup_area2@@3W4SURFACE_TYPES@@A DD 01H DUP (?) ; terrain_surface_builtup_area2
?terrain_surface_builtup_area3@@3W4SURFACE_TYPES@@A DD 01H DUP (?) ; terrain_surface_builtup_area3
?terrain_surface_builtup_area4@@3W4SURFACE_TYPES@@A DD 01H DUP (?) ; terrain_surface_builtup_area4
?terrain_surface_builtup_area1_infrared@@3W4SURFACE_TYPES@@A DD 01H DUP (?) ; terrain_surface_builtup_area1_infrared
?terrain_surface_builtup_area2_infrared@@3W4SURFACE_TYPES@@A DD 01H DUP (?) ; terrain_surface_builtup_area2_infrared
?terrain_surface_builtup_area3_infrared@@3W4SURFACE_TYPES@@A DD 01H DUP (?) ; terrain_surface_builtup_area3_infrared
?terrain_surface_builtup_area4_infrared@@3W4SURFACE_TYPES@@A DD 01H DUP (?) ; terrain_surface_builtup_area4_infrared
?terrain_surface_road@@3W4SURFACE_TYPES@@A DD 01H DUP (?) ; terrain_surface_road
?terrain_surface_track@@3W4SURFACE_TYPES@@A DD 01H DUP (?) ; terrain_surface_track
?terrain_surface_river@@3W4SURFACE_TYPES@@A DD 01H DUP (?) ; terrain_surface_river
?terrain_surface_reservoir@@3W4SURFACE_TYPES@@A DD 01H DUP (?) ; terrain_surface_reservoir
?terrain_surface_rail@@3W4SURFACE_TYPES@@A DD 01H DUP (?) ; terrain_surface_rail
?terrain_surface_road_bank@@3W4SURFACE_TYPES@@A DD 01H DUP (?) ; terrain_surface_road_bank
?terrain_surface_river_bank@@3W4SURFACE_TYPES@@A DD 01H DUP (?) ; terrain_surface_river_bank
?terrain_surface_rail_bank@@3W4SURFACE_TYPES@@A DD 01H DUP (?) ; terrain_surface_rail_bank
?terrain_surface_field1@@3W4SURFACE_TYPES@@A DD 01H DUP (?) ; terrain_surface_field1
?terrain_surface_field2@@3W4SURFACE_TYPES@@A DD 01H DUP (?) ; terrain_surface_field2
?terrain_surface_field3@@3W4SURFACE_TYPES@@A DD 01H DUP (?) ; terrain_surface_field3
?terrain_surface_field4@@3W4SURFACE_TYPES@@A DD 01H DUP (?) ; terrain_surface_field4
?terrain_surface_field5@@3W4SURFACE_TYPES@@A DD 01H DUP (?) ; terrain_surface_field5
?terrain_surface_field6@@3W4SURFACE_TYPES@@A DD 01H DUP (?) ; terrain_surface_field6
?terrain_surface_field7@@3W4SURFACE_TYPES@@A DD 01H DUP (?) ; terrain_surface_field7
?terrain_surface_field8@@3W4SURFACE_TYPES@@A DD 01H DUP (?) ; terrain_surface_field8
?terrain_surface_field9@@3W4SURFACE_TYPES@@A DD 01H DUP (?) ; terrain_surface_field9
?terrain_surface_field10@@3W4SURFACE_TYPES@@A DD 01H DUP (?) ; terrain_surface_field10
?terrain_surface_field11@@3W4SURFACE_TYPES@@A DD 01H DUP (?) ; terrain_surface_field11
?terrain_surface_altered_land1@@3W4SURFACE_TYPES@@A DD 01H DUP (?) ; terrain_surface_altered_land1
?terrain_surface_altered_land2@@3W4SURFACE_TYPES@@A DD 01H DUP (?) ; terrain_surface_altered_land2
?terrain_surface_altered_land3@@3W4SURFACE_TYPES@@A DD 01H DUP (?) ; terrain_surface_altered_land3
?terrain_surface_hedge@@3W4SURFACE_TYPES@@A DD 01H DUP (?) ; terrain_surface_hedge
?terrain_surface_wall@@3W4SURFACE_TYPES@@A DD 01H DUP (?) ; terrain_surface_wall
?terrain_surface_trench@@3W4SURFACE_TYPES@@A DD 01H DUP (?) ; terrain_surface_trench
?textures_with_noisemap@@3PAU<unnamed-type-textures_with_noisemap>@@A DQ 040H DUP (?) ; textures_with_noisemap
_BSS	ENDS
;	COMDAT __real@c47a0000
CONST	SEGMENT
__real@c47a0000 DD 0c47a0000r			; -1000
CONST	ENDS
;	COMDAT __real@b8d1b717
CONST	SEGMENT
__real@b8d1b717 DD 0b8d1b717r			; -0.0001
CONST	ENDS
;	COMDAT __real@459c4000
CONST	SEGMENT
__real@459c4000 DD 0459c4000r			; 5000
CONST	ENDS
;	COMDAT __real@45674000
CONST	SEGMENT
__real@45674000 DD 045674000r			; 3700
CONST	ENDS
;	COMDAT __real@454e2000
CONST	SEGMENT
__real@454e2000 DD 0454e2000r			; 3298
CONST	ENDS
;	COMDAT __real@4541c000
CONST	SEGMENT
__real@4541c000 DD 04541c000r			; 3100
CONST	ENDS
;	COMDAT __real@453b8000
CONST	SEGMENT
__real@453b8000 DD 0453b8000r			; 3000
CONST	ENDS
;	COMDAT __real@45228000
CONST	SEGMENT
__real@45228000 DD 045228000r			; 2600
CONST	ENDS
;	COMDAT __real@451c4000
CONST	SEGMENT
__real@451c4000 DD 0451c4000r			; 2500
CONST	ENDS
;	COMDAT __real@450fc000
CONST	SEGMENT
__real@450fc000 DD 0450fc000r			; 2300
CONST	ENDS
;	COMDAT __real@45098000
CONST	SEGMENT
__real@45098000 DD 045098000r			; 2200
CONST	ENDS
;	COMDAT __real@45000000
CONST	SEGMENT
__real@45000000 DD 045000000r			; 2048
CONST	ENDS
;	COMDAT __real@44fa0000
CONST	SEGMENT
__real@44fa0000 DD 044fa0000r			; 2000
CONST	ENDS
;	COMDAT __real@44e46000
CONST	SEGMENT
__real@44e46000 DD 044e46000r			; 1827
CONST	ENDS
;	COMDAT __real@44dac000
CONST	SEGMENT
__real@44dac000 DD 044dac000r			; 1750
CONST	ENDS
;	COMDAT __real@44c80000
CONST	SEGMENT
__real@44c80000 DD 044c80000r			; 1600
CONST	ENDS
;	COMDAT __real@44bee000
CONST	SEGMENT
__real@44bee000 DD 044bee000r			; 1527
CONST	ENDS
;	COMDAT __real@44bb8000
CONST	SEGMENT
__real@44bb8000 DD 044bb8000r			; 1500
CONST	ENDS
;	COMDAT __real@44a5e000
CONST	SEGMENT
__real@44a5e000 DD 044a5e000r			; 1327
CONST	ENDS
;	COMDAT __real@449c4000
CONST	SEGMENT
__real@449c4000 DD 0449c4000r			; 1250
CONST	ENDS
;	COMDAT __real@44996000
CONST	SEGMENT
__real@44996000 DD 044996000r			; 1227
CONST	ENDS
;	COMDAT __real@448d0000
CONST	SEGMENT
__real@448d0000 DD 0448d0000r			; 1128
CONST	ENDS
;	COMDAT __real@44898000
CONST	SEGMENT
__real@44898000 DD 044898000r			; 1100
CONST	ENDS
;	COMDAT __real@44800000
CONST	SEGMENT
__real@44800000 DD 044800000r			; 1024
CONST	ENDS
;	COMDAT __real@447a0000
CONST	SEGMENT
__real@447a0000 DD 0447a0000r			; 1000
CONST	ENDS
;	COMDAT __real@443b8000
CONST	SEGMENT
__real@443b8000 DD 0443b8000r			; 750
CONST	ENDS
;	COMDAT __real@44000000
CONST	SEGMENT
__real@44000000 DD 044000000r			; 512
CONST	ENDS
;	COMDAT __real@43fa0000
CONST	SEGMENT
__real@43fa0000 DD 043fa0000r			; 500
CONST	ENDS
;	COMDAT __real@43800000
CONST	SEGMENT
__real@43800000 DD 043800000r			; 256
CONST	ENDS
;	COMDAT __real@437a0000
CONST	SEGMENT
__real@437a0000 DD 0437a0000r			; 250
CONST	ENDS
;	COMDAT __real@43000000
CONST	SEGMENT
__real@43000000 DD 043000000r			; 128
CONST	ENDS
;	COMDAT __real@42200000
CONST	SEGMENT
__real@42200000 DD 042200000r			; 40
CONST	ENDS
;	COMDAT __real@42000000
CONST	SEGMENT
__real@42000000 DD 042000000r			; 32
CONST	ENDS
;	COMDAT __real@41000000
CONST	SEGMENT
__real@41000000 DD 041000000r			; 8
CONST	ENDS
;	COMDAT __real@40a00000
CONST	SEGMENT
__real@40a00000 DD 040a00000r			; 5
CONST	ENDS
;	COMDAT __real@40800000
CONST	SEGMENT
__real@40800000 DD 040800000r			; 4
CONST	ENDS
;	COMDAT __real@4003333333333333
CONST	SEGMENT
__real@4003333333333333 DQ 04003333333333333r	; 2.4
CONST	ENDS
;	COMDAT __real@40000000
CONST	SEGMENT
__real@40000000 DD 040000000r			; 2
CONST	ENDS
;	COMDAT __real@3ff0000000000000
CONST	SEGMENT
__real@3ff0000000000000 DQ 03ff0000000000000r	; 1
CONST	ENDS
;	COMDAT __real@3fb33333
CONST	SEGMENT
__real@3fb33333 DD 03fb33333r			; 1.4
CONST	ENDS
;	COMDAT __real@3fb0000000000000
CONST	SEGMENT
__real@3fb0000000000000 DQ 03fb0000000000000r	; 0.0625
CONST	ENDS
;	COMDAT __real@3fa00000
CONST	SEGMENT
__real@3fa00000 DD 03fa00000r			; 1.25
CONST	ENDS
;	COMDAT __real@3f800000
CONST	SEGMENT
__real@3f800000 DD 03f800000r			; 1
CONST	ENDS
;	COMDAT __real@0000000000000000
CONST	SEGMENT
__real@0000000000000000 DQ 00000000000000000r	; 0
CONST	ENDS
;	COMDAT ??_C@_0BO@FDKKCFKA@noisemap?5array?5out?5of?5bounds?$CB@
CONST	SEGMENT
??_C@_0BO@FDKKCFKA@noisemap?5array?5out?5of?5bounds?$CB@ DB 'noisemap arr'
	DB	'ay out of bounds!', 00H			; `string'
CONST	ENDS
;	COMDAT ??_C@_0N@JGELDEEA@TERRAIN_WALL@
CONST	SEGMENT
??_C@_0N@JGELDEEA@TERRAIN_WALL@ DB 'TERRAIN_WALL', 00H	; `string'
CONST	ENDS
;	COMDAT ??_C@_0BE@PCKHIBHJ@CH_TERRAIN_DRY_MUD1@
CONST	SEGMENT
??_C@_0BE@PCKHIBHJ@CH_TERRAIN_DRY_MUD1@ DB 'CH_TERRAIN_DRY_MUD1', 00H ; `string'
CONST	ENDS
;	COMDAT ??_C@_0P@FHCKDOFL@NOISEMAP_BEACH@
CONST	SEGMENT
??_C@_0P@FHCKDOFL@NOISEMAP_BEACH@ DB 'NOISEMAP_BEACH', 00H ; `string'
CONST	ENDS
;	COMDAT ??_C@_0P@CCNGCKHH@NOISEMAP_WATER@
CONST	SEGMENT
??_C@_0P@CCNGCKHH@NOISEMAP_WATER@ DB 'NOISEMAP_WATER', 00H ; `string'
CONST	ENDS
;	COMDAT ??_C@_08JGBMEEAM@NOISEMAP@
CONST	SEGMENT
??_C@_08JGBMEEAM@NOISEMAP@ DB 'NOISEMAP', 00H		; `string'
CONST	ENDS
;	COMDAT ??_C@_0P@GADHIMJA@NOISEMAP_GRASS@
CONST	SEGMENT
??_C@_0P@GADHIMJA@NOISEMAP_GRASS@ DB 'NOISEMAP_GRASS', 00H ; `string'
CONST	ENDS
;	COMDAT ??_C@_0O@JEDNHELK@NOISEMAP_SNOW@
CONST	SEGMENT
??_C@_0O@JEDNHELK@NOISEMAP_SNOW@ DB 'NOISEMAP_SNOW', 00H ; `string'
CONST	ENDS
;	COMDAT ??_C@_0O@KMHDEPEJ@NOISEMAP_SAND@
CONST	SEGMENT
??_C@_0O@KMHDEPEJ@NOISEMAP_SAND@ DB 'NOISEMAP_SAND', 00H ; `string'
CONST	ENDS
;	COMDAT ??_C@_0BF@CENFCBOJ@NOISEMAP_TREE_CANOPY@
CONST	SEGMENT
??_C@_0BF@CENFCBOJ@NOISEMAP_TREE_CANOPY@ DB 'NOISEMAP_TREE_CANOPY', 00H ; `string'
CONST	ENDS
;	COMDAT ??_C@_0P@CBMAAOCK@NOISEMAP_FIELD@
CONST	SEGMENT
??_C@_0P@CBMAAOCK@NOISEMAP_FIELD@ DB 'NOISEMAP_FIELD', 00H ; `string'
CONST	ENDS
;	COMDAT ??_C@_0L@GAEOMBKJ@terrtype?4c@
CONST	SEGMENT
??_C@_0L@GAEOMBKJ@terrtype?4c@ DB 'terrtype.c', 00H	; `string'
CONST	ENDS
;	COMDAT ??_C@_0BC@GNMAAAJL@COLOUR_PASS_SWAMP@
CONST	SEGMENT
??_C@_0BC@GNMAAAJL@COLOUR_PASS_SWAMP@ DB 'COLOUR_PASS_SWAMP', 00H ; `string'
CONST	ENDS
;	COMDAT ??_C@_0BE@JFJMKOBJ@TERRAIN_YEMEN_LUNAR@
CONST	SEGMENT
??_C@_0BE@JFJMKOBJ@TERRAIN_YEMEN_LUNAR@ DB 'TERRAIN_YEMEN_LUNAR', 00H ; `string'
CONST	ENDS
;	COMDAT ??_C@_0BE@BGLJBDBC@TERRAIN_YEMEN_BAKED@
CONST	SEGMENT
??_C@_0BE@BGLJBDBC@TERRAIN_YEMEN_BAKED@ DB 'TERRAIN_YEMEN_BAKED', 00H ; `string'
CONST	ENDS
;	COMDAT ??_C@_0BE@KGIMOHE@TERRAIN_YEMEN_STONY@
CONST	SEGMENT
??_C@_0BE@KGIMOHE@TERRAIN_YEMEN_STONY@ DB 'TERRAIN_YEMEN_STONY', 00H ; `string'
CONST	ENDS
;	COMDAT ??_C@_0M@KJFMKHPL@YEMEN_CITY1@
CONST	SEGMENT
??_C@_0M@KJFMKHPL@YEMEN_CITY1@ DB 'YEMEN_CITY1', 00H	; `string'
CONST	ENDS
;	COMDAT ??_C@_0M@JLGKMFHJ@YEMEN_CITY3@
CONST	SEGMENT
??_C@_0M@JLGKMFHJ@YEMEN_CITY3@ DB 'YEMEN_CITY3', 00H	; `string'
CONST	ENDS
;	COMDAT ??_C@_0BJ@OILJFHJP@COLOUR_PASS_YEMEN_BAKED2@
CONST	SEGMENT
??_C@_0BJ@OILJFHJP@COLOUR_PASS_YEMEN_BAKED2@ DB 'COLOUR_PASS_YEMEN_BAKED2'
	DB	00H						; `string'
CONST	ENDS
;	COMDAT ??_C@_0BF@MBOPLBDO@TERRAIN_YEMEN_GRITTY@
CONST	SEGMENT
??_C@_0BF@MBOPLBDO@TERRAIN_YEMEN_GRITTY@ DB 'TERRAIN_YEMEN_GRITTY', 00H ; `string'
CONST	ENDS
;	COMDAT ??_C@_06OPNEJFKO@DESERT@
CONST	SEGMENT
??_C@_06OPNEJFKO@DESERT@ DB 'DESERT', 00H		; `string'
CONST	ENDS
;	COMDAT ??_C@_0BF@MCHGDFIO@TERRAIN_WALL_LEBANON@
CONST	SEGMENT
??_C@_0BF@MCHGDFIO@TERRAIN_WALL_LEBANON@ DB 'TERRAIN_WALL_LEBANON', 00H ; `string'
CONST	ENDS
;	COMDAT ??_C@_0BF@DGPHNMHH@TERRAIN_SNOW_LEBANON@
CONST	SEGMENT
??_C@_0BF@DGPHNMHH@TERRAIN_SNOW_LEBANON@ DB 'TERRAIN_SNOW_LEBANON', 00H ; `string'
CONST	ENDS
;	COMDAT ??_C@_0BK@BGKABACE@TERRAIN_BARE_ROCK_LEBANON@
CONST	SEGMENT
??_C@_0BK@BGKABACE@TERRAIN_BARE_ROCK_LEBANON@ DB 'TERRAIN_BARE_ROCK_LEBAN'
	DB	'ON', 00H					; `string'
CONST	ENDS
;	COMDAT ??_C@_0BK@LGOINMMJ@COLOUR_PASS_SCRUB_LEBANON@
CONST	SEGMENT
??_C@_0BK@LGOINMMJ@COLOUR_PASS_SCRUB_LEBANON@ DB 'COLOUR_PASS_SCRUB_LEBAN'
	DB	'ON', 00H					; `string'
CONST	ENDS
;	COMDAT ??_C@_0BJ@LBCKHBIJ@COLOUR_PASS_ROCK_LEBANON@
CONST	SEGMENT
??_C@_0BJ@LBCKHBIJ@COLOUR_PASS_ROCK_LEBANON@ DB 'COLOUR_PASS_ROCK_LEBANON'
	DB	00H						; `string'
CONST	ENDS
;	COMDAT ??_C@_0BE@MBAMAPGA@BW_LEBANON_V2_CITY4@
CONST	SEGMENT
??_C@_0BE@MBAMAPGA@BW_LEBANON_V2_CITY4@ DB 'BW_LEBANON_V2_CITY4', 00H ; `string'
CONST	ENDS
;	COMDAT ??_C@_0BE@IOENJJKH@BW_LEBANON_V2_CITY3@
CONST	SEGMENT
??_C@_0BE@IOENJJKH@BW_LEBANON_V2_CITY3@ DB 'BW_LEBANON_V2_CITY3', 00H ; `string'
CONST	ENDS
;	COMDAT ??_C@_0BE@JHFGKIOG@BW_LEBANON_V2_CITY2@
CONST	SEGMENT
??_C@_0BE@JHFGKIOG@BW_LEBANON_V2_CITY2@ DB 'BW_LEBANON_V2_CITY2', 00H ; `string'
CONST	ENDS
;	COMDAT ??_C@_0BE@LMHLPLCF@BW_LEBANON_V2_CITY1@
CONST	SEGMENT
??_C@_0BE@LMHLPLCF@BW_LEBANON_V2_CITY1@ DB 'BW_LEBANON_V2_CITY1', 00H ; `string'
CONST	ENDS
;	COMDAT ??_C@_0BE@OOFFLPGN@CP_LEBANON_V2_CITY4@
CONST	SEGMENT
??_C@_0BE@OOFFLPGN@CP_LEBANON_V2_CITY4@ DB 'CP_LEBANON_V2_CITY4', 00H ; `string'
CONST	ENDS
;	COMDAT ??_C@_0BE@KBBECJKK@CP_LEBANON_V2_CITY3@
CONST	SEGMENT
??_C@_0BE@KBBECJKK@CP_LEBANON_V2_CITY3@ DB 'CP_LEBANON_V2_CITY3', 00H ; `string'
CONST	ENDS
;	COMDAT ??_C@_0BE@LIAPBIOL@CP_LEBANON_V2_CITY2@
CONST	SEGMENT
??_C@_0BE@LIAPBIOL@CP_LEBANON_V2_CITY2@ DB 'CP_LEBANON_V2_CITY2', 00H ; `string'
CONST	ENDS
;	COMDAT ??_C@_0BE@JDCCELCI@CP_LEBANON_V2_CITY1@
CONST	SEGMENT
??_C@_0BE@JDCCELCI@CP_LEBANON_V2_CITY1@ DB 'CP_LEBANON_V2_CITY1', 00H ; `string'
CONST	ENDS
;	COMDAT ??_C@_0BL@LIHLPOJG@COLOUR_PASS_FOREST_LEBANON@
CONST	SEGMENT
??_C@_0BL@LIHLPOJG@COLOUR_PASS_FOREST_LEBANON@ DB 'COLOUR_PASS_FOREST_LEB'
	DB	'ANON', 00H					; `string'
CONST	ENDS
;	COMDAT ??_C@_0BM@NCJBOGKD@TERRAIN_TREE_CANOPY_LEBANON@
CONST	SEGMENT
??_C@_0BM@NCJBOGKD@TERRAIN_TREE_CANOPY_LEBANON@ DB 'TERRAIN_TREE_CANOPY_L'
	DB	'EBANON', 00H				; `string'
CONST	ENDS
;	COMDAT ??_C@_0BH@IMANJLMO@TERRAIN_DETAIL_LEBANON@
CONST	SEGMENT
??_C@_0BH@IMANJLMO@TERRAIN_DETAIL_LEBANON@ DB 'TERRAIN_DETAIL_LEBANON', 00H ; `string'
CONST	ENDS
;	COMDAT ??_C@_0BE@CBPBIHAE@COLOUR_PASS_LEBANON@
CONST	SEGMENT
??_C@_0BE@CBPBIHAE@COLOUR_PASS_LEBANON@ DB 'COLOUR_PASS_LEBANON', 00H ; `string'
CONST	ENDS
;	COMDAT ??_C@_0BI@EBJMGEFE@COLOUR_PASS_SEA_LEBANON@
CONST	SEGMENT
??_C@_0BI@EBJMGEFE@COLOUR_PASS_SEA_LEBANON@ DB 'COLOUR_PASS_SEA_LEBANON', 00H ; `string'
CONST	ENDS
;	COMDAT ??_C@_0BC@PIKBNFNJ@TERRAIN_GRG_CITY1@
CONST	SEGMENT
??_C@_0BC@PIKBNFNJ@TERRAIN_GRG_CITY1@ DB 'TERRAIN_GRG_CITY1', 00H ; `string'
CONST	ENDS
;	COMDAT ??_C@_0BC@NDIMIGBK@TERRAIN_GRG_CITY2@
CONST	SEGMENT
??_C@_0BC@NDIMIGBK@TERRAIN_GRG_CITY2@ DB 'TERRAIN_GRG_CITY2', 00H ; `string'
CONST	ENDS
;	COMDAT ??_C@_0BC@MKJHLHFL@TERRAIN_GRG_CITY3@
CONST	SEGMENT
??_C@_0BC@MKJHLHFL@TERRAIN_GRG_CITY3@ DB 'TERRAIN_GRG_CITY3', 00H ; `string'
CONST	ENDS
;	COMDAT ??_C@_0BC@IFNGCBJM@TERRAIN_GRG_CITY4@
CONST	SEGMENT
??_C@_0BC@IFNGCBJM@TERRAIN_GRG_CITY4@ DB 'TERRAIN_GRG_CITY4', 00H ; `string'
CONST	ENDS
;	COMDAT ??_C@_0BE@HJIDJHBJ@COLOUR_PASS_GRG_SEA@
CONST	SEGMENT
??_C@_0BE@HJIDJHBJ@COLOUR_PASS_GRG_SEA@ DB 'COLOUR_PASS_GRG_SEA', 00H ; `string'
CONST	ENDS
;	COMDAT ??_C@_0BB@OBCNOOCF@COLOUR_PASS_SNOW@
CONST	SEGMENT
??_C@_0BB@OBCNOOCF@COLOUR_PASS_SNOW@ DB 'COLOUR_PASS_SNOW', 00H ; `string'
CONST	ENDS
;	COMDAT ??_C@_0N@JANIPHBF@TERRAIN_SNOW@
CONST	SEGMENT
??_C@_0N@JANIPHBF@TERRAIN_SNOW@ DB 'TERRAIN_SNOW', 00H	; `string'
CONST	ENDS
;	COMDAT ??_C@_0BD@BMPINLKM@TERRAIN_BARE_ROCK2@
CONST	SEGMENT
??_C@_0BD@BMPINLKM@TERRAIN_BARE_ROCK2@ DB 'TERRAIN_BARE_ROCK2', 00H ; `string'
CONST	ENDS
;	COMDAT ??_C@_0BG@IGFCFCHF@COLOUR_PASS_MOUNTAINS@
CONST	SEGMENT
??_C@_0BG@IGFCFCHF@COLOUR_PASS_MOUNTAINS@ DB 'COLOUR_PASS_MOUNTAINS', 00H ; `string'
CONST	ENDS
;	COMDAT ??_C@_0O@PGGFIOAG@TERRAIN_SCRUB@
CONST	SEGMENT
??_C@_0O@PGGFIOAG@TERRAIN_SCRUB@ DB 'TERRAIN_SCRUB', 00H ; `string'
CONST	ENDS
;	COMDAT ??_C@_0O@KOAPGDHE@TERRAIN_RIVER@
CONST	SEGMENT
??_C@_0O@KOAPGDHE@TERRAIN_RIVER@ DB 'TERRAIN_RIVER', 00H ; `string'
CONST	ENDS
;	COMDAT ??_C@_0BD@HAICHOLH@TERRAIN_THAI_TRACK@
CONST	SEGMENT
??_C@_0BD@HAICHOLH@TERRAIN_THAI_TRACK@ DB 'TERRAIN_THAI_TRACK', 00H ; `string'
CONST	ENDS
;	COMDAT ??_C@_0BD@GFDCAGBA@TERRAIN_CUBA_CITY1@
CONST	SEGMENT
??_C@_0BD@GFDCAGBA@TERRAIN_CUBA_CITY1@ DB 'TERRAIN_CUBA_CITY1', 00H ; `string'
CONST	ENDS
;	COMDAT ??_C@_0BD@EOBPFFND@TERRAIN_CUBA_CITY2@
CONST	SEGMENT
??_C@_0BD@EOBPFFND@TERRAIN_CUBA_CITY2@ DB 'TERRAIN_CUBA_CITY2', 00H ; `string'
CONST	ENDS
;	COMDAT ??_C@_0BD@FHAEGEJC@TERRAIN_CUBA_CITY3@
CONST	SEGMENT
??_C@_0BD@FHAEGEJC@TERRAIN_CUBA_CITY3@ DB 'TERRAIN_CUBA_CITY3', 00H ; `string'
CONST	ENDS
;	COMDAT ??_C@_0BD@BIEFPCFF@TERRAIN_CUBA_CITY4@
CONST	SEGMENT
??_C@_0BD@BIEFPCFF@TERRAIN_CUBA_CITY4@ DB 'TERRAIN_CUBA_CITY4', 00H ; `string'
CONST	ENDS
;	COMDAT ??_C@_0BD@MIKAIJBD@ENVIRO_YEMEN_SMALL@
CONST	SEGMENT
??_C@_0BD@MIKAIJBD@ENVIRO_YEMEN_SMALL@ DB 'ENVIRO_YEMEN_SMALL', 00H ; `string'
CONST	ENDS
;	COMDAT ??_C@_07MGCPDNLD@DEFAULT@
CONST	SEGMENT
??_C@_07MGCPDNLD@DEFAULT@ DB 'DEFAULT', 00H		; `string'
CONST	ENDS
;	COMDAT ??_C@_0BB@ILJMAEMJ@COLOUR_PASS_ROCK@
CONST	SEGMENT
??_C@_0BB@ILJMAEMJ@COLOUR_PASS_ROCK@ DB 'COLOUR_PASS_ROCK', 00H ; `string'
CONST	ENDS
;	COMDAT ??_C@_0BB@NLCHJFOM@TERRAIN_HIGHLAND@
CONST	SEGMENT
??_C@_0BB@NLCHJFOM@TERRAIN_HIGHLAND@ DB 'TERRAIN_HIGHLAND', 00H ; `string'
CONST	ENDS
;	COMDAT ??_C@_0P@DBONDBHL@TERRAIN_SWAMP2@
CONST	SEGMENT
??_C@_0P@DBONDBHL@TERRAIN_SWAMP2@ DB 'TERRAIN_SWAMP2', 00H ; `string'
CONST	ENDS
;	COMDAT ??_C@_0P@BKMAGCLI@TERRAIN_SWAMP1@
CONST	SEGMENT
??_C@_0P@BKMAGCLI@TERRAIN_SWAMP1@ DB 'TERRAIN_SWAMP1', 00H ; `string'
CONST	ENDS
;	COMDAT ??_C@_0BH@BEINOGAP@TERRAIN_DARKGREENFIELD@
CONST	SEGMENT
??_C@_0BH@BEINOGAP@TERRAIN_DARKGREENFIELD@ DB 'TERRAIN_DARKGREENFIELD', 00H ; `string'
CONST	ENDS
;	COMDAT ??_C@_0BI@KPJCKJLC@TERRAIN_LIGHTGREENFIELD@
CONST	SEGMENT
??_C@_0BI@KPJCKJLC@TERRAIN_LIGHTGREENFIELD@ DB 'TERRAIN_LIGHTGREENFIELD', 00H ; `string'
CONST	ENDS
;	COMDAT ??_C@_0BD@DPOGMPFD@TERRAIN_WHEATFIELD@
CONST	SEGMENT
??_C@_0BD@DPOGMPFD@TERRAIN_WHEATFIELD@ DB 'TERRAIN_WHEATFIELD', 00H ; `string'
CONST	ENDS
;	COMDAT ??_C@_0BC@KJPKDFNB@TERRAIN_CORNFIELD@
CONST	SEGMENT
??_C@_0BC@KJPKDFNB@TERRAIN_CORNFIELD@ DB 'TERRAIN_CORNFIELD', 00H ; `string'
CONST	ENDS
;	COMDAT ??_C@_0BH@KMIFDPNO@TERRAIN_PLOUGHED2FIELD@
CONST	SEGMENT
??_C@_0BH@KMIFDPNO@TERRAIN_PLOUGHED2FIELD@ DB 'TERRAIN_PLOUGHED2FIELD', 00H ; `string'
CONST	ENDS
;	COMDAT ??_C@_0BH@JNGNCFED@TERRAIN_PLOUGHED1FIELD@
CONST	SEGMENT
??_C@_0BH@JNGNCFED@TERRAIN_PLOUGHED1FIELD@ DB 'TERRAIN_PLOUGHED1FIELD', 00H ; `string'
CONST	ENDS
;	COMDAT ??_C@_0BF@GFEKLLKL@TERRAIN_MUSTARDFIELD@
CONST	SEGMENT
??_C@_0BF@GFEKLLKL@TERRAIN_MUSTARDFIELD@ DB 'TERRAIN_MUSTARDFIELD', 00H ; `string'
CONST	ENDS
;	COMDAT ??_C@_0BH@LCADFALJ@TERRAIN_THAILAND_RIVER@
CONST	SEGMENT
??_C@_0BH@LCADFALJ@TERRAIN_THAILAND_RIVER@ DB 'TERRAIN_THAILAND_RIVER', 00H ; `string'
CONST	ENDS
;	COMDAT ??_C@_0BI@HCKGLJHJ@TERRAIN_THAI_DIRT_TRACK@
CONST	SEGMENT
??_C@_0BI@HCKGLJHJ@TERRAIN_THAI_DIRT_TRACK@ DB 'TERRAIN_THAI_DIRT_TRACK', 00H ; `string'
CONST	ENDS
;	COMDAT ??_C@_0BB@OHLOCNHA@COLOUR_PASS_WALL@
CONST	SEGMENT
??_C@_0BB@OHLOCNHA@COLOUR_PASS_WALL@ DB 'COLOUR_PASS_WALL', 00H ; `string'
CONST	ENDS
;	COMDAT ??_C@_0BE@EOMJEIPI@TERRAIN_DETAIL_ROAD@
CONST	SEGMENT
??_C@_0BE@EOMJEIPI@TERRAIN_DETAIL_ROAD@ DB 'TERRAIN_DETAIL_ROAD', 00H ; `string'
CONST	ENDS
;	COMDAT ??_C@_0BB@PNMIAOJK@TERRAIN_BW_CITY1@
CONST	SEGMENT
??_C@_0BB@PNMIAOJK@TERRAIN_BW_CITY1@ DB 'TERRAIN_BW_CITY1', 00H ; `string'
CONST	ENDS
;	COMDAT ??_C@_0BB@NGOFFNFJ@TERRAIN_BW_CITY2@
CONST	SEGMENT
??_C@_0BB@NGOFFNFJ@TERRAIN_BW_CITY2@ DB 'TERRAIN_BW_CITY2', 00H ; `string'
CONST	ENDS
;	COMDAT ??_C@_0BB@MPPOGMBI@TERRAIN_BW_CITY3@
CONST	SEGMENT
??_C@_0BB@MPPOGMBI@TERRAIN_BW_CITY3@ DB 'TERRAIN_BW_CITY3', 00H ; `string'
CONST	ENDS
;	COMDAT ??_C@_0BB@IALPPKNP@TERRAIN_BW_CITY4@
CONST	SEGMENT
??_C@_0BB@IALPPKNP@TERRAIN_BW_CITY4@ DB 'TERRAIN_BW_CITY4', 00H ; `string'
CONST	ENDS
;	COMDAT ??_C@_0BD@NKMHPKHA@TERRAIN_THAI_CITY1@
CONST	SEGMENT
??_C@_0BD@NKMHPKHA@TERRAIN_THAI_CITY1@ DB 'TERRAIN_THAI_CITY1', 00H ; `string'
CONST	ENDS
;	COMDAT ??_C@_0BD@PBOKKJLD@TERRAIN_THAI_CITY2@
CONST	SEGMENT
??_C@_0BD@PBOKKJLD@TERRAIN_THAI_CITY2@ DB 'TERRAIN_THAI_CITY2', 00H ; `string'
CONST	ENDS
;	COMDAT ??_C@_0BD@OIPBJIPC@TERRAIN_THAI_CITY3@
CONST	SEGMENT
??_C@_0BD@OIPBJIPC@TERRAIN_THAI_CITY3@ DB 'TERRAIN_THAI_CITY3', 00H ; `string'
CONST	ENDS
;	COMDAT ??_C@_0BD@KHLAAODF@TERRAIN_THAI_CITY4@
CONST	SEGMENT
??_C@_0BD@KHLAAODF@TERRAIN_THAI_CITY4@ DB 'TERRAIN_THAI_CITY4', 00H ; `string'
CONST	ENDS
;	COMDAT ??_C@_0BG@EOMIBGLD@TERRAIN_TREE_CANOPY_1@
CONST	SEGMENT
??_C@_0BG@EOMIBGLD@TERRAIN_TREE_CANOPY_1@ DB 'TERRAIN_TREE_CANOPY_1', 00H ; `string'
CONST	ENDS
;	COMDAT ??_C@_0P@EOGCBCMK@CH_TERRAIN_CP1@
CONST	SEGMENT
??_C@_0P@EOGCBCMK@CH_TERRAIN_CP1@ DB 'CH_TERRAIN_CP1', 00H ; `string'
CONST	ENDS
;	COMDAT ??_C@_0BB@BDNEEDDA@TERRAIN_DETAIL_4@
CONST	SEGMENT
??_C@_0BB@BDNEEDDA@TERRAIN_DETAIL_4@ DB 'TERRAIN_DETAIL_4', 00H ; `string'
CONST	ENDS
;	COMDAT ??_C@_0M@LDEJELLC@COLOUR_PASS@
CONST	SEGMENT
??_C@_0M@LDEJELLC@COLOUR_PASS@ DB 'COLOUR_PASS', 00H	; `string'
CONST	ENDS
;	COMDAT ??_C@_0O@BBEHGFKB@TERRAIN_BEACH@
CONST	SEGMENT
??_C@_0O@BBEHGFKB@TERRAIN_BEACH@ DB 'TERRAIN_BEACH', 00H ; `string'
CONST	ENDS
;	COMDAT ??_C@_0BA@EEKPDLHD@COLOUR_PASS_SEA@
CONST	SEGMENT
??_C@_0BA@EEKPDLHD@COLOUR_PASS_SEA@ DB 'COLOUR_PASS_SEA', 00H ; `string'
CONST	ENDS
;	COMDAT ??_C@_0O@DCAMCMDE@TERRAIN_SEA_1@
CONST	SEGMENT
??_C@_0O@DCAMCMDE@TERRAIN_SEA_1@ DB 'TERRAIN_SEA_1', 00H ; `string'
CONST	ENDS
;	COMDAT ??_C@_0CA@IOGBLHOJ@terrain?5type?5?$CFs?5not?5initialised@
CONST	SEGMENT
??_C@_0CA@IOGBLHOJ@terrain?5type?5?$CFs?5not?5initialised@ DB 'terrain ty'
	DB	'pe %s not initialised', 00H			; `string'
CONST	ENDS
_DATA	SEGMENT
?delay_count@@3HA DD 01H				; delay_count
_DATA	ENDS
; Function compile flags: /Odtp /ZI
; File c:\users\nhv90\projects\eech\modules\3d\terrain\terrtype.c
;	COMDAT ?initialise_surface_types@@YGXXZ
_TEXT	SEGMENT
?initialise_surface_types@@YGXXZ PROC			; initialise_surface_types, COMDAT

; 3211 : {

  00000	55		 push	 ebp
  00001	8b ec		 mov	 ebp, esp
  00003	83 ec 40	 sub	 esp, 64			; 00000040H
  00006	53		 push	 ebx
  00007	56		 push	 esi
  00008	57		 push	 edi

; 3212 : 	// Xhit: the surface types for the various terrain types are set according to the surroundings. (030328)
; 3213 : 	//initialize normal surface
; 3214 : 	if (get_global_season() != SESSION_SEASON_DESERT)

  00009	83 3d 14 04 00
	00 04		 cmp	 DWORD PTR ?current_map_info@@3UCUSTOM_MAP_INFO@@A+1044, 4
  00010	0f 84 77 01 00
	00		 je	 $LN2@initialise

; 3215 : 	{
; 3216 : 		terrain_surface_sea										= SURFACE_TYPE_WATER;

  00016	c7 05 00 00 00
	00 05 00 00 00	 mov	 DWORD PTR ?terrain_surface_sea@@3W4SURFACE_TYPES@@A, 5

; 3217 : 		terrain_surface_beach									= SURFACE_TYPE_SAND;

  00020	c7 05 00 00 00
	00 02 00 00 00	 mov	 DWORD PTR ?terrain_surface_beach@@3W4SURFACE_TYPES@@A, 2

; 3218 : 		terrain_surface_land										= SURFACE_TYPE_SOIL;

  0002a	c7 05 00 00 00
	00 06 00 00 00	 mov	 DWORD PTR ?terrain_surface_land@@3W4SURFACE_TYPES@@A, 6

; 3219 : 		terrain_surface_forest									= SURFACE_TYPE_NONE;

  00034	c7 05 00 00 00
	00 00 00 00 00	 mov	 DWORD PTR ?terrain_surface_forest@@3W4SURFACE_TYPES@@A, 0

; 3220 : 		terrain_surface_builtup_area1							= SURFACE_TYPE_ASPHALT;

  0003e	c7 05 00 00 00
	00 04 00 00 00	 mov	 DWORD PTR ?terrain_surface_builtup_area1@@3W4SURFACE_TYPES@@A, 4

; 3221 : 		terrain_surface_builtup_area2							= SURFACE_TYPE_ASPHALT;

  00048	c7 05 00 00 00
	00 04 00 00 00	 mov	 DWORD PTR ?terrain_surface_builtup_area2@@3W4SURFACE_TYPES@@A, 4

; 3222 : 		terrain_surface_builtup_area3							= SURFACE_TYPE_ASPHALT;

  00052	c7 05 00 00 00
	00 04 00 00 00	 mov	 DWORD PTR ?terrain_surface_builtup_area3@@3W4SURFACE_TYPES@@A, 4

; 3223 : 		terrain_surface_builtup_area4							= SURFACE_TYPE_ASPHALT;

  0005c	c7 05 00 00 00
	00 04 00 00 00	 mov	 DWORD PTR ?terrain_surface_builtup_area4@@3W4SURFACE_TYPES@@A, 4

; 3224 : 		terrain_surface_builtup_area1_infrared				= SURFACE_TYPE_ASPHALT;

  00066	c7 05 00 00 00
	00 04 00 00 00	 mov	 DWORD PTR ?terrain_surface_builtup_area1_infrared@@3W4SURFACE_TYPES@@A, 4

; 3225 : 		terrain_surface_builtup_area2_infrared				= SURFACE_TYPE_ASPHALT;

  00070	c7 05 00 00 00
	00 04 00 00 00	 mov	 DWORD PTR ?terrain_surface_builtup_area2_infrared@@3W4SURFACE_TYPES@@A, 4

; 3226 : 		terrain_surface_builtup_area3_infrared				= SURFACE_TYPE_ASPHALT;

  0007a	c7 05 00 00 00
	00 04 00 00 00	 mov	 DWORD PTR ?terrain_surface_builtup_area3_infrared@@3W4SURFACE_TYPES@@A, 4

; 3227 : 		terrain_surface_builtup_area4_infrared				= SURFACE_TYPE_ASPHALT;

  00084	c7 05 00 00 00
	00 04 00 00 00	 mov	 DWORD PTR ?terrain_surface_builtup_area4_infrared@@3W4SURFACE_TYPES@@A, 4

; 3228 : 		terrain_surface_road										= SURFACE_TYPE_ASPHALT;

  0008e	c7 05 00 00 00
	00 04 00 00 00	 mov	 DWORD PTR ?terrain_surface_road@@3W4SURFACE_TYPES@@A, 4

; 3229 : 		terrain_surface_track									= SURFACE_TYPE_SOIL;

  00098	c7 05 00 00 00
	00 06 00 00 00	 mov	 DWORD PTR ?terrain_surface_track@@3W4SURFACE_TYPES@@A, 6

; 3230 : 		terrain_surface_river									= SURFACE_TYPE_WATER;

  000a2	c7 05 00 00 00
	00 05 00 00 00	 mov	 DWORD PTR ?terrain_surface_river@@3W4SURFACE_TYPES@@A, 5

; 3231 : 		terrain_surface_reservoir								= SURFACE_TYPE_WATER;

  000ac	c7 05 00 00 00
	00 05 00 00 00	 mov	 DWORD PTR ?terrain_surface_reservoir@@3W4SURFACE_TYPES@@A, 5

; 3232 : 		terrain_surface_rail										= SURFACE_TYPE_SOIL;

  000b6	c7 05 00 00 00
	00 06 00 00 00	 mov	 DWORD PTR ?terrain_surface_rail@@3W4SURFACE_TYPES@@A, 6

; 3233 : 		terrain_surface_road_bank								= SURFACE_TYPE_SOIL;

  000c0	c7 05 00 00 00
	00 06 00 00 00	 mov	 DWORD PTR ?terrain_surface_road_bank@@3W4SURFACE_TYPES@@A, 6

; 3234 : 		terrain_surface_river_bank								= SURFACE_TYPE_SAND;

  000ca	c7 05 00 00 00
	00 02 00 00 00	 mov	 DWORD PTR ?terrain_surface_river_bank@@3W4SURFACE_TYPES@@A, 2

; 3235 : 		terrain_surface_rail_bank								= SURFACE_TYPE_SOIL;

  000d4	c7 05 00 00 00
	00 06 00 00 00	 mov	 DWORD PTR ?terrain_surface_rail_bank@@3W4SURFACE_TYPES@@A, 6

; 3236 : 		terrain_surface_field1									= SURFACE_TYPE_FIELD_LIGHTBROWN;

  000de	c7 05 00 00 00
	00 07 00 00 00	 mov	 DWORD PTR ?terrain_surface_field1@@3W4SURFACE_TYPES@@A, 7

; 3237 : 		terrain_surface_field2									= SURFACE_TYPE_FIELD_DARKBROWN;

  000e8	c7 05 00 00 00
	00 08 00 00 00	 mov	 DWORD PTR ?terrain_surface_field2@@3W4SURFACE_TYPES@@A, 8

; 3238 : 		terrain_surface_field3									= SURFACE_TYPE_FIELD_LIGHTBROWN;

  000f2	c7 05 00 00 00
	00 07 00 00 00	 mov	 DWORD PTR ?terrain_surface_field3@@3W4SURFACE_TYPES@@A, 7

; 3239 : 		terrain_surface_field4									= SURFACE_TYPE_FIELD_LIGHTBROWN;

  000fc	c7 05 00 00 00
	00 07 00 00 00	 mov	 DWORD PTR ?terrain_surface_field4@@3W4SURFACE_TYPES@@A, 7

; 3240 : 		terrain_surface_field5									= SURFACE_TYPE_FIELD_LIGHTBROWN;

  00106	c7 05 00 00 00
	00 07 00 00 00	 mov	 DWORD PTR ?terrain_surface_field5@@3W4SURFACE_TYPES@@A, 7

; 3241 : 		terrain_surface_field6									= SURFACE_TYPE_SOIL;

  00110	c7 05 00 00 00
	00 06 00 00 00	 mov	 DWORD PTR ?terrain_surface_field6@@3W4SURFACE_TYPES@@A, 6

; 3242 : 		terrain_surface_field7									= SURFACE_TYPE_SOIL;

  0011a	c7 05 00 00 00
	00 06 00 00 00	 mov	 DWORD PTR ?terrain_surface_field7@@3W4SURFACE_TYPES@@A, 6

; 3243 : 		terrain_surface_field8									= SURFACE_TYPE_FIELD_LIGHTBROWN;

  00124	c7 05 00 00 00
	00 07 00 00 00	 mov	 DWORD PTR ?terrain_surface_field8@@3W4SURFACE_TYPES@@A, 7

; 3244 : 		terrain_surface_field9									= SURFACE_TYPE_FIELD_LIGHTBROWN;

  0012e	c7 05 00 00 00
	00 07 00 00 00	 mov	 DWORD PTR ?terrain_surface_field9@@3W4SURFACE_TYPES@@A, 7

; 3245 : 		terrain_surface_field10									= SURFACE_TYPE_FIELD_DARKBROWN;

  00138	c7 05 00 00 00
	00 08 00 00 00	 mov	 DWORD PTR ?terrain_surface_field10@@3W4SURFACE_TYPES@@A, 8

; 3246 : 		terrain_surface_field11									= SURFACE_TYPE_FIELD_LIGHTBROWN;

  00142	c7 05 00 00 00
	00 07 00 00 00	 mov	 DWORD PTR ?terrain_surface_field11@@3W4SURFACE_TYPES@@A, 7

; 3247 : 		terrain_surface_altered_land1							= SURFACE_TYPE_ROCK;

  0014c	c7 05 00 00 00
	00 0b 00 00 00	 mov	 DWORD PTR ?terrain_surface_altered_land1@@3W4SURFACE_TYPES@@A, 11 ; 0000000bH

; 3248 : 		terrain_surface_altered_land2							= SURFACE_TYPE_ROCK;

  00156	c7 05 00 00 00
	00 0b 00 00 00	 mov	 DWORD PTR ?terrain_surface_altered_land2@@3W4SURFACE_TYPES@@A, 11 ; 0000000bH

; 3249 : 		terrain_surface_altered_land3							= SURFACE_TYPE_SNOW;

  00160	c7 05 00 00 00
	00 0c 00 00 00	 mov	 DWORD PTR ?terrain_surface_altered_land3@@3W4SURFACE_TYPES@@A, 12 ; 0000000cH

; 3250 : 		terrain_surface_hedge									= SURFACE_TYPE_SOIL;

  0016a	c7 05 00 00 00
	00 06 00 00 00	 mov	 DWORD PTR ?terrain_surface_hedge@@3W4SURFACE_TYPES@@A, 6

; 3251 : 		terrain_surface_wall										= SURFACE_TYPE_SOIL;

  00174	c7 05 00 00 00
	00 06 00 00 00	 mov	 DWORD PTR ?terrain_surface_wall@@3W4SURFACE_TYPES@@A, 6

; 3252 : 		terrain_surface_trench									= SURFACE_TYPE_WATER;

  0017e	c7 05 00 00 00
	00 05 00 00 00	 mov	 DWORD PTR ?terrain_surface_trench@@3W4SURFACE_TYPES@@A, 5

; 3253 : 	}
; 3254 : 	else

  00188	e9 72 01 00 00	 jmp	 $LN1@initialise
$LN2@initialise:

; 3255 : 	//initialize desert surface
; 3256 : 	{
; 3257 : 		terrain_surface_sea										= SURFACE_TYPE_WATER;

  0018d	c7 05 00 00 00
	00 05 00 00 00	 mov	 DWORD PTR ?terrain_surface_sea@@3W4SURFACE_TYPES@@A, 5

; 3258 : 		terrain_surface_beach									= SURFACE_TYPE_DESERT;

  00197	c7 05 00 00 00
	00 01 00 00 00	 mov	 DWORD PTR ?terrain_surface_beach@@3W4SURFACE_TYPES@@A, 1

; 3259 : 		terrain_surface_land										= SURFACE_TYPE_DESERT;

  001a1	c7 05 00 00 00
	00 01 00 00 00	 mov	 DWORD PTR ?terrain_surface_land@@3W4SURFACE_TYPES@@A, 1

; 3260 : 		terrain_surface_forest									= SURFACE_TYPE_NONE;

  001ab	c7 05 00 00 00
	00 00 00 00 00	 mov	 DWORD PTR ?terrain_surface_forest@@3W4SURFACE_TYPES@@A, 0

; 3261 : 		terrain_surface_builtup_area1							= SURFACE_TYPE_DESERT;

  001b5	c7 05 00 00 00
	00 01 00 00 00	 mov	 DWORD PTR ?terrain_surface_builtup_area1@@3W4SURFACE_TYPES@@A, 1

; 3262 : 		terrain_surface_builtup_area2							= SURFACE_TYPE_DESERT;

  001bf	c7 05 00 00 00
	00 01 00 00 00	 mov	 DWORD PTR ?terrain_surface_builtup_area2@@3W4SURFACE_TYPES@@A, 1

; 3263 : 		terrain_surface_builtup_area3							= SURFACE_TYPE_DESERT;

  001c9	c7 05 00 00 00
	00 01 00 00 00	 mov	 DWORD PTR ?terrain_surface_builtup_area3@@3W4SURFACE_TYPES@@A, 1

; 3264 : 		terrain_surface_builtup_area4							= SURFACE_TYPE_DESERT;

  001d3	c7 05 00 00 00
	00 01 00 00 00	 mov	 DWORD PTR ?terrain_surface_builtup_area4@@3W4SURFACE_TYPES@@A, 1

; 3265 : 		terrain_surface_builtup_area1_infrared				= SURFACE_TYPE_DESERT;

  001dd	c7 05 00 00 00
	00 01 00 00 00	 mov	 DWORD PTR ?terrain_surface_builtup_area1_infrared@@3W4SURFACE_TYPES@@A, 1

; 3266 : 		terrain_surface_builtup_area2_infrared				= SURFACE_TYPE_DESERT;

  001e7	c7 05 00 00 00
	00 01 00 00 00	 mov	 DWORD PTR ?terrain_surface_builtup_area2_infrared@@3W4SURFACE_TYPES@@A, 1

; 3267 : 		terrain_surface_builtup_area3_infrared				= SURFACE_TYPE_DESERT;

  001f1	c7 05 00 00 00
	00 01 00 00 00	 mov	 DWORD PTR ?terrain_surface_builtup_area3_infrared@@3W4SURFACE_TYPES@@A, 1

; 3268 : 		terrain_surface_builtup_area4_infrared				= SURFACE_TYPE_DESERT;

  001fb	c7 05 00 00 00
	00 01 00 00 00	 mov	 DWORD PTR ?terrain_surface_builtup_area4_infrared@@3W4SURFACE_TYPES@@A, 1

; 3269 : 		terrain_surface_road										= SURFACE_TYPE_DESERT;

  00205	c7 05 00 00 00
	00 01 00 00 00	 mov	 DWORD PTR ?terrain_surface_road@@3W4SURFACE_TYPES@@A, 1

; 3270 : 		terrain_surface_track									= SURFACE_TYPE_SOIL;

  0020f	c7 05 00 00 00
	00 06 00 00 00	 mov	 DWORD PTR ?terrain_surface_track@@3W4SURFACE_TYPES@@A, 6

; 3271 : 		terrain_surface_river									= SURFACE_TYPE_WATER;

  00219	c7 05 00 00 00
	00 05 00 00 00	 mov	 DWORD PTR ?terrain_surface_river@@3W4SURFACE_TYPES@@A, 5

; 3272 : 		terrain_surface_reservoir								= SURFACE_TYPE_WATER;

  00223	c7 05 00 00 00
	00 05 00 00 00	 mov	 DWORD PTR ?terrain_surface_reservoir@@3W4SURFACE_TYPES@@A, 5

; 3273 : 		terrain_surface_rail										= SURFACE_TYPE_SOIL;

  0022d	c7 05 00 00 00
	00 06 00 00 00	 mov	 DWORD PTR ?terrain_surface_rail@@3W4SURFACE_TYPES@@A, 6

; 3274 : 		terrain_surface_road_bank								= SURFACE_TYPE_SOIL;

  00237	c7 05 00 00 00
	00 06 00 00 00	 mov	 DWORD PTR ?terrain_surface_road_bank@@3W4SURFACE_TYPES@@A, 6

; 3275 : 		terrain_surface_river_bank								= SURFACE_TYPE_DESERT;

  00241	c7 05 00 00 00
	00 01 00 00 00	 mov	 DWORD PTR ?terrain_surface_river_bank@@3W4SURFACE_TYPES@@A, 1

; 3276 : 		terrain_surface_rail_bank								= SURFACE_TYPE_DESERT;

  0024b	c7 05 00 00 00
	00 01 00 00 00	 mov	 DWORD PTR ?terrain_surface_rail_bank@@3W4SURFACE_TYPES@@A, 1

; 3277 : 		terrain_surface_field1									= SURFACE_TYPE_FIELD_LIGHTBROWN;

  00255	c7 05 00 00 00
	00 07 00 00 00	 mov	 DWORD PTR ?terrain_surface_field1@@3W4SURFACE_TYPES@@A, 7

; 3278 : 		terrain_surface_field2									= SURFACE_TYPE_FIELD_DARKBROWN;

  0025f	c7 05 00 00 00
	00 08 00 00 00	 mov	 DWORD PTR ?terrain_surface_field2@@3W4SURFACE_TYPES@@A, 8

; 3279 : 		terrain_surface_field3									= SURFACE_TYPE_FIELD_LIGHTBROWN;

  00269	c7 05 00 00 00
	00 07 00 00 00	 mov	 DWORD PTR ?terrain_surface_field3@@3W4SURFACE_TYPES@@A, 7

; 3280 : 		terrain_surface_field4									= SURFACE_TYPE_FIELD_LIGHTBROWN;

  00273	c7 05 00 00 00
	00 07 00 00 00	 mov	 DWORD PTR ?terrain_surface_field4@@3W4SURFACE_TYPES@@A, 7

; 3281 : 		terrain_surface_field5									= SURFACE_TYPE_FIELD_LIGHTBROWN;

  0027d	c7 05 00 00 00
	00 07 00 00 00	 mov	 DWORD PTR ?terrain_surface_field5@@3W4SURFACE_TYPES@@A, 7

; 3282 : 		terrain_surface_field6									= SURFACE_TYPE_SOIL;

  00287	c7 05 00 00 00
	00 06 00 00 00	 mov	 DWORD PTR ?terrain_surface_field6@@3W4SURFACE_TYPES@@A, 6

; 3283 : 		terrain_surface_field7									= SURFACE_TYPE_SOIL;

  00291	c7 05 00 00 00
	00 06 00 00 00	 mov	 DWORD PTR ?terrain_surface_field7@@3W4SURFACE_TYPES@@A, 6

; 3284 : 		terrain_surface_field8									= SURFACE_TYPE_FIELD_LIGHTBROWN;

  0029b	c7 05 00 00 00
	00 07 00 00 00	 mov	 DWORD PTR ?terrain_surface_field8@@3W4SURFACE_TYPES@@A, 7

; 3285 : 		terrain_surface_field9									= SURFACE_TYPE_FIELD_LIGHTBROWN;

  002a5	c7 05 00 00 00
	00 07 00 00 00	 mov	 DWORD PTR ?terrain_surface_field9@@3W4SURFACE_TYPES@@A, 7

; 3286 : 		terrain_surface_field10									= SURFACE_TYPE_FIELD_DARKBROWN;

  002af	c7 05 00 00 00
	00 08 00 00 00	 mov	 DWORD PTR ?terrain_surface_field10@@3W4SURFACE_TYPES@@A, 8

; 3287 : 		terrain_surface_field11									= SURFACE_TYPE_FIELD_LIGHTBROWN;

  002b9	c7 05 00 00 00
	00 07 00 00 00	 mov	 DWORD PTR ?terrain_surface_field11@@3W4SURFACE_TYPES@@A, 7

; 3288 : 		terrain_surface_altered_land1							= SURFACE_TYPE_DESERT;

  002c3	c7 05 00 00 00
	00 01 00 00 00	 mov	 DWORD PTR ?terrain_surface_altered_land1@@3W4SURFACE_TYPES@@A, 1

; 3289 : 		terrain_surface_altered_land2							= SURFACE_TYPE_DESERT;

  002cd	c7 05 00 00 00
	00 01 00 00 00	 mov	 DWORD PTR ?terrain_surface_altered_land2@@3W4SURFACE_TYPES@@A, 1

; 3290 : 		terrain_surface_altered_land3							= SURFACE_TYPE_SNOW;

  002d7	c7 05 00 00 00
	00 0c 00 00 00	 mov	 DWORD PTR ?terrain_surface_altered_land3@@3W4SURFACE_TYPES@@A, 12 ; 0000000cH

; 3291 : 		terrain_surface_hedge									= SURFACE_TYPE_DESERT;

  002e1	c7 05 00 00 00
	00 01 00 00 00	 mov	 DWORD PTR ?terrain_surface_hedge@@3W4SURFACE_TYPES@@A, 1

; 3292 : 		terrain_surface_wall										= SURFACE_TYPE_DESERT;

  002eb	c7 05 00 00 00
	00 01 00 00 00	 mov	 DWORD PTR ?terrain_surface_wall@@3W4SURFACE_TYPES@@A, 1

; 3293 : 		terrain_surface_trench									= SURFACE_TYPE_WATER;

  002f5	c7 05 00 00 00
	00 05 00 00 00	 mov	 DWORD PTR ?terrain_surface_trench@@3W4SURFACE_TYPES@@A, 5
$LN1@initialise:

; 3294 : 	}
; 3295 : }

  002ff	5f		 pop	 edi
  00300	5e		 pop	 esi
  00301	5b		 pop	 ebx
  00302	8b e5		 mov	 esp, ebp
  00304	5d		 pop	 ebp
  00305	c3		 ret	 0
?initialise_surface_types@@YGXXZ ENDP			; initialise_surface_types
_TEXT	ENDS
; Function compile flags: /Odtp /ZI
; File c:\users\nhv90\projects\eech\modules\3d\terrain\terrtype.c
;	COMDAT ?initialise_3d_custom_map_terrain_types@@YGXXZ
_TEXT	SEGMENT
_contour_heights$ = -40					; size = 36
_reflection_texture_index$ = -4				; size = 4
?initialise_3d_custom_map_terrain_types@@YGXXZ PROC	; initialise_3d_custom_map_terrain_types, COMDAT

; 3154 : {

  00000	55		 push	 ebp
  00001	8b ec		 mov	 ebp, esp
  00003	83 ec 68	 sub	 esp, 104		; 00000068H
  00006	53		 push	 ebx
  00007	56		 push	 esi
  00008	57		 push	 edi

; 3155 : 	int
; 3156 : 		reflection_texture_index;
; 3157 : 
; 3158 :    //safe contour heights
; 3159 : 	float
; 3160 : 		contour_heights[] =
; 3161 : 		{
; 3162 : 			-1000,

  00009	f3 0f 10 05 00
	00 00 00	 movss	 xmm0, DWORD PTR __real@c47a0000
  00011	f3 0f 11 45 d8	 movss	 DWORD PTR _contour_heights$[ebp], xmm0

; 3163 : 			-0.0001,

  00016	f3 0f 10 05 00
	00 00 00	 movss	 xmm0, DWORD PTR __real@b8d1b717
  0001e	f3 0f 11 45 dc	 movss	 DWORD PTR _contour_heights$[ebp+4], xmm0

; 3164 : 			250,

  00023	f3 0f 10 05 00
	00 00 00	 movss	 xmm0, DWORD PTR __real@437a0000
  0002b	f3 0f 11 45 e0	 movss	 DWORD PTR _contour_heights$[ebp+8], xmm0

; 3165 : 			500,

  00030	f3 0f 10 05 00
	00 00 00	 movss	 xmm0, DWORD PTR __real@43fa0000
  00038	f3 0f 11 45 e4	 movss	 DWORD PTR _contour_heights$[ebp+12], xmm0

; 3166 : 			750,

  0003d	f3 0f 10 05 00
	00 00 00	 movss	 xmm0, DWORD PTR __real@443b8000
  00045	f3 0f 11 45 e8	 movss	 DWORD PTR _contour_heights$[ebp+16], xmm0

; 3167 : 			1250,

  0004a	f3 0f 10 05 00
	00 00 00	 movss	 xmm0, DWORD PTR __real@449c4000
  00052	f3 0f 11 45 ec	 movss	 DWORD PTR _contour_heights$[ebp+20], xmm0

; 3168 : 			2000,

  00057	f3 0f 10 05 00
	00 00 00	 movss	 xmm0, DWORD PTR __real@44fa0000
  0005f	f3 0f 11 45 f0	 movss	 DWORD PTR _contour_heights$[ebp+24], xmm0

; 3169 : 			3000,

  00064	f3 0f 10 05 00
	00 00 00	 movss	 xmm0, DWORD PTR __real@453b8000
  0006c	f3 0f 11 45 f4	 movss	 DWORD PTR _contour_heights$[ebp+28], xmm0

; 3170 : 			5000,

  00071	f3 0f 10 05 00
	00 00 00	 movss	 xmm0, DWORD PTR __real@459c4000
  00079	f3 0f 11 45 f8	 movss	 DWORD PTR _contour_heights$[ebp+32], xmm0

; 3171 : 		};
; 3172 : 
; 3173 :    //set_3d_rain_special_snow_flag ( TRUE );
; 3174 : 	//has no effect, this is supposed to turn rain into snow above altered land 3 but is commented out
; 3175 : 
; 3176 : 	// load custom texture list
; 3177 : 	initialise_all_custom_terrain_types ();

  0007e	e8 00 00 00 00	 call	 ?initialise_all_custom_terrain_types@@YGXXZ ; initialise_all_custom_terrain_types

; 3178 : 
; 3179 : 	if (get_global_season() == SESSION_SEASON_DESERT)

  00083	83 3d 14 04 00
	00 04		 cmp	 DWORD PTR ?current_map_info@@3UCUSTOM_MAP_INFO@@A+1044, 4
  0008a	75 0c		 jne	 SHORT $LN2@initialise

; 3180 : 		set_object_3d_texture_camoflage_by_name ( "DESERT" );

  0008c	68 00 00 00 00	 push	 OFFSET ??_C@_06OPNEJFKO@DESERT@
  00091	e8 00 00 00 00	 call	 ?set_object_3d_texture_camoflage_by_name@@YGXPAD@Z ; set_object_3d_texture_camoflage_by_name

; 3181 : 	else

  00096	eb 0a		 jmp	 SHORT $LN3@initialise
$LN2@initialise:

; 3182 : 		set_object_3d_texture_camoflage_by_name ( "DEFAULT" );

  00098	68 00 00 00 00	 push	 OFFSET ??_C@_07MGCPDNLD@DEFAULT@
  0009d	e8 00 00 00 00	 call	 ?set_object_3d_texture_camoflage_by_name@@YGXPAD@Z ; set_object_3d_texture_camoflage_by_name
$LN3@initialise:

; 3183 : 
; 3184 : 	//VJ 051224 moved to separate function
; 3185 : 	initialise_surface_types();

  000a2	e8 00 00 00 00	 call	 ?initialise_surface_types@@YGXXZ ; initialise_surface_types

; 3186 : 
; 3187 : 	reflection_texture_index = get_system_texture_index ( "ENVIRO_YEMEN_SMALL" );

  000a7	68 00 00 00 00	 push	 OFFSET ??_C@_0BD@MIKAIJBD@ENVIRO_YEMEN_SMALL@
  000ac	e8 00 00 00 00	 call	 ?get_system_texture_index@@YGHPBD@Z ; get_system_texture_index
  000b1	89 45 fc	 mov	 DWORD PTR _reflection_texture_index$[ebp], eax

; 3188 : 
; 3189 : 	if ( reflection_texture_index != -1 )

  000b4	83 7d fc ff	 cmp	 DWORD PTR _reflection_texture_index$[ebp], -1
  000b8	74 09		 je	 SHORT $LN4@initialise

; 3190 : 	{
; 3191 : 		set_object_3d_reflection_texture_map ( reflection_texture_index );

  000ba	8b 45 fc	 mov	 eax, DWORD PTR _reflection_texture_index$[ebp]
  000bd	50		 push	 eax
  000be	e8 00 00 00 00	 call	 ?set_object_3d_reflection_texture_map@@YGXH@Z ; set_object_3d_reflection_texture_map
$LN4@initialise:

; 3192 : 	}
; 3193 : 
; 3194 : 	if (current_map_info.user_defined_contour_heights)

  000c3	83 3d 68 03 00
	00 00		 cmp	 DWORD PTR ?current_map_info@@3UCUSTOM_MAP_INFO@@A+872, 0
  000ca	74 0e		 je	 SHORT $LN5@initialise

; 3195 : 	{
; 3196 : 		//VJ 060325 changed to hard value 9
; 3197 : 		set_2d_terrain_contour_heights ( 9, current_map_info.contour_heights );

  000cc	68 6c 03 00 00	 push	 OFFSET ?current_map_info@@3UCUSTOM_MAP_INFO@@A+876
  000d1	6a 09		 push	 9
  000d3	e8 00 00 00 00	 call	 ?set_2d_terrain_contour_heights@@YGXHPAM@Z ; set_2d_terrain_contour_heights

; 3198 : 	}
; 3199 : 	else

  000d8	eb 0b		 jmp	 SHORT $LN6@initialise
$LN5@initialise:

; 3200 : 	{
; 3201 : 		set_2d_terrain_contour_heights ( sizeof ( contour_heights ) / sizeof ( float ), contour_heights );

  000da	8d 45 d8	 lea	 eax, DWORD PTR _contour_heights$[ebp]
  000dd	50		 push	 eax
  000de	6a 09		 push	 9
  000e0	e8 00 00 00 00	 call	 ?set_2d_terrain_contour_heights@@YGXHPAM@Z ; set_2d_terrain_contour_heights
$LN6@initialise:

; 3202 : 	}
; 3203 : }

  000e5	5f		 pop	 edi
  000e6	5e		 pop	 esi
  000e7	5b		 pop	 ebx
  000e8	8b e5		 mov	 esp, ebp
  000ea	5d		 pop	 ebp
  000eb	c3		 ret	 0
?initialise_3d_custom_map_terrain_types@@YGXXZ ENDP	; initialise_3d_custom_map_terrain_types
_TEXT	ENDS
; Function compile flags: /Odtp /ZI
; File c:\users\nhv90\projects\eech\modules\3d\terrain\terrtype.c
;	COMDAT ?initialise_all_custom_terrain_types@@YGXXZ
_TEXT	SEGMENT
?initialise_all_custom_terrain_types@@YGXXZ PROC	; initialise_all_custom_terrain_types, COMDAT

; 2598 : {

  00000	55		 push	 ebp
  00001	8b ec		 mov	 ebp, esp
  00003	83 ec 40	 sub	 esp, 64			; 00000040H
  00006	53		 push	 ebx
  00007	56		 push	 esi
  00008	57		 push	 edi

; 2599 : 	memset(textures_with_noisemap, 0, sizeof(textures_with_noisemap));

  00009	68 00 02 00 00	 push	 512			; 00000200H
  0000e	6a 00		 push	 0
  00010	68 00 00 00 00	 push	 OFFSET ?textures_with_noisemap@@3PAU<unnamed-type-textures_with_noisemap>@@A
  00015	e8 00 00 00 00	 call	 _memset
  0001a	83 c4 0c	 add	 esp, 12			; 0000000cH

; 2600 : 
; 2601 : 	if (command_line_texture_colour == 2)

  0001d	83 3d 00 00 00
	00 02		 cmp	 DWORD PTR ?command_line_texture_colour@@3HA, 2 ; command_line_texture_colour
  00024	75 0a		 jne	 SHORT $LN2@initialise

; 2602 : 		initialise_noisemaps();

  00026	e8 00 00 00 00	 call	 ?initialise_noisemaps@@YGXXZ ; initialise_noisemaps

; 2603 : 	else

  0002b	e9 cf 03 00 00	 jmp	 $LN1@initialise
$LN2@initialise:

; 2604 : 	{
; 2605 : 	 	terrain_texture_sea_detail								= get_system_texture_index ( "TERRAIN_SEA_1" );

  00030	68 00 00 00 00	 push	 OFFSET ??_C@_0O@DCAMCMDE@TERRAIN_SEA_1@
  00035	e8 00 00 00 00	 call	 ?get_system_texture_index@@YGHPBD@Z ; get_system_texture_index
  0003a	a3 00 00 00 00	 mov	 DWORD PTR ?terrain_texture_sea_detail@@3HA, eax

; 2606 : 		terrain_texture_beach_detail							= get_system_texture_index ( "TERRAIN_BEACH" );

  0003f	68 00 00 00 00	 push	 OFFSET ??_C@_0O@BBEHGFKB@TERRAIN_BEACH@
  00044	e8 00 00 00 00	 call	 ?get_system_texture_index@@YGHPBD@Z ; get_system_texture_index
  00049	a3 00 00 00 00	 mov	 DWORD PTR ?terrain_texture_beach_detail@@3HA, eax

; 2607 : 		terrain_texture_land_detail							= get_system_texture_index ( "TERRAIN_DETAIL_4" );

  0004e	68 00 00 00 00	 push	 OFFSET ??_C@_0BB@BDNEEDDA@TERRAIN_DETAIL_4@
  00053	e8 00 00 00 00	 call	 ?get_system_texture_index@@YGHPBD@Z ; get_system_texture_index
  00058	a3 00 00 00 00	 mov	 DWORD PTR ?terrain_texture_land_detail@@3HA, eax

; 2608 : 		terrain_texture_altered_land1_detail				= get_system_texture_index ( "TERRAIN_SCRUB" );

  0005d	68 00 00 00 00	 push	 OFFSET ??_C@_0O@PGGFIOAG@TERRAIN_SCRUB@
  00062	e8 00 00 00 00	 call	 ?get_system_texture_index@@YGHPBD@Z ; get_system_texture_index
  00067	a3 00 00 00 00	 mov	 DWORD PTR ?terrain_texture_altered_land1_detail@@3HA, eax

; 2609 : 		terrain_texture_altered_land2_detail				= get_system_texture_index ( "TERRAIN_BARE_ROCK2" );

  0006c	68 00 00 00 00	 push	 OFFSET ??_C@_0BD@BMPINLKM@TERRAIN_BARE_ROCK2@
  00071	e8 00 00 00 00	 call	 ?get_system_texture_index@@YGHPBD@Z ; get_system_texture_index
  00076	a3 00 00 00 00	 mov	 DWORD PTR ?terrain_texture_altered_land2_detail@@3HA, eax

; 2610 : 		terrain_texture_altered_land3_detail				= get_system_texture_index ( "TERRAIN_SNOW" );

  0007b	68 00 00 00 00	 push	 OFFSET ??_C@_0N@JANIPHBF@TERRAIN_SNOW@
  00080	e8 00 00 00 00	 call	 ?get_system_texture_index@@YGHPBD@Z ; get_system_texture_index
  00085	a3 00 00 00 00	 mov	 DWORD PTR ?terrain_texture_altered_land3_detail@@3HA, eax

; 2611 : 
; 2612 : 		terrain_texture_forest_detail							= get_system_texture_index ( "TERRAIN_TREE_CANOPY_1" );

  0008a	68 00 00 00 00	 push	 OFFSET ??_C@_0BG@EOMIBGLD@TERRAIN_TREE_CANOPY_1@
  0008f	e8 00 00 00 00	 call	 ?get_system_texture_index@@YGHPBD@Z ; get_system_texture_index
  00094	a3 00 00 00 00	 mov	 DWORD PTR ?terrain_texture_forest_detail@@3HA, eax

; 2613 : 		terrain_texture_forest_top_detail					= get_system_texture_index ( "TERRAIN_TREE_CANOPY_LEBANON" );

  00099	68 00 00 00 00	 push	 OFFSET ??_C@_0BM@NCJBOGKD@TERRAIN_TREE_CANOPY_LEBANON@
  0009e	e8 00 00 00 00	 call	 ?get_system_texture_index@@YGHPBD@Z ; get_system_texture_index
  000a3	a3 00 00 00 00	 mov	 DWORD PTR ?terrain_texture_forest_top_detail@@3HA, eax

; 2614 : 		terrain_texture_forest_middle_detail				= get_system_texture_index ( "TERRAIN_SWAMP2" );

  000a8	68 00 00 00 00	 push	 OFFSET ??_C@_0P@DBONDBHL@TERRAIN_SWAMP2@
  000ad	e8 00 00 00 00	 call	 ?get_system_texture_index@@YGHPBD@Z ; get_system_texture_index
  000b2	a3 00 00 00 00	 mov	 DWORD PTR ?terrain_texture_forest_middle_detail@@3HA, eax

; 2615 : 		terrain_texture_forest_bottom_detail				= get_system_texture_index ( "TERRAIN_SWAMP1" );

  000b7	68 00 00 00 00	 push	 OFFSET ??_C@_0P@BKMAGCLI@TERRAIN_SWAMP1@
  000bc	e8 00 00 00 00	 call	 ?get_system_texture_index@@YGHPBD@Z ; get_system_texture_index
  000c1	a3 00 00 00 00	 mov	 DWORD PTR ?terrain_texture_forest_bottom_detail@@3HA, eax

; 2616 : 
; 2617 : 		terrain_texture_builtup_area1_detail				= get_system_texture_index ( "TERRAIN_GRG_CITY4" );

  000c6	68 00 00 00 00	 push	 OFFSET ??_C@_0BC@IFNGCBJM@TERRAIN_GRG_CITY4@
  000cb	e8 00 00 00 00	 call	 ?get_system_texture_index@@YGHPBD@Z ; get_system_texture_index
  000d0	a3 00 00 00 00	 mov	 DWORD PTR ?terrain_texture_builtup_area1_detail@@3HA, eax

; 2618 : 		terrain_texture_builtup_area2_detail				= get_system_texture_index ( "TERRAIN_GRG_CITY3" );

  000d5	68 00 00 00 00	 push	 OFFSET ??_C@_0BC@MKJHLHFL@TERRAIN_GRG_CITY3@
  000da	e8 00 00 00 00	 call	 ?get_system_texture_index@@YGHPBD@Z ; get_system_texture_index
  000df	a3 00 00 00 00	 mov	 DWORD PTR ?terrain_texture_builtup_area2_detail@@3HA, eax

; 2619 : 		terrain_texture_builtup_area3_detail				= get_system_texture_index ( "TERRAIN_GRG_CITY2" );

  000e4	68 00 00 00 00	 push	 OFFSET ??_C@_0BC@NDIMIGBK@TERRAIN_GRG_CITY2@
  000e9	e8 00 00 00 00	 call	 ?get_system_texture_index@@YGHPBD@Z ; get_system_texture_index
  000ee	a3 00 00 00 00	 mov	 DWORD PTR ?terrain_texture_builtup_area3_detail@@3HA, eax

; 2620 : 		terrain_texture_builtup_area4_detail				= get_system_texture_index ( "TERRAIN_GRG_CITY1" );

  000f3	68 00 00 00 00	 push	 OFFSET ??_C@_0BC@PIKBNFNJ@TERRAIN_GRG_CITY1@
  000f8	e8 00 00 00 00	 call	 ?get_system_texture_index@@YGHPBD@Z ; get_system_texture_index
  000fd	a3 00 00 00 00	 mov	 DWORD PTR ?terrain_texture_builtup_area4_detail@@3HA, eax

; 2621 : 		terrain_texture_builtup_area1_infrared_detail	= get_system_texture_index ( "TERRAIN_BW_CITY4" );

  00102	68 00 00 00 00	 push	 OFFSET ??_C@_0BB@IALPPKNP@TERRAIN_BW_CITY4@
  00107	e8 00 00 00 00	 call	 ?get_system_texture_index@@YGHPBD@Z ; get_system_texture_index
  0010c	a3 00 00 00 00	 mov	 DWORD PTR ?terrain_texture_builtup_area1_infrared_detail@@3HA, eax

; 2622 : 		terrain_texture_builtup_area2_infrared_detail	= get_system_texture_index ( "TERRAIN_BW_CITY3" );

  00111	68 00 00 00 00	 push	 OFFSET ??_C@_0BB@MPPOGMBI@TERRAIN_BW_CITY3@
  00116	e8 00 00 00 00	 call	 ?get_system_texture_index@@YGHPBD@Z ; get_system_texture_index
  0011b	a3 00 00 00 00	 mov	 DWORD PTR ?terrain_texture_builtup_area2_infrared_detail@@3HA, eax

; 2623 : 		terrain_texture_builtup_area3_infrared_detail	= get_system_texture_index ( "TERRAIN_BW_CITY2" );

  00120	68 00 00 00 00	 push	 OFFSET ??_C@_0BB@NGOFFNFJ@TERRAIN_BW_CITY2@
  00125	e8 00 00 00 00	 call	 ?get_system_texture_index@@YGHPBD@Z ; get_system_texture_index
  0012a	a3 00 00 00 00	 mov	 DWORD PTR ?terrain_texture_builtup_area3_infrared_detail@@3HA, eax

; 2624 : 		terrain_texture_builtup_area4_infrared_detail	= get_system_texture_index ( "TERRAIN_BW_CITY1" );

  0012f	68 00 00 00 00	 push	 OFFSET ??_C@_0BB@PNMIAOJK@TERRAIN_BW_CITY1@
  00134	e8 00 00 00 00	 call	 ?get_system_texture_index@@YGHPBD@Z ; get_system_texture_index
  00139	a3 00 00 00 00	 mov	 DWORD PTR ?terrain_texture_builtup_area4_infrared_detail@@3HA, eax

; 2625 : 
; 2626 : 		terrain_texture_road_detail							= get_system_texture_index ( "TERRAIN_DETAIL_ROAD" );

  0013e	68 00 00 00 00	 push	 OFFSET ??_C@_0BE@EOMJEIPI@TERRAIN_DETAIL_ROAD@
  00143	e8 00 00 00 00	 call	 ?get_system_texture_index@@YGHPBD@Z ; get_system_texture_index
  00148	a3 00 00 00 00	 mov	 DWORD PTR ?terrain_texture_road_detail@@3HA, eax

; 2627 : 		terrain_texture_road_bank_detail						= get_system_texture_index ( "TERRAIN_DETAIL_LEBANON" );

  0014d	68 00 00 00 00	 push	 OFFSET ??_C@_0BH@IMANJLMO@TERRAIN_DETAIL_LEBANON@
  00152	e8 00 00 00 00	 call	 ?get_system_texture_index@@YGHPBD@Z ; get_system_texture_index
  00157	a3 00 00 00 00	 mov	 DWORD PTR ?terrain_texture_road_bank_detail@@3HA, eax

; 2628 : 		terrain_texture_track_detail							= get_system_texture_index ( "TERRAIN_THAI_TRACK" );

  0015c	68 00 00 00 00	 push	 OFFSET ??_C@_0BD@HAICHOLH@TERRAIN_THAI_TRACK@
  00161	e8 00 00 00 00	 call	 ?get_system_texture_index@@YGHPBD@Z ; get_system_texture_index
  00166	a3 00 00 00 00	 mov	 DWORD PTR ?terrain_texture_track_detail@@3HA, eax

; 2629 : 
; 2630 : 		terrain_texture_river_detail							= get_system_texture_index ( "TERRAIN_RIVER" );

  0016b	68 00 00 00 00	 push	 OFFSET ??_C@_0O@KOAPGDHE@TERRAIN_RIVER@
  00170	e8 00 00 00 00	 call	 ?get_system_texture_index@@YGHPBD@Z ; get_system_texture_index
  00175	a3 00 00 00 00	 mov	 DWORD PTR ?terrain_texture_river_detail@@3HA, eax

; 2631 : 		terrain_texture_river_bank_detail					= get_system_texture_index ( "TERRAIN_HIGHLAND" );

  0017a	68 00 00 00 00	 push	 OFFSET ??_C@_0BB@NLCHJFOM@TERRAIN_HIGHLAND@
  0017f	e8 00 00 00 00	 call	 ?get_system_texture_index@@YGHPBD@Z ; get_system_texture_index
  00184	a3 00 00 00 00	 mov	 DWORD PTR ?terrain_texture_river_bank_detail@@3HA, eax

; 2632 : 		terrain_texture_reservoir_detail						= get_system_texture_index ( "TERRAIN_THAILAND_RIVER" );

  00189	68 00 00 00 00	 push	 OFFSET ??_C@_0BH@LCADFALJ@TERRAIN_THAILAND_RIVER@
  0018e	e8 00 00 00 00	 call	 ?get_system_texture_index@@YGHPBD@Z ; get_system_texture_index
  00193	a3 00 00 00 00	 mov	 DWORD PTR ?terrain_texture_reservoir_detail@@3HA, eax

; 2633 : 		terrain_texture_trench_detail							= get_system_texture_index ( "CH_TERRAIN_DRY_MUD1");

  00198	68 00 00 00 00	 push	 OFFSET ??_C@_0BE@PCKHIBHJ@CH_TERRAIN_DRY_MUD1@
  0019d	e8 00 00 00 00	 call	 ?get_system_texture_index@@YGHPBD@Z ; get_system_texture_index
  001a2	a3 00 00 00 00	 mov	 DWORD PTR ?terrain_texture_trench_detail@@3HA, eax

; 2634 : 
; 2635 : 		terrain_texture_field1_detail							= get_system_texture_index ( "TERRAIN_MUSTARDFIELD" );

  001a7	68 00 00 00 00	 push	 OFFSET ??_C@_0BF@GFEKLLKL@TERRAIN_MUSTARDFIELD@
  001ac	e8 00 00 00 00	 call	 ?get_system_texture_index@@YGHPBD@Z ; get_system_texture_index
  001b1	a3 00 00 00 00	 mov	 DWORD PTR ?terrain_texture_field1_detail@@3HA, eax

; 2636 : 		terrain_texture_field2_detail							= get_system_texture_index ( "TERRAIN_PLOUGHED1FIELD" );

  001b6	68 00 00 00 00	 push	 OFFSET ??_C@_0BH@JNGNCFED@TERRAIN_PLOUGHED1FIELD@
  001bb	e8 00 00 00 00	 call	 ?get_system_texture_index@@YGHPBD@Z ; get_system_texture_index
  001c0	a3 00 00 00 00	 mov	 DWORD PTR ?terrain_texture_field2_detail@@3HA, eax

; 2637 : 		terrain_texture_field3_detail							= get_system_texture_index ( "TERRAIN_PLOUGHED2FIELD" );

  001c5	68 00 00 00 00	 push	 OFFSET ??_C@_0BH@KMIFDPNO@TERRAIN_PLOUGHED2FIELD@
  001ca	e8 00 00 00 00	 call	 ?get_system_texture_index@@YGHPBD@Z ; get_system_texture_index
  001cf	a3 00 00 00 00	 mov	 DWORD PTR ?terrain_texture_field3_detail@@3HA, eax

; 2638 : 		terrain_texture_field4_detail							= get_system_texture_index ( "TERRAIN_CORNFIELD" );

  001d4	68 00 00 00 00	 push	 OFFSET ??_C@_0BC@KJPKDFNB@TERRAIN_CORNFIELD@
  001d9	e8 00 00 00 00	 call	 ?get_system_texture_index@@YGHPBD@Z ; get_system_texture_index
  001de	a3 00 00 00 00	 mov	 DWORD PTR ?terrain_texture_field4_detail@@3HA, eax

; 2639 : 		terrain_texture_field5_detail							= get_system_texture_index ( "TERRAIN_WHEATFIELD" );

  001e3	68 00 00 00 00	 push	 OFFSET ??_C@_0BD@DPOGMPFD@TERRAIN_WHEATFIELD@
  001e8	e8 00 00 00 00	 call	 ?get_system_texture_index@@YGHPBD@Z ; get_system_texture_index
  001ed	a3 00 00 00 00	 mov	 DWORD PTR ?terrain_texture_field5_detail@@3HA, eax

; 2640 : 		terrain_texture_field6_detail							= get_system_texture_index ( "TERRAIN_LIGHTGREENFIELD" );

  001f2	68 00 00 00 00	 push	 OFFSET ??_C@_0BI@KPJCKJLC@TERRAIN_LIGHTGREENFIELD@
  001f7	e8 00 00 00 00	 call	 ?get_system_texture_index@@YGHPBD@Z ; get_system_texture_index
  001fc	a3 00 00 00 00	 mov	 DWORD PTR ?terrain_texture_field6_detail@@3HA, eax

; 2641 : 		terrain_texture_field7_detail							= get_system_texture_index ( "TERRAIN_DARKGREENFIELD" );

  00201	68 00 00 00 00	 push	 OFFSET ??_C@_0BH@BEINOGAP@TERRAIN_DARKGREENFIELD@
  00206	e8 00 00 00 00	 call	 ?get_system_texture_index@@YGHPBD@Z ; get_system_texture_index
  0020b	a3 00 00 00 00	 mov	 DWORD PTR ?terrain_texture_field7_detail@@3HA, eax

; 2642 : 		terrain_texture_field8_detail							= get_system_texture_index ( "TERRAIN_MUSTARDFIELD" );

  00210	68 00 00 00 00	 push	 OFFSET ??_C@_0BF@GFEKLLKL@TERRAIN_MUSTARDFIELD@
  00215	e8 00 00 00 00	 call	 ?get_system_texture_index@@YGHPBD@Z ; get_system_texture_index
  0021a	a3 00 00 00 00	 mov	 DWORD PTR ?terrain_texture_field8_detail@@3HA, eax

; 2643 : 		terrain_texture_field9_detail							= get_system_texture_index ( "TERRAIN_PLOUGHED1FIELD" );

  0021f	68 00 00 00 00	 push	 OFFSET ??_C@_0BH@JNGNCFED@TERRAIN_PLOUGHED1FIELD@
  00224	e8 00 00 00 00	 call	 ?get_system_texture_index@@YGHPBD@Z ; get_system_texture_index
  00229	a3 00 00 00 00	 mov	 DWORD PTR ?terrain_texture_field9_detail@@3HA, eax

; 2644 : 		terrain_texture_field10_detail						= get_system_texture_index ( "TERRAIN_PLOUGHED2FIELD" );

  0022e	68 00 00 00 00	 push	 OFFSET ??_C@_0BH@KMIFDPNO@TERRAIN_PLOUGHED2FIELD@
  00233	e8 00 00 00 00	 call	 ?get_system_texture_index@@YGHPBD@Z ; get_system_texture_index
  00238	a3 00 00 00 00	 mov	 DWORD PTR ?terrain_texture_field10_detail@@3HA, eax

; 2645 : 		terrain_texture_field11_detail						= get_system_texture_index ( "TERRAIN_CORNFIELD" );

  0023d	68 00 00 00 00	 push	 OFFSET ??_C@_0BC@KJPKDFNB@TERRAIN_CORNFIELD@
  00242	e8 00 00 00 00	 call	 ?get_system_texture_index@@YGHPBD@Z ; get_system_texture_index
  00247	a3 00 00 00 00	 mov	 DWORD PTR ?terrain_texture_field11_detail@@3HA, eax

; 2646 : 
; 2647 : 		terrain_texture_hedge_detail							= get_system_texture_index ( "TERRAIN_WALL_LEBANON" );

  0024c	68 00 00 00 00	 push	 OFFSET ??_C@_0BF@MCHGDFIO@TERRAIN_WALL_LEBANON@
  00251	e8 00 00 00 00	 call	 ?get_system_texture_index@@YGHPBD@Z ; get_system_texture_index
  00256	a3 00 00 00 00	 mov	 DWORD PTR ?terrain_texture_hedge_detail@@3HA, eax

; 2648 : 		terrain_texture_wall_detail							= get_system_texture_index ( "TERRAIN_WALL" );

  0025b	68 00 00 00 00	 push	 OFFSET ??_C@_0N@JGELDEEA@TERRAIN_WALL@
  00260	e8 00 00 00 00	 call	 ?get_system_texture_index@@YGHPBD@Z ; get_system_texture_index
  00265	a3 00 00 00 00	 mov	 DWORD PTR ?terrain_texture_wall_detail@@3HA, eax

; 2649 : 		terrain_texture_trench_detail							= get_system_texture_index ( "TERRAIN_RIVER" );

  0026a	68 00 00 00 00	 push	 OFFSET ??_C@_0O@KOAPGDHE@TERRAIN_RIVER@
  0026f	e8 00 00 00 00	 call	 ?get_system_texture_index@@YGHPBD@Z ; get_system_texture_index
  00274	a3 00 00 00 00	 mov	 DWORD PTR ?terrain_texture_trench_detail@@3HA, eax

; 2650 : 
; 2651 : 		terrain_texture_sea_colour_pass						= terrain_texture_sea_detail;

  00279	a1 00 00 00 00	 mov	 eax, DWORD PTR ?terrain_texture_sea_detail@@3HA
  0027e	a3 00 00 00 00	 mov	 DWORD PTR ?terrain_texture_sea_colour_pass@@3HA, eax

; 2652 : 		terrain_texture_beach_colour_pass					= terrain_texture_beach_detail;

  00283	a1 00 00 00 00	 mov	 eax, DWORD PTR ?terrain_texture_beach_detail@@3HA
  00288	a3 00 00 00 00	 mov	 DWORD PTR ?terrain_texture_beach_colour_pass@@3HA, eax

; 2653 : 		terrain_texture_land_colour_pass						= terrain_texture_land_detail;

  0028d	a1 00 00 00 00	 mov	 eax, DWORD PTR ?terrain_texture_land_detail@@3HA
  00292	a3 00 00 00 00	 mov	 DWORD PTR ?terrain_texture_land_colour_pass@@3HA, eax

; 2654 : 
; 2655 : 		terrain_texture_forest_colour_pass					= terrain_texture_forest_detail;

  00297	a1 00 00 00 00	 mov	 eax, DWORD PTR ?terrain_texture_forest_detail@@3HA
  0029c	a3 00 00 00 00	 mov	 DWORD PTR ?terrain_texture_forest_colour_pass@@3HA, eax

; 2656 : 		terrain_texture_forest_bottom_colour_pass			= terrain_texture_forest_bottom_detail;

  002a1	a1 00 00 00 00	 mov	 eax, DWORD PTR ?terrain_texture_forest_bottom_detail@@3HA
  002a6	a3 00 00 00 00	 mov	 DWORD PTR ?terrain_texture_forest_bottom_colour_pass@@3HA, eax

; 2657 : 		terrain_texture_forest_middle_colour_pass			= terrain_texture_forest_middle_detail;

  002ab	a1 00 00 00 00	 mov	 eax, DWORD PTR ?terrain_texture_forest_middle_detail@@3HA
  002b0	a3 00 00 00 00	 mov	 DWORD PTR ?terrain_texture_forest_middle_colour_pass@@3HA, eax

; 2658 : 		terrain_texture_forest_top_colour_pass				= terrain_texture_forest_top_detail;

  002b5	a1 00 00 00 00	 mov	 eax, DWORD PTR ?terrain_texture_forest_top_detail@@3HA
  002ba	a3 00 00 00 00	 mov	 DWORD PTR ?terrain_texture_forest_top_colour_pass@@3HA, eax

; 2659 : 
; 2660 : 		terrain_texture_builtup_area1_colour_pass				= terrain_texture_builtup_area1_detail;

  002bf	a1 00 00 00 00	 mov	 eax, DWORD PTR ?terrain_texture_builtup_area1_detail@@3HA
  002c4	a3 00 00 00 00	 mov	 DWORD PTR ?terrain_texture_builtup_area1_colour_pass@@3HA, eax

; 2661 : 		terrain_texture_builtup_area2_colour_pass				= terrain_texture_builtup_area2_detail;

  002c9	a1 00 00 00 00	 mov	 eax, DWORD PTR ?terrain_texture_builtup_area2_detail@@3HA
  002ce	a3 00 00 00 00	 mov	 DWORD PTR ?terrain_texture_builtup_area2_colour_pass@@3HA, eax

; 2662 : 		terrain_texture_builtup_area3_colour_pass				= terrain_texture_builtup_area3_detail;

  002d3	a1 00 00 00 00	 mov	 eax, DWORD PTR ?terrain_texture_builtup_area3_detail@@3HA
  002d8	a3 00 00 00 00	 mov	 DWORD PTR ?terrain_texture_builtup_area3_colour_pass@@3HA, eax

; 2663 : 		terrain_texture_builtup_area4_colour_pass				= terrain_texture_builtup_area4_detail;

  002dd	a1 00 00 00 00	 mov	 eax, DWORD PTR ?terrain_texture_builtup_area4_detail@@3HA
  002e2	a3 00 00 00 00	 mov	 DWORD PTR ?terrain_texture_builtup_area4_colour_pass@@3HA, eax

; 2664 : 		terrain_texture_builtup_area1_infrared_colour_pass	= terrain_texture_builtup_area1_infrared_detail;

  002e7	a1 00 00 00 00	 mov	 eax, DWORD PTR ?terrain_texture_builtup_area1_infrared_detail@@3HA
  002ec	a3 00 00 00 00	 mov	 DWORD PTR ?terrain_texture_builtup_area1_infrared_colour_pass@@3HA, eax

; 2665 : 		terrain_texture_builtup_area2_infrared_colour_pass	= terrain_texture_builtup_area2_infrared_detail;

  002f1	a1 00 00 00 00	 mov	 eax, DWORD PTR ?terrain_texture_builtup_area2_infrared_detail@@3HA
  002f6	a3 00 00 00 00	 mov	 DWORD PTR ?terrain_texture_builtup_area2_infrared_colour_pass@@3HA, eax

; 2666 : 		terrain_texture_builtup_area3_infrared_colour_pass	= terrain_texture_builtup_area3_infrared_detail;

  002fb	a1 00 00 00 00	 mov	 eax, DWORD PTR ?terrain_texture_builtup_area3_infrared_detail@@3HA
  00300	a3 00 00 00 00	 mov	 DWORD PTR ?terrain_texture_builtup_area3_infrared_colour_pass@@3HA, eax

; 2667 : 		terrain_texture_builtup_area4_infrared_colour_pass	= terrain_texture_builtup_area4_infrared_detail;

  00305	a1 00 00 00 00	 mov	 eax, DWORD PTR ?terrain_texture_builtup_area4_infrared_detail@@3HA
  0030a	a3 00 00 00 00	 mov	 DWORD PTR ?terrain_texture_builtup_area4_infrared_colour_pass@@3HA, eax

; 2668 : 
; 2669 : 		terrain_texture_road_colour_pass							= terrain_texture_road_detail;

  0030f	a1 00 00 00 00	 mov	 eax, DWORD PTR ?terrain_texture_road_detail@@3HA
  00314	a3 00 00 00 00	 mov	 DWORD PTR ?terrain_texture_road_colour_pass@@3HA, eax

; 2670 : 		terrain_texture_track_colour_pass						= terrain_texture_track_detail;

  00319	a1 00 00 00 00	 mov	 eax, DWORD PTR ?terrain_texture_track_detail@@3HA
  0031e	a3 00 00 00 00	 mov	 DWORD PTR ?terrain_texture_track_colour_pass@@3HA, eax

; 2671 : 		terrain_texture_river_colour_pass						= terrain_texture_river_detail;

  00323	a1 00 00 00 00	 mov	 eax, DWORD PTR ?terrain_texture_river_detail@@3HA
  00328	a3 00 00 00 00	 mov	 DWORD PTR ?terrain_texture_river_colour_pass@@3HA, eax

; 2672 : 		terrain_texture_reservoir_colour_pass					= terrain_texture_reservoir_detail;

  0032d	a1 00 00 00 00	 mov	 eax, DWORD PTR ?terrain_texture_reservoir_detail@@3HA
  00332	a3 00 00 00 00	 mov	 DWORD PTR ?terrain_texture_reservoir_colour_pass@@3HA, eax

; 2673 : 
; 2674 : 		terrain_texture_road_bank_colour_pass					= terrain_texture_road_bank_detail;

  00337	a1 00 00 00 00	 mov	 eax, DWORD PTR ?terrain_texture_road_bank_detail@@3HA
  0033c	a3 00 00 00 00	 mov	 DWORD PTR ?terrain_texture_road_bank_colour_pass@@3HA, eax

; 2675 : 		terrain_texture_river_bank_colour_pass					= terrain_texture_river_bank_detail;

  00341	a1 00 00 00 00	 mov	 eax, DWORD PTR ?terrain_texture_river_bank_detail@@3HA
  00346	a3 00 00 00 00	 mov	 DWORD PTR ?terrain_texture_river_bank_colour_pass@@3HA, eax

; 2676 : 		terrain_texture_trench_colour_pass						= terrain_texture_trench_detail;

  0034b	a1 00 00 00 00	 mov	 eax, DWORD PTR ?terrain_texture_trench_detail@@3HA
  00350	a3 00 00 00 00	 mov	 DWORD PTR ?terrain_texture_trench_colour_pass@@3HA, eax

; 2677 : 
; 2678 : 		terrain_texture_field1_colour_pass						= terrain_texture_field1_detail;

  00355	a1 00 00 00 00	 mov	 eax, DWORD PTR ?terrain_texture_field1_detail@@3HA
  0035a	a3 00 00 00 00	 mov	 DWORD PTR ?terrain_texture_field1_colour_pass@@3HA, eax

; 2679 : 		terrain_texture_field2_colour_pass						= terrain_texture_field2_detail;

  0035f	a1 00 00 00 00	 mov	 eax, DWORD PTR ?terrain_texture_field2_detail@@3HA
  00364	a3 00 00 00 00	 mov	 DWORD PTR ?terrain_texture_field2_colour_pass@@3HA, eax

; 2680 : 		terrain_texture_field3_colour_pass						= terrain_texture_field3_detail;

  00369	a1 00 00 00 00	 mov	 eax, DWORD PTR ?terrain_texture_field3_detail@@3HA
  0036e	a3 00 00 00 00	 mov	 DWORD PTR ?terrain_texture_field3_colour_pass@@3HA, eax

; 2681 : 		terrain_texture_field4_colour_pass						= terrain_texture_field4_detail;

  00373	a1 00 00 00 00	 mov	 eax, DWORD PTR ?terrain_texture_field4_detail@@3HA
  00378	a3 00 00 00 00	 mov	 DWORD PTR ?terrain_texture_field4_colour_pass@@3HA, eax

; 2682 : 		terrain_texture_field5_colour_pass						= terrain_texture_field5_detail;

  0037d	a1 00 00 00 00	 mov	 eax, DWORD PTR ?terrain_texture_field5_detail@@3HA
  00382	a3 00 00 00 00	 mov	 DWORD PTR ?terrain_texture_field5_colour_pass@@3HA, eax

; 2683 : 		terrain_texture_field6_colour_pass						= terrain_texture_field6_detail;

  00387	a1 00 00 00 00	 mov	 eax, DWORD PTR ?terrain_texture_field6_detail@@3HA
  0038c	a3 00 00 00 00	 mov	 DWORD PTR ?terrain_texture_field6_colour_pass@@3HA, eax

; 2684 : 		terrain_texture_field7_colour_pass						= terrain_texture_field7_detail;

  00391	a1 00 00 00 00	 mov	 eax, DWORD PTR ?terrain_texture_field7_detail@@3HA
  00396	a3 00 00 00 00	 mov	 DWORD PTR ?terrain_texture_field7_colour_pass@@3HA, eax

; 2685 : 		terrain_texture_field8_colour_pass						= terrain_texture_field8_detail;

  0039b	a1 00 00 00 00	 mov	 eax, DWORD PTR ?terrain_texture_field8_detail@@3HA
  003a0	a3 00 00 00 00	 mov	 DWORD PTR ?terrain_texture_field8_colour_pass@@3HA, eax

; 2686 : 		terrain_texture_field9_colour_pass						= terrain_texture_field9_detail;

  003a5	a1 00 00 00 00	 mov	 eax, DWORD PTR ?terrain_texture_field9_detail@@3HA
  003aa	a3 00 00 00 00	 mov	 DWORD PTR ?terrain_texture_field9_colour_pass@@3HA, eax

; 2687 : 		terrain_texture_field10_colour_pass						= terrain_texture_field10_detail;

  003af	a1 00 00 00 00	 mov	 eax, DWORD PTR ?terrain_texture_field10_detail@@3HA
  003b4	a3 00 00 00 00	 mov	 DWORD PTR ?terrain_texture_field10_colour_pass@@3HA, eax

; 2688 : 		terrain_texture_field11_colour_pass						= terrain_texture_field11_detail;

  003b9	a1 00 00 00 00	 mov	 eax, DWORD PTR ?terrain_texture_field11_detail@@3HA
  003be	a3 00 00 00 00	 mov	 DWORD PTR ?terrain_texture_field11_colour_pass@@3HA, eax

; 2689 : 
; 2690 : 		terrain_texture_altered_land1_colour_pass				= terrain_texture_altered_land1_detail;

  003c3	a1 00 00 00 00	 mov	 eax, DWORD PTR ?terrain_texture_altered_land1_detail@@3HA
  003c8	a3 00 00 00 00	 mov	 DWORD PTR ?terrain_texture_altered_land1_colour_pass@@3HA, eax

; 2691 : 		terrain_texture_altered_land2_colour_pass				= terrain_texture_altered_land2_detail;

  003cd	a1 00 00 00 00	 mov	 eax, DWORD PTR ?terrain_texture_altered_land2_detail@@3HA
  003d2	a3 00 00 00 00	 mov	 DWORD PTR ?terrain_texture_altered_land2_colour_pass@@3HA, eax

; 2692 : 		terrain_texture_altered_land3_colour_pass				= terrain_texture_altered_land3_detail;

  003d7	a1 00 00 00 00	 mov	 eax, DWORD PTR ?terrain_texture_altered_land3_detail@@3HA
  003dc	a3 00 00 00 00	 mov	 DWORD PTR ?terrain_texture_altered_land3_colour_pass@@3HA, eax

; 2693 : 
; 2694 : 		terrain_texture_hedge_colour_pass						= terrain_texture_hedge_detail;

  003e1	a1 00 00 00 00	 mov	 eax, DWORD PTR ?terrain_texture_hedge_detail@@3HA
  003e6	a3 00 00 00 00	 mov	 DWORD PTR ?terrain_texture_hedge_colour_pass@@3HA, eax

; 2695 : 		terrain_texture_wall_colour_pass							= terrain_texture_wall_detail;

  003eb	a1 00 00 00 00	 mov	 eax, DWORD PTR ?terrain_texture_wall_detail@@3HA
  003f0	a3 00 00 00 00	 mov	 DWORD PTR ?terrain_texture_wall_colour_pass@@3HA, eax

; 2696 : 		terrain_texture_trench_colour_pass						= terrain_texture_trench_detail;

  003f5	a1 00 00 00 00	 mov	 eax, DWORD PTR ?terrain_texture_trench_detail@@3HA
  003fa	a3 00 00 00 00	 mov	 DWORD PTR ?terrain_texture_trench_colour_pass@@3HA, eax
$LN1@initialise:

; 2697 : 	}
; 2698 : 
; 2699 : 	//terrain_texture_beach_colour_pass						= get_system_texture_index ( "COLOUR_PASS" );
; 2700 : 	//terrain_texture_road_colour_pass						= get_system_texture_index ( "COLOUR_PASS" );
; 2701 : 	//terrain_texture_track_colour_pass						= get_system_texture_index ( "COLOUR_PASS" );
; 2702 : 	//terrain_texture_road_bank_colour_pass				= get_system_texture_index ( "COLOUR_PASS" );
; 2703 : 	//terrain_texture_river_bank_colour_pass				= get_system_texture_index ( "COLOUR_PASS" );
; 2704 : }

  003ff	5f		 pop	 edi
  00400	5e		 pop	 esi
  00401	5b		 pop	 ebx
  00402	8b e5		 mov	 esp, ebp
  00404	5d		 pop	 ebp
  00405	c3		 ret	 0
?initialise_all_custom_terrain_types@@YGXXZ ENDP	; initialise_all_custom_terrain_types
_TEXT	ENDS
; Function compile flags: /Odtp /ZI
; File c:\users\nhv90\projects\eech\modules\3d\terrain\terrtype.c
;	COMDAT ?initialise_3d_custom_terrain_types@@YGXXZ
_TEXT	SEGMENT
_index$1 = -24						; size = 4
_default_noise_detail$ = -20				; size = 4
_sldd$ = -16						; size = 4
_sld$ = -12						; size = 4
_sl$ = -8						; size = 4
_count$ = -4						; size = 4
?initialise_3d_custom_terrain_types@@YGXXZ PROC		; initialise_3d_custom_terrain_types, COMDAT

; 944  : {

  00000	55		 push	 ebp
  00001	8b ec		 mov	 ebp, esp
  00003	83 ec 58	 sub	 esp, 88			; 00000058H
  00006	53		 push	 ebx
  00007	56		 push	 esi
  00008	57		 push	 edi

; 945  : 	int count = 0;

  00009	c7 45 fc 00 00
	00 00		 mov	 DWORD PTR _count$[ebp], 0

; 946  : 	float sl, sld, sldd;
; 947  : 	const float default_noise_detail = 32.0;

  00010	f3 0f 10 05 00
	00 00 00	 movss	 xmm0, DWORD PTR __real@42000000
  00018	f3 0f 11 45 ec	 movss	 DWORD PTR _default_noise_detail$[ebp], xmm0

; 948  : 
; 949  : 	for (count = 0; count < 64; count++)

  0001d	c7 45 fc 00 00
	00 00		 mov	 DWORD PTR _count$[ebp], 0
  00024	eb 09		 jmp	 SHORT $LN4@initialise
$LN2@initialise:
  00026	8b 45 fc	 mov	 eax, DWORD PTR _count$[ebp]
  00029	83 c0 01	 add	 eax, 1
  0002c	89 45 fc	 mov	 DWORD PTR _count$[ebp], eax
$LN4@initialise:
  0002f	83 7d fc 40	 cmp	 DWORD PTR _count$[ebp], 64 ; 00000040H
  00033	0f 8d 65 19 00
	00		 jge	 $LN3@initialise

; 950  : 	if (current_map_info.texture_override_scales[count][0] > 0)

  00039	b8 04 00 00 00	 mov	 eax, 4
  0003e	6b c8 00	 imul	 ecx, eax, 0
  00041	8b 55 fc	 mov	 edx, DWORD PTR _count$[ebp]
  00044	83 bc d1 18 04
	00 00 00	 cmp	 DWORD PTR ?current_map_info@@3UCUSTOM_MAP_INFO@@A[ecx+edx*8+1048], 0
  0004c	0f 8e 47 19 00
	00		 jle	 $LN62@initialise

; 951  : 	{
; 952  : 		int index = current_map_info.texture_override_scales[count][0];

  00052	b8 04 00 00 00	 mov	 eax, 4
  00057	6b c8 00	 imul	 ecx, eax, 0
  0005a	8b 55 fc	 mov	 edx, DWORD PTR _count$[ebp]
  0005d	8b 84 d1 18 04
	00 00		 mov	 eax, DWORD PTR ?current_map_info@@3UCUSTOM_MAP_INFO@@A[ecx+edx*8+1048]
  00064	89 45 e8	 mov	 DWORD PTR _index$1[ebp], eax

; 953  : 		sl = current_map_info.texture_override_scales[count][1];

  00067	b8 04 00 00 00	 mov	 eax, 4
  0006c	c1 e0 00	 shl	 eax, 0
  0006f	8b 4d fc	 mov	 ecx, DWORD PTR _count$[ebp]
  00072	f3 0f 2a 84 c8
	18 04 00 00	 cvtsi2ss xmm0, DWORD PTR ?current_map_info@@3UCUSTOM_MAP_INFO@@A[eax+ecx*8+1048]
  0007b	f3 0f 11 45 f8	 movss	 DWORD PTR _sl$[ebp], xmm0

; 954  : 		sld = sl;

  00080	f3 0f 10 45 f8	 movss	 xmm0, DWORD PTR _sl$[ebp]
  00085	f3 0f 11 45 f4	 movss	 DWORD PTR _sld$[ebp], xmm0

; 955  : 		sldd = sl;

  0008a	f3 0f 10 45 f8	 movss	 xmm0, DWORD PTR _sl$[ebp]
  0008f	f3 0f 11 45 f0	 movss	 DWORD PTR _sldd$[ebp], xmm0

; 956  : 
; 957  : 		//VJ 051001 sld equals sl but may not in future alpha blended display
; 958  : 		if (index == terrain_texture_beach_detail  ) set_terrain_type_textures ( TERRAIN_TYPE_BEACH, terrain_texture_beach_detail, terrain_texture_beach_colour_pass, 8.0, sld, sld, sl, sl, 255, 255, 255, terrain_surface_beach );

  00094	8b 45 e8	 mov	 eax, DWORD PTR _index$1[ebp]
  00097	3b 05 00 00 00
	00		 cmp	 eax, DWORD PTR ?terrain_texture_beach_detail@@3HA
  0009d	75 64		 jne	 SHORT $LN6@initialise
  0009f	a1 00 00 00 00	 mov	 eax, DWORD PTR ?terrain_surface_beach@@3W4SURFACE_TYPES@@A
  000a4	50		 push	 eax
  000a5	68 ff 00 00 00	 push	 255			; 000000ffH
  000aa	68 ff 00 00 00	 push	 255			; 000000ffH
  000af	68 ff 00 00 00	 push	 255			; 000000ffH
  000b4	51		 push	 ecx
  000b5	f3 0f 10 45 f8	 movss	 xmm0, DWORD PTR _sl$[ebp]
  000ba	f3 0f 11 04 24	 movss	 DWORD PTR [esp], xmm0
  000bf	51		 push	 ecx
  000c0	f3 0f 10 45 f8	 movss	 xmm0, DWORD PTR _sl$[ebp]
  000c5	f3 0f 11 04 24	 movss	 DWORD PTR [esp], xmm0
  000ca	51		 push	 ecx
  000cb	f3 0f 10 45 f4	 movss	 xmm0, DWORD PTR _sld$[ebp]
  000d0	f3 0f 11 04 24	 movss	 DWORD PTR [esp], xmm0
  000d5	51		 push	 ecx
  000d6	f3 0f 10 45 f4	 movss	 xmm0, DWORD PTR _sld$[ebp]
  000db	f3 0f 11 04 24	 movss	 DWORD PTR [esp], xmm0
  000e0	51		 push	 ecx
  000e1	f3 0f 10 05 00
	00 00 00	 movss	 xmm0, DWORD PTR __real@41000000
  000e9	f3 0f 11 04 24	 movss	 DWORD PTR [esp], xmm0
  000ee	8b 0d 00 00 00
	00		 mov	 ecx, DWORD PTR ?terrain_texture_beach_colour_pass@@3HA
  000f4	51		 push	 ecx
  000f5	8b 15 00 00 00
	00		 mov	 edx, DWORD PTR ?terrain_texture_beach_detail@@3HA
  000fb	52		 push	 edx
  000fc	6a 08		 push	 8
  000fe	e8 00 00 00 00	 call	 ?set_terrain_type_textures@@YGXHHHMMMMMHHHW4SURFACE_TYPES@@@Z ; set_terrain_type_textures
$LN6@initialise:

; 959  : 		if (index == terrain_texture_land_detail   ) set_terrain_type_textures ( TERRAIN_TYPE_LAND, terrain_texture_land_detail, terrain_texture_land_colour_pass, default_noise_detail, sld, sld, sldd, sldd,  255, 255, 255, terrain_surface_land);

  00103	8b 45 e8	 mov	 eax, DWORD PTR _index$1[ebp]
  00106	3b 05 00 00 00
	00		 cmp	 eax, DWORD PTR ?terrain_texture_land_detail@@3HA
  0010c	75 64		 jne	 SHORT $LN7@initialise
  0010e	a1 00 00 00 00	 mov	 eax, DWORD PTR ?terrain_surface_land@@3W4SURFACE_TYPES@@A
  00113	50		 push	 eax
  00114	68 ff 00 00 00	 push	 255			; 000000ffH
  00119	68 ff 00 00 00	 push	 255			; 000000ffH
  0011e	68 ff 00 00 00	 push	 255			; 000000ffH
  00123	51		 push	 ecx
  00124	f3 0f 10 45 f0	 movss	 xmm0, DWORD PTR _sldd$[ebp]
  00129	f3 0f 11 04 24	 movss	 DWORD PTR [esp], xmm0
  0012e	51		 push	 ecx
  0012f	f3 0f 10 45 f0	 movss	 xmm0, DWORD PTR _sldd$[ebp]
  00134	f3 0f 11 04 24	 movss	 DWORD PTR [esp], xmm0
  00139	51		 push	 ecx
  0013a	f3 0f 10 45 f4	 movss	 xmm0, DWORD PTR _sld$[ebp]
  0013f	f3 0f 11 04 24	 movss	 DWORD PTR [esp], xmm0
  00144	51		 push	 ecx
  00145	f3 0f 10 45 f4	 movss	 xmm0, DWORD PTR _sld$[ebp]
  0014a	f3 0f 11 04 24	 movss	 DWORD PTR [esp], xmm0
  0014f	51		 push	 ecx
  00150	f3 0f 10 05 00
	00 00 00	 movss	 xmm0, DWORD PTR __real@42000000
  00158	f3 0f 11 04 24	 movss	 DWORD PTR [esp], xmm0
  0015d	8b 0d 00 00 00
	00		 mov	 ecx, DWORD PTR ?terrain_texture_land_colour_pass@@3HA
  00163	51		 push	 ecx
  00164	8b 15 00 00 00
	00		 mov	 edx, DWORD PTR ?terrain_texture_land_detail@@3HA
  0016a	52		 push	 edx
  0016b	6a 09		 push	 9
  0016d	e8 00 00 00 00	 call	 ?set_terrain_type_textures@@YGXHHHMMMMMHHHW4SURFACE_TYPES@@@Z ; set_terrain_type_textures
$LN7@initialise:

; 960  :    	if (index == terrain_texture_altered_land1_detail ) set_terrain_type_textures ( TERRAIN_TYPE_ALTERED_LAND1, terrain_texture_altered_land1_detail, terrain_texture_altered_land1_colour_pass, default_noise_detail, sld, sld, sldd, sldd, 255, 255, 255, terrain_surface_altered_land1 );

  00172	8b 45 e8	 mov	 eax, DWORD PTR _index$1[ebp]
  00175	3b 05 00 00 00
	00		 cmp	 eax, DWORD PTR ?terrain_texture_altered_land1_detail@@3HA
  0017b	75 64		 jne	 SHORT $LN8@initialise
  0017d	a1 00 00 00 00	 mov	 eax, DWORD PTR ?terrain_surface_altered_land1@@3W4SURFACE_TYPES@@A
  00182	50		 push	 eax
  00183	68 ff 00 00 00	 push	 255			; 000000ffH
  00188	68 ff 00 00 00	 push	 255			; 000000ffH
  0018d	68 ff 00 00 00	 push	 255			; 000000ffH
  00192	51		 push	 ecx
  00193	f3 0f 10 45 f0	 movss	 xmm0, DWORD PTR _sldd$[ebp]
  00198	f3 0f 11 04 24	 movss	 DWORD PTR [esp], xmm0
  0019d	51		 push	 ecx
  0019e	f3 0f 10 45 f0	 movss	 xmm0, DWORD PTR _sldd$[ebp]
  001a3	f3 0f 11 04 24	 movss	 DWORD PTR [esp], xmm0
  001a8	51		 push	 ecx
  001a9	f3 0f 10 45 f4	 movss	 xmm0, DWORD PTR _sld$[ebp]
  001ae	f3 0f 11 04 24	 movss	 DWORD PTR [esp], xmm0
  001b3	51		 push	 ecx
  001b4	f3 0f 10 45 f4	 movss	 xmm0, DWORD PTR _sld$[ebp]
  001b9	f3 0f 11 04 24	 movss	 DWORD PTR [esp], xmm0
  001be	51		 push	 ecx
  001bf	f3 0f 10 05 00
	00 00 00	 movss	 xmm0, DWORD PTR __real@42000000
  001c7	f3 0f 11 04 24	 movss	 DWORD PTR [esp], xmm0
  001cc	8b 0d 00 00 00
	00		 mov	 ecx, DWORD PTR ?terrain_texture_altered_land1_colour_pass@@3HA
  001d2	51		 push	 ecx
  001d3	8b 15 00 00 00
	00		 mov	 edx, DWORD PTR ?terrain_texture_altered_land1_detail@@3HA
  001d9	52		 push	 edx
  001da	6a 15		 push	 21			; 00000015H
  001dc	e8 00 00 00 00	 call	 ?set_terrain_type_textures@@YGXHHHMMMMMHHHW4SURFACE_TYPES@@@Z ; set_terrain_type_textures
$LN8@initialise:

; 961  :    	if (index == terrain_texture_altered_land2_detail ) set_terrain_type_textures ( TERRAIN_TYPE_ALTERED_LAND2, terrain_texture_altered_land2_detail, terrain_texture_altered_land2_colour_pass, default_noise_detail, sld, sld, sldd, sldd, 255, 255, 255, terrain_surface_altered_land2 );

  001e1	8b 45 e8	 mov	 eax, DWORD PTR _index$1[ebp]
  001e4	3b 05 00 00 00
	00		 cmp	 eax, DWORD PTR ?terrain_texture_altered_land2_detail@@3HA
  001ea	75 64		 jne	 SHORT $LN9@initialise
  001ec	a1 00 00 00 00	 mov	 eax, DWORD PTR ?terrain_surface_altered_land2@@3W4SURFACE_TYPES@@A
  001f1	50		 push	 eax
  001f2	68 ff 00 00 00	 push	 255			; 000000ffH
  001f7	68 ff 00 00 00	 push	 255			; 000000ffH
  001fc	68 ff 00 00 00	 push	 255			; 000000ffH
  00201	51		 push	 ecx
  00202	f3 0f 10 45 f0	 movss	 xmm0, DWORD PTR _sldd$[ebp]
  00207	f3 0f 11 04 24	 movss	 DWORD PTR [esp], xmm0
  0020c	51		 push	 ecx
  0020d	f3 0f 10 45 f0	 movss	 xmm0, DWORD PTR _sldd$[ebp]
  00212	f3 0f 11 04 24	 movss	 DWORD PTR [esp], xmm0
  00217	51		 push	 ecx
  00218	f3 0f 10 45 f4	 movss	 xmm0, DWORD PTR _sld$[ebp]
  0021d	f3 0f 11 04 24	 movss	 DWORD PTR [esp], xmm0
  00222	51		 push	 ecx
  00223	f3 0f 10 45 f4	 movss	 xmm0, DWORD PTR _sld$[ebp]
  00228	f3 0f 11 04 24	 movss	 DWORD PTR [esp], xmm0
  0022d	51		 push	 ecx
  0022e	f3 0f 10 05 00
	00 00 00	 movss	 xmm0, DWORD PTR __real@42000000
  00236	f3 0f 11 04 24	 movss	 DWORD PTR [esp], xmm0
  0023b	8b 0d 00 00 00
	00		 mov	 ecx, DWORD PTR ?terrain_texture_altered_land2_colour_pass@@3HA
  00241	51		 push	 ecx
  00242	8b 15 00 00 00
	00		 mov	 edx, DWORD PTR ?terrain_texture_altered_land2_detail@@3HA
  00248	52		 push	 edx
  00249	6a 16		 push	 22			; 00000016H
  0024b	e8 00 00 00 00	 call	 ?set_terrain_type_textures@@YGXHHHMMMMMHHHW4SURFACE_TYPES@@@Z ; set_terrain_type_textures
$LN9@initialise:

; 962  :    	if (index == terrain_texture_altered_land3_detail ) set_terrain_type_textures ( TERRAIN_TYPE_ALTERED_LAND3, terrain_texture_altered_land3_detail, terrain_texture_altered_land3_colour_pass, default_noise_detail, sld, sld, sldd, sldd, 255, 255, 255, terrain_surface_altered_land3 );

  00250	8b 45 e8	 mov	 eax, DWORD PTR _index$1[ebp]
  00253	3b 05 00 00 00
	00		 cmp	 eax, DWORD PTR ?terrain_texture_altered_land3_detail@@3HA
  00259	75 64		 jne	 SHORT $LN10@initialise
  0025b	a1 00 00 00 00	 mov	 eax, DWORD PTR ?terrain_surface_altered_land3@@3W4SURFACE_TYPES@@A
  00260	50		 push	 eax
  00261	68 ff 00 00 00	 push	 255			; 000000ffH
  00266	68 ff 00 00 00	 push	 255			; 000000ffH
  0026b	68 ff 00 00 00	 push	 255			; 000000ffH
  00270	51		 push	 ecx
  00271	f3 0f 10 45 f0	 movss	 xmm0, DWORD PTR _sldd$[ebp]
  00276	f3 0f 11 04 24	 movss	 DWORD PTR [esp], xmm0
  0027b	51		 push	 ecx
  0027c	f3 0f 10 45 f0	 movss	 xmm0, DWORD PTR _sldd$[ebp]
  00281	f3 0f 11 04 24	 movss	 DWORD PTR [esp], xmm0
  00286	51		 push	 ecx
  00287	f3 0f 10 45 f4	 movss	 xmm0, DWORD PTR _sld$[ebp]
  0028c	f3 0f 11 04 24	 movss	 DWORD PTR [esp], xmm0
  00291	51		 push	 ecx
  00292	f3 0f 10 45 f4	 movss	 xmm0, DWORD PTR _sld$[ebp]
  00297	f3 0f 11 04 24	 movss	 DWORD PTR [esp], xmm0
  0029c	51		 push	 ecx
  0029d	f3 0f 10 05 00
	00 00 00	 movss	 xmm0, DWORD PTR __real@42000000
  002a5	f3 0f 11 04 24	 movss	 DWORD PTR [esp], xmm0
  002aa	8b 0d 00 00 00
	00		 mov	 ecx, DWORD PTR ?terrain_texture_altered_land3_colour_pass@@3HA
  002b0	51		 push	 ecx
  002b1	8b 15 00 00 00
	00		 mov	 edx, DWORD PTR ?terrain_texture_altered_land3_detail@@3HA
  002b7	52		 push	 edx
  002b8	6a 17		 push	 23			; 00000017H
  002ba	e8 00 00 00 00	 call	 ?set_terrain_type_textures@@YGXHHHMMMMMHHHW4SURFACE_TYPES@@@Z ; set_terrain_type_textures
$LN10@initialise:

; 963  : 
; 964  : 
; 965  : 		if (index == terrain_texture_forest_detail ) set_terrain_type_textures ( TERRAIN_TYPE_FOREST_TOP, terrain_texture_forest_detail, terrain_texture_forest_colour_pass, 8.0, sld, sld, sl, sl, 255, 255, 255,terrain_surface_forest );

  002bf	8b 45 e8	 mov	 eax, DWORD PTR _index$1[ebp]
  002c2	3b 05 00 00 00
	00		 cmp	 eax, DWORD PTR ?terrain_texture_forest_detail@@3HA
  002c8	75 64		 jne	 SHORT $LN11@initialise
  002ca	a1 00 00 00 00	 mov	 eax, DWORD PTR ?terrain_surface_forest@@3W4SURFACE_TYPES@@A
  002cf	50		 push	 eax
  002d0	68 ff 00 00 00	 push	 255			; 000000ffH
  002d5	68 ff 00 00 00	 push	 255			; 000000ffH
  002da	68 ff 00 00 00	 push	 255			; 000000ffH
  002df	51		 push	 ecx
  002e0	f3 0f 10 45 f8	 movss	 xmm0, DWORD PTR _sl$[ebp]
  002e5	f3 0f 11 04 24	 movss	 DWORD PTR [esp], xmm0
  002ea	51		 push	 ecx
  002eb	f3 0f 10 45 f8	 movss	 xmm0, DWORD PTR _sl$[ebp]
  002f0	f3 0f 11 04 24	 movss	 DWORD PTR [esp], xmm0
  002f5	51		 push	 ecx
  002f6	f3 0f 10 45 f4	 movss	 xmm0, DWORD PTR _sld$[ebp]
  002fb	f3 0f 11 04 24	 movss	 DWORD PTR [esp], xmm0
  00300	51		 push	 ecx
  00301	f3 0f 10 45 f4	 movss	 xmm0, DWORD PTR _sld$[ebp]
  00306	f3 0f 11 04 24	 movss	 DWORD PTR [esp], xmm0
  0030b	51		 push	 ecx
  0030c	f3 0f 10 05 00
	00 00 00	 movss	 xmm0, DWORD PTR __real@41000000
  00314	f3 0f 11 04 24	 movss	 DWORD PTR [esp], xmm0
  00319	8b 0d 00 00 00
	00		 mov	 ecx, DWORD PTR ?terrain_texture_forest_colour_pass@@3HA
  0031f	51		 push	 ecx
  00320	8b 15 00 00 00
	00		 mov	 edx, DWORD PTR ?terrain_texture_forest_detail@@3HA
  00326	52		 push	 edx
  00327	6a 2e		 push	 46			; 0000002eH
  00329	e8 00 00 00 00	 call	 ?set_terrain_type_textures@@YGXHHHMMMMMHHHW4SURFACE_TYPES@@@Z ; set_terrain_type_textures
$LN11@initialise:

; 966  : 
; 967  : 		if (index == terrain_texture_forest_detail ) set_terrain_type_textures ( TERRAIN_TYPE_FOREST_FLOOR, terrain_texture_altered_land2_detail, terrain_texture_altered_land2_colour_pass, 8.0, sld, sld, sl, sl, 255, 255, 255, terrain_surface_forest);

  0032e	8b 45 e8	 mov	 eax, DWORD PTR _index$1[ebp]
  00331	3b 05 00 00 00
	00		 cmp	 eax, DWORD PTR ?terrain_texture_forest_detail@@3HA
  00337	75 64		 jne	 SHORT $LN12@initialise
  00339	a1 00 00 00 00	 mov	 eax, DWORD PTR ?terrain_surface_forest@@3W4SURFACE_TYPES@@A
  0033e	50		 push	 eax
  0033f	68 ff 00 00 00	 push	 255			; 000000ffH
  00344	68 ff 00 00 00	 push	 255			; 000000ffH
  00349	68 ff 00 00 00	 push	 255			; 000000ffH
  0034e	51		 push	 ecx
  0034f	f3 0f 10 45 f8	 movss	 xmm0, DWORD PTR _sl$[ebp]
  00354	f3 0f 11 04 24	 movss	 DWORD PTR [esp], xmm0
  00359	51		 push	 ecx
  0035a	f3 0f 10 45 f8	 movss	 xmm0, DWORD PTR _sl$[ebp]
  0035f	f3 0f 11 04 24	 movss	 DWORD PTR [esp], xmm0
  00364	51		 push	 ecx
  00365	f3 0f 10 45 f4	 movss	 xmm0, DWORD PTR _sld$[ebp]
  0036a	f3 0f 11 04 24	 movss	 DWORD PTR [esp], xmm0
  0036f	51		 push	 ecx
  00370	f3 0f 10 45 f4	 movss	 xmm0, DWORD PTR _sld$[ebp]
  00375	f3 0f 11 04 24	 movss	 DWORD PTR [esp], xmm0
  0037a	51		 push	 ecx
  0037b	f3 0f 10 05 00
	00 00 00	 movss	 xmm0, DWORD PTR __real@41000000
  00383	f3 0f 11 04 24	 movss	 DWORD PTR [esp], xmm0
  00388	8b 0d 00 00 00
	00		 mov	 ecx, DWORD PTR ?terrain_texture_altered_land2_colour_pass@@3HA
  0038e	51		 push	 ecx
  0038f	8b 15 00 00 00
	00		 mov	 edx, DWORD PTR ?terrain_texture_altered_land2_detail@@3HA
  00395	52		 push	 edx
  00396	6a 18		 push	 24			; 00000018H
  00398	e8 00 00 00 00	 call	 ?set_terrain_type_textures@@YGXHHHMMMMMHHHW4SURFACE_TYPES@@@Z ; set_terrain_type_textures
$LN12@initialise:

; 968  : 
; 969  :    	if (index == terrain_texture_field1_detail     ) set_terrain_type_textures ( TERRAIN_TYPE_FIELD1, terrain_texture_field1_detail, terrain_texture_field1_colour_pass, default_noise_detail, sld, sld, sl, sl, 255, 255, 255, terrain_surface_field1 );

  0039d	8b 45 e8	 mov	 eax, DWORD PTR _index$1[ebp]
  003a0	3b 05 00 00 00
	00		 cmp	 eax, DWORD PTR ?terrain_texture_field1_detail@@3HA
  003a6	75 64		 jne	 SHORT $LN13@initialise
  003a8	a1 00 00 00 00	 mov	 eax, DWORD PTR ?terrain_surface_field1@@3W4SURFACE_TYPES@@A
  003ad	50		 push	 eax
  003ae	68 ff 00 00 00	 push	 255			; 000000ffH
  003b3	68 ff 00 00 00	 push	 255			; 000000ffH
  003b8	68 ff 00 00 00	 push	 255			; 000000ffH
  003bd	51		 push	 ecx
  003be	f3 0f 10 45 f8	 movss	 xmm0, DWORD PTR _sl$[ebp]
  003c3	f3 0f 11 04 24	 movss	 DWORD PTR [esp], xmm0
  003c8	51		 push	 ecx
  003c9	f3 0f 10 45 f8	 movss	 xmm0, DWORD PTR _sl$[ebp]
  003ce	f3 0f 11 04 24	 movss	 DWORD PTR [esp], xmm0
  003d3	51		 push	 ecx
  003d4	f3 0f 10 45 f4	 movss	 xmm0, DWORD PTR _sld$[ebp]
  003d9	f3 0f 11 04 24	 movss	 DWORD PTR [esp], xmm0
  003de	51		 push	 ecx
  003df	f3 0f 10 45 f4	 movss	 xmm0, DWORD PTR _sld$[ebp]
  003e4	f3 0f 11 04 24	 movss	 DWORD PTR [esp], xmm0
  003e9	51		 push	 ecx
  003ea	f3 0f 10 05 00
	00 00 00	 movss	 xmm0, DWORD PTR __real@42000000
  003f2	f3 0f 11 04 24	 movss	 DWORD PTR [esp], xmm0
  003f7	8b 0d 00 00 00
	00		 mov	 ecx, DWORD PTR ?terrain_texture_field1_colour_pass@@3HA
  003fd	51		 push	 ecx
  003fe	8b 15 00 00 00
	00		 mov	 edx, DWORD PTR ?terrain_texture_field1_detail@@3HA
  00404	52		 push	 edx
  00405	6a 0a		 push	 10			; 0000000aH
  00407	e8 00 00 00 00	 call	 ?set_terrain_type_textures@@YGXHHHMMMMMHHHW4SURFACE_TYPES@@@Z ; set_terrain_type_textures
$LN13@initialise:

; 970  :    	if (index == terrain_texture_field2_detail     ) set_terrain_type_textures ( TERRAIN_TYPE_FIELD2, terrain_texture_field2_detail, terrain_texture_field2_colour_pass, default_noise_detail, sld, sld, sl, sl, 255, 255, 255, terrain_surface_field2 );

  0040c	8b 45 e8	 mov	 eax, DWORD PTR _index$1[ebp]
  0040f	3b 05 00 00 00
	00		 cmp	 eax, DWORD PTR ?terrain_texture_field2_detail@@3HA
  00415	75 64		 jne	 SHORT $LN14@initialise
  00417	a1 00 00 00 00	 mov	 eax, DWORD PTR ?terrain_surface_field2@@3W4SURFACE_TYPES@@A
  0041c	50		 push	 eax
  0041d	68 ff 00 00 00	 push	 255			; 000000ffH
  00422	68 ff 00 00 00	 push	 255			; 000000ffH
  00427	68 ff 00 00 00	 push	 255			; 000000ffH
  0042c	51		 push	 ecx
  0042d	f3 0f 10 45 f8	 movss	 xmm0, DWORD PTR _sl$[ebp]
  00432	f3 0f 11 04 24	 movss	 DWORD PTR [esp], xmm0
  00437	51		 push	 ecx
  00438	f3 0f 10 45 f8	 movss	 xmm0, DWORD PTR _sl$[ebp]
  0043d	f3 0f 11 04 24	 movss	 DWORD PTR [esp], xmm0
  00442	51		 push	 ecx
  00443	f3 0f 10 45 f4	 movss	 xmm0, DWORD PTR _sld$[ebp]
  00448	f3 0f 11 04 24	 movss	 DWORD PTR [esp], xmm0
  0044d	51		 push	 ecx
  0044e	f3 0f 10 45 f4	 movss	 xmm0, DWORD PTR _sld$[ebp]
  00453	f3 0f 11 04 24	 movss	 DWORD PTR [esp], xmm0
  00458	51		 push	 ecx
  00459	f3 0f 10 05 00
	00 00 00	 movss	 xmm0, DWORD PTR __real@42000000
  00461	f3 0f 11 04 24	 movss	 DWORD PTR [esp], xmm0
  00466	8b 0d 00 00 00
	00		 mov	 ecx, DWORD PTR ?terrain_texture_field2_colour_pass@@3HA
  0046c	51		 push	 ecx
  0046d	8b 15 00 00 00
	00		 mov	 edx, DWORD PTR ?terrain_texture_field2_detail@@3HA
  00473	52		 push	 edx
  00474	6a 0b		 push	 11			; 0000000bH
  00476	e8 00 00 00 00	 call	 ?set_terrain_type_textures@@YGXHHHMMMMMHHHW4SURFACE_TYPES@@@Z ; set_terrain_type_textures
$LN14@initialise:

; 971  :    	if (index == terrain_texture_field3_detail     ) set_terrain_type_textures ( TERRAIN_TYPE_FIELD3, terrain_texture_field3_detail, terrain_texture_field3_colour_pass, default_noise_detail, sld, sld, sl, sl, 255, 255, 255, terrain_surface_field3 );

  0047b	8b 45 e8	 mov	 eax, DWORD PTR _index$1[ebp]
  0047e	3b 05 00 00 00
	00		 cmp	 eax, DWORD PTR ?terrain_texture_field3_detail@@3HA
  00484	75 64		 jne	 SHORT $LN15@initialise
  00486	a1 00 00 00 00	 mov	 eax, DWORD PTR ?terrain_surface_field3@@3W4SURFACE_TYPES@@A
  0048b	50		 push	 eax
  0048c	68 ff 00 00 00	 push	 255			; 000000ffH
  00491	68 ff 00 00 00	 push	 255			; 000000ffH
  00496	68 ff 00 00 00	 push	 255			; 000000ffH
  0049b	51		 push	 ecx
  0049c	f3 0f 10 45 f8	 movss	 xmm0, DWORD PTR _sl$[ebp]
  004a1	f3 0f 11 04 24	 movss	 DWORD PTR [esp], xmm0
  004a6	51		 push	 ecx
  004a7	f3 0f 10 45 f8	 movss	 xmm0, DWORD PTR _sl$[ebp]
  004ac	f3 0f 11 04 24	 movss	 DWORD PTR [esp], xmm0
  004b1	51		 push	 ecx
  004b2	f3 0f 10 45 f4	 movss	 xmm0, DWORD PTR _sld$[ebp]
  004b7	f3 0f 11 04 24	 movss	 DWORD PTR [esp], xmm0
  004bc	51		 push	 ecx
  004bd	f3 0f 10 45 f4	 movss	 xmm0, DWORD PTR _sld$[ebp]
  004c2	f3 0f 11 04 24	 movss	 DWORD PTR [esp], xmm0
  004c7	51		 push	 ecx
  004c8	f3 0f 10 05 00
	00 00 00	 movss	 xmm0, DWORD PTR __real@42000000
  004d0	f3 0f 11 04 24	 movss	 DWORD PTR [esp], xmm0
  004d5	8b 0d 00 00 00
	00		 mov	 ecx, DWORD PTR ?terrain_texture_field3_colour_pass@@3HA
  004db	51		 push	 ecx
  004dc	8b 15 00 00 00
	00		 mov	 edx, DWORD PTR ?terrain_texture_field3_detail@@3HA
  004e2	52		 push	 edx
  004e3	6a 0c		 push	 12			; 0000000cH
  004e5	e8 00 00 00 00	 call	 ?set_terrain_type_textures@@YGXHHHMMMMMHHHW4SURFACE_TYPES@@@Z ; set_terrain_type_textures
$LN15@initialise:

; 972  :    	if (index == terrain_texture_field4_detail     ) set_terrain_type_textures ( TERRAIN_TYPE_FIELD4, terrain_texture_field4_detail, terrain_texture_field4_colour_pass, default_noise_detail, sld, sld, sl, sl, 255, 255, 255, terrain_surface_field4 );

  004ea	8b 45 e8	 mov	 eax, DWORD PTR _index$1[ebp]
  004ed	3b 05 00 00 00
	00		 cmp	 eax, DWORD PTR ?terrain_texture_field4_detail@@3HA
  004f3	75 64		 jne	 SHORT $LN16@initialise
  004f5	a1 00 00 00 00	 mov	 eax, DWORD PTR ?terrain_surface_field4@@3W4SURFACE_TYPES@@A
  004fa	50		 push	 eax
  004fb	68 ff 00 00 00	 push	 255			; 000000ffH
  00500	68 ff 00 00 00	 push	 255			; 000000ffH
  00505	68 ff 00 00 00	 push	 255			; 000000ffH
  0050a	51		 push	 ecx
  0050b	f3 0f 10 45 f8	 movss	 xmm0, DWORD PTR _sl$[ebp]
  00510	f3 0f 11 04 24	 movss	 DWORD PTR [esp], xmm0
  00515	51		 push	 ecx
  00516	f3 0f 10 45 f8	 movss	 xmm0, DWORD PTR _sl$[ebp]
  0051b	f3 0f 11 04 24	 movss	 DWORD PTR [esp], xmm0
  00520	51		 push	 ecx
  00521	f3 0f 10 45 f4	 movss	 xmm0, DWORD PTR _sld$[ebp]
  00526	f3 0f 11 04 24	 movss	 DWORD PTR [esp], xmm0
  0052b	51		 push	 ecx
  0052c	f3 0f 10 45 f4	 movss	 xmm0, DWORD PTR _sld$[ebp]
  00531	f3 0f 11 04 24	 movss	 DWORD PTR [esp], xmm0
  00536	51		 push	 ecx
  00537	f3 0f 10 05 00
	00 00 00	 movss	 xmm0, DWORD PTR __real@42000000
  0053f	f3 0f 11 04 24	 movss	 DWORD PTR [esp], xmm0
  00544	8b 0d 00 00 00
	00		 mov	 ecx, DWORD PTR ?terrain_texture_field4_colour_pass@@3HA
  0054a	51		 push	 ecx
  0054b	8b 15 00 00 00
	00		 mov	 edx, DWORD PTR ?terrain_texture_field4_detail@@3HA
  00551	52		 push	 edx
  00552	6a 0d		 push	 13			; 0000000dH
  00554	e8 00 00 00 00	 call	 ?set_terrain_type_textures@@YGXHHHMMMMMHHHW4SURFACE_TYPES@@@Z ; set_terrain_type_textures
$LN16@initialise:

; 973  :    	if (index == terrain_texture_field5_detail     ) set_terrain_type_textures ( TERRAIN_TYPE_FIELD5, terrain_texture_field5_detail, terrain_texture_field5_colour_pass, default_noise_detail, sld, sld, sl, sl, 255, 255, 255, terrain_surface_field5 );

  00559	8b 45 e8	 mov	 eax, DWORD PTR _index$1[ebp]
  0055c	3b 05 00 00 00
	00		 cmp	 eax, DWORD PTR ?terrain_texture_field5_detail@@3HA
  00562	75 64		 jne	 SHORT $LN17@initialise
  00564	a1 00 00 00 00	 mov	 eax, DWORD PTR ?terrain_surface_field5@@3W4SURFACE_TYPES@@A
  00569	50		 push	 eax
  0056a	68 ff 00 00 00	 push	 255			; 000000ffH
  0056f	68 ff 00 00 00	 push	 255			; 000000ffH
  00574	68 ff 00 00 00	 push	 255			; 000000ffH
  00579	51		 push	 ecx
  0057a	f3 0f 10 45 f8	 movss	 xmm0, DWORD PTR _sl$[ebp]
  0057f	f3 0f 11 04 24	 movss	 DWORD PTR [esp], xmm0
  00584	51		 push	 ecx
  00585	f3 0f 10 45 f8	 movss	 xmm0, DWORD PTR _sl$[ebp]
  0058a	f3 0f 11 04 24	 movss	 DWORD PTR [esp], xmm0
  0058f	51		 push	 ecx
  00590	f3 0f 10 45 f4	 movss	 xmm0, DWORD PTR _sld$[ebp]
  00595	f3 0f 11 04 24	 movss	 DWORD PTR [esp], xmm0
  0059a	51		 push	 ecx
  0059b	f3 0f 10 45 f4	 movss	 xmm0, DWORD PTR _sld$[ebp]
  005a0	f3 0f 11 04 24	 movss	 DWORD PTR [esp], xmm0
  005a5	51		 push	 ecx
  005a6	f3 0f 10 05 00
	00 00 00	 movss	 xmm0, DWORD PTR __real@42000000
  005ae	f3 0f 11 04 24	 movss	 DWORD PTR [esp], xmm0
  005b3	8b 0d 00 00 00
	00		 mov	 ecx, DWORD PTR ?terrain_texture_field5_colour_pass@@3HA
  005b9	51		 push	 ecx
  005ba	8b 15 00 00 00
	00		 mov	 edx, DWORD PTR ?terrain_texture_field5_detail@@3HA
  005c0	52		 push	 edx
  005c1	6a 0e		 push	 14			; 0000000eH
  005c3	e8 00 00 00 00	 call	 ?set_terrain_type_textures@@YGXHHHMMMMMHHHW4SURFACE_TYPES@@@Z ; set_terrain_type_textures
$LN17@initialise:

; 974  :    	if (index == terrain_texture_field6_detail     ) set_terrain_type_textures ( TERRAIN_TYPE_FIELD6, terrain_texture_field6_detail, terrain_texture_field6_colour_pass, default_noise_detail, sld, sld, sl, sl, 255, 255, 255, terrain_surface_field6 );

  005c8	8b 45 e8	 mov	 eax, DWORD PTR _index$1[ebp]
  005cb	3b 05 00 00 00
	00		 cmp	 eax, DWORD PTR ?terrain_texture_field6_detail@@3HA
  005d1	75 64		 jne	 SHORT $LN18@initialise
  005d3	a1 00 00 00 00	 mov	 eax, DWORD PTR ?terrain_surface_field6@@3W4SURFACE_TYPES@@A
  005d8	50		 push	 eax
  005d9	68 ff 00 00 00	 push	 255			; 000000ffH
  005de	68 ff 00 00 00	 push	 255			; 000000ffH
  005e3	68 ff 00 00 00	 push	 255			; 000000ffH
  005e8	51		 push	 ecx
  005e9	f3 0f 10 45 f8	 movss	 xmm0, DWORD PTR _sl$[ebp]
  005ee	f3 0f 11 04 24	 movss	 DWORD PTR [esp], xmm0
  005f3	51		 push	 ecx
  005f4	f3 0f 10 45 f8	 movss	 xmm0, DWORD PTR _sl$[ebp]
  005f9	f3 0f 11 04 24	 movss	 DWORD PTR [esp], xmm0
  005fe	51		 push	 ecx
  005ff	f3 0f 10 45 f4	 movss	 xmm0, DWORD PTR _sld$[ebp]
  00604	f3 0f 11 04 24	 movss	 DWORD PTR [esp], xmm0
  00609	51		 push	 ecx
  0060a	f3 0f 10 45 f4	 movss	 xmm0, DWORD PTR _sld$[ebp]
  0060f	f3 0f 11 04 24	 movss	 DWORD PTR [esp], xmm0
  00614	51		 push	 ecx
  00615	f3 0f 10 05 00
	00 00 00	 movss	 xmm0, DWORD PTR __real@42000000
  0061d	f3 0f 11 04 24	 movss	 DWORD PTR [esp], xmm0
  00622	8b 0d 00 00 00
	00		 mov	 ecx, DWORD PTR ?terrain_texture_field6_colour_pass@@3HA
  00628	51		 push	 ecx
  00629	8b 15 00 00 00
	00		 mov	 edx, DWORD PTR ?terrain_texture_field6_detail@@3HA
  0062f	52		 push	 edx
  00630	6a 0f		 push	 15			; 0000000fH
  00632	e8 00 00 00 00	 call	 ?set_terrain_type_textures@@YGXHHHMMMMMHHHW4SURFACE_TYPES@@@Z ; set_terrain_type_textures
$LN18@initialise:

; 975  :    	if (index == terrain_texture_field7_detail     ) set_terrain_type_textures ( TERRAIN_TYPE_FIELD7, terrain_texture_field7_detail, terrain_texture_field7_colour_pass, default_noise_detail, sld, sld, sl, sl, 255, 255, 255, terrain_surface_field7 );

  00637	8b 45 e8	 mov	 eax, DWORD PTR _index$1[ebp]
  0063a	3b 05 00 00 00
	00		 cmp	 eax, DWORD PTR ?terrain_texture_field7_detail@@3HA
  00640	75 64		 jne	 SHORT $LN19@initialise
  00642	a1 00 00 00 00	 mov	 eax, DWORD PTR ?terrain_surface_field7@@3W4SURFACE_TYPES@@A
  00647	50		 push	 eax
  00648	68 ff 00 00 00	 push	 255			; 000000ffH
  0064d	68 ff 00 00 00	 push	 255			; 000000ffH
  00652	68 ff 00 00 00	 push	 255			; 000000ffH
  00657	51		 push	 ecx
  00658	f3 0f 10 45 f8	 movss	 xmm0, DWORD PTR _sl$[ebp]
  0065d	f3 0f 11 04 24	 movss	 DWORD PTR [esp], xmm0
  00662	51		 push	 ecx
  00663	f3 0f 10 45 f8	 movss	 xmm0, DWORD PTR _sl$[ebp]
  00668	f3 0f 11 04 24	 movss	 DWORD PTR [esp], xmm0
  0066d	51		 push	 ecx
  0066e	f3 0f 10 45 f4	 movss	 xmm0, DWORD PTR _sld$[ebp]
  00673	f3 0f 11 04 24	 movss	 DWORD PTR [esp], xmm0
  00678	51		 push	 ecx
  00679	f3 0f 10 45 f4	 movss	 xmm0, DWORD PTR _sld$[ebp]
  0067e	f3 0f 11 04 24	 movss	 DWORD PTR [esp], xmm0
  00683	51		 push	 ecx
  00684	f3 0f 10 05 00
	00 00 00	 movss	 xmm0, DWORD PTR __real@42000000
  0068c	f3 0f 11 04 24	 movss	 DWORD PTR [esp], xmm0
  00691	8b 0d 00 00 00
	00		 mov	 ecx, DWORD PTR ?terrain_texture_field7_colour_pass@@3HA
  00697	51		 push	 ecx
  00698	8b 15 00 00 00
	00		 mov	 edx, DWORD PTR ?terrain_texture_field7_detail@@3HA
  0069e	52		 push	 edx
  0069f	6a 10		 push	 16			; 00000010H
  006a1	e8 00 00 00 00	 call	 ?set_terrain_type_textures@@YGXHHHMMMMMHHHW4SURFACE_TYPES@@@Z ; set_terrain_type_textures
$LN19@initialise:

; 976  :    	if (index == terrain_texture_field8_detail     ) set_terrain_type_textures ( TERRAIN_TYPE_FIELD8, terrain_texture_field8_detail, terrain_texture_field8_colour_pass, default_noise_detail, sld, sld, sl, sl, 255, 255, 255, terrain_surface_field8 );

  006a6	8b 45 e8	 mov	 eax, DWORD PTR _index$1[ebp]
  006a9	3b 05 00 00 00
	00		 cmp	 eax, DWORD PTR ?terrain_texture_field8_detail@@3HA
  006af	75 64		 jne	 SHORT $LN20@initialise
  006b1	a1 00 00 00 00	 mov	 eax, DWORD PTR ?terrain_surface_field8@@3W4SURFACE_TYPES@@A
  006b6	50		 push	 eax
  006b7	68 ff 00 00 00	 push	 255			; 000000ffH
  006bc	68 ff 00 00 00	 push	 255			; 000000ffH
  006c1	68 ff 00 00 00	 push	 255			; 000000ffH
  006c6	51		 push	 ecx
  006c7	f3 0f 10 45 f8	 movss	 xmm0, DWORD PTR _sl$[ebp]
  006cc	f3 0f 11 04 24	 movss	 DWORD PTR [esp], xmm0
  006d1	51		 push	 ecx
  006d2	f3 0f 10 45 f8	 movss	 xmm0, DWORD PTR _sl$[ebp]
  006d7	f3 0f 11 04 24	 movss	 DWORD PTR [esp], xmm0
  006dc	51		 push	 ecx
  006dd	f3 0f 10 45 f4	 movss	 xmm0, DWORD PTR _sld$[ebp]
  006e2	f3 0f 11 04 24	 movss	 DWORD PTR [esp], xmm0
  006e7	51		 push	 ecx
  006e8	f3 0f 10 45 f4	 movss	 xmm0, DWORD PTR _sld$[ebp]
  006ed	f3 0f 11 04 24	 movss	 DWORD PTR [esp], xmm0
  006f2	51		 push	 ecx
  006f3	f3 0f 10 05 00
	00 00 00	 movss	 xmm0, DWORD PTR __real@42000000
  006fb	f3 0f 11 04 24	 movss	 DWORD PTR [esp], xmm0
  00700	8b 0d 00 00 00
	00		 mov	 ecx, DWORD PTR ?terrain_texture_field8_colour_pass@@3HA
  00706	51		 push	 ecx
  00707	8b 15 00 00 00
	00		 mov	 edx, DWORD PTR ?terrain_texture_field8_detail@@3HA
  0070d	52		 push	 edx
  0070e	6a 11		 push	 17			; 00000011H
  00710	e8 00 00 00 00	 call	 ?set_terrain_type_textures@@YGXHHHMMMMMHHHW4SURFACE_TYPES@@@Z ; set_terrain_type_textures
$LN20@initialise:

; 977  :    	if (index == terrain_texture_field9_detail     ) set_terrain_type_textures ( TERRAIN_TYPE_FIELD9, terrain_texture_field9_detail, terrain_texture_field9_colour_pass, default_noise_detail, sld, sld, sl, sl, 255, 255, 255, terrain_surface_field9 );

  00715	8b 45 e8	 mov	 eax, DWORD PTR _index$1[ebp]
  00718	3b 05 00 00 00
	00		 cmp	 eax, DWORD PTR ?terrain_texture_field9_detail@@3HA
  0071e	75 64		 jne	 SHORT $LN21@initialise
  00720	a1 00 00 00 00	 mov	 eax, DWORD PTR ?terrain_surface_field9@@3W4SURFACE_TYPES@@A
  00725	50		 push	 eax
  00726	68 ff 00 00 00	 push	 255			; 000000ffH
  0072b	68 ff 00 00 00	 push	 255			; 000000ffH
  00730	68 ff 00 00 00	 push	 255			; 000000ffH
  00735	51		 push	 ecx
  00736	f3 0f 10 45 f8	 movss	 xmm0, DWORD PTR _sl$[ebp]
  0073b	f3 0f 11 04 24	 movss	 DWORD PTR [esp], xmm0
  00740	51		 push	 ecx
  00741	f3 0f 10 45 f8	 movss	 xmm0, DWORD PTR _sl$[ebp]
  00746	f3 0f 11 04 24	 movss	 DWORD PTR [esp], xmm0
  0074b	51		 push	 ecx
  0074c	f3 0f 10 45 f4	 movss	 xmm0, DWORD PTR _sld$[ebp]
  00751	f3 0f 11 04 24	 movss	 DWORD PTR [esp], xmm0
  00756	51		 push	 ecx
  00757	f3 0f 10 45 f4	 movss	 xmm0, DWORD PTR _sld$[ebp]
  0075c	f3 0f 11 04 24	 movss	 DWORD PTR [esp], xmm0
  00761	51		 push	 ecx
  00762	f3 0f 10 05 00
	00 00 00	 movss	 xmm0, DWORD PTR __real@42000000
  0076a	f3 0f 11 04 24	 movss	 DWORD PTR [esp], xmm0
  0076f	8b 0d 00 00 00
	00		 mov	 ecx, DWORD PTR ?terrain_texture_field9_colour_pass@@3HA
  00775	51		 push	 ecx
  00776	8b 15 00 00 00
	00		 mov	 edx, DWORD PTR ?terrain_texture_field9_detail@@3HA
  0077c	52		 push	 edx
  0077d	6a 12		 push	 18			; 00000012H
  0077f	e8 00 00 00 00	 call	 ?set_terrain_type_textures@@YGXHHHMMMMMHHHW4SURFACE_TYPES@@@Z ; set_terrain_type_textures
$LN21@initialise:

; 978  :    	if (index == terrain_texture_field10_detail    ) set_terrain_type_textures ( TERRAIN_TYPE_FIELD10, terrain_texture_field10_detail, terrain_texture_field10_colour_pass, default_noise_detail, sld, sld, sl, sl, 255, 255, 255, terrain_surface_field10 );

  00784	8b 45 e8	 mov	 eax, DWORD PTR _index$1[ebp]
  00787	3b 05 00 00 00
	00		 cmp	 eax, DWORD PTR ?terrain_texture_field10_detail@@3HA
  0078d	75 64		 jne	 SHORT $LN22@initialise
  0078f	a1 00 00 00 00	 mov	 eax, DWORD PTR ?terrain_surface_field10@@3W4SURFACE_TYPES@@A
  00794	50		 push	 eax
  00795	68 ff 00 00 00	 push	 255			; 000000ffH
  0079a	68 ff 00 00 00	 push	 255			; 000000ffH
  0079f	68 ff 00 00 00	 push	 255			; 000000ffH
  007a4	51		 push	 ecx
  007a5	f3 0f 10 45 f8	 movss	 xmm0, DWORD PTR _sl$[ebp]
  007aa	f3 0f 11 04 24	 movss	 DWORD PTR [esp], xmm0
  007af	51		 push	 ecx
  007b0	f3 0f 10 45 f8	 movss	 xmm0, DWORD PTR _sl$[ebp]
  007b5	f3 0f 11 04 24	 movss	 DWORD PTR [esp], xmm0
  007ba	51		 push	 ecx
  007bb	f3 0f 10 45 f4	 movss	 xmm0, DWORD PTR _sld$[ebp]
  007c0	f3 0f 11 04 24	 movss	 DWORD PTR [esp], xmm0
  007c5	51		 push	 ecx
  007c6	f3 0f 10 45 f4	 movss	 xmm0, DWORD PTR _sld$[ebp]
  007cb	f3 0f 11 04 24	 movss	 DWORD PTR [esp], xmm0
  007d0	51		 push	 ecx
  007d1	f3 0f 10 05 00
	00 00 00	 movss	 xmm0, DWORD PTR __real@42000000
  007d9	f3 0f 11 04 24	 movss	 DWORD PTR [esp], xmm0
  007de	8b 0d 00 00 00
	00		 mov	 ecx, DWORD PTR ?terrain_texture_field10_colour_pass@@3HA
  007e4	51		 push	 ecx
  007e5	8b 15 00 00 00
	00		 mov	 edx, DWORD PTR ?terrain_texture_field10_detail@@3HA
  007eb	52		 push	 edx
  007ec	6a 13		 push	 19			; 00000013H
  007ee	e8 00 00 00 00	 call	 ?set_terrain_type_textures@@YGXHHHMMMMMHHHW4SURFACE_TYPES@@@Z ; set_terrain_type_textures
$LN22@initialise:

; 979  :    	if (index == terrain_texture_field11_detail    ) set_terrain_type_textures ( TERRAIN_TYPE_FIELD11, terrain_texture_field11_detail, terrain_texture_field11_colour_pass, default_noise_detail, sld, sld, sl, sl, 255, 255, 255, terrain_surface_field11 );

  007f3	8b 45 e8	 mov	 eax, DWORD PTR _index$1[ebp]
  007f6	3b 05 00 00 00
	00		 cmp	 eax, DWORD PTR ?terrain_texture_field11_detail@@3HA
  007fc	75 64		 jne	 SHORT $LN23@initialise
  007fe	a1 00 00 00 00	 mov	 eax, DWORD PTR ?terrain_surface_field11@@3W4SURFACE_TYPES@@A
  00803	50		 push	 eax
  00804	68 ff 00 00 00	 push	 255			; 000000ffH
  00809	68 ff 00 00 00	 push	 255			; 000000ffH
  0080e	68 ff 00 00 00	 push	 255			; 000000ffH
  00813	51		 push	 ecx
  00814	f3 0f 10 45 f8	 movss	 xmm0, DWORD PTR _sl$[ebp]
  00819	f3 0f 11 04 24	 movss	 DWORD PTR [esp], xmm0
  0081e	51		 push	 ecx
  0081f	f3 0f 10 45 f8	 movss	 xmm0, DWORD PTR _sl$[ebp]
  00824	f3 0f 11 04 24	 movss	 DWORD PTR [esp], xmm0
  00829	51		 push	 ecx
  0082a	f3 0f 10 45 f4	 movss	 xmm0, DWORD PTR _sld$[ebp]
  0082f	f3 0f 11 04 24	 movss	 DWORD PTR [esp], xmm0
  00834	51		 push	 ecx
  00835	f3 0f 10 45 f4	 movss	 xmm0, DWORD PTR _sld$[ebp]
  0083a	f3 0f 11 04 24	 movss	 DWORD PTR [esp], xmm0
  0083f	51		 push	 ecx
  00840	f3 0f 10 05 00
	00 00 00	 movss	 xmm0, DWORD PTR __real@42000000
  00848	f3 0f 11 04 24	 movss	 DWORD PTR [esp], xmm0
  0084d	8b 0d 00 00 00
	00		 mov	 ecx, DWORD PTR ?terrain_texture_field11_colour_pass@@3HA
  00853	51		 push	 ecx
  00854	8b 15 00 00 00
	00		 mov	 edx, DWORD PTR ?terrain_texture_field11_detail@@3HA
  0085a	52		 push	 edx
  0085b	6a 14		 push	 20			; 00000014H
  0085d	e8 00 00 00 00	 call	 ?set_terrain_type_textures@@YGXHHHMMMMMHHHW4SURFACE_TYPES@@@Z ; set_terrain_type_textures
$LN23@initialise:

; 980  : 
; 981  : 		if (index == terrain_texture_sea_detail    ) set_terrain_type_textures ( TERRAIN_TYPE_SEA, terrain_texture_sea_detail, terrain_texture_sea_colour_pass, 1.0, sld, sld, sl, sl, 255, 255, 255, terrain_surface_sea );

  00862	8b 45 e8	 mov	 eax, DWORD PTR _index$1[ebp]
  00865	3b 05 00 00 00
	00		 cmp	 eax, DWORD PTR ?terrain_texture_sea_detail@@3HA
  0086b	75 64		 jne	 SHORT $LN24@initialise
  0086d	a1 00 00 00 00	 mov	 eax, DWORD PTR ?terrain_surface_sea@@3W4SURFACE_TYPES@@A
  00872	50		 push	 eax
  00873	68 ff 00 00 00	 push	 255			; 000000ffH
  00878	68 ff 00 00 00	 push	 255			; 000000ffH
  0087d	68 ff 00 00 00	 push	 255			; 000000ffH
  00882	51		 push	 ecx
  00883	f3 0f 10 45 f8	 movss	 xmm0, DWORD PTR _sl$[ebp]
  00888	f3 0f 11 04 24	 movss	 DWORD PTR [esp], xmm0
  0088d	51		 push	 ecx
  0088e	f3 0f 10 45 f8	 movss	 xmm0, DWORD PTR _sl$[ebp]
  00893	f3 0f 11 04 24	 movss	 DWORD PTR [esp], xmm0
  00898	51		 push	 ecx
  00899	f3 0f 10 45 f4	 movss	 xmm0, DWORD PTR _sld$[ebp]
  0089e	f3 0f 11 04 24	 movss	 DWORD PTR [esp], xmm0
  008a3	51		 push	 ecx
  008a4	f3 0f 10 45 f4	 movss	 xmm0, DWORD PTR _sld$[ebp]
  008a9	f3 0f 11 04 24	 movss	 DWORD PTR [esp], xmm0
  008ae	51		 push	 ecx
  008af	f3 0f 10 05 00
	00 00 00	 movss	 xmm0, DWORD PTR __real@3f800000
  008b7	f3 0f 11 04 24	 movss	 DWORD PTR [esp], xmm0
  008bc	8b 0d 00 00 00
	00		 mov	 ecx, DWORD PTR ?terrain_texture_sea_colour_pass@@3HA
  008c2	51		 push	 ecx
  008c3	8b 15 00 00 00
	00		 mov	 edx, DWORD PTR ?terrain_texture_sea_detail@@3HA
  008c9	52		 push	 edx
  008ca	6a 07		 push	 7
  008cc	e8 00 00 00 00	 call	 ?set_terrain_type_textures@@YGXHHHMMMMMHHHW4SURFACE_TYPES@@@Z ; set_terrain_type_textures
$LN24@initialise:

; 982  : 		if (index == terrain_texture_river_detail    ) set_terrain_type_textures ( TERRAIN_TYPE_RIVER, terrain_texture_river_detail, terrain_texture_river_colour_pass, 1.0, sld, sld, sl, sl, 255, 255, 255, terrain_surface_river );

  008d1	8b 45 e8	 mov	 eax, DWORD PTR _index$1[ebp]
  008d4	3b 05 00 00 00
	00		 cmp	 eax, DWORD PTR ?terrain_texture_river_detail@@3HA
  008da	75 64		 jne	 SHORT $LN25@initialise
  008dc	a1 00 00 00 00	 mov	 eax, DWORD PTR ?terrain_surface_river@@3W4SURFACE_TYPES@@A
  008e1	50		 push	 eax
  008e2	68 ff 00 00 00	 push	 255			; 000000ffH
  008e7	68 ff 00 00 00	 push	 255			; 000000ffH
  008ec	68 ff 00 00 00	 push	 255			; 000000ffH
  008f1	51		 push	 ecx
  008f2	f3 0f 10 45 f8	 movss	 xmm0, DWORD PTR _sl$[ebp]
  008f7	f3 0f 11 04 24	 movss	 DWORD PTR [esp], xmm0
  008fc	51		 push	 ecx
  008fd	f3 0f 10 45 f8	 movss	 xmm0, DWORD PTR _sl$[ebp]
  00902	f3 0f 11 04 24	 movss	 DWORD PTR [esp], xmm0
  00907	51		 push	 ecx
  00908	f3 0f 10 45 f4	 movss	 xmm0, DWORD PTR _sld$[ebp]
  0090d	f3 0f 11 04 24	 movss	 DWORD PTR [esp], xmm0
  00912	51		 push	 ecx
  00913	f3 0f 10 45 f4	 movss	 xmm0, DWORD PTR _sld$[ebp]
  00918	f3 0f 11 04 24	 movss	 DWORD PTR [esp], xmm0
  0091d	51		 push	 ecx
  0091e	f3 0f 10 05 00
	00 00 00	 movss	 xmm0, DWORD PTR __real@3f800000
  00926	f3 0f 11 04 24	 movss	 DWORD PTR [esp], xmm0
  0092b	8b 0d 00 00 00
	00		 mov	 ecx, DWORD PTR ?terrain_texture_river_colour_pass@@3HA
  00931	51		 push	 ecx
  00932	8b 15 00 00 00
	00		 mov	 edx, DWORD PTR ?terrain_texture_river_detail@@3HA
  00938	52		 push	 edx
  00939	6a 01		 push	 1
  0093b	e8 00 00 00 00	 call	 ?set_terrain_type_textures@@YGXHHHMMMMMHHHW4SURFACE_TYPES@@@Z ; set_terrain_type_textures
$LN25@initialise:

; 983  :    	if (index == terrain_texture_reservoir_detail  ) set_terrain_type_textures ( TERRAIN_TYPE_RESERVOIR, terrain_texture_reservoir_detail, terrain_texture_reservoir_colour_pass, 1.0, sld, sld, sl, sl, 255, 255, 255, terrain_surface_reservoir );

  00940	8b 45 e8	 mov	 eax, DWORD PTR _index$1[ebp]
  00943	3b 05 00 00 00
	00		 cmp	 eax, DWORD PTR ?terrain_texture_reservoir_detail@@3HA
  00949	75 64		 jne	 SHORT $LN26@initialise
  0094b	a1 00 00 00 00	 mov	 eax, DWORD PTR ?terrain_surface_reservoir@@3W4SURFACE_TYPES@@A
  00950	50		 push	 eax
  00951	68 ff 00 00 00	 push	 255			; 000000ffH
  00956	68 ff 00 00 00	 push	 255			; 000000ffH
  0095b	68 ff 00 00 00	 push	 255			; 000000ffH
  00960	51		 push	 ecx
  00961	f3 0f 10 45 f8	 movss	 xmm0, DWORD PTR _sl$[ebp]
  00966	f3 0f 11 04 24	 movss	 DWORD PTR [esp], xmm0
  0096b	51		 push	 ecx
  0096c	f3 0f 10 45 f8	 movss	 xmm0, DWORD PTR _sl$[ebp]
  00971	f3 0f 11 04 24	 movss	 DWORD PTR [esp], xmm0
  00976	51		 push	 ecx
  00977	f3 0f 10 45 f4	 movss	 xmm0, DWORD PTR _sld$[ebp]
  0097c	f3 0f 11 04 24	 movss	 DWORD PTR [esp], xmm0
  00981	51		 push	 ecx
  00982	f3 0f 10 45 f4	 movss	 xmm0, DWORD PTR _sld$[ebp]
  00987	f3 0f 11 04 24	 movss	 DWORD PTR [esp], xmm0
  0098c	51		 push	 ecx
  0098d	f3 0f 10 05 00
	00 00 00	 movss	 xmm0, DWORD PTR __real@3f800000
  00995	f3 0f 11 04 24	 movss	 DWORD PTR [esp], xmm0
  0099a	8b 0d 00 00 00
	00		 mov	 ecx, DWORD PTR ?terrain_texture_reservoir_colour_pass@@3HA
  009a0	51		 push	 ecx
  009a1	8b 15 00 00 00
	00		 mov	 edx, DWORD PTR ?terrain_texture_reservoir_detail@@3HA
  009a7	52		 push	 edx
  009a8	6a 02		 push	 2
  009aa	e8 00 00 00 00	 call	 ?set_terrain_type_textures@@YGXHHHMMMMMHHHW4SURFACE_TYPES@@@Z ; set_terrain_type_textures
$LN26@initialise:

; 984  : 
; 985  : 
; 986  :    	if (index == terrain_texture_road_detail   ) set_terrain_type_textures ( TERRAIN_TYPE_ROAD, terrain_texture_road_detail, terrain_texture_road_colour_pass, 2.0, sld, sld, sl, sl,  255, 255, 255, terrain_surface_road );

  009af	8b 45 e8	 mov	 eax, DWORD PTR _index$1[ebp]
  009b2	3b 05 00 00 00
	00		 cmp	 eax, DWORD PTR ?terrain_texture_road_detail@@3HA
  009b8	75 64		 jne	 SHORT $LN27@initialise
  009ba	a1 00 00 00 00	 mov	 eax, DWORD PTR ?terrain_surface_road@@3W4SURFACE_TYPES@@A
  009bf	50		 push	 eax
  009c0	68 ff 00 00 00	 push	 255			; 000000ffH
  009c5	68 ff 00 00 00	 push	 255			; 000000ffH
  009ca	68 ff 00 00 00	 push	 255			; 000000ffH
  009cf	51		 push	 ecx
  009d0	f3 0f 10 45 f8	 movss	 xmm0, DWORD PTR _sl$[ebp]
  009d5	f3 0f 11 04 24	 movss	 DWORD PTR [esp], xmm0
  009da	51		 push	 ecx
  009db	f3 0f 10 45 f8	 movss	 xmm0, DWORD PTR _sl$[ebp]
  009e0	f3 0f 11 04 24	 movss	 DWORD PTR [esp], xmm0
  009e5	51		 push	 ecx
  009e6	f3 0f 10 45 f4	 movss	 xmm0, DWORD PTR _sld$[ebp]
  009eb	f3 0f 11 04 24	 movss	 DWORD PTR [esp], xmm0
  009f0	51		 push	 ecx
  009f1	f3 0f 10 45 f4	 movss	 xmm0, DWORD PTR _sld$[ebp]
  009f6	f3 0f 11 04 24	 movss	 DWORD PTR [esp], xmm0
  009fb	51		 push	 ecx
  009fc	f3 0f 10 05 00
	00 00 00	 movss	 xmm0, DWORD PTR __real@40000000
  00a04	f3 0f 11 04 24	 movss	 DWORD PTR [esp], xmm0
  00a09	8b 0d 00 00 00
	00		 mov	 ecx, DWORD PTR ?terrain_texture_road_colour_pass@@3HA
  00a0f	51		 push	 ecx
  00a10	8b 15 00 00 00
	00		 mov	 edx, DWORD PTR ?terrain_texture_road_detail@@3HA
  00a16	52		 push	 edx
  00a17	6a 29		 push	 41			; 00000029H
  00a19	e8 00 00 00 00	 call	 ?set_terrain_type_textures@@YGXHHHMMMMMHHHW4SURFACE_TYPES@@@Z ; set_terrain_type_textures
$LN27@initialise:

; 987  :    	if (index == terrain_texture_track_detail  ) set_terrain_type_textures ( TERRAIN_TYPE_TRACK, terrain_texture_track_detail, terrain_texture_track_colour_pass, 2.0, sld, sld, sl, sl, 255, 255, 255, terrain_surface_track );

  00a1e	8b 45 e8	 mov	 eax, DWORD PTR _index$1[ebp]
  00a21	3b 05 00 00 00
	00		 cmp	 eax, DWORD PTR ?terrain_texture_track_detail@@3HA
  00a27	75 64		 jne	 SHORT $LN28@initialise
  00a29	a1 00 00 00 00	 mov	 eax, DWORD PTR ?terrain_surface_track@@3W4SURFACE_TYPES@@A
  00a2e	50		 push	 eax
  00a2f	68 ff 00 00 00	 push	 255			; 000000ffH
  00a34	68 ff 00 00 00	 push	 255			; 000000ffH
  00a39	68 ff 00 00 00	 push	 255			; 000000ffH
  00a3e	51		 push	 ecx
  00a3f	f3 0f 10 45 f8	 movss	 xmm0, DWORD PTR _sl$[ebp]
  00a44	f3 0f 11 04 24	 movss	 DWORD PTR [esp], xmm0
  00a49	51		 push	 ecx
  00a4a	f3 0f 10 45 f8	 movss	 xmm0, DWORD PTR _sl$[ebp]
  00a4f	f3 0f 11 04 24	 movss	 DWORD PTR [esp], xmm0
  00a54	51		 push	 ecx
  00a55	f3 0f 10 45 f4	 movss	 xmm0, DWORD PTR _sld$[ebp]
  00a5a	f3 0f 11 04 24	 movss	 DWORD PTR [esp], xmm0
  00a5f	51		 push	 ecx
  00a60	f3 0f 10 45 f4	 movss	 xmm0, DWORD PTR _sld$[ebp]
  00a65	f3 0f 11 04 24	 movss	 DWORD PTR [esp], xmm0
  00a6a	51		 push	 ecx
  00a6b	f3 0f 10 05 00
	00 00 00	 movss	 xmm0, DWORD PTR __real@40000000
  00a73	f3 0f 11 04 24	 movss	 DWORD PTR [esp], xmm0
  00a78	8b 0d 00 00 00
	00		 mov	 ecx, DWORD PTR ?terrain_texture_track_colour_pass@@3HA
  00a7e	51		 push	 ecx
  00a7f	8b 15 00 00 00
	00		 mov	 edx, DWORD PTR ?terrain_texture_track_detail@@3HA
  00a85	52		 push	 edx
  00a86	6a 2a		 push	 42			; 0000002aH
  00a88	e8 00 00 00 00	 call	 ?set_terrain_type_textures@@YGXHHHMMMMMHHHW4SURFACE_TYPES@@@Z ; set_terrain_type_textures
$LN28@initialise:

; 988  :    	if (index == terrain_texture_rail_detail       ) set_terrain_type_textures ( TERRAIN_TYPE_RAIL, terrain_texture_rail_detail, terrain_texture_rail_colour_pass, 2.0, sl, sl, 0, 0, 38, 38, 38, terrain_surface_rail );

  00a8d	8b 45 e8	 mov	 eax, DWORD PTR _index$1[ebp]
  00a90	3b 05 00 00 00
	00		 cmp	 eax, DWORD PTR ?terrain_texture_rail_detail@@3HA
  00a96	75 57		 jne	 SHORT $LN29@initialise
  00a98	a1 00 00 00 00	 mov	 eax, DWORD PTR ?terrain_surface_rail@@3W4SURFACE_TYPES@@A
  00a9d	50		 push	 eax
  00a9e	6a 26		 push	 38			; 00000026H
  00aa0	6a 26		 push	 38			; 00000026H
  00aa2	6a 26		 push	 38			; 00000026H
  00aa4	51		 push	 ecx
  00aa5	0f 57 c0	 xorps	 xmm0, xmm0
  00aa8	f3 0f 11 04 24	 movss	 DWORD PTR [esp], xmm0
  00aad	51		 push	 ecx
  00aae	0f 57 c0	 xorps	 xmm0, xmm0
  00ab1	f3 0f 11 04 24	 movss	 DWORD PTR [esp], xmm0
  00ab6	51		 push	 ecx
  00ab7	f3 0f 10 45 f8	 movss	 xmm0, DWORD PTR _sl$[ebp]
  00abc	f3 0f 11 04 24	 movss	 DWORD PTR [esp], xmm0
  00ac1	51		 push	 ecx
  00ac2	f3 0f 10 45 f8	 movss	 xmm0, DWORD PTR _sl$[ebp]
  00ac7	f3 0f 11 04 24	 movss	 DWORD PTR [esp], xmm0
  00acc	51		 push	 ecx
  00acd	f3 0f 10 05 00
	00 00 00	 movss	 xmm0, DWORD PTR __real@40000000
  00ad5	f3 0f 11 04 24	 movss	 DWORD PTR [esp], xmm0
  00ada	8b 0d 00 00 00
	00		 mov	 ecx, DWORD PTR ?terrain_texture_rail_colour_pass@@3HA
  00ae0	51		 push	 ecx
  00ae1	8b 15 00 00 00
	00		 mov	 edx, DWORD PTR ?terrain_texture_rail_detail@@3HA
  00ae7	52		 push	 edx
  00ae8	6a 2b		 push	 43			; 0000002bH
  00aea	e8 00 00 00 00	 call	 ?set_terrain_type_textures@@YGXHHHMMMMMHHHW4SURFACE_TYPES@@@Z ; set_terrain_type_textures
$LN29@initialise:

; 989  :    	if (index == terrain_texture_road_bank_detail  ) set_terrain_type_textures ( TERRAIN_TYPE_ROAD_BANK, terrain_texture_road_bank_detail, terrain_texture_road_bank_colour_pass, 2.0, sld, sld, sl, sl, 255, 255, 255, terrain_surface_road_bank );

  00aef	8b 45 e8	 mov	 eax, DWORD PTR _index$1[ebp]
  00af2	3b 05 00 00 00
	00		 cmp	 eax, DWORD PTR ?terrain_texture_road_bank_detail@@3HA
  00af8	75 64		 jne	 SHORT $LN30@initialise
  00afa	a1 00 00 00 00	 mov	 eax, DWORD PTR ?terrain_surface_road_bank@@3W4SURFACE_TYPES@@A
  00aff	50		 push	 eax
  00b00	68 ff 00 00 00	 push	 255			; 000000ffH
  00b05	68 ff 00 00 00	 push	 255			; 000000ffH
  00b0a	68 ff 00 00 00	 push	 255			; 000000ffH
  00b0f	51		 push	 ecx
  00b10	f3 0f 10 45 f8	 movss	 xmm0, DWORD PTR _sl$[ebp]
  00b15	f3 0f 11 04 24	 movss	 DWORD PTR [esp], xmm0
  00b1a	51		 push	 ecx
  00b1b	f3 0f 10 45 f8	 movss	 xmm0, DWORD PTR _sl$[ebp]
  00b20	f3 0f 11 04 24	 movss	 DWORD PTR [esp], xmm0
  00b25	51		 push	 ecx
  00b26	f3 0f 10 45 f4	 movss	 xmm0, DWORD PTR _sld$[ebp]
  00b2b	f3 0f 11 04 24	 movss	 DWORD PTR [esp], xmm0
  00b30	51		 push	 ecx
  00b31	f3 0f 10 45 f4	 movss	 xmm0, DWORD PTR _sld$[ebp]
  00b36	f3 0f 11 04 24	 movss	 DWORD PTR [esp], xmm0
  00b3b	51		 push	 ecx
  00b3c	f3 0f 10 05 00
	00 00 00	 movss	 xmm0, DWORD PTR __real@40000000
  00b44	f3 0f 11 04 24	 movss	 DWORD PTR [esp], xmm0
  00b49	8b 0d 00 00 00
	00		 mov	 ecx, DWORD PTR ?terrain_texture_road_bank_colour_pass@@3HA
  00b4f	51		 push	 ecx
  00b50	8b 15 00 00 00
	00		 mov	 edx, DWORD PTR ?terrain_texture_road_bank_detail@@3HA
  00b56	52		 push	 edx
  00b57	6a 19		 push	 25			; 00000019H
  00b59	e8 00 00 00 00	 call	 ?set_terrain_type_textures@@YGXHHHMMMMMHHHW4SURFACE_TYPES@@@Z ; set_terrain_type_textures
$LN30@initialise:

; 990  : 
; 991  : 		if ( ( active_3d_environment ) && ( active_3d_environment->render_filter == RENDER_INFRARED ) )

  00b5e	83 3d 00 00 00
	00 00		 cmp	 DWORD PTR ?active_3d_environment@@3PAUENV_3D@@A, 0 ; active_3d_environment
  00b65	0f 84 d3 01 00
	00		 je	 $LN31@initialise
  00b6b	a1 00 00 00 00	 mov	 eax, DWORD PTR ?active_3d_environment@@3PAUENV_3D@@A ; active_3d_environment
  00b70	83 b8 d0 02 00
	00 02		 cmp	 DWORD PTR [eax+720], 2
  00b77	0f 85 c1 01 00
	00		 jne	 $LN31@initialise

; 992  : 		{
; 993  : 			if (index == terrain_texture_builtup_area1_infrared_detail  ) set_terrain_type_textures ( TERRAIN_TYPE_BUILT_UP_AREA1, terrain_texture_builtup_area1_infrared_detail, terrain_texture_builtup_area1_infrared_colour_pass, 1.0, sld, sld, sl, sl, 255, 255, 255, terrain_surface_builtup_area1_infrared );

  00b7d	8b 45 e8	 mov	 eax, DWORD PTR _index$1[ebp]
  00b80	3b 05 00 00 00
	00		 cmp	 eax, DWORD PTR ?terrain_texture_builtup_area1_infrared_detail@@3HA
  00b86	75 64		 jne	 SHORT $LN33@initialise
  00b88	a1 00 00 00 00	 mov	 eax, DWORD PTR ?terrain_surface_builtup_area1_infrared@@3W4SURFACE_TYPES@@A
  00b8d	50		 push	 eax
  00b8e	68 ff 00 00 00	 push	 255			; 000000ffH
  00b93	68 ff 00 00 00	 push	 255			; 000000ffH
  00b98	68 ff 00 00 00	 push	 255			; 000000ffH
  00b9d	51		 push	 ecx
  00b9e	f3 0f 10 45 f8	 movss	 xmm0, DWORD PTR _sl$[ebp]
  00ba3	f3 0f 11 04 24	 movss	 DWORD PTR [esp], xmm0
  00ba8	51		 push	 ecx
  00ba9	f3 0f 10 45 f8	 movss	 xmm0, DWORD PTR _sl$[ebp]
  00bae	f3 0f 11 04 24	 movss	 DWORD PTR [esp], xmm0
  00bb3	51		 push	 ecx
  00bb4	f3 0f 10 45 f4	 movss	 xmm0, DWORD PTR _sld$[ebp]
  00bb9	f3 0f 11 04 24	 movss	 DWORD PTR [esp], xmm0
  00bbe	51		 push	 ecx
  00bbf	f3 0f 10 45 f4	 movss	 xmm0, DWORD PTR _sld$[ebp]
  00bc4	f3 0f 11 04 24	 movss	 DWORD PTR [esp], xmm0
  00bc9	51		 push	 ecx
  00bca	f3 0f 10 05 00
	00 00 00	 movss	 xmm0, DWORD PTR __real@3f800000
  00bd2	f3 0f 11 04 24	 movss	 DWORD PTR [esp], xmm0
  00bd7	8b 0d 00 00 00
	00		 mov	 ecx, DWORD PTR ?terrain_texture_builtup_area1_infrared_colour_pass@@3HA
  00bdd	51		 push	 ecx
  00bde	8b 15 00 00 00
	00		 mov	 edx, DWORD PTR ?terrain_texture_builtup_area1_infrared_detail@@3HA
  00be4	52		 push	 edx
  00be5	6a 25		 push	 37			; 00000025H
  00be7	e8 00 00 00 00	 call	 ?set_terrain_type_textures@@YGXHHHMMMMMHHHW4SURFACE_TYPES@@@Z ; set_terrain_type_textures
$LN33@initialise:

; 994  : 			if (index == terrain_texture_builtup_area2_infrared_detail  ) set_terrain_type_textures ( TERRAIN_TYPE_BUILT_UP_AREA2, terrain_texture_builtup_area2_infrared_detail, terrain_texture_builtup_area2_infrared_colour_pass, 1.0, sld, sld, sl, sl, 255, 255, 255, terrain_surface_builtup_area2_infrared );

  00bec	8b 45 e8	 mov	 eax, DWORD PTR _index$1[ebp]
  00bef	3b 05 00 00 00
	00		 cmp	 eax, DWORD PTR ?terrain_texture_builtup_area2_infrared_detail@@3HA
  00bf5	75 64		 jne	 SHORT $LN34@initialise
  00bf7	a1 00 00 00 00	 mov	 eax, DWORD PTR ?terrain_surface_builtup_area2_infrared@@3W4SURFACE_TYPES@@A
  00bfc	50		 push	 eax
  00bfd	68 ff 00 00 00	 push	 255			; 000000ffH
  00c02	68 ff 00 00 00	 push	 255			; 000000ffH
  00c07	68 ff 00 00 00	 push	 255			; 000000ffH
  00c0c	51		 push	 ecx
  00c0d	f3 0f 10 45 f8	 movss	 xmm0, DWORD PTR _sl$[ebp]
  00c12	f3 0f 11 04 24	 movss	 DWORD PTR [esp], xmm0
  00c17	51		 push	 ecx
  00c18	f3 0f 10 45 f8	 movss	 xmm0, DWORD PTR _sl$[ebp]
  00c1d	f3 0f 11 04 24	 movss	 DWORD PTR [esp], xmm0
  00c22	51		 push	 ecx
  00c23	f3 0f 10 45 f4	 movss	 xmm0, DWORD PTR _sld$[ebp]
  00c28	f3 0f 11 04 24	 movss	 DWORD PTR [esp], xmm0
  00c2d	51		 push	 ecx
  00c2e	f3 0f 10 45 f4	 movss	 xmm0, DWORD PTR _sld$[ebp]
  00c33	f3 0f 11 04 24	 movss	 DWORD PTR [esp], xmm0
  00c38	51		 push	 ecx
  00c39	f3 0f 10 05 00
	00 00 00	 movss	 xmm0, DWORD PTR __real@3f800000
  00c41	f3 0f 11 04 24	 movss	 DWORD PTR [esp], xmm0
  00c46	8b 0d 00 00 00
	00		 mov	 ecx, DWORD PTR ?terrain_texture_builtup_area2_infrared_colour_pass@@3HA
  00c4c	51		 push	 ecx
  00c4d	8b 15 00 00 00
	00		 mov	 edx, DWORD PTR ?terrain_texture_builtup_area2_infrared_detail@@3HA
  00c53	52		 push	 edx
  00c54	6a 26		 push	 38			; 00000026H
  00c56	e8 00 00 00 00	 call	 ?set_terrain_type_textures@@YGXHHHMMMMMHHHW4SURFACE_TYPES@@@Z ; set_terrain_type_textures
$LN34@initialise:

; 995  : 			if (index == terrain_texture_builtup_area3_infrared_detail  ) set_terrain_type_textures ( TERRAIN_TYPE_BUILT_UP_AREA3, terrain_texture_builtup_area3_infrared_detail, terrain_texture_builtup_area3_infrared_colour_pass, 1.0, sld, sld, sl, sl, 255, 255, 255, terrain_surface_builtup_area3_infrared );

  00c5b	8b 45 e8	 mov	 eax, DWORD PTR _index$1[ebp]
  00c5e	3b 05 00 00 00
	00		 cmp	 eax, DWORD PTR ?terrain_texture_builtup_area3_infrared_detail@@3HA
  00c64	75 64		 jne	 SHORT $LN35@initialise
  00c66	a1 00 00 00 00	 mov	 eax, DWORD PTR ?terrain_surface_builtup_area3_infrared@@3W4SURFACE_TYPES@@A
  00c6b	50		 push	 eax
  00c6c	68 ff 00 00 00	 push	 255			; 000000ffH
  00c71	68 ff 00 00 00	 push	 255			; 000000ffH
  00c76	68 ff 00 00 00	 push	 255			; 000000ffH
  00c7b	51		 push	 ecx
  00c7c	f3 0f 10 45 f8	 movss	 xmm0, DWORD PTR _sl$[ebp]
  00c81	f3 0f 11 04 24	 movss	 DWORD PTR [esp], xmm0
  00c86	51		 push	 ecx
  00c87	f3 0f 10 45 f8	 movss	 xmm0, DWORD PTR _sl$[ebp]
  00c8c	f3 0f 11 04 24	 movss	 DWORD PTR [esp], xmm0
  00c91	51		 push	 ecx
  00c92	f3 0f 10 45 f4	 movss	 xmm0, DWORD PTR _sld$[ebp]
  00c97	f3 0f 11 04 24	 movss	 DWORD PTR [esp], xmm0
  00c9c	51		 push	 ecx
  00c9d	f3 0f 10 45 f4	 movss	 xmm0, DWORD PTR _sld$[ebp]
  00ca2	f3 0f 11 04 24	 movss	 DWORD PTR [esp], xmm0
  00ca7	51		 push	 ecx
  00ca8	f3 0f 10 05 00
	00 00 00	 movss	 xmm0, DWORD PTR __real@3f800000
  00cb0	f3 0f 11 04 24	 movss	 DWORD PTR [esp], xmm0
  00cb5	8b 0d 00 00 00
	00		 mov	 ecx, DWORD PTR ?terrain_texture_builtup_area3_infrared_colour_pass@@3HA
  00cbb	51		 push	 ecx
  00cbc	8b 15 00 00 00
	00		 mov	 edx, DWORD PTR ?terrain_texture_builtup_area3_infrared_detail@@3HA
  00cc2	52		 push	 edx
  00cc3	6a 27		 push	 39			; 00000027H
  00cc5	e8 00 00 00 00	 call	 ?set_terrain_type_textures@@YGXHHHMMMMMHHHW4SURFACE_TYPES@@@Z ; set_terrain_type_textures
$LN35@initialise:

; 996  : 			if (index == terrain_texture_builtup_area4_infrared_detail  ) set_terrain_type_textures ( TERRAIN_TYPE_BUILT_UP_AREA4, terrain_texture_builtup_area4_infrared_detail, terrain_texture_builtup_area4_infrared_colour_pass, 1.0, sld, sld, sl, sl, 255, 255, 255, terrain_surface_builtup_area4_infrared );

  00cca	8b 45 e8	 mov	 eax, DWORD PTR _index$1[ebp]
  00ccd	3b 05 00 00 00
	00		 cmp	 eax, DWORD PTR ?terrain_texture_builtup_area4_infrared_detail@@3HA
  00cd3	75 64		 jne	 SHORT $LN36@initialise
  00cd5	a1 00 00 00 00	 mov	 eax, DWORD PTR ?terrain_surface_builtup_area4_infrared@@3W4SURFACE_TYPES@@A
  00cda	50		 push	 eax
  00cdb	68 ff 00 00 00	 push	 255			; 000000ffH
  00ce0	68 ff 00 00 00	 push	 255			; 000000ffH
  00ce5	68 ff 00 00 00	 push	 255			; 000000ffH
  00cea	51		 push	 ecx
  00ceb	f3 0f 10 45 f8	 movss	 xmm0, DWORD PTR _sl$[ebp]
  00cf0	f3 0f 11 04 24	 movss	 DWORD PTR [esp], xmm0
  00cf5	51		 push	 ecx
  00cf6	f3 0f 10 45 f8	 movss	 xmm0, DWORD PTR _sl$[ebp]
  00cfb	f3 0f 11 04 24	 movss	 DWORD PTR [esp], xmm0
  00d00	51		 push	 ecx
  00d01	f3 0f 10 45 f4	 movss	 xmm0, DWORD PTR _sld$[ebp]
  00d06	f3 0f 11 04 24	 movss	 DWORD PTR [esp], xmm0
  00d0b	51		 push	 ecx
  00d0c	f3 0f 10 45 f4	 movss	 xmm0, DWORD PTR _sld$[ebp]
  00d11	f3 0f 11 04 24	 movss	 DWORD PTR [esp], xmm0
  00d16	51		 push	 ecx
  00d17	f3 0f 10 05 00
	00 00 00	 movss	 xmm0, DWORD PTR __real@3f800000
  00d1f	f3 0f 11 04 24	 movss	 DWORD PTR [esp], xmm0
  00d24	8b 0d 00 00 00
	00		 mov	 ecx, DWORD PTR ?terrain_texture_builtup_area4_infrared_colour_pass@@3HA
  00d2a	51		 push	 ecx
  00d2b	8b 15 00 00 00
	00		 mov	 edx, DWORD PTR ?terrain_texture_builtup_area4_infrared_detail@@3HA
  00d31	52		 push	 edx
  00d32	6a 28		 push	 40			; 00000028H
  00d34	e8 00 00 00 00	 call	 ?set_terrain_type_textures@@YGXHHHMMMMMHHHW4SURFACE_TYPES@@@Z ; set_terrain_type_textures
$LN36@initialise:

; 997  : 		}
; 998  : 		else

  00d39	e9 bc 01 00 00	 jmp	 $LN40@initialise
$LN31@initialise:

; 999  : 		{
; 1000 : 			if (index == terrain_texture_builtup_area1_detail  ) set_terrain_type_textures ( TERRAIN_TYPE_BUILT_UP_AREA1, terrain_texture_builtup_area1_detail, terrain_texture_builtup_area1_colour_pass, default_noise_detail, sld, sld, sl, sl, 255, 255, 255, terrain_surface_builtup_area1 );

  00d3e	8b 45 e8	 mov	 eax, DWORD PTR _index$1[ebp]
  00d41	3b 05 00 00 00
	00		 cmp	 eax, DWORD PTR ?terrain_texture_builtup_area1_detail@@3HA
  00d47	75 64		 jne	 SHORT $LN37@initialise
  00d49	a1 00 00 00 00	 mov	 eax, DWORD PTR ?terrain_surface_builtup_area1@@3W4SURFACE_TYPES@@A
  00d4e	50		 push	 eax
  00d4f	68 ff 00 00 00	 push	 255			; 000000ffH
  00d54	68 ff 00 00 00	 push	 255			; 000000ffH
  00d59	68 ff 00 00 00	 push	 255			; 000000ffH
  00d5e	51		 push	 ecx
  00d5f	f3 0f 10 45 f8	 movss	 xmm0, DWORD PTR _sl$[ebp]
  00d64	f3 0f 11 04 24	 movss	 DWORD PTR [esp], xmm0
  00d69	51		 push	 ecx
  00d6a	f3 0f 10 45 f8	 movss	 xmm0, DWORD PTR _sl$[ebp]
  00d6f	f3 0f 11 04 24	 movss	 DWORD PTR [esp], xmm0
  00d74	51		 push	 ecx
  00d75	f3 0f 10 45 f4	 movss	 xmm0, DWORD PTR _sld$[ebp]
  00d7a	f3 0f 11 04 24	 movss	 DWORD PTR [esp], xmm0
  00d7f	51		 push	 ecx
  00d80	f3 0f 10 45 f4	 movss	 xmm0, DWORD PTR _sld$[ebp]
  00d85	f3 0f 11 04 24	 movss	 DWORD PTR [esp], xmm0
  00d8a	51		 push	 ecx
  00d8b	f3 0f 10 05 00
	00 00 00	 movss	 xmm0, DWORD PTR __real@42000000
  00d93	f3 0f 11 04 24	 movss	 DWORD PTR [esp], xmm0
  00d98	8b 0d 00 00 00
	00		 mov	 ecx, DWORD PTR ?terrain_texture_builtup_area1_colour_pass@@3HA
  00d9e	51		 push	 ecx
  00d9f	8b 15 00 00 00
	00		 mov	 edx, DWORD PTR ?terrain_texture_builtup_area1_detail@@3HA
  00da5	52		 push	 edx
  00da6	6a 25		 push	 37			; 00000025H
  00da8	e8 00 00 00 00	 call	 ?set_terrain_type_textures@@YGXHHHMMMMMHHHW4SURFACE_TYPES@@@Z ; set_terrain_type_textures
$LN37@initialise:

; 1001 : 			if (index == terrain_texture_builtup_area2_detail  ) set_terrain_type_textures ( TERRAIN_TYPE_BUILT_UP_AREA2, terrain_texture_builtup_area2_detail, terrain_texture_builtup_area2_colour_pass, default_noise_detail, sld, sld, sl, sl, 255, 255, 255, terrain_surface_builtup_area2 );

  00dad	8b 45 e8	 mov	 eax, DWORD PTR _index$1[ebp]
  00db0	3b 05 00 00 00
	00		 cmp	 eax, DWORD PTR ?terrain_texture_builtup_area2_detail@@3HA
  00db6	75 64		 jne	 SHORT $LN38@initialise
  00db8	a1 00 00 00 00	 mov	 eax, DWORD PTR ?terrain_surface_builtup_area2@@3W4SURFACE_TYPES@@A
  00dbd	50		 push	 eax
  00dbe	68 ff 00 00 00	 push	 255			; 000000ffH
  00dc3	68 ff 00 00 00	 push	 255			; 000000ffH
  00dc8	68 ff 00 00 00	 push	 255			; 000000ffH
  00dcd	51		 push	 ecx
  00dce	f3 0f 10 45 f8	 movss	 xmm0, DWORD PTR _sl$[ebp]
  00dd3	f3 0f 11 04 24	 movss	 DWORD PTR [esp], xmm0
  00dd8	51		 push	 ecx
  00dd9	f3 0f 10 45 f8	 movss	 xmm0, DWORD PTR _sl$[ebp]
  00dde	f3 0f 11 04 24	 movss	 DWORD PTR [esp], xmm0
  00de3	51		 push	 ecx
  00de4	f3 0f 10 45 f4	 movss	 xmm0, DWORD PTR _sld$[ebp]
  00de9	f3 0f 11 04 24	 movss	 DWORD PTR [esp], xmm0
  00dee	51		 push	 ecx
  00def	f3 0f 10 45 f4	 movss	 xmm0, DWORD PTR _sld$[ebp]
  00df4	f3 0f 11 04 24	 movss	 DWORD PTR [esp], xmm0
  00df9	51		 push	 ecx
  00dfa	f3 0f 10 05 00
	00 00 00	 movss	 xmm0, DWORD PTR __real@42000000
  00e02	f3 0f 11 04 24	 movss	 DWORD PTR [esp], xmm0
  00e07	8b 0d 00 00 00
	00		 mov	 ecx, DWORD PTR ?terrain_texture_builtup_area2_colour_pass@@3HA
  00e0d	51		 push	 ecx
  00e0e	8b 15 00 00 00
	00		 mov	 edx, DWORD PTR ?terrain_texture_builtup_area2_detail@@3HA
  00e14	52		 push	 edx
  00e15	6a 26		 push	 38			; 00000026H
  00e17	e8 00 00 00 00	 call	 ?set_terrain_type_textures@@YGXHHHMMMMMHHHW4SURFACE_TYPES@@@Z ; set_terrain_type_textures
$LN38@initialise:

; 1002 : 			if (index == terrain_texture_builtup_area3_detail  ) set_terrain_type_textures ( TERRAIN_TYPE_BUILT_UP_AREA3, terrain_texture_builtup_area3_detail, terrain_texture_builtup_area3_colour_pass, default_noise_detail, sld, sld, sl, sl, 255, 255, 255, terrain_surface_builtup_area3 );

  00e1c	8b 45 e8	 mov	 eax, DWORD PTR _index$1[ebp]
  00e1f	3b 05 00 00 00
	00		 cmp	 eax, DWORD PTR ?terrain_texture_builtup_area3_detail@@3HA
  00e25	75 64		 jne	 SHORT $LN39@initialise
  00e27	a1 00 00 00 00	 mov	 eax, DWORD PTR ?terrain_surface_builtup_area3@@3W4SURFACE_TYPES@@A
  00e2c	50		 push	 eax
  00e2d	68 ff 00 00 00	 push	 255			; 000000ffH
  00e32	68 ff 00 00 00	 push	 255			; 000000ffH
  00e37	68 ff 00 00 00	 push	 255			; 000000ffH
  00e3c	51		 push	 ecx
  00e3d	f3 0f 10 45 f8	 movss	 xmm0, DWORD PTR _sl$[ebp]
  00e42	f3 0f 11 04 24	 movss	 DWORD PTR [esp], xmm0
  00e47	51		 push	 ecx
  00e48	f3 0f 10 45 f8	 movss	 xmm0, DWORD PTR _sl$[ebp]
  00e4d	f3 0f 11 04 24	 movss	 DWORD PTR [esp], xmm0
  00e52	51		 push	 ecx
  00e53	f3 0f 10 45 f4	 movss	 xmm0, DWORD PTR _sld$[ebp]
  00e58	f3 0f 11 04 24	 movss	 DWORD PTR [esp], xmm0
  00e5d	51		 push	 ecx
  00e5e	f3 0f 10 45 f4	 movss	 xmm0, DWORD PTR _sld$[ebp]
  00e63	f3 0f 11 04 24	 movss	 DWORD PTR [esp], xmm0
  00e68	51		 push	 ecx
  00e69	f3 0f 10 05 00
	00 00 00	 movss	 xmm0, DWORD PTR __real@42000000
  00e71	f3 0f 11 04 24	 movss	 DWORD PTR [esp], xmm0
  00e76	8b 0d 00 00 00
	00		 mov	 ecx, DWORD PTR ?terrain_texture_builtup_area3_colour_pass@@3HA
  00e7c	51		 push	 ecx
  00e7d	8b 15 00 00 00
	00		 mov	 edx, DWORD PTR ?terrain_texture_builtup_area3_detail@@3HA
  00e83	52		 push	 edx
  00e84	6a 27		 push	 39			; 00000027H
  00e86	e8 00 00 00 00	 call	 ?set_terrain_type_textures@@YGXHHHMMMMMHHHW4SURFACE_TYPES@@@Z ; set_terrain_type_textures
$LN39@initialise:

; 1003 : 			if (index == terrain_texture_builtup_area4_detail  ) set_terrain_type_textures ( TERRAIN_TYPE_BUILT_UP_AREA4, terrain_texture_builtup_area4_detail, terrain_texture_builtup_area4_colour_pass, default_noise_detail, sld, sld, sl, sl, 255, 255, 255, terrain_surface_builtup_area4 );

  00e8b	8b 45 e8	 mov	 eax, DWORD PTR _index$1[ebp]
  00e8e	3b 05 00 00 00
	00		 cmp	 eax, DWORD PTR ?terrain_texture_builtup_area4_detail@@3HA
  00e94	75 64		 jne	 SHORT $LN40@initialise
  00e96	a1 00 00 00 00	 mov	 eax, DWORD PTR ?terrain_surface_builtup_area4@@3W4SURFACE_TYPES@@A
  00e9b	50		 push	 eax
  00e9c	68 ff 00 00 00	 push	 255			; 000000ffH
  00ea1	68 ff 00 00 00	 push	 255			; 000000ffH
  00ea6	68 ff 00 00 00	 push	 255			; 000000ffH
  00eab	51		 push	 ecx
  00eac	f3 0f 10 45 f8	 movss	 xmm0, DWORD PTR _sl$[ebp]
  00eb1	f3 0f 11 04 24	 movss	 DWORD PTR [esp], xmm0
  00eb6	51		 push	 ecx
  00eb7	f3 0f 10 45 f8	 movss	 xmm0, DWORD PTR _sl$[ebp]
  00ebc	f3 0f 11 04 24	 movss	 DWORD PTR [esp], xmm0
  00ec1	51		 push	 ecx
  00ec2	f3 0f 10 45 f4	 movss	 xmm0, DWORD PTR _sld$[ebp]
  00ec7	f3 0f 11 04 24	 movss	 DWORD PTR [esp], xmm0
  00ecc	51		 push	 ecx
  00ecd	f3 0f 10 45 f4	 movss	 xmm0, DWORD PTR _sld$[ebp]
  00ed2	f3 0f 11 04 24	 movss	 DWORD PTR [esp], xmm0
  00ed7	51		 push	 ecx
  00ed8	f3 0f 10 05 00
	00 00 00	 movss	 xmm0, DWORD PTR __real@42000000
  00ee0	f3 0f 11 04 24	 movss	 DWORD PTR [esp], xmm0
  00ee5	8b 0d 00 00 00
	00		 mov	 ecx, DWORD PTR ?terrain_texture_builtup_area4_colour_pass@@3HA
  00eeb	51		 push	 ecx
  00eec	8b 15 00 00 00
	00		 mov	 edx, DWORD PTR ?terrain_texture_builtup_area4_detail@@3HA
  00ef2	52		 push	 edx
  00ef3	6a 28		 push	 40			; 00000028H
  00ef5	e8 00 00 00 00	 call	 ?set_terrain_type_textures@@YGXHHHMMMMMHHHW4SURFACE_TYPES@@@Z ; set_terrain_type_textures
$LN40@initialise:

; 1004 : 		}
; 1005 : 
; 1006 :    	if (index == terrain_texture_hedge_detail      ) set_terrain_type_textures ( TERRAIN_TYPE_HEDGE_TOP, terrain_texture_hedge_detail, terrain_texture_hedge_colour_pass, 8.0, sld, sld, sl, sl, 255, 255, 255, terrain_surface_hedge );

  00efa	8b 45 e8	 mov	 eax, DWORD PTR _index$1[ebp]
  00efd	3b 05 00 00 00
	00		 cmp	 eax, DWORD PTR ?terrain_texture_hedge_detail@@3HA
  00f03	75 64		 jne	 SHORT $LN41@initialise
  00f05	a1 00 00 00 00	 mov	 eax, DWORD PTR ?terrain_surface_hedge@@3W4SURFACE_TYPES@@A
  00f0a	50		 push	 eax
  00f0b	68 ff 00 00 00	 push	 255			; 000000ffH
  00f10	68 ff 00 00 00	 push	 255			; 000000ffH
  00f15	68 ff 00 00 00	 push	 255			; 000000ffH
  00f1a	51		 push	 ecx
  00f1b	f3 0f 10 45 f8	 movss	 xmm0, DWORD PTR _sl$[ebp]
  00f20	f3 0f 11 04 24	 movss	 DWORD PTR [esp], xmm0
  00f25	51		 push	 ecx
  00f26	f3 0f 10 45 f8	 movss	 xmm0, DWORD PTR _sl$[ebp]
  00f2b	f3 0f 11 04 24	 movss	 DWORD PTR [esp], xmm0
  00f30	51		 push	 ecx
  00f31	f3 0f 10 45 f4	 movss	 xmm0, DWORD PTR _sld$[ebp]
  00f36	f3 0f 11 04 24	 movss	 DWORD PTR [esp], xmm0
  00f3b	51		 push	 ecx
  00f3c	f3 0f 10 45 f4	 movss	 xmm0, DWORD PTR _sld$[ebp]
  00f41	f3 0f 11 04 24	 movss	 DWORD PTR [esp], xmm0
  00f46	51		 push	 ecx
  00f47	f3 0f 10 05 00
	00 00 00	 movss	 xmm0, DWORD PTR __real@41000000
  00f4f	f3 0f 11 04 24	 movss	 DWORD PTR [esp], xmm0
  00f54	8b 0d 00 00 00
	00		 mov	 ecx, DWORD PTR ?terrain_texture_hedge_colour_pass@@3HA
  00f5a	51		 push	 ecx
  00f5b	8b 15 00 00 00
	00		 mov	 edx, DWORD PTR ?terrain_texture_hedge_detail@@3HA
  00f61	52		 push	 edx
  00f62	6a 2d		 push	 45			; 0000002dH
  00f64	e8 00 00 00 00	 call	 ?set_terrain_type_textures@@YGXHHHMMMMMHHHW4SURFACE_TYPES@@@Z ; set_terrain_type_textures
$LN41@initialise:

; 1007 :    	if (index == terrain_texture_hedge_detail      ) set_terrain_type_textures ( TERRAIN_TYPE_HEDGE_SIDE_X, terrain_texture_hedge_detail, terrain_texture_hedge_colour_pass, 8.0, sld, sld, sl, sl, 255, 255, 255, terrain_surface_hedge );

  00f69	8b 45 e8	 mov	 eax, DWORD PTR _index$1[ebp]
  00f6c	3b 05 00 00 00
	00		 cmp	 eax, DWORD PTR ?terrain_texture_hedge_detail@@3HA
  00f72	75 64		 jne	 SHORT $LN42@initialise
  00f74	a1 00 00 00 00	 mov	 eax, DWORD PTR ?terrain_surface_hedge@@3W4SURFACE_TYPES@@A
  00f79	50		 push	 eax
  00f7a	68 ff 00 00 00	 push	 255			; 000000ffH
  00f7f	68 ff 00 00 00	 push	 255			; 000000ffH
  00f84	68 ff 00 00 00	 push	 255			; 000000ffH
  00f89	51		 push	 ecx
  00f8a	f3 0f 10 45 f8	 movss	 xmm0, DWORD PTR _sl$[ebp]
  00f8f	f3 0f 11 04 24	 movss	 DWORD PTR [esp], xmm0
  00f94	51		 push	 ecx
  00f95	f3 0f 10 45 f8	 movss	 xmm0, DWORD PTR _sl$[ebp]
  00f9a	f3 0f 11 04 24	 movss	 DWORD PTR [esp], xmm0
  00f9f	51		 push	 ecx
  00fa0	f3 0f 10 45 f4	 movss	 xmm0, DWORD PTR _sld$[ebp]
  00fa5	f3 0f 11 04 24	 movss	 DWORD PTR [esp], xmm0
  00faa	51		 push	 ecx
  00fab	f3 0f 10 45 f4	 movss	 xmm0, DWORD PTR _sld$[ebp]
  00fb0	f3 0f 11 04 24	 movss	 DWORD PTR [esp], xmm0
  00fb5	51		 push	 ecx
  00fb6	f3 0f 10 05 00
	00 00 00	 movss	 xmm0, DWORD PTR __real@41000000
  00fbe	f3 0f 11 04 24	 movss	 DWORD PTR [esp], xmm0
  00fc3	8b 0d 00 00 00
	00		 mov	 ecx, DWORD PTR ?terrain_texture_hedge_colour_pass@@3HA
  00fc9	51		 push	 ecx
  00fca	8b 15 00 00 00
	00		 mov	 edx, DWORD PTR ?terrain_texture_hedge_detail@@3HA
  00fd0	52		 push	 edx
  00fd1	6a 1b		 push	 27			; 0000001bH
  00fd3	e8 00 00 00 00	 call	 ?set_terrain_type_textures@@YGXHHHMMMMMHHHW4SURFACE_TYPES@@@Z ; set_terrain_type_textures
$LN42@initialise:

; 1008 :    	if (index == terrain_texture_hedge_detail      ) set_terrain_type_textures ( TERRAIN_TYPE_HEDGE_SIDE_Z, terrain_texture_hedge_detail, terrain_texture_hedge_colour_pass, 8.0, sld, sld, sl, sl, 255, 255, 255, terrain_surface_hedge );

  00fd8	8b 45 e8	 mov	 eax, DWORD PTR _index$1[ebp]
  00fdb	3b 05 00 00 00
	00		 cmp	 eax, DWORD PTR ?terrain_texture_hedge_detail@@3HA
  00fe1	75 64		 jne	 SHORT $LN43@initialise
  00fe3	a1 00 00 00 00	 mov	 eax, DWORD PTR ?terrain_surface_hedge@@3W4SURFACE_TYPES@@A
  00fe8	50		 push	 eax
  00fe9	68 ff 00 00 00	 push	 255			; 000000ffH
  00fee	68 ff 00 00 00	 push	 255			; 000000ffH
  00ff3	68 ff 00 00 00	 push	 255			; 000000ffH
  00ff8	51		 push	 ecx
  00ff9	f3 0f 10 45 f8	 movss	 xmm0, DWORD PTR _sl$[ebp]
  00ffe	f3 0f 11 04 24	 movss	 DWORD PTR [esp], xmm0
  01003	51		 push	 ecx
  01004	f3 0f 10 45 f8	 movss	 xmm0, DWORD PTR _sl$[ebp]
  01009	f3 0f 11 04 24	 movss	 DWORD PTR [esp], xmm0
  0100e	51		 push	 ecx
  0100f	f3 0f 10 45 f4	 movss	 xmm0, DWORD PTR _sld$[ebp]
  01014	f3 0f 11 04 24	 movss	 DWORD PTR [esp], xmm0
  01019	51		 push	 ecx
  0101a	f3 0f 10 45 f4	 movss	 xmm0, DWORD PTR _sld$[ebp]
  0101f	f3 0f 11 04 24	 movss	 DWORD PTR [esp], xmm0
  01024	51		 push	 ecx
  01025	f3 0f 10 05 00
	00 00 00	 movss	 xmm0, DWORD PTR __real@41000000
  0102d	f3 0f 11 04 24	 movss	 DWORD PTR [esp], xmm0
  01032	8b 0d 00 00 00
	00		 mov	 ecx, DWORD PTR ?terrain_texture_hedge_colour_pass@@3HA
  01038	51		 push	 ecx
  01039	8b 15 00 00 00
	00		 mov	 edx, DWORD PTR ?terrain_texture_hedge_detail@@3HA
  0103f	52		 push	 edx
  01040	6a 1c		 push	 28			; 0000001cH
  01042	e8 00 00 00 00	 call	 ?set_terrain_type_textures@@YGXHHHMMMMMHHHW4SURFACE_TYPES@@@Z ; set_terrain_type_textures
$LN43@initialise:

; 1009 :    	if (index == terrain_texture_wall_detail       ) set_terrain_type_textures ( TERRAIN_TYPE_WALL_TOP, terrain_texture_wall_detail, terrain_texture_wall_colour_pass, 8.0, sld, sld, sl, sl, 255, 255, 255, terrain_surface_wall );

  01047	8b 45 e8	 mov	 eax, DWORD PTR _index$1[ebp]
  0104a	3b 05 00 00 00
	00		 cmp	 eax, DWORD PTR ?terrain_texture_wall_detail@@3HA
  01050	75 64		 jne	 SHORT $LN44@initialise
  01052	a1 00 00 00 00	 mov	 eax, DWORD PTR ?terrain_surface_wall@@3W4SURFACE_TYPES@@A
  01057	50		 push	 eax
  01058	68 ff 00 00 00	 push	 255			; 000000ffH
  0105d	68 ff 00 00 00	 push	 255			; 000000ffH
  01062	68 ff 00 00 00	 push	 255			; 000000ffH
  01067	51		 push	 ecx
  01068	f3 0f 10 45 f8	 movss	 xmm0, DWORD PTR _sl$[ebp]
  0106d	f3 0f 11 04 24	 movss	 DWORD PTR [esp], xmm0
  01072	51		 push	 ecx
  01073	f3 0f 10 45 f8	 movss	 xmm0, DWORD PTR _sl$[ebp]
  01078	f3 0f 11 04 24	 movss	 DWORD PTR [esp], xmm0
  0107d	51		 push	 ecx
  0107e	f3 0f 10 45 f4	 movss	 xmm0, DWORD PTR _sld$[ebp]
  01083	f3 0f 11 04 24	 movss	 DWORD PTR [esp], xmm0
  01088	51		 push	 ecx
  01089	f3 0f 10 45 f4	 movss	 xmm0, DWORD PTR _sld$[ebp]
  0108e	f3 0f 11 04 24	 movss	 DWORD PTR [esp], xmm0
  01093	51		 push	 ecx
  01094	f3 0f 10 05 00
	00 00 00	 movss	 xmm0, DWORD PTR __real@41000000
  0109c	f3 0f 11 04 24	 movss	 DWORD PTR [esp], xmm0
  010a1	8b 0d 00 00 00
	00		 mov	 ecx, DWORD PTR ?terrain_texture_wall_colour_pass@@3HA
  010a7	51		 push	 ecx
  010a8	8b 15 00 00 00
	00		 mov	 edx, DWORD PTR ?terrain_texture_wall_detail@@3HA
  010ae	52		 push	 edx
  010af	6a 2c		 push	 44			; 0000002cH
  010b1	e8 00 00 00 00	 call	 ?set_terrain_type_textures@@YGXHHHMMMMMHHHW4SURFACE_TYPES@@@Z ; set_terrain_type_textures
$LN44@initialise:

; 1010 :    	if (index == terrain_texture_wall_detail       ) set_terrain_type_textures ( TERRAIN_TYPE_WALL_SIDE_X, terrain_texture_wall_detail, terrain_texture_wall_colour_pass, 8.0, sld, sld, sl, sl, 255, 255, 255, terrain_surface_wall );

  010b6	8b 45 e8	 mov	 eax, DWORD PTR _index$1[ebp]
  010b9	3b 05 00 00 00
	00		 cmp	 eax, DWORD PTR ?terrain_texture_wall_detail@@3HA
  010bf	75 64		 jne	 SHORT $LN45@initialise
  010c1	a1 00 00 00 00	 mov	 eax, DWORD PTR ?terrain_surface_wall@@3W4SURFACE_TYPES@@A
  010c6	50		 push	 eax
  010c7	68 ff 00 00 00	 push	 255			; 000000ffH
  010cc	68 ff 00 00 00	 push	 255			; 000000ffH
  010d1	68 ff 00 00 00	 push	 255			; 000000ffH
  010d6	51		 push	 ecx
  010d7	f3 0f 10 45 f8	 movss	 xmm0, DWORD PTR _sl$[ebp]
  010dc	f3 0f 11 04 24	 movss	 DWORD PTR [esp], xmm0
  010e1	51		 push	 ecx
  010e2	f3 0f 10 45 f8	 movss	 xmm0, DWORD PTR _sl$[ebp]
  010e7	f3 0f 11 04 24	 movss	 DWORD PTR [esp], xmm0
  010ec	51		 push	 ecx
  010ed	f3 0f 10 45 f4	 movss	 xmm0, DWORD PTR _sld$[ebp]
  010f2	f3 0f 11 04 24	 movss	 DWORD PTR [esp], xmm0
  010f7	51		 push	 ecx
  010f8	f3 0f 10 45 f4	 movss	 xmm0, DWORD PTR _sld$[ebp]
  010fd	f3 0f 11 04 24	 movss	 DWORD PTR [esp], xmm0
  01102	51		 push	 ecx
  01103	f3 0f 10 05 00
	00 00 00	 movss	 xmm0, DWORD PTR __real@41000000
  0110b	f3 0f 11 04 24	 movss	 DWORD PTR [esp], xmm0
  01110	8b 0d 00 00 00
	00		 mov	 ecx, DWORD PTR ?terrain_texture_wall_colour_pass@@3HA
  01116	51		 push	 ecx
  01117	8b 15 00 00 00
	00		 mov	 edx, DWORD PTR ?terrain_texture_wall_detail@@3HA
  0111d	52		 push	 edx
  0111e	6a 1d		 push	 29			; 0000001dH
  01120	e8 00 00 00 00	 call	 ?set_terrain_type_textures@@YGXHHHMMMMMHHHW4SURFACE_TYPES@@@Z ; set_terrain_type_textures
$LN45@initialise:

; 1011 :    	if (index == terrain_texture_wall_detail       ) set_terrain_type_textures ( TERRAIN_TYPE_WALL_SIDE_Z, terrain_texture_wall_detail, terrain_texture_wall_colour_pass, 8.0, sld, sld, sl, sl, 255, 255, 255, terrain_surface_wall );

  01125	8b 45 e8	 mov	 eax, DWORD PTR _index$1[ebp]
  01128	3b 05 00 00 00
	00		 cmp	 eax, DWORD PTR ?terrain_texture_wall_detail@@3HA
  0112e	75 64		 jne	 SHORT $LN46@initialise
  01130	a1 00 00 00 00	 mov	 eax, DWORD PTR ?terrain_surface_wall@@3W4SURFACE_TYPES@@A
  01135	50		 push	 eax
  01136	68 ff 00 00 00	 push	 255			; 000000ffH
  0113b	68 ff 00 00 00	 push	 255			; 000000ffH
  01140	68 ff 00 00 00	 push	 255			; 000000ffH
  01145	51		 push	 ecx
  01146	f3 0f 10 45 f8	 movss	 xmm0, DWORD PTR _sl$[ebp]
  0114b	f3 0f 11 04 24	 movss	 DWORD PTR [esp], xmm0
  01150	51		 push	 ecx
  01151	f3 0f 10 45 f8	 movss	 xmm0, DWORD PTR _sl$[ebp]
  01156	f3 0f 11 04 24	 movss	 DWORD PTR [esp], xmm0
  0115b	51		 push	 ecx
  0115c	f3 0f 10 45 f4	 movss	 xmm0, DWORD PTR _sld$[ebp]
  01161	f3 0f 11 04 24	 movss	 DWORD PTR [esp], xmm0
  01166	51		 push	 ecx
  01167	f3 0f 10 45 f4	 movss	 xmm0, DWORD PTR _sld$[ebp]
  0116c	f3 0f 11 04 24	 movss	 DWORD PTR [esp], xmm0
  01171	51		 push	 ecx
  01172	f3 0f 10 05 00
	00 00 00	 movss	 xmm0, DWORD PTR __real@41000000
  0117a	f3 0f 11 04 24	 movss	 DWORD PTR [esp], xmm0
  0117f	8b 0d 00 00 00
	00		 mov	 ecx, DWORD PTR ?terrain_texture_wall_colour_pass@@3HA
  01185	51		 push	 ecx
  01186	8b 15 00 00 00
	00		 mov	 edx, DWORD PTR ?terrain_texture_wall_detail@@3HA
  0118c	52		 push	 edx
  0118d	6a 1e		 push	 30			; 0000001eH
  0118f	e8 00 00 00 00	 call	 ?set_terrain_type_textures@@YGXHHHMMMMMHHHW4SURFACE_TYPES@@@Z ; set_terrain_type_textures
$LN46@initialise:

; 1012 :    	if (index == terrain_texture_trench_detail     ) set_terrain_type_textures ( TERRAIN_TYPE_TRENCH, terrain_texture_trench_detail, terrain_texture_trench_colour_pass, 8.0, sld, sld, sl, sl, 255, 255, 255, terrain_surface_trench );

  01194	8b 45 e8	 mov	 eax, DWORD PTR _index$1[ebp]
  01197	3b 05 00 00 00
	00		 cmp	 eax, DWORD PTR ?terrain_texture_trench_detail@@3HA
  0119d	75 64		 jne	 SHORT $LN47@initialise
  0119f	a1 00 00 00 00	 mov	 eax, DWORD PTR ?terrain_surface_trench@@3W4SURFACE_TYPES@@A
  011a4	50		 push	 eax
  011a5	68 ff 00 00 00	 push	 255			; 000000ffH
  011aa	68 ff 00 00 00	 push	 255			; 000000ffH
  011af	68 ff 00 00 00	 push	 255			; 000000ffH
  011b4	51		 push	 ecx
  011b5	f3 0f 10 45 f8	 movss	 xmm0, DWORD PTR _sl$[ebp]
  011ba	f3 0f 11 04 24	 movss	 DWORD PTR [esp], xmm0
  011bf	51		 push	 ecx
  011c0	f3 0f 10 45 f8	 movss	 xmm0, DWORD PTR _sl$[ebp]
  011c5	f3 0f 11 04 24	 movss	 DWORD PTR [esp], xmm0
  011ca	51		 push	 ecx
  011cb	f3 0f 10 45 f4	 movss	 xmm0, DWORD PTR _sld$[ebp]
  011d0	f3 0f 11 04 24	 movss	 DWORD PTR [esp], xmm0
  011d5	51		 push	 ecx
  011d6	f3 0f 10 45 f4	 movss	 xmm0, DWORD PTR _sld$[ebp]
  011db	f3 0f 11 04 24	 movss	 DWORD PTR [esp], xmm0
  011e0	51		 push	 ecx
  011e1	f3 0f 10 05 00
	00 00 00	 movss	 xmm0, DWORD PTR __real@41000000
  011e9	f3 0f 11 04 24	 movss	 DWORD PTR [esp], xmm0
  011ee	8b 0d 00 00 00
	00		 mov	 ecx, DWORD PTR ?terrain_texture_trench_colour_pass@@3HA
  011f4	51		 push	 ecx
  011f5	8b 15 00 00 00
	00		 mov	 edx, DWORD PTR ?terrain_texture_trench_detail@@3HA
  011fb	52		 push	 edx
  011fc	6a 03		 push	 3
  011fe	e8 00 00 00 00	 call	 ?set_terrain_type_textures@@YGXHHHMMMMMHHHW4SURFACE_TYPES@@@Z ; set_terrain_type_textures
$LN47@initialise:

; 1013 :    	if (index == terrain_texture_trench_detail     ) set_terrain_type_textures ( TERRAIN_TYPE_TRENCH_SIDE_X, terrain_texture_trench_detail, terrain_texture_trench_colour_pass, 8.0, sld, sld, sl, sl, 255, 255, 255, terrain_surface_trench );

  01203	8b 45 e8	 mov	 eax, DWORD PTR _index$1[ebp]
  01206	3b 05 00 00 00
	00		 cmp	 eax, DWORD PTR ?terrain_texture_trench_detail@@3HA
  0120c	75 64		 jne	 SHORT $LN48@initialise
  0120e	a1 00 00 00 00	 mov	 eax, DWORD PTR ?terrain_surface_trench@@3W4SURFACE_TYPES@@A
  01213	50		 push	 eax
  01214	68 ff 00 00 00	 push	 255			; 000000ffH
  01219	68 ff 00 00 00	 push	 255			; 000000ffH
  0121e	68 ff 00 00 00	 push	 255			; 000000ffH
  01223	51		 push	 ecx
  01224	f3 0f 10 45 f8	 movss	 xmm0, DWORD PTR _sl$[ebp]
  01229	f3 0f 11 04 24	 movss	 DWORD PTR [esp], xmm0
  0122e	51		 push	 ecx
  0122f	f3 0f 10 45 f8	 movss	 xmm0, DWORD PTR _sl$[ebp]
  01234	f3 0f 11 04 24	 movss	 DWORD PTR [esp], xmm0
  01239	51		 push	 ecx
  0123a	f3 0f 10 45 f4	 movss	 xmm0, DWORD PTR _sld$[ebp]
  0123f	f3 0f 11 04 24	 movss	 DWORD PTR [esp], xmm0
  01244	51		 push	 ecx
  01245	f3 0f 10 45 f4	 movss	 xmm0, DWORD PTR _sld$[ebp]
  0124a	f3 0f 11 04 24	 movss	 DWORD PTR [esp], xmm0
  0124f	51		 push	 ecx
  01250	f3 0f 10 05 00
	00 00 00	 movss	 xmm0, DWORD PTR __real@41000000
  01258	f3 0f 11 04 24	 movss	 DWORD PTR [esp], xmm0
  0125d	8b 0d 00 00 00
	00		 mov	 ecx, DWORD PTR ?terrain_texture_trench_colour_pass@@3HA
  01263	51		 push	 ecx
  01264	8b 15 00 00 00
	00		 mov	 edx, DWORD PTR ?terrain_texture_trench_detail@@3HA
  0126a	52		 push	 edx
  0126b	6a 05		 push	 5
  0126d	e8 00 00 00 00	 call	 ?set_terrain_type_textures@@YGXHHHMMMMMHHHW4SURFACE_TYPES@@@Z ; set_terrain_type_textures
$LN48@initialise:

; 1014 :    	if (index == terrain_texture_trench_detail     ) set_terrain_type_textures ( TERRAIN_TYPE_TRENCH_SIDE_Z, terrain_texture_trench_detail, terrain_texture_trench_colour_pass, 8.0, sld, sld, sl, sl, 255, 255, 255, terrain_surface_trench );

  01272	8b 45 e8	 mov	 eax, DWORD PTR _index$1[ebp]
  01275	3b 05 00 00 00
	00		 cmp	 eax, DWORD PTR ?terrain_texture_trench_detail@@3HA
  0127b	75 64		 jne	 SHORT $LN49@initialise
  0127d	a1 00 00 00 00	 mov	 eax, DWORD PTR ?terrain_surface_trench@@3W4SURFACE_TYPES@@A
  01282	50		 push	 eax
  01283	68 ff 00 00 00	 push	 255			; 000000ffH
  01288	68 ff 00 00 00	 push	 255			; 000000ffH
  0128d	68 ff 00 00 00	 push	 255			; 000000ffH
  01292	51		 push	 ecx
  01293	f3 0f 10 45 f8	 movss	 xmm0, DWORD PTR _sl$[ebp]
  01298	f3 0f 11 04 24	 movss	 DWORD PTR [esp], xmm0
  0129d	51		 push	 ecx
  0129e	f3 0f 10 45 f8	 movss	 xmm0, DWORD PTR _sl$[ebp]
  012a3	f3 0f 11 04 24	 movss	 DWORD PTR [esp], xmm0
  012a8	51		 push	 ecx
  012a9	f3 0f 10 45 f4	 movss	 xmm0, DWORD PTR _sld$[ebp]
  012ae	f3 0f 11 04 24	 movss	 DWORD PTR [esp], xmm0
  012b3	51		 push	 ecx
  012b4	f3 0f 10 45 f4	 movss	 xmm0, DWORD PTR _sld$[ebp]
  012b9	f3 0f 11 04 24	 movss	 DWORD PTR [esp], xmm0
  012be	51		 push	 ecx
  012bf	f3 0f 10 05 00
	00 00 00	 movss	 xmm0, DWORD PTR __real@41000000
  012c7	f3 0f 11 04 24	 movss	 DWORD PTR [esp], xmm0
  012cc	8b 0d 00 00 00
	00		 mov	 ecx, DWORD PTR ?terrain_texture_trench_colour_pass@@3HA
  012d2	51		 push	 ecx
  012d3	8b 15 00 00 00
	00		 mov	 edx, DWORD PTR ?terrain_texture_trench_detail@@3HA
  012d9	52		 push	 edx
  012da	6a 06		 push	 6
  012dc	e8 00 00 00 00	 call	 ?set_terrain_type_textures@@YGXHHHMMMMMHHHW4SURFACE_TYPES@@@Z ; set_terrain_type_textures
$LN49@initialise:

; 1015 :    	if (index == terrain_texture_rail_bank_detail  ) set_terrain_type_textures ( TERRAIN_TYPE_RAIL_BANK, terrain_texture_rail_bank_detail, terrain_texture_rail_bank_colour_pass, 8.0, sld, sld, sl, sl, 255, 255, 255, terrain_surface_rail_bank );

  012e1	8b 45 e8	 mov	 eax, DWORD PTR _index$1[ebp]
  012e4	3b 05 00 00 00
	00		 cmp	 eax, DWORD PTR ?terrain_texture_rail_bank_detail@@3HA
  012ea	75 64		 jne	 SHORT $LN50@initialise
  012ec	a1 00 00 00 00	 mov	 eax, DWORD PTR ?terrain_surface_rail_bank@@3W4SURFACE_TYPES@@A
  012f1	50		 push	 eax
  012f2	68 ff 00 00 00	 push	 255			; 000000ffH
  012f7	68 ff 00 00 00	 push	 255			; 000000ffH
  012fc	68 ff 00 00 00	 push	 255			; 000000ffH
  01301	51		 push	 ecx
  01302	f3 0f 10 45 f8	 movss	 xmm0, DWORD PTR _sl$[ebp]
  01307	f3 0f 11 04 24	 movss	 DWORD PTR [esp], xmm0
  0130c	51		 push	 ecx
  0130d	f3 0f 10 45 f8	 movss	 xmm0, DWORD PTR _sl$[ebp]
  01312	f3 0f 11 04 24	 movss	 DWORD PTR [esp], xmm0
  01317	51		 push	 ecx
  01318	f3 0f 10 45 f4	 movss	 xmm0, DWORD PTR _sld$[ebp]
  0131d	f3 0f 11 04 24	 movss	 DWORD PTR [esp], xmm0
  01322	51		 push	 ecx
  01323	f3 0f 10 45 f4	 movss	 xmm0, DWORD PTR _sld$[ebp]
  01328	f3 0f 11 04 24	 movss	 DWORD PTR [esp], xmm0
  0132d	51		 push	 ecx
  0132e	f3 0f 10 05 00
	00 00 00	 movss	 xmm0, DWORD PTR __real@41000000
  01336	f3 0f 11 04 24	 movss	 DWORD PTR [esp], xmm0
  0133b	8b 0d 00 00 00
	00		 mov	 ecx, DWORD PTR ?terrain_texture_rail_bank_colour_pass@@3HA
  01341	51		 push	 ecx
  01342	8b 15 00 00 00
	00		 mov	 edx, DWORD PTR ?terrain_texture_rail_bank_detail@@3HA
  01348	52		 push	 edx
  01349	6a 1a		 push	 26			; 0000001aH
  0134b	e8 00 00 00 00	 call	 ?set_terrain_type_textures@@YGXHHHMMMMMHHHW4SURFACE_TYPES@@@Z ; set_terrain_type_textures
$LN50@initialise:

; 1016 : 
; 1017 : 		//VJ 051001 textures that have a different vertical scale
; 1018 : 		sld = sl;

  01350	f3 0f 10 45 f8	 movss	 xmm0, DWORD PTR _sl$[ebp]
  01355	f3 0f 11 45 f4	 movss	 DWORD PTR _sld$[ebp], xmm0

; 1019 :    	sldd = sld/2;  //river bank doisplays ok if vertical scale 0.5 of horizontal scale

  0135a	f3 0f 10 45 f4	 movss	 xmm0, DWORD PTR _sld$[ebp]
  0135f	f3 0f 5e 05 00
	00 00 00	 divss	 xmm0, DWORD PTR __real@40000000
  01367	f3 0f 11 45 f0	 movss	 DWORD PTR _sldd$[ebp], xmm0

; 1020 :    						//do not change because then all texture packs look strange
; 1021 :    	if (index == terrain_texture_river_bank_detail ) set_terrain_type_textures ( TERRAIN_TYPE_RIVER_BANK, terrain_texture_river_bank_detail, terrain_texture_river_bank_colour_pass, 8.0, sld, sldd, sl, sldd, 255, 255, 255, terrain_surface_river_bank );

  0136c	8b 45 e8	 mov	 eax, DWORD PTR _index$1[ebp]
  0136f	3b 05 00 00 00
	00		 cmp	 eax, DWORD PTR ?terrain_texture_river_bank_detail@@3HA
  01375	75 64		 jne	 SHORT $LN51@initialise
  01377	a1 00 00 00 00	 mov	 eax, DWORD PTR ?terrain_surface_river_bank@@3W4SURFACE_TYPES@@A
  0137c	50		 push	 eax
  0137d	68 ff 00 00 00	 push	 255			; 000000ffH
  01382	68 ff 00 00 00	 push	 255			; 000000ffH
  01387	68 ff 00 00 00	 push	 255			; 000000ffH
  0138c	51		 push	 ecx
  0138d	f3 0f 10 45 f0	 movss	 xmm0, DWORD PTR _sldd$[ebp]
  01392	f3 0f 11 04 24	 movss	 DWORD PTR [esp], xmm0
  01397	51		 push	 ecx
  01398	f3 0f 10 45 f8	 movss	 xmm0, DWORD PTR _sl$[ebp]
  0139d	f3 0f 11 04 24	 movss	 DWORD PTR [esp], xmm0
  013a2	51		 push	 ecx
  013a3	f3 0f 10 45 f0	 movss	 xmm0, DWORD PTR _sldd$[ebp]
  013a8	f3 0f 11 04 24	 movss	 DWORD PTR [esp], xmm0
  013ad	51		 push	 ecx
  013ae	f3 0f 10 45 f4	 movss	 xmm0, DWORD PTR _sld$[ebp]
  013b3	f3 0f 11 04 24	 movss	 DWORD PTR [esp], xmm0
  013b8	51		 push	 ecx
  013b9	f3 0f 10 05 00
	00 00 00	 movss	 xmm0, DWORD PTR __real@41000000
  013c1	f3 0f 11 04 24	 movss	 DWORD PTR [esp], xmm0
  013c6	8b 0d 00 00 00
	00		 mov	 ecx, DWORD PTR ?terrain_texture_river_bank_colour_pass@@3HA
  013cc	51		 push	 ecx
  013cd	8b 15 00 00 00
	00		 mov	 edx, DWORD PTR ?terrain_texture_river_bank_detail@@3HA
  013d3	52		 push	 edx
  013d4	6a 04		 push	 4
  013d6	e8 00 00 00 00	 call	 ?set_terrain_type_textures@@YGXHHHMMMMMHHHW4SURFACE_TYPES@@@Z ; set_terrain_type_textures
$LN51@initialise:

; 1022 : 
; 1023 : 		//VJ 051223 fixed forest side textures and scaling: index was wrong
; 1024 : 		sld = sl/2.4;

  013db	f3 0f 5a 45 f8	 cvtss2sd xmm0, DWORD PTR _sl$[ebp]
  013e0	f2 0f 5e 05 00
	00 00 00	 divsd	 xmm0, QWORD PTR __real@4003333333333333
  013e8	f2 0f 5a c0	 cvtsd2ss xmm0, xmm0
  013ec	f3 0f 11 45 f4	 movss	 DWORD PTR _sld$[ebp], xmm0

; 1025 : 		// forest sides need separate scaling
; 1026 : 		sldd = sld/4;

  013f1	f3 0f 10 45 f4	 movss	 xmm0, DWORD PTR _sld$[ebp]
  013f6	f3 0f 5e 05 00
	00 00 00	 divss	 xmm0, DWORD PTR __real@40800000
  013fe	f3 0f 11 45 f0	 movss	 DWORD PTR _sldd$[ebp], xmm0

; 1027 : 		//scale top-side forest texture between top and side
; 1028 : 		if (index == terrain_texture_forest_top_detail ) set_terrain_type_textures ( TERRAIN_TYPE_FOREST_SIDE_TOP_X, terrain_texture_forest_top_detail, terrain_texture_forest_top_colour_pass, 8.0, sld, sldd, sl, sldd, 255, 255, 255, terrain_surface_forest);

  01403	8b 45 e8	 mov	 eax, DWORD PTR _index$1[ebp]
  01406	3b 05 00 00 00
	00		 cmp	 eax, DWORD PTR ?terrain_texture_forest_top_detail@@3HA
  0140c	75 64		 jne	 SHORT $LN52@initialise
  0140e	a1 00 00 00 00	 mov	 eax, DWORD PTR ?terrain_surface_forest@@3W4SURFACE_TYPES@@A
  01413	50		 push	 eax
  01414	68 ff 00 00 00	 push	 255			; 000000ffH
  01419	68 ff 00 00 00	 push	 255			; 000000ffH
  0141e	68 ff 00 00 00	 push	 255			; 000000ffH
  01423	51		 push	 ecx
  01424	f3 0f 10 45 f0	 movss	 xmm0, DWORD PTR _sldd$[ebp]
  01429	f3 0f 11 04 24	 movss	 DWORD PTR [esp], xmm0
  0142e	51		 push	 ecx
  0142f	f3 0f 10 45 f8	 movss	 xmm0, DWORD PTR _sl$[ebp]
  01434	f3 0f 11 04 24	 movss	 DWORD PTR [esp], xmm0
  01439	51		 push	 ecx
  0143a	f3 0f 10 45 f0	 movss	 xmm0, DWORD PTR _sldd$[ebp]
  0143f	f3 0f 11 04 24	 movss	 DWORD PTR [esp], xmm0
  01444	51		 push	 ecx
  01445	f3 0f 10 45 f4	 movss	 xmm0, DWORD PTR _sld$[ebp]
  0144a	f3 0f 11 04 24	 movss	 DWORD PTR [esp], xmm0
  0144f	51		 push	 ecx
  01450	f3 0f 10 05 00
	00 00 00	 movss	 xmm0, DWORD PTR __real@41000000
  01458	f3 0f 11 04 24	 movss	 DWORD PTR [esp], xmm0
  0145d	8b 0d 00 00 00
	00		 mov	 ecx, DWORD PTR ?terrain_texture_forest_top_colour_pass@@3HA
  01463	51		 push	 ecx
  01464	8b 15 00 00 00
	00		 mov	 edx, DWORD PTR ?terrain_texture_forest_top_detail@@3HA
  0146a	52		 push	 edx
  0146b	6a 23		 push	 35			; 00000023H
  0146d	e8 00 00 00 00	 call	 ?set_terrain_type_textures@@YGXHHHMMMMMHHHW4SURFACE_TYPES@@@Z ; set_terrain_type_textures
$LN52@initialise:

; 1029 : 		if (index == terrain_texture_forest_top_detail ) set_terrain_type_textures ( TERRAIN_TYPE_FOREST_SIDE_TOP_Z, terrain_texture_forest_top_detail, terrain_texture_forest_top_colour_pass, 8.0, sld, sldd, sl, sldd, 255, 255, 255, terrain_surface_forest);

  01472	8b 45 e8	 mov	 eax, DWORD PTR _index$1[ebp]
  01475	3b 05 00 00 00
	00		 cmp	 eax, DWORD PTR ?terrain_texture_forest_top_detail@@3HA
  0147b	75 64		 jne	 SHORT $LN53@initialise
  0147d	a1 00 00 00 00	 mov	 eax, DWORD PTR ?terrain_surface_forest@@3W4SURFACE_TYPES@@A
  01482	50		 push	 eax
  01483	68 ff 00 00 00	 push	 255			; 000000ffH
  01488	68 ff 00 00 00	 push	 255			; 000000ffH
  0148d	68 ff 00 00 00	 push	 255			; 000000ffH
  01492	51		 push	 ecx
  01493	f3 0f 10 45 f0	 movss	 xmm0, DWORD PTR _sldd$[ebp]
  01498	f3 0f 11 04 24	 movss	 DWORD PTR [esp], xmm0
  0149d	51		 push	 ecx
  0149e	f3 0f 10 45 f8	 movss	 xmm0, DWORD PTR _sl$[ebp]
  014a3	f3 0f 11 04 24	 movss	 DWORD PTR [esp], xmm0
  014a8	51		 push	 ecx
  014a9	f3 0f 10 45 f0	 movss	 xmm0, DWORD PTR _sldd$[ebp]
  014ae	f3 0f 11 04 24	 movss	 DWORD PTR [esp], xmm0
  014b3	51		 push	 ecx
  014b4	f3 0f 10 45 f4	 movss	 xmm0, DWORD PTR _sld$[ebp]
  014b9	f3 0f 11 04 24	 movss	 DWORD PTR [esp], xmm0
  014be	51		 push	 ecx
  014bf	f3 0f 10 05 00
	00 00 00	 movss	 xmm0, DWORD PTR __real@41000000
  014c7	f3 0f 11 04 24	 movss	 DWORD PTR [esp], xmm0
  014cc	8b 0d 00 00 00
	00		 mov	 ecx, DWORD PTR ?terrain_texture_forest_top_colour_pass@@3HA
  014d2	51		 push	 ecx
  014d3	8b 15 00 00 00
	00		 mov	 edx, DWORD PTR ?terrain_texture_forest_top_detail@@3HA
  014d9	52		 push	 edx
  014da	6a 24		 push	 36			; 00000024H
  014dc	e8 00 00 00 00	 call	 ?set_terrain_type_textures@@YGXHHHMMMMMHHHW4SURFACE_TYPES@@@Z ; set_terrain_type_textures
$LN53@initialise:

; 1030 : 		if (index == terrain_texture_forest_middle_detail ) set_terrain_type_textures ( TERRAIN_TYPE_FOREST_SIDE_MID_X, terrain_texture_forest_middle_detail, terrain_texture_forest_middle_colour_pass, 8.0, sld, sldd, sl, sldd, 255, 255, 255, terrain_surface_forest);

  014e1	8b 45 e8	 mov	 eax, DWORD PTR _index$1[ebp]
  014e4	3b 05 00 00 00
	00		 cmp	 eax, DWORD PTR ?terrain_texture_forest_middle_detail@@3HA
  014ea	75 64		 jne	 SHORT $LN54@initialise
  014ec	a1 00 00 00 00	 mov	 eax, DWORD PTR ?terrain_surface_forest@@3W4SURFACE_TYPES@@A
  014f1	50		 push	 eax
  014f2	68 ff 00 00 00	 push	 255			; 000000ffH
  014f7	68 ff 00 00 00	 push	 255			; 000000ffH
  014fc	68 ff 00 00 00	 push	 255			; 000000ffH
  01501	51		 push	 ecx
  01502	f3 0f 10 45 f0	 movss	 xmm0, DWORD PTR _sldd$[ebp]
  01507	f3 0f 11 04 24	 movss	 DWORD PTR [esp], xmm0
  0150c	51		 push	 ecx
  0150d	f3 0f 10 45 f8	 movss	 xmm0, DWORD PTR _sl$[ebp]
  01512	f3 0f 11 04 24	 movss	 DWORD PTR [esp], xmm0
  01517	51		 push	 ecx
  01518	f3 0f 10 45 f0	 movss	 xmm0, DWORD PTR _sldd$[ebp]
  0151d	f3 0f 11 04 24	 movss	 DWORD PTR [esp], xmm0
  01522	51		 push	 ecx
  01523	f3 0f 10 45 f4	 movss	 xmm0, DWORD PTR _sld$[ebp]
  01528	f3 0f 11 04 24	 movss	 DWORD PTR [esp], xmm0
  0152d	51		 push	 ecx
  0152e	f3 0f 10 05 00
	00 00 00	 movss	 xmm0, DWORD PTR __real@41000000
  01536	f3 0f 11 04 24	 movss	 DWORD PTR [esp], xmm0
  0153b	8b 0d 00 00 00
	00		 mov	 ecx, DWORD PTR ?terrain_texture_forest_middle_colour_pass@@3HA
  01541	51		 push	 ecx
  01542	8b 15 00 00 00
	00		 mov	 edx, DWORD PTR ?terrain_texture_forest_middle_detail@@3HA
  01548	52		 push	 edx
  01549	6a 21		 push	 33			; 00000021H
  0154b	e8 00 00 00 00	 call	 ?set_terrain_type_textures@@YGXHHHMMMMMHHHW4SURFACE_TYPES@@@Z ; set_terrain_type_textures
$LN54@initialise:

; 1031 : 		if (index == terrain_texture_forest_middle_detail ) set_terrain_type_textures ( TERRAIN_TYPE_FOREST_SIDE_MID_Z, terrain_texture_forest_middle_detail, terrain_texture_forest_middle_colour_pass, 8.0, sld, sldd, sl, sldd, 255, 255, 255, terrain_surface_forest);

  01550	8b 45 e8	 mov	 eax, DWORD PTR _index$1[ebp]
  01553	3b 05 00 00 00
	00		 cmp	 eax, DWORD PTR ?terrain_texture_forest_middle_detail@@3HA
  01559	75 64		 jne	 SHORT $LN55@initialise
  0155b	a1 00 00 00 00	 mov	 eax, DWORD PTR ?terrain_surface_forest@@3W4SURFACE_TYPES@@A
  01560	50		 push	 eax
  01561	68 ff 00 00 00	 push	 255			; 000000ffH
  01566	68 ff 00 00 00	 push	 255			; 000000ffH
  0156b	68 ff 00 00 00	 push	 255			; 000000ffH
  01570	51		 push	 ecx
  01571	f3 0f 10 45 f0	 movss	 xmm0, DWORD PTR _sldd$[ebp]
  01576	f3 0f 11 04 24	 movss	 DWORD PTR [esp], xmm0
  0157b	51		 push	 ecx
  0157c	f3 0f 10 45 f8	 movss	 xmm0, DWORD PTR _sl$[ebp]
  01581	f3 0f 11 04 24	 movss	 DWORD PTR [esp], xmm0
  01586	51		 push	 ecx
  01587	f3 0f 10 45 f0	 movss	 xmm0, DWORD PTR _sldd$[ebp]
  0158c	f3 0f 11 04 24	 movss	 DWORD PTR [esp], xmm0
  01591	51		 push	 ecx
  01592	f3 0f 10 45 f4	 movss	 xmm0, DWORD PTR _sld$[ebp]
  01597	f3 0f 11 04 24	 movss	 DWORD PTR [esp], xmm0
  0159c	51		 push	 ecx
  0159d	f3 0f 10 05 00
	00 00 00	 movss	 xmm0, DWORD PTR __real@41000000
  015a5	f3 0f 11 04 24	 movss	 DWORD PTR [esp], xmm0
  015aa	8b 0d 00 00 00
	00		 mov	 ecx, DWORD PTR ?terrain_texture_forest_middle_colour_pass@@3HA
  015b0	51		 push	 ecx
  015b1	8b 15 00 00 00
	00		 mov	 edx, DWORD PTR ?terrain_texture_forest_middle_detail@@3HA
  015b7	52		 push	 edx
  015b8	6a 22		 push	 34			; 00000022H
  015ba	e8 00 00 00 00	 call	 ?set_terrain_type_textures@@YGXHHHMMMMMHHHW4SURFACE_TYPES@@@Z ; set_terrain_type_textures
$LN55@initialise:

; 1032 : 		if (index == terrain_texture_forest_bottom_detail ) set_terrain_type_textures ( TERRAIN_TYPE_FOREST_SIDE_BOTTOM_X, terrain_texture_forest_bottom_detail, terrain_texture_forest_bottom_colour_pass, 8.0, sld, sldd, sl, sldd, 255, 255, 255, terrain_surface_forest);

  015bf	8b 45 e8	 mov	 eax, DWORD PTR _index$1[ebp]
  015c2	3b 05 00 00 00
	00		 cmp	 eax, DWORD PTR ?terrain_texture_forest_bottom_detail@@3HA
  015c8	75 64		 jne	 SHORT $LN56@initialise
  015ca	a1 00 00 00 00	 mov	 eax, DWORD PTR ?terrain_surface_forest@@3W4SURFACE_TYPES@@A
  015cf	50		 push	 eax
  015d0	68 ff 00 00 00	 push	 255			; 000000ffH
  015d5	68 ff 00 00 00	 push	 255			; 000000ffH
  015da	68 ff 00 00 00	 push	 255			; 000000ffH
  015df	51		 push	 ecx
  015e0	f3 0f 10 45 f0	 movss	 xmm0, DWORD PTR _sldd$[ebp]
  015e5	f3 0f 11 04 24	 movss	 DWORD PTR [esp], xmm0
  015ea	51		 push	 ecx
  015eb	f3 0f 10 45 f8	 movss	 xmm0, DWORD PTR _sl$[ebp]
  015f0	f3 0f 11 04 24	 movss	 DWORD PTR [esp], xmm0
  015f5	51		 push	 ecx
  015f6	f3 0f 10 45 f0	 movss	 xmm0, DWORD PTR _sldd$[ebp]
  015fb	f3 0f 11 04 24	 movss	 DWORD PTR [esp], xmm0
  01600	51		 push	 ecx
  01601	f3 0f 10 45 f4	 movss	 xmm0, DWORD PTR _sld$[ebp]
  01606	f3 0f 11 04 24	 movss	 DWORD PTR [esp], xmm0
  0160b	51		 push	 ecx
  0160c	f3 0f 10 05 00
	00 00 00	 movss	 xmm0, DWORD PTR __real@41000000
  01614	f3 0f 11 04 24	 movss	 DWORD PTR [esp], xmm0
  01619	8b 0d 00 00 00
	00		 mov	 ecx, DWORD PTR ?terrain_texture_forest_bottom_colour_pass@@3HA
  0161f	51		 push	 ecx
  01620	8b 15 00 00 00
	00		 mov	 edx, DWORD PTR ?terrain_texture_forest_bottom_detail@@3HA
  01626	52		 push	 edx
  01627	6a 1f		 push	 31			; 0000001fH
  01629	e8 00 00 00 00	 call	 ?set_terrain_type_textures@@YGXHHHMMMMMHHHW4SURFACE_TYPES@@@Z ; set_terrain_type_textures
$LN56@initialise:

; 1033 : 		if (index == terrain_texture_forest_bottom_detail ) set_terrain_type_textures ( TERRAIN_TYPE_FOREST_SIDE_BOTTOM_Z, terrain_texture_forest_bottom_detail, terrain_texture_forest_bottom_colour_pass, 8.0, sld, sldd, sl, sldd, 255, 255, 255, terrain_surface_forest);

  0162e	8b 45 e8	 mov	 eax, DWORD PTR _index$1[ebp]
  01631	3b 05 00 00 00
	00		 cmp	 eax, DWORD PTR ?terrain_texture_forest_bottom_detail@@3HA
  01637	75 64		 jne	 SHORT $LN57@initialise
  01639	a1 00 00 00 00	 mov	 eax, DWORD PTR ?terrain_surface_forest@@3W4SURFACE_TYPES@@A
  0163e	50		 push	 eax
  0163f	68 ff 00 00 00	 push	 255			; 000000ffH
  01644	68 ff 00 00 00	 push	 255			; 000000ffH
  01649	68 ff 00 00 00	 push	 255			; 000000ffH
  0164e	51		 push	 ecx
  0164f	f3 0f 10 45 f0	 movss	 xmm0, DWORD PTR _sldd$[ebp]
  01654	f3 0f 11 04 24	 movss	 DWORD PTR [esp], xmm0
  01659	51		 push	 ecx
  0165a	f3 0f 10 45 f8	 movss	 xmm0, DWORD PTR _sl$[ebp]
  0165f	f3 0f 11 04 24	 movss	 DWORD PTR [esp], xmm0
  01664	51		 push	 ecx
  01665	f3 0f 10 45 f0	 movss	 xmm0, DWORD PTR _sldd$[ebp]
  0166a	f3 0f 11 04 24	 movss	 DWORD PTR [esp], xmm0
  0166f	51		 push	 ecx
  01670	f3 0f 10 45 f4	 movss	 xmm0, DWORD PTR _sld$[ebp]
  01675	f3 0f 11 04 24	 movss	 DWORD PTR [esp], xmm0
  0167a	51		 push	 ecx
  0167b	f3 0f 10 05 00
	00 00 00	 movss	 xmm0, DWORD PTR __real@41000000
  01683	f3 0f 11 04 24	 movss	 DWORD PTR [esp], xmm0
  01688	8b 0d 00 00 00
	00		 mov	 ecx, DWORD PTR ?terrain_texture_forest_bottom_colour_pass@@3HA
  0168e	51		 push	 ecx
  0168f	8b 15 00 00 00
	00		 mov	 edx, DWORD PTR ?terrain_texture_forest_bottom_detail@@3HA
  01695	52		 push	 edx
  01696	6a 20		 push	 32			; 00000020H
  01698	e8 00 00 00 00	 call	 ?set_terrain_type_textures@@YGXHHHMMMMMHHHW4SURFACE_TYPES@@@Z ; set_terrain_type_textures
$LN57@initialise:

; 1034 : 
; 1035 : 		//VJ 051001 dynamic water textures
; 1036 : 		if (global_dynamic_water)

  0169d	83 3d 00 00 00
	00 00		 cmp	 DWORD PTR ?global_dynamic_water@@3HA, 0 ; global_dynamic_water
  016a4	0f 84 ef 02 00
	00		 je	 $LN62@initialise

; 1037 : 		{
; 1038 : 			delay_count++;

  016aa	a1 00 00 00 00	 mov	 eax, DWORD PTR ?delay_count@@3HA
  016af	83 c0 01	 add	 eax, 1
  016b2	a3 00 00 00 00	 mov	 DWORD PTR ?delay_count@@3HA, eax

; 1039 : 			if (delay_count == 50000)

  016b7	81 3d 00 00 00
	00 50 c3 00 00	 cmp	 DWORD PTR ?delay_count@@3HA, 50000 ; 0000c350H
  016c1	75 0a		 jne	 SHORT $LN59@initialise

; 1040 : 				delay_count = 0;

  016c3	c7 05 00 00 00
	00 00 00 00 00	 mov	 DWORD PTR ?delay_count@@3HA, 0
$LN59@initialise:

; 1041 : 
; 1042 : 			// change sea textures
; 1043 : 			if (delay_count % current_map_info.water_info[1].delay == 0)

  016cd	b9 20 01 00 00	 mov	 ecx, 288		; 00000120H
  016d2	c1 e1 00	 shl	 ecx, 0
  016d5	a1 00 00 00 00	 mov	 eax, DWORD PTR ?delay_count@@3HA
  016da	99		 cdq
  016db	f7 b9 08 00 00
	00		 idiv	 DWORD PTR ?current_map_info@@3UCUSTOM_MAP_INFO@@A[ecx+8]
  016e1	85 d2		 test	 edx, edx
  016e3	75 0d		 jne	 SHORT $LN60@initialise

; 1044 : 				change_sea_texture++;

  016e5	a1 00 00 00 00	 mov	 eax, DWORD PTR ?change_sea_texture@@3HA
  016ea	83 c0 01	 add	 eax, 1
  016ed	a3 00 00 00 00	 mov	 DWORD PTR ?change_sea_texture@@3HA, eax
$LN60@initialise:

; 1045 : 			if (change_sea_texture == current_map_info.water_info[1].number)

  016f2	b8 20 01 00 00	 mov	 eax, 288		; 00000120H
  016f7	c1 e0 00	 shl	 eax, 0
  016fa	8b 0d 00 00 00
	00		 mov	 ecx, DWORD PTR ?change_sea_texture@@3HA
  01700	3b 88 04 00 00
	00		 cmp	 ecx, DWORD PTR ?current_map_info@@3UCUSTOM_MAP_INFO@@A[eax+4]
  01706	75 0a		 jne	 SHORT $LN61@initialise

; 1046 : 				change_sea_texture = 0;

  01708	c7 05 00 00 00
	00 00 00 00 00	 mov	 DWORD PTR ?change_sea_texture@@3HA, 0
$LN61@initialise:

; 1047 : 			sl = current_map_info.water_info[1].scale_bottom;

  01712	b8 20 01 00 00	 mov	 eax, 288		; 00000120H
  01717	c1 e0 00	 shl	 eax, 0
  0171a	f3 0f 2a 80 10
	00 00 00	 cvtsi2ss xmm0, DWORD PTR ?current_map_info@@3UCUSTOM_MAP_INFO@@A[eax+16]
  01722	f3 0f 11 45 f8	 movss	 DWORD PTR _sl$[ebp], xmm0

; 1048 : 			sld = current_map_info.water_info[1].scale_top;

  01727	b8 20 01 00 00	 mov	 eax, 288		; 00000120H
  0172c	c1 e0 00	 shl	 eax, 0
  0172f	f3 0f 2a 80 0c
	00 00 00	 cvtsi2ss xmm0, DWORD PTR ?current_map_info@@3UCUSTOM_MAP_INFO@@A[eax+12]
  01737	f3 0f 11 45 f4	 movss	 DWORD PTR _sld$[ebp], xmm0

; 1049 : 			set_terrain_type_textures ( TERRAIN_TYPE_SEA,

  0173c	a1 00 00 00 00	 mov	 eax, DWORD PTR ?terrain_surface_sea@@3W4SURFACE_TYPES@@A
  01741	50		 push	 eax
  01742	68 ff 00 00 00	 push	 255			; 000000ffH
  01747	68 ff 00 00 00	 push	 255			; 000000ffH
  0174c	68 ff 00 00 00	 push	 255			; 000000ffH
  01751	51		 push	 ecx
  01752	f3 0f 10 45 f8	 movss	 xmm0, DWORD PTR _sl$[ebp]
  01757	f3 0f 11 04 24	 movss	 DWORD PTR [esp], xmm0
  0175c	51		 push	 ecx
  0175d	f3 0f 10 45 f8	 movss	 xmm0, DWORD PTR _sl$[ebp]
  01762	f3 0f 11 04 24	 movss	 DWORD PTR [esp], xmm0
  01767	51		 push	 ecx
  01768	f3 0f 10 45 f4	 movss	 xmm0, DWORD PTR _sld$[ebp]
  0176d	f3 0f 11 04 24	 movss	 DWORD PTR [esp], xmm0
  01772	51		 push	 ecx
  01773	f3 0f 10 45 f4	 movss	 xmm0, DWORD PTR _sld$[ebp]
  01778	f3 0f 11 04 24	 movss	 DWORD PTR [esp], xmm0
  0177d	51		 push	 ecx
  0177e	f3 0f 10 05 00
	00 00 00	 movss	 xmm0, DWORD PTR __real@3f800000
  01786	f3 0f 11 04 24	 movss	 DWORD PTR [esp], xmm0
  0178b	b9 20 01 00 00	 mov	 ecx, 288		; 00000120H
  01790	c1 e1 00	 shl	 ecx, 0
  01793	8b 91 1c 00 00
	00		 mov	 edx, DWORD PTR ?current_map_info@@3UCUSTOM_MAP_INFO@@A[ecx+28]
  01799	a1 00 00 00 00	 mov	 eax, DWORD PTR ?change_sea_texture@@3HA
  0179e	8d 4c 02 01	 lea	 ecx, DWORD PTR [edx+eax+1]
  017a2	51		 push	 ecx
  017a3	ba 20 01 00 00	 mov	 edx, 288		; 00000120H
  017a8	c1 e2 00	 shl	 edx, 0
  017ab	8b 82 1c 00 00
	00		 mov	 eax, DWORD PTR ?current_map_info@@3UCUSTOM_MAP_INFO@@A[edx+28]
  017b1	50		 push	 eax
  017b2	6a 07		 push	 7
  017b4	e8 00 00 00 00	 call	 ?set_terrain_type_textures@@YGXHHHMMMMMHHHW4SURFACE_TYPES@@@Z ; set_terrain_type_textures

; 1050 : 					current_map_info.water_info[1].placenr,
; 1051 : 					current_map_info.water_info[1].placenr+1+change_sea_texture,
; 1052 : 					1.0, sld, sld, sl, sl, 255,255,255, terrain_surface_sea );
; 1053 : 
; 1054 : 
; 1055 : 			//desert campaigns can be dry, no flowing water on land, user should apply appropriate textures
; 1056 : 			if (!current_map_info.dry_river)

  017b9	83 3d 60 03 00
	00 00		 cmp	 DWORD PTR ?current_map_info@@3UCUSTOM_MAP_INFO@@A+864, 0
  017c0	0f 85 d3 01 00
	00		 jne	 $LN62@initialise

; 1057 : 			{
; 1058 : 				// river textures
; 1059 : 				if (delay_count % current_map_info.water_info[0].delay == 0)

  017c6	b8 20 01 00 00	 mov	 eax, 288		; 00000120H
  017cb	6b c8 00	 imul	 ecx, eax, 0
  017ce	a1 00 00 00 00	 mov	 eax, DWORD PTR ?delay_count@@3HA
  017d3	99		 cdq
  017d4	f7 b9 08 00 00
	00		 idiv	 DWORD PTR ?current_map_info@@3UCUSTOM_MAP_INFO@@A[ecx+8]
  017da	85 d2		 test	 edx, edx
  017dc	75 0d		 jne	 SHORT $LN63@initialise

; 1060 : 					change_river_texture++;

  017de	a1 00 00 00 00	 mov	 eax, DWORD PTR ?change_river_texture@@3HA
  017e3	83 c0 01	 add	 eax, 1
  017e6	a3 00 00 00 00	 mov	 DWORD PTR ?change_river_texture@@3HA, eax
$LN63@initialise:

; 1061 : 				if (change_river_texture == current_map_info.water_info[0].number)

  017eb	b8 20 01 00 00	 mov	 eax, 288		; 00000120H
  017f0	6b c8 00	 imul	 ecx, eax, 0
  017f3	8b 15 00 00 00
	00		 mov	 edx, DWORD PTR ?change_river_texture@@3HA
  017f9	3b 91 04 00 00
	00		 cmp	 edx, DWORD PTR ?current_map_info@@3UCUSTOM_MAP_INFO@@A[ecx+4]
  017ff	75 0a		 jne	 SHORT $LN64@initialise

; 1062 : 					change_river_texture = 0;

  01801	c7 05 00 00 00
	00 00 00 00 00	 mov	 DWORD PTR ?change_river_texture@@3HA, 0
$LN64@initialise:

; 1063 : 				//	start_of_river_textures = first bottom texture, start_of_river_textures+1 is the start of the transparent changing textures
; 1064 : 				sl = current_map_info.water_info[0].scale_bottom;

  0180b	b8 20 01 00 00	 mov	 eax, 288		; 00000120H
  01810	6b c8 00	 imul	 ecx, eax, 0
  01813	f3 0f 2a 81 10
	00 00 00	 cvtsi2ss xmm0, DWORD PTR ?current_map_info@@3UCUSTOM_MAP_INFO@@A[ecx+16]
  0181b	f3 0f 11 45 f8	 movss	 DWORD PTR _sl$[ebp], xmm0

; 1065 : 				sld = current_map_info.water_info[0].scale_top;

  01820	b8 20 01 00 00	 mov	 eax, 288		; 00000120H
  01825	6b c8 00	 imul	 ecx, eax, 0
  01828	f3 0f 2a 81 0c
	00 00 00	 cvtsi2ss xmm0, DWORD PTR ?current_map_info@@3UCUSTOM_MAP_INFO@@A[ecx+12]
  01830	f3 0f 11 45 f4	 movss	 DWORD PTR _sld$[ebp], xmm0

; 1066 : 				set_terrain_type_textures ( TERRAIN_TYPE_RIVER,

  01835	a1 00 00 00 00	 mov	 eax, DWORD PTR ?terrain_surface_river@@3W4SURFACE_TYPES@@A
  0183a	50		 push	 eax
  0183b	68 ff 00 00 00	 push	 255			; 000000ffH
  01840	68 ff 00 00 00	 push	 255			; 000000ffH
  01845	68 ff 00 00 00	 push	 255			; 000000ffH
  0184a	51		 push	 ecx
  0184b	f3 0f 10 45 f8	 movss	 xmm0, DWORD PTR _sl$[ebp]
  01850	f3 0f 11 04 24	 movss	 DWORD PTR [esp], xmm0
  01855	51		 push	 ecx
  01856	f3 0f 10 45 f8	 movss	 xmm0, DWORD PTR _sl$[ebp]
  0185b	f3 0f 11 04 24	 movss	 DWORD PTR [esp], xmm0
  01860	51		 push	 ecx
  01861	f3 0f 10 45 f4	 movss	 xmm0, DWORD PTR _sld$[ebp]
  01866	f3 0f 11 04 24	 movss	 DWORD PTR [esp], xmm0
  0186b	51		 push	 ecx
  0186c	f3 0f 10 45 f4	 movss	 xmm0, DWORD PTR _sld$[ebp]
  01871	f3 0f 11 04 24	 movss	 DWORD PTR [esp], xmm0
  01876	51		 push	 ecx
  01877	f3 0f 10 05 00
	00 00 00	 movss	 xmm0, DWORD PTR __real@3f800000
  0187f	f3 0f 11 04 24	 movss	 DWORD PTR [esp], xmm0
  01884	b9 20 01 00 00	 mov	 ecx, 288		; 00000120H
  01889	6b d1 00	 imul	 edx, ecx, 0
  0188c	8b 82 1c 00 00
	00		 mov	 eax, DWORD PTR ?current_map_info@@3UCUSTOM_MAP_INFO@@A[edx+28]
  01892	8b 0d 00 00 00
	00		 mov	 ecx, DWORD PTR ?change_river_texture@@3HA
  01898	8d 54 08 01	 lea	 edx, DWORD PTR [eax+ecx+1]
  0189c	52		 push	 edx
  0189d	b8 20 01 00 00	 mov	 eax, 288		; 00000120H
  018a2	6b c8 00	 imul	 ecx, eax, 0
  018a5	8b 91 1c 00 00
	00		 mov	 edx, DWORD PTR ?current_map_info@@3UCUSTOM_MAP_INFO@@A[ecx+28]
  018ab	52		 push	 edx
  018ac	6a 01		 push	 1
  018ae	e8 00 00 00 00	 call	 ?set_terrain_type_textures@@YGXHHHMMMMMHHHW4SURFACE_TYPES@@@Z ; set_terrain_type_textures

; 1067 : 						current_map_info.water_info[0].placenr,
; 1068 : 						current_map_info.water_info[0].placenr+1+change_river_texture,
; 1069 : 						1.0, sld, sld, sl, sl, 255,255,255, terrain_surface_river );
; 1070 : 
; 1071 : 				//reservoir textures
; 1072 : 				if (delay_count % current_map_info.water_info[2].delay == 0)

  018b3	b9 20 01 00 00	 mov	 ecx, 288		; 00000120H
  018b8	d1 e1		 shl	 ecx, 1
  018ba	a1 00 00 00 00	 mov	 eax, DWORD PTR ?delay_count@@3HA
  018bf	99		 cdq
  018c0	f7 b9 08 00 00
	00		 idiv	 DWORD PTR ?current_map_info@@3UCUSTOM_MAP_INFO@@A[ecx+8]
  018c6	85 d2		 test	 edx, edx
  018c8	75 0d		 jne	 SHORT $LN65@initialise

; 1073 : 					change_reservoir_texture++;

  018ca	a1 00 00 00 00	 mov	 eax, DWORD PTR ?change_reservoir_texture@@3HA
  018cf	83 c0 01	 add	 eax, 1
  018d2	a3 00 00 00 00	 mov	 DWORD PTR ?change_reservoir_texture@@3HA, eax
$LN65@initialise:

; 1074 : 					// Casm 19AUG05 - Reservoir here, not sea
; 1075 : 				if (change_reservoir_texture == current_map_info.water_info[2].number)

  018d7	b8 20 01 00 00	 mov	 eax, 288		; 00000120H
  018dc	d1 e0		 shl	 eax, 1
  018de	8b 0d 00 00 00
	00		 mov	 ecx, DWORD PTR ?change_reservoir_texture@@3HA
  018e4	3b 88 04 00 00
	00		 cmp	 ecx, DWORD PTR ?current_map_info@@3UCUSTOM_MAP_INFO@@A[eax+4]
  018ea	75 0a		 jne	 SHORT $LN66@initialise

; 1076 : 					change_reservoir_texture = 0;

  018ec	c7 05 00 00 00
	00 00 00 00 00	 mov	 DWORD PTR ?change_reservoir_texture@@3HA, 0
$LN66@initialise:

; 1077 : 				sl = current_map_info.water_info[2].scale_bottom;

  018f6	b8 20 01 00 00	 mov	 eax, 288		; 00000120H
  018fb	d1 e0		 shl	 eax, 1
  018fd	f3 0f 2a 80 10
	00 00 00	 cvtsi2ss xmm0, DWORD PTR ?current_map_info@@3UCUSTOM_MAP_INFO@@A[eax+16]
  01905	f3 0f 11 45 f8	 movss	 DWORD PTR _sl$[ebp], xmm0

; 1078 : 				sld = current_map_info.water_info[2].scale_top;

  0190a	b8 20 01 00 00	 mov	 eax, 288		; 00000120H
  0190f	d1 e0		 shl	 eax, 1
  01911	f3 0f 2a 80 0c
	00 00 00	 cvtsi2ss xmm0, DWORD PTR ?current_map_info@@3UCUSTOM_MAP_INFO@@A[eax+12]
  01919	f3 0f 11 45 f4	 movss	 DWORD PTR _sld$[ebp], xmm0

; 1079 : 				set_terrain_type_textures ( TERRAIN_TYPE_RESERVOIR,

  0191e	a1 00 00 00 00	 mov	 eax, DWORD PTR ?terrain_surface_reservoir@@3W4SURFACE_TYPES@@A
  01923	50		 push	 eax
  01924	68 ff 00 00 00	 push	 255			; 000000ffH
  01929	68 ff 00 00 00	 push	 255			; 000000ffH
  0192e	68 ff 00 00 00	 push	 255			; 000000ffH
  01933	51		 push	 ecx
  01934	f3 0f 10 45 f8	 movss	 xmm0, DWORD PTR _sl$[ebp]
  01939	f3 0f 11 04 24	 movss	 DWORD PTR [esp], xmm0
  0193e	51		 push	 ecx
  0193f	f3 0f 10 45 f8	 movss	 xmm0, DWORD PTR _sl$[ebp]
  01944	f3 0f 11 04 24	 movss	 DWORD PTR [esp], xmm0
  01949	51		 push	 ecx
  0194a	f3 0f 10 45 f4	 movss	 xmm0, DWORD PTR _sld$[ebp]
  0194f	f3 0f 11 04 24	 movss	 DWORD PTR [esp], xmm0
  01954	51		 push	 ecx
  01955	f3 0f 10 45 f4	 movss	 xmm0, DWORD PTR _sld$[ebp]
  0195a	f3 0f 11 04 24	 movss	 DWORD PTR [esp], xmm0
  0195f	51		 push	 ecx
  01960	f3 0f 10 05 00
	00 00 00	 movss	 xmm0, DWORD PTR __real@3f800000
  01968	f3 0f 11 04 24	 movss	 DWORD PTR [esp], xmm0
  0196d	b9 20 01 00 00	 mov	 ecx, 288		; 00000120H
  01972	d1 e1		 shl	 ecx, 1
  01974	8b 91 1c 00 00
	00		 mov	 edx, DWORD PTR ?current_map_info@@3UCUSTOM_MAP_INFO@@A[ecx+28]
  0197a	a1 00 00 00 00	 mov	 eax, DWORD PTR ?change_reservoir_texture@@3HA
  0197f	8d 4c 02 01	 lea	 ecx, DWORD PTR [edx+eax+1]
  01983	51		 push	 ecx
  01984	ba 20 01 00 00	 mov	 edx, 288		; 00000120H
  01989	d1 e2		 shl	 edx, 1
  0198b	8b 82 1c 00 00
	00		 mov	 eax, DWORD PTR ?current_map_info@@3UCUSTOM_MAP_INFO@@A[edx+28]
  01991	50		 push	 eax
  01992	6a 02		 push	 2
  01994	e8 00 00 00 00	 call	 ?set_terrain_type_textures@@YGXHHHMMMMMHHHW4SURFACE_TYPES@@@Z ; set_terrain_type_textures
$LN62@initialise:

; 1080 : 						current_map_info.water_info[2].placenr,
; 1081 : 						current_map_info.water_info[2].placenr+1+change_reservoir_texture,
; 1082 : 						1.0, sld, sld, sl, sl, 255,255,255, terrain_surface_reservoir );
; 1083 : 			}
; 1084 : 		}
; 1085 : 	}
; 1086 : }

  01999	e9 88 e6 ff ff	 jmp	 $LN2@initialise
$LN3@initialise:
  0199e	5f		 pop	 edi
  0199f	5e		 pop	 esi
  019a0	5b		 pop	 ebx
  019a1	8b e5		 mov	 esp, ebp
  019a3	5d		 pop	 ebp
  019a4	c3		 ret	 0
?initialise_3d_custom_terrain_types@@YGXXZ ENDP		; initialise_3d_custom_terrain_types
_TEXT	ENDS
; Function compile flags: /Odtp /ZI
; File c:\users\nhv90\projects\eech\modules\3d\terrain\terrtype.c
;	COMDAT ?initialise_3d_mars_terrain_types@@YGXXZ
_TEXT	SEGMENT
_reflection_texture_index$ = -40			; size = 4
_contour_heights$ = -36					; size = 36
?initialise_3d_mars_terrain_types@@YGXXZ PROC		; initialise_3d_mars_terrain_types, COMDAT

; 3077 : {

  00000	55		 push	 ebp
  00001	8b ec		 mov	 ebp, esp
  00003	83 ec 68	 sub	 esp, 104		; 00000068H
  00006	53		 push	 ebx
  00007	56		 push	 esi
  00008	57		 push	 edi

; 3078 : 
; 3079 : 	float
; 3080 : 		contour_heights[] =
; 3081 : 		{
; 3082 : 			1100,

  00009	f3 0f 10 05 00
	00 00 00	 movss	 xmm0, DWORD PTR __real@44898000
  00011	f3 0f 11 45 dc	 movss	 DWORD PTR _contour_heights$[ebp], xmm0

; 3083 : 			1128,

  00016	f3 0f 10 05 00
	00 00 00	 movss	 xmm0, DWORD PTR __real@448d0000
  0001e	f3 0f 11 45 e0	 movss	 DWORD PTR _contour_heights$[ebp+4], xmm0

; 3084 : 			1227,

  00023	f3 0f 10 05 00
	00 00 00	 movss	 xmm0, DWORD PTR __real@44996000
  0002b	f3 0f 11 45 e4	 movss	 DWORD PTR _contour_heights$[ebp+8], xmm0

; 3085 : 			1327,

  00030	f3 0f 10 05 00
	00 00 00	 movss	 xmm0, DWORD PTR __real@44a5e000
  00038	f3 0f 11 45 e8	 movss	 DWORD PTR _contour_heights$[ebp+12], xmm0

; 3086 : 			1527,

  0003d	f3 0f 10 05 00
	00 00 00	 movss	 xmm0, DWORD PTR __real@44bee000
  00045	f3 0f 11 45 ec	 movss	 DWORD PTR _contour_heights$[ebp+16], xmm0

; 3087 : 			1827,

  0004a	f3 0f 10 05 00
	00 00 00	 movss	 xmm0, DWORD PTR __real@44e46000
  00052	f3 0f 11 45 f0	 movss	 DWORD PTR _contour_heights$[ebp+20], xmm0

; 3088 : 			2200,

  00057	f3 0f 10 05 00
	00 00 00	 movss	 xmm0, DWORD PTR __real@45098000
  0005f	f3 0f 11 45 f4	 movss	 DWORD PTR _contour_heights$[ebp+24], xmm0

; 3089 : 			2600,

  00064	f3 0f 10 05 00
	00 00 00	 movss	 xmm0, DWORD PTR __real@45228000
  0006c	f3 0f 11 45 f8	 movss	 DWORD PTR _contour_heights$[ebp+28], xmm0

; 3090 : 			3298,

  00071	f3 0f 10 05 00
	00 00 00	 movss	 xmm0, DWORD PTR __real@454e2000
  00079	f3 0f 11 45 fc	 movss	 DWORD PTR _contour_heights$[ebp+32], xmm0

; 3091 : 		};
; 3092 : 
; 3093 : 	int
; 3094 : 		reflection_texture_index;
; 3095 : 
; 3096 : 	set_3d_rain_special_snow_flag ( FALSE ); //????

  0007e	6a 00		 push	 0
  00080	e8 00 00 00 00	 call	 ?set_3d_rain_special_snow_flag@@YGXH@Z ; set_3d_rain_special_snow_flag

; 3097 : 
; 3098 : 	terrain_texture_land_detail								= get_system_texture_index ( "TERRAIN_HIGHLAND" );

  00085	68 00 00 00 00	 push	 OFFSET ??_C@_0BB@NLCHJFOM@TERRAIN_HIGHLAND@
  0008a	e8 00 00 00 00	 call	 ?get_system_texture_index@@YGHPBD@Z ; get_system_texture_index
  0008f	a3 00 00 00 00	 mov	 DWORD PTR ?terrain_texture_land_detail@@3HA, eax

; 3099 : 	terrain_texture_land_colour_pass							= get_system_texture_index ( "COLOUR_PASS_SWAMP" );

  00094	68 00 00 00 00	 push	 OFFSET ??_C@_0BC@GNMAAAJL@COLOUR_PASS_SWAMP@
  00099	e8 00 00 00 00	 call	 ?get_system_texture_index@@YGHPBD@Z ; get_system_texture_index
  0009e	a3 00 00 00 00	 mov	 DWORD PTR ?terrain_texture_land_colour_pass@@3HA, eax

; 3100 : 
; 3101 : 	terrain_texture_road_detail								= get_system_texture_index ( "TERRAIN_DETAIL_ROAD" );

  000a3	68 00 00 00 00	 push	 OFFSET ??_C@_0BE@EOMJEIPI@TERRAIN_DETAIL_ROAD@
  000a8	e8 00 00 00 00	 call	 ?get_system_texture_index@@YGHPBD@Z ; get_system_texture_index
  000ad	a3 00 00 00 00	 mov	 DWORD PTR ?terrain_texture_road_detail@@3HA, eax

; 3102 : 	terrain_texture_road_colour_pass							= get_system_texture_index ( "COLOUR_PASS_WALL" );      //TERRAIN_THAI_TRACK" );

  000b2	68 00 00 00 00	 push	 OFFSET ??_C@_0BB@OHLOCNHA@COLOUR_PASS_WALL@
  000b7	e8 00 00 00 00	 call	 ?get_system_texture_index@@YGHPBD@Z ; get_system_texture_index
  000bc	a3 00 00 00 00	 mov	 DWORD PTR ?terrain_texture_road_colour_pass@@3HA, eax

; 3103 : 	terrain_texture_track_detail								= get_system_texture_index ( "TERRAIN_DETAIL_ROAD" );

  000c1	68 00 00 00 00	 push	 OFFSET ??_C@_0BE@EOMJEIPI@TERRAIN_DETAIL_ROAD@
  000c6	e8 00 00 00 00	 call	 ?get_system_texture_index@@YGHPBD@Z ; get_system_texture_index
  000cb	a3 00 00 00 00	 mov	 DWORD PTR ?terrain_texture_track_detail@@3HA, eax

; 3104 : 	terrain_texture_track_colour_pass						= get_system_texture_index ( "COLOUR_PASS_YEMEN_BAKED2" );

  000d0	68 00 00 00 00	 push	 OFFSET ??_C@_0BJ@OILJFHJP@COLOUR_PASS_YEMEN_BAKED2@
  000d5	e8 00 00 00 00	 call	 ?get_system_texture_index@@YGHPBD@Z ; get_system_texture_index
  000da	a3 00 00 00 00	 mov	 DWORD PTR ?terrain_texture_track_colour_pass@@3HA, eax

; 3105 : 	terrain_texture_road_bank_detail							= get_system_texture_index ( "TERRAIN_DETAIL_4" );

  000df	68 00 00 00 00	 push	 OFFSET ??_C@_0BB@BDNEEDDA@TERRAIN_DETAIL_4@
  000e4	e8 00 00 00 00	 call	 ?get_system_texture_index@@YGHPBD@Z ; get_system_texture_index
  000e9	a3 00 00 00 00	 mov	 DWORD PTR ?terrain_texture_road_bank_detail@@3HA, eax

; 3106 : 	terrain_texture_road_bank_colour_pass					= get_system_texture_index ( "COLOUR_PASS_YEMEN_BAKED2" );

  000ee	68 00 00 00 00	 push	 OFFSET ??_C@_0BJ@OILJFHJP@COLOUR_PASS_YEMEN_BAKED2@
  000f3	e8 00 00 00 00	 call	 ?get_system_texture_index@@YGHPBD@Z ; get_system_texture_index
  000f8	a3 00 00 00 00	 mov	 DWORD PTR ?terrain_texture_road_bank_colour_pass@@3HA, eax

; 3107 : 	terrain_texture_altered_land1_detail					= get_system_texture_index ( "TERRAIN_SCRUB" );

  000fd	68 00 00 00 00	 push	 OFFSET ??_C@_0O@PGGFIOAG@TERRAIN_SCRUB@
  00102	e8 00 00 00 00	 call	 ?get_system_texture_index@@YGHPBD@Z ; get_system_texture_index
  00107	a3 00 00 00 00	 mov	 DWORD PTR ?terrain_texture_altered_land1_detail@@3HA, eax

; 3108 : 	terrain_texture_altered_land1_colour_pass				= get_system_texture_index ( "COLOUR_PASS_MOUNTAINS" );

  0010c	68 00 00 00 00	 push	 OFFSET ??_C@_0BG@IGFCFCHF@COLOUR_PASS_MOUNTAINS@
  00111	e8 00 00 00 00	 call	 ?get_system_texture_index@@YGHPBD@Z ; get_system_texture_index
  00116	a3 00 00 00 00	 mov	 DWORD PTR ?terrain_texture_altered_land1_colour_pass@@3HA, eax

; 3109 : 	terrain_texture_altered_land2_detail					= get_system_texture_index ( "TERRAIN_BARE_ROCK2" );

  0011b	68 00 00 00 00	 push	 OFFSET ??_C@_0BD@BMPINLKM@TERRAIN_BARE_ROCK2@
  00120	e8 00 00 00 00	 call	 ?get_system_texture_index@@YGHPBD@Z ; get_system_texture_index
  00125	a3 00 00 00 00	 mov	 DWORD PTR ?terrain_texture_altered_land2_detail@@3HA, eax

; 3110 : 	terrain_texture_altered_land2_colour_pass				= get_system_texture_index ( "COLOUR_PASS_ROCK" );

  0012a	68 00 00 00 00	 push	 OFFSET ??_C@_0BB@ILJMAEMJ@COLOUR_PASS_ROCK@
  0012f	e8 00 00 00 00	 call	 ?get_system_texture_index@@YGHPBD@Z ; get_system_texture_index
  00134	a3 00 00 00 00	 mov	 DWORD PTR ?terrain_texture_altered_land2_colour_pass@@3HA, eax

; 3111 : 	terrain_texture_altered_land3_detail					= get_system_texture_index ( "TERRAIN_SNOW" );

  00139	68 00 00 00 00	 push	 OFFSET ??_C@_0N@JANIPHBF@TERRAIN_SNOW@
  0013e	e8 00 00 00 00	 call	 ?get_system_texture_index@@YGHPBD@Z ; get_system_texture_index
  00143	a3 00 00 00 00	 mov	 DWORD PTR ?terrain_texture_altered_land3_detail@@3HA, eax

; 3112 : 	terrain_texture_altered_land3_colour_pass				= get_system_texture_index ( "COLOUR_PASS_SNOW" );

  00148	68 00 00 00 00	 push	 OFFSET ??_C@_0BB@OBCNOOCF@COLOUR_PASS_SNOW@
  0014d	e8 00 00 00 00	 call	 ?get_system_texture_index@@YGHPBD@Z ; get_system_texture_index
  00152	a3 00 00 00 00	 mov	 DWORD PTR ?terrain_texture_altered_land3_colour_pass@@3HA, eax

; 3113 : 
; 3114 : 	//VJ 050303 texture colour mod: use texture colour directly instead of brownish haze
; 3115 : 	if (command_line_texture_colour)

  00157	83 3d 00 00 00
	00 00		 cmp	 DWORD PTR ?command_line_texture_colour@@3HA, 0 ; command_line_texture_colour
  0015e	74 05		 je	 SHORT $LN2@initialise

; 3116 : 		initialise_all_custom_terrain_types ();

  00160	e8 00 00 00 00	 call	 ?initialise_all_custom_terrain_types@@YGXXZ ; initialise_all_custom_terrain_types
$LN2@initialise:

; 3117 : 
; 3118 : 	//set surface types for rotor dust
; 3119 : 	//VJ 051224 moved to separate function
; 3120 : 	initialise_surface_types();

  00165	e8 00 00 00 00	 call	 ?initialise_surface_types@@YGXXZ ; initialise_surface_types

; 3121 : /*
; 3122 : 	terrain_surface_land										= SURFACE_TYPE_SOIL;
; 3123 : 	terrain_surface_road										= SURFACE_TYPE_ASPHALT;
; 3124 : 	terrain_surface_track									= SURFACE_TYPE_SOIL;
; 3125 : 	terrain_surface_rail										= SURFACE_TYPE_SOIL;
; 3126 : 	terrain_surface_road_bank								= SURFACE_TYPE_SOIL;
; 3127 : 	terrain_surface_river_bank								= SURFACE_TYPE_SAND;
; 3128 : 	terrain_surface_rail_bank								= SURFACE_TYPE_SOIL;
; 3129 : 	terrain_surface_altered_land1							= SURFACE_TYPE_SOIL;
; 3130 : 	terrain_surface_altered_land2							= SURFACE_TYPE_SOIL;
; 3131 : 	terrain_surface_altered_land3							= SURFACE_TYPE_SOIL;
; 3132 : 	terrain_surface_trench									= SURFACE_TYPE_WATER;
; 3133 : */
; 3134 : 
; 3135 : 	set_object_3d_texture_camoflage_by_name ( "DESERT" );

  0016a	68 00 00 00 00	 push	 OFFSET ??_C@_06OPNEJFKO@DESERT@
  0016f	e8 00 00 00 00	 call	 ?set_object_3d_texture_camoflage_by_name@@YGXPAD@Z ; set_object_3d_texture_camoflage_by_name

; 3136 : 
; 3137 : 	reflection_texture_index = get_system_texture_index ( "ENVIRO_YEMEN_SMALL" );

  00174	68 00 00 00 00	 push	 OFFSET ??_C@_0BD@MIKAIJBD@ENVIRO_YEMEN_SMALL@
  00179	e8 00 00 00 00	 call	 ?get_system_texture_index@@YGHPBD@Z ; get_system_texture_index
  0017e	89 45 d8	 mov	 DWORD PTR _reflection_texture_index$[ebp], eax

; 3138 : 
; 3139 : 	if ( reflection_texture_index != -1 )

  00181	83 7d d8 ff	 cmp	 DWORD PTR _reflection_texture_index$[ebp], -1
  00185	74 09		 je	 SHORT $LN3@initialise

; 3140 : 	{
; 3141 : 
; 3142 : 		set_object_3d_reflection_texture_map ( reflection_texture_index );

  00187	8b 45 d8	 mov	 eax, DWORD PTR _reflection_texture_index$[ebp]
  0018a	50		 push	 eax
  0018b	e8 00 00 00 00	 call	 ?set_object_3d_reflection_texture_map@@YGXH@Z ; set_object_3d_reflection_texture_map
$LN3@initialise:

; 3143 : 	}
; 3144 : 
; 3145 : 	set_2d_terrain_contour_heights ( sizeof ( contour_heights ) / sizeof ( float ), contour_heights );

  00190	8d 45 dc	 lea	 eax, DWORD PTR _contour_heights$[ebp]
  00193	50		 push	 eax
  00194	6a 09		 push	 9
  00196	e8 00 00 00 00	 call	 ?set_2d_terrain_contour_heights@@YGXHPAM@Z ; set_2d_terrain_contour_heights

; 3146 : }

  0019b	5f		 pop	 edi
  0019c	5e		 pop	 esi
  0019d	5b		 pop	 ebx
  0019e	8b e5		 mov	 esp, ebp
  001a0	5d		 pop	 ebp
  001a1	c3		 ret	 0
?initialise_3d_mars_terrain_types@@YGXXZ ENDP		; initialise_3d_mars_terrain_types
_TEXT	ENDS
; Function compile flags: /Odtp /ZI
; File c:\users\nhv90\projects\eech\modules\3d\terrain\terrtype.c
;	COMDAT ?initialise_3d_grand_terrain_types@@YGXXZ
_TEXT	SEGMENT
_reflection_texture_index$ = -40			; size = 4
_contour_heights$ = -36					; size = 36
?initialise_3d_grand_terrain_types@@YGXXZ PROC		; initialise_3d_grand_terrain_types, COMDAT

; 2984 : {

  00000	55		 push	 ebp
  00001	8b ec		 mov	 ebp, esp
  00003	83 ec 68	 sub	 esp, 104		; 00000068H
  00006	53		 push	 ebx
  00007	56		 push	 esi
  00008	57		 push	 edi

; 2985 : 
; 2986 : 	float
; 2987 : 		contour_heights[] =
; 2988 : 		{
; 2989 : 			-1000,

  00009	f3 0f 10 05 00
	00 00 00	 movss	 xmm0, DWORD PTR __real@c47a0000
  00011	f3 0f 11 45 dc	 movss	 DWORD PTR _contour_heights$[ebp], xmm0

; 2990 : 			-0.0001,

  00016	f3 0f 10 05 00
	00 00 00	 movss	 xmm0, DWORD PTR __real@b8d1b717
  0001e	f3 0f 11 45 e0	 movss	 DWORD PTR _contour_heights$[ebp+4], xmm0

; 2991 : 			250,

  00023	f3 0f 10 05 00
	00 00 00	 movss	 xmm0, DWORD PTR __real@437a0000
  0002b	f3 0f 11 45 e4	 movss	 DWORD PTR _contour_heights$[ebp+8], xmm0

; 2992 : 			500,

  00030	f3 0f 10 05 00
	00 00 00	 movss	 xmm0, DWORD PTR __real@43fa0000
  00038	f3 0f 11 45 e8	 movss	 DWORD PTR _contour_heights$[ebp+12], xmm0

; 2993 : 			750,

  0003d	f3 0f 10 05 00
	00 00 00	 movss	 xmm0, DWORD PTR __real@443b8000
  00045	f3 0f 11 45 ec	 movss	 DWORD PTR _contour_heights$[ebp+16], xmm0

; 2994 : 			1000,

  0004a	f3 0f 10 05 00
	00 00 00	 movss	 xmm0, DWORD PTR __real@447a0000
  00052	f3 0f 11 45 f0	 movss	 DWORD PTR _contour_heights$[ebp+20], xmm0

; 2995 : 			1250,

  00057	f3 0f 10 05 00
	00 00 00	 movss	 xmm0, DWORD PTR __real@449c4000
  0005f	f3 0f 11 45 f4	 movss	 DWORD PTR _contour_heights$[ebp+24], xmm0

; 2996 : 			1500,

  00064	f3 0f 10 05 00
	00 00 00	 movss	 xmm0, DWORD PTR __real@44bb8000
  0006c	f3 0f 11 45 f8	 movss	 DWORD PTR _contour_heights$[ebp+28], xmm0

; 2997 : 			2000,

  00071	f3 0f 10 05 00
	00 00 00	 movss	 xmm0, DWORD PTR __real@44fa0000
  00079	f3 0f 11 45 fc	 movss	 DWORD PTR _contour_heights$[ebp+32], xmm0

; 2998 : 		};
; 2999 : 
; 3000 : 	int
; 3001 : 		reflection_texture_index;
; 3002 : 
; 3003 : 	set_3d_rain_special_snow_flag ( FALSE ); //????

  0007e	6a 00		 push	 0
  00080	e8 00 00 00 00	 call	 ?set_3d_rain_special_snow_flag@@YGXH@Z ; set_3d_rain_special_snow_flag

; 3004 : 
; 3005 : 	terrain_texture_sea_detail									= get_system_texture_index ( "TERRAIN_SEA_1" );

  00085	68 00 00 00 00	 push	 OFFSET ??_C@_0O@DCAMCMDE@TERRAIN_SEA_1@
  0008a	e8 00 00 00 00	 call	 ?get_system_texture_index@@YGHPBD@Z ; get_system_texture_index
  0008f	a3 00 00 00 00	 mov	 DWORD PTR ?terrain_texture_sea_detail@@3HA, eax

; 3006 : 	terrain_texture_sea_colour_pass							= get_system_texture_index ( "COLOUR_PASS_SEA_LEBANON" );

  00094	68 00 00 00 00	 push	 OFFSET ??_C@_0BI@EBJMGEFE@COLOUR_PASS_SEA_LEBANON@
  00099	e8 00 00 00 00	 call	 ?get_system_texture_index@@YGHPBD@Z ; get_system_texture_index
  0009e	a3 00 00 00 00	 mov	 DWORD PTR ?terrain_texture_sea_colour_pass@@3HA, eax

; 3007 : 	terrain_texture_beach_detail								= get_system_texture_index ( "TERRAIN_BEACH" );

  000a3	68 00 00 00 00	 push	 OFFSET ??_C@_0O@BBEHGFKB@TERRAIN_BEACH@
  000a8	e8 00 00 00 00	 call	 ?get_system_texture_index@@YGHPBD@Z ; get_system_texture_index
  000ad	a3 00 00 00 00	 mov	 DWORD PTR ?terrain_texture_beach_detail@@3HA, eax

; 3008 : 	terrain_texture_beach_colour_pass						= get_system_texture_index ( "COLOUR_PASS_LEBANON" );

  000b2	68 00 00 00 00	 push	 OFFSET ??_C@_0BE@CBPBIHAE@COLOUR_PASS_LEBANON@
  000b7	e8 00 00 00 00	 call	 ?get_system_texture_index@@YGHPBD@Z ; get_system_texture_index
  000bc	a3 00 00 00 00	 mov	 DWORD PTR ?terrain_texture_beach_colour_pass@@3HA, eax

; 3009 : 
; 3010 : 	terrain_texture_land_detail								= get_system_texture_index ( "TERRAIN_HIGHLAND" );

  000c1	68 00 00 00 00	 push	 OFFSET ??_C@_0BB@NLCHJFOM@TERRAIN_HIGHLAND@
  000c6	e8 00 00 00 00	 call	 ?get_system_texture_index@@YGHPBD@Z ; get_system_texture_index
  000cb	a3 00 00 00 00	 mov	 DWORD PTR ?terrain_texture_land_detail@@3HA, eax

; 3011 : 	terrain_texture_land_colour_pass							= get_system_texture_index ( "COLOUR_PASS_SWAMP" );

  000d0	68 00 00 00 00	 push	 OFFSET ??_C@_0BC@GNMAAAJL@COLOUR_PASS_SWAMP@
  000d5	e8 00 00 00 00	 call	 ?get_system_texture_index@@YGHPBD@Z ; get_system_texture_index
  000da	a3 00 00 00 00	 mov	 DWORD PTR ?terrain_texture_land_colour_pass@@3HA, eax

; 3012 : 
; 3013 : 	terrain_texture_road_detail								= get_system_texture_index ( "TERRAIN_DETAIL_ROAD" );

  000df	68 00 00 00 00	 push	 OFFSET ??_C@_0BE@EOMJEIPI@TERRAIN_DETAIL_ROAD@
  000e4	e8 00 00 00 00	 call	 ?get_system_texture_index@@YGHPBD@Z ; get_system_texture_index
  000e9	a3 00 00 00 00	 mov	 DWORD PTR ?terrain_texture_road_detail@@3HA, eax

; 3014 : 	terrain_texture_road_colour_pass							= get_system_texture_index ( "COLOUR_PASS_WALL" );      //TERRAIN_THAI_TRACK" );

  000ee	68 00 00 00 00	 push	 OFFSET ??_C@_0BB@OHLOCNHA@COLOUR_PASS_WALL@
  000f3	e8 00 00 00 00	 call	 ?get_system_texture_index@@YGHPBD@Z ; get_system_texture_index
  000f8	a3 00 00 00 00	 mov	 DWORD PTR ?terrain_texture_road_colour_pass@@3HA, eax

; 3015 : 	terrain_texture_track_detail								= get_system_texture_index ( "TERRAIN_DETAIL_ROAD" );

  000fd	68 00 00 00 00	 push	 OFFSET ??_C@_0BE@EOMJEIPI@TERRAIN_DETAIL_ROAD@
  00102	e8 00 00 00 00	 call	 ?get_system_texture_index@@YGHPBD@Z ; get_system_texture_index
  00107	a3 00 00 00 00	 mov	 DWORD PTR ?terrain_texture_track_detail@@3HA, eax

; 3016 : 	terrain_texture_track_colour_pass						= get_system_texture_index ( "COLOUR_PASS_YEMEN_BAKED2" );

  0010c	68 00 00 00 00	 push	 OFFSET ??_C@_0BJ@OILJFHJP@COLOUR_PASS_YEMEN_BAKED2@
  00111	e8 00 00 00 00	 call	 ?get_system_texture_index@@YGHPBD@Z ; get_system_texture_index
  00116	a3 00 00 00 00	 mov	 DWORD PTR ?terrain_texture_track_colour_pass@@3HA, eax

; 3017 : 	terrain_texture_river_detail								= get_system_texture_index ( "TERRAIN_RIVER" );

  0011b	68 00 00 00 00	 push	 OFFSET ??_C@_0O@KOAPGDHE@TERRAIN_RIVER@
  00120	e8 00 00 00 00	 call	 ?get_system_texture_index@@YGHPBD@Z ; get_system_texture_index
  00125	a3 00 00 00 00	 mov	 DWORD PTR ?terrain_texture_river_detail@@3HA, eax

; 3018 : 	terrain_texture_river_colour_pass						= get_system_texture_index ( "COLOUR_PASS_SEA_LEBANON" );

  0012a	68 00 00 00 00	 push	 OFFSET ??_C@_0BI@EBJMGEFE@COLOUR_PASS_SEA_LEBANON@
  0012f	e8 00 00 00 00	 call	 ?get_system_texture_index@@YGHPBD@Z ; get_system_texture_index
  00134	a3 00 00 00 00	 mov	 DWORD PTR ?terrain_texture_river_colour_pass@@3HA, eax

; 3019 : 	terrain_texture_reservoir_detail							= get_system_texture_index ( "TERRAIN_RIVER" );

  00139	68 00 00 00 00	 push	 OFFSET ??_C@_0O@KOAPGDHE@TERRAIN_RIVER@
  0013e	e8 00 00 00 00	 call	 ?get_system_texture_index@@YGHPBD@Z ; get_system_texture_index
  00143	a3 00 00 00 00	 mov	 DWORD PTR ?terrain_texture_reservoir_detail@@3HA, eax

; 3020 : 	terrain_texture_reservoir_colour_pass					= get_system_texture_index ( "COLOUR_PASS_SEA_LEBANON" );

  00148	68 00 00 00 00	 push	 OFFSET ??_C@_0BI@EBJMGEFE@COLOUR_PASS_SEA_LEBANON@
  0014d	e8 00 00 00 00	 call	 ?get_system_texture_index@@YGHPBD@Z ; get_system_texture_index
  00152	a3 00 00 00 00	 mov	 DWORD PTR ?terrain_texture_reservoir_colour_pass@@3HA, eax

; 3021 : 	terrain_texture_road_bank_detail							= get_system_texture_index ( "TERRAIN_DETAIL_4" );

  00157	68 00 00 00 00	 push	 OFFSET ??_C@_0BB@BDNEEDDA@TERRAIN_DETAIL_4@
  0015c	e8 00 00 00 00	 call	 ?get_system_texture_index@@YGHPBD@Z ; get_system_texture_index
  00161	a3 00 00 00 00	 mov	 DWORD PTR ?terrain_texture_road_bank_detail@@3HA, eax

; 3022 : 	terrain_texture_road_bank_colour_pass					= get_system_texture_index ( "COLOUR_PASS_YEMEN_BAKED2" );

  00166	68 00 00 00 00	 push	 OFFSET ??_C@_0BJ@OILJFHJP@COLOUR_PASS_YEMEN_BAKED2@
  0016b	e8 00 00 00 00	 call	 ?get_system_texture_index@@YGHPBD@Z ; get_system_texture_index
  00170	a3 00 00 00 00	 mov	 DWORD PTR ?terrain_texture_road_bank_colour_pass@@3HA, eax

; 3023 : 	terrain_texture_river_bank_detail						= get_system_texture_index ( "TERRAIN_YEMEN_GRITTY" );

  00175	68 00 00 00 00	 push	 OFFSET ??_C@_0BF@MBOPLBDO@TERRAIN_YEMEN_GRITTY@
  0017a	e8 00 00 00 00	 call	 ?get_system_texture_index@@YGHPBD@Z ; get_system_texture_index
  0017f	a3 00 00 00 00	 mov	 DWORD PTR ?terrain_texture_river_bank_detail@@3HA, eax

; 3024 : 	terrain_texture_river_bank_colour_pass					= get_system_texture_index ( "COLOUR_PASS_YEMEN_BAKED2" );

  00184	68 00 00 00 00	 push	 OFFSET ??_C@_0BJ@OILJFHJP@COLOUR_PASS_YEMEN_BAKED2@
  00189	e8 00 00 00 00	 call	 ?get_system_texture_index@@YGHPBD@Z ; get_system_texture_index
  0018e	a3 00 00 00 00	 mov	 DWORD PTR ?terrain_texture_river_bank_colour_pass@@3HA, eax

; 3025 : 	terrain_texture_altered_land1_detail					= get_system_texture_index ( "TERRAIN_SCRUB" );

  00193	68 00 00 00 00	 push	 OFFSET ??_C@_0O@PGGFIOAG@TERRAIN_SCRUB@
  00198	e8 00 00 00 00	 call	 ?get_system_texture_index@@YGHPBD@Z ; get_system_texture_index
  0019d	a3 00 00 00 00	 mov	 DWORD PTR ?terrain_texture_altered_land1_detail@@3HA, eax

; 3026 : 	terrain_texture_altered_land1_colour_pass				= get_system_texture_index ( "COLOUR_PASS_MOUNTAINS" );

  001a2	68 00 00 00 00	 push	 OFFSET ??_C@_0BG@IGFCFCHF@COLOUR_PASS_MOUNTAINS@
  001a7	e8 00 00 00 00	 call	 ?get_system_texture_index@@YGHPBD@Z ; get_system_texture_index
  001ac	a3 00 00 00 00	 mov	 DWORD PTR ?terrain_texture_altered_land1_colour_pass@@3HA, eax

; 3027 : 	terrain_texture_altered_land2_detail					= get_system_texture_index ( "TERRAIN_BARE_ROCK2" );

  001b1	68 00 00 00 00	 push	 OFFSET ??_C@_0BD@BMPINLKM@TERRAIN_BARE_ROCK2@
  001b6	e8 00 00 00 00	 call	 ?get_system_texture_index@@YGHPBD@Z ; get_system_texture_index
  001bb	a3 00 00 00 00	 mov	 DWORD PTR ?terrain_texture_altered_land2_detail@@3HA, eax

; 3028 : 	terrain_texture_altered_land2_colour_pass				= get_system_texture_index ( "COLOUR_PASS_ROCK" );

  001c0	68 00 00 00 00	 push	 OFFSET ??_C@_0BB@ILJMAEMJ@COLOUR_PASS_ROCK@
  001c5	e8 00 00 00 00	 call	 ?get_system_texture_index@@YGHPBD@Z ; get_system_texture_index
  001ca	a3 00 00 00 00	 mov	 DWORD PTR ?terrain_texture_altered_land2_colour_pass@@3HA, eax

; 3029 : 	terrain_texture_altered_land3_detail					= get_system_texture_index ( "TERRAIN_SNOW" );

  001cf	68 00 00 00 00	 push	 OFFSET ??_C@_0N@JANIPHBF@TERRAIN_SNOW@
  001d4	e8 00 00 00 00	 call	 ?get_system_texture_index@@YGHPBD@Z ; get_system_texture_index
  001d9	a3 00 00 00 00	 mov	 DWORD PTR ?terrain_texture_altered_land3_detail@@3HA, eax

; 3030 : 	terrain_texture_altered_land3_colour_pass				= get_system_texture_index ( "COLOUR_PASS_SNOW" );

  001de	68 00 00 00 00	 push	 OFFSET ??_C@_0BB@OBCNOOCF@COLOUR_PASS_SNOW@
  001e3	e8 00 00 00 00	 call	 ?get_system_texture_index@@YGHPBD@Z ; get_system_texture_index
  001e8	a3 00 00 00 00	 mov	 DWORD PTR ?terrain_texture_altered_land3_colour_pass@@3HA, eax

; 3031 : 
; 3032 : 	//VJ 050303 texture colour mod: use texture colour directly instead of brownish haze
; 3033 : 	if (command_line_texture_colour)

  001ed	83 3d 00 00 00
	00 00		 cmp	 DWORD PTR ?command_line_texture_colour@@3HA, 0 ; command_line_texture_colour
  001f4	74 05		 je	 SHORT $LN2@initialise

; 3034 : 		initialise_all_custom_terrain_types ();

  001f6	e8 00 00 00 00	 call	 ?initialise_all_custom_terrain_types@@YGXXZ ; initialise_all_custom_terrain_types
$LN2@initialise:

; 3035 : 
; 3036 : 		//set surface types for rotor dust
; 3037 : 	//VJ 051224 moved to separate function
; 3038 : 	initialise_surface_types();

  001fb	e8 00 00 00 00	 call	 ?initialise_surface_types@@YGXXZ ; initialise_surface_types

; 3039 : /*
; 3040 : 	terrain_surface_sea										= SURFACE_TYPE_WATER;
; 3041 : 	terrain_surface_beach									= SURFACE_TYPE_SAND;
; 3042 : 	terrain_surface_land										= SURFACE_TYPE_SOIL;
; 3043 : 	terrain_surface_forest									= SURFACE_TYPE_NONE;
; 3044 : 	terrain_surface_road										= SURFACE_TYPE_ASPHALT;
; 3045 : 	terrain_surface_track									= SURFACE_TYPE_SOIL;
; 3046 : 	terrain_surface_river									= SURFACE_TYPE_WATER;
; 3047 : 	terrain_surface_reservoir								= SURFACE_TYPE_WATER;
; 3048 : 	terrain_surface_rail										= SURFACE_TYPE_SOIL;
; 3049 : 	terrain_surface_road_bank								= SURFACE_TYPE_SOIL;
; 3050 : 	terrain_surface_river_bank								= SURFACE_TYPE_SAND;
; 3051 : 	terrain_surface_rail_bank								= SURFACE_TYPE_SOIL;
; 3052 : 	terrain_surface_altered_land1							= SURFACE_TYPE_SOIL;
; 3053 : 	terrain_surface_altered_land2							= SURFACE_TYPE_SOIL;
; 3054 : 	terrain_surface_altered_land3							= SURFACE_TYPE_SOIL;
; 3055 : 	terrain_surface_trench									= SURFACE_TYPE_WATER;
; 3056 : */
; 3057 : 	//VJ 051011 Changed from default camoflage to desert so that desert textures are used for kuwait and lybia
; 3058 : 	//set_object_3d_texture_camoflage_by_name ( "DEFAULT" );
; 3059 : 	set_object_3d_texture_camoflage_by_name ( "DESERT" );

  00200	68 00 00 00 00	 push	 OFFSET ??_C@_06OPNEJFKO@DESERT@
  00205	e8 00 00 00 00	 call	 ?set_object_3d_texture_camoflage_by_name@@YGXPAD@Z ; set_object_3d_texture_camoflage_by_name

; 3060 : 
; 3061 : 	reflection_texture_index = get_system_texture_index ( "ENVIRO_YEMEN_SMALL" );

  0020a	68 00 00 00 00	 push	 OFFSET ??_C@_0BD@MIKAIJBD@ENVIRO_YEMEN_SMALL@
  0020f	e8 00 00 00 00	 call	 ?get_system_texture_index@@YGHPBD@Z ; get_system_texture_index
  00214	89 45 d8	 mov	 DWORD PTR _reflection_texture_index$[ebp], eax

; 3062 : 
; 3063 : 	if ( reflection_texture_index != -1 )

  00217	83 7d d8 ff	 cmp	 DWORD PTR _reflection_texture_index$[ebp], -1
  0021b	74 09		 je	 SHORT $LN3@initialise

; 3064 : 	{
; 3065 : 
; 3066 : 		set_object_3d_reflection_texture_map ( reflection_texture_index );

  0021d	8b 45 d8	 mov	 eax, DWORD PTR _reflection_texture_index$[ebp]
  00220	50		 push	 eax
  00221	e8 00 00 00 00	 call	 ?set_object_3d_reflection_texture_map@@YGXH@Z ; set_object_3d_reflection_texture_map
$LN3@initialise:

; 3067 : 	}
; 3068 : 
; 3069 : 	set_2d_terrain_contour_heights ( sizeof ( contour_heights ) / sizeof ( float ), contour_heights );

  00226	8d 45 dc	 lea	 eax, DWORD PTR _contour_heights$[ebp]
  00229	50		 push	 eax
  0022a	6a 09		 push	 9
  0022c	e8 00 00 00 00	 call	 ?set_2d_terrain_contour_heights@@YGXHPAM@Z ; set_2d_terrain_contour_heights

; 3070 : }

  00231	5f		 pop	 edi
  00232	5e		 pop	 esi
  00233	5b		 pop	 ebx
  00234	8b e5		 mov	 esp, ebp
  00236	5d		 pop	 ebp
  00237	c3		 ret	 0
?initialise_3d_grand_terrain_types@@YGXXZ ENDP		; initialise_3d_grand_terrain_types
_TEXT	ENDS
; Function compile flags: /Odtp /ZI
; File c:\users\nhv90\projects\eech\modules\3d\terrain\terrtype.c
;	COMDAT ?initialise_3d_kuwait_terrain_types@@YGXXZ
_TEXT	SEGMENT
_reflection_texture_index$ = -40			; size = 4
_contour_heights$ = -36					; size = 36
?initialise_3d_kuwait_terrain_types@@YGXXZ PROC		; initialise_3d_kuwait_terrain_types, COMDAT

; 2890 : {

  00000	55		 push	 ebp
  00001	8b ec		 mov	 ebp, esp
  00003	83 ec 68	 sub	 esp, 104		; 00000068H
  00006	53		 push	 ebx
  00007	56		 push	 esi
  00008	57		 push	 edi

; 2891 : 
; 2892 : 	float
; 2893 : 		contour_heights[] =
; 2894 : 		{
; 2895 : 			-1000,

  00009	f3 0f 10 05 00
	00 00 00	 movss	 xmm0, DWORD PTR __real@c47a0000
  00011	f3 0f 11 45 dc	 movss	 DWORD PTR _contour_heights$[ebp], xmm0

; 2896 : 			-0.0001,

  00016	f3 0f 10 05 00
	00 00 00	 movss	 xmm0, DWORD PTR __real@b8d1b717
  0001e	f3 0f 11 45 e0	 movss	 DWORD PTR _contour_heights$[ebp+4], xmm0

; 2897 : 			250,

  00023	f3 0f 10 05 00
	00 00 00	 movss	 xmm0, DWORD PTR __real@437a0000
  0002b	f3 0f 11 45 e4	 movss	 DWORD PTR _contour_heights$[ebp+8], xmm0

; 2898 : 			500,

  00030	f3 0f 10 05 00
	00 00 00	 movss	 xmm0, DWORD PTR __real@43fa0000
  00038	f3 0f 11 45 e8	 movss	 DWORD PTR _contour_heights$[ebp+12], xmm0

; 2899 : 			750,

  0003d	f3 0f 10 05 00
	00 00 00	 movss	 xmm0, DWORD PTR __real@443b8000
  00045	f3 0f 11 45 ec	 movss	 DWORD PTR _contour_heights$[ebp+16], xmm0

; 2900 : 			1000,

  0004a	f3 0f 10 05 00
	00 00 00	 movss	 xmm0, DWORD PTR __real@447a0000
  00052	f3 0f 11 45 f0	 movss	 DWORD PTR _contour_heights$[ebp+20], xmm0

; 2901 : 			1250,

  00057	f3 0f 10 05 00
	00 00 00	 movss	 xmm0, DWORD PTR __real@449c4000
  0005f	f3 0f 11 45 f4	 movss	 DWORD PTR _contour_heights$[ebp+24], xmm0

; 2902 : 			1500,

  00064	f3 0f 10 05 00
	00 00 00	 movss	 xmm0, DWORD PTR __real@44bb8000
  0006c	f3 0f 11 45 f8	 movss	 DWORD PTR _contour_heights$[ebp+28], xmm0

; 2903 : 			2000,

  00071	f3 0f 10 05 00
	00 00 00	 movss	 xmm0, DWORD PTR __real@44fa0000
  00079	f3 0f 11 45 fc	 movss	 DWORD PTR _contour_heights$[ebp+32], xmm0

; 2904 : 		};
; 2905 : 
; 2906 : 	int
; 2907 : 		reflection_texture_index;
; 2908 : 
; 2909 : 	set_3d_rain_special_snow_flag ( FALSE ); //????

  0007e	6a 00		 push	 0
  00080	e8 00 00 00 00	 call	 ?set_3d_rain_special_snow_flag@@YGXH@Z ; set_3d_rain_special_snow_flag

; 2910 : 
; 2911 : 	terrain_texture_sea_detail									= get_system_texture_index ( "TERRAIN_SEA_1" );

  00085	68 00 00 00 00	 push	 OFFSET ??_C@_0O@DCAMCMDE@TERRAIN_SEA_1@
  0008a	e8 00 00 00 00	 call	 ?get_system_texture_index@@YGHPBD@Z ; get_system_texture_index
  0008f	a3 00 00 00 00	 mov	 DWORD PTR ?terrain_texture_sea_detail@@3HA, eax

; 2912 : 	terrain_texture_sea_colour_pass							= get_system_texture_index ( "COLOUR_PASS_SEA_LEBANON" );

  00094	68 00 00 00 00	 push	 OFFSET ??_C@_0BI@EBJMGEFE@COLOUR_PASS_SEA_LEBANON@
  00099	e8 00 00 00 00	 call	 ?get_system_texture_index@@YGHPBD@Z ; get_system_texture_index
  0009e	a3 00 00 00 00	 mov	 DWORD PTR ?terrain_texture_sea_colour_pass@@3HA, eax

; 2913 : 	terrain_texture_beach_detail								= get_system_texture_index ( "TERRAIN_BEACH" );

  000a3	68 00 00 00 00	 push	 OFFSET ??_C@_0O@BBEHGFKB@TERRAIN_BEACH@
  000a8	e8 00 00 00 00	 call	 ?get_system_texture_index@@YGHPBD@Z ; get_system_texture_index
  000ad	a3 00 00 00 00	 mov	 DWORD PTR ?terrain_texture_beach_detail@@3HA, eax

; 2914 : 	terrain_texture_beach_colour_pass						= get_system_texture_index ( "COLOUR_PASS_LEBANON" );

  000b2	68 00 00 00 00	 push	 OFFSET ??_C@_0BE@CBPBIHAE@COLOUR_PASS_LEBANON@
  000b7	e8 00 00 00 00	 call	 ?get_system_texture_index@@YGHPBD@Z ; get_system_texture_index
  000bc	a3 00 00 00 00	 mov	 DWORD PTR ?terrain_texture_beach_colour_pass@@3HA, eax

; 2915 : 
; 2916 : 	terrain_texture_land_detail								= get_system_texture_index ( "TERRAIN_HIGHLAND" );

  000c1	68 00 00 00 00	 push	 OFFSET ??_C@_0BB@NLCHJFOM@TERRAIN_HIGHLAND@
  000c6	e8 00 00 00 00	 call	 ?get_system_texture_index@@YGHPBD@Z ; get_system_texture_index
  000cb	a3 00 00 00 00	 mov	 DWORD PTR ?terrain_texture_land_detail@@3HA, eax

; 2917 : 	terrain_texture_land_colour_pass							= get_system_texture_index ( "COLOUR_PASS_SWAMP" );

  000d0	68 00 00 00 00	 push	 OFFSET ??_C@_0BC@GNMAAAJL@COLOUR_PASS_SWAMP@
  000d5	e8 00 00 00 00	 call	 ?get_system_texture_index@@YGHPBD@Z ; get_system_texture_index
  000da	a3 00 00 00 00	 mov	 DWORD PTR ?terrain_texture_land_colour_pass@@3HA, eax

; 2918 : 
; 2919 : 	terrain_texture_road_detail								= get_system_texture_index ( "TERRAIN_DETAIL_ROAD" );

  000df	68 00 00 00 00	 push	 OFFSET ??_C@_0BE@EOMJEIPI@TERRAIN_DETAIL_ROAD@
  000e4	e8 00 00 00 00	 call	 ?get_system_texture_index@@YGHPBD@Z ; get_system_texture_index
  000e9	a3 00 00 00 00	 mov	 DWORD PTR ?terrain_texture_road_detail@@3HA, eax

; 2920 : 	terrain_texture_road_colour_pass							= get_system_texture_index ( "COLOUR_PASS_WALL" );      //TERRAIN_THAI_TRACK" );

  000ee	68 00 00 00 00	 push	 OFFSET ??_C@_0BB@OHLOCNHA@COLOUR_PASS_WALL@
  000f3	e8 00 00 00 00	 call	 ?get_system_texture_index@@YGHPBD@Z ; get_system_texture_index
  000f8	a3 00 00 00 00	 mov	 DWORD PTR ?terrain_texture_road_colour_pass@@3HA, eax

; 2921 : 	terrain_texture_track_detail								= get_system_texture_index ( "TERRAIN_DETAIL_ROAD" );

  000fd	68 00 00 00 00	 push	 OFFSET ??_C@_0BE@EOMJEIPI@TERRAIN_DETAIL_ROAD@
  00102	e8 00 00 00 00	 call	 ?get_system_texture_index@@YGHPBD@Z ; get_system_texture_index
  00107	a3 00 00 00 00	 mov	 DWORD PTR ?terrain_texture_track_detail@@3HA, eax

; 2922 : 	terrain_texture_track_colour_pass						= get_system_texture_index ( "COLOUR_PASS_YEMEN_BAKED2" );

  0010c	68 00 00 00 00	 push	 OFFSET ??_C@_0BJ@OILJFHJP@COLOUR_PASS_YEMEN_BAKED2@
  00111	e8 00 00 00 00	 call	 ?get_system_texture_index@@YGHPBD@Z ; get_system_texture_index
  00116	a3 00 00 00 00	 mov	 DWORD PTR ?terrain_texture_track_colour_pass@@3HA, eax

; 2923 : 	terrain_texture_river_detail								= get_system_texture_index ( "TERRAIN_RIVER" );

  0011b	68 00 00 00 00	 push	 OFFSET ??_C@_0O@KOAPGDHE@TERRAIN_RIVER@
  00120	e8 00 00 00 00	 call	 ?get_system_texture_index@@YGHPBD@Z ; get_system_texture_index
  00125	a3 00 00 00 00	 mov	 DWORD PTR ?terrain_texture_river_detail@@3HA, eax

; 2924 : 	terrain_texture_river_colour_pass						= get_system_texture_index ( "COLOUR_PASS_SEA_LEBANON" );

  0012a	68 00 00 00 00	 push	 OFFSET ??_C@_0BI@EBJMGEFE@COLOUR_PASS_SEA_LEBANON@
  0012f	e8 00 00 00 00	 call	 ?get_system_texture_index@@YGHPBD@Z ; get_system_texture_index
  00134	a3 00 00 00 00	 mov	 DWORD PTR ?terrain_texture_river_colour_pass@@3HA, eax

; 2925 : 	terrain_texture_reservoir_detail							= get_system_texture_index ( "TERRAIN_RIVER" );

  00139	68 00 00 00 00	 push	 OFFSET ??_C@_0O@KOAPGDHE@TERRAIN_RIVER@
  0013e	e8 00 00 00 00	 call	 ?get_system_texture_index@@YGHPBD@Z ; get_system_texture_index
  00143	a3 00 00 00 00	 mov	 DWORD PTR ?terrain_texture_reservoir_detail@@3HA, eax

; 2926 : 	terrain_texture_reservoir_colour_pass					= get_system_texture_index ( "COLOUR_PASS_SEA_LEBANON" );

  00148	68 00 00 00 00	 push	 OFFSET ??_C@_0BI@EBJMGEFE@COLOUR_PASS_SEA_LEBANON@
  0014d	e8 00 00 00 00	 call	 ?get_system_texture_index@@YGHPBD@Z ; get_system_texture_index
  00152	a3 00 00 00 00	 mov	 DWORD PTR ?terrain_texture_reservoir_colour_pass@@3HA, eax

; 2927 : 	terrain_texture_road_bank_detail							= get_system_texture_index ( "TERRAIN_DETAIL_4" );

  00157	68 00 00 00 00	 push	 OFFSET ??_C@_0BB@BDNEEDDA@TERRAIN_DETAIL_4@
  0015c	e8 00 00 00 00	 call	 ?get_system_texture_index@@YGHPBD@Z ; get_system_texture_index
  00161	a3 00 00 00 00	 mov	 DWORD PTR ?terrain_texture_road_bank_detail@@3HA, eax

; 2928 : 	terrain_texture_road_bank_colour_pass					= get_system_texture_index ( "COLOUR_PASS_YEMEN_BAKED2" );

  00166	68 00 00 00 00	 push	 OFFSET ??_C@_0BJ@OILJFHJP@COLOUR_PASS_YEMEN_BAKED2@
  0016b	e8 00 00 00 00	 call	 ?get_system_texture_index@@YGHPBD@Z ; get_system_texture_index
  00170	a3 00 00 00 00	 mov	 DWORD PTR ?terrain_texture_road_bank_colour_pass@@3HA, eax

; 2929 : 	terrain_texture_river_bank_detail						= get_system_texture_index ( "TERRAIN_YEMEN_GRITTY" );

  00175	68 00 00 00 00	 push	 OFFSET ??_C@_0BF@MBOPLBDO@TERRAIN_YEMEN_GRITTY@
  0017a	e8 00 00 00 00	 call	 ?get_system_texture_index@@YGHPBD@Z ; get_system_texture_index
  0017f	a3 00 00 00 00	 mov	 DWORD PTR ?terrain_texture_river_bank_detail@@3HA, eax

; 2930 : 	terrain_texture_river_bank_colour_pass					= get_system_texture_index ( "COLOUR_PASS_YEMEN_BAKED2" );

  00184	68 00 00 00 00	 push	 OFFSET ??_C@_0BJ@OILJFHJP@COLOUR_PASS_YEMEN_BAKED2@
  00189	e8 00 00 00 00	 call	 ?get_system_texture_index@@YGHPBD@Z ; get_system_texture_index
  0018e	a3 00 00 00 00	 mov	 DWORD PTR ?terrain_texture_river_bank_colour_pass@@3HA, eax

; 2931 : 	terrain_texture_altered_land1_detail					= get_system_texture_index ( "TERRAIN_SCRUB" );

  00193	68 00 00 00 00	 push	 OFFSET ??_C@_0O@PGGFIOAG@TERRAIN_SCRUB@
  00198	e8 00 00 00 00	 call	 ?get_system_texture_index@@YGHPBD@Z ; get_system_texture_index
  0019d	a3 00 00 00 00	 mov	 DWORD PTR ?terrain_texture_altered_land1_detail@@3HA, eax

; 2932 : 	terrain_texture_altered_land1_colour_pass				= get_system_texture_index ( "COLOUR_PASS_MOUNTAINS" );

  001a2	68 00 00 00 00	 push	 OFFSET ??_C@_0BG@IGFCFCHF@COLOUR_PASS_MOUNTAINS@
  001a7	e8 00 00 00 00	 call	 ?get_system_texture_index@@YGHPBD@Z ; get_system_texture_index
  001ac	a3 00 00 00 00	 mov	 DWORD PTR ?terrain_texture_altered_land1_colour_pass@@3HA, eax

; 2933 : 	terrain_texture_altered_land2_detail					= get_system_texture_index ( "TERRAIN_BARE_ROCK2" );

  001b1	68 00 00 00 00	 push	 OFFSET ??_C@_0BD@BMPINLKM@TERRAIN_BARE_ROCK2@
  001b6	e8 00 00 00 00	 call	 ?get_system_texture_index@@YGHPBD@Z ; get_system_texture_index
  001bb	a3 00 00 00 00	 mov	 DWORD PTR ?terrain_texture_altered_land2_detail@@3HA, eax

; 2934 : 	terrain_texture_altered_land2_colour_pass				= get_system_texture_index ( "COLOUR_PASS_ROCK" );

  001c0	68 00 00 00 00	 push	 OFFSET ??_C@_0BB@ILJMAEMJ@COLOUR_PASS_ROCK@
  001c5	e8 00 00 00 00	 call	 ?get_system_texture_index@@YGHPBD@Z ; get_system_texture_index
  001ca	a3 00 00 00 00	 mov	 DWORD PTR ?terrain_texture_altered_land2_colour_pass@@3HA, eax

; 2935 : 	terrain_texture_altered_land3_detail					= get_system_texture_index ( "TERRAIN_SNOW" );

  001cf	68 00 00 00 00	 push	 OFFSET ??_C@_0N@JANIPHBF@TERRAIN_SNOW@
  001d4	e8 00 00 00 00	 call	 ?get_system_texture_index@@YGHPBD@Z ; get_system_texture_index
  001d9	a3 00 00 00 00	 mov	 DWORD PTR ?terrain_texture_altered_land3_detail@@3HA, eax

; 2936 : 	terrain_texture_altered_land3_colour_pass				= get_system_texture_index ( "COLOUR_PASS_SNOW" );

  001de	68 00 00 00 00	 push	 OFFSET ??_C@_0BB@OBCNOOCF@COLOUR_PASS_SNOW@
  001e3	e8 00 00 00 00	 call	 ?get_system_texture_index@@YGHPBD@Z ; get_system_texture_index
  001e8	a3 00 00 00 00	 mov	 DWORD PTR ?terrain_texture_altered_land3_colour_pass@@3HA, eax

; 2937 : 
; 2938 : 	//VJ 050303 texture colour mod: use texture colour directly instead of brownish haze
; 2939 : 	if (command_line_texture_colour)

  001ed	83 3d 00 00 00
	00 00		 cmp	 DWORD PTR ?command_line_texture_colour@@3HA, 0 ; command_line_texture_colour
  001f4	74 05		 je	 SHORT $LN2@initialise

; 2940 : 		initialise_all_custom_terrain_types ();

  001f6	e8 00 00 00 00	 call	 ?initialise_all_custom_terrain_types@@YGXXZ ; initialise_all_custom_terrain_types
$LN2@initialise:

; 2941 : 
; 2942 : 	// Xhit: the surface types for the various terrain types are set according to the surroundings. (030328)
; 2943 : 	//set surface types for rotor dust
; 2944 : 	//VJ 051224 moved to separate function
; 2945 : 	initialise_surface_types();

  001fb	e8 00 00 00 00	 call	 ?initialise_surface_types@@YGXXZ ; initialise_surface_types

; 2946 : /*
; 2947 : 	terrain_surface_sea										= SURFACE_TYPE_WATER;
; 2948 : 	terrain_surface_beach									= SURFACE_TYPE_SAND;
; 2949 : 	terrain_surface_land										= SURFACE_TYPE_SOIL;
; 2950 : 	terrain_surface_forest									= SURFACE_TYPE_NONE;
; 2951 : 	terrain_surface_road										= SURFACE_TYPE_ASPHALT;
; 2952 : 	terrain_surface_track									= SURFACE_TYPE_SOIL;
; 2953 : 	terrain_surface_river									= SURFACE_TYPE_WATER;
; 2954 : 	terrain_surface_reservoir								= SURFACE_TYPE_WATER;
; 2955 : 	terrain_surface_rail										= SURFACE_TYPE_SOIL;
; 2956 : 	terrain_surface_road_bank								= SURFACE_TYPE_SOIL;
; 2957 : 	terrain_surface_river_bank								= SURFACE_TYPE_SAND;
; 2958 : 	terrain_surface_rail_bank								= SURFACE_TYPE_SOIL;
; 2959 : 	terrain_surface_altered_land1							= SURFACE_TYPE_SOIL;
; 2960 : 	terrain_surface_altered_land2							= SURFACE_TYPE_SOIL;
; 2961 : 	terrain_surface_altered_land3							= SURFACE_TYPE_SOIL;
; 2962 : 	terrain_surface_trench									= SURFACE_TYPE_WATER;
; 2963 : */
; 2964 : 	//VJ 051011 Changed from default camoflage to desert so that desert textures are used for kuwait and lybia
; 2965 : 	//set_object_3d_texture_camoflage_by_name ( "DEFAULT" );
; 2966 : 	set_object_3d_texture_camoflage_by_name ( "DESERT" );

  00200	68 00 00 00 00	 push	 OFFSET ??_C@_06OPNEJFKO@DESERT@
  00205	e8 00 00 00 00	 call	 ?set_object_3d_texture_camoflage_by_name@@YGXPAD@Z ; set_object_3d_texture_camoflage_by_name

; 2967 : 
; 2968 : 	reflection_texture_index = get_system_texture_index ( "ENVIRO_YEMEN_SMALL" );

  0020a	68 00 00 00 00	 push	 OFFSET ??_C@_0BD@MIKAIJBD@ENVIRO_YEMEN_SMALL@
  0020f	e8 00 00 00 00	 call	 ?get_system_texture_index@@YGHPBD@Z ; get_system_texture_index
  00214	89 45 d8	 mov	 DWORD PTR _reflection_texture_index$[ebp], eax

; 2969 : 
; 2970 : 	if ( reflection_texture_index != -1 )

  00217	83 7d d8 ff	 cmp	 DWORD PTR _reflection_texture_index$[ebp], -1
  0021b	74 09		 je	 SHORT $LN3@initialise

; 2971 : 	{
; 2972 : 
; 2973 : 		set_object_3d_reflection_texture_map ( reflection_texture_index );

  0021d	8b 45 d8	 mov	 eax, DWORD PTR _reflection_texture_index$[ebp]
  00220	50		 push	 eax
  00221	e8 00 00 00 00	 call	 ?set_object_3d_reflection_texture_map@@YGXH@Z ; set_object_3d_reflection_texture_map
$LN3@initialise:

; 2974 : 	}
; 2975 : 
; 2976 : 	set_2d_terrain_contour_heights ( sizeof ( contour_heights ) / sizeof ( float ), contour_heights );

  00226	8d 45 dc	 lea	 eax, DWORD PTR _contour_heights$[ebp]
  00229	50		 push	 eax
  0022a	6a 09		 push	 9
  0022c	e8 00 00 00 00	 call	 ?set_2d_terrain_contour_heights@@YGXHPAM@Z ; set_2d_terrain_contour_heights

; 2977 : }

  00231	5f		 pop	 edi
  00232	5e		 pop	 esi
  00233	5b		 pop	 ebx
  00234	8b e5		 mov	 esp, ebp
  00236	5d		 pop	 ebp
  00237	c3		 ret	 0
?initialise_3d_kuwait_terrain_types@@YGXXZ ENDP		; initialise_3d_kuwait_terrain_types
_TEXT	ENDS
; Function compile flags: /Odtp /ZI
; File c:\users\nhv90\projects\eech\modules\3d\terrain\terrtype.c
;	COMDAT ?initialise_3d_aleut_terrain_types@@YGXXZ
_TEXT	SEGMENT
_reflection_texture_index$ = -40			; size = 4
_contour_heights$ = -36					; size = 36
?initialise_3d_aleut_terrain_types@@YGXXZ PROC		; initialise_3d_aleut_terrain_types, COMDAT

; 2801 : {

  00000	55		 push	 ebp
  00001	8b ec		 mov	 ebp, esp
  00003	83 ec 68	 sub	 esp, 104		; 00000068H
  00006	53		 push	 ebx
  00007	56		 push	 esi
  00008	57		 push	 edi

; 2802 : 
; 2803 : 	float
; 2804 : 		contour_heights[] =
; 2805 : 		{
; 2806 : 			-1000,

  00009	f3 0f 10 05 00
	00 00 00	 movss	 xmm0, DWORD PTR __real@c47a0000
  00011	f3 0f 11 45 dc	 movss	 DWORD PTR _contour_heights$[ebp], xmm0

; 2807 : 			-0.0001,

  00016	f3 0f 10 05 00
	00 00 00	 movss	 xmm0, DWORD PTR __real@b8d1b717
  0001e	f3 0f 11 45 e0	 movss	 DWORD PTR _contour_heights$[ebp+4], xmm0

; 2808 : 			250,

  00023	f3 0f 10 05 00
	00 00 00	 movss	 xmm0, DWORD PTR __real@437a0000
  0002b	f3 0f 11 45 e4	 movss	 DWORD PTR _contour_heights$[ebp+8], xmm0

; 2809 : 			500,

  00030	f3 0f 10 05 00
	00 00 00	 movss	 xmm0, DWORD PTR __real@43fa0000
  00038	f3 0f 11 45 e8	 movss	 DWORD PTR _contour_heights$[ebp+12], xmm0

; 2810 : 			750,

  0003d	f3 0f 10 05 00
	00 00 00	 movss	 xmm0, DWORD PTR __real@443b8000
  00045	f3 0f 11 45 ec	 movss	 DWORD PTR _contour_heights$[ebp+16], xmm0

; 2811 : 			1000,

  0004a	f3 0f 10 05 00
	00 00 00	 movss	 xmm0, DWORD PTR __real@447a0000
  00052	f3 0f 11 45 f0	 movss	 DWORD PTR _contour_heights$[ebp+20], xmm0

; 2812 : 			1500,

  00057	f3 0f 10 05 00
	00 00 00	 movss	 xmm0, DWORD PTR __real@44bb8000
  0005f	f3 0f 11 45 f4	 movss	 DWORD PTR _contour_heights$[ebp+24], xmm0

; 2813 : 			3000,

  00064	f3 0f 10 05 00
	00 00 00	 movss	 xmm0, DWORD PTR __real@453b8000
  0006c	f3 0f 11 45 f8	 movss	 DWORD PTR _contour_heights$[ebp+28], xmm0

; 2814 : 			5000,

  00071	f3 0f 10 05 00
	00 00 00	 movss	 xmm0, DWORD PTR __real@459c4000
  00079	f3 0f 11 45 fc	 movss	 DWORD PTR _contour_heights$[ebp+32], xmm0

; 2815 : 		};
; 2816 : 
; 2817 : 	int
; 2818 : 		reflection_texture_index;
; 2819 : 
; 2820 : 	set_3d_rain_special_snow_flag ( TRUE ); //????

  0007e	6a 01		 push	 1
  00080	e8 00 00 00 00	 call	 ?set_3d_rain_special_snow_flag@@YGXH@Z ; set_3d_rain_special_snow_flag

; 2821 : 
; 2822 : 	terrain_texture_sea_detail									= get_system_texture_index ( "TERRAIN_SEA_1" );

  00085	68 00 00 00 00	 push	 OFFSET ??_C@_0O@DCAMCMDE@TERRAIN_SEA_1@
  0008a	e8 00 00 00 00	 call	 ?get_system_texture_index@@YGHPBD@Z ; get_system_texture_index
  0008f	a3 00 00 00 00	 mov	 DWORD PTR ?terrain_texture_sea_detail@@3HA, eax

; 2823 : 	terrain_texture_sea_colour_pass							= get_system_texture_index ( "COLOUR_PASS_SEA_LEBANON" );

  00094	68 00 00 00 00	 push	 OFFSET ??_C@_0BI@EBJMGEFE@COLOUR_PASS_SEA_LEBANON@
  00099	e8 00 00 00 00	 call	 ?get_system_texture_index@@YGHPBD@Z ; get_system_texture_index
  0009e	a3 00 00 00 00	 mov	 DWORD PTR ?terrain_texture_sea_colour_pass@@3HA, eax

; 2824 : 	terrain_texture_beach_detail								= get_system_texture_index ( "TERRAIN_BEACH" );

  000a3	68 00 00 00 00	 push	 OFFSET ??_C@_0O@BBEHGFKB@TERRAIN_BEACH@
  000a8	e8 00 00 00 00	 call	 ?get_system_texture_index@@YGHPBD@Z ; get_system_texture_index
  000ad	a3 00 00 00 00	 mov	 DWORD PTR ?terrain_texture_beach_detail@@3HA, eax

; 2825 : 	terrain_texture_beach_colour_pass						= get_system_texture_index ( "COLOUR_PASS_LEBANON" );

  000b2	68 00 00 00 00	 push	 OFFSET ??_C@_0BE@CBPBIHAE@COLOUR_PASS_LEBANON@
  000b7	e8 00 00 00 00	 call	 ?get_system_texture_index@@YGHPBD@Z ; get_system_texture_index
  000bc	a3 00 00 00 00	 mov	 DWORD PTR ?terrain_texture_beach_colour_pass@@3HA, eax

; 2826 : 
; 2827 : 	terrain_texture_land_detail								= get_system_texture_index ( "TERRAIN_HIGHLAND" );

  000c1	68 00 00 00 00	 push	 OFFSET ??_C@_0BB@NLCHJFOM@TERRAIN_HIGHLAND@
  000c6	e8 00 00 00 00	 call	 ?get_system_texture_index@@YGHPBD@Z ; get_system_texture_index
  000cb	a3 00 00 00 00	 mov	 DWORD PTR ?terrain_texture_land_detail@@3HA, eax

; 2828 : 	terrain_texture_land_colour_pass							= get_system_texture_index ( "COLOUR_PASS_SWAMP" );

  000d0	68 00 00 00 00	 push	 OFFSET ??_C@_0BC@GNMAAAJL@COLOUR_PASS_SWAMP@
  000d5	e8 00 00 00 00	 call	 ?get_system_texture_index@@YGHPBD@Z ; get_system_texture_index
  000da	a3 00 00 00 00	 mov	 DWORD PTR ?terrain_texture_land_colour_pass@@3HA, eax

; 2829 : 
; 2830 : 	terrain_texture_road_detail								= get_system_texture_index ( "TERRAIN_DETAIL_ROAD" );

  000df	68 00 00 00 00	 push	 OFFSET ??_C@_0BE@EOMJEIPI@TERRAIN_DETAIL_ROAD@
  000e4	e8 00 00 00 00	 call	 ?get_system_texture_index@@YGHPBD@Z ; get_system_texture_index
  000e9	a3 00 00 00 00	 mov	 DWORD PTR ?terrain_texture_road_detail@@3HA, eax

; 2831 : 	terrain_texture_road_colour_pass							= get_system_texture_index ( "COLOUR_PASS_WALL" );      //TERRAIN_THAI_TRACK" );

  000ee	68 00 00 00 00	 push	 OFFSET ??_C@_0BB@OHLOCNHA@COLOUR_PASS_WALL@
  000f3	e8 00 00 00 00	 call	 ?get_system_texture_index@@YGHPBD@Z ; get_system_texture_index
  000f8	a3 00 00 00 00	 mov	 DWORD PTR ?terrain_texture_road_colour_pass@@3HA, eax

; 2832 : 	terrain_texture_track_detail								= get_system_texture_index ( "TERRAIN_DETAIL_ROAD" );

  000fd	68 00 00 00 00	 push	 OFFSET ??_C@_0BE@EOMJEIPI@TERRAIN_DETAIL_ROAD@
  00102	e8 00 00 00 00	 call	 ?get_system_texture_index@@YGHPBD@Z ; get_system_texture_index
  00107	a3 00 00 00 00	 mov	 DWORD PTR ?terrain_texture_track_detail@@3HA, eax

; 2833 : 	terrain_texture_track_colour_pass						= get_system_texture_index ( "COLOUR_PASS_YEMEN_BAKED2" );

  0010c	68 00 00 00 00	 push	 OFFSET ??_C@_0BJ@OILJFHJP@COLOUR_PASS_YEMEN_BAKED2@
  00111	e8 00 00 00 00	 call	 ?get_system_texture_index@@YGHPBD@Z ; get_system_texture_index
  00116	a3 00 00 00 00	 mov	 DWORD PTR ?terrain_texture_track_colour_pass@@3HA, eax

; 2834 : 	terrain_texture_river_detail								= get_system_texture_index ( "TERRAIN_RIVER" );

  0011b	68 00 00 00 00	 push	 OFFSET ??_C@_0O@KOAPGDHE@TERRAIN_RIVER@
  00120	e8 00 00 00 00	 call	 ?get_system_texture_index@@YGHPBD@Z ; get_system_texture_index
  00125	a3 00 00 00 00	 mov	 DWORD PTR ?terrain_texture_river_detail@@3HA, eax

; 2835 : 	terrain_texture_river_colour_pass						= get_system_texture_index ( "COLOUR_PASS_SEA_LEBANON" );

  0012a	68 00 00 00 00	 push	 OFFSET ??_C@_0BI@EBJMGEFE@COLOUR_PASS_SEA_LEBANON@
  0012f	e8 00 00 00 00	 call	 ?get_system_texture_index@@YGHPBD@Z ; get_system_texture_index
  00134	a3 00 00 00 00	 mov	 DWORD PTR ?terrain_texture_river_colour_pass@@3HA, eax

; 2836 : 	terrain_texture_reservoir_detail							= get_system_texture_index ( "TERRAIN_RIVER" );

  00139	68 00 00 00 00	 push	 OFFSET ??_C@_0O@KOAPGDHE@TERRAIN_RIVER@
  0013e	e8 00 00 00 00	 call	 ?get_system_texture_index@@YGHPBD@Z ; get_system_texture_index
  00143	a3 00 00 00 00	 mov	 DWORD PTR ?terrain_texture_reservoir_detail@@3HA, eax

; 2837 : 	terrain_texture_reservoir_colour_pass					= get_system_texture_index ( "COLOUR_PASS_SEA_LEBANON" );

  00148	68 00 00 00 00	 push	 OFFSET ??_C@_0BI@EBJMGEFE@COLOUR_PASS_SEA_LEBANON@
  0014d	e8 00 00 00 00	 call	 ?get_system_texture_index@@YGHPBD@Z ; get_system_texture_index
  00152	a3 00 00 00 00	 mov	 DWORD PTR ?terrain_texture_reservoir_colour_pass@@3HA, eax

; 2838 : 	terrain_texture_road_bank_detail							= get_system_texture_index ( "TERRAIN_DETAIL_4" );

  00157	68 00 00 00 00	 push	 OFFSET ??_C@_0BB@BDNEEDDA@TERRAIN_DETAIL_4@
  0015c	e8 00 00 00 00	 call	 ?get_system_texture_index@@YGHPBD@Z ; get_system_texture_index
  00161	a3 00 00 00 00	 mov	 DWORD PTR ?terrain_texture_road_bank_detail@@3HA, eax

; 2839 : 	terrain_texture_road_bank_colour_pass					= get_system_texture_index ( "COLOUR_PASS_YEMEN_BAKED2" );

  00166	68 00 00 00 00	 push	 OFFSET ??_C@_0BJ@OILJFHJP@COLOUR_PASS_YEMEN_BAKED2@
  0016b	e8 00 00 00 00	 call	 ?get_system_texture_index@@YGHPBD@Z ; get_system_texture_index
  00170	a3 00 00 00 00	 mov	 DWORD PTR ?terrain_texture_road_bank_colour_pass@@3HA, eax

; 2840 : 	terrain_texture_river_bank_detail						= get_system_texture_index ( "TERRAIN_YEMEN_GRITTY" );

  00175	68 00 00 00 00	 push	 OFFSET ??_C@_0BF@MBOPLBDO@TERRAIN_YEMEN_GRITTY@
  0017a	e8 00 00 00 00	 call	 ?get_system_texture_index@@YGHPBD@Z ; get_system_texture_index
  0017f	a3 00 00 00 00	 mov	 DWORD PTR ?terrain_texture_river_bank_detail@@3HA, eax

; 2841 : 	terrain_texture_river_bank_colour_pass					= get_system_texture_index ( "COLOUR_PASS_YEMEN_BAKED2" );

  00184	68 00 00 00 00	 push	 OFFSET ??_C@_0BJ@OILJFHJP@COLOUR_PASS_YEMEN_BAKED2@
  00189	e8 00 00 00 00	 call	 ?get_system_texture_index@@YGHPBD@Z ; get_system_texture_index
  0018e	a3 00 00 00 00	 mov	 DWORD PTR ?terrain_texture_river_bank_colour_pass@@3HA, eax

; 2842 : 	terrain_texture_altered_land1_detail					= get_system_texture_index ( "TERRAIN_SCRUB" );

  00193	68 00 00 00 00	 push	 OFFSET ??_C@_0O@PGGFIOAG@TERRAIN_SCRUB@
  00198	e8 00 00 00 00	 call	 ?get_system_texture_index@@YGHPBD@Z ; get_system_texture_index
  0019d	a3 00 00 00 00	 mov	 DWORD PTR ?terrain_texture_altered_land1_detail@@3HA, eax

; 2843 : 	terrain_texture_altered_land1_colour_pass				= get_system_texture_index ( "COLOUR_PASS_MOUNTAINS" );

  001a2	68 00 00 00 00	 push	 OFFSET ??_C@_0BG@IGFCFCHF@COLOUR_PASS_MOUNTAINS@
  001a7	e8 00 00 00 00	 call	 ?get_system_texture_index@@YGHPBD@Z ; get_system_texture_index
  001ac	a3 00 00 00 00	 mov	 DWORD PTR ?terrain_texture_altered_land1_colour_pass@@3HA, eax

; 2844 : 	terrain_texture_altered_land2_detail					= get_system_texture_index ( "TERRAIN_BARE_ROCK2" );

  001b1	68 00 00 00 00	 push	 OFFSET ??_C@_0BD@BMPINLKM@TERRAIN_BARE_ROCK2@
  001b6	e8 00 00 00 00	 call	 ?get_system_texture_index@@YGHPBD@Z ; get_system_texture_index
  001bb	a3 00 00 00 00	 mov	 DWORD PTR ?terrain_texture_altered_land2_detail@@3HA, eax

; 2845 : 	terrain_texture_altered_land2_colour_pass				= get_system_texture_index ( "COLOUR_PASS_ROCK" );

  001c0	68 00 00 00 00	 push	 OFFSET ??_C@_0BB@ILJMAEMJ@COLOUR_PASS_ROCK@
  001c5	e8 00 00 00 00	 call	 ?get_system_texture_index@@YGHPBD@Z ; get_system_texture_index
  001ca	a3 00 00 00 00	 mov	 DWORD PTR ?terrain_texture_altered_land2_colour_pass@@3HA, eax

; 2846 : 	terrain_texture_altered_land3_detail					= get_system_texture_index ( "TERRAIN_SNOW" );

  001cf	68 00 00 00 00	 push	 OFFSET ??_C@_0N@JANIPHBF@TERRAIN_SNOW@
  001d4	e8 00 00 00 00	 call	 ?get_system_texture_index@@YGHPBD@Z ; get_system_texture_index
  001d9	a3 00 00 00 00	 mov	 DWORD PTR ?terrain_texture_altered_land3_detail@@3HA, eax

; 2847 : 	terrain_texture_altered_land3_colour_pass				= get_system_texture_index ( "COLOUR_PASS_SNOW" );

  001de	68 00 00 00 00	 push	 OFFSET ??_C@_0BB@OBCNOOCF@COLOUR_PASS_SNOW@
  001e3	e8 00 00 00 00	 call	 ?get_system_texture_index@@YGHPBD@Z ; get_system_texture_index
  001e8	a3 00 00 00 00	 mov	 DWORD PTR ?terrain_texture_altered_land3_colour_pass@@3HA, eax

; 2848 : 
; 2849 : 	//VJ 050303 texture colour mod: use texture colour directly instead of brownish haze
; 2850 : 	if (command_line_texture_colour)

  001ed	83 3d 00 00 00
	00 00		 cmp	 DWORD PTR ?command_line_texture_colour@@3HA, 0 ; command_line_texture_colour
  001f4	74 05		 je	 SHORT $LN2@initialise

; 2851 : 		initialise_all_custom_terrain_types ();

  001f6	e8 00 00 00 00	 call	 ?initialise_all_custom_terrain_types@@YGXXZ ; initialise_all_custom_terrain_types
$LN2@initialise:

; 2852 : 
; 2853 : 	// Xhit: the surface types for the various terrain types are set according to the surroundings. (030328)
; 2854 : 	//set surface types for rotor dust
; 2855 : 	//VJ 051224 moved to separate function
; 2856 : 	initialise_surface_types();

  001fb	e8 00 00 00 00	 call	 ?initialise_surface_types@@YGXXZ ; initialise_surface_types

; 2857 : /*
; 2858 : 	terrain_surface_sea										= SURFACE_TYPE_WATER;
; 2859 : 	terrain_surface_beach									= SURFACE_TYPE_SAND;
; 2860 : 	terrain_surface_land										= SURFACE_TYPE_SOIL;
; 2861 : 	terrain_surface_road										= SURFACE_TYPE_ASPHALT;
; 2862 : 	terrain_surface_track									= SURFACE_TYPE_SOIL;
; 2863 : 	terrain_surface_river									= SURFACE_TYPE_WATER;
; 2864 : 	terrain_surface_road_bank								= SURFACE_TYPE_SOIL;
; 2865 : 	terrain_surface_river_bank								= SURFACE_TYPE_SAND;
; 2866 : 	terrain_surface_altered_land1							= SURFACE_TYPE_SOIL;
; 2867 : 	terrain_surface_altered_land2							= SURFACE_TYPE_SOIL;
; 2868 : 	terrain_surface_altered_land3							= SURFACE_TYPE_SOIL;
; 2869 : 	terrain_surface_trench									= SURFACE_TYPE_WATER;
; 2870 : */
; 2871 : 	set_object_3d_texture_camoflage_by_name ( "DEFAULT" );

  00200	68 00 00 00 00	 push	 OFFSET ??_C@_07MGCPDNLD@DEFAULT@
  00205	e8 00 00 00 00	 call	 ?set_object_3d_texture_camoflage_by_name@@YGXPAD@Z ; set_object_3d_texture_camoflage_by_name

; 2872 : 
; 2873 : 	reflection_texture_index = get_system_texture_index ( "ENVIRO_YEMEN_SMALL" );

  0020a	68 00 00 00 00	 push	 OFFSET ??_C@_0BD@MIKAIJBD@ENVIRO_YEMEN_SMALL@
  0020f	e8 00 00 00 00	 call	 ?get_system_texture_index@@YGHPBD@Z ; get_system_texture_index
  00214	89 45 d8	 mov	 DWORD PTR _reflection_texture_index$[ebp], eax

; 2874 : 
; 2875 : 	if ( reflection_texture_index != -1 )

  00217	83 7d d8 ff	 cmp	 DWORD PTR _reflection_texture_index$[ebp], -1
  0021b	74 09		 je	 SHORT $LN3@initialise

; 2876 : 	{
; 2877 : 
; 2878 : 		set_object_3d_reflection_texture_map ( reflection_texture_index );

  0021d	8b 45 d8	 mov	 eax, DWORD PTR _reflection_texture_index$[ebp]
  00220	50		 push	 eax
  00221	e8 00 00 00 00	 call	 ?set_object_3d_reflection_texture_map@@YGXH@Z ; set_object_3d_reflection_texture_map
$LN3@initialise:

; 2879 : 	}
; 2880 : 
; 2881 : 	set_2d_terrain_contour_heights ( sizeof ( contour_heights ) / sizeof ( float ), contour_heights );

  00226	8d 45 dc	 lea	 eax, DWORD PTR _contour_heights$[ebp]
  00229	50		 push	 eax
  0022a	6a 09		 push	 9
  0022c	e8 00 00 00 00	 call	 ?set_2d_terrain_contour_heights@@YGXHPAM@Z ; set_2d_terrain_contour_heights

; 2882 : }

  00231	5f		 pop	 edi
  00232	5e		 pop	 esi
  00233	5b		 pop	 ebx
  00234	8b e5		 mov	 esp, ebp
  00236	5d		 pop	 ebp
  00237	c3		 ret	 0
?initialise_3d_aleut_terrain_types@@YGXXZ ENDP		; initialise_3d_aleut_terrain_types
_TEXT	ENDS
; Function compile flags: /Odtp /ZI
; File c:\users\nhv90\projects\eech\modules\3d\terrain\terrtype.c
;	COMDAT ?initialise_3d_alaska_terrain_types@@YGXXZ
_TEXT	SEGMENT
_reflection_texture_index$ = -40			; size = 4
_contour_heights$ = -36					; size = 36
?initialise_3d_alaska_terrain_types@@YGXXZ PROC		; initialise_3d_alaska_terrain_types, COMDAT

; 2712 : {

  00000	55		 push	 ebp
  00001	8b ec		 mov	 ebp, esp
  00003	83 ec 68	 sub	 esp, 104		; 00000068H
  00006	53		 push	 ebx
  00007	56		 push	 esi
  00008	57		 push	 edi

; 2713 : 
; 2714 : 	float
; 2715 : 		contour_heights[] =
; 2716 : 		{
; 2717 : 
; 2718 : 			-1000,

  00009	f3 0f 10 05 00
	00 00 00	 movss	 xmm0, DWORD PTR __real@c47a0000
  00011	f3 0f 11 45 dc	 movss	 DWORD PTR _contour_heights$[ebp], xmm0

; 2719 : 			-0.0001,

  00016	f3 0f 10 05 00
	00 00 00	 movss	 xmm0, DWORD PTR __real@b8d1b717
  0001e	f3 0f 11 45 e0	 movss	 DWORD PTR _contour_heights$[ebp+4], xmm0

; 2720 : 			250,

  00023	f3 0f 10 05 00
	00 00 00	 movss	 xmm0, DWORD PTR __real@437a0000
  0002b	f3 0f 11 45 e4	 movss	 DWORD PTR _contour_heights$[ebp+8], xmm0

; 2721 : 			500,

  00030	f3 0f 10 05 00
	00 00 00	 movss	 xmm0, DWORD PTR __real@43fa0000
  00038	f3 0f 11 45 e8	 movss	 DWORD PTR _contour_heights$[ebp+12], xmm0

; 2722 : 			750,

  0003d	f3 0f 10 05 00
	00 00 00	 movss	 xmm0, DWORD PTR __real@443b8000
  00045	f3 0f 11 45 ec	 movss	 DWORD PTR _contour_heights$[ebp+16], xmm0

; 2723 : 			1000,

  0004a	f3 0f 10 05 00
	00 00 00	 movss	 xmm0, DWORD PTR __real@447a0000
  00052	f3 0f 11 45 f0	 movss	 DWORD PTR _contour_heights$[ebp+20], xmm0

; 2724 : 			1750,

  00057	f3 0f 10 05 00
	00 00 00	 movss	 xmm0, DWORD PTR __real@44dac000
  0005f	f3 0f 11 45 f4	 movss	 DWORD PTR _contour_heights$[ebp+24], xmm0

; 2725 : 			2600,

  00064	f3 0f 10 05 00
	00 00 00	 movss	 xmm0, DWORD PTR __real@45228000
  0006c	f3 0f 11 45 f8	 movss	 DWORD PTR _contour_heights$[ebp+28], xmm0

; 2726 : 			3700,

  00071	f3 0f 10 05 00
	00 00 00	 movss	 xmm0, DWORD PTR __real@45674000
  00079	f3 0f 11 45 fc	 movss	 DWORD PTR _contour_heights$[ebp+32], xmm0

; 2727 : 		};
; 2728 : 
; 2729 : 	int
; 2730 : 		reflection_texture_index;
; 2731 : 
; 2732 : 	set_3d_rain_special_snow_flag ( TRUE ); //????

  0007e	6a 01		 push	 1
  00080	e8 00 00 00 00	 call	 ?set_3d_rain_special_snow_flag@@YGXH@Z ; set_3d_rain_special_snow_flag

; 2733 : 
; 2734 : 	terrain_texture_sea_detail									= get_system_texture_index ( "TERRAIN_SEA_1" );

  00085	68 00 00 00 00	 push	 OFFSET ??_C@_0O@DCAMCMDE@TERRAIN_SEA_1@
  0008a	e8 00 00 00 00	 call	 ?get_system_texture_index@@YGHPBD@Z ; get_system_texture_index
  0008f	a3 00 00 00 00	 mov	 DWORD PTR ?terrain_texture_sea_detail@@3HA, eax

; 2735 : 	terrain_texture_sea_colour_pass							= get_system_texture_index ( "COLOUR_PASS_SEA_LEBANON" );

  00094	68 00 00 00 00	 push	 OFFSET ??_C@_0BI@EBJMGEFE@COLOUR_PASS_SEA_LEBANON@
  00099	e8 00 00 00 00	 call	 ?get_system_texture_index@@YGHPBD@Z ; get_system_texture_index
  0009e	a3 00 00 00 00	 mov	 DWORD PTR ?terrain_texture_sea_colour_pass@@3HA, eax

; 2736 : 	terrain_texture_beach_detail								= get_system_texture_index ( "TERRAIN_BEACH" );

  000a3	68 00 00 00 00	 push	 OFFSET ??_C@_0O@BBEHGFKB@TERRAIN_BEACH@
  000a8	e8 00 00 00 00	 call	 ?get_system_texture_index@@YGHPBD@Z ; get_system_texture_index
  000ad	a3 00 00 00 00	 mov	 DWORD PTR ?terrain_texture_beach_detail@@3HA, eax

; 2737 : 	terrain_texture_beach_colour_pass						= get_system_texture_index ( "COLOUR_PASS_LEBANON" );

  000b2	68 00 00 00 00	 push	 OFFSET ??_C@_0BE@CBPBIHAE@COLOUR_PASS_LEBANON@
  000b7	e8 00 00 00 00	 call	 ?get_system_texture_index@@YGHPBD@Z ; get_system_texture_index
  000bc	a3 00 00 00 00	 mov	 DWORD PTR ?terrain_texture_beach_colour_pass@@3HA, eax

; 2738 : 
; 2739 : 	terrain_texture_land_detail								= get_system_texture_index ( "TERRAIN_HIGHLAND" );

  000c1	68 00 00 00 00	 push	 OFFSET ??_C@_0BB@NLCHJFOM@TERRAIN_HIGHLAND@
  000c6	e8 00 00 00 00	 call	 ?get_system_texture_index@@YGHPBD@Z ; get_system_texture_index
  000cb	a3 00 00 00 00	 mov	 DWORD PTR ?terrain_texture_land_detail@@3HA, eax

; 2740 : 	terrain_texture_land_colour_pass							= get_system_texture_index ( "COLOUR_PASS_SWAMP" );

  000d0	68 00 00 00 00	 push	 OFFSET ??_C@_0BC@GNMAAAJL@COLOUR_PASS_SWAMP@
  000d5	e8 00 00 00 00	 call	 ?get_system_texture_index@@YGHPBD@Z ; get_system_texture_index
  000da	a3 00 00 00 00	 mov	 DWORD PTR ?terrain_texture_land_colour_pass@@3HA, eax

; 2741 : 
; 2742 : 	terrain_texture_road_detail								= get_system_texture_index ( "TERRAIN_DETAIL_ROAD" );

  000df	68 00 00 00 00	 push	 OFFSET ??_C@_0BE@EOMJEIPI@TERRAIN_DETAIL_ROAD@
  000e4	e8 00 00 00 00	 call	 ?get_system_texture_index@@YGHPBD@Z ; get_system_texture_index
  000e9	a3 00 00 00 00	 mov	 DWORD PTR ?terrain_texture_road_detail@@3HA, eax

; 2743 : 	terrain_texture_road_colour_pass							= get_system_texture_index ( "COLOUR_PASS_WALL" );      //TERRAIN_THAI_TRACK" );

  000ee	68 00 00 00 00	 push	 OFFSET ??_C@_0BB@OHLOCNHA@COLOUR_PASS_WALL@
  000f3	e8 00 00 00 00	 call	 ?get_system_texture_index@@YGHPBD@Z ; get_system_texture_index
  000f8	a3 00 00 00 00	 mov	 DWORD PTR ?terrain_texture_road_colour_pass@@3HA, eax

; 2744 : 	terrain_texture_track_detail								= get_system_texture_index ( "TERRAIN_DETAIL_ROAD" );

  000fd	68 00 00 00 00	 push	 OFFSET ??_C@_0BE@EOMJEIPI@TERRAIN_DETAIL_ROAD@
  00102	e8 00 00 00 00	 call	 ?get_system_texture_index@@YGHPBD@Z ; get_system_texture_index
  00107	a3 00 00 00 00	 mov	 DWORD PTR ?terrain_texture_track_detail@@3HA, eax

; 2745 : 	terrain_texture_track_colour_pass						= get_system_texture_index ( "COLOUR_PASS_YEMEN_BAKED2" );

  0010c	68 00 00 00 00	 push	 OFFSET ??_C@_0BJ@OILJFHJP@COLOUR_PASS_YEMEN_BAKED2@
  00111	e8 00 00 00 00	 call	 ?get_system_texture_index@@YGHPBD@Z ; get_system_texture_index
  00116	a3 00 00 00 00	 mov	 DWORD PTR ?terrain_texture_track_colour_pass@@3HA, eax

; 2746 : 	terrain_texture_river_detail								= get_system_texture_index ( "TERRAIN_RIVER" );

  0011b	68 00 00 00 00	 push	 OFFSET ??_C@_0O@KOAPGDHE@TERRAIN_RIVER@
  00120	e8 00 00 00 00	 call	 ?get_system_texture_index@@YGHPBD@Z ; get_system_texture_index
  00125	a3 00 00 00 00	 mov	 DWORD PTR ?terrain_texture_river_detail@@3HA, eax

; 2747 : 	terrain_texture_river_colour_pass						= get_system_texture_index ( "COLOUR_PASS_SEA_LEBANON" );

  0012a	68 00 00 00 00	 push	 OFFSET ??_C@_0BI@EBJMGEFE@COLOUR_PASS_SEA_LEBANON@
  0012f	e8 00 00 00 00	 call	 ?get_system_texture_index@@YGHPBD@Z ; get_system_texture_index
  00134	a3 00 00 00 00	 mov	 DWORD PTR ?terrain_texture_river_colour_pass@@3HA, eax

; 2748 : 	terrain_texture_reservoir_detail							= get_system_texture_index ( "TERRAIN_RIVER" );

  00139	68 00 00 00 00	 push	 OFFSET ??_C@_0O@KOAPGDHE@TERRAIN_RIVER@
  0013e	e8 00 00 00 00	 call	 ?get_system_texture_index@@YGHPBD@Z ; get_system_texture_index
  00143	a3 00 00 00 00	 mov	 DWORD PTR ?terrain_texture_reservoir_detail@@3HA, eax

; 2749 : 	terrain_texture_reservoir_colour_pass					= get_system_texture_index ( "COLOUR_PASS_SEA_LEBANON" );

  00148	68 00 00 00 00	 push	 OFFSET ??_C@_0BI@EBJMGEFE@COLOUR_PASS_SEA_LEBANON@
  0014d	e8 00 00 00 00	 call	 ?get_system_texture_index@@YGHPBD@Z ; get_system_texture_index
  00152	a3 00 00 00 00	 mov	 DWORD PTR ?terrain_texture_reservoir_colour_pass@@3HA, eax

; 2750 : 	terrain_texture_road_bank_detail							= get_system_texture_index ( "TERRAIN_DETAIL_4" );

  00157	68 00 00 00 00	 push	 OFFSET ??_C@_0BB@BDNEEDDA@TERRAIN_DETAIL_4@
  0015c	e8 00 00 00 00	 call	 ?get_system_texture_index@@YGHPBD@Z ; get_system_texture_index
  00161	a3 00 00 00 00	 mov	 DWORD PTR ?terrain_texture_road_bank_detail@@3HA, eax

; 2751 : 	terrain_texture_road_bank_colour_pass					= get_system_texture_index ( "COLOUR_PASS_YEMEN_BAKED2" );

  00166	68 00 00 00 00	 push	 OFFSET ??_C@_0BJ@OILJFHJP@COLOUR_PASS_YEMEN_BAKED2@
  0016b	e8 00 00 00 00	 call	 ?get_system_texture_index@@YGHPBD@Z ; get_system_texture_index
  00170	a3 00 00 00 00	 mov	 DWORD PTR ?terrain_texture_road_bank_colour_pass@@3HA, eax

; 2752 : 	terrain_texture_river_bank_detail						= get_system_texture_index ( "TERRAIN_YEMEN_GRITTY" );

  00175	68 00 00 00 00	 push	 OFFSET ??_C@_0BF@MBOPLBDO@TERRAIN_YEMEN_GRITTY@
  0017a	e8 00 00 00 00	 call	 ?get_system_texture_index@@YGHPBD@Z ; get_system_texture_index
  0017f	a3 00 00 00 00	 mov	 DWORD PTR ?terrain_texture_river_bank_detail@@3HA, eax

; 2753 : 	terrain_texture_river_bank_colour_pass					= get_system_texture_index ( "COLOUR_PASS_YEMEN_BAKED2" );

  00184	68 00 00 00 00	 push	 OFFSET ??_C@_0BJ@OILJFHJP@COLOUR_PASS_YEMEN_BAKED2@
  00189	e8 00 00 00 00	 call	 ?get_system_texture_index@@YGHPBD@Z ; get_system_texture_index
  0018e	a3 00 00 00 00	 mov	 DWORD PTR ?terrain_texture_river_bank_colour_pass@@3HA, eax

; 2754 : 	terrain_texture_altered_land1_detail					= get_system_texture_index ( "TERRAIN_SCRUB" );

  00193	68 00 00 00 00	 push	 OFFSET ??_C@_0O@PGGFIOAG@TERRAIN_SCRUB@
  00198	e8 00 00 00 00	 call	 ?get_system_texture_index@@YGHPBD@Z ; get_system_texture_index
  0019d	a3 00 00 00 00	 mov	 DWORD PTR ?terrain_texture_altered_land1_detail@@3HA, eax

; 2755 : 	terrain_texture_altered_land1_colour_pass				= get_system_texture_index ( "COLOUR_PASS_MOUNTAINS" );

  001a2	68 00 00 00 00	 push	 OFFSET ??_C@_0BG@IGFCFCHF@COLOUR_PASS_MOUNTAINS@
  001a7	e8 00 00 00 00	 call	 ?get_system_texture_index@@YGHPBD@Z ; get_system_texture_index
  001ac	a3 00 00 00 00	 mov	 DWORD PTR ?terrain_texture_altered_land1_colour_pass@@3HA, eax

; 2756 : 	terrain_texture_altered_land2_detail					= get_system_texture_index ( "TERRAIN_BARE_ROCK2" );

  001b1	68 00 00 00 00	 push	 OFFSET ??_C@_0BD@BMPINLKM@TERRAIN_BARE_ROCK2@
  001b6	e8 00 00 00 00	 call	 ?get_system_texture_index@@YGHPBD@Z ; get_system_texture_index
  001bb	a3 00 00 00 00	 mov	 DWORD PTR ?terrain_texture_altered_land2_detail@@3HA, eax

; 2757 : 	terrain_texture_altered_land2_colour_pass				= get_system_texture_index ( "COLOUR_PASS_ROCK" );

  001c0	68 00 00 00 00	 push	 OFFSET ??_C@_0BB@ILJMAEMJ@COLOUR_PASS_ROCK@
  001c5	e8 00 00 00 00	 call	 ?get_system_texture_index@@YGHPBD@Z ; get_system_texture_index
  001ca	a3 00 00 00 00	 mov	 DWORD PTR ?terrain_texture_altered_land2_colour_pass@@3HA, eax

; 2758 : 	terrain_texture_altered_land3_detail					= get_system_texture_index ( "TERRAIN_SNOW" );

  001cf	68 00 00 00 00	 push	 OFFSET ??_C@_0N@JANIPHBF@TERRAIN_SNOW@
  001d4	e8 00 00 00 00	 call	 ?get_system_texture_index@@YGHPBD@Z ; get_system_texture_index
  001d9	a3 00 00 00 00	 mov	 DWORD PTR ?terrain_texture_altered_land3_detail@@3HA, eax

; 2759 : 	terrain_texture_altered_land3_colour_pass				= get_system_texture_index ( "COLOUR_PASS_SNOW" );

  001de	68 00 00 00 00	 push	 OFFSET ??_C@_0BB@OBCNOOCF@COLOUR_PASS_SNOW@
  001e3	e8 00 00 00 00	 call	 ?get_system_texture_index@@YGHPBD@Z ; get_system_texture_index
  001e8	a3 00 00 00 00	 mov	 DWORD PTR ?terrain_texture_altered_land3_colour_pass@@3HA, eax

; 2760 : 
; 2761 : 	//VJ 050303 texture colour mod: use texture colour directly instead of brownish haze
; 2762 : 	if (command_line_texture_colour)

  001ed	83 3d 00 00 00
	00 00		 cmp	 DWORD PTR ?command_line_texture_colour@@3HA, 0 ; command_line_texture_colour
  001f4	74 05		 je	 SHORT $LN2@initialise

; 2763 : 		initialise_all_custom_terrain_types ();

  001f6	e8 00 00 00 00	 call	 ?initialise_all_custom_terrain_types@@YGXXZ ; initialise_all_custom_terrain_types
$LN2@initialise:

; 2764 : 
; 2765 : 	// Xhit: the surface types for the various terrain types are set according to the surroundings. (030328)
; 2766 : 	//set surface types for rotor dust
; 2767 : 	//VJ 051224 moved to separate function
; 2768 : 	initialise_surface_types();

  001fb	e8 00 00 00 00	 call	 ?initialise_surface_types@@YGXXZ ; initialise_surface_types

; 2769 : /*
; 2770 : 	terrain_surface_sea										= SURFACE_TYPE_WATER;
; 2771 : 	terrain_surface_beach									= SURFACE_TYPE_SAND;
; 2772 : 	terrain_surface_land										= SURFACE_TYPE_SOIL;
; 2773 : 	terrain_surface_road										= SURFACE_TYPE_ASPHALT;
; 2774 : 	terrain_surface_track									= SURFACE_TYPE_SOIL;
; 2775 : 	terrain_surface_river									= SURFACE_TYPE_WATER;
; 2776 : 	terrain_surface_road_bank								= SURFACE_TYPE_SOIL;
; 2777 : 	terrain_surface_river_bank								= SURFACE_TYPE_SAND;
; 2778 : 	terrain_surface_altered_land1							= SURFACE_TYPE_SOIL;
; 2779 : 	terrain_surface_altered_land2							= SURFACE_TYPE_SOIL;
; 2780 : 	terrain_surface_altered_land3							= SURFACE_TYPE_SOIL;
; 2781 : 	terrain_surface_trench									= SURFACE_TYPE_WATER;
; 2782 : */
; 2783 : 	set_object_3d_texture_camoflage_by_name ( "DEFAULT" );

  00200	68 00 00 00 00	 push	 OFFSET ??_C@_07MGCPDNLD@DEFAULT@
  00205	e8 00 00 00 00	 call	 ?set_object_3d_texture_camoflage_by_name@@YGXPAD@Z ; set_object_3d_texture_camoflage_by_name

; 2784 : 
; 2785 : 	reflection_texture_index = get_system_texture_index ( "ENVIRO_YEMEN_SMALL" );

  0020a	68 00 00 00 00	 push	 OFFSET ??_C@_0BD@MIKAIJBD@ENVIRO_YEMEN_SMALL@
  0020f	e8 00 00 00 00	 call	 ?get_system_texture_index@@YGHPBD@Z ; get_system_texture_index
  00214	89 45 d8	 mov	 DWORD PTR _reflection_texture_index$[ebp], eax

; 2786 : 
; 2787 : 	if ( reflection_texture_index != -1 )

  00217	83 7d d8 ff	 cmp	 DWORD PTR _reflection_texture_index$[ebp], -1
  0021b	74 09		 je	 SHORT $LN3@initialise

; 2788 : 	{
; 2789 : 
; 2790 : 		set_object_3d_reflection_texture_map ( reflection_texture_index );

  0021d	8b 45 d8	 mov	 eax, DWORD PTR _reflection_texture_index$[ebp]
  00220	50		 push	 eax
  00221	e8 00 00 00 00	 call	 ?set_object_3d_reflection_texture_map@@YGXH@Z ; set_object_3d_reflection_texture_map
$LN3@initialise:

; 2791 : 	}
; 2792 : 
; 2793 : 	set_2d_terrain_contour_heights ( sizeof ( contour_heights ) / sizeof ( float ), contour_heights );

  00226	8d 45 dc	 lea	 eax, DWORD PTR _contour_heights$[ebp]
  00229	50		 push	 eax
  0022a	6a 09		 push	 9
  0022c	e8 00 00 00 00	 call	 ?set_2d_terrain_contour_heights@@YGXHPAM@Z ; set_2d_terrain_contour_heights

; 2794 : }

  00231	5f		 pop	 edi
  00232	5e		 pop	 esi
  00233	5b		 pop	 ebx
  00234	8b e5		 mov	 esp, ebp
  00236	5d		 pop	 ebp
  00237	c3		 ret	 0
?initialise_3d_alaska_terrain_types@@YGXXZ ENDP		; initialise_3d_alaska_terrain_types
_TEXT	ENDS
; Function compile flags: /Odtp /ZI
; File c:\users\nhv90\projects\eech\modules\3d\terrain\terrtype.c
;	COMDAT ?initialise_3d_georgia_terrain_types@@YGXXZ
_TEXT	SEGMENT
_reflection_texture_index$ = -40			; size = 4
_contour_heights$ = -36					; size = 36
?initialise_3d_georgia_terrain_types@@YGXXZ PROC	; initialise_3d_georgia_terrain_types, COMDAT

; 1538 : {

  00000	55		 push	 ebp
  00001	8b ec		 mov	 ebp, esp
  00003	83 ec 68	 sub	 esp, 104		; 00000068H
  00006	53		 push	 ebx
  00007	56		 push	 esi
  00008	57		 push	 edi

; 1539 : 
; 1540 : 	float
; 1541 : 		contour_heights[] =
; 1542 : 		{
; 1543 : 
; 1544 : 			-1000,

  00009	f3 0f 10 05 00
	00 00 00	 movss	 xmm0, DWORD PTR __real@c47a0000
  00011	f3 0f 11 45 dc	 movss	 DWORD PTR _contour_heights$[ebp], xmm0

; 1545 : 			-0.0001,

  00016	f3 0f 10 05 00
	00 00 00	 movss	 xmm0, DWORD PTR __real@b8d1b717
  0001e	f3 0f 11 45 e0	 movss	 DWORD PTR _contour_heights$[ebp+4], xmm0

; 1546 : 			250,

  00023	f3 0f 10 05 00
	00 00 00	 movss	 xmm0, DWORD PTR __real@437a0000
  0002b	f3 0f 11 45 e4	 movss	 DWORD PTR _contour_heights$[ebp+8], xmm0

; 1547 : 			500,

  00030	f3 0f 10 05 00
	00 00 00	 movss	 xmm0, DWORD PTR __real@43fa0000
  00038	f3 0f 11 45 e8	 movss	 DWORD PTR _contour_heights$[ebp+12], xmm0

; 1548 : 			750,

  0003d	f3 0f 10 05 00
	00 00 00	 movss	 xmm0, DWORD PTR __real@443b8000
  00045	f3 0f 11 45 ec	 movss	 DWORD PTR _contour_heights$[ebp+16], xmm0

; 1549 : 			1000,

  0004a	f3 0f 10 05 00
	00 00 00	 movss	 xmm0, DWORD PTR __real@447a0000
  00052	f3 0f 11 45 f0	 movss	 DWORD PTR _contour_heights$[ebp+20], xmm0

; 1550 : 			1500,

  00057	f3 0f 10 05 00
	00 00 00	 movss	 xmm0, DWORD PTR __real@44bb8000
  0005f	f3 0f 11 45 f4	 movss	 DWORD PTR _contour_heights$[ebp+24], xmm0

; 1551 : 			3000,

  00064	f3 0f 10 05 00
	00 00 00	 movss	 xmm0, DWORD PTR __real@453b8000
  0006c	f3 0f 11 45 f8	 movss	 DWORD PTR _contour_heights$[ebp+28], xmm0

; 1552 : 			5000,

  00071	f3 0f 10 05 00
	00 00 00	 movss	 xmm0, DWORD PTR __real@459c4000
  00079	f3 0f 11 45 fc	 movss	 DWORD PTR _contour_heights$[ebp+32], xmm0

; 1553 : 		};
; 1554 : 
; 1555 : 	int
; 1556 : 		reflection_texture_index;
; 1557 : 
; 1558 : 	//
; 1559 : 	// DO allow snowing effect in Georgia
; 1560 : 	//
; 1561 : 
; 1562 : 	set_3d_rain_special_snow_flag ( TRUE );

  0007e	6a 01		 push	 1
  00080	e8 00 00 00 00	 call	 ?set_3d_rain_special_snow_flag@@YGXH@Z ; set_3d_rain_special_snow_flag

; 1563 : 
; 1564 : 	terrain_texture_sea_detail									= get_system_texture_index ( "TERRAIN_SEA_1" );

  00085	68 00 00 00 00	 push	 OFFSET ??_C@_0O@DCAMCMDE@TERRAIN_SEA_1@
  0008a	e8 00 00 00 00	 call	 ?get_system_texture_index@@YGHPBD@Z ; get_system_texture_index
  0008f	a3 00 00 00 00	 mov	 DWORD PTR ?terrain_texture_sea_detail@@3HA, eax

; 1565 : 	terrain_texture_sea_colour_pass							= get_system_texture_index ( "COLOUR_PASS_GRG_SEA" );

  00094	68 00 00 00 00	 push	 OFFSET ??_C@_0BE@HJIDJHBJ@COLOUR_PASS_GRG_SEA@
  00099	e8 00 00 00 00	 call	 ?get_system_texture_index@@YGHPBD@Z ; get_system_texture_index
  0009e	a3 00 00 00 00	 mov	 DWORD PTR ?terrain_texture_sea_colour_pass@@3HA, eax

; 1566 : 	terrain_texture_beach_detail								= get_system_texture_index ( "TERRAIN_BEACH" );

  000a3	68 00 00 00 00	 push	 OFFSET ??_C@_0O@BBEHGFKB@TERRAIN_BEACH@
  000a8	e8 00 00 00 00	 call	 ?get_system_texture_index@@YGHPBD@Z ; get_system_texture_index
  000ad	a3 00 00 00 00	 mov	 DWORD PTR ?terrain_texture_beach_detail@@3HA, eax

; 1567 : 	terrain_texture_beach_colour_pass						= get_system_texture_index ( "COLOUR_PASS" );

  000b2	68 00 00 00 00	 push	 OFFSET ??_C@_0M@LDEJELLC@COLOUR_PASS@
  000b7	e8 00 00 00 00	 call	 ?get_system_texture_index@@YGHPBD@Z ; get_system_texture_index
  000bc	a3 00 00 00 00	 mov	 DWORD PTR ?terrain_texture_beach_colour_pass@@3HA, eax

; 1568 : 	terrain_texture_land_detail								= get_system_texture_index ( "TERRAIN_DETAIL_4" );

  000c1	68 00 00 00 00	 push	 OFFSET ??_C@_0BB@BDNEEDDA@TERRAIN_DETAIL_4@
  000c6	e8 00 00 00 00	 call	 ?get_system_texture_index@@YGHPBD@Z ; get_system_texture_index
  000cb	a3 00 00 00 00	 mov	 DWORD PTR ?terrain_texture_land_detail@@3HA, eax

; 1569 : 	terrain_texture_land_colour_pass							= get_system_texture_index ( "CH_TERRAIN_CP1" );

  000d0	68 00 00 00 00	 push	 OFFSET ??_C@_0P@EOGCBCMK@CH_TERRAIN_CP1@
  000d5	e8 00 00 00 00	 call	 ?get_system_texture_index@@YGHPBD@Z ; get_system_texture_index
  000da	a3 00 00 00 00	 mov	 DWORD PTR ?terrain_texture_land_colour_pass@@3HA, eax

; 1570 : 	terrain_texture_forest_detail								= get_system_texture_index ( "TERRAIN_TREE_CANOPY_1" );

  000df	68 00 00 00 00	 push	 OFFSET ??_C@_0BG@EOMIBGLD@TERRAIN_TREE_CANOPY_1@
  000e4	e8 00 00 00 00	 call	 ?get_system_texture_index@@YGHPBD@Z ; get_system_texture_index
  000e9	a3 00 00 00 00	 mov	 DWORD PTR ?terrain_texture_forest_detail@@3HA, eax

; 1571 : 	terrain_texture_forest_colour_pass						= 0;

  000ee	c7 05 00 00 00
	00 00 00 00 00	 mov	 DWORD PTR ?terrain_texture_forest_colour_pass@@3HA, 0

; 1572 : 	terrain_texture_builtup_area1_detail					= get_system_texture_index ( "TERRAIN_GRG_CITY4" );

  000f8	68 00 00 00 00	 push	 OFFSET ??_C@_0BC@IFNGCBJM@TERRAIN_GRG_CITY4@
  000fd	e8 00 00 00 00	 call	 ?get_system_texture_index@@YGHPBD@Z ; get_system_texture_index
  00102	a3 00 00 00 00	 mov	 DWORD PTR ?terrain_texture_builtup_area1_detail@@3HA, eax

; 1573 : 	terrain_texture_builtup_area1_colour_pass				= get_system_texture_index ( "COLOUR_PASS" );

  00107	68 00 00 00 00	 push	 OFFSET ??_C@_0M@LDEJELLC@COLOUR_PASS@
  0010c	e8 00 00 00 00	 call	 ?get_system_texture_index@@YGHPBD@Z ; get_system_texture_index
  00111	a3 00 00 00 00	 mov	 DWORD PTR ?terrain_texture_builtup_area1_colour_pass@@3HA, eax

; 1574 : 	terrain_texture_builtup_area2_detail					= get_system_texture_index ( "TERRAIN_GRG_CITY3" );

  00116	68 00 00 00 00	 push	 OFFSET ??_C@_0BC@MKJHLHFL@TERRAIN_GRG_CITY3@
  0011b	e8 00 00 00 00	 call	 ?get_system_texture_index@@YGHPBD@Z ; get_system_texture_index
  00120	a3 00 00 00 00	 mov	 DWORD PTR ?terrain_texture_builtup_area2_detail@@3HA, eax

; 1575 : 	terrain_texture_builtup_area2_colour_pass				= get_system_texture_index ( "COLOUR_PASS" );

  00125	68 00 00 00 00	 push	 OFFSET ??_C@_0M@LDEJELLC@COLOUR_PASS@
  0012a	e8 00 00 00 00	 call	 ?get_system_texture_index@@YGHPBD@Z ; get_system_texture_index
  0012f	a3 00 00 00 00	 mov	 DWORD PTR ?terrain_texture_builtup_area2_colour_pass@@3HA, eax

; 1576 : 	terrain_texture_builtup_area3_detail					= get_system_texture_index ( "TERRAIN_GRG_CITY2" );

  00134	68 00 00 00 00	 push	 OFFSET ??_C@_0BC@NDIMIGBK@TERRAIN_GRG_CITY2@
  00139	e8 00 00 00 00	 call	 ?get_system_texture_index@@YGHPBD@Z ; get_system_texture_index
  0013e	a3 00 00 00 00	 mov	 DWORD PTR ?terrain_texture_builtup_area3_detail@@3HA, eax

; 1577 : 	terrain_texture_builtup_area3_colour_pass				= get_system_texture_index ( "COLOUR_PASS" );

  00143	68 00 00 00 00	 push	 OFFSET ??_C@_0M@LDEJELLC@COLOUR_PASS@
  00148	e8 00 00 00 00	 call	 ?get_system_texture_index@@YGHPBD@Z ; get_system_texture_index
  0014d	a3 00 00 00 00	 mov	 DWORD PTR ?terrain_texture_builtup_area3_colour_pass@@3HA, eax

; 1578 : 	terrain_texture_builtup_area4_detail					= get_system_texture_index ( "TERRAIN_GRG_CITY1" );

  00152	68 00 00 00 00	 push	 OFFSET ??_C@_0BC@PIKBNFNJ@TERRAIN_GRG_CITY1@
  00157	e8 00 00 00 00	 call	 ?get_system_texture_index@@YGHPBD@Z ; get_system_texture_index
  0015c	a3 00 00 00 00	 mov	 DWORD PTR ?terrain_texture_builtup_area4_detail@@3HA, eax

; 1579 : 	terrain_texture_builtup_area4_colour_pass				= get_system_texture_index ( "COLOUR_PASS" );

  00161	68 00 00 00 00	 push	 OFFSET ??_C@_0M@LDEJELLC@COLOUR_PASS@
  00166	e8 00 00 00 00	 call	 ?get_system_texture_index@@YGHPBD@Z ; get_system_texture_index
  0016b	a3 00 00 00 00	 mov	 DWORD PTR ?terrain_texture_builtup_area4_colour_pass@@3HA, eax

; 1580 : 	terrain_texture_builtup_area1_infrared_detail		= get_system_texture_index ( "TERRAIN_BW_CITY4" );

  00170	68 00 00 00 00	 push	 OFFSET ??_C@_0BB@IALPPKNP@TERRAIN_BW_CITY4@
  00175	e8 00 00 00 00	 call	 ?get_system_texture_index@@YGHPBD@Z ; get_system_texture_index
  0017a	a3 00 00 00 00	 mov	 DWORD PTR ?terrain_texture_builtup_area1_infrared_detail@@3HA, eax

; 1581 : 	terrain_texture_builtup_area1_infrared_colour_pass	= get_system_texture_index ( "COLOUR_PASS" );

  0017f	68 00 00 00 00	 push	 OFFSET ??_C@_0M@LDEJELLC@COLOUR_PASS@
  00184	e8 00 00 00 00	 call	 ?get_system_texture_index@@YGHPBD@Z ; get_system_texture_index
  00189	a3 00 00 00 00	 mov	 DWORD PTR ?terrain_texture_builtup_area1_infrared_colour_pass@@3HA, eax

; 1582 : 	terrain_texture_builtup_area2_infrared_detail		= get_system_texture_index ( "TERRAIN_BW_CITY3" );

  0018e	68 00 00 00 00	 push	 OFFSET ??_C@_0BB@MPPOGMBI@TERRAIN_BW_CITY3@
  00193	e8 00 00 00 00	 call	 ?get_system_texture_index@@YGHPBD@Z ; get_system_texture_index
  00198	a3 00 00 00 00	 mov	 DWORD PTR ?terrain_texture_builtup_area2_infrared_detail@@3HA, eax

; 1583 : 	terrain_texture_builtup_area2_infrared_colour_pass	= get_system_texture_index ( "COLOUR_PASS" );

  0019d	68 00 00 00 00	 push	 OFFSET ??_C@_0M@LDEJELLC@COLOUR_PASS@
  001a2	e8 00 00 00 00	 call	 ?get_system_texture_index@@YGHPBD@Z ; get_system_texture_index
  001a7	a3 00 00 00 00	 mov	 DWORD PTR ?terrain_texture_builtup_area2_infrared_colour_pass@@3HA, eax

; 1584 : 	terrain_texture_builtup_area3_infrared_detail		= get_system_texture_index ( "TERRAIN_BW_CITY2" );

  001ac	68 00 00 00 00	 push	 OFFSET ??_C@_0BB@NGOFFNFJ@TERRAIN_BW_CITY2@
  001b1	e8 00 00 00 00	 call	 ?get_system_texture_index@@YGHPBD@Z ; get_system_texture_index
  001b6	a3 00 00 00 00	 mov	 DWORD PTR ?terrain_texture_builtup_area3_infrared_detail@@3HA, eax

; 1585 : 	terrain_texture_builtup_area3_infrared_colour_pass	= get_system_texture_index ( "COLOUR_PASS" );

  001bb	68 00 00 00 00	 push	 OFFSET ??_C@_0M@LDEJELLC@COLOUR_PASS@
  001c0	e8 00 00 00 00	 call	 ?get_system_texture_index@@YGHPBD@Z ; get_system_texture_index
  001c5	a3 00 00 00 00	 mov	 DWORD PTR ?terrain_texture_builtup_area3_infrared_colour_pass@@3HA, eax

; 1586 : 	terrain_texture_builtup_area4_infrared_detail		= get_system_texture_index ( "TERRAIN_BW_CITY1" );

  001ca	68 00 00 00 00	 push	 OFFSET ??_C@_0BB@PNMIAOJK@TERRAIN_BW_CITY1@
  001cf	e8 00 00 00 00	 call	 ?get_system_texture_index@@YGHPBD@Z ; get_system_texture_index
  001d4	a3 00 00 00 00	 mov	 DWORD PTR ?terrain_texture_builtup_area4_infrared_detail@@3HA, eax

; 1587 : 	terrain_texture_builtup_area4_infrared_colour_pass	= get_system_texture_index ( "COLOUR_PASS" );

  001d9	68 00 00 00 00	 push	 OFFSET ??_C@_0M@LDEJELLC@COLOUR_PASS@
  001de	e8 00 00 00 00	 call	 ?get_system_texture_index@@YGHPBD@Z ; get_system_texture_index
  001e3	a3 00 00 00 00	 mov	 DWORD PTR ?terrain_texture_builtup_area4_infrared_colour_pass@@3HA, eax

; 1588 : 	terrain_texture_road_detail								= get_system_texture_index ( "TERRAIN_DETAIL_ROAD" );

  001e8	68 00 00 00 00	 push	 OFFSET ??_C@_0BE@EOMJEIPI@TERRAIN_DETAIL_ROAD@
  001ed	e8 00 00 00 00	 call	 ?get_system_texture_index@@YGHPBD@Z ; get_system_texture_index
  001f2	a3 00 00 00 00	 mov	 DWORD PTR ?terrain_texture_road_detail@@3HA, eax

; 1589 : 	terrain_texture_road_colour_pass							= get_system_texture_index ( "COLOUR_PASS_WALL" );

  001f7	68 00 00 00 00	 push	 OFFSET ??_C@_0BB@OHLOCNHA@COLOUR_PASS_WALL@
  001fc	e8 00 00 00 00	 call	 ?get_system_texture_index@@YGHPBD@Z ; get_system_texture_index
  00201	a3 00 00 00 00	 mov	 DWORD PTR ?terrain_texture_road_colour_pass@@3HA, eax

; 1590 : 	terrain_texture_track_detail								= get_system_texture_index ( "TERRAIN_THAI_TRACK" );

  00206	68 00 00 00 00	 push	 OFFSET ??_C@_0BD@HAICHOLH@TERRAIN_THAI_TRACK@
  0020b	e8 00 00 00 00	 call	 ?get_system_texture_index@@YGHPBD@Z ; get_system_texture_index
  00210	a3 00 00 00 00	 mov	 DWORD PTR ?terrain_texture_track_detail@@3HA, eax

; 1591 : 	terrain_texture_track_colour_pass						= get_system_texture_index ( "COLOUR_PASS_WALL" );

  00215	68 00 00 00 00	 push	 OFFSET ??_C@_0BB@OHLOCNHA@COLOUR_PASS_WALL@
  0021a	e8 00 00 00 00	 call	 ?get_system_texture_index@@YGHPBD@Z ; get_system_texture_index
  0021f	a3 00 00 00 00	 mov	 DWORD PTR ?terrain_texture_track_colour_pass@@3HA, eax

; 1592 : 	terrain_texture_river_detail								= get_system_texture_index ( "TERRAIN_RIVER" );

  00224	68 00 00 00 00	 push	 OFFSET ??_C@_0O@KOAPGDHE@TERRAIN_RIVER@
  00229	e8 00 00 00 00	 call	 ?get_system_texture_index@@YGHPBD@Z ; get_system_texture_index
  0022e	a3 00 00 00 00	 mov	 DWORD PTR ?terrain_texture_river_detail@@3HA, eax

; 1593 : 	terrain_texture_river_colour_pass						= 0;

  00233	c7 05 00 00 00
	00 00 00 00 00	 mov	 DWORD PTR ?terrain_texture_river_colour_pass@@3HA, 0

; 1594 : 	terrain_texture_reservoir_detail							= get_system_texture_index ( "TERRAIN_RIVER" );

  0023d	68 00 00 00 00	 push	 OFFSET ??_C@_0O@KOAPGDHE@TERRAIN_RIVER@
  00242	e8 00 00 00 00	 call	 ?get_system_texture_index@@YGHPBD@Z ; get_system_texture_index
  00247	a3 00 00 00 00	 mov	 DWORD PTR ?terrain_texture_reservoir_detail@@3HA, eax

; 1595 : 	terrain_texture_reservoir_colour_pass					= 0;

  0024c	c7 05 00 00 00
	00 00 00 00 00	 mov	 DWORD PTR ?terrain_texture_reservoir_colour_pass@@3HA, 0

; 1596 : 	terrain_texture_rail_detail								= 0;

  00256	c7 05 00 00 00
	00 00 00 00 00	 mov	 DWORD PTR ?terrain_texture_rail_detail@@3HA, 0

; 1597 : 	terrain_texture_rail_colour_pass							= 0;

  00260	c7 05 00 00 00
	00 00 00 00 00	 mov	 DWORD PTR ?terrain_texture_rail_colour_pass@@3HA, 0

; 1598 : 	terrain_texture_road_bank_detail							= get_system_texture_index ( "TERRAIN_DETAIL_4" );

  0026a	68 00 00 00 00	 push	 OFFSET ??_C@_0BB@BDNEEDDA@TERRAIN_DETAIL_4@
  0026f	e8 00 00 00 00	 call	 ?get_system_texture_index@@YGHPBD@Z ; get_system_texture_index
  00274	a3 00 00 00 00	 mov	 DWORD PTR ?terrain_texture_road_bank_detail@@3HA, eax

; 1599 : 	terrain_texture_road_bank_colour_pass					= get_system_texture_index ( "COLOUR_PASS" );

  00279	68 00 00 00 00	 push	 OFFSET ??_C@_0M@LDEJELLC@COLOUR_PASS@
  0027e	e8 00 00 00 00	 call	 ?get_system_texture_index@@YGHPBD@Z ; get_system_texture_index
  00283	a3 00 00 00 00	 mov	 DWORD PTR ?terrain_texture_road_bank_colour_pass@@3HA, eax

; 1600 : 	terrain_texture_river_bank_detail						= get_system_texture_index ( "TERRAIN_BEACH" );

  00288	68 00 00 00 00	 push	 OFFSET ??_C@_0O@BBEHGFKB@TERRAIN_BEACH@
  0028d	e8 00 00 00 00	 call	 ?get_system_texture_index@@YGHPBD@Z ; get_system_texture_index
  00292	a3 00 00 00 00	 mov	 DWORD PTR ?terrain_texture_river_bank_detail@@3HA, eax

; 1601 : 	terrain_texture_river_bank_colour_pass					= get_system_texture_index ( "COLOUR_PASS" );

  00297	68 00 00 00 00	 push	 OFFSET ??_C@_0M@LDEJELLC@COLOUR_PASS@
  0029c	e8 00 00 00 00	 call	 ?get_system_texture_index@@YGHPBD@Z ; get_system_texture_index
  002a1	a3 00 00 00 00	 mov	 DWORD PTR ?terrain_texture_river_bank_colour_pass@@3HA, eax

; 1602 : 	terrain_texture_rail_bank_detail							= 0;

  002a6	c7 05 00 00 00
	00 00 00 00 00	 mov	 DWORD PTR ?terrain_texture_rail_bank_detail@@3HA, 0

; 1603 : 	terrain_texture_rail_bank_colour_pass					= 0;

  002b0	c7 05 00 00 00
	00 00 00 00 00	 mov	 DWORD PTR ?terrain_texture_rail_bank_colour_pass@@3HA, 0

; 1604 : 	terrain_texture_field1_detail								= get_system_texture_index ( "TERRAIN_MUSTARDFIELD" );

  002ba	68 00 00 00 00	 push	 OFFSET ??_C@_0BF@GFEKLLKL@TERRAIN_MUSTARDFIELD@
  002bf	e8 00 00 00 00	 call	 ?get_system_texture_index@@YGHPBD@Z ; get_system_texture_index
  002c4	a3 00 00 00 00	 mov	 DWORD PTR ?terrain_texture_field1_detail@@3HA, eax

; 1605 : 	terrain_texture_field1_colour_pass						= get_system_texture_index ( "COLOUR_PASS" );

  002c9	68 00 00 00 00	 push	 OFFSET ??_C@_0M@LDEJELLC@COLOUR_PASS@
  002ce	e8 00 00 00 00	 call	 ?get_system_texture_index@@YGHPBD@Z ; get_system_texture_index
  002d3	a3 00 00 00 00	 mov	 DWORD PTR ?terrain_texture_field1_colour_pass@@3HA, eax

; 1606 : 	terrain_texture_field2_detail								= get_system_texture_index ( "TERRAIN_PLOUGHED1FIELD" );

  002d8	68 00 00 00 00	 push	 OFFSET ??_C@_0BH@JNGNCFED@TERRAIN_PLOUGHED1FIELD@
  002dd	e8 00 00 00 00	 call	 ?get_system_texture_index@@YGHPBD@Z ; get_system_texture_index
  002e2	a3 00 00 00 00	 mov	 DWORD PTR ?terrain_texture_field2_detail@@3HA, eax

; 1607 : 	terrain_texture_field2_colour_pass						= get_system_texture_index ( "COLOUR_PASS" );

  002e7	68 00 00 00 00	 push	 OFFSET ??_C@_0M@LDEJELLC@COLOUR_PASS@
  002ec	e8 00 00 00 00	 call	 ?get_system_texture_index@@YGHPBD@Z ; get_system_texture_index
  002f1	a3 00 00 00 00	 mov	 DWORD PTR ?terrain_texture_field2_colour_pass@@3HA, eax

; 1608 : 	terrain_texture_field3_detail								= get_system_texture_index ( "TERRAIN_PLOUGHED2FIELD" );

  002f6	68 00 00 00 00	 push	 OFFSET ??_C@_0BH@KMIFDPNO@TERRAIN_PLOUGHED2FIELD@
  002fb	e8 00 00 00 00	 call	 ?get_system_texture_index@@YGHPBD@Z ; get_system_texture_index
  00300	a3 00 00 00 00	 mov	 DWORD PTR ?terrain_texture_field3_detail@@3HA, eax

; 1609 : 	terrain_texture_field3_colour_pass						= get_system_texture_index ( "COLOUR_PASS" );

  00305	68 00 00 00 00	 push	 OFFSET ??_C@_0M@LDEJELLC@COLOUR_PASS@
  0030a	e8 00 00 00 00	 call	 ?get_system_texture_index@@YGHPBD@Z ; get_system_texture_index
  0030f	a3 00 00 00 00	 mov	 DWORD PTR ?terrain_texture_field3_colour_pass@@3HA, eax

; 1610 : 	terrain_texture_field4_detail								= get_system_texture_index ( "TERRAIN_CORNFIELD" );

  00314	68 00 00 00 00	 push	 OFFSET ??_C@_0BC@KJPKDFNB@TERRAIN_CORNFIELD@
  00319	e8 00 00 00 00	 call	 ?get_system_texture_index@@YGHPBD@Z ; get_system_texture_index
  0031e	a3 00 00 00 00	 mov	 DWORD PTR ?terrain_texture_field4_detail@@3HA, eax

; 1611 : 	terrain_texture_field4_colour_pass						= get_system_texture_index ( "COLOUR_PASS" );

  00323	68 00 00 00 00	 push	 OFFSET ??_C@_0M@LDEJELLC@COLOUR_PASS@
  00328	e8 00 00 00 00	 call	 ?get_system_texture_index@@YGHPBD@Z ; get_system_texture_index
  0032d	a3 00 00 00 00	 mov	 DWORD PTR ?terrain_texture_field4_colour_pass@@3HA, eax

; 1612 : 	terrain_texture_field5_detail								= get_system_texture_index ( "TERRAIN_WHEATFIELD" );

  00332	68 00 00 00 00	 push	 OFFSET ??_C@_0BD@DPOGMPFD@TERRAIN_WHEATFIELD@
  00337	e8 00 00 00 00	 call	 ?get_system_texture_index@@YGHPBD@Z ; get_system_texture_index
  0033c	a3 00 00 00 00	 mov	 DWORD PTR ?terrain_texture_field5_detail@@3HA, eax

; 1613 : 	terrain_texture_field5_colour_pass						= get_system_texture_index ( "COLOUR_PASS" );

  00341	68 00 00 00 00	 push	 OFFSET ??_C@_0M@LDEJELLC@COLOUR_PASS@
  00346	e8 00 00 00 00	 call	 ?get_system_texture_index@@YGHPBD@Z ; get_system_texture_index
  0034b	a3 00 00 00 00	 mov	 DWORD PTR ?terrain_texture_field5_colour_pass@@3HA, eax

; 1614 : 	terrain_texture_field6_detail								= get_system_texture_index ( "TERRAIN_LIGHTGREENFIELD" );

  00350	68 00 00 00 00	 push	 OFFSET ??_C@_0BI@KPJCKJLC@TERRAIN_LIGHTGREENFIELD@
  00355	e8 00 00 00 00	 call	 ?get_system_texture_index@@YGHPBD@Z ; get_system_texture_index
  0035a	a3 00 00 00 00	 mov	 DWORD PTR ?terrain_texture_field6_detail@@3HA, eax

; 1615 : 	terrain_texture_field6_colour_pass						= get_system_texture_index ( "COLOUR_PASS" );

  0035f	68 00 00 00 00	 push	 OFFSET ??_C@_0M@LDEJELLC@COLOUR_PASS@
  00364	e8 00 00 00 00	 call	 ?get_system_texture_index@@YGHPBD@Z ; get_system_texture_index
  00369	a3 00 00 00 00	 mov	 DWORD PTR ?terrain_texture_field6_colour_pass@@3HA, eax

; 1616 : 	terrain_texture_field7_detail								= get_system_texture_index ( "TERRAIN_DARKGREENFIELD" );

  0036e	68 00 00 00 00	 push	 OFFSET ??_C@_0BH@BEINOGAP@TERRAIN_DARKGREENFIELD@
  00373	e8 00 00 00 00	 call	 ?get_system_texture_index@@YGHPBD@Z ; get_system_texture_index
  00378	a3 00 00 00 00	 mov	 DWORD PTR ?terrain_texture_field7_detail@@3HA, eax

; 1617 : 	terrain_texture_field7_colour_pass						= get_system_texture_index ( "COLOUR_PASS" );

  0037d	68 00 00 00 00	 push	 OFFSET ??_C@_0M@LDEJELLC@COLOUR_PASS@
  00382	e8 00 00 00 00	 call	 ?get_system_texture_index@@YGHPBD@Z ; get_system_texture_index
  00387	a3 00 00 00 00	 mov	 DWORD PTR ?terrain_texture_field7_colour_pass@@3HA, eax

; 1618 : 	terrain_texture_field8_detail								= get_system_texture_index ( "TERRAIN_MUSTARDFIELD" );

  0038c	68 00 00 00 00	 push	 OFFSET ??_C@_0BF@GFEKLLKL@TERRAIN_MUSTARDFIELD@
  00391	e8 00 00 00 00	 call	 ?get_system_texture_index@@YGHPBD@Z ; get_system_texture_index
  00396	a3 00 00 00 00	 mov	 DWORD PTR ?terrain_texture_field8_detail@@3HA, eax

; 1619 : 	terrain_texture_field8_colour_pass						= get_system_texture_index ( "COLOUR_PASS" );

  0039b	68 00 00 00 00	 push	 OFFSET ??_C@_0M@LDEJELLC@COLOUR_PASS@
  003a0	e8 00 00 00 00	 call	 ?get_system_texture_index@@YGHPBD@Z ; get_system_texture_index
  003a5	a3 00 00 00 00	 mov	 DWORD PTR ?terrain_texture_field8_colour_pass@@3HA, eax

; 1620 : 	terrain_texture_field9_detail								= get_system_texture_index ( "TERRAIN_PLOUGHED1FIELD" );

  003aa	68 00 00 00 00	 push	 OFFSET ??_C@_0BH@JNGNCFED@TERRAIN_PLOUGHED1FIELD@
  003af	e8 00 00 00 00	 call	 ?get_system_texture_index@@YGHPBD@Z ; get_system_texture_index
  003b4	a3 00 00 00 00	 mov	 DWORD PTR ?terrain_texture_field9_detail@@3HA, eax

; 1621 : 	terrain_texture_field9_colour_pass						= get_system_texture_index ( "COLOUR_PASS" );

  003b9	68 00 00 00 00	 push	 OFFSET ??_C@_0M@LDEJELLC@COLOUR_PASS@
  003be	e8 00 00 00 00	 call	 ?get_system_texture_index@@YGHPBD@Z ; get_system_texture_index
  003c3	a3 00 00 00 00	 mov	 DWORD PTR ?terrain_texture_field9_colour_pass@@3HA, eax

; 1622 : 	terrain_texture_field10_detail							= get_system_texture_index ( "TERRAIN_PLOUGHED2FIELD" );

  003c8	68 00 00 00 00	 push	 OFFSET ??_C@_0BH@KMIFDPNO@TERRAIN_PLOUGHED2FIELD@
  003cd	e8 00 00 00 00	 call	 ?get_system_texture_index@@YGHPBD@Z ; get_system_texture_index
  003d2	a3 00 00 00 00	 mov	 DWORD PTR ?terrain_texture_field10_detail@@3HA, eax

; 1623 : 	terrain_texture_field10_colour_pass						= get_system_texture_index ( "COLOUR_PASS" );

  003d7	68 00 00 00 00	 push	 OFFSET ??_C@_0M@LDEJELLC@COLOUR_PASS@
  003dc	e8 00 00 00 00	 call	 ?get_system_texture_index@@YGHPBD@Z ; get_system_texture_index
  003e1	a3 00 00 00 00	 mov	 DWORD PTR ?terrain_texture_field10_colour_pass@@3HA, eax

; 1624 : 	terrain_texture_field11_detail							= get_system_texture_index ( "TERRAIN_CORNFIELD" );

  003e6	68 00 00 00 00	 push	 OFFSET ??_C@_0BC@KJPKDFNB@TERRAIN_CORNFIELD@
  003eb	e8 00 00 00 00	 call	 ?get_system_texture_index@@YGHPBD@Z ; get_system_texture_index
  003f0	a3 00 00 00 00	 mov	 DWORD PTR ?terrain_texture_field11_detail@@3HA, eax

; 1625 : 	terrain_texture_field11_colour_pass						= get_system_texture_index ( "COLOUR_PASS" );

  003f5	68 00 00 00 00	 push	 OFFSET ??_C@_0M@LDEJELLC@COLOUR_PASS@
  003fa	e8 00 00 00 00	 call	 ?get_system_texture_index@@YGHPBD@Z ; get_system_texture_index
  003ff	a3 00 00 00 00	 mov	 DWORD PTR ?terrain_texture_field11_colour_pass@@3HA, eax

; 1626 : 	terrain_texture_altered_land1_detail					= get_system_texture_index ( "TERRAIN_SCRUB" );

  00404	68 00 00 00 00	 push	 OFFSET ??_C@_0O@PGGFIOAG@TERRAIN_SCRUB@
  00409	e8 00 00 00 00	 call	 ?get_system_texture_index@@YGHPBD@Z ; get_system_texture_index
  0040e	a3 00 00 00 00	 mov	 DWORD PTR ?terrain_texture_altered_land1_detail@@3HA, eax

; 1627 : 	terrain_texture_altered_land1_colour_pass				= get_system_texture_index ( "COLOUR_PASS_MOUNTAINS" );

  00413	68 00 00 00 00	 push	 OFFSET ??_C@_0BG@IGFCFCHF@COLOUR_PASS_MOUNTAINS@
  00418	e8 00 00 00 00	 call	 ?get_system_texture_index@@YGHPBD@Z ; get_system_texture_index
  0041d	a3 00 00 00 00	 mov	 DWORD PTR ?terrain_texture_altered_land1_colour_pass@@3HA, eax

; 1628 : 	terrain_texture_altered_land2_detail					= get_system_texture_index ( "TERRAIN_BARE_ROCK2" );

  00422	68 00 00 00 00	 push	 OFFSET ??_C@_0BD@BMPINLKM@TERRAIN_BARE_ROCK2@
  00427	e8 00 00 00 00	 call	 ?get_system_texture_index@@YGHPBD@Z ; get_system_texture_index
  0042c	a3 00 00 00 00	 mov	 DWORD PTR ?terrain_texture_altered_land2_detail@@3HA, eax

; 1629 : 	terrain_texture_altered_land2_colour_pass				= get_system_texture_index ( "COLOUR_PASS_ROCK" );

  00431	68 00 00 00 00	 push	 OFFSET ??_C@_0BB@ILJMAEMJ@COLOUR_PASS_ROCK@
  00436	e8 00 00 00 00	 call	 ?get_system_texture_index@@YGHPBD@Z ; get_system_texture_index
  0043b	a3 00 00 00 00	 mov	 DWORD PTR ?terrain_texture_altered_land2_colour_pass@@3HA, eax

; 1630 : 	terrain_texture_altered_land3_detail					= get_system_texture_index ( "TERRAIN_SNOW" );

  00440	68 00 00 00 00	 push	 OFFSET ??_C@_0N@JANIPHBF@TERRAIN_SNOW@
  00445	e8 00 00 00 00	 call	 ?get_system_texture_index@@YGHPBD@Z ; get_system_texture_index
  0044a	a3 00 00 00 00	 mov	 DWORD PTR ?terrain_texture_altered_land3_detail@@3HA, eax

; 1631 : 	terrain_texture_altered_land3_colour_pass				= get_system_texture_index ( "COLOUR_PASS_SNOW" );

  0044f	68 00 00 00 00	 push	 OFFSET ??_C@_0BB@OBCNOOCF@COLOUR_PASS_SNOW@
  00454	e8 00 00 00 00	 call	 ?get_system_texture_index@@YGHPBD@Z ; get_system_texture_index
  00459	a3 00 00 00 00	 mov	 DWORD PTR ?terrain_texture_altered_land3_colour_pass@@3HA, eax

; 1632 : 	terrain_texture_hedge_detail								= get_system_texture_index ( "TERRAIN_TREE_CANOPY_1" );

  0045e	68 00 00 00 00	 push	 OFFSET ??_C@_0BG@EOMIBGLD@TERRAIN_TREE_CANOPY_1@
  00463	e8 00 00 00 00	 call	 ?get_system_texture_index@@YGHPBD@Z ; get_system_texture_index
  00468	a3 00 00 00 00	 mov	 DWORD PTR ?terrain_texture_hedge_detail@@3HA, eax

; 1633 : 	terrain_texture_hedge_colour_pass						= 0;

  0046d	c7 05 00 00 00
	00 00 00 00 00	 mov	 DWORD PTR ?terrain_texture_hedge_colour_pass@@3HA, 0

; 1634 : 	terrain_texture_wall_detail								= get_system_texture_index ( "TERRAIN_TREE_CANOPY_1" );

  00477	68 00 00 00 00	 push	 OFFSET ??_C@_0BG@EOMIBGLD@TERRAIN_TREE_CANOPY_1@
  0047c	e8 00 00 00 00	 call	 ?get_system_texture_index@@YGHPBD@Z ; get_system_texture_index
  00481	a3 00 00 00 00	 mov	 DWORD PTR ?terrain_texture_wall_detail@@3HA, eax

; 1635 : 	terrain_texture_wall_colour_pass							= get_system_texture_index ( "COLOUR_PASS_ROCK" );

  00486	68 00 00 00 00	 push	 OFFSET ??_C@_0BB@ILJMAEMJ@COLOUR_PASS_ROCK@
  0048b	e8 00 00 00 00	 call	 ?get_system_texture_index@@YGHPBD@Z ; get_system_texture_index
  00490	a3 00 00 00 00	 mov	 DWORD PTR ?terrain_texture_wall_colour_pass@@3HA, eax

; 1636 : 	terrain_texture_trench_detail								= get_system_texture_index ( "TERRAIN_RIVER" );

  00495	68 00 00 00 00	 push	 OFFSET ??_C@_0O@KOAPGDHE@TERRAIN_RIVER@
  0049a	e8 00 00 00 00	 call	 ?get_system_texture_index@@YGHPBD@Z ; get_system_texture_index
  0049f	a3 00 00 00 00	 mov	 DWORD PTR ?terrain_texture_trench_detail@@3HA, eax

; 1637 : 	terrain_texture_trench_colour_pass						= 0;

  004a4	c7 05 00 00 00
	00 00 00 00 00	 mov	 DWORD PTR ?terrain_texture_trench_colour_pass@@3HA, 0

; 1638 : 
; 1639 : 	//VJ 050303 texture colour mod: use texture colour directly instead of brownish haze
; 1640 : 	if (command_line_texture_colour)

  004ae	83 3d 00 00 00
	00 00		 cmp	 DWORD PTR ?command_line_texture_colour@@3HA, 0 ; command_line_texture_colour
  004b5	74 05		 je	 SHORT $LN2@initialise

; 1641 : 		initialise_all_custom_terrain_types ();

  004b7	e8 00 00 00 00	 call	 ?initialise_all_custom_terrain_types@@YGXXZ ; initialise_all_custom_terrain_types
$LN2@initialise:

; 1642 : 
; 1643 : 	// Xhit: the surface types for the various terrain types are set according to the surroundings. (030328)
; 1644 : 	//set surface types for rotor dust
; 1645 : 	//VJ 051224 moved to separate function
; 1646 : 	initialise_surface_types();

  004bc	e8 00 00 00 00	 call	 ?initialise_surface_types@@YGXXZ ; initialise_surface_types

; 1647 : /*
; 1648 : 	terrain_surface_sea										= SURFACE_TYPE_WATER;
; 1649 : 	terrain_surface_beach									= SURFACE_TYPE_SAND;
; 1650 : 	terrain_surface_land										= SURFACE_TYPE_SOIL;
; 1651 : 	terrain_surface_forest									= SURFACE_TYPE_NONE;
; 1652 : 	terrain_surface_builtup_area1							= SURFACE_TYPE_ASPHALT;
; 1653 : 	terrain_surface_builtup_area2							= SURFACE_TYPE_ASPHALT;
; 1654 : 	terrain_surface_builtup_area3							= SURFACE_TYPE_ASPHALT;
; 1655 : 	terrain_surface_builtup_area4							= SURFACE_TYPE_ASPHALT;
; 1656 : 	terrain_surface_builtup_area1_infrared				= SURFACE_TYPE_ASPHALT;
; 1657 : 	terrain_surface_builtup_area2_infrared				= SURFACE_TYPE_ASPHALT;
; 1658 : 	terrain_surface_builtup_area3_infrared				= SURFACE_TYPE_ASPHALT;
; 1659 : 	terrain_surface_builtup_area4_infrared				= SURFACE_TYPE_ASPHALT;
; 1660 : 	terrain_surface_road										= SURFACE_TYPE_ASPHALT;
; 1661 : 	terrain_surface_track									= SURFACE_TYPE_SOIL;
; 1662 : 	terrain_surface_river									= SURFACE_TYPE_WATER;
; 1663 : 	terrain_surface_reservoir								= SURFACE_TYPE_WATER;
; 1664 : 	terrain_surface_rail										= SURFACE_TYPE_SOIL;
; 1665 : 	terrain_surface_road_bank								= SURFACE_TYPE_SOIL;
; 1666 : 	terrain_surface_river_bank								= SURFACE_TYPE_SAND;
; 1667 : 	terrain_surface_rail_bank								= SURFACE_TYPE_SOIL;
; 1668 : 	terrain_surface_field1									= SURFACE_TYPE_FIELD_LIGHTBROWN;
; 1669 : 	terrain_surface_field2									= SURFACE_TYPE_FIELD_DARKBROWN;
; 1670 : 	terrain_surface_field3									= SURFACE_TYPE_FIELD_LIGHTBROWN;
; 1671 : 	terrain_surface_field4									= SURFACE_TYPE_FIELD_LIGHTBROWN;
; 1672 : 	terrain_surface_field5									= SURFACE_TYPE_FIELD_LIGHTBROWN;
; 1673 : 	terrain_surface_field6									= SURFACE_TYPE_SOIL;
; 1674 : 	terrain_surface_field7									= SURFACE_TYPE_SOIL;
; 1675 : 	terrain_surface_field8									= SURFACE_TYPE_FIELD_LIGHTBROWN;
; 1676 : 	terrain_surface_field9									= SURFACE_TYPE_FIELD_LIGHTBROWN;
; 1677 : 	terrain_surface_field10									= SURFACE_TYPE_FIELD_DARKBROWN;
; 1678 : 	terrain_surface_field11									= SURFACE_TYPE_FIELD_LIGHTBROWN;
; 1679 : 	terrain_surface_altered_land1							= SURFACE_TYPE_ROCK;
; 1680 : 	terrain_surface_altered_land2							= SURFACE_TYPE_ROCK;
; 1681 : 	terrain_surface_altered_land3							= SURFACE_TYPE_SNOW;
; 1682 : 	terrain_surface_hedge									= SURFACE_TYPE_SOIL;
; 1683 : 	terrain_surface_wall										= SURFACE_TYPE_SOIL;
; 1684 : 	terrain_surface_trench									= SURFACE_TYPE_WATER;
; 1685 : */
; 1686 : 	set_object_3d_texture_camoflage_by_name ( "DEFAULT" );

  004c1	68 00 00 00 00	 push	 OFFSET ??_C@_07MGCPDNLD@DEFAULT@
  004c6	e8 00 00 00 00	 call	 ?set_object_3d_texture_camoflage_by_name@@YGXPAD@Z ; set_object_3d_texture_camoflage_by_name

; 1687 : 
; 1688 : 	reflection_texture_index = get_system_texture_index ( "ENVIRO_YEMEN_SMALL" );

  004cb	68 00 00 00 00	 push	 OFFSET ??_C@_0BD@MIKAIJBD@ENVIRO_YEMEN_SMALL@
  004d0	e8 00 00 00 00	 call	 ?get_system_texture_index@@YGHPBD@Z ; get_system_texture_index
  004d5	89 45 d8	 mov	 DWORD PTR _reflection_texture_index$[ebp], eax

; 1689 : 
; 1690 : 	if ( reflection_texture_index != -1 )

  004d8	83 7d d8 ff	 cmp	 DWORD PTR _reflection_texture_index$[ebp], -1
  004dc	74 09		 je	 SHORT $LN3@initialise

; 1691 : 	{
; 1692 : 
; 1693 : 		set_object_3d_reflection_texture_map ( reflection_texture_index );

  004de	8b 45 d8	 mov	 eax, DWORD PTR _reflection_texture_index$[ebp]
  004e1	50		 push	 eax
  004e2	e8 00 00 00 00	 call	 ?set_object_3d_reflection_texture_map@@YGXH@Z ; set_object_3d_reflection_texture_map
$LN3@initialise:

; 1694 : 	}
; 1695 : 
; 1696 : 	set_2d_terrain_contour_heights ( sizeof ( contour_heights ) / sizeof ( float ), contour_heights );

  004e7	8d 45 dc	 lea	 eax, DWORD PTR _contour_heights$[ebp]
  004ea	50		 push	 eax
  004eb	6a 09		 push	 9
  004ed	e8 00 00 00 00	 call	 ?set_2d_terrain_contour_heights@@YGXHPAM@Z ; set_2d_terrain_contour_heights

; 1697 : }

  004f2	5f		 pop	 edi
  004f3	5e		 pop	 esi
  004f4	5b		 pop	 ebx
  004f5	8b e5		 mov	 esp, ebp
  004f7	5d		 pop	 ebp
  004f8	c3		 ret	 0
?initialise_3d_georgia_terrain_types@@YGXXZ ENDP	; initialise_3d_georgia_terrain_types
_TEXT	ENDS
; Function compile flags: /Odtp /ZI
; File c:\users\nhv90\projects\eech\modules\3d\terrain\terrtype.c
;	COMDAT ?initialise_3d_lebanon_terrain_types@@YGXXZ
_TEXT	SEGMENT
_reflection_texture_index$ = -40			; size = 4
_contour_heights$ = -36					; size = 36
?initialise_3d_lebanon_terrain_types@@YGXXZ PROC	; initialise_3d_lebanon_terrain_types, COMDAT

; 1704 : {

  00000	55		 push	 ebp
  00001	8b ec		 mov	 ebp, esp
  00003	83 ec 68	 sub	 esp, 104		; 00000068H
  00006	53		 push	 ebx
  00007	56		 push	 esi
  00008	57		 push	 edi

; 1705 : 
; 1706 : 	float
; 1707 : 		contour_heights[] =
; 1708 : 		{
; 1709 : 
; 1710 : 			-1000,

  00009	f3 0f 10 05 00
	00 00 00	 movss	 xmm0, DWORD PTR __real@c47a0000
  00011	f3 0f 11 45 dc	 movss	 DWORD PTR _contour_heights$[ebp], xmm0

; 1711 : 			-0.0001,

  00016	f3 0f 10 05 00
	00 00 00	 movss	 xmm0, DWORD PTR __real@b8d1b717
  0001e	f3 0f 11 45 e0	 movss	 DWORD PTR _contour_heights$[ebp+4], xmm0

; 1712 : 			250,

  00023	f3 0f 10 05 00
	00 00 00	 movss	 xmm0, DWORD PTR __real@437a0000
  0002b	f3 0f 11 45 e4	 movss	 DWORD PTR _contour_heights$[ebp+8], xmm0

; 1713 : 			500,

  00030	f3 0f 10 05 00
	00 00 00	 movss	 xmm0, DWORD PTR __real@43fa0000
  00038	f3 0f 11 45 e8	 movss	 DWORD PTR _contour_heights$[ebp+12], xmm0

; 1714 : 			750,

  0003d	f3 0f 10 05 00
	00 00 00	 movss	 xmm0, DWORD PTR __real@443b8000
  00045	f3 0f 11 45 ec	 movss	 DWORD PTR _contour_heights$[ebp+16], xmm0

; 1715 : 			1000,

  0004a	f3 0f 10 05 00
	00 00 00	 movss	 xmm0, DWORD PTR __real@447a0000
  00052	f3 0f 11 45 f0	 movss	 DWORD PTR _contour_heights$[ebp+20], xmm0

; 1716 : 			1600,

  00057	f3 0f 10 05 00
	00 00 00	 movss	 xmm0, DWORD PTR __real@44c80000
  0005f	f3 0f 11 45 f4	 movss	 DWORD PTR _contour_heights$[ebp+24], xmm0

; 1717 : 			2300,

  00064	f3 0f 10 05 00
	00 00 00	 movss	 xmm0, DWORD PTR __real@450fc000
  0006c	f3 0f 11 45 f8	 movss	 DWORD PTR _contour_heights$[ebp+28], xmm0

; 1718 : 			3100,

  00071	f3 0f 10 05 00
	00 00 00	 movss	 xmm0, DWORD PTR __real@4541c000
  00079	f3 0f 11 45 fc	 movss	 DWORD PTR _contour_heights$[ebp+32], xmm0

; 1719 : 		};
; 1720 : 
; 1721 : 	int
; 1722 : 		reflection_texture_index;
; 1723 : 
; 1724 : 	set_3d_rain_special_snow_flag ( FALSE );

  0007e	6a 00		 push	 0
  00080	e8 00 00 00 00	 call	 ?set_3d_rain_special_snow_flag@@YGXH@Z ; set_3d_rain_special_snow_flag

; 1725 : 
; 1726 : 	terrain_texture_sea_detail									= get_system_texture_index ( "TERRAIN_SEA_1" );

  00085	68 00 00 00 00	 push	 OFFSET ??_C@_0O@DCAMCMDE@TERRAIN_SEA_1@
  0008a	e8 00 00 00 00	 call	 ?get_system_texture_index@@YGHPBD@Z ; get_system_texture_index
  0008f	a3 00 00 00 00	 mov	 DWORD PTR ?terrain_texture_sea_detail@@3HA, eax

; 1727 : 	terrain_texture_sea_colour_pass							= get_system_texture_index ( "COLOUR_PASS_SEA_LEBANON" );

  00094	68 00 00 00 00	 push	 OFFSET ??_C@_0BI@EBJMGEFE@COLOUR_PASS_SEA_LEBANON@
  00099	e8 00 00 00 00	 call	 ?get_system_texture_index@@YGHPBD@Z ; get_system_texture_index
  0009e	a3 00 00 00 00	 mov	 DWORD PTR ?terrain_texture_sea_colour_pass@@3HA, eax

; 1728 : 	terrain_texture_beach_detail								= get_system_texture_index ( "TERRAIN_BEACH" );

  000a3	68 00 00 00 00	 push	 OFFSET ??_C@_0O@BBEHGFKB@TERRAIN_BEACH@
  000a8	e8 00 00 00 00	 call	 ?get_system_texture_index@@YGHPBD@Z ; get_system_texture_index
  000ad	a3 00 00 00 00	 mov	 DWORD PTR ?terrain_texture_beach_detail@@3HA, eax

; 1729 : 	terrain_texture_beach_colour_pass						= get_system_texture_index ( "COLOUR_PASS_LEBANON" );

  000b2	68 00 00 00 00	 push	 OFFSET ??_C@_0BE@CBPBIHAE@COLOUR_PASS_LEBANON@
  000b7	e8 00 00 00 00	 call	 ?get_system_texture_index@@YGHPBD@Z ; get_system_texture_index
  000bc	a3 00 00 00 00	 mov	 DWORD PTR ?terrain_texture_beach_colour_pass@@3HA, eax

; 1730 : 	terrain_texture_land_detail								= get_system_texture_index ( "TERRAIN_DETAIL_LEBANON" );

  000c1	68 00 00 00 00	 push	 OFFSET ??_C@_0BH@IMANJLMO@TERRAIN_DETAIL_LEBANON@
  000c6	e8 00 00 00 00	 call	 ?get_system_texture_index@@YGHPBD@Z ; get_system_texture_index
  000cb	a3 00 00 00 00	 mov	 DWORD PTR ?terrain_texture_land_detail@@3HA, eax

; 1731 : 	terrain_texture_land_colour_pass							= get_system_texture_index ( "COLOUR_PASS_LEBANON" );

  000d0	68 00 00 00 00	 push	 OFFSET ??_C@_0BE@CBPBIHAE@COLOUR_PASS_LEBANON@
  000d5	e8 00 00 00 00	 call	 ?get_system_texture_index@@YGHPBD@Z ; get_system_texture_index
  000da	a3 00 00 00 00	 mov	 DWORD PTR ?terrain_texture_land_colour_pass@@3HA, eax

; 1732 : 	terrain_texture_forest_detail								= get_system_texture_index ( "TERRAIN_TREE_CANOPY_LEBANON" );

  000df	68 00 00 00 00	 push	 OFFSET ??_C@_0BM@NCJBOGKD@TERRAIN_TREE_CANOPY_LEBANON@
  000e4	e8 00 00 00 00	 call	 ?get_system_texture_index@@YGHPBD@Z ; get_system_texture_index
  000e9	a3 00 00 00 00	 mov	 DWORD PTR ?terrain_texture_forest_detail@@3HA, eax

; 1733 : 	terrain_texture_forest_colour_pass						= get_system_texture_index ( "COLOUR_PASS_FOREST_LEBANON" );

  000ee	68 00 00 00 00	 push	 OFFSET ??_C@_0BL@LIHLPOJG@COLOUR_PASS_FOREST_LEBANON@
  000f3	e8 00 00 00 00	 call	 ?get_system_texture_index@@YGHPBD@Z ; get_system_texture_index
  000f8	a3 00 00 00 00	 mov	 DWORD PTR ?terrain_texture_forest_colour_pass@@3HA, eax

; 1734 : 
; 1735 : 	terrain_texture_builtup_area1_detail					= get_system_texture_index ( "CP_LEBANON_V2_CITY1" );

  000fd	68 00 00 00 00	 push	 OFFSET ??_C@_0BE@JDCCELCI@CP_LEBANON_V2_CITY1@
  00102	e8 00 00 00 00	 call	 ?get_system_texture_index@@YGHPBD@Z ; get_system_texture_index
  00107	a3 00 00 00 00	 mov	 DWORD PTR ?terrain_texture_builtup_area1_detail@@3HA, eax

; 1736 : 	terrain_texture_builtup_area1_colour_pass				= get_system_texture_index ( "COLOUR_PASS_LEBANON" );

  0010c	68 00 00 00 00	 push	 OFFSET ??_C@_0BE@CBPBIHAE@COLOUR_PASS_LEBANON@
  00111	e8 00 00 00 00	 call	 ?get_system_texture_index@@YGHPBD@Z ; get_system_texture_index
  00116	a3 00 00 00 00	 mov	 DWORD PTR ?terrain_texture_builtup_area1_colour_pass@@3HA, eax

; 1737 : 	terrain_texture_builtup_area2_detail					= get_system_texture_index ( "CP_LEBANON_V2_CITY2" );

  0011b	68 00 00 00 00	 push	 OFFSET ??_C@_0BE@LIAPBIOL@CP_LEBANON_V2_CITY2@
  00120	e8 00 00 00 00	 call	 ?get_system_texture_index@@YGHPBD@Z ; get_system_texture_index
  00125	a3 00 00 00 00	 mov	 DWORD PTR ?terrain_texture_builtup_area2_detail@@3HA, eax

; 1738 : 	terrain_texture_builtup_area2_colour_pass				= get_system_texture_index ( "COLOUR_PASS_LEBANON" );

  0012a	68 00 00 00 00	 push	 OFFSET ??_C@_0BE@CBPBIHAE@COLOUR_PASS_LEBANON@
  0012f	e8 00 00 00 00	 call	 ?get_system_texture_index@@YGHPBD@Z ; get_system_texture_index
  00134	a3 00 00 00 00	 mov	 DWORD PTR ?terrain_texture_builtup_area2_colour_pass@@3HA, eax

; 1739 : 	terrain_texture_builtup_area3_detail					= get_system_texture_index ( "CP_LEBANON_V2_CITY3" );

  00139	68 00 00 00 00	 push	 OFFSET ??_C@_0BE@KBBECJKK@CP_LEBANON_V2_CITY3@
  0013e	e8 00 00 00 00	 call	 ?get_system_texture_index@@YGHPBD@Z ; get_system_texture_index
  00143	a3 00 00 00 00	 mov	 DWORD PTR ?terrain_texture_builtup_area3_detail@@3HA, eax

; 1740 : 	terrain_texture_builtup_area3_colour_pass				= get_system_texture_index ( "COLOUR_PASS_LEBANON" );

  00148	68 00 00 00 00	 push	 OFFSET ??_C@_0BE@CBPBIHAE@COLOUR_PASS_LEBANON@
  0014d	e8 00 00 00 00	 call	 ?get_system_texture_index@@YGHPBD@Z ; get_system_texture_index
  00152	a3 00 00 00 00	 mov	 DWORD PTR ?terrain_texture_builtup_area3_colour_pass@@3HA, eax

; 1741 : 	terrain_texture_builtup_area4_detail					= get_system_texture_index ( "CP_LEBANON_V2_CITY4" );

  00157	68 00 00 00 00	 push	 OFFSET ??_C@_0BE@OOFFLPGN@CP_LEBANON_V2_CITY4@
  0015c	e8 00 00 00 00	 call	 ?get_system_texture_index@@YGHPBD@Z ; get_system_texture_index
  00161	a3 00 00 00 00	 mov	 DWORD PTR ?terrain_texture_builtup_area4_detail@@3HA, eax

; 1742 : 	terrain_texture_builtup_area4_colour_pass				= get_system_texture_index ( "COLOUR_PASS_LEBANON" );

  00166	68 00 00 00 00	 push	 OFFSET ??_C@_0BE@CBPBIHAE@COLOUR_PASS_LEBANON@
  0016b	e8 00 00 00 00	 call	 ?get_system_texture_index@@YGHPBD@Z ; get_system_texture_index
  00170	a3 00 00 00 00	 mov	 DWORD PTR ?terrain_texture_builtup_area4_colour_pass@@3HA, eax

; 1743 : 	terrain_texture_builtup_area1_infrared_detail		= get_system_texture_index ( "BW_LEBANON_V2_CITY1" );

  00175	68 00 00 00 00	 push	 OFFSET ??_C@_0BE@LMHLPLCF@BW_LEBANON_V2_CITY1@
  0017a	e8 00 00 00 00	 call	 ?get_system_texture_index@@YGHPBD@Z ; get_system_texture_index
  0017f	a3 00 00 00 00	 mov	 DWORD PTR ?terrain_texture_builtup_area1_infrared_detail@@3HA, eax

; 1744 : 	terrain_texture_builtup_area1_infrared_colour_pass	= get_system_texture_index ( "COLOUR_PASS_LEBANON" );

  00184	68 00 00 00 00	 push	 OFFSET ??_C@_0BE@CBPBIHAE@COLOUR_PASS_LEBANON@
  00189	e8 00 00 00 00	 call	 ?get_system_texture_index@@YGHPBD@Z ; get_system_texture_index
  0018e	a3 00 00 00 00	 mov	 DWORD PTR ?terrain_texture_builtup_area1_infrared_colour_pass@@3HA, eax

; 1745 : 	terrain_texture_builtup_area2_infrared_detail		= get_system_texture_index ( "BW_LEBANON_V2_CITY2" );

  00193	68 00 00 00 00	 push	 OFFSET ??_C@_0BE@JHFGKIOG@BW_LEBANON_V2_CITY2@
  00198	e8 00 00 00 00	 call	 ?get_system_texture_index@@YGHPBD@Z ; get_system_texture_index
  0019d	a3 00 00 00 00	 mov	 DWORD PTR ?terrain_texture_builtup_area2_infrared_detail@@3HA, eax

; 1746 : 	terrain_texture_builtup_area2_infrared_colour_pass	= get_system_texture_index ( "COLOUR_PASS_LEBANON" );

  001a2	68 00 00 00 00	 push	 OFFSET ??_C@_0BE@CBPBIHAE@COLOUR_PASS_LEBANON@
  001a7	e8 00 00 00 00	 call	 ?get_system_texture_index@@YGHPBD@Z ; get_system_texture_index
  001ac	a3 00 00 00 00	 mov	 DWORD PTR ?terrain_texture_builtup_area2_infrared_colour_pass@@3HA, eax

; 1747 : 	terrain_texture_builtup_area3_infrared_detail		= get_system_texture_index ( "BW_LEBANON_V2_CITY3" );

  001b1	68 00 00 00 00	 push	 OFFSET ??_C@_0BE@IOENJJKH@BW_LEBANON_V2_CITY3@
  001b6	e8 00 00 00 00	 call	 ?get_system_texture_index@@YGHPBD@Z ; get_system_texture_index
  001bb	a3 00 00 00 00	 mov	 DWORD PTR ?terrain_texture_builtup_area3_infrared_detail@@3HA, eax

; 1748 : 	terrain_texture_builtup_area3_infrared_colour_pass	= get_system_texture_index ( "COLOUR_PASS_LEBANON" );

  001c0	68 00 00 00 00	 push	 OFFSET ??_C@_0BE@CBPBIHAE@COLOUR_PASS_LEBANON@
  001c5	e8 00 00 00 00	 call	 ?get_system_texture_index@@YGHPBD@Z ; get_system_texture_index
  001ca	a3 00 00 00 00	 mov	 DWORD PTR ?terrain_texture_builtup_area3_infrared_colour_pass@@3HA, eax

; 1749 : 	terrain_texture_builtup_area4_infrared_detail		= get_system_texture_index ( "BW_LEBANON_V2_CITY4" );

  001cf	68 00 00 00 00	 push	 OFFSET ??_C@_0BE@MBAMAPGA@BW_LEBANON_V2_CITY4@
  001d4	e8 00 00 00 00	 call	 ?get_system_texture_index@@YGHPBD@Z ; get_system_texture_index
  001d9	a3 00 00 00 00	 mov	 DWORD PTR ?terrain_texture_builtup_area4_infrared_detail@@3HA, eax

; 1750 : 	terrain_texture_builtup_area4_infrared_colour_pass	= get_system_texture_index ( "COLOUR_PASS_LEBANON" );

  001de	68 00 00 00 00	 push	 OFFSET ??_C@_0BE@CBPBIHAE@COLOUR_PASS_LEBANON@
  001e3	e8 00 00 00 00	 call	 ?get_system_texture_index@@YGHPBD@Z ; get_system_texture_index
  001e8	a3 00 00 00 00	 mov	 DWORD PTR ?terrain_texture_builtup_area4_infrared_colour_pass@@3HA, eax

; 1751 : 	terrain_texture_road_detail								= get_system_texture_index ( "TERRAIN_DETAIL_ROAD" );

  001ed	68 00 00 00 00	 push	 OFFSET ??_C@_0BE@EOMJEIPI@TERRAIN_DETAIL_ROAD@
  001f2	e8 00 00 00 00	 call	 ?get_system_texture_index@@YGHPBD@Z ; get_system_texture_index
  001f7	a3 00 00 00 00	 mov	 DWORD PTR ?terrain_texture_road_detail@@3HA, eax

; 1752 : 	terrain_texture_road_colour_pass							= get_system_texture_index ( "COLOUR_PASS_ROCK_LEBANON" );

  001fc	68 00 00 00 00	 push	 OFFSET ??_C@_0BJ@LBCKHBIJ@COLOUR_PASS_ROCK_LEBANON@
  00201	e8 00 00 00 00	 call	 ?get_system_texture_index@@YGHPBD@Z ; get_system_texture_index
  00206	a3 00 00 00 00	 mov	 DWORD PTR ?terrain_texture_road_colour_pass@@3HA, eax

; 1753 : 	terrain_texture_track_detail								= get_system_texture_index ( "TERRAIN_DETAIL_ROAD" );

  0020b	68 00 00 00 00	 push	 OFFSET ??_C@_0BE@EOMJEIPI@TERRAIN_DETAIL_ROAD@
  00210	e8 00 00 00 00	 call	 ?get_system_texture_index@@YGHPBD@Z ; get_system_texture_index
  00215	a3 00 00 00 00	 mov	 DWORD PTR ?terrain_texture_track_detail@@3HA, eax

; 1754 : 	terrain_texture_track_colour_pass						= get_system_texture_index ( "COLOUR_PASS_ROCK_LEBANON" );

  0021a	68 00 00 00 00	 push	 OFFSET ??_C@_0BJ@LBCKHBIJ@COLOUR_PASS_ROCK_LEBANON@
  0021f	e8 00 00 00 00	 call	 ?get_system_texture_index@@YGHPBD@Z ; get_system_texture_index
  00224	a3 00 00 00 00	 mov	 DWORD PTR ?terrain_texture_track_colour_pass@@3HA, eax

; 1755 : 	terrain_texture_river_detail								= get_system_texture_index ( "TERRAIN_RIVER" );

  00229	68 00 00 00 00	 push	 OFFSET ??_C@_0O@KOAPGDHE@TERRAIN_RIVER@
  0022e	e8 00 00 00 00	 call	 ?get_system_texture_index@@YGHPBD@Z ; get_system_texture_index
  00233	a3 00 00 00 00	 mov	 DWORD PTR ?terrain_texture_river_detail@@3HA, eax

; 1756 : 	terrain_texture_river_colour_pass						= 0;

  00238	c7 05 00 00 00
	00 00 00 00 00	 mov	 DWORD PTR ?terrain_texture_river_colour_pass@@3HA, 0

; 1757 : 	terrain_texture_reservoir_detail							= get_system_texture_index ( "TERRAIN_RIVER" );

  00242	68 00 00 00 00	 push	 OFFSET ??_C@_0O@KOAPGDHE@TERRAIN_RIVER@
  00247	e8 00 00 00 00	 call	 ?get_system_texture_index@@YGHPBD@Z ; get_system_texture_index
  0024c	a3 00 00 00 00	 mov	 DWORD PTR ?terrain_texture_reservoir_detail@@3HA, eax

; 1758 : 	terrain_texture_reservoir_colour_pass					= 0;

  00251	c7 05 00 00 00
	00 00 00 00 00	 mov	 DWORD PTR ?terrain_texture_reservoir_colour_pass@@3HA, 0

; 1759 : 	terrain_texture_rail_detail								= 0;

  0025b	c7 05 00 00 00
	00 00 00 00 00	 mov	 DWORD PTR ?terrain_texture_rail_detail@@3HA, 0

; 1760 : 	terrain_texture_rail_colour_pass							= 0;

  00265	c7 05 00 00 00
	00 00 00 00 00	 mov	 DWORD PTR ?terrain_texture_rail_colour_pass@@3HA, 0

; 1761 : 	terrain_texture_road_bank_detail							= get_system_texture_index ( "TERRAIN_DETAIL_LEBANON" );

  0026f	68 00 00 00 00	 push	 OFFSET ??_C@_0BH@IMANJLMO@TERRAIN_DETAIL_LEBANON@
  00274	e8 00 00 00 00	 call	 ?get_system_texture_index@@YGHPBD@Z ; get_system_texture_index
  00279	a3 00 00 00 00	 mov	 DWORD PTR ?terrain_texture_road_bank_detail@@3HA, eax

; 1762 : 	terrain_texture_road_bank_colour_pass					= get_system_texture_index ( "COLOUR_PASS_LEBANON" );

  0027e	68 00 00 00 00	 push	 OFFSET ??_C@_0BE@CBPBIHAE@COLOUR_PASS_LEBANON@
  00283	e8 00 00 00 00	 call	 ?get_system_texture_index@@YGHPBD@Z ; get_system_texture_index
  00288	a3 00 00 00 00	 mov	 DWORD PTR ?terrain_texture_road_bank_colour_pass@@3HA, eax

; 1763 : 	terrain_texture_river_bank_detail						= get_system_texture_index ( "TERRAIN_BEACH" );

  0028d	68 00 00 00 00	 push	 OFFSET ??_C@_0O@BBEHGFKB@TERRAIN_BEACH@
  00292	e8 00 00 00 00	 call	 ?get_system_texture_index@@YGHPBD@Z ; get_system_texture_index
  00297	a3 00 00 00 00	 mov	 DWORD PTR ?terrain_texture_river_bank_detail@@3HA, eax

; 1764 : 	terrain_texture_river_bank_colour_pass					= get_system_texture_index ( "COLOUR_PASS_LEBANON" );

  0029c	68 00 00 00 00	 push	 OFFSET ??_C@_0BE@CBPBIHAE@COLOUR_PASS_LEBANON@
  002a1	e8 00 00 00 00	 call	 ?get_system_texture_index@@YGHPBD@Z ; get_system_texture_index
  002a6	a3 00 00 00 00	 mov	 DWORD PTR ?terrain_texture_river_bank_colour_pass@@3HA, eax

; 1765 : 	terrain_texture_rail_bank_detail							= 0;

  002ab	c7 05 00 00 00
	00 00 00 00 00	 mov	 DWORD PTR ?terrain_texture_rail_bank_detail@@3HA, 0

; 1766 : 	terrain_texture_rail_bank_colour_pass					= 0;

  002b5	c7 05 00 00 00
	00 00 00 00 00	 mov	 DWORD PTR ?terrain_texture_rail_bank_colour_pass@@3HA, 0

; 1767 : 	terrain_texture_field1_detail								= get_system_texture_index ( "TERRAIN_MUSTARDFIELD" );

  002bf	68 00 00 00 00	 push	 OFFSET ??_C@_0BF@GFEKLLKL@TERRAIN_MUSTARDFIELD@
  002c4	e8 00 00 00 00	 call	 ?get_system_texture_index@@YGHPBD@Z ; get_system_texture_index
  002c9	a3 00 00 00 00	 mov	 DWORD PTR ?terrain_texture_field1_detail@@3HA, eax

; 1768 : 	terrain_texture_field1_colour_pass						= get_system_texture_index ( "COLOUR_PASS_LEBANON" );

  002ce	68 00 00 00 00	 push	 OFFSET ??_C@_0BE@CBPBIHAE@COLOUR_PASS_LEBANON@
  002d3	e8 00 00 00 00	 call	 ?get_system_texture_index@@YGHPBD@Z ; get_system_texture_index
  002d8	a3 00 00 00 00	 mov	 DWORD PTR ?terrain_texture_field1_colour_pass@@3HA, eax

; 1769 : 	terrain_texture_field2_detail								= get_system_texture_index ( "TERRAIN_PLOUGHED1FIELD" );

  002dd	68 00 00 00 00	 push	 OFFSET ??_C@_0BH@JNGNCFED@TERRAIN_PLOUGHED1FIELD@
  002e2	e8 00 00 00 00	 call	 ?get_system_texture_index@@YGHPBD@Z ; get_system_texture_index
  002e7	a3 00 00 00 00	 mov	 DWORD PTR ?terrain_texture_field2_detail@@3HA, eax

; 1770 : 	terrain_texture_field2_colour_pass						= get_system_texture_index ( "COLOUR_PASS_LEBANON" );

  002ec	68 00 00 00 00	 push	 OFFSET ??_C@_0BE@CBPBIHAE@COLOUR_PASS_LEBANON@
  002f1	e8 00 00 00 00	 call	 ?get_system_texture_index@@YGHPBD@Z ; get_system_texture_index
  002f6	a3 00 00 00 00	 mov	 DWORD PTR ?terrain_texture_field2_colour_pass@@3HA, eax

; 1771 : 	terrain_texture_field3_detail								= get_system_texture_index ( "TERRAIN_PLOUGHED2FIELD" );

  002fb	68 00 00 00 00	 push	 OFFSET ??_C@_0BH@KMIFDPNO@TERRAIN_PLOUGHED2FIELD@
  00300	e8 00 00 00 00	 call	 ?get_system_texture_index@@YGHPBD@Z ; get_system_texture_index
  00305	a3 00 00 00 00	 mov	 DWORD PTR ?terrain_texture_field3_detail@@3HA, eax

; 1772 : 	terrain_texture_field3_colour_pass						= get_system_texture_index ( "COLOUR_PASS_LEBANON" );

  0030a	68 00 00 00 00	 push	 OFFSET ??_C@_0BE@CBPBIHAE@COLOUR_PASS_LEBANON@
  0030f	e8 00 00 00 00	 call	 ?get_system_texture_index@@YGHPBD@Z ; get_system_texture_index
  00314	a3 00 00 00 00	 mov	 DWORD PTR ?terrain_texture_field3_colour_pass@@3HA, eax

; 1773 : 	terrain_texture_field4_detail								= get_system_texture_index ( "TERRAIN_CORNFIELD" );

  00319	68 00 00 00 00	 push	 OFFSET ??_C@_0BC@KJPKDFNB@TERRAIN_CORNFIELD@
  0031e	e8 00 00 00 00	 call	 ?get_system_texture_index@@YGHPBD@Z ; get_system_texture_index
  00323	a3 00 00 00 00	 mov	 DWORD PTR ?terrain_texture_field4_detail@@3HA, eax

; 1774 : 	terrain_texture_field4_colour_pass						= get_system_texture_index ( "COLOUR_PASS_LEBANON" );

  00328	68 00 00 00 00	 push	 OFFSET ??_C@_0BE@CBPBIHAE@COLOUR_PASS_LEBANON@
  0032d	e8 00 00 00 00	 call	 ?get_system_texture_index@@YGHPBD@Z ; get_system_texture_index
  00332	a3 00 00 00 00	 mov	 DWORD PTR ?terrain_texture_field4_colour_pass@@3HA, eax

; 1775 : 	terrain_texture_field5_detail								= get_system_texture_index ( "TERRAIN_WHEATFIELD" );

  00337	68 00 00 00 00	 push	 OFFSET ??_C@_0BD@DPOGMPFD@TERRAIN_WHEATFIELD@
  0033c	e8 00 00 00 00	 call	 ?get_system_texture_index@@YGHPBD@Z ; get_system_texture_index
  00341	a3 00 00 00 00	 mov	 DWORD PTR ?terrain_texture_field5_detail@@3HA, eax

; 1776 : 	terrain_texture_field5_colour_pass						= get_system_texture_index ( "COLOUR_PASS_LEBANON" );

  00346	68 00 00 00 00	 push	 OFFSET ??_C@_0BE@CBPBIHAE@COLOUR_PASS_LEBANON@
  0034b	e8 00 00 00 00	 call	 ?get_system_texture_index@@YGHPBD@Z ; get_system_texture_index
  00350	a3 00 00 00 00	 mov	 DWORD PTR ?terrain_texture_field5_colour_pass@@3HA, eax

; 1777 : 	terrain_texture_field6_detail								= get_system_texture_index ( "TERRAIN_LIGHTGREENFIELD" );

  00355	68 00 00 00 00	 push	 OFFSET ??_C@_0BI@KPJCKJLC@TERRAIN_LIGHTGREENFIELD@
  0035a	e8 00 00 00 00	 call	 ?get_system_texture_index@@YGHPBD@Z ; get_system_texture_index
  0035f	a3 00 00 00 00	 mov	 DWORD PTR ?terrain_texture_field6_detail@@3HA, eax

; 1778 : 	terrain_texture_field6_colour_pass						= get_system_texture_index ( "COLOUR_PASS_LEBANON" );

  00364	68 00 00 00 00	 push	 OFFSET ??_C@_0BE@CBPBIHAE@COLOUR_PASS_LEBANON@
  00369	e8 00 00 00 00	 call	 ?get_system_texture_index@@YGHPBD@Z ; get_system_texture_index
  0036e	a3 00 00 00 00	 mov	 DWORD PTR ?terrain_texture_field6_colour_pass@@3HA, eax

; 1779 : 	terrain_texture_field7_detail								= get_system_texture_index ( "TERRAIN_DARKGREENFIELD" );

  00373	68 00 00 00 00	 push	 OFFSET ??_C@_0BH@BEINOGAP@TERRAIN_DARKGREENFIELD@
  00378	e8 00 00 00 00	 call	 ?get_system_texture_index@@YGHPBD@Z ; get_system_texture_index
  0037d	a3 00 00 00 00	 mov	 DWORD PTR ?terrain_texture_field7_detail@@3HA, eax

; 1780 : 	terrain_texture_field7_colour_pass						= get_system_texture_index ( "COLOUR_PASS_LEBANON" );

  00382	68 00 00 00 00	 push	 OFFSET ??_C@_0BE@CBPBIHAE@COLOUR_PASS_LEBANON@
  00387	e8 00 00 00 00	 call	 ?get_system_texture_index@@YGHPBD@Z ; get_system_texture_index
  0038c	a3 00 00 00 00	 mov	 DWORD PTR ?terrain_texture_field7_colour_pass@@3HA, eax

; 1781 : 	terrain_texture_field8_detail								= get_system_texture_index ( "TERRAIN_MUSTARDFIELD" );

  00391	68 00 00 00 00	 push	 OFFSET ??_C@_0BF@GFEKLLKL@TERRAIN_MUSTARDFIELD@
  00396	e8 00 00 00 00	 call	 ?get_system_texture_index@@YGHPBD@Z ; get_system_texture_index
  0039b	a3 00 00 00 00	 mov	 DWORD PTR ?terrain_texture_field8_detail@@3HA, eax

; 1782 : 	terrain_texture_field8_colour_pass						= get_system_texture_index ( "COLOUR_PASS_LEBANON" );

  003a0	68 00 00 00 00	 push	 OFFSET ??_C@_0BE@CBPBIHAE@COLOUR_PASS_LEBANON@
  003a5	e8 00 00 00 00	 call	 ?get_system_texture_index@@YGHPBD@Z ; get_system_texture_index
  003aa	a3 00 00 00 00	 mov	 DWORD PTR ?terrain_texture_field8_colour_pass@@3HA, eax

; 1783 : 	terrain_texture_field9_detail								= get_system_texture_index ( "TERRAIN_PLOUGHED1FIELD" );

  003af	68 00 00 00 00	 push	 OFFSET ??_C@_0BH@JNGNCFED@TERRAIN_PLOUGHED1FIELD@
  003b4	e8 00 00 00 00	 call	 ?get_system_texture_index@@YGHPBD@Z ; get_system_texture_index
  003b9	a3 00 00 00 00	 mov	 DWORD PTR ?terrain_texture_field9_detail@@3HA, eax

; 1784 : 	terrain_texture_field9_colour_pass						= get_system_texture_index ( "COLOUR_PASS_LEBANON" );

  003be	68 00 00 00 00	 push	 OFFSET ??_C@_0BE@CBPBIHAE@COLOUR_PASS_LEBANON@
  003c3	e8 00 00 00 00	 call	 ?get_system_texture_index@@YGHPBD@Z ; get_system_texture_index
  003c8	a3 00 00 00 00	 mov	 DWORD PTR ?terrain_texture_field9_colour_pass@@3HA, eax

; 1785 : 	terrain_texture_field10_detail							= get_system_texture_index ( "TERRAIN_PLOUGHED2FIELD" );

  003cd	68 00 00 00 00	 push	 OFFSET ??_C@_0BH@KMIFDPNO@TERRAIN_PLOUGHED2FIELD@
  003d2	e8 00 00 00 00	 call	 ?get_system_texture_index@@YGHPBD@Z ; get_system_texture_index
  003d7	a3 00 00 00 00	 mov	 DWORD PTR ?terrain_texture_field10_detail@@3HA, eax

; 1786 : 	terrain_texture_field10_colour_pass						= get_system_texture_index ( "COLOUR_PASS_LEBANON" );

  003dc	68 00 00 00 00	 push	 OFFSET ??_C@_0BE@CBPBIHAE@COLOUR_PASS_LEBANON@
  003e1	e8 00 00 00 00	 call	 ?get_system_texture_index@@YGHPBD@Z ; get_system_texture_index
  003e6	a3 00 00 00 00	 mov	 DWORD PTR ?terrain_texture_field10_colour_pass@@3HA, eax

; 1787 : 	terrain_texture_field11_detail							= get_system_texture_index ( "TERRAIN_CORNFIELD" );

  003eb	68 00 00 00 00	 push	 OFFSET ??_C@_0BC@KJPKDFNB@TERRAIN_CORNFIELD@
  003f0	e8 00 00 00 00	 call	 ?get_system_texture_index@@YGHPBD@Z ; get_system_texture_index
  003f5	a3 00 00 00 00	 mov	 DWORD PTR ?terrain_texture_field11_detail@@3HA, eax

; 1788 : 	terrain_texture_field11_colour_pass						= get_system_texture_index ( "COLOUR_PASS_LEBANON" );

  003fa	68 00 00 00 00	 push	 OFFSET ??_C@_0BE@CBPBIHAE@COLOUR_PASS_LEBANON@
  003ff	e8 00 00 00 00	 call	 ?get_system_texture_index@@YGHPBD@Z ; get_system_texture_index
  00404	a3 00 00 00 00	 mov	 DWORD PTR ?terrain_texture_field11_colour_pass@@3HA, eax

; 1789 : 	terrain_texture_altered_land1_detail					= get_system_texture_index ( "TERRAIN_DETAIL_LEBANON" );

  00409	68 00 00 00 00	 push	 OFFSET ??_C@_0BH@IMANJLMO@TERRAIN_DETAIL_LEBANON@
  0040e	e8 00 00 00 00	 call	 ?get_system_texture_index@@YGHPBD@Z ; get_system_texture_index
  00413	a3 00 00 00 00	 mov	 DWORD PTR ?terrain_texture_altered_land1_detail@@3HA, eax

; 1790 : 	terrain_texture_altered_land1_colour_pass				= get_system_texture_index ( "COLOUR_PASS_SCRUB_LEBANON" );

  00418	68 00 00 00 00	 push	 OFFSET ??_C@_0BK@LGOINMMJ@COLOUR_PASS_SCRUB_LEBANON@
  0041d	e8 00 00 00 00	 call	 ?get_system_texture_index@@YGHPBD@Z ; get_system_texture_index
  00422	a3 00 00 00 00	 mov	 DWORD PTR ?terrain_texture_altered_land1_colour_pass@@3HA, eax

; 1791 : 	terrain_texture_altered_land2_detail					= get_system_texture_index ( "TERRAIN_BARE_ROCK_LEBANON" );

  00427	68 00 00 00 00	 push	 OFFSET ??_C@_0BK@BGKABACE@TERRAIN_BARE_ROCK_LEBANON@
  0042c	e8 00 00 00 00	 call	 ?get_system_texture_index@@YGHPBD@Z ; get_system_texture_index
  00431	a3 00 00 00 00	 mov	 DWORD PTR ?terrain_texture_altered_land2_detail@@3HA, eax

; 1792 : 	terrain_texture_altered_land2_colour_pass				= get_system_texture_index ( "COLOUR_PASS_ROCK_LEBANON" );

  00436	68 00 00 00 00	 push	 OFFSET ??_C@_0BJ@LBCKHBIJ@COLOUR_PASS_ROCK_LEBANON@
  0043b	e8 00 00 00 00	 call	 ?get_system_texture_index@@YGHPBD@Z ; get_system_texture_index
  00440	a3 00 00 00 00	 mov	 DWORD PTR ?terrain_texture_altered_land2_colour_pass@@3HA, eax

; 1793 : 	terrain_texture_altered_land3_detail					= get_system_texture_index ( "TERRAIN_SNOW_LEBANON" );

  00445	68 00 00 00 00	 push	 OFFSET ??_C@_0BF@DGPHNMHH@TERRAIN_SNOW_LEBANON@
  0044a	e8 00 00 00 00	 call	 ?get_system_texture_index@@YGHPBD@Z ; get_system_texture_index
  0044f	a3 00 00 00 00	 mov	 DWORD PTR ?terrain_texture_altered_land3_detail@@3HA, eax

; 1794 : 	terrain_texture_altered_land3_colour_pass				= get_system_texture_index ( "COLOUR_PASS_SNOW" );

  00454	68 00 00 00 00	 push	 OFFSET ??_C@_0BB@OBCNOOCF@COLOUR_PASS_SNOW@
  00459	e8 00 00 00 00	 call	 ?get_system_texture_index@@YGHPBD@Z ; get_system_texture_index
  0045e	a3 00 00 00 00	 mov	 DWORD PTR ?terrain_texture_altered_land3_colour_pass@@3HA, eax

; 1795 : 	terrain_texture_hedge_detail								= get_system_texture_index ( "TERRAIN_TREE_CANOPY_1" );

  00463	68 00 00 00 00	 push	 OFFSET ??_C@_0BG@EOMIBGLD@TERRAIN_TREE_CANOPY_1@
  00468	e8 00 00 00 00	 call	 ?get_system_texture_index@@YGHPBD@Z ; get_system_texture_index
  0046d	a3 00 00 00 00	 mov	 DWORD PTR ?terrain_texture_hedge_detail@@3HA, eax

; 1796 : 	terrain_texture_hedge_colour_pass						= 0;

  00472	c7 05 00 00 00
	00 00 00 00 00	 mov	 DWORD PTR ?terrain_texture_hedge_colour_pass@@3HA, 0

; 1797 : 	terrain_texture_wall_detail								= get_system_texture_index ( "TERRAIN_WALL_LEBANON" );

  0047c	68 00 00 00 00	 push	 OFFSET ??_C@_0BF@MCHGDFIO@TERRAIN_WALL_LEBANON@
  00481	e8 00 00 00 00	 call	 ?get_system_texture_index@@YGHPBD@Z ; get_system_texture_index
  00486	a3 00 00 00 00	 mov	 DWORD PTR ?terrain_texture_wall_detail@@3HA, eax

; 1798 : 	terrain_texture_wall_colour_pass							= get_system_texture_index ( "COLOUR_PASS_ROCK_LEBANON" );

  0048b	68 00 00 00 00	 push	 OFFSET ??_C@_0BJ@LBCKHBIJ@COLOUR_PASS_ROCK_LEBANON@
  00490	e8 00 00 00 00	 call	 ?get_system_texture_index@@YGHPBD@Z ; get_system_texture_index
  00495	a3 00 00 00 00	 mov	 DWORD PTR ?terrain_texture_wall_colour_pass@@3HA, eax

; 1799 : 	terrain_texture_trench_detail								= get_system_texture_index ( "TERRAIN_RIVER" );

  0049a	68 00 00 00 00	 push	 OFFSET ??_C@_0O@KOAPGDHE@TERRAIN_RIVER@
  0049f	e8 00 00 00 00	 call	 ?get_system_texture_index@@YGHPBD@Z ; get_system_texture_index
  004a4	a3 00 00 00 00	 mov	 DWORD PTR ?terrain_texture_trench_detail@@3HA, eax

; 1800 : 	terrain_texture_trench_colour_pass						= 0;

  004a9	c7 05 00 00 00
	00 00 00 00 00	 mov	 DWORD PTR ?terrain_texture_trench_colour_pass@@3HA, 0

; 1801 : 
; 1802 : 
; 1803 : 	//VJ 050303 texture colour mod: use texture colour directly instead of brownish haze
; 1804 : 	if (command_line_texture_colour)

  004b3	83 3d 00 00 00
	00 00		 cmp	 DWORD PTR ?command_line_texture_colour@@3HA, 0 ; command_line_texture_colour
  004ba	74 05		 je	 SHORT $LN2@initialise

; 1805 : 		initialise_all_custom_terrain_types ();

  004bc	e8 00 00 00 00	 call	 ?initialise_all_custom_terrain_types@@YGXXZ ; initialise_all_custom_terrain_types
$LN2@initialise:

; 1806 : 
; 1807 : 	// Xhit: the surface types for the various terrain types are set according to the surroundings. (030328)
; 1808 : 	//set surface types for rotor dust
; 1809 : 	//VJ 051224 moved to separate function
; 1810 : 	initialise_surface_types();

  004c1	e8 00 00 00 00	 call	 ?initialise_surface_types@@YGXXZ ; initialise_surface_types

; 1811 : /*
; 1812 : 	terrain_surface_sea										= SURFACE_TYPE_WATER;
; 1813 : 	terrain_surface_beach									= SURFACE_TYPE_DESERT;
; 1814 : 	terrain_surface_land										= SURFACE_TYPE_DESERT;
; 1815 : 	terrain_surface_forest									= SURFACE_TYPE_NONE;
; 1816 : 	terrain_surface_builtup_area1							= SURFACE_TYPE_DESERT;
; 1817 : 	terrain_surface_builtup_area2							= SURFACE_TYPE_DESERT;
; 1818 : 	terrain_surface_builtup_area3							= SURFACE_TYPE_DESERT;
; 1819 : 	terrain_surface_builtup_area4							= SURFACE_TYPE_DESERT;
; 1820 : 	terrain_surface_builtup_area1_infrared				= SURFACE_TYPE_DESERT;
; 1821 : 	terrain_surface_builtup_area2_infrared				= SURFACE_TYPE_DESERT;
; 1822 : 	terrain_surface_builtup_area3_infrared				= SURFACE_TYPE_DESERT;
; 1823 : 	terrain_surface_builtup_area4_infrared				= SURFACE_TYPE_DESERT;
; 1824 : 	terrain_surface_road										= SURFACE_TYPE_DESERT;
; 1825 : 	terrain_surface_track									= SURFACE_TYPE_SOIL;
; 1826 : 	terrain_surface_river									= SURFACE_TYPE_WATER;
; 1827 : 	terrain_surface_reservoir								= SURFACE_TYPE_WATER;
; 1828 : 	terrain_surface_rail										= SURFACE_TYPE_SOIL;
; 1829 : 	terrain_surface_road_bank								= SURFACE_TYPE_SOIL;
; 1830 : 	terrain_surface_river_bank								= SURFACE_TYPE_DESERT;
; 1831 : 	terrain_surface_rail_bank								= SURFACE_TYPE_DESERT;
; 1832 : 	terrain_surface_field1									= SURFACE_TYPE_FIELD_LIGHTBROWN;
; 1833 : 	terrain_surface_field2									= SURFACE_TYPE_FIELD_DARKBROWN;
; 1834 : 	terrain_surface_field3									= SURFACE_TYPE_FIELD_LIGHTBROWN;
; 1835 : 	terrain_surface_field4									= SURFACE_TYPE_FIELD_LIGHTBROWN;
; 1836 : 	terrain_surface_field5									= SURFACE_TYPE_FIELD_LIGHTBROWN;
; 1837 : 	terrain_surface_field6									= SURFACE_TYPE_SOIL;
; 1838 : 	terrain_surface_field7									= SURFACE_TYPE_SOIL;
; 1839 : 	terrain_surface_field8									= SURFACE_TYPE_FIELD_LIGHTBROWN;
; 1840 : 	terrain_surface_field9									= SURFACE_TYPE_FIELD_LIGHTBROWN;
; 1841 : 	terrain_surface_field10									= SURFACE_TYPE_FIELD_DARKBROWN;
; 1842 : 	terrain_surface_field11									= SURFACE_TYPE_FIELD_LIGHTBROWN;
; 1843 : 	terrain_surface_altered_land1							= SURFACE_TYPE_DESERT;
; 1844 : 	terrain_surface_altered_land2							= SURFACE_TYPE_DESERT;
; 1845 : 	terrain_surface_altered_land3							= SURFACE_TYPE_SNOW;
; 1846 : 	terrain_surface_hedge									= SURFACE_TYPE_DESERT;
; 1847 : 	terrain_surface_wall										= SURFACE_TYPE_DESERT;
; 1848 : 	terrain_surface_trench									= SURFACE_TYPE_WATER;
; 1849 : */
; 1850 : 	set_object_3d_texture_camoflage_by_name ( "DESERT" );

  004c6	68 00 00 00 00	 push	 OFFSET ??_C@_06OPNEJFKO@DESERT@
  004cb	e8 00 00 00 00	 call	 ?set_object_3d_texture_camoflage_by_name@@YGXPAD@Z ; set_object_3d_texture_camoflage_by_name

; 1851 : 
; 1852 : 	reflection_texture_index = get_system_texture_index ( "ENVIRO_YEMEN_SMALL" );

  004d0	68 00 00 00 00	 push	 OFFSET ??_C@_0BD@MIKAIJBD@ENVIRO_YEMEN_SMALL@
  004d5	e8 00 00 00 00	 call	 ?get_system_texture_index@@YGHPBD@Z ; get_system_texture_index
  004da	89 45 d8	 mov	 DWORD PTR _reflection_texture_index$[ebp], eax

; 1853 : 
; 1854 : 	if ( reflection_texture_index != -1 )

  004dd	83 7d d8 ff	 cmp	 DWORD PTR _reflection_texture_index$[ebp], -1
  004e1	74 09		 je	 SHORT $LN3@initialise

; 1855 : 	{
; 1856 : 		set_object_3d_reflection_texture_map ( reflection_texture_index );

  004e3	8b 45 d8	 mov	 eax, DWORD PTR _reflection_texture_index$[ebp]
  004e6	50		 push	 eax
  004e7	e8 00 00 00 00	 call	 ?set_object_3d_reflection_texture_map@@YGXH@Z ; set_object_3d_reflection_texture_map
$LN3@initialise:

; 1857 : 	}
; 1858 : 
; 1859 : 	set_2d_terrain_contour_heights ( sizeof ( contour_heights ) / sizeof ( float ), contour_heights );

  004ec	8d 45 dc	 lea	 eax, DWORD PTR _contour_heights$[ebp]
  004ef	50		 push	 eax
  004f0	6a 09		 push	 9
  004f2	e8 00 00 00 00	 call	 ?set_2d_terrain_contour_heights@@YGXHPAM@Z ; set_2d_terrain_contour_heights

; 1860 : }

  004f7	5f		 pop	 edi
  004f8	5e		 pop	 esi
  004f9	5b		 pop	 ebx
  004fa	8b e5		 mov	 esp, ebp
  004fc	5d		 pop	 ebp
  004fd	c3		 ret	 0
?initialise_3d_lebanon_terrain_types@@YGXXZ ENDP	; initialise_3d_lebanon_terrain_types
_TEXT	ENDS
; Function compile flags: /Odtp /ZI
; File c:\users\nhv90\projects\eech\modules\3d\terrain\terrtype.c
;	COMDAT ?initialise_3d_cuba_terrain_types@@YGXXZ
_TEXT	SEGMENT
_reflection_texture_index$ = -40			; size = 4
_contour_heights$ = -36					; size = 36
?initialise_3d_cuba_terrain_types@@YGXXZ PROC		; initialise_3d_cuba_terrain_types, COMDAT

; 1371 : {

  00000	55		 push	 ebp
  00001	8b ec		 mov	 ebp, esp
  00003	83 ec 68	 sub	 esp, 104		; 00000068H
  00006	53		 push	 ebx
  00007	56		 push	 esi
  00008	57		 push	 edi

; 1372 : 
; 1373 : 	float
; 1374 : 		contour_heights[] =
; 1375 : 		{
; 1376 : 
; 1377 : 			-1000,

  00009	f3 0f 10 05 00
	00 00 00	 movss	 xmm0, DWORD PTR __real@c47a0000
  00011	f3 0f 11 45 dc	 movss	 DWORD PTR _contour_heights$[ebp], xmm0

; 1378 : 			-0.0001,

  00016	f3 0f 10 05 00
	00 00 00	 movss	 xmm0, DWORD PTR __real@b8d1b717
  0001e	f3 0f 11 45 e0	 movss	 DWORD PTR _contour_heights$[ebp+4], xmm0

; 1379 : 			250,

  00023	f3 0f 10 05 00
	00 00 00	 movss	 xmm0, DWORD PTR __real@437a0000
  0002b	f3 0f 11 45 e4	 movss	 DWORD PTR _contour_heights$[ebp+8], xmm0

; 1380 : 			500,

  00030	f3 0f 10 05 00
	00 00 00	 movss	 xmm0, DWORD PTR __real@43fa0000
  00038	f3 0f 11 45 e8	 movss	 DWORD PTR _contour_heights$[ebp+12], xmm0

; 1381 : 			750,

  0003d	f3 0f 10 05 00
	00 00 00	 movss	 xmm0, DWORD PTR __real@443b8000
  00045	f3 0f 11 45 ec	 movss	 DWORD PTR _contour_heights$[ebp+16], xmm0

; 1382 : 			1000,

  0004a	f3 0f 10 05 00
	00 00 00	 movss	 xmm0, DWORD PTR __real@447a0000
  00052	f3 0f 11 45 f0	 movss	 DWORD PTR _contour_heights$[ebp+20], xmm0

; 1383 : 			1250,

  00057	f3 0f 10 05 00
	00 00 00	 movss	 xmm0, DWORD PTR __real@449c4000
  0005f	f3 0f 11 45 f4	 movss	 DWORD PTR _contour_heights$[ebp+24], xmm0

; 1384 : 			1500,

  00064	f3 0f 10 05 00
	00 00 00	 movss	 xmm0, DWORD PTR __real@44bb8000
  0006c	f3 0f 11 45 f8	 movss	 DWORD PTR _contour_heights$[ebp+28], xmm0

; 1385 : 			2000,

  00071	f3 0f 10 05 00
	00 00 00	 movss	 xmm0, DWORD PTR __real@44fa0000
  00079	f3 0f 11 45 fc	 movss	 DWORD PTR _contour_heights$[ebp+32], xmm0

; 1386 : 		};
; 1387 : 
; 1388 : 	int
; 1389 : 		reflection_texture_index;
; 1390 : 
; 1391 : 	//
; 1392 : 	// Don't allow snowing effect in Cuba
; 1393 : 	//
; 1394 : 
; 1395 : 	set_3d_rain_special_snow_flag ( FALSE );

  0007e	6a 00		 push	 0
  00080	e8 00 00 00 00	 call	 ?set_3d_rain_special_snow_flag@@YGXH@Z ; set_3d_rain_special_snow_flag

; 1396 : 
; 1397 : 	terrain_texture_sea_detail									= get_system_texture_index ( "TERRAIN_SEA_1" );

  00085	68 00 00 00 00	 push	 OFFSET ??_C@_0O@DCAMCMDE@TERRAIN_SEA_1@
  0008a	e8 00 00 00 00	 call	 ?get_system_texture_index@@YGHPBD@Z ; get_system_texture_index
  0008f	a3 00 00 00 00	 mov	 DWORD PTR ?terrain_texture_sea_detail@@3HA, eax

; 1398 : 	terrain_texture_sea_colour_pass							= get_system_texture_index ( "COLOUR_PASS_SEA" );

  00094	68 00 00 00 00	 push	 OFFSET ??_C@_0BA@EEKPDLHD@COLOUR_PASS_SEA@
  00099	e8 00 00 00 00	 call	 ?get_system_texture_index@@YGHPBD@Z ; get_system_texture_index
  0009e	a3 00 00 00 00	 mov	 DWORD PTR ?terrain_texture_sea_colour_pass@@3HA, eax

; 1399 : 	terrain_texture_beach_detail								= get_system_texture_index ( "TERRAIN_BEACH" );

  000a3	68 00 00 00 00	 push	 OFFSET ??_C@_0O@BBEHGFKB@TERRAIN_BEACH@
  000a8	e8 00 00 00 00	 call	 ?get_system_texture_index@@YGHPBD@Z ; get_system_texture_index
  000ad	a3 00 00 00 00	 mov	 DWORD PTR ?terrain_texture_beach_detail@@3HA, eax

; 1400 : 	terrain_texture_beach_colour_pass						= get_system_texture_index ( "COLOUR_PASS" );

  000b2	68 00 00 00 00	 push	 OFFSET ??_C@_0M@LDEJELLC@COLOUR_PASS@
  000b7	e8 00 00 00 00	 call	 ?get_system_texture_index@@YGHPBD@Z ; get_system_texture_index
  000bc	a3 00 00 00 00	 mov	 DWORD PTR ?terrain_texture_beach_colour_pass@@3HA, eax

; 1401 : 	terrain_texture_land_detail								= get_system_texture_index ( "TERRAIN_DETAIL_4" );

  000c1	68 00 00 00 00	 push	 OFFSET ??_C@_0BB@BDNEEDDA@TERRAIN_DETAIL_4@
  000c6	e8 00 00 00 00	 call	 ?get_system_texture_index@@YGHPBD@Z ; get_system_texture_index
  000cb	a3 00 00 00 00	 mov	 DWORD PTR ?terrain_texture_land_detail@@3HA, eax

; 1402 : 	terrain_texture_land_colour_pass							= get_system_texture_index ( "CH_TERRAIN_CP1" );

  000d0	68 00 00 00 00	 push	 OFFSET ??_C@_0P@EOGCBCMK@CH_TERRAIN_CP1@
  000d5	e8 00 00 00 00	 call	 ?get_system_texture_index@@YGHPBD@Z ; get_system_texture_index
  000da	a3 00 00 00 00	 mov	 DWORD PTR ?terrain_texture_land_colour_pass@@3HA, eax

; 1403 : 	terrain_texture_forest_detail								= get_system_texture_index ( "TERRAIN_TREE_CANOPY_1" );

  000df	68 00 00 00 00	 push	 OFFSET ??_C@_0BG@EOMIBGLD@TERRAIN_TREE_CANOPY_1@
  000e4	e8 00 00 00 00	 call	 ?get_system_texture_index@@YGHPBD@Z ; get_system_texture_index
  000e9	a3 00 00 00 00	 mov	 DWORD PTR ?terrain_texture_forest_detail@@3HA, eax

; 1404 : 	terrain_texture_forest_colour_pass						= 0;

  000ee	c7 05 00 00 00
	00 00 00 00 00	 mov	 DWORD PTR ?terrain_texture_forest_colour_pass@@3HA, 0

; 1405 : 	terrain_texture_builtup_area1_detail					= get_system_texture_index ( "TERRAIN_CUBA_CITY4" );

  000f8	68 00 00 00 00	 push	 OFFSET ??_C@_0BD@BIEFPCFF@TERRAIN_CUBA_CITY4@
  000fd	e8 00 00 00 00	 call	 ?get_system_texture_index@@YGHPBD@Z ; get_system_texture_index
  00102	a3 00 00 00 00	 mov	 DWORD PTR ?terrain_texture_builtup_area1_detail@@3HA, eax

; 1406 : 	terrain_texture_builtup_area1_colour_pass				= get_system_texture_index ( "COLOUR_PASS" );

  00107	68 00 00 00 00	 push	 OFFSET ??_C@_0M@LDEJELLC@COLOUR_PASS@
  0010c	e8 00 00 00 00	 call	 ?get_system_texture_index@@YGHPBD@Z ; get_system_texture_index
  00111	a3 00 00 00 00	 mov	 DWORD PTR ?terrain_texture_builtup_area1_colour_pass@@3HA, eax

; 1407 : 	terrain_texture_builtup_area2_detail					= get_system_texture_index ( "TERRAIN_CUBA_CITY3" );

  00116	68 00 00 00 00	 push	 OFFSET ??_C@_0BD@FHAEGEJC@TERRAIN_CUBA_CITY3@
  0011b	e8 00 00 00 00	 call	 ?get_system_texture_index@@YGHPBD@Z ; get_system_texture_index
  00120	a3 00 00 00 00	 mov	 DWORD PTR ?terrain_texture_builtup_area2_detail@@3HA, eax

; 1408 : 	terrain_texture_builtup_area2_colour_pass				= get_system_texture_index ( "COLOUR_PASS" );

  00125	68 00 00 00 00	 push	 OFFSET ??_C@_0M@LDEJELLC@COLOUR_PASS@
  0012a	e8 00 00 00 00	 call	 ?get_system_texture_index@@YGHPBD@Z ; get_system_texture_index
  0012f	a3 00 00 00 00	 mov	 DWORD PTR ?terrain_texture_builtup_area2_colour_pass@@3HA, eax

; 1409 : 	terrain_texture_builtup_area3_detail					= get_system_texture_index ( "TERRAIN_CUBA_CITY2" );

  00134	68 00 00 00 00	 push	 OFFSET ??_C@_0BD@EOBPFFND@TERRAIN_CUBA_CITY2@
  00139	e8 00 00 00 00	 call	 ?get_system_texture_index@@YGHPBD@Z ; get_system_texture_index
  0013e	a3 00 00 00 00	 mov	 DWORD PTR ?terrain_texture_builtup_area3_detail@@3HA, eax

; 1410 : 	terrain_texture_builtup_area3_colour_pass				= get_system_texture_index ( "COLOUR_PASS" );

  00143	68 00 00 00 00	 push	 OFFSET ??_C@_0M@LDEJELLC@COLOUR_PASS@
  00148	e8 00 00 00 00	 call	 ?get_system_texture_index@@YGHPBD@Z ; get_system_texture_index
  0014d	a3 00 00 00 00	 mov	 DWORD PTR ?terrain_texture_builtup_area3_colour_pass@@3HA, eax

; 1411 : 	terrain_texture_builtup_area4_detail					= get_system_texture_index ( "TERRAIN_CUBA_CITY1" );

  00152	68 00 00 00 00	 push	 OFFSET ??_C@_0BD@GFDCAGBA@TERRAIN_CUBA_CITY1@
  00157	e8 00 00 00 00	 call	 ?get_system_texture_index@@YGHPBD@Z ; get_system_texture_index
  0015c	a3 00 00 00 00	 mov	 DWORD PTR ?terrain_texture_builtup_area4_detail@@3HA, eax

; 1412 : 	terrain_texture_builtup_area4_colour_pass				= get_system_texture_index ( "COLOUR_PASS" );

  00161	68 00 00 00 00	 push	 OFFSET ??_C@_0M@LDEJELLC@COLOUR_PASS@
  00166	e8 00 00 00 00	 call	 ?get_system_texture_index@@YGHPBD@Z ; get_system_texture_index
  0016b	a3 00 00 00 00	 mov	 DWORD PTR ?terrain_texture_builtup_area4_colour_pass@@3HA, eax

; 1413 : 	terrain_texture_builtup_area1_infrared_detail		= get_system_texture_index ( "TERRAIN_BW_CITY4" );

  00170	68 00 00 00 00	 push	 OFFSET ??_C@_0BB@IALPPKNP@TERRAIN_BW_CITY4@
  00175	e8 00 00 00 00	 call	 ?get_system_texture_index@@YGHPBD@Z ; get_system_texture_index
  0017a	a3 00 00 00 00	 mov	 DWORD PTR ?terrain_texture_builtup_area1_infrared_detail@@3HA, eax

; 1414 : 	terrain_texture_builtup_area1_infrared_colour_pass	= get_system_texture_index ( "COLOUR_PASS" );

  0017f	68 00 00 00 00	 push	 OFFSET ??_C@_0M@LDEJELLC@COLOUR_PASS@
  00184	e8 00 00 00 00	 call	 ?get_system_texture_index@@YGHPBD@Z ; get_system_texture_index
  00189	a3 00 00 00 00	 mov	 DWORD PTR ?terrain_texture_builtup_area1_infrared_colour_pass@@3HA, eax

; 1415 : 	terrain_texture_builtup_area2_infrared_detail		= get_system_texture_index ( "TERRAIN_BW_CITY3" );

  0018e	68 00 00 00 00	 push	 OFFSET ??_C@_0BB@MPPOGMBI@TERRAIN_BW_CITY3@
  00193	e8 00 00 00 00	 call	 ?get_system_texture_index@@YGHPBD@Z ; get_system_texture_index
  00198	a3 00 00 00 00	 mov	 DWORD PTR ?terrain_texture_builtup_area2_infrared_detail@@3HA, eax

; 1416 : 	terrain_texture_builtup_area2_infrared_colour_pass	= get_system_texture_index ( "COLOUR_PASS" );

  0019d	68 00 00 00 00	 push	 OFFSET ??_C@_0M@LDEJELLC@COLOUR_PASS@
  001a2	e8 00 00 00 00	 call	 ?get_system_texture_index@@YGHPBD@Z ; get_system_texture_index
  001a7	a3 00 00 00 00	 mov	 DWORD PTR ?terrain_texture_builtup_area2_infrared_colour_pass@@3HA, eax

; 1417 : 	terrain_texture_builtup_area3_infrared_detail		= get_system_texture_index ( "TERRAIN_BW_CITY2" );

  001ac	68 00 00 00 00	 push	 OFFSET ??_C@_0BB@NGOFFNFJ@TERRAIN_BW_CITY2@
  001b1	e8 00 00 00 00	 call	 ?get_system_texture_index@@YGHPBD@Z ; get_system_texture_index
  001b6	a3 00 00 00 00	 mov	 DWORD PTR ?terrain_texture_builtup_area3_infrared_detail@@3HA, eax

; 1418 : 	terrain_texture_builtup_area3_infrared_colour_pass	= get_system_texture_index ( "COLOUR_PASS" );

  001bb	68 00 00 00 00	 push	 OFFSET ??_C@_0M@LDEJELLC@COLOUR_PASS@
  001c0	e8 00 00 00 00	 call	 ?get_system_texture_index@@YGHPBD@Z ; get_system_texture_index
  001c5	a3 00 00 00 00	 mov	 DWORD PTR ?terrain_texture_builtup_area3_infrared_colour_pass@@3HA, eax

; 1419 : 	terrain_texture_builtup_area4_infrared_detail		= get_system_texture_index ( "TERRAIN_BW_CITY1" );

  001ca	68 00 00 00 00	 push	 OFFSET ??_C@_0BB@PNMIAOJK@TERRAIN_BW_CITY1@
  001cf	e8 00 00 00 00	 call	 ?get_system_texture_index@@YGHPBD@Z ; get_system_texture_index
  001d4	a3 00 00 00 00	 mov	 DWORD PTR ?terrain_texture_builtup_area4_infrared_detail@@3HA, eax

; 1420 : 	terrain_texture_builtup_area4_infrared_colour_pass	= get_system_texture_index ( "COLOUR_PASS" );

  001d9	68 00 00 00 00	 push	 OFFSET ??_C@_0M@LDEJELLC@COLOUR_PASS@
  001de	e8 00 00 00 00	 call	 ?get_system_texture_index@@YGHPBD@Z ; get_system_texture_index
  001e3	a3 00 00 00 00	 mov	 DWORD PTR ?terrain_texture_builtup_area4_infrared_colour_pass@@3HA, eax

; 1421 : 	terrain_texture_road_detail								= get_system_texture_index ( "TERRAIN_DETAIL_ROAD" );

  001e8	68 00 00 00 00	 push	 OFFSET ??_C@_0BE@EOMJEIPI@TERRAIN_DETAIL_ROAD@
  001ed	e8 00 00 00 00	 call	 ?get_system_texture_index@@YGHPBD@Z ; get_system_texture_index
  001f2	a3 00 00 00 00	 mov	 DWORD PTR ?terrain_texture_road_detail@@3HA, eax

; 1422 : 	terrain_texture_road_colour_pass							= get_system_texture_index ( "COLOUR_PASS_WALL" );

  001f7	68 00 00 00 00	 push	 OFFSET ??_C@_0BB@OHLOCNHA@COLOUR_PASS_WALL@
  001fc	e8 00 00 00 00	 call	 ?get_system_texture_index@@YGHPBD@Z ; get_system_texture_index
  00201	a3 00 00 00 00	 mov	 DWORD PTR ?terrain_texture_road_colour_pass@@3HA, eax

; 1423 : 	terrain_texture_track_detail								= get_system_texture_index ( "TERRAIN_THAI_TRACK" );

  00206	68 00 00 00 00	 push	 OFFSET ??_C@_0BD@HAICHOLH@TERRAIN_THAI_TRACK@
  0020b	e8 00 00 00 00	 call	 ?get_system_texture_index@@YGHPBD@Z ; get_system_texture_index
  00210	a3 00 00 00 00	 mov	 DWORD PTR ?terrain_texture_track_detail@@3HA, eax

; 1424 : 	terrain_texture_track_colour_pass						= get_system_texture_index ( "COLOUR_PASS_WALL" );

  00215	68 00 00 00 00	 push	 OFFSET ??_C@_0BB@OHLOCNHA@COLOUR_PASS_WALL@
  0021a	e8 00 00 00 00	 call	 ?get_system_texture_index@@YGHPBD@Z ; get_system_texture_index
  0021f	a3 00 00 00 00	 mov	 DWORD PTR ?terrain_texture_track_colour_pass@@3HA, eax

; 1425 : 	terrain_texture_river_detail								= get_system_texture_index ( "TERRAIN_RIVER" );

  00224	68 00 00 00 00	 push	 OFFSET ??_C@_0O@KOAPGDHE@TERRAIN_RIVER@
  00229	e8 00 00 00 00	 call	 ?get_system_texture_index@@YGHPBD@Z ; get_system_texture_index
  0022e	a3 00 00 00 00	 mov	 DWORD PTR ?terrain_texture_river_detail@@3HA, eax

; 1426 : 	terrain_texture_river_colour_pass						= 0;

  00233	c7 05 00 00 00
	00 00 00 00 00	 mov	 DWORD PTR ?terrain_texture_river_colour_pass@@3HA, 0

; 1427 : 	terrain_texture_reservoir_detail							= get_system_texture_index ( "TERRAIN_RIVER" );

  0023d	68 00 00 00 00	 push	 OFFSET ??_C@_0O@KOAPGDHE@TERRAIN_RIVER@
  00242	e8 00 00 00 00	 call	 ?get_system_texture_index@@YGHPBD@Z ; get_system_texture_index
  00247	a3 00 00 00 00	 mov	 DWORD PTR ?terrain_texture_reservoir_detail@@3HA, eax

; 1428 : 	terrain_texture_reservoir_colour_pass					= 0;

  0024c	c7 05 00 00 00
	00 00 00 00 00	 mov	 DWORD PTR ?terrain_texture_reservoir_colour_pass@@3HA, 0

; 1429 : 	terrain_texture_rail_detail								= 0;

  00256	c7 05 00 00 00
	00 00 00 00 00	 mov	 DWORD PTR ?terrain_texture_rail_detail@@3HA, 0

; 1430 : 	terrain_texture_rail_colour_pass							= 0;

  00260	c7 05 00 00 00
	00 00 00 00 00	 mov	 DWORD PTR ?terrain_texture_rail_colour_pass@@3HA, 0

; 1431 : 	terrain_texture_road_bank_detail							= get_system_texture_index ( "TERRAIN_DETAIL_4" );

  0026a	68 00 00 00 00	 push	 OFFSET ??_C@_0BB@BDNEEDDA@TERRAIN_DETAIL_4@
  0026f	e8 00 00 00 00	 call	 ?get_system_texture_index@@YGHPBD@Z ; get_system_texture_index
  00274	a3 00 00 00 00	 mov	 DWORD PTR ?terrain_texture_road_bank_detail@@3HA, eax

; 1432 : 	terrain_texture_road_bank_colour_pass					= get_system_texture_index ( "COLOUR_PASS" );

  00279	68 00 00 00 00	 push	 OFFSET ??_C@_0M@LDEJELLC@COLOUR_PASS@
  0027e	e8 00 00 00 00	 call	 ?get_system_texture_index@@YGHPBD@Z ; get_system_texture_index
  00283	a3 00 00 00 00	 mov	 DWORD PTR ?terrain_texture_road_bank_colour_pass@@3HA, eax

; 1433 : 	terrain_texture_river_bank_detail						= get_system_texture_index ( "TERRAIN_BEACH" );

  00288	68 00 00 00 00	 push	 OFFSET ??_C@_0O@BBEHGFKB@TERRAIN_BEACH@
  0028d	e8 00 00 00 00	 call	 ?get_system_texture_index@@YGHPBD@Z ; get_system_texture_index
  00292	a3 00 00 00 00	 mov	 DWORD PTR ?terrain_texture_river_bank_detail@@3HA, eax

; 1434 : 	terrain_texture_river_bank_colour_pass					= get_system_texture_index ( "COLOUR_PASS" );

  00297	68 00 00 00 00	 push	 OFFSET ??_C@_0M@LDEJELLC@COLOUR_PASS@
  0029c	e8 00 00 00 00	 call	 ?get_system_texture_index@@YGHPBD@Z ; get_system_texture_index
  002a1	a3 00 00 00 00	 mov	 DWORD PTR ?terrain_texture_river_bank_colour_pass@@3HA, eax

; 1435 : 	terrain_texture_rail_bank_detail							= 0;

  002a6	c7 05 00 00 00
	00 00 00 00 00	 mov	 DWORD PTR ?terrain_texture_rail_bank_detail@@3HA, 0

; 1436 : 	terrain_texture_rail_bank_colour_pass					= 0;

  002b0	c7 05 00 00 00
	00 00 00 00 00	 mov	 DWORD PTR ?terrain_texture_rail_bank_colour_pass@@3HA, 0

; 1437 : 	terrain_texture_field1_detail								= get_system_texture_index ( "TERRAIN_MUSTARDFIELD" );

  002ba	68 00 00 00 00	 push	 OFFSET ??_C@_0BF@GFEKLLKL@TERRAIN_MUSTARDFIELD@
  002bf	e8 00 00 00 00	 call	 ?get_system_texture_index@@YGHPBD@Z ; get_system_texture_index
  002c4	a3 00 00 00 00	 mov	 DWORD PTR ?terrain_texture_field1_detail@@3HA, eax

; 1438 : 	terrain_texture_field1_colour_pass						= get_system_texture_index ( "COLOUR_PASS" );

  002c9	68 00 00 00 00	 push	 OFFSET ??_C@_0M@LDEJELLC@COLOUR_PASS@
  002ce	e8 00 00 00 00	 call	 ?get_system_texture_index@@YGHPBD@Z ; get_system_texture_index
  002d3	a3 00 00 00 00	 mov	 DWORD PTR ?terrain_texture_field1_colour_pass@@3HA, eax

; 1439 : 	terrain_texture_field2_detail								= get_system_texture_index ( "TERRAIN_PLOUGHED1FIELD" );

  002d8	68 00 00 00 00	 push	 OFFSET ??_C@_0BH@JNGNCFED@TERRAIN_PLOUGHED1FIELD@
  002dd	e8 00 00 00 00	 call	 ?get_system_texture_index@@YGHPBD@Z ; get_system_texture_index
  002e2	a3 00 00 00 00	 mov	 DWORD PTR ?terrain_texture_field2_detail@@3HA, eax

; 1440 : 	terrain_texture_field2_colour_pass						= get_system_texture_index ( "COLOUR_PASS" );

  002e7	68 00 00 00 00	 push	 OFFSET ??_C@_0M@LDEJELLC@COLOUR_PASS@
  002ec	e8 00 00 00 00	 call	 ?get_system_texture_index@@YGHPBD@Z ; get_system_texture_index
  002f1	a3 00 00 00 00	 mov	 DWORD PTR ?terrain_texture_field2_colour_pass@@3HA, eax

; 1441 : 	terrain_texture_field3_detail								= get_system_texture_index ( "TERRAIN_PLOUGHED2FIELD" );

  002f6	68 00 00 00 00	 push	 OFFSET ??_C@_0BH@KMIFDPNO@TERRAIN_PLOUGHED2FIELD@
  002fb	e8 00 00 00 00	 call	 ?get_system_texture_index@@YGHPBD@Z ; get_system_texture_index
  00300	a3 00 00 00 00	 mov	 DWORD PTR ?terrain_texture_field3_detail@@3HA, eax

; 1442 : 	terrain_texture_field3_colour_pass						= get_system_texture_index ( "COLOUR_PASS" );

  00305	68 00 00 00 00	 push	 OFFSET ??_C@_0M@LDEJELLC@COLOUR_PASS@
  0030a	e8 00 00 00 00	 call	 ?get_system_texture_index@@YGHPBD@Z ; get_system_texture_index
  0030f	a3 00 00 00 00	 mov	 DWORD PTR ?terrain_texture_field3_colour_pass@@3HA, eax

; 1443 : 	terrain_texture_field4_detail								= get_system_texture_index ( "TERRAIN_CORNFIELD" );

  00314	68 00 00 00 00	 push	 OFFSET ??_C@_0BC@KJPKDFNB@TERRAIN_CORNFIELD@
  00319	e8 00 00 00 00	 call	 ?get_system_texture_index@@YGHPBD@Z ; get_system_texture_index
  0031e	a3 00 00 00 00	 mov	 DWORD PTR ?terrain_texture_field4_detail@@3HA, eax

; 1444 : 	terrain_texture_field4_colour_pass						= get_system_texture_index ( "COLOUR_PASS" );

  00323	68 00 00 00 00	 push	 OFFSET ??_C@_0M@LDEJELLC@COLOUR_PASS@
  00328	e8 00 00 00 00	 call	 ?get_system_texture_index@@YGHPBD@Z ; get_system_texture_index
  0032d	a3 00 00 00 00	 mov	 DWORD PTR ?terrain_texture_field4_colour_pass@@3HA, eax

; 1445 : 	terrain_texture_field5_detail								= get_system_texture_index ( "TERRAIN_WHEATFIELD" );

  00332	68 00 00 00 00	 push	 OFFSET ??_C@_0BD@DPOGMPFD@TERRAIN_WHEATFIELD@
  00337	e8 00 00 00 00	 call	 ?get_system_texture_index@@YGHPBD@Z ; get_system_texture_index
  0033c	a3 00 00 00 00	 mov	 DWORD PTR ?terrain_texture_field5_detail@@3HA, eax

; 1446 : 	terrain_texture_field5_colour_pass						= get_system_texture_index ( "COLOUR_PASS" );

  00341	68 00 00 00 00	 push	 OFFSET ??_C@_0M@LDEJELLC@COLOUR_PASS@
  00346	e8 00 00 00 00	 call	 ?get_system_texture_index@@YGHPBD@Z ; get_system_texture_index
  0034b	a3 00 00 00 00	 mov	 DWORD PTR ?terrain_texture_field5_colour_pass@@3HA, eax

; 1447 : 	terrain_texture_field6_detail								= get_system_texture_index ( "TERRAIN_LIGHTGREENFIELD" );

  00350	68 00 00 00 00	 push	 OFFSET ??_C@_0BI@KPJCKJLC@TERRAIN_LIGHTGREENFIELD@
  00355	e8 00 00 00 00	 call	 ?get_system_texture_index@@YGHPBD@Z ; get_system_texture_index
  0035a	a3 00 00 00 00	 mov	 DWORD PTR ?terrain_texture_field6_detail@@3HA, eax

; 1448 : 	terrain_texture_field6_colour_pass						= get_system_texture_index ( "COLOUR_PASS" );

  0035f	68 00 00 00 00	 push	 OFFSET ??_C@_0M@LDEJELLC@COLOUR_PASS@
  00364	e8 00 00 00 00	 call	 ?get_system_texture_index@@YGHPBD@Z ; get_system_texture_index
  00369	a3 00 00 00 00	 mov	 DWORD PTR ?terrain_texture_field6_colour_pass@@3HA, eax

; 1449 : 	terrain_texture_field7_detail								= get_system_texture_index ( "TERRAIN_DARKGREENFIELD" );

  0036e	68 00 00 00 00	 push	 OFFSET ??_C@_0BH@BEINOGAP@TERRAIN_DARKGREENFIELD@
  00373	e8 00 00 00 00	 call	 ?get_system_texture_index@@YGHPBD@Z ; get_system_texture_index
  00378	a3 00 00 00 00	 mov	 DWORD PTR ?terrain_texture_field7_detail@@3HA, eax

; 1450 : 	terrain_texture_field7_colour_pass						= get_system_texture_index ( "COLOUR_PASS" );

  0037d	68 00 00 00 00	 push	 OFFSET ??_C@_0M@LDEJELLC@COLOUR_PASS@
  00382	e8 00 00 00 00	 call	 ?get_system_texture_index@@YGHPBD@Z ; get_system_texture_index
  00387	a3 00 00 00 00	 mov	 DWORD PTR ?terrain_texture_field7_colour_pass@@3HA, eax

; 1451 : 	terrain_texture_field8_detail								= get_system_texture_index ( "TERRAIN_MUSTARDFIELD" );

  0038c	68 00 00 00 00	 push	 OFFSET ??_C@_0BF@GFEKLLKL@TERRAIN_MUSTARDFIELD@
  00391	e8 00 00 00 00	 call	 ?get_system_texture_index@@YGHPBD@Z ; get_system_texture_index
  00396	a3 00 00 00 00	 mov	 DWORD PTR ?terrain_texture_field8_detail@@3HA, eax

; 1452 : 	terrain_texture_field8_colour_pass						= get_system_texture_index ( "COLOUR_PASS" );

  0039b	68 00 00 00 00	 push	 OFFSET ??_C@_0M@LDEJELLC@COLOUR_PASS@
  003a0	e8 00 00 00 00	 call	 ?get_system_texture_index@@YGHPBD@Z ; get_system_texture_index
  003a5	a3 00 00 00 00	 mov	 DWORD PTR ?terrain_texture_field8_colour_pass@@3HA, eax

; 1453 : 	terrain_texture_field9_detail								= get_system_texture_index ( "TERRAIN_PLOUGHED1FIELD" );

  003aa	68 00 00 00 00	 push	 OFFSET ??_C@_0BH@JNGNCFED@TERRAIN_PLOUGHED1FIELD@
  003af	e8 00 00 00 00	 call	 ?get_system_texture_index@@YGHPBD@Z ; get_system_texture_index
  003b4	a3 00 00 00 00	 mov	 DWORD PTR ?terrain_texture_field9_detail@@3HA, eax

; 1454 : 	terrain_texture_field9_colour_pass						= get_system_texture_index ( "COLOUR_PASS" );

  003b9	68 00 00 00 00	 push	 OFFSET ??_C@_0M@LDEJELLC@COLOUR_PASS@
  003be	e8 00 00 00 00	 call	 ?get_system_texture_index@@YGHPBD@Z ; get_system_texture_index
  003c3	a3 00 00 00 00	 mov	 DWORD PTR ?terrain_texture_field9_colour_pass@@3HA, eax

; 1455 : 	terrain_texture_field10_detail							= get_system_texture_index ( "TERRAIN_PLOUGHED2FIELD" );

  003c8	68 00 00 00 00	 push	 OFFSET ??_C@_0BH@KMIFDPNO@TERRAIN_PLOUGHED2FIELD@
  003cd	e8 00 00 00 00	 call	 ?get_system_texture_index@@YGHPBD@Z ; get_system_texture_index
  003d2	a3 00 00 00 00	 mov	 DWORD PTR ?terrain_texture_field10_detail@@3HA, eax

; 1456 : 	terrain_texture_field10_colour_pass						= get_system_texture_index ( "COLOUR_PASS" );

  003d7	68 00 00 00 00	 push	 OFFSET ??_C@_0M@LDEJELLC@COLOUR_PASS@
  003dc	e8 00 00 00 00	 call	 ?get_system_texture_index@@YGHPBD@Z ; get_system_texture_index
  003e1	a3 00 00 00 00	 mov	 DWORD PTR ?terrain_texture_field10_colour_pass@@3HA, eax

; 1457 : 	terrain_texture_field11_detail							= get_system_texture_index ( "TERRAIN_CORNFIELD" );

  003e6	68 00 00 00 00	 push	 OFFSET ??_C@_0BC@KJPKDFNB@TERRAIN_CORNFIELD@
  003eb	e8 00 00 00 00	 call	 ?get_system_texture_index@@YGHPBD@Z ; get_system_texture_index
  003f0	a3 00 00 00 00	 mov	 DWORD PTR ?terrain_texture_field11_detail@@3HA, eax

; 1458 : 	terrain_texture_field11_colour_pass						= get_system_texture_index ( "COLOUR_PASS" );

  003f5	68 00 00 00 00	 push	 OFFSET ??_C@_0M@LDEJELLC@COLOUR_PASS@
  003fa	e8 00 00 00 00	 call	 ?get_system_texture_index@@YGHPBD@Z ; get_system_texture_index
  003ff	a3 00 00 00 00	 mov	 DWORD PTR ?terrain_texture_field11_colour_pass@@3HA, eax

; 1459 : 	terrain_texture_altered_land1_detail					= get_system_texture_index ( "TERRAIN_SCRUB" );

  00404	68 00 00 00 00	 push	 OFFSET ??_C@_0O@PGGFIOAG@TERRAIN_SCRUB@
  00409	e8 00 00 00 00	 call	 ?get_system_texture_index@@YGHPBD@Z ; get_system_texture_index
  0040e	a3 00 00 00 00	 mov	 DWORD PTR ?terrain_texture_altered_land1_detail@@3HA, eax

; 1460 : 	terrain_texture_altered_land1_colour_pass				= get_system_texture_index ( "COLOUR_PASS_MOUNTAINS" );

  00413	68 00 00 00 00	 push	 OFFSET ??_C@_0BG@IGFCFCHF@COLOUR_PASS_MOUNTAINS@
  00418	e8 00 00 00 00	 call	 ?get_system_texture_index@@YGHPBD@Z ; get_system_texture_index
  0041d	a3 00 00 00 00	 mov	 DWORD PTR ?terrain_texture_altered_land1_colour_pass@@3HA, eax

; 1461 : 	terrain_texture_altered_land2_detail					= get_system_texture_index ( "TERRAIN_BARE_ROCK2" );

  00422	68 00 00 00 00	 push	 OFFSET ??_C@_0BD@BMPINLKM@TERRAIN_BARE_ROCK2@
  00427	e8 00 00 00 00	 call	 ?get_system_texture_index@@YGHPBD@Z ; get_system_texture_index
  0042c	a3 00 00 00 00	 mov	 DWORD PTR ?terrain_texture_altered_land2_detail@@3HA, eax

; 1462 : 	terrain_texture_altered_land2_colour_pass				= get_system_texture_index ( "COLOUR_PASS_ROCK" );

  00431	68 00 00 00 00	 push	 OFFSET ??_C@_0BB@ILJMAEMJ@COLOUR_PASS_ROCK@
  00436	e8 00 00 00 00	 call	 ?get_system_texture_index@@YGHPBD@Z ; get_system_texture_index
  0043b	a3 00 00 00 00	 mov	 DWORD PTR ?terrain_texture_altered_land2_colour_pass@@3HA, eax

; 1463 : 	terrain_texture_altered_land3_detail					= get_system_texture_index ( "TERRAIN_SNOW" );

  00440	68 00 00 00 00	 push	 OFFSET ??_C@_0N@JANIPHBF@TERRAIN_SNOW@
  00445	e8 00 00 00 00	 call	 ?get_system_texture_index@@YGHPBD@Z ; get_system_texture_index
  0044a	a3 00 00 00 00	 mov	 DWORD PTR ?terrain_texture_altered_land3_detail@@3HA, eax

; 1464 : 	terrain_texture_altered_land3_colour_pass				= get_system_texture_index ( "COLOUR_PASS_SNOW" );

  0044f	68 00 00 00 00	 push	 OFFSET ??_C@_0BB@OBCNOOCF@COLOUR_PASS_SNOW@
  00454	e8 00 00 00 00	 call	 ?get_system_texture_index@@YGHPBD@Z ; get_system_texture_index
  00459	a3 00 00 00 00	 mov	 DWORD PTR ?terrain_texture_altered_land3_colour_pass@@3HA, eax

; 1465 : 	terrain_texture_hedge_detail								= get_system_texture_index ( "TERRAIN_TREE_CANOPY_1" );

  0045e	68 00 00 00 00	 push	 OFFSET ??_C@_0BG@EOMIBGLD@TERRAIN_TREE_CANOPY_1@
  00463	e8 00 00 00 00	 call	 ?get_system_texture_index@@YGHPBD@Z ; get_system_texture_index
  00468	a3 00 00 00 00	 mov	 DWORD PTR ?terrain_texture_hedge_detail@@3HA, eax

; 1466 : 	terrain_texture_hedge_colour_pass						= 0;

  0046d	c7 05 00 00 00
	00 00 00 00 00	 mov	 DWORD PTR ?terrain_texture_hedge_colour_pass@@3HA, 0

; 1467 : 	terrain_texture_wall_detail								= get_system_texture_index ( "TERRAIN_TREE_CANOPY_1" );

  00477	68 00 00 00 00	 push	 OFFSET ??_C@_0BG@EOMIBGLD@TERRAIN_TREE_CANOPY_1@
  0047c	e8 00 00 00 00	 call	 ?get_system_texture_index@@YGHPBD@Z ; get_system_texture_index
  00481	a3 00 00 00 00	 mov	 DWORD PTR ?terrain_texture_wall_detail@@3HA, eax

; 1468 : 	terrain_texture_wall_colour_pass							= get_system_texture_index ( "COLOUR_PASS_ROCK" );

  00486	68 00 00 00 00	 push	 OFFSET ??_C@_0BB@ILJMAEMJ@COLOUR_PASS_ROCK@
  0048b	e8 00 00 00 00	 call	 ?get_system_texture_index@@YGHPBD@Z ; get_system_texture_index
  00490	a3 00 00 00 00	 mov	 DWORD PTR ?terrain_texture_wall_colour_pass@@3HA, eax

; 1469 : 	terrain_texture_trench_detail								= get_system_texture_index ( "TERRAIN_RIVER" );

  00495	68 00 00 00 00	 push	 OFFSET ??_C@_0O@KOAPGDHE@TERRAIN_RIVER@
  0049a	e8 00 00 00 00	 call	 ?get_system_texture_index@@YGHPBD@Z ; get_system_texture_index
  0049f	a3 00 00 00 00	 mov	 DWORD PTR ?terrain_texture_trench_detail@@3HA, eax

; 1470 : 	terrain_texture_trench_colour_pass						= 0;

  004a4	c7 05 00 00 00
	00 00 00 00 00	 mov	 DWORD PTR ?terrain_texture_trench_colour_pass@@3HA, 0

; 1471 : 
; 1472 : 	//VJ 050303 texture colour mod: use texture colour directly instead of brownish haze
; 1473 : 	if (command_line_texture_colour)

  004ae	83 3d 00 00 00
	00 00		 cmp	 DWORD PTR ?command_line_texture_colour@@3HA, 0 ; command_line_texture_colour
  004b5	74 05		 je	 SHORT $LN2@initialise

; 1474 : 		initialise_all_custom_terrain_types ();

  004b7	e8 00 00 00 00	 call	 ?initialise_all_custom_terrain_types@@YGXXZ ; initialise_all_custom_terrain_types
$LN2@initialise:

; 1475 : 
; 1476 : 	// Xhit: the surface types for the various terrain types are set according to the surroundings. (030328)
; 1477 : 	//set surface types for rotor dust
; 1478 : 	//VJ 051224 moved to separate function
; 1479 : 	initialise_surface_types();

  004bc	e8 00 00 00 00	 call	 ?initialise_surface_types@@YGXXZ ; initialise_surface_types

; 1480 : /*
; 1481 : 	terrain_surface_sea										= SURFACE_TYPE_WATER;
; 1482 : 	terrain_surface_beach									= SURFACE_TYPE_SAND;
; 1483 : 	terrain_surface_land										= SURFACE_TYPE_SOIL;
; 1484 : 	terrain_surface_forest									= SURFACE_TYPE_NONE;
; 1485 : 	terrain_surface_builtup_area1							= SURFACE_TYPE_ASPHALT;
; 1486 : 	terrain_surface_builtup_area2							= SURFACE_TYPE_ASPHALT;
; 1487 : 	terrain_surface_builtup_area3							= SURFACE_TYPE_ASPHALT;
; 1488 : 	terrain_surface_builtup_area4							= SURFACE_TYPE_ASPHALT;
; 1489 : 	terrain_surface_builtup_area1_infrared				= SURFACE_TYPE_ASPHALT;
; 1490 : 	terrain_surface_builtup_area2_infrared				= SURFACE_TYPE_ASPHALT;
; 1491 : 	terrain_surface_builtup_area3_infrared				= SURFACE_TYPE_ASPHALT;
; 1492 : 	terrain_surface_builtup_area4_infrared				= SURFACE_TYPE_ASPHALT;
; 1493 : 	terrain_surface_road										= SURFACE_TYPE_ASPHALT;
; 1494 : 	terrain_surface_track									= SURFACE_TYPE_SOIL;
; 1495 : 	terrain_surface_river									= SURFACE_TYPE_WATER;
; 1496 : 	terrain_surface_reservoir								= SURFACE_TYPE_WATER;
; 1497 : 	terrain_surface_rail										= SURFACE_TYPE_SOIL;
; 1498 : 	terrain_surface_road_bank								= SURFACE_TYPE_SOIL;
; 1499 : 	terrain_surface_river_bank								= SURFACE_TYPE_SAND;
; 1500 : 	terrain_surface_rail_bank								= SURFACE_TYPE_SOIL;
; 1501 : 	terrain_surface_field1									= SURFACE_TYPE_FIELD_LIGHTBROWN;
; 1502 : 	terrain_surface_field2									= SURFACE_TYPE_FIELD_DARKBROWN;
; 1503 : 	terrain_surface_field3									= SURFACE_TYPE_FIELD_LIGHTBROWN;
; 1504 : 	terrain_surface_field4									= SURFACE_TYPE_FIELD_LIGHTBROWN;
; 1505 : 	terrain_surface_field5									= SURFACE_TYPE_FIELD_LIGHTBROWN;
; 1506 : 	terrain_surface_field6									= SURFACE_TYPE_SOIL;
; 1507 : 	terrain_surface_field7									= SURFACE_TYPE_SOIL;
; 1508 : 	terrain_surface_field8									= SURFACE_TYPE_FIELD_LIGHTBROWN;
; 1509 : 	terrain_surface_field9									= SURFACE_TYPE_FIELD_LIGHTBROWN;
; 1510 : 	terrain_surface_field10									= SURFACE_TYPE_FIELD_DARKBROWN;
; 1511 : 	terrain_surface_field11									= SURFACE_TYPE_FIELD_LIGHTBROWN;
; 1512 : 	terrain_surface_altered_land1							= SURFACE_TYPE_ROCK;
; 1513 : 	terrain_surface_altered_land2							= SURFACE_TYPE_ROCK;
; 1514 : 	terrain_surface_altered_land3							= SURFACE_TYPE_SNOW;
; 1515 : 	terrain_surface_hedge									= SURFACE_TYPE_SOIL;
; 1516 : 	terrain_surface_wall										= SURFACE_TYPE_SOIL;
; 1517 : 	terrain_surface_trench									= SURFACE_TYPE_WATER;
; 1518 : */
; 1519 : 
; 1520 : 	set_object_3d_texture_camoflage_by_name ( "DEFAULT" );

  004c1	68 00 00 00 00	 push	 OFFSET ??_C@_07MGCPDNLD@DEFAULT@
  004c6	e8 00 00 00 00	 call	 ?set_object_3d_texture_camoflage_by_name@@YGXPAD@Z ; set_object_3d_texture_camoflage_by_name

; 1521 : 
; 1522 : 	reflection_texture_index = get_system_texture_index ( "ENVIRO_YEMEN_SMALL" );

  004cb	68 00 00 00 00	 push	 OFFSET ??_C@_0BD@MIKAIJBD@ENVIRO_YEMEN_SMALL@
  004d0	e8 00 00 00 00	 call	 ?get_system_texture_index@@YGHPBD@Z ; get_system_texture_index
  004d5	89 45 d8	 mov	 DWORD PTR _reflection_texture_index$[ebp], eax

; 1523 : 
; 1524 : 	if ( reflection_texture_index != -1 )

  004d8	83 7d d8 ff	 cmp	 DWORD PTR _reflection_texture_index$[ebp], -1
  004dc	74 09		 je	 SHORT $LN3@initialise

; 1525 : 	{
; 1526 : 
; 1527 : 		set_object_3d_reflection_texture_map ( reflection_texture_index );

  004de	8b 45 d8	 mov	 eax, DWORD PTR _reflection_texture_index$[ebp]
  004e1	50		 push	 eax
  004e2	e8 00 00 00 00	 call	 ?set_object_3d_reflection_texture_map@@YGXH@Z ; set_object_3d_reflection_texture_map
$LN3@initialise:

; 1528 : 	}
; 1529 : 
; 1530 : 	set_2d_terrain_contour_heights ( sizeof ( contour_heights ) / sizeof ( float ), contour_heights );

  004e7	8d 45 dc	 lea	 eax, DWORD PTR _contour_heights$[ebp]
  004ea	50		 push	 eax
  004eb	6a 09		 push	 9
  004ed	e8 00 00 00 00	 call	 ?set_2d_terrain_contour_heights@@YGXHPAM@Z ; set_2d_terrain_contour_heights

; 1531 : }

  004f2	5f		 pop	 edi
  004f3	5e		 pop	 esi
  004f4	5b		 pop	 ebx
  004f5	8b e5		 mov	 esp, ebp
  004f7	5d		 pop	 ebp
  004f8	c3		 ret	 0
?initialise_3d_cuba_terrain_types@@YGXXZ ENDP		; initialise_3d_cuba_terrain_types
_TEXT	ENDS
; Function compile flags: /Odtp /ZI
; File c:\users\nhv90\projects\eech\modules\3d\terrain\terrtype.c
;	COMDAT ?initialise_3d_taiwan_terrain_types@@YGXXZ
_TEXT	SEGMENT
_reflection_texture_index$ = -40			; size = 4
_contour_heights$ = -36					; size = 36
?initialise_3d_taiwan_terrain_types@@YGXXZ PROC		; initialise_3d_taiwan_terrain_types, COMDAT

; 2032 : {

  00000	55		 push	 ebp
  00001	8b ec		 mov	 ebp, esp
  00003	83 ec 68	 sub	 esp, 104		; 00000068H
  00006	53		 push	 ebx
  00007	56		 push	 esi
  00008	57		 push	 edi

; 2033 : 
; 2034 : 	float
; 2035 : 		contour_heights[] =
; 2036 : 		{
; 2037 : 
; 2038 : 			-1000,

  00009	f3 0f 10 05 00
	00 00 00	 movss	 xmm0, DWORD PTR __real@c47a0000
  00011	f3 0f 11 45 dc	 movss	 DWORD PTR _contour_heights$[ebp], xmm0

; 2039 : 			-0.0001,

  00016	f3 0f 10 05 00
	00 00 00	 movss	 xmm0, DWORD PTR __real@b8d1b717
  0001e	f3 0f 11 45 e0	 movss	 DWORD PTR _contour_heights$[ebp+4], xmm0

; 2040 : 			250,

  00023	f3 0f 10 05 00
	00 00 00	 movss	 xmm0, DWORD PTR __real@437a0000
  0002b	f3 0f 11 45 e4	 movss	 DWORD PTR _contour_heights$[ebp+8], xmm0

; 2041 : 			500,

  00030	f3 0f 10 05 00
	00 00 00	 movss	 xmm0, DWORD PTR __real@43fa0000
  00038	f3 0f 11 45 e8	 movss	 DWORD PTR _contour_heights$[ebp+12], xmm0

; 2042 : 			750,

  0003d	f3 0f 10 05 00
	00 00 00	 movss	 xmm0, DWORD PTR __real@443b8000
  00045	f3 0f 11 45 ec	 movss	 DWORD PTR _contour_heights$[ebp+16], xmm0

; 2043 : 			1000,

  0004a	f3 0f 10 05 00
	00 00 00	 movss	 xmm0, DWORD PTR __real@447a0000
  00052	f3 0f 11 45 f0	 movss	 DWORD PTR _contour_heights$[ebp+20], xmm0

; 2044 : 			1750,

  00057	f3 0f 10 05 00
	00 00 00	 movss	 xmm0, DWORD PTR __real@44dac000
  0005f	f3 0f 11 45 f4	 movss	 DWORD PTR _contour_heights$[ebp+24], xmm0

; 2045 : 			2600,

  00064	f3 0f 10 05 00
	00 00 00	 movss	 xmm0, DWORD PTR __real@45228000
  0006c	f3 0f 11 45 f8	 movss	 DWORD PTR _contour_heights$[ebp+28], xmm0

; 2046 : 			3700,

  00071	f3 0f 10 05 00
	00 00 00	 movss	 xmm0, DWORD PTR __real@45674000
  00079	f3 0f 11 45 fc	 movss	 DWORD PTR _contour_heights$[ebp+32], xmm0

; 2047 : 		};
; 2048 : 
; 2049 : 	int
; 2050 : 		reflection_texture_index;
; 2051 : 
; 2052 : 	set_3d_rain_special_snow_flag ( FALSE );

  0007e	6a 00		 push	 0
  00080	e8 00 00 00 00	 call	 ?set_3d_rain_special_snow_flag@@YGXH@Z ; set_3d_rain_special_snow_flag

; 2053 : 
; 2054 : 	terrain_texture_sea_detail									= get_system_texture_index ( "TERRAIN_SEA_1" );

  00085	68 00 00 00 00	 push	 OFFSET ??_C@_0O@DCAMCMDE@TERRAIN_SEA_1@
  0008a	e8 00 00 00 00	 call	 ?get_system_texture_index@@YGHPBD@Z ; get_system_texture_index
  0008f	a3 00 00 00 00	 mov	 DWORD PTR ?terrain_texture_sea_detail@@3HA, eax

; 2055 : 	terrain_texture_sea_colour_pass							= get_system_texture_index ( "COLOUR_PASS_SEA_LEBANON" );

  00094	68 00 00 00 00	 push	 OFFSET ??_C@_0BI@EBJMGEFE@COLOUR_PASS_SEA_LEBANON@
  00099	e8 00 00 00 00	 call	 ?get_system_texture_index@@YGHPBD@Z ; get_system_texture_index
  0009e	a3 00 00 00 00	 mov	 DWORD PTR ?terrain_texture_sea_colour_pass@@3HA, eax

; 2056 : 	terrain_texture_beach_detail								= get_system_texture_index ( "TERRAIN_BEACH" );

  000a3	68 00 00 00 00	 push	 OFFSET ??_C@_0O@BBEHGFKB@TERRAIN_BEACH@
  000a8	e8 00 00 00 00	 call	 ?get_system_texture_index@@YGHPBD@Z ; get_system_texture_index
  000ad	a3 00 00 00 00	 mov	 DWORD PTR ?terrain_texture_beach_detail@@3HA, eax

; 2057 : 	terrain_texture_beach_colour_pass						= get_system_texture_index ( "COLOUR_PASS_LEBANON" );

  000b2	68 00 00 00 00	 push	 OFFSET ??_C@_0BE@CBPBIHAE@COLOUR_PASS_LEBANON@
  000b7	e8 00 00 00 00	 call	 ?get_system_texture_index@@YGHPBD@Z ; get_system_texture_index
  000bc	a3 00 00 00 00	 mov	 DWORD PTR ?terrain_texture_beach_colour_pass@@3HA, eax

; 2058 : 
; 2059 : 	terrain_texture_land_detail								= get_system_texture_index ( "TERRAIN_HIGHLAND" );

  000c1	68 00 00 00 00	 push	 OFFSET ??_C@_0BB@NLCHJFOM@TERRAIN_HIGHLAND@
  000c6	e8 00 00 00 00	 call	 ?get_system_texture_index@@YGHPBD@Z ; get_system_texture_index
  000cb	a3 00 00 00 00	 mov	 DWORD PTR ?terrain_texture_land_detail@@3HA, eax

; 2060 : 	terrain_texture_land_colour_pass							= get_system_texture_index ( "COLOUR_PASS_SWAMP" );

  000d0	68 00 00 00 00	 push	 OFFSET ??_C@_0BC@GNMAAAJL@COLOUR_PASS_SWAMP@
  000d5	e8 00 00 00 00	 call	 ?get_system_texture_index@@YGHPBD@Z ; get_system_texture_index
  000da	a3 00 00 00 00	 mov	 DWORD PTR ?terrain_texture_land_colour_pass@@3HA, eax

; 2061 : 
; 2062 : 	terrain_texture_forest_detail								= get_system_texture_index ( "TERRAIN_TREE_CANOPY_LEBANON" );

  000df	68 00 00 00 00	 push	 OFFSET ??_C@_0BM@NCJBOGKD@TERRAIN_TREE_CANOPY_LEBANON@
  000e4	e8 00 00 00 00	 call	 ?get_system_texture_index@@YGHPBD@Z ; get_system_texture_index
  000e9	a3 00 00 00 00	 mov	 DWORD PTR ?terrain_texture_forest_detail@@3HA, eax

; 2063 : 	terrain_texture_forest_colour_pass						= get_system_texture_index ( "COLOUR_PASS_FOREST_LEBANON" );

  000ee	68 00 00 00 00	 push	 OFFSET ??_C@_0BL@LIHLPOJG@COLOUR_PASS_FOREST_LEBANON@
  000f3	e8 00 00 00 00	 call	 ?get_system_texture_index@@YGHPBD@Z ; get_system_texture_index
  000f8	a3 00 00 00 00	 mov	 DWORD PTR ?terrain_texture_forest_colour_pass@@3HA, eax

; 2064 : 
; 2065 : 	terrain_texture_builtup_area1_detail					= get_system_texture_index ( "TERRAIN_THAI_CITY3" );

  000fd	68 00 00 00 00	 push	 OFFSET ??_C@_0BD@OIPBJIPC@TERRAIN_THAI_CITY3@
  00102	e8 00 00 00 00	 call	 ?get_system_texture_index@@YGHPBD@Z ; get_system_texture_index
  00107	a3 00 00 00 00	 mov	 DWORD PTR ?terrain_texture_builtup_area1_detail@@3HA, eax

; 2066 : 	terrain_texture_builtup_area1_colour_pass				= get_system_texture_index ( "COLOUR_PASS_SWAMP" );

  0010c	68 00 00 00 00	 push	 OFFSET ??_C@_0BC@GNMAAAJL@COLOUR_PASS_SWAMP@
  00111	e8 00 00 00 00	 call	 ?get_system_texture_index@@YGHPBD@Z ; get_system_texture_index
  00116	a3 00 00 00 00	 mov	 DWORD PTR ?terrain_texture_builtup_area1_colour_pass@@3HA, eax

; 2067 : 	terrain_texture_builtup_area2_detail					= get_system_texture_index ( "TERRAIN_THAI_CITY2" );

  0011b	68 00 00 00 00	 push	 OFFSET ??_C@_0BD@PBOKKJLD@TERRAIN_THAI_CITY2@
  00120	e8 00 00 00 00	 call	 ?get_system_texture_index@@YGHPBD@Z ; get_system_texture_index
  00125	a3 00 00 00 00	 mov	 DWORD PTR ?terrain_texture_builtup_area2_detail@@3HA, eax

; 2068 : 	terrain_texture_builtup_area2_colour_pass				= get_system_texture_index ( "COLOUR_PASS_SWAMP" );

  0012a	68 00 00 00 00	 push	 OFFSET ??_C@_0BC@GNMAAAJL@COLOUR_PASS_SWAMP@
  0012f	e8 00 00 00 00	 call	 ?get_system_texture_index@@YGHPBD@Z ; get_system_texture_index
  00134	a3 00 00 00 00	 mov	 DWORD PTR ?terrain_texture_builtup_area2_colour_pass@@3HA, eax

; 2069 : 	terrain_texture_builtup_area3_detail					= get_system_texture_index ( "TERRAIN_THAI_CITY1" );

  00139	68 00 00 00 00	 push	 OFFSET ??_C@_0BD@NKMHPKHA@TERRAIN_THAI_CITY1@
  0013e	e8 00 00 00 00	 call	 ?get_system_texture_index@@YGHPBD@Z ; get_system_texture_index
  00143	a3 00 00 00 00	 mov	 DWORD PTR ?terrain_texture_builtup_area3_detail@@3HA, eax

; 2070 : 	terrain_texture_builtup_area3_colour_pass				= get_system_texture_index ( "COLOUR_PASS_SWAMP" );

  00148	68 00 00 00 00	 push	 OFFSET ??_C@_0BC@GNMAAAJL@COLOUR_PASS_SWAMP@
  0014d	e8 00 00 00 00	 call	 ?get_system_texture_index@@YGHPBD@Z ; get_system_texture_index
  00152	a3 00 00 00 00	 mov	 DWORD PTR ?terrain_texture_builtup_area3_colour_pass@@3HA, eax

; 2071 : 	terrain_texture_builtup_area4_detail					= get_system_texture_index ( "TERRAIN_THAI_CITY3" );

  00157	68 00 00 00 00	 push	 OFFSET ??_C@_0BD@OIPBJIPC@TERRAIN_THAI_CITY3@
  0015c	e8 00 00 00 00	 call	 ?get_system_texture_index@@YGHPBD@Z ; get_system_texture_index
  00161	a3 00 00 00 00	 mov	 DWORD PTR ?terrain_texture_builtup_area4_detail@@3HA, eax

; 2072 : 	terrain_texture_builtup_area4_colour_pass				= get_system_texture_index ( "COLOUR_PASS_SWAMP" );

  00166	68 00 00 00 00	 push	 OFFSET ??_C@_0BC@GNMAAAJL@COLOUR_PASS_SWAMP@
  0016b	e8 00 00 00 00	 call	 ?get_system_texture_index@@YGHPBD@Z ; get_system_texture_index
  00170	a3 00 00 00 00	 mov	 DWORD PTR ?terrain_texture_builtup_area4_colour_pass@@3HA, eax

; 2073 : 
; 2074 : 	terrain_texture_builtup_area1_infrared_detail		= get_system_texture_index ( "TERRAIN_BW_CITY4" );

  00175	68 00 00 00 00	 push	 OFFSET ??_C@_0BB@IALPPKNP@TERRAIN_BW_CITY4@
  0017a	e8 00 00 00 00	 call	 ?get_system_texture_index@@YGHPBD@Z ; get_system_texture_index
  0017f	a3 00 00 00 00	 mov	 DWORD PTR ?terrain_texture_builtup_area1_infrared_detail@@3HA, eax

; 2075 : 	terrain_texture_builtup_area1_infrared_colour_pass	= 0;

  00184	c7 05 00 00 00
	00 00 00 00 00	 mov	 DWORD PTR ?terrain_texture_builtup_area1_infrared_colour_pass@@3HA, 0

; 2076 : 	terrain_texture_builtup_area2_infrared_detail		= get_system_texture_index ( "TERRAIN_BW_CITY3" );

  0018e	68 00 00 00 00	 push	 OFFSET ??_C@_0BB@MPPOGMBI@TERRAIN_BW_CITY3@
  00193	e8 00 00 00 00	 call	 ?get_system_texture_index@@YGHPBD@Z ; get_system_texture_index
  00198	a3 00 00 00 00	 mov	 DWORD PTR ?terrain_texture_builtup_area2_infrared_detail@@3HA, eax

; 2077 : 	terrain_texture_builtup_area2_infrared_colour_pass	= 0;

  0019d	c7 05 00 00 00
	00 00 00 00 00	 mov	 DWORD PTR ?terrain_texture_builtup_area2_infrared_colour_pass@@3HA, 0

; 2078 : 	terrain_texture_builtup_area3_infrared_detail		= get_system_texture_index ( "TERRAIN_BW_CITY2" );

  001a7	68 00 00 00 00	 push	 OFFSET ??_C@_0BB@NGOFFNFJ@TERRAIN_BW_CITY2@
  001ac	e8 00 00 00 00	 call	 ?get_system_texture_index@@YGHPBD@Z ; get_system_texture_index
  001b1	a3 00 00 00 00	 mov	 DWORD PTR ?terrain_texture_builtup_area3_infrared_detail@@3HA, eax

; 2079 : 	terrain_texture_builtup_area3_infrared_colour_pass	= 0;

  001b6	c7 05 00 00 00
	00 00 00 00 00	 mov	 DWORD PTR ?terrain_texture_builtup_area3_infrared_colour_pass@@3HA, 0

; 2080 : 	terrain_texture_builtup_area4_infrared_detail		= get_system_texture_index ( "TERRAIN_BW_CITY1" );

  001c0	68 00 00 00 00	 push	 OFFSET ??_C@_0BB@PNMIAOJK@TERRAIN_BW_CITY1@
  001c5	e8 00 00 00 00	 call	 ?get_system_texture_index@@YGHPBD@Z ; get_system_texture_index
  001ca	a3 00 00 00 00	 mov	 DWORD PTR ?terrain_texture_builtup_area4_infrared_detail@@3HA, eax

; 2081 : 	terrain_texture_builtup_area4_infrared_colour_pass = 0;

  001cf	c7 05 00 00 00
	00 00 00 00 00	 mov	 DWORD PTR ?terrain_texture_builtup_area4_infrared_colour_pass@@3HA, 0

; 2082 : 	terrain_texture_road_detail								= get_system_texture_index ( "TERRAIN_DETAIL_ROAD" );

  001d9	68 00 00 00 00	 push	 OFFSET ??_C@_0BE@EOMJEIPI@TERRAIN_DETAIL_ROAD@
  001de	e8 00 00 00 00	 call	 ?get_system_texture_index@@YGHPBD@Z ; get_system_texture_index
  001e3	a3 00 00 00 00	 mov	 DWORD PTR ?terrain_texture_road_detail@@3HA, eax

; 2083 : 	terrain_texture_road_colour_pass							= get_system_texture_index ( "COLOUR_PASS_WALL" );      //TERRAIN_THAI_TRACK" );

  001e8	68 00 00 00 00	 push	 OFFSET ??_C@_0BB@OHLOCNHA@COLOUR_PASS_WALL@
  001ed	e8 00 00 00 00	 call	 ?get_system_texture_index@@YGHPBD@Z ; get_system_texture_index
  001f2	a3 00 00 00 00	 mov	 DWORD PTR ?terrain_texture_road_colour_pass@@3HA, eax

; 2084 : 	terrain_texture_track_detail								= get_system_texture_index ( "TERRAIN_DETAIL_ROAD" );

  001f7	68 00 00 00 00	 push	 OFFSET ??_C@_0BE@EOMJEIPI@TERRAIN_DETAIL_ROAD@
  001fc	e8 00 00 00 00	 call	 ?get_system_texture_index@@YGHPBD@Z ; get_system_texture_index
  00201	a3 00 00 00 00	 mov	 DWORD PTR ?terrain_texture_track_detail@@3HA, eax

; 2085 : 	terrain_texture_track_colour_pass						= get_system_texture_index ( "COLOUR_PASS_YEMEN_BAKED2" );

  00206	68 00 00 00 00	 push	 OFFSET ??_C@_0BJ@OILJFHJP@COLOUR_PASS_YEMEN_BAKED2@
  0020b	e8 00 00 00 00	 call	 ?get_system_texture_index@@YGHPBD@Z ; get_system_texture_index
  00210	a3 00 00 00 00	 mov	 DWORD PTR ?terrain_texture_track_colour_pass@@3HA, eax

; 2086 : 	terrain_texture_river_detail								= get_system_texture_index ( "TERRAIN_RIVER" );

  00215	68 00 00 00 00	 push	 OFFSET ??_C@_0O@KOAPGDHE@TERRAIN_RIVER@
  0021a	e8 00 00 00 00	 call	 ?get_system_texture_index@@YGHPBD@Z ; get_system_texture_index
  0021f	a3 00 00 00 00	 mov	 DWORD PTR ?terrain_texture_river_detail@@3HA, eax

; 2087 : 	terrain_texture_river_colour_pass						= get_system_texture_index ( "COLOUR_PASS_SEA_LEBANON" );

  00224	68 00 00 00 00	 push	 OFFSET ??_C@_0BI@EBJMGEFE@COLOUR_PASS_SEA_LEBANON@
  00229	e8 00 00 00 00	 call	 ?get_system_texture_index@@YGHPBD@Z ; get_system_texture_index
  0022e	a3 00 00 00 00	 mov	 DWORD PTR ?terrain_texture_river_colour_pass@@3HA, eax

; 2088 : 	terrain_texture_reservoir_detail							= get_system_texture_index ( "TERRAIN_RIVER" );

  00233	68 00 00 00 00	 push	 OFFSET ??_C@_0O@KOAPGDHE@TERRAIN_RIVER@
  00238	e8 00 00 00 00	 call	 ?get_system_texture_index@@YGHPBD@Z ; get_system_texture_index
  0023d	a3 00 00 00 00	 mov	 DWORD PTR ?terrain_texture_reservoir_detail@@3HA, eax

; 2089 : 	terrain_texture_reservoir_colour_pass					= get_system_texture_index ( "COLOUR_PASS_SEA_LEBANON" );

  00242	68 00 00 00 00	 push	 OFFSET ??_C@_0BI@EBJMGEFE@COLOUR_PASS_SEA_LEBANON@
  00247	e8 00 00 00 00	 call	 ?get_system_texture_index@@YGHPBD@Z ; get_system_texture_index
  0024c	a3 00 00 00 00	 mov	 DWORD PTR ?terrain_texture_reservoir_colour_pass@@3HA, eax

; 2090 : 	terrain_texture_rail_detail								= 0;

  00251	c7 05 00 00 00
	00 00 00 00 00	 mov	 DWORD PTR ?terrain_texture_rail_detail@@3HA, 0

; 2091 : 	terrain_texture_rail_colour_pass							= 0;

  0025b	c7 05 00 00 00
	00 00 00 00 00	 mov	 DWORD PTR ?terrain_texture_rail_colour_pass@@3HA, 0

; 2092 : 	terrain_texture_road_bank_detail							= get_system_texture_index ( "TERRAIN_DETAIL_4" );

  00265	68 00 00 00 00	 push	 OFFSET ??_C@_0BB@BDNEEDDA@TERRAIN_DETAIL_4@
  0026a	e8 00 00 00 00	 call	 ?get_system_texture_index@@YGHPBD@Z ; get_system_texture_index
  0026f	a3 00 00 00 00	 mov	 DWORD PTR ?terrain_texture_road_bank_detail@@3HA, eax

; 2093 : 	terrain_texture_road_bank_colour_pass					= get_system_texture_index ( "COLOUR_PASS_YEMEN_BAKED2" );

  00274	68 00 00 00 00	 push	 OFFSET ??_C@_0BJ@OILJFHJP@COLOUR_PASS_YEMEN_BAKED2@
  00279	e8 00 00 00 00	 call	 ?get_system_texture_index@@YGHPBD@Z ; get_system_texture_index
  0027e	a3 00 00 00 00	 mov	 DWORD PTR ?terrain_texture_road_bank_colour_pass@@3HA, eax

; 2094 : 	terrain_texture_river_bank_detail						= get_system_texture_index ( "TERRAIN_YEMEN_GRITTY" );

  00283	68 00 00 00 00	 push	 OFFSET ??_C@_0BF@MBOPLBDO@TERRAIN_YEMEN_GRITTY@
  00288	e8 00 00 00 00	 call	 ?get_system_texture_index@@YGHPBD@Z ; get_system_texture_index
  0028d	a3 00 00 00 00	 mov	 DWORD PTR ?terrain_texture_river_bank_detail@@3HA, eax

; 2095 : 	terrain_texture_river_bank_colour_pass					= get_system_texture_index ( "COLOUR_PASS_YEMEN_BAKED2" );

  00292	68 00 00 00 00	 push	 OFFSET ??_C@_0BJ@OILJFHJP@COLOUR_PASS_YEMEN_BAKED2@
  00297	e8 00 00 00 00	 call	 ?get_system_texture_index@@YGHPBD@Z ; get_system_texture_index
  0029c	a3 00 00 00 00	 mov	 DWORD PTR ?terrain_texture_river_bank_colour_pass@@3HA, eax

; 2096 : 	terrain_texture_rail_bank_detail							= 0;

  002a1	c7 05 00 00 00
	00 00 00 00 00	 mov	 DWORD PTR ?terrain_texture_rail_bank_detail@@3HA, 0

; 2097 : 	terrain_texture_rail_bank_colour_pass					= 0;

  002ab	c7 05 00 00 00
	00 00 00 00 00	 mov	 DWORD PTR ?terrain_texture_rail_bank_colour_pass@@3HA, 0

; 2098 : 	terrain_texture_field1_detail								= get_system_texture_index ( "TERRAIN_MUSTARDFIELD" );

  002b5	68 00 00 00 00	 push	 OFFSET ??_C@_0BF@GFEKLLKL@TERRAIN_MUSTARDFIELD@
  002ba	e8 00 00 00 00	 call	 ?get_system_texture_index@@YGHPBD@Z ; get_system_texture_index
  002bf	a3 00 00 00 00	 mov	 DWORD PTR ?terrain_texture_field1_detail@@3HA, eax

; 2099 : 	terrain_texture_field1_colour_pass						= get_system_texture_index ( "COLOUR_PASS" );

  002c4	68 00 00 00 00	 push	 OFFSET ??_C@_0M@LDEJELLC@COLOUR_PASS@
  002c9	e8 00 00 00 00	 call	 ?get_system_texture_index@@YGHPBD@Z ; get_system_texture_index
  002ce	a3 00 00 00 00	 mov	 DWORD PTR ?terrain_texture_field1_colour_pass@@3HA, eax

; 2100 : 	terrain_texture_field2_detail								= get_system_texture_index ( "TERRAIN_PLOUGHED1FIELD" );

  002d3	68 00 00 00 00	 push	 OFFSET ??_C@_0BH@JNGNCFED@TERRAIN_PLOUGHED1FIELD@
  002d8	e8 00 00 00 00	 call	 ?get_system_texture_index@@YGHPBD@Z ; get_system_texture_index
  002dd	a3 00 00 00 00	 mov	 DWORD PTR ?terrain_texture_field2_detail@@3HA, eax

; 2101 : 	terrain_texture_field2_colour_pass						= get_system_texture_index ( "COLOUR_PASS" );

  002e2	68 00 00 00 00	 push	 OFFSET ??_C@_0M@LDEJELLC@COLOUR_PASS@
  002e7	e8 00 00 00 00	 call	 ?get_system_texture_index@@YGHPBD@Z ; get_system_texture_index
  002ec	a3 00 00 00 00	 mov	 DWORD PTR ?terrain_texture_field2_colour_pass@@3HA, eax

; 2102 : 	terrain_texture_field3_detail								= get_system_texture_index ( "TERRAIN_PLOUGHED2FIELD" );

  002f1	68 00 00 00 00	 push	 OFFSET ??_C@_0BH@KMIFDPNO@TERRAIN_PLOUGHED2FIELD@
  002f6	e8 00 00 00 00	 call	 ?get_system_texture_index@@YGHPBD@Z ; get_system_texture_index
  002fb	a3 00 00 00 00	 mov	 DWORD PTR ?terrain_texture_field3_detail@@3HA, eax

; 2103 : 	terrain_texture_field3_colour_pass						= get_system_texture_index ( "COLOUR_PASS" );

  00300	68 00 00 00 00	 push	 OFFSET ??_C@_0M@LDEJELLC@COLOUR_PASS@
  00305	e8 00 00 00 00	 call	 ?get_system_texture_index@@YGHPBD@Z ; get_system_texture_index
  0030a	a3 00 00 00 00	 mov	 DWORD PTR ?terrain_texture_field3_colour_pass@@3HA, eax

; 2104 : 	terrain_texture_field4_detail								= get_system_texture_index ( "TERRAIN_CORNFIELD" );

  0030f	68 00 00 00 00	 push	 OFFSET ??_C@_0BC@KJPKDFNB@TERRAIN_CORNFIELD@
  00314	e8 00 00 00 00	 call	 ?get_system_texture_index@@YGHPBD@Z ; get_system_texture_index
  00319	a3 00 00 00 00	 mov	 DWORD PTR ?terrain_texture_field4_detail@@3HA, eax

; 2105 : 	terrain_texture_field4_colour_pass						= get_system_texture_index ( "COLOUR_PASS" );

  0031e	68 00 00 00 00	 push	 OFFSET ??_C@_0M@LDEJELLC@COLOUR_PASS@
  00323	e8 00 00 00 00	 call	 ?get_system_texture_index@@YGHPBD@Z ; get_system_texture_index
  00328	a3 00 00 00 00	 mov	 DWORD PTR ?terrain_texture_field4_colour_pass@@3HA, eax

; 2106 : 	terrain_texture_field5_detail								= get_system_texture_index ( "TERRAIN_WHEATFIELD" );

  0032d	68 00 00 00 00	 push	 OFFSET ??_C@_0BD@DPOGMPFD@TERRAIN_WHEATFIELD@
  00332	e8 00 00 00 00	 call	 ?get_system_texture_index@@YGHPBD@Z ; get_system_texture_index
  00337	a3 00 00 00 00	 mov	 DWORD PTR ?terrain_texture_field5_detail@@3HA, eax

; 2107 : 	terrain_texture_field5_colour_pass						= get_system_texture_index ( "COLOUR_PASS" );

  0033c	68 00 00 00 00	 push	 OFFSET ??_C@_0M@LDEJELLC@COLOUR_PASS@
  00341	e8 00 00 00 00	 call	 ?get_system_texture_index@@YGHPBD@Z ; get_system_texture_index
  00346	a3 00 00 00 00	 mov	 DWORD PTR ?terrain_texture_field5_colour_pass@@3HA, eax

; 2108 : 	terrain_texture_field6_detail								= get_system_texture_index ( "TERRAIN_LIGHTGREENFIELD" );

  0034b	68 00 00 00 00	 push	 OFFSET ??_C@_0BI@KPJCKJLC@TERRAIN_LIGHTGREENFIELD@
  00350	e8 00 00 00 00	 call	 ?get_system_texture_index@@YGHPBD@Z ; get_system_texture_index
  00355	a3 00 00 00 00	 mov	 DWORD PTR ?terrain_texture_field6_detail@@3HA, eax

; 2109 : 	terrain_texture_field6_colour_pass						= get_system_texture_index ( "COLOUR_PASS" );

  0035a	68 00 00 00 00	 push	 OFFSET ??_C@_0M@LDEJELLC@COLOUR_PASS@
  0035f	e8 00 00 00 00	 call	 ?get_system_texture_index@@YGHPBD@Z ; get_system_texture_index
  00364	a3 00 00 00 00	 mov	 DWORD PTR ?terrain_texture_field6_colour_pass@@3HA, eax

; 2110 : 	terrain_texture_field7_detail								= get_system_texture_index ( "TERRAIN_DARKGREENFIELD" );

  00369	68 00 00 00 00	 push	 OFFSET ??_C@_0BH@BEINOGAP@TERRAIN_DARKGREENFIELD@
  0036e	e8 00 00 00 00	 call	 ?get_system_texture_index@@YGHPBD@Z ; get_system_texture_index
  00373	a3 00 00 00 00	 mov	 DWORD PTR ?terrain_texture_field7_detail@@3HA, eax

; 2111 : 	terrain_texture_field7_colour_pass						= get_system_texture_index ( "COLOUR_PASS" );

  00378	68 00 00 00 00	 push	 OFFSET ??_C@_0M@LDEJELLC@COLOUR_PASS@
  0037d	e8 00 00 00 00	 call	 ?get_system_texture_index@@YGHPBD@Z ; get_system_texture_index
  00382	a3 00 00 00 00	 mov	 DWORD PTR ?terrain_texture_field7_colour_pass@@3HA, eax

; 2112 : 	terrain_texture_field8_detail								= get_system_texture_index ( "TERRAIN_MUSTARDFIELD" );

  00387	68 00 00 00 00	 push	 OFFSET ??_C@_0BF@GFEKLLKL@TERRAIN_MUSTARDFIELD@
  0038c	e8 00 00 00 00	 call	 ?get_system_texture_index@@YGHPBD@Z ; get_system_texture_index
  00391	a3 00 00 00 00	 mov	 DWORD PTR ?terrain_texture_field8_detail@@3HA, eax

; 2113 : 	terrain_texture_field8_colour_pass						= get_system_texture_index ( "COLOUR_PASS" );

  00396	68 00 00 00 00	 push	 OFFSET ??_C@_0M@LDEJELLC@COLOUR_PASS@
  0039b	e8 00 00 00 00	 call	 ?get_system_texture_index@@YGHPBD@Z ; get_system_texture_index
  003a0	a3 00 00 00 00	 mov	 DWORD PTR ?terrain_texture_field8_colour_pass@@3HA, eax

; 2114 : 	terrain_texture_field9_detail								= get_system_texture_index ( "TERRAIN_PLOUGHED1FIELD" );

  003a5	68 00 00 00 00	 push	 OFFSET ??_C@_0BH@JNGNCFED@TERRAIN_PLOUGHED1FIELD@
  003aa	e8 00 00 00 00	 call	 ?get_system_texture_index@@YGHPBD@Z ; get_system_texture_index
  003af	a3 00 00 00 00	 mov	 DWORD PTR ?terrain_texture_field9_detail@@3HA, eax

; 2115 : 	terrain_texture_field9_colour_pass						= get_system_texture_index ( "COLOUR_PASS" );

  003b4	68 00 00 00 00	 push	 OFFSET ??_C@_0M@LDEJELLC@COLOUR_PASS@
  003b9	e8 00 00 00 00	 call	 ?get_system_texture_index@@YGHPBD@Z ; get_system_texture_index
  003be	a3 00 00 00 00	 mov	 DWORD PTR ?terrain_texture_field9_colour_pass@@3HA, eax

; 2116 : 	terrain_texture_field10_detail							= get_system_texture_index ( "TERRAIN_PLOUGHED2FIELD" );

  003c3	68 00 00 00 00	 push	 OFFSET ??_C@_0BH@KMIFDPNO@TERRAIN_PLOUGHED2FIELD@
  003c8	e8 00 00 00 00	 call	 ?get_system_texture_index@@YGHPBD@Z ; get_system_texture_index
  003cd	a3 00 00 00 00	 mov	 DWORD PTR ?terrain_texture_field10_detail@@3HA, eax

; 2117 : 	terrain_texture_field10_colour_pass						= get_system_texture_index ( "COLOUR_PASS" );

  003d2	68 00 00 00 00	 push	 OFFSET ??_C@_0M@LDEJELLC@COLOUR_PASS@
  003d7	e8 00 00 00 00	 call	 ?get_system_texture_index@@YGHPBD@Z ; get_system_texture_index
  003dc	a3 00 00 00 00	 mov	 DWORD PTR ?terrain_texture_field10_colour_pass@@3HA, eax

; 2118 : 	terrain_texture_field11_detail							= get_system_texture_index ( "TERRAIN_CORNFIELD" );

  003e1	68 00 00 00 00	 push	 OFFSET ??_C@_0BC@KJPKDFNB@TERRAIN_CORNFIELD@
  003e6	e8 00 00 00 00	 call	 ?get_system_texture_index@@YGHPBD@Z ; get_system_texture_index
  003eb	a3 00 00 00 00	 mov	 DWORD PTR ?terrain_texture_field11_detail@@3HA, eax

; 2119 : 	terrain_texture_field11_colour_pass						= get_system_texture_index ( "COLOUR_PASS" );

  003f0	68 00 00 00 00	 push	 OFFSET ??_C@_0M@LDEJELLC@COLOUR_PASS@
  003f5	e8 00 00 00 00	 call	 ?get_system_texture_index@@YGHPBD@Z ; get_system_texture_index
  003fa	a3 00 00 00 00	 mov	 DWORD PTR ?terrain_texture_field11_colour_pass@@3HA, eax

; 2120 : 	terrain_texture_altered_land1_detail					= get_system_texture_index ( "TERRAIN_YEMEN_BAKED" );

  003ff	68 00 00 00 00	 push	 OFFSET ??_C@_0BE@BGLJBDBC@TERRAIN_YEMEN_BAKED@
  00404	e8 00 00 00 00	 call	 ?get_system_texture_index@@YGHPBD@Z ; get_system_texture_index
  00409	a3 00 00 00 00	 mov	 DWORD PTR ?terrain_texture_altered_land1_detail@@3HA, eax

; 2121 : 	terrain_texture_altered_land1_colour_pass				= get_system_texture_index ( "COLOUR_PASS_SWAMP" );

  0040e	68 00 00 00 00	 push	 OFFSET ??_C@_0BC@GNMAAAJL@COLOUR_PASS_SWAMP@
  00413	e8 00 00 00 00	 call	 ?get_system_texture_index@@YGHPBD@Z ; get_system_texture_index
  00418	a3 00 00 00 00	 mov	 DWORD PTR ?terrain_texture_altered_land1_colour_pass@@3HA, eax

; 2122 : 	terrain_texture_altered_land2_detail					= get_system_texture_index ( "TERRAIN_SCRUB" );

  0041d	68 00 00 00 00	 push	 OFFSET ??_C@_0O@PGGFIOAG@TERRAIN_SCRUB@
  00422	e8 00 00 00 00	 call	 ?get_system_texture_index@@YGHPBD@Z ; get_system_texture_index
  00427	a3 00 00 00 00	 mov	 DWORD PTR ?terrain_texture_altered_land2_detail@@3HA, eax

; 2123 : 	terrain_texture_altered_land2_colour_pass				= get_system_texture_index ( "COLOUR_PASS_SWAMP" );

  0042c	68 00 00 00 00	 push	 OFFSET ??_C@_0BC@GNMAAAJL@COLOUR_PASS_SWAMP@
  00431	e8 00 00 00 00	 call	 ?get_system_texture_index@@YGHPBD@Z ; get_system_texture_index
  00436	a3 00 00 00 00	 mov	 DWORD PTR ?terrain_texture_altered_land2_colour_pass@@3HA, eax

; 2124 : 	terrain_texture_altered_land3_detail					= get_system_texture_index ( "TERRAIN_YEMEN_STONY" );

  0043b	68 00 00 00 00	 push	 OFFSET ??_C@_0BE@KGIMOHE@TERRAIN_YEMEN_STONY@
  00440	e8 00 00 00 00	 call	 ?get_system_texture_index@@YGHPBD@Z ; get_system_texture_index
  00445	a3 00 00 00 00	 mov	 DWORD PTR ?terrain_texture_altered_land3_detail@@3HA, eax

; 2125 : 	terrain_texture_altered_land3_colour_pass				= get_system_texture_index ( "COLOUR_PASS_MOUNTAINS" );

  0044a	68 00 00 00 00	 push	 OFFSET ??_C@_0BG@IGFCFCHF@COLOUR_PASS_MOUNTAINS@
  0044f	e8 00 00 00 00	 call	 ?get_system_texture_index@@YGHPBD@Z ; get_system_texture_index
  00454	a3 00 00 00 00	 mov	 DWORD PTR ?terrain_texture_altered_land3_colour_pass@@3HA, eax

; 2126 : 	terrain_texture_hedge_detail								= get_system_texture_index ( "TERRAIN_YEMEN_STONY" );

  00459	68 00 00 00 00	 push	 OFFSET ??_C@_0BE@KGIMOHE@TERRAIN_YEMEN_STONY@
  0045e	e8 00 00 00 00	 call	 ?get_system_texture_index@@YGHPBD@Z ; get_system_texture_index
  00463	a3 00 00 00 00	 mov	 DWORD PTR ?terrain_texture_hedge_detail@@3HA, eax

; 2127 : 	terrain_texture_hedge_colour_pass						= get_system_texture_index ( "COLOUR_PASS_YEMEN_BAKED2" );

  00468	68 00 00 00 00	 push	 OFFSET ??_C@_0BJ@OILJFHJP@COLOUR_PASS_YEMEN_BAKED2@
  0046d	e8 00 00 00 00	 call	 ?get_system_texture_index@@YGHPBD@Z ; get_system_texture_index
  00472	a3 00 00 00 00	 mov	 DWORD PTR ?terrain_texture_hedge_colour_pass@@3HA, eax

; 2128 : 	terrain_texture_wall_detail								= get_system_texture_index ( "CP_LEBANON_V2_CITY3" );

  00477	68 00 00 00 00	 push	 OFFSET ??_C@_0BE@KBBECJKK@CP_LEBANON_V2_CITY3@
  0047c	e8 00 00 00 00	 call	 ?get_system_texture_index@@YGHPBD@Z ; get_system_texture_index
  00481	a3 00 00 00 00	 mov	 DWORD PTR ?terrain_texture_wall_detail@@3HA, eax

; 2129 : 	terrain_texture_wall_colour_pass							= get_system_texture_index ( "COLOUR_PASS_YEMEN_BAKED2" );

  00486	68 00 00 00 00	 push	 OFFSET ??_C@_0BJ@OILJFHJP@COLOUR_PASS_YEMEN_BAKED2@
  0048b	e8 00 00 00 00	 call	 ?get_system_texture_index@@YGHPBD@Z ; get_system_texture_index
  00490	a3 00 00 00 00	 mov	 DWORD PTR ?terrain_texture_wall_colour_pass@@3HA, eax

; 2130 : 	terrain_texture_trench_detail								= get_system_texture_index ( "TERRAIN_RIVER" );

  00495	68 00 00 00 00	 push	 OFFSET ??_C@_0O@KOAPGDHE@TERRAIN_RIVER@
  0049a	e8 00 00 00 00	 call	 ?get_system_texture_index@@YGHPBD@Z ; get_system_texture_index
  0049f	a3 00 00 00 00	 mov	 DWORD PTR ?terrain_texture_trench_detail@@3HA, eax

; 2131 : 	terrain_texture_trench_colour_pass						= 0;

  004a4	c7 05 00 00 00
	00 00 00 00 00	 mov	 DWORD PTR ?terrain_texture_trench_colour_pass@@3HA, 0

; 2132 : 
; 2133 : 	//VJ 050303 texture colour mod: use texture colour directly instead of brownish haze
; 2134 : 	if (command_line_texture_colour)

  004ae	83 3d 00 00 00
	00 00		 cmp	 DWORD PTR ?command_line_texture_colour@@3HA, 0 ; command_line_texture_colour
  004b5	74 05		 je	 SHORT $LN2@initialise

; 2135 : 		initialise_all_custom_terrain_types ();

  004b7	e8 00 00 00 00	 call	 ?initialise_all_custom_terrain_types@@YGXXZ ; initialise_all_custom_terrain_types
$LN2@initialise:

; 2136 : 
; 2137 : 	// Xhit: the surface types for the various terrain types are set according to the surroundings. (030328)
; 2138 : 	//set surface types for rotor dust
; 2139 : 	//VJ 051224 moved to separate function
; 2140 : 	initialise_surface_types();

  004bc	e8 00 00 00 00	 call	 ?initialise_surface_types@@YGXXZ ; initialise_surface_types

; 2141 : /*
; 2142 : 	terrain_surface_sea										= SURFACE_TYPE_WATER;
; 2143 : 	terrain_surface_beach									= SURFACE_TYPE_SAND;
; 2144 : 	terrain_surface_land										= SURFACE_TYPE_SOIL;
; 2145 : 	terrain_surface_forest									= SURFACE_TYPE_NONE;
; 2146 : 	terrain_surface_builtup_area1							= SURFACE_TYPE_ASPHALT;
; 2147 : 	terrain_surface_builtup_area2							= SURFACE_TYPE_ASPHALT;
; 2148 : 	terrain_surface_builtup_area3							= SURFACE_TYPE_ASPHALT;
; 2149 : 	terrain_surface_builtup_area4							= SURFACE_TYPE_ASPHALT;
; 2150 : 	terrain_surface_builtup_area1_infrared				= SURFACE_TYPE_ASPHALT;
; 2151 : 	terrain_surface_builtup_area2_infrared				= SURFACE_TYPE_ASPHALT;
; 2152 : 	terrain_surface_builtup_area3_infrared				= SURFACE_TYPE_ASPHALT;
; 2153 : 	terrain_surface_builtup_area4_infrared				= SURFACE_TYPE_ASPHALT;
; 2154 : 	terrain_surface_road										= SURFACE_TYPE_ASPHALT;
; 2155 : 	terrain_surface_track									= SURFACE_TYPE_SOIL;
; 2156 : 	terrain_surface_river									= SURFACE_TYPE_WATER;
; 2157 : 	terrain_surface_reservoir								= SURFACE_TYPE_WATER;
; 2158 : 	terrain_surface_rail										= SURFACE_TYPE_SOIL;
; 2159 : 	terrain_surface_road_bank								= SURFACE_TYPE_SOIL;
; 2160 : 	terrain_surface_river_bank								= SURFACE_TYPE_SAND;
; 2161 : 	terrain_surface_rail_bank								= SURFACE_TYPE_SOIL;
; 2162 : 	terrain_surface_field1									= SURFACE_TYPE_FIELD_LIGHTBROWN;
; 2163 : 	terrain_surface_field2									= SURFACE_TYPE_FIELD_DARKBROWN;
; 2164 : 	terrain_surface_field3									= SURFACE_TYPE_FIELD_LIGHTBROWN;
; 2165 : 	terrain_surface_field4									= SURFACE_TYPE_FIELD_LIGHTBROWN;
; 2166 : 	terrain_surface_field5									= SURFACE_TYPE_FIELD_LIGHTBROWN;
; 2167 : 	terrain_surface_field6									= SURFACE_TYPE_SOIL;
; 2168 : 	terrain_surface_field7									= SURFACE_TYPE_SOIL;
; 2169 : 	terrain_surface_field8									= SURFACE_TYPE_FIELD_LIGHTBROWN;
; 2170 : 	terrain_surface_field9									= SURFACE_TYPE_FIELD_LIGHTBROWN;
; 2171 : 	terrain_surface_field10									= SURFACE_TYPE_FIELD_DARKBROWN;
; 2172 : 	terrain_surface_field11									= SURFACE_TYPE_FIELD_LIGHTBROWN;
; 2173 : 	terrain_surface_altered_land1							= SURFACE_TYPE_SOIL;
; 2174 : 	terrain_surface_altered_land2							= SURFACE_TYPE_SOIL;
; 2175 : 	terrain_surface_altered_land3							= SURFACE_TYPE_SOIL;
; 2176 : 	terrain_surface_hedge									= SURFACE_TYPE_SOIL;
; 2177 : 	terrain_surface_wall										= SURFACE_TYPE_ROCK;
; 2178 : 	terrain_surface_trench									= SURFACE_TYPE_WATER;
; 2179 : */
; 2180 : 	set_object_3d_texture_camoflage_by_name ( "DEFAULT" );

  004c1	68 00 00 00 00	 push	 OFFSET ??_C@_07MGCPDNLD@DEFAULT@
  004c6	e8 00 00 00 00	 call	 ?set_object_3d_texture_camoflage_by_name@@YGXPAD@Z ; set_object_3d_texture_camoflage_by_name

; 2181 : 
; 2182 : 	reflection_texture_index = get_system_texture_index ( "ENVIRO_YEMEN_SMALL" );

  004cb	68 00 00 00 00	 push	 OFFSET ??_C@_0BD@MIKAIJBD@ENVIRO_YEMEN_SMALL@
  004d0	e8 00 00 00 00	 call	 ?get_system_texture_index@@YGHPBD@Z ; get_system_texture_index
  004d5	89 45 d8	 mov	 DWORD PTR _reflection_texture_index$[ebp], eax

; 2183 : 
; 2184 : 	if ( reflection_texture_index != -1 )

  004d8	83 7d d8 ff	 cmp	 DWORD PTR _reflection_texture_index$[ebp], -1
  004dc	74 09		 je	 SHORT $LN3@initialise

; 2185 : 	{
; 2186 : 
; 2187 : 		set_object_3d_reflection_texture_map ( reflection_texture_index );

  004de	8b 45 d8	 mov	 eax, DWORD PTR _reflection_texture_index$[ebp]
  004e1	50		 push	 eax
  004e2	e8 00 00 00 00	 call	 ?set_object_3d_reflection_texture_map@@YGXH@Z ; set_object_3d_reflection_texture_map
$LN3@initialise:

; 2188 : 	}
; 2189 : 
; 2190 : 	set_2d_terrain_contour_heights ( sizeof ( contour_heights ) / sizeof ( float ), contour_heights );

  004e7	8d 45 dc	 lea	 eax, DWORD PTR _contour_heights$[ebp]
  004ea	50		 push	 eax
  004eb	6a 09		 push	 9
  004ed	e8 00 00 00 00	 call	 ?set_2d_terrain_contour_heights@@YGXHPAM@Z ; set_2d_terrain_contour_heights

; 2191 : }

  004f2	5f		 pop	 edi
  004f3	5e		 pop	 esi
  004f4	5b		 pop	 ebx
  004f5	8b e5		 mov	 esp, ebp
  004f7	5d		 pop	 ebp
  004f8	c3		 ret	 0
?initialise_3d_taiwan_terrain_types@@YGXXZ ENDP		; initialise_3d_taiwan_terrain_types
_TEXT	ENDS
; Function compile flags: /Odtp /ZI
; File c:\users\nhv90\projects\eech\modules\3d\terrain\terrtype.c
;	COMDAT ?initialise_3d_yemen_terrain_types@@YGXXZ
_TEXT	SEGMENT
_reflection_texture_index$ = -40			; size = 4
_contour_heights$ = -36					; size = 36
?initialise_3d_yemen_terrain_types@@YGXXZ PROC		; initialise_3d_yemen_terrain_types, COMDAT

; 1867 : {

  00000	55		 push	 ebp
  00001	8b ec		 mov	 ebp, esp
  00003	83 ec 68	 sub	 esp, 104		; 00000068H
  00006	53		 push	 ebx
  00007	56		 push	 esi
  00008	57		 push	 edi

; 1868 : 
; 1869 : 	float
; 1870 : 		contour_heights[] =
; 1871 : 		{
; 1872 : 
; 1873 : 			-1000,

  00009	f3 0f 10 05 00
	00 00 00	 movss	 xmm0, DWORD PTR __real@c47a0000
  00011	f3 0f 11 45 dc	 movss	 DWORD PTR _contour_heights$[ebp], xmm0

; 1874 : 			-0.0001,

  00016	f3 0f 10 05 00
	00 00 00	 movss	 xmm0, DWORD PTR __real@b8d1b717
  0001e	f3 0f 11 45 e0	 movss	 DWORD PTR _contour_heights$[ebp+4], xmm0

; 1875 : 			250,

  00023	f3 0f 10 05 00
	00 00 00	 movss	 xmm0, DWORD PTR __real@437a0000
  0002b	f3 0f 11 45 e4	 movss	 DWORD PTR _contour_heights$[ebp+8], xmm0

; 1876 : 			500,

  00030	f3 0f 10 05 00
	00 00 00	 movss	 xmm0, DWORD PTR __real@43fa0000
  00038	f3 0f 11 45 e8	 movss	 DWORD PTR _contour_heights$[ebp+12], xmm0

; 1877 : 			750,

  0003d	f3 0f 10 05 00
	00 00 00	 movss	 xmm0, DWORD PTR __real@443b8000
  00045	f3 0f 11 45 ec	 movss	 DWORD PTR _contour_heights$[ebp+16], xmm0

; 1878 : 			1250,

  0004a	f3 0f 10 05 00
	00 00 00	 movss	 xmm0, DWORD PTR __real@449c4000
  00052	f3 0f 11 45 f0	 movss	 DWORD PTR _contour_heights$[ebp+20], xmm0

; 1879 : 			2000,

  00057	f3 0f 10 05 00
	00 00 00	 movss	 xmm0, DWORD PTR __real@44fa0000
  0005f	f3 0f 11 45 f4	 movss	 DWORD PTR _contour_heights$[ebp+24], xmm0

; 1880 : 			2500,

  00064	f3 0f 10 05 00
	00 00 00	 movss	 xmm0, DWORD PTR __real@451c4000
  0006c	f3 0f 11 45 f8	 movss	 DWORD PTR _contour_heights$[ebp+28], xmm0

; 1881 : 			3000,

  00071	f3 0f 10 05 00
	00 00 00	 movss	 xmm0, DWORD PTR __real@453b8000
  00079	f3 0f 11 45 fc	 movss	 DWORD PTR _contour_heights$[ebp+32], xmm0

; 1882 : 		};
; 1883 : 
; 1884 : 	int
; 1885 : 		reflection_texture_index;
; 1886 : 
; 1887 : 	set_3d_rain_special_snow_flag ( FALSE );

  0007e	6a 00		 push	 0
  00080	e8 00 00 00 00	 call	 ?set_3d_rain_special_snow_flag@@YGXH@Z ; set_3d_rain_special_snow_flag

; 1888 : 	terrain_texture_sea_detail									= get_system_texture_index ( "TERRAIN_SEA_1" );

  00085	68 00 00 00 00	 push	 OFFSET ??_C@_0O@DCAMCMDE@TERRAIN_SEA_1@
  0008a	e8 00 00 00 00	 call	 ?get_system_texture_index@@YGHPBD@Z ; get_system_texture_index
  0008f	a3 00 00 00 00	 mov	 DWORD PTR ?terrain_texture_sea_detail@@3HA, eax

; 1889 : 	terrain_texture_sea_colour_pass							= get_system_texture_index ( "COLOUR_PASS_SEA_LEBANON" );

  00094	68 00 00 00 00	 push	 OFFSET ??_C@_0BI@EBJMGEFE@COLOUR_PASS_SEA_LEBANON@
  00099	e8 00 00 00 00	 call	 ?get_system_texture_index@@YGHPBD@Z ; get_system_texture_index
  0009e	a3 00 00 00 00	 mov	 DWORD PTR ?terrain_texture_sea_colour_pass@@3HA, eax

; 1890 : 	terrain_texture_beach_detail								= get_system_texture_index ( "TERRAIN_BEACH" );

  000a3	68 00 00 00 00	 push	 OFFSET ??_C@_0O@BBEHGFKB@TERRAIN_BEACH@
  000a8	e8 00 00 00 00	 call	 ?get_system_texture_index@@YGHPBD@Z ; get_system_texture_index
  000ad	a3 00 00 00 00	 mov	 DWORD PTR ?terrain_texture_beach_detail@@3HA, eax

; 1891 : 	terrain_texture_beach_colour_pass						= get_system_texture_index ( "COLOUR_PASS_LEBANON" );

  000b2	68 00 00 00 00	 push	 OFFSET ??_C@_0BE@CBPBIHAE@COLOUR_PASS_LEBANON@
  000b7	e8 00 00 00 00	 call	 ?get_system_texture_index@@YGHPBD@Z ; get_system_texture_index
  000bc	a3 00 00 00 00	 mov	 DWORD PTR ?terrain_texture_beach_colour_pass@@3HA, eax

; 1892 : 
; 1893 : 	terrain_texture_land_detail								= get_system_texture_index ( "TERRAIN_YEMEN_GRITTY" );

  000c1	68 00 00 00 00	 push	 OFFSET ??_C@_0BF@MBOPLBDO@TERRAIN_YEMEN_GRITTY@
  000c6	e8 00 00 00 00	 call	 ?get_system_texture_index@@YGHPBD@Z ; get_system_texture_index
  000cb	a3 00 00 00 00	 mov	 DWORD PTR ?terrain_texture_land_detail@@3HA, eax

; 1894 : 	terrain_texture_land_colour_pass							= get_system_texture_index ( "COLOUR_PASS_YEMEN_BAKED2" );

  000d0	68 00 00 00 00	 push	 OFFSET ??_C@_0BJ@OILJFHJP@COLOUR_PASS_YEMEN_BAKED2@
  000d5	e8 00 00 00 00	 call	 ?get_system_texture_index@@YGHPBD@Z ; get_system_texture_index
  000da	a3 00 00 00 00	 mov	 DWORD PTR ?terrain_texture_land_colour_pass@@3HA, eax

; 1895 : 
; 1896 : 	terrain_texture_forest_detail								= get_system_texture_index ( "TERRAIN_BARE_ROCK2" );

  000df	68 00 00 00 00	 push	 OFFSET ??_C@_0BD@BMPINLKM@TERRAIN_BARE_ROCK2@
  000e4	e8 00 00 00 00	 call	 ?get_system_texture_index@@YGHPBD@Z ; get_system_texture_index
  000e9	a3 00 00 00 00	 mov	 DWORD PTR ?terrain_texture_forest_detail@@3HA, eax

; 1897 : 	terrain_texture_forest_colour_pass						= get_system_texture_index ( "COLOUR_PASS_YEMEN_BAKED2" );

  000ee	68 00 00 00 00	 push	 OFFSET ??_C@_0BJ@OILJFHJP@COLOUR_PASS_YEMEN_BAKED2@
  000f3	e8 00 00 00 00	 call	 ?get_system_texture_index@@YGHPBD@Z ; get_system_texture_index
  000f8	a3 00 00 00 00	 mov	 DWORD PTR ?terrain_texture_forest_colour_pass@@3HA, eax

; 1898 : 
; 1899 : 	terrain_texture_builtup_area1_detail					= get_system_texture_index ( "YEMEN_CITY3" );

  000fd	68 00 00 00 00	 push	 OFFSET ??_C@_0M@JLGKMFHJ@YEMEN_CITY3@
  00102	e8 00 00 00 00	 call	 ?get_system_texture_index@@YGHPBD@Z ; get_system_texture_index
  00107	a3 00 00 00 00	 mov	 DWORD PTR ?terrain_texture_builtup_area1_detail@@3HA, eax

; 1900 : 	terrain_texture_builtup_area1_colour_pass				= get_system_texture_index ( "COLOUR_PASS_YEMEN_BAKED2" );

  0010c	68 00 00 00 00	 push	 OFFSET ??_C@_0BJ@OILJFHJP@COLOUR_PASS_YEMEN_BAKED2@
  00111	e8 00 00 00 00	 call	 ?get_system_texture_index@@YGHPBD@Z ; get_system_texture_index
  00116	a3 00 00 00 00	 mov	 DWORD PTR ?terrain_texture_builtup_area1_colour_pass@@3HA, eax

; 1901 : 	terrain_texture_builtup_area2_detail					= get_system_texture_index ( "YEMEN_CITY1" );

  0011b	68 00 00 00 00	 push	 OFFSET ??_C@_0M@KJFMKHPL@YEMEN_CITY1@
  00120	e8 00 00 00 00	 call	 ?get_system_texture_index@@YGHPBD@Z ; get_system_texture_index
  00125	a3 00 00 00 00	 mov	 DWORD PTR ?terrain_texture_builtup_area2_detail@@3HA, eax

; 1902 : 	terrain_texture_builtup_area2_colour_pass				= get_system_texture_index ( "COLOUR_PASS_YEMEN_BAKED2" );

  0012a	68 00 00 00 00	 push	 OFFSET ??_C@_0BJ@OILJFHJP@COLOUR_PASS_YEMEN_BAKED2@
  0012f	e8 00 00 00 00	 call	 ?get_system_texture_index@@YGHPBD@Z ; get_system_texture_index
  00134	a3 00 00 00 00	 mov	 DWORD PTR ?terrain_texture_builtup_area2_colour_pass@@3HA, eax

; 1903 : 	terrain_texture_builtup_area3_detail					= get_system_texture_index ( "YEMEN_CITY1" );

  00139	68 00 00 00 00	 push	 OFFSET ??_C@_0M@KJFMKHPL@YEMEN_CITY1@
  0013e	e8 00 00 00 00	 call	 ?get_system_texture_index@@YGHPBD@Z ; get_system_texture_index
  00143	a3 00 00 00 00	 mov	 DWORD PTR ?terrain_texture_builtup_area3_detail@@3HA, eax

; 1904 : 	terrain_texture_builtup_area3_colour_pass				= get_system_texture_index ( "COLOUR_PASS_YEMEN_BAKED2" );

  00148	68 00 00 00 00	 push	 OFFSET ??_C@_0BJ@OILJFHJP@COLOUR_PASS_YEMEN_BAKED2@
  0014d	e8 00 00 00 00	 call	 ?get_system_texture_index@@YGHPBD@Z ; get_system_texture_index
  00152	a3 00 00 00 00	 mov	 DWORD PTR ?terrain_texture_builtup_area3_colour_pass@@3HA, eax

; 1905 : 	terrain_texture_builtup_area4_detail					= get_system_texture_index ( "YEMEN_CITY1" );

  00157	68 00 00 00 00	 push	 OFFSET ??_C@_0M@KJFMKHPL@YEMEN_CITY1@
  0015c	e8 00 00 00 00	 call	 ?get_system_texture_index@@YGHPBD@Z ; get_system_texture_index
  00161	a3 00 00 00 00	 mov	 DWORD PTR ?terrain_texture_builtup_area4_detail@@3HA, eax

; 1906 : 	terrain_texture_builtup_area4_colour_pass				= get_system_texture_index ( "COLOUR_PASS_YEMEN_BAKED2" );

  00166	68 00 00 00 00	 push	 OFFSET ??_C@_0BJ@OILJFHJP@COLOUR_PASS_YEMEN_BAKED2@
  0016b	e8 00 00 00 00	 call	 ?get_system_texture_index@@YGHPBD@Z ; get_system_texture_index
  00170	a3 00 00 00 00	 mov	 DWORD PTR ?terrain_texture_builtup_area4_colour_pass@@3HA, eax

; 1907 : 
; 1908 : 	terrain_texture_builtup_area1_infrared_detail		= get_system_texture_index ( "TERRAIN_BW_CITY4" );

  00175	68 00 00 00 00	 push	 OFFSET ??_C@_0BB@IALPPKNP@TERRAIN_BW_CITY4@
  0017a	e8 00 00 00 00	 call	 ?get_system_texture_index@@YGHPBD@Z ; get_system_texture_index
  0017f	a3 00 00 00 00	 mov	 DWORD PTR ?terrain_texture_builtup_area1_infrared_detail@@3HA, eax

; 1909 : 	terrain_texture_builtup_area1_infrared_colour_pass	= 0;

  00184	c7 05 00 00 00
	00 00 00 00 00	 mov	 DWORD PTR ?terrain_texture_builtup_area1_infrared_colour_pass@@3HA, 0

; 1910 : 	terrain_texture_builtup_area2_infrared_detail		= get_system_texture_index ( "TERRAIN_BW_CITY3" );

  0018e	68 00 00 00 00	 push	 OFFSET ??_C@_0BB@MPPOGMBI@TERRAIN_BW_CITY3@
  00193	e8 00 00 00 00	 call	 ?get_system_texture_index@@YGHPBD@Z ; get_system_texture_index
  00198	a3 00 00 00 00	 mov	 DWORD PTR ?terrain_texture_builtup_area2_infrared_detail@@3HA, eax

; 1911 : 	terrain_texture_builtup_area2_infrared_colour_pass	= 0;

  0019d	c7 05 00 00 00
	00 00 00 00 00	 mov	 DWORD PTR ?terrain_texture_builtup_area2_infrared_colour_pass@@3HA, 0

; 1912 : 	terrain_texture_builtup_area3_infrared_detail		= get_system_texture_index ( "TERRAIN_BW_CITY2" );

  001a7	68 00 00 00 00	 push	 OFFSET ??_C@_0BB@NGOFFNFJ@TERRAIN_BW_CITY2@
  001ac	e8 00 00 00 00	 call	 ?get_system_texture_index@@YGHPBD@Z ; get_system_texture_index
  001b1	a3 00 00 00 00	 mov	 DWORD PTR ?terrain_texture_builtup_area3_infrared_detail@@3HA, eax

; 1913 : 	terrain_texture_builtup_area3_infrared_colour_pass	= 0;

  001b6	c7 05 00 00 00
	00 00 00 00 00	 mov	 DWORD PTR ?terrain_texture_builtup_area3_infrared_colour_pass@@3HA, 0

; 1914 : 	terrain_texture_builtup_area4_infrared_detail		= get_system_texture_index ( "TERRAIN_BW_CITY1" );

  001c0	68 00 00 00 00	 push	 OFFSET ??_C@_0BB@PNMIAOJK@TERRAIN_BW_CITY1@
  001c5	e8 00 00 00 00	 call	 ?get_system_texture_index@@YGHPBD@Z ; get_system_texture_index
  001ca	a3 00 00 00 00	 mov	 DWORD PTR ?terrain_texture_builtup_area4_infrared_detail@@3HA, eax

; 1915 : 	terrain_texture_builtup_area4_infrared_colour_pass = 0;

  001cf	c7 05 00 00 00
	00 00 00 00 00	 mov	 DWORD PTR ?terrain_texture_builtup_area4_infrared_colour_pass@@3HA, 0

; 1916 : 	terrain_texture_road_detail								= get_system_texture_index ( "TERRAIN_DETAIL_ROAD" );

  001d9	68 00 00 00 00	 push	 OFFSET ??_C@_0BE@EOMJEIPI@TERRAIN_DETAIL_ROAD@
  001de	e8 00 00 00 00	 call	 ?get_system_texture_index@@YGHPBD@Z ; get_system_texture_index
  001e3	a3 00 00 00 00	 mov	 DWORD PTR ?terrain_texture_road_detail@@3HA, eax

; 1917 : 	terrain_texture_road_colour_pass							= get_system_texture_index ( "COLOUR_PASS_WALL" );      //TERRAIN_THAI_TRACK" );

  001e8	68 00 00 00 00	 push	 OFFSET ??_C@_0BB@OHLOCNHA@COLOUR_PASS_WALL@
  001ed	e8 00 00 00 00	 call	 ?get_system_texture_index@@YGHPBD@Z ; get_system_texture_index
  001f2	a3 00 00 00 00	 mov	 DWORD PTR ?terrain_texture_road_colour_pass@@3HA, eax

; 1918 : 	terrain_texture_track_detail								= get_system_texture_index ( "TERRAIN_DETAIL_ROAD" );

  001f7	68 00 00 00 00	 push	 OFFSET ??_C@_0BE@EOMJEIPI@TERRAIN_DETAIL_ROAD@
  001fc	e8 00 00 00 00	 call	 ?get_system_texture_index@@YGHPBD@Z ; get_system_texture_index
  00201	a3 00 00 00 00	 mov	 DWORD PTR ?terrain_texture_track_detail@@3HA, eax

; 1919 : 	terrain_texture_track_colour_pass						= get_system_texture_index ( "COLOUR_PASS_YEMEN_BAKED2" );

  00206	68 00 00 00 00	 push	 OFFSET ??_C@_0BJ@OILJFHJP@COLOUR_PASS_YEMEN_BAKED2@
  0020b	e8 00 00 00 00	 call	 ?get_system_texture_index@@YGHPBD@Z ; get_system_texture_index
  00210	a3 00 00 00 00	 mov	 DWORD PTR ?terrain_texture_track_colour_pass@@3HA, eax

; 1920 : 	terrain_texture_river_detail								= get_system_texture_index ( "TERRAIN_YEMEN_STONY" );

  00215	68 00 00 00 00	 push	 OFFSET ??_C@_0BE@KGIMOHE@TERRAIN_YEMEN_STONY@
  0021a	e8 00 00 00 00	 call	 ?get_system_texture_index@@YGHPBD@Z ; get_system_texture_index
  0021f	a3 00 00 00 00	 mov	 DWORD PTR ?terrain_texture_river_detail@@3HA, eax

; 1921 : 	terrain_texture_river_colour_pass						= get_system_texture_index ( "COLOUR_PASS_YEMEN_BAKED2" );

  00224	68 00 00 00 00	 push	 OFFSET ??_C@_0BJ@OILJFHJP@COLOUR_PASS_YEMEN_BAKED2@
  00229	e8 00 00 00 00	 call	 ?get_system_texture_index@@YGHPBD@Z ; get_system_texture_index
  0022e	a3 00 00 00 00	 mov	 DWORD PTR ?terrain_texture_river_colour_pass@@3HA, eax

; 1922 : 	terrain_texture_reservoir_detail							= get_system_texture_index ( "TERRAIN_YEMEN_GRITTY" );

  00233	68 00 00 00 00	 push	 OFFSET ??_C@_0BF@MBOPLBDO@TERRAIN_YEMEN_GRITTY@
  00238	e8 00 00 00 00	 call	 ?get_system_texture_index@@YGHPBD@Z ; get_system_texture_index
  0023d	a3 00 00 00 00	 mov	 DWORD PTR ?terrain_texture_reservoir_detail@@3HA, eax

; 1923 : 	terrain_texture_reservoir_colour_pass					= get_system_texture_index ( "COLOUR_PASS_YEMEN_BAKED2" );

  00242	68 00 00 00 00	 push	 OFFSET ??_C@_0BJ@OILJFHJP@COLOUR_PASS_YEMEN_BAKED2@
  00247	e8 00 00 00 00	 call	 ?get_system_texture_index@@YGHPBD@Z ; get_system_texture_index
  0024c	a3 00 00 00 00	 mov	 DWORD PTR ?terrain_texture_reservoir_colour_pass@@3HA, eax

; 1924 : 	terrain_texture_rail_detail								= 0;

  00251	c7 05 00 00 00
	00 00 00 00 00	 mov	 DWORD PTR ?terrain_texture_rail_detail@@3HA, 0

; 1925 : 	terrain_texture_rail_colour_pass							= 0;

  0025b	c7 05 00 00 00
	00 00 00 00 00	 mov	 DWORD PTR ?terrain_texture_rail_colour_pass@@3HA, 0

; 1926 : 	terrain_texture_road_bank_detail							= get_system_texture_index ( "TERRAIN_DETAIL_4" );

  00265	68 00 00 00 00	 push	 OFFSET ??_C@_0BB@BDNEEDDA@TERRAIN_DETAIL_4@
  0026a	e8 00 00 00 00	 call	 ?get_system_texture_index@@YGHPBD@Z ; get_system_texture_index
  0026f	a3 00 00 00 00	 mov	 DWORD PTR ?terrain_texture_road_bank_detail@@3HA, eax

; 1927 : 	terrain_texture_road_bank_colour_pass					= get_system_texture_index ( "COLOUR_PASS_YEMEN_BAKED2" );

  00274	68 00 00 00 00	 push	 OFFSET ??_C@_0BJ@OILJFHJP@COLOUR_PASS_YEMEN_BAKED2@
  00279	e8 00 00 00 00	 call	 ?get_system_texture_index@@YGHPBD@Z ; get_system_texture_index
  0027e	a3 00 00 00 00	 mov	 DWORD PTR ?terrain_texture_road_bank_colour_pass@@3HA, eax

; 1928 : 	terrain_texture_river_bank_detail						= get_system_texture_index ( "TERRAIN_YEMEN_GRITTY" );

  00283	68 00 00 00 00	 push	 OFFSET ??_C@_0BF@MBOPLBDO@TERRAIN_YEMEN_GRITTY@
  00288	e8 00 00 00 00	 call	 ?get_system_texture_index@@YGHPBD@Z ; get_system_texture_index
  0028d	a3 00 00 00 00	 mov	 DWORD PTR ?terrain_texture_river_bank_detail@@3HA, eax

; 1929 : 	terrain_texture_river_bank_colour_pass					= get_system_texture_index ( "COLOUR_PASS_YEMEN_BAKED2" );

  00292	68 00 00 00 00	 push	 OFFSET ??_C@_0BJ@OILJFHJP@COLOUR_PASS_YEMEN_BAKED2@
  00297	e8 00 00 00 00	 call	 ?get_system_texture_index@@YGHPBD@Z ; get_system_texture_index
  0029c	a3 00 00 00 00	 mov	 DWORD PTR ?terrain_texture_river_bank_colour_pass@@3HA, eax

; 1930 : 	terrain_texture_rail_bank_detail							= 0;

  002a1	c7 05 00 00 00
	00 00 00 00 00	 mov	 DWORD PTR ?terrain_texture_rail_bank_detail@@3HA, 0

; 1931 : 	terrain_texture_rail_bank_colour_pass					= 0;

  002ab	c7 05 00 00 00
	00 00 00 00 00	 mov	 DWORD PTR ?terrain_texture_rail_bank_colour_pass@@3HA, 0

; 1932 : 	terrain_texture_field1_detail								= get_system_texture_index ( "TERRAIN_MUSTARDFIELD" );

  002b5	68 00 00 00 00	 push	 OFFSET ??_C@_0BF@GFEKLLKL@TERRAIN_MUSTARDFIELD@
  002ba	e8 00 00 00 00	 call	 ?get_system_texture_index@@YGHPBD@Z ; get_system_texture_index
  002bf	a3 00 00 00 00	 mov	 DWORD PTR ?terrain_texture_field1_detail@@3HA, eax

; 1933 : 	terrain_texture_field1_colour_pass						= get_system_texture_index ( "COLOUR_PASS" );

  002c4	68 00 00 00 00	 push	 OFFSET ??_C@_0M@LDEJELLC@COLOUR_PASS@
  002c9	e8 00 00 00 00	 call	 ?get_system_texture_index@@YGHPBD@Z ; get_system_texture_index
  002ce	a3 00 00 00 00	 mov	 DWORD PTR ?terrain_texture_field1_colour_pass@@3HA, eax

; 1934 : 	terrain_texture_field2_detail								= get_system_texture_index ( "TERRAIN_PLOUGHED1FIELD" );

  002d3	68 00 00 00 00	 push	 OFFSET ??_C@_0BH@JNGNCFED@TERRAIN_PLOUGHED1FIELD@
  002d8	e8 00 00 00 00	 call	 ?get_system_texture_index@@YGHPBD@Z ; get_system_texture_index
  002dd	a3 00 00 00 00	 mov	 DWORD PTR ?terrain_texture_field2_detail@@3HA, eax

; 1935 : 	terrain_texture_field2_colour_pass						= get_system_texture_index ( "COLOUR_PASS" );

  002e2	68 00 00 00 00	 push	 OFFSET ??_C@_0M@LDEJELLC@COLOUR_PASS@
  002e7	e8 00 00 00 00	 call	 ?get_system_texture_index@@YGHPBD@Z ; get_system_texture_index
  002ec	a3 00 00 00 00	 mov	 DWORD PTR ?terrain_texture_field2_colour_pass@@3HA, eax

; 1936 : 	terrain_texture_field3_detail								= get_system_texture_index ( "TERRAIN_PLOUGHED2FIELD" );

  002f1	68 00 00 00 00	 push	 OFFSET ??_C@_0BH@KMIFDPNO@TERRAIN_PLOUGHED2FIELD@
  002f6	e8 00 00 00 00	 call	 ?get_system_texture_index@@YGHPBD@Z ; get_system_texture_index
  002fb	a3 00 00 00 00	 mov	 DWORD PTR ?terrain_texture_field3_detail@@3HA, eax

; 1937 : 	terrain_texture_field3_colour_pass						= get_system_texture_index ( "COLOUR_PASS" );

  00300	68 00 00 00 00	 push	 OFFSET ??_C@_0M@LDEJELLC@COLOUR_PASS@
  00305	e8 00 00 00 00	 call	 ?get_system_texture_index@@YGHPBD@Z ; get_system_texture_index
  0030a	a3 00 00 00 00	 mov	 DWORD PTR ?terrain_texture_field3_colour_pass@@3HA, eax

; 1938 : 	terrain_texture_field4_detail								= get_system_texture_index ( "TERRAIN_CORNFIELD" );

  0030f	68 00 00 00 00	 push	 OFFSET ??_C@_0BC@KJPKDFNB@TERRAIN_CORNFIELD@
  00314	e8 00 00 00 00	 call	 ?get_system_texture_index@@YGHPBD@Z ; get_system_texture_index
  00319	a3 00 00 00 00	 mov	 DWORD PTR ?terrain_texture_field4_detail@@3HA, eax

; 1939 : 	terrain_texture_field4_colour_pass						= get_system_texture_index ( "COLOUR_PASS" );

  0031e	68 00 00 00 00	 push	 OFFSET ??_C@_0M@LDEJELLC@COLOUR_PASS@
  00323	e8 00 00 00 00	 call	 ?get_system_texture_index@@YGHPBD@Z ; get_system_texture_index
  00328	a3 00 00 00 00	 mov	 DWORD PTR ?terrain_texture_field4_colour_pass@@3HA, eax

; 1940 : 	terrain_texture_field5_detail								= get_system_texture_index ( "TERRAIN_WHEATFIELD" );

  0032d	68 00 00 00 00	 push	 OFFSET ??_C@_0BD@DPOGMPFD@TERRAIN_WHEATFIELD@
  00332	e8 00 00 00 00	 call	 ?get_system_texture_index@@YGHPBD@Z ; get_system_texture_index
  00337	a3 00 00 00 00	 mov	 DWORD PTR ?terrain_texture_field5_detail@@3HA, eax

; 1941 : 	terrain_texture_field5_colour_pass						= get_system_texture_index ( "COLOUR_PASS" );

  0033c	68 00 00 00 00	 push	 OFFSET ??_C@_0M@LDEJELLC@COLOUR_PASS@
  00341	e8 00 00 00 00	 call	 ?get_system_texture_index@@YGHPBD@Z ; get_system_texture_index
  00346	a3 00 00 00 00	 mov	 DWORD PTR ?terrain_texture_field5_colour_pass@@3HA, eax

; 1942 : 	terrain_texture_field6_detail								= get_system_texture_index ( "TERRAIN_LIGHTGREENFIELD" );

  0034b	68 00 00 00 00	 push	 OFFSET ??_C@_0BI@KPJCKJLC@TERRAIN_LIGHTGREENFIELD@
  00350	e8 00 00 00 00	 call	 ?get_system_texture_index@@YGHPBD@Z ; get_system_texture_index
  00355	a3 00 00 00 00	 mov	 DWORD PTR ?terrain_texture_field6_detail@@3HA, eax

; 1943 : 	terrain_texture_field6_colour_pass						= get_system_texture_index ( "COLOUR_PASS" );

  0035a	68 00 00 00 00	 push	 OFFSET ??_C@_0M@LDEJELLC@COLOUR_PASS@
  0035f	e8 00 00 00 00	 call	 ?get_system_texture_index@@YGHPBD@Z ; get_system_texture_index
  00364	a3 00 00 00 00	 mov	 DWORD PTR ?terrain_texture_field6_colour_pass@@3HA, eax

; 1944 : 	terrain_texture_field7_detail								= get_system_texture_index ( "TERRAIN_DARKGREENFIELD" );

  00369	68 00 00 00 00	 push	 OFFSET ??_C@_0BH@BEINOGAP@TERRAIN_DARKGREENFIELD@
  0036e	e8 00 00 00 00	 call	 ?get_system_texture_index@@YGHPBD@Z ; get_system_texture_index
  00373	a3 00 00 00 00	 mov	 DWORD PTR ?terrain_texture_field7_detail@@3HA, eax

; 1945 : 	terrain_texture_field7_colour_pass						= get_system_texture_index ( "COLOUR_PASS" );

  00378	68 00 00 00 00	 push	 OFFSET ??_C@_0M@LDEJELLC@COLOUR_PASS@
  0037d	e8 00 00 00 00	 call	 ?get_system_texture_index@@YGHPBD@Z ; get_system_texture_index
  00382	a3 00 00 00 00	 mov	 DWORD PTR ?terrain_texture_field7_colour_pass@@3HA, eax

; 1946 : 	terrain_texture_field8_detail								= get_system_texture_index ( "TERRAIN_MUSTARDFIELD" );

  00387	68 00 00 00 00	 push	 OFFSET ??_C@_0BF@GFEKLLKL@TERRAIN_MUSTARDFIELD@
  0038c	e8 00 00 00 00	 call	 ?get_system_texture_index@@YGHPBD@Z ; get_system_texture_index
  00391	a3 00 00 00 00	 mov	 DWORD PTR ?terrain_texture_field8_detail@@3HA, eax

; 1947 : 	terrain_texture_field8_colour_pass						= get_system_texture_index ( "COLOUR_PASS" );

  00396	68 00 00 00 00	 push	 OFFSET ??_C@_0M@LDEJELLC@COLOUR_PASS@
  0039b	e8 00 00 00 00	 call	 ?get_system_texture_index@@YGHPBD@Z ; get_system_texture_index
  003a0	a3 00 00 00 00	 mov	 DWORD PTR ?terrain_texture_field8_colour_pass@@3HA, eax

; 1948 : 	terrain_texture_field9_detail								= get_system_texture_index ( "TERRAIN_PLOUGHED1FIELD" );

  003a5	68 00 00 00 00	 push	 OFFSET ??_C@_0BH@JNGNCFED@TERRAIN_PLOUGHED1FIELD@
  003aa	e8 00 00 00 00	 call	 ?get_system_texture_index@@YGHPBD@Z ; get_system_texture_index
  003af	a3 00 00 00 00	 mov	 DWORD PTR ?terrain_texture_field9_detail@@3HA, eax

; 1949 : 	terrain_texture_field9_colour_pass						= get_system_texture_index ( "COLOUR_PASS" );

  003b4	68 00 00 00 00	 push	 OFFSET ??_C@_0M@LDEJELLC@COLOUR_PASS@
  003b9	e8 00 00 00 00	 call	 ?get_system_texture_index@@YGHPBD@Z ; get_system_texture_index
  003be	a3 00 00 00 00	 mov	 DWORD PTR ?terrain_texture_field9_colour_pass@@3HA, eax

; 1950 : 	terrain_texture_field10_detail							= get_system_texture_index ( "TERRAIN_PLOUGHED2FIELD" );

  003c3	68 00 00 00 00	 push	 OFFSET ??_C@_0BH@KMIFDPNO@TERRAIN_PLOUGHED2FIELD@
  003c8	e8 00 00 00 00	 call	 ?get_system_texture_index@@YGHPBD@Z ; get_system_texture_index
  003cd	a3 00 00 00 00	 mov	 DWORD PTR ?terrain_texture_field10_detail@@3HA, eax

; 1951 : 	terrain_texture_field10_colour_pass						= get_system_texture_index ( "COLOUR_PASS" );

  003d2	68 00 00 00 00	 push	 OFFSET ??_C@_0M@LDEJELLC@COLOUR_PASS@
  003d7	e8 00 00 00 00	 call	 ?get_system_texture_index@@YGHPBD@Z ; get_system_texture_index
  003dc	a3 00 00 00 00	 mov	 DWORD PTR ?terrain_texture_field10_colour_pass@@3HA, eax

; 1952 : 	terrain_texture_field11_detail							= get_system_texture_index ( "TERRAIN_CORNFIELD" );

  003e1	68 00 00 00 00	 push	 OFFSET ??_C@_0BC@KJPKDFNB@TERRAIN_CORNFIELD@
  003e6	e8 00 00 00 00	 call	 ?get_system_texture_index@@YGHPBD@Z ; get_system_texture_index
  003eb	a3 00 00 00 00	 mov	 DWORD PTR ?terrain_texture_field11_detail@@3HA, eax

; 1953 : 	terrain_texture_field11_colour_pass						= get_system_texture_index ( "COLOUR_PASS" );

  003f0	68 00 00 00 00	 push	 OFFSET ??_C@_0M@LDEJELLC@COLOUR_PASS@
  003f5	e8 00 00 00 00	 call	 ?get_system_texture_index@@YGHPBD@Z ; get_system_texture_index
  003fa	a3 00 00 00 00	 mov	 DWORD PTR ?terrain_texture_field11_colour_pass@@3HA, eax

; 1954 : 	terrain_texture_altered_land1_detail					= get_system_texture_index ( "TERRAIN_YEMEN_BAKED" );

  003ff	68 00 00 00 00	 push	 OFFSET ??_C@_0BE@BGLJBDBC@TERRAIN_YEMEN_BAKED@
  00404	e8 00 00 00 00	 call	 ?get_system_texture_index@@YGHPBD@Z ; get_system_texture_index
  00409	a3 00 00 00 00	 mov	 DWORD PTR ?terrain_texture_altered_land1_detail@@3HA, eax

; 1955 : 	terrain_texture_altered_land1_colour_pass				= get_system_texture_index ( "COLOUR_PASS_YEMEN_BAKED2" );

  0040e	68 00 00 00 00	 push	 OFFSET ??_C@_0BJ@OILJFHJP@COLOUR_PASS_YEMEN_BAKED2@
  00413	e8 00 00 00 00	 call	 ?get_system_texture_index@@YGHPBD@Z ; get_system_texture_index
  00418	a3 00 00 00 00	 mov	 DWORD PTR ?terrain_texture_altered_land1_colour_pass@@3HA, eax

; 1956 : 	terrain_texture_altered_land2_detail					= get_system_texture_index ( "TERRAIN_YEMEN_STONY" );

  0041d	68 00 00 00 00	 push	 OFFSET ??_C@_0BE@KGIMOHE@TERRAIN_YEMEN_STONY@
  00422	e8 00 00 00 00	 call	 ?get_system_texture_index@@YGHPBD@Z ; get_system_texture_index
  00427	a3 00 00 00 00	 mov	 DWORD PTR ?terrain_texture_altered_land2_detail@@3HA, eax

; 1957 : 	terrain_texture_altered_land2_colour_pass				= get_system_texture_index ( "COLOUR_PASS_YEMEN_BAKED2" );

  0042c	68 00 00 00 00	 push	 OFFSET ??_C@_0BJ@OILJFHJP@COLOUR_PASS_YEMEN_BAKED2@
  00431	e8 00 00 00 00	 call	 ?get_system_texture_index@@YGHPBD@Z ; get_system_texture_index
  00436	a3 00 00 00 00	 mov	 DWORD PTR ?terrain_texture_altered_land2_colour_pass@@3HA, eax

; 1958 : 	terrain_texture_altered_land3_detail					= get_system_texture_index ( "TERRAIN_YEMEN_LUNAR" );

  0043b	68 00 00 00 00	 push	 OFFSET ??_C@_0BE@JFJMKOBJ@TERRAIN_YEMEN_LUNAR@
  00440	e8 00 00 00 00	 call	 ?get_system_texture_index@@YGHPBD@Z ; get_system_texture_index
  00445	a3 00 00 00 00	 mov	 DWORD PTR ?terrain_texture_altered_land3_detail@@3HA, eax

; 1959 : 	terrain_texture_altered_land3_colour_pass				= get_system_texture_index ( "COLOUR_PASS_YEMEN_BAKED2" );

  0044a	68 00 00 00 00	 push	 OFFSET ??_C@_0BJ@OILJFHJP@COLOUR_PASS_YEMEN_BAKED2@
  0044f	e8 00 00 00 00	 call	 ?get_system_texture_index@@YGHPBD@Z ; get_system_texture_index
  00454	a3 00 00 00 00	 mov	 DWORD PTR ?terrain_texture_altered_land3_colour_pass@@3HA, eax

; 1960 : 	terrain_texture_hedge_detail								= get_system_texture_index ( "TERRAIN_YEMEN_STONY" );

  00459	68 00 00 00 00	 push	 OFFSET ??_C@_0BE@KGIMOHE@TERRAIN_YEMEN_STONY@
  0045e	e8 00 00 00 00	 call	 ?get_system_texture_index@@YGHPBD@Z ; get_system_texture_index
  00463	a3 00 00 00 00	 mov	 DWORD PTR ?terrain_texture_hedge_detail@@3HA, eax

; 1961 : 	terrain_texture_hedge_colour_pass						= get_system_texture_index ( "COLOUR_PASS_YEMEN_BAKED2" );

  00468	68 00 00 00 00	 push	 OFFSET ??_C@_0BJ@OILJFHJP@COLOUR_PASS_YEMEN_BAKED2@
  0046d	e8 00 00 00 00	 call	 ?get_system_texture_index@@YGHPBD@Z ; get_system_texture_index
  00472	a3 00 00 00 00	 mov	 DWORD PTR ?terrain_texture_hedge_colour_pass@@3HA, eax

; 1962 : 	terrain_texture_wall_detail								= get_system_texture_index ( "COLOUR_PASS_YEMEN_BAKED2" );

  00477	68 00 00 00 00	 push	 OFFSET ??_C@_0BJ@OILJFHJP@COLOUR_PASS_YEMEN_BAKED2@
  0047c	e8 00 00 00 00	 call	 ?get_system_texture_index@@YGHPBD@Z ; get_system_texture_index
  00481	a3 00 00 00 00	 mov	 DWORD PTR ?terrain_texture_wall_detail@@3HA, eax

; 1963 : 	terrain_texture_wall_colour_pass							= get_system_texture_index ( "COLOUR_PASS_YEMEN_BAKED2" );

  00486	68 00 00 00 00	 push	 OFFSET ??_C@_0BJ@OILJFHJP@COLOUR_PASS_YEMEN_BAKED2@
  0048b	e8 00 00 00 00	 call	 ?get_system_texture_index@@YGHPBD@Z ; get_system_texture_index
  00490	a3 00 00 00 00	 mov	 DWORD PTR ?terrain_texture_wall_colour_pass@@3HA, eax

; 1964 : 	terrain_texture_trench_detail								= get_system_texture_index ( "TERRAIN_RIVER" );

  00495	68 00 00 00 00	 push	 OFFSET ??_C@_0O@KOAPGDHE@TERRAIN_RIVER@
  0049a	e8 00 00 00 00	 call	 ?get_system_texture_index@@YGHPBD@Z ; get_system_texture_index
  0049f	a3 00 00 00 00	 mov	 DWORD PTR ?terrain_texture_trench_detail@@3HA, eax

; 1965 : 	terrain_texture_trench_colour_pass						= 0;

  004a4	c7 05 00 00 00
	00 00 00 00 00	 mov	 DWORD PTR ?terrain_texture_trench_colour_pass@@3HA, 0

; 1966 : 
; 1967 : 	//VJ 050303 texture colour mod: use texture colour directly instead of brownish haze
; 1968 : 	if (command_line_texture_colour)

  004ae	83 3d 00 00 00
	00 00		 cmp	 DWORD PTR ?command_line_texture_colour@@3HA, 0 ; command_line_texture_colour
  004b5	74 05		 je	 SHORT $LN2@initialise

; 1969 : 		initialise_all_custom_terrain_types ();

  004b7	e8 00 00 00 00	 call	 ?initialise_all_custom_terrain_types@@YGXXZ ; initialise_all_custom_terrain_types
$LN2@initialise:

; 1970 : 
; 1971 : 	// Xhit: the surface types for the various terrain types are set according to the surroundings. (030328)
; 1972 : 	//set surface types for rotor dust
; 1973 : 	//VJ 051224 moved to separate function
; 1974 : 	initialise_surface_types();

  004bc	e8 00 00 00 00	 call	 ?initialise_surface_types@@YGXXZ ; initialise_surface_types

; 1975 : /*
; 1976 : 	terrain_surface_sea										= SURFACE_TYPE_WATER;
; 1977 : 	terrain_surface_beach									= SURFACE_TYPE_SAND;
; 1978 : 	terrain_surface_land										= SURFACE_TYPE_SAND;
; 1979 : 	terrain_surface_forest									= SURFACE_TYPE_NONE;
; 1980 : 	terrain_surface_builtup_area1							= SURFACE_TYPE_SAND;
; 1981 : 	terrain_surface_builtup_area2							= SURFACE_TYPE_SAND;
; 1982 : 	terrain_surface_builtup_area3							= SURFACE_TYPE_SAND;
; 1983 : 	terrain_surface_builtup_area4							= SURFACE_TYPE_SAND;
; 1984 : 	terrain_surface_builtup_area1_infrared				= SURFACE_TYPE_SAND;
; 1985 : 	terrain_surface_builtup_area2_infrared				= SURFACE_TYPE_SAND;
; 1986 : 	terrain_surface_builtup_area3_infrared				= SURFACE_TYPE_SAND;
; 1987 : 	terrain_surface_builtup_area4_infrared				= SURFACE_TYPE_SAND;
; 1988 : 	terrain_surface_road										= SURFACE_TYPE_SAND;
; 1989 : 	terrain_surface_track									= SURFACE_TYPE_SAND;
; 1990 : 	terrain_surface_river									= SURFACE_TYPE_WATER;
; 1991 : 	terrain_surface_reservoir								= SURFACE_TYPE_WATER;
; 1992 : 	terrain_surface_rail										= SURFACE_TYPE_SAND;
; 1993 : 	terrain_surface_road_bank								= SURFACE_TYPE_SAND;
; 1994 : 	terrain_surface_river_bank								= SURFACE_TYPE_SAND;
; 1995 : 	terrain_surface_rail_bank								= SURFACE_TYPE_SAND;
; 1996 : 	terrain_surface_field1									= SURFACE_TYPE_SAND;
; 1997 : 	terrain_surface_field2									= SURFACE_TYPE_SAND;
; 1998 : 	terrain_surface_field3									= SURFACE_TYPE_SAND;
; 1999 : 	terrain_surface_field4									= SURFACE_TYPE_SAND;
; 2000 : 	terrain_surface_field5									= SURFACE_TYPE_SAND;
; 2001 : 	terrain_surface_field6									= SURFACE_TYPE_SAND;
; 2002 : 	terrain_surface_field7									= SURFACE_TYPE_SAND;
; 2003 : 	terrain_surface_field8									= SURFACE_TYPE_SAND;
; 2004 : 	terrain_surface_field9									= SURFACE_TYPE_SAND;
; 2005 : 	terrain_surface_field10									= SURFACE_TYPE_SAND;
; 2006 : 	terrain_surface_field11									= SURFACE_TYPE_SAND;
; 2007 : 	terrain_surface_altered_land1							= SURFACE_TYPE_SAND;
; 2008 : 	terrain_surface_altered_land2							= SURFACE_TYPE_SAND;
; 2009 : 	terrain_surface_altered_land3							= SURFACE_TYPE_SNOW;
; 2010 : 	terrain_surface_hedge									= SURFACE_TYPE_SAND;
; 2011 : 	terrain_surface_wall										= SURFACE_TYPE_SAND;
; 2012 : 	terrain_surface_trench									= SURFACE_TYPE_WATER;
; 2013 : */
; 2014 : 	set_object_3d_texture_camoflage_by_name ( "DESERT" );

  004c1	68 00 00 00 00	 push	 OFFSET ??_C@_06OPNEJFKO@DESERT@
  004c6	e8 00 00 00 00	 call	 ?set_object_3d_texture_camoflage_by_name@@YGXPAD@Z ; set_object_3d_texture_camoflage_by_name

; 2015 : 
; 2016 : 	reflection_texture_index = get_system_texture_index ( "ENVIRO_YEMEN_SMALL" );

  004cb	68 00 00 00 00	 push	 OFFSET ??_C@_0BD@MIKAIJBD@ENVIRO_YEMEN_SMALL@
  004d0	e8 00 00 00 00	 call	 ?get_system_texture_index@@YGHPBD@Z ; get_system_texture_index
  004d5	89 45 d8	 mov	 DWORD PTR _reflection_texture_index$[ebp], eax

; 2017 : 
; 2018 : 	if ( reflection_texture_index != -1 )

  004d8	83 7d d8 ff	 cmp	 DWORD PTR _reflection_texture_index$[ebp], -1
  004dc	74 09		 je	 SHORT $LN3@initialise

; 2019 : 	{
; 2020 : 
; 2021 : 		set_object_3d_reflection_texture_map ( reflection_texture_index );

  004de	8b 45 d8	 mov	 eax, DWORD PTR _reflection_texture_index$[ebp]
  004e1	50		 push	 eax
  004e2	e8 00 00 00 00	 call	 ?set_object_3d_reflection_texture_map@@YGXH@Z ; set_object_3d_reflection_texture_map
$LN3@initialise:

; 2022 : 	}
; 2023 : 
; 2024 : 	set_2d_terrain_contour_heights ( sizeof ( contour_heights ) / sizeof ( float ), contour_heights );

  004e7	8d 45 dc	 lea	 eax, DWORD PTR _contour_heights$[ebp]
  004ea	50		 push	 eax
  004eb	6a 09		 push	 9
  004ed	e8 00 00 00 00	 call	 ?set_2d_terrain_contour_heights@@YGXHPAM@Z ; set_2d_terrain_contour_heights

; 2025 : }

  004f2	5f		 pop	 edi
  004f3	5e		 pop	 esi
  004f4	5b		 pop	 ebx
  004f5	8b e5		 mov	 esp, ebp
  004f7	5d		 pop	 ebp
  004f8	c3		 ret	 0
?initialise_3d_yemen_terrain_types@@YGXXZ ENDP		; initialise_3d_yemen_terrain_types
_TEXT	ENDS
; Function compile flags: /Odtp /ZI
; File c:\users\nhv90\projects\eech\modules\3d\terrain\terrtype.c
;	COMDAT ?initialise_3d_thailand_terrain_types@@YGXXZ
_TEXT	SEGMENT
_reflection_texture_index$ = -40			; size = 4
_contour_heights$ = -36					; size = 36
?initialise_3d_thailand_terrain_types@@YGXXZ PROC	; initialise_3d_thailand_terrain_types, COMDAT

; 1205 : {

  00000	55		 push	 ebp
  00001	8b ec		 mov	 ebp, esp
  00003	83 ec 68	 sub	 esp, 104		; 00000068H
  00006	53		 push	 ebx
  00007	56		 push	 esi
  00008	57		 push	 edi

; 1206 : 
; 1207 : 	float
; 1208 : 		contour_heights[] =
; 1209 : 		{
; 1210 : 
; 1211 : 			-1000,

  00009	f3 0f 10 05 00
	00 00 00	 movss	 xmm0, DWORD PTR __real@c47a0000
  00011	f3 0f 11 45 dc	 movss	 DWORD PTR _contour_heights$[ebp], xmm0

; 1212 : 			-0.0001,

  00016	f3 0f 10 05 00
	00 00 00	 movss	 xmm0, DWORD PTR __real@b8d1b717
  0001e	f3 0f 11 45 e0	 movss	 DWORD PTR _contour_heights$[ebp+4], xmm0

; 1213 : 			250,

  00023	f3 0f 10 05 00
	00 00 00	 movss	 xmm0, DWORD PTR __real@437a0000
  0002b	f3 0f 11 45 e4	 movss	 DWORD PTR _contour_heights$[ebp+8], xmm0

; 1214 : 			500,

  00030	f3 0f 10 05 00
	00 00 00	 movss	 xmm0, DWORD PTR __real@43fa0000
  00038	f3 0f 11 45 e8	 movss	 DWORD PTR _contour_heights$[ebp+12], xmm0

; 1215 : 			750,

  0003d	f3 0f 10 05 00
	00 00 00	 movss	 xmm0, DWORD PTR __real@443b8000
  00045	f3 0f 11 45 ec	 movss	 DWORD PTR _contour_heights$[ebp+16], xmm0

; 1216 : 			1000,

  0004a	f3 0f 10 05 00
	00 00 00	 movss	 xmm0, DWORD PTR __real@447a0000
  00052	f3 0f 11 45 f0	 movss	 DWORD PTR _contour_heights$[ebp+20], xmm0

; 1217 : 			1500,

  00057	f3 0f 10 05 00
	00 00 00	 movss	 xmm0, DWORD PTR __real@44bb8000
  0005f	f3 0f 11 45 f4	 movss	 DWORD PTR _contour_heights$[ebp+24], xmm0

; 1218 : 			2200,

  00064	f3 0f 10 05 00
	00 00 00	 movss	 xmm0, DWORD PTR __real@45098000
  0006c	f3 0f 11 45 f8	 movss	 DWORD PTR _contour_heights$[ebp+28], xmm0

; 1219 : 			3000,

  00071	f3 0f 10 05 00
	00 00 00	 movss	 xmm0, DWORD PTR __real@453b8000
  00079	f3 0f 11 45 fc	 movss	 DWORD PTR _contour_heights$[ebp+32], xmm0

; 1220 : 		};
; 1221 : 
; 1222 : 	int
; 1223 : 		reflection_texture_index;
; 1224 : 
; 1225 : 	//
; 1226 : 	// Don't allow snowing effect in thailand
; 1227 : 	//
; 1228 : 
; 1229 : 	set_3d_rain_special_snow_flag ( FALSE );

  0007e	6a 00		 push	 0
  00080	e8 00 00 00 00	 call	 ?set_3d_rain_special_snow_flag@@YGXH@Z ; set_3d_rain_special_snow_flag

; 1230 : 
; 1231 : 	terrain_texture_sea_detail								= get_system_texture_index ( "TERRAIN_SEA_1" );

  00085	68 00 00 00 00	 push	 OFFSET ??_C@_0O@DCAMCMDE@TERRAIN_SEA_1@
  0008a	e8 00 00 00 00	 call	 ?get_system_texture_index@@YGHPBD@Z ; get_system_texture_index
  0008f	a3 00 00 00 00	 mov	 DWORD PTR ?terrain_texture_sea_detail@@3HA, eax

; 1232 : 	terrain_texture_sea_colour_pass							= get_system_texture_index ( "COLOUR_PASS_SEA" );

  00094	68 00 00 00 00	 push	 OFFSET ??_C@_0BA@EEKPDLHD@COLOUR_PASS_SEA@
  00099	e8 00 00 00 00	 call	 ?get_system_texture_index@@YGHPBD@Z ; get_system_texture_index
  0009e	a3 00 00 00 00	 mov	 DWORD PTR ?terrain_texture_sea_colour_pass@@3HA, eax

; 1233 : 	terrain_texture_beach_detail							= get_system_texture_index ( "TERRAIN_BEACH" );

  000a3	68 00 00 00 00	 push	 OFFSET ??_C@_0O@BBEHGFKB@TERRAIN_BEACH@
  000a8	e8 00 00 00 00	 call	 ?get_system_texture_index@@YGHPBD@Z ; get_system_texture_index
  000ad	a3 00 00 00 00	 mov	 DWORD PTR ?terrain_texture_beach_detail@@3HA, eax

; 1234 : 	terrain_texture_beach_colour_pass						= get_system_texture_index ( "COLOUR_PASS" );

  000b2	68 00 00 00 00	 push	 OFFSET ??_C@_0M@LDEJELLC@COLOUR_PASS@
  000b7	e8 00 00 00 00	 call	 ?get_system_texture_index@@YGHPBD@Z ; get_system_texture_index
  000bc	a3 00 00 00 00	 mov	 DWORD PTR ?terrain_texture_beach_colour_pass@@3HA, eax

; 1235 : 	terrain_texture_land_detail								= get_system_texture_index ( "TERRAIN_DETAIL_4" );

  000c1	68 00 00 00 00	 push	 OFFSET ??_C@_0BB@BDNEEDDA@TERRAIN_DETAIL_4@
  000c6	e8 00 00 00 00	 call	 ?get_system_texture_index@@YGHPBD@Z ; get_system_texture_index
  000cb	a3 00 00 00 00	 mov	 DWORD PTR ?terrain_texture_land_detail@@3HA, eax

; 1236 : 	terrain_texture_land_colour_pass						= get_system_texture_index ( "CH_TERRAIN_CP1" );

  000d0	68 00 00 00 00	 push	 OFFSET ??_C@_0P@EOGCBCMK@CH_TERRAIN_CP1@
  000d5	e8 00 00 00 00	 call	 ?get_system_texture_index@@YGHPBD@Z ; get_system_texture_index
  000da	a3 00 00 00 00	 mov	 DWORD PTR ?terrain_texture_land_colour_pass@@3HA, eax

; 1237 : 	terrain_texture_forest_detail							= get_system_texture_index ( "TERRAIN_TREE_CANOPY_1" );

  000df	68 00 00 00 00	 push	 OFFSET ??_C@_0BG@EOMIBGLD@TERRAIN_TREE_CANOPY_1@
  000e4	e8 00 00 00 00	 call	 ?get_system_texture_index@@YGHPBD@Z ; get_system_texture_index
  000e9	a3 00 00 00 00	 mov	 DWORD PTR ?terrain_texture_forest_detail@@3HA, eax

; 1238 : 	terrain_texture_forest_colour_pass						= 0;

  000ee	c7 05 00 00 00
	00 00 00 00 00	 mov	 DWORD PTR ?terrain_texture_forest_colour_pass@@3HA, 0

; 1239 : 	terrain_texture_builtup_area1_detail					= get_system_texture_index ( "TERRAIN_THAI_CITY4" );

  000f8	68 00 00 00 00	 push	 OFFSET ??_C@_0BD@KHLAAODF@TERRAIN_THAI_CITY4@
  000fd	e8 00 00 00 00	 call	 ?get_system_texture_index@@YGHPBD@Z ; get_system_texture_index
  00102	a3 00 00 00 00	 mov	 DWORD PTR ?terrain_texture_builtup_area1_detail@@3HA, eax

; 1240 : 	terrain_texture_builtup_area1_colour_pass				= get_system_texture_index ( "COLOUR_PASS" );

  00107	68 00 00 00 00	 push	 OFFSET ??_C@_0M@LDEJELLC@COLOUR_PASS@
  0010c	e8 00 00 00 00	 call	 ?get_system_texture_index@@YGHPBD@Z ; get_system_texture_index
  00111	a3 00 00 00 00	 mov	 DWORD PTR ?terrain_texture_builtup_area1_colour_pass@@3HA, eax

; 1241 : 	terrain_texture_builtup_area2_detail					= get_system_texture_index ( "TERRAIN_THAI_CITY3" );

  00116	68 00 00 00 00	 push	 OFFSET ??_C@_0BD@OIPBJIPC@TERRAIN_THAI_CITY3@
  0011b	e8 00 00 00 00	 call	 ?get_system_texture_index@@YGHPBD@Z ; get_system_texture_index
  00120	a3 00 00 00 00	 mov	 DWORD PTR ?terrain_texture_builtup_area2_detail@@3HA, eax

; 1242 : 	terrain_texture_builtup_area2_colour_pass				= get_system_texture_index ( "COLOUR_PASS" );

  00125	68 00 00 00 00	 push	 OFFSET ??_C@_0M@LDEJELLC@COLOUR_PASS@
  0012a	e8 00 00 00 00	 call	 ?get_system_texture_index@@YGHPBD@Z ; get_system_texture_index
  0012f	a3 00 00 00 00	 mov	 DWORD PTR ?terrain_texture_builtup_area2_colour_pass@@3HA, eax

; 1243 : 	terrain_texture_builtup_area3_detail					= get_system_texture_index ( "TERRAIN_THAI_CITY2" );

  00134	68 00 00 00 00	 push	 OFFSET ??_C@_0BD@PBOKKJLD@TERRAIN_THAI_CITY2@
  00139	e8 00 00 00 00	 call	 ?get_system_texture_index@@YGHPBD@Z ; get_system_texture_index
  0013e	a3 00 00 00 00	 mov	 DWORD PTR ?terrain_texture_builtup_area3_detail@@3HA, eax

; 1244 : 	terrain_texture_builtup_area3_colour_pass				= get_system_texture_index ( "COLOUR_PASS" );

  00143	68 00 00 00 00	 push	 OFFSET ??_C@_0M@LDEJELLC@COLOUR_PASS@
  00148	e8 00 00 00 00	 call	 ?get_system_texture_index@@YGHPBD@Z ; get_system_texture_index
  0014d	a3 00 00 00 00	 mov	 DWORD PTR ?terrain_texture_builtup_area3_colour_pass@@3HA, eax

; 1245 : 	terrain_texture_builtup_area4_detail					= get_system_texture_index ( "TERRAIN_THAI_CITY1" );

  00152	68 00 00 00 00	 push	 OFFSET ??_C@_0BD@NKMHPKHA@TERRAIN_THAI_CITY1@
  00157	e8 00 00 00 00	 call	 ?get_system_texture_index@@YGHPBD@Z ; get_system_texture_index
  0015c	a3 00 00 00 00	 mov	 DWORD PTR ?terrain_texture_builtup_area4_detail@@3HA, eax

; 1246 : 	terrain_texture_builtup_area4_colour_pass				= get_system_texture_index ( "COLOUR_PASS" );

  00161	68 00 00 00 00	 push	 OFFSET ??_C@_0M@LDEJELLC@COLOUR_PASS@
  00166	e8 00 00 00 00	 call	 ?get_system_texture_index@@YGHPBD@Z ; get_system_texture_index
  0016b	a3 00 00 00 00	 mov	 DWORD PTR ?terrain_texture_builtup_area4_colour_pass@@3HA, eax

; 1247 : 	terrain_texture_builtup_area1_infrared_detail			= get_system_texture_index ( "TERRAIN_BW_CITY4" );

  00170	68 00 00 00 00	 push	 OFFSET ??_C@_0BB@IALPPKNP@TERRAIN_BW_CITY4@
  00175	e8 00 00 00 00	 call	 ?get_system_texture_index@@YGHPBD@Z ; get_system_texture_index
  0017a	a3 00 00 00 00	 mov	 DWORD PTR ?terrain_texture_builtup_area1_infrared_detail@@3HA, eax

; 1248 : 	terrain_texture_builtup_area1_infrared_colour_pass		= get_system_texture_index ( "COLOUR_PASS" );

  0017f	68 00 00 00 00	 push	 OFFSET ??_C@_0M@LDEJELLC@COLOUR_PASS@
  00184	e8 00 00 00 00	 call	 ?get_system_texture_index@@YGHPBD@Z ; get_system_texture_index
  00189	a3 00 00 00 00	 mov	 DWORD PTR ?terrain_texture_builtup_area1_infrared_colour_pass@@3HA, eax

; 1249 : 	terrain_texture_builtup_area2_infrared_detail			= get_system_texture_index ( "TERRAIN_BW_CITY3" );

  0018e	68 00 00 00 00	 push	 OFFSET ??_C@_0BB@MPPOGMBI@TERRAIN_BW_CITY3@
  00193	e8 00 00 00 00	 call	 ?get_system_texture_index@@YGHPBD@Z ; get_system_texture_index
  00198	a3 00 00 00 00	 mov	 DWORD PTR ?terrain_texture_builtup_area2_infrared_detail@@3HA, eax

; 1250 : 	terrain_texture_builtup_area2_infrared_colour_pass		= get_system_texture_index ( "COLOUR_PASS" );

  0019d	68 00 00 00 00	 push	 OFFSET ??_C@_0M@LDEJELLC@COLOUR_PASS@
  001a2	e8 00 00 00 00	 call	 ?get_system_texture_index@@YGHPBD@Z ; get_system_texture_index
  001a7	a3 00 00 00 00	 mov	 DWORD PTR ?terrain_texture_builtup_area2_infrared_colour_pass@@3HA, eax

; 1251 : 	terrain_texture_builtup_area3_infrared_detail			= get_system_texture_index ( "TERRAIN_BW_CITY2" );

  001ac	68 00 00 00 00	 push	 OFFSET ??_C@_0BB@NGOFFNFJ@TERRAIN_BW_CITY2@
  001b1	e8 00 00 00 00	 call	 ?get_system_texture_index@@YGHPBD@Z ; get_system_texture_index
  001b6	a3 00 00 00 00	 mov	 DWORD PTR ?terrain_texture_builtup_area3_infrared_detail@@3HA, eax

; 1252 : 	terrain_texture_builtup_area3_infrared_colour_pass		= get_system_texture_index ( "COLOUR_PASS" );

  001bb	68 00 00 00 00	 push	 OFFSET ??_C@_0M@LDEJELLC@COLOUR_PASS@
  001c0	e8 00 00 00 00	 call	 ?get_system_texture_index@@YGHPBD@Z ; get_system_texture_index
  001c5	a3 00 00 00 00	 mov	 DWORD PTR ?terrain_texture_builtup_area3_infrared_colour_pass@@3HA, eax

; 1253 : 	terrain_texture_builtup_area4_infrared_detail			= get_system_texture_index ( "TERRAIN_BW_CITY1" );

  001ca	68 00 00 00 00	 push	 OFFSET ??_C@_0BB@PNMIAOJK@TERRAIN_BW_CITY1@
  001cf	e8 00 00 00 00	 call	 ?get_system_texture_index@@YGHPBD@Z ; get_system_texture_index
  001d4	a3 00 00 00 00	 mov	 DWORD PTR ?terrain_texture_builtup_area4_infrared_detail@@3HA, eax

; 1254 : 	terrain_texture_builtup_area4_infrared_colour_pass		= get_system_texture_index ( "COLOUR_PASS" );

  001d9	68 00 00 00 00	 push	 OFFSET ??_C@_0M@LDEJELLC@COLOUR_PASS@
  001de	e8 00 00 00 00	 call	 ?get_system_texture_index@@YGHPBD@Z ; get_system_texture_index
  001e3	a3 00 00 00 00	 mov	 DWORD PTR ?terrain_texture_builtup_area4_infrared_colour_pass@@3HA, eax

; 1255 : 	terrain_texture_road_detail								= get_system_texture_index ( "TERRAIN_DETAIL_ROAD" );

  001e8	68 00 00 00 00	 push	 OFFSET ??_C@_0BE@EOMJEIPI@TERRAIN_DETAIL_ROAD@
  001ed	e8 00 00 00 00	 call	 ?get_system_texture_index@@YGHPBD@Z ; get_system_texture_index
  001f2	a3 00 00 00 00	 mov	 DWORD PTR ?terrain_texture_road_detail@@3HA, eax

; 1256 : 	terrain_texture_road_colour_pass						= get_system_texture_index ( "COLOUR_PASS_WALL" );

  001f7	68 00 00 00 00	 push	 OFFSET ??_C@_0BB@OHLOCNHA@COLOUR_PASS_WALL@
  001fc	e8 00 00 00 00	 call	 ?get_system_texture_index@@YGHPBD@Z ; get_system_texture_index
  00201	a3 00 00 00 00	 mov	 DWORD PTR ?terrain_texture_road_colour_pass@@3HA, eax

; 1257 : 	terrain_texture_track_detail							= get_system_texture_index ( "TERRAIN_THAI_DIRT_TRACK" );

  00206	68 00 00 00 00	 push	 OFFSET ??_C@_0BI@HCKGLJHJ@TERRAIN_THAI_DIRT_TRACK@
  0020b	e8 00 00 00 00	 call	 ?get_system_texture_index@@YGHPBD@Z ; get_system_texture_index
  00210	a3 00 00 00 00	 mov	 DWORD PTR ?terrain_texture_track_detail@@3HA, eax

; 1258 : 	terrain_texture_track_colour_pass						= get_system_texture_index ( "COLOUR_PASS_WALL" );

  00215	68 00 00 00 00	 push	 OFFSET ??_C@_0BB@OHLOCNHA@COLOUR_PASS_WALL@
  0021a	e8 00 00 00 00	 call	 ?get_system_texture_index@@YGHPBD@Z ; get_system_texture_index
  0021f	a3 00 00 00 00	 mov	 DWORD PTR ?terrain_texture_track_colour_pass@@3HA, eax

; 1259 : 	terrain_texture_river_detail							= get_system_texture_index ( "TERRAIN_THAILAND_RIVER" );

  00224	68 00 00 00 00	 push	 OFFSET ??_C@_0BH@LCADFALJ@TERRAIN_THAILAND_RIVER@
  00229	e8 00 00 00 00	 call	 ?get_system_texture_index@@YGHPBD@Z ; get_system_texture_index
  0022e	a3 00 00 00 00	 mov	 DWORD PTR ?terrain_texture_river_detail@@3HA, eax

; 1260 : 	terrain_texture_river_colour_pass						= 0;

  00233	c7 05 00 00 00
	00 00 00 00 00	 mov	 DWORD PTR ?terrain_texture_river_colour_pass@@3HA, 0

; 1261 : 	terrain_texture_reservoir_detail						= get_system_texture_index ( "TERRAIN_THAILAND_RIVER" );

  0023d	68 00 00 00 00	 push	 OFFSET ??_C@_0BH@LCADFALJ@TERRAIN_THAILAND_RIVER@
  00242	e8 00 00 00 00	 call	 ?get_system_texture_index@@YGHPBD@Z ; get_system_texture_index
  00247	a3 00 00 00 00	 mov	 DWORD PTR ?terrain_texture_reservoir_detail@@3HA, eax

; 1262 : 	terrain_texture_reservoir_colour_pass					= 0;

  0024c	c7 05 00 00 00
	00 00 00 00 00	 mov	 DWORD PTR ?terrain_texture_reservoir_colour_pass@@3HA, 0

; 1263 : 	terrain_texture_rail_detail								= 0;

  00256	c7 05 00 00 00
	00 00 00 00 00	 mov	 DWORD PTR ?terrain_texture_rail_detail@@3HA, 0

; 1264 : 	terrain_texture_rail_colour_pass						= 0;

  00260	c7 05 00 00 00
	00 00 00 00 00	 mov	 DWORD PTR ?terrain_texture_rail_colour_pass@@3HA, 0

; 1265 : 	terrain_texture_road_bank_detail						= get_system_texture_index ( "TERRAIN_DETAIL_4" );

  0026a	68 00 00 00 00	 push	 OFFSET ??_C@_0BB@BDNEEDDA@TERRAIN_DETAIL_4@
  0026f	e8 00 00 00 00	 call	 ?get_system_texture_index@@YGHPBD@Z ; get_system_texture_index
  00274	a3 00 00 00 00	 mov	 DWORD PTR ?terrain_texture_road_bank_detail@@3HA, eax

; 1266 : 	terrain_texture_road_bank_colour_pass					= get_system_texture_index ( "COLOUR_PASS" );

  00279	68 00 00 00 00	 push	 OFFSET ??_C@_0M@LDEJELLC@COLOUR_PASS@
  0027e	e8 00 00 00 00	 call	 ?get_system_texture_index@@YGHPBD@Z ; get_system_texture_index
  00283	a3 00 00 00 00	 mov	 DWORD PTR ?terrain_texture_road_bank_colour_pass@@3HA, eax

; 1267 : 	terrain_texture_river_bank_detail						= get_system_texture_index ( "TERRAIN_BEACH" );

  00288	68 00 00 00 00	 push	 OFFSET ??_C@_0O@BBEHGFKB@TERRAIN_BEACH@
  0028d	e8 00 00 00 00	 call	 ?get_system_texture_index@@YGHPBD@Z ; get_system_texture_index
  00292	a3 00 00 00 00	 mov	 DWORD PTR ?terrain_texture_river_bank_detail@@3HA, eax

; 1268 : 	terrain_texture_river_bank_colour_pass					= get_system_texture_index ( "COLOUR_PASS" );

  00297	68 00 00 00 00	 push	 OFFSET ??_C@_0M@LDEJELLC@COLOUR_PASS@
  0029c	e8 00 00 00 00	 call	 ?get_system_texture_index@@YGHPBD@Z ; get_system_texture_index
  002a1	a3 00 00 00 00	 mov	 DWORD PTR ?terrain_texture_river_bank_colour_pass@@3HA, eax

; 1269 : 	terrain_texture_rail_bank_detail						= 0;

  002a6	c7 05 00 00 00
	00 00 00 00 00	 mov	 DWORD PTR ?terrain_texture_rail_bank_detail@@3HA, 0

; 1270 : 	terrain_texture_rail_bank_colour_pass					= 0;

  002b0	c7 05 00 00 00
	00 00 00 00 00	 mov	 DWORD PTR ?terrain_texture_rail_bank_colour_pass@@3HA, 0

; 1271 : 	terrain_texture_field1_detail							= get_system_texture_index ( "TERRAIN_MUSTARDFIELD" );

  002ba	68 00 00 00 00	 push	 OFFSET ??_C@_0BF@GFEKLLKL@TERRAIN_MUSTARDFIELD@
  002bf	e8 00 00 00 00	 call	 ?get_system_texture_index@@YGHPBD@Z ; get_system_texture_index
  002c4	a3 00 00 00 00	 mov	 DWORD PTR ?terrain_texture_field1_detail@@3HA, eax

; 1272 : 	terrain_texture_field1_colour_pass						= get_system_texture_index ( "COLOUR_PASS" );

  002c9	68 00 00 00 00	 push	 OFFSET ??_C@_0M@LDEJELLC@COLOUR_PASS@
  002ce	e8 00 00 00 00	 call	 ?get_system_texture_index@@YGHPBD@Z ; get_system_texture_index
  002d3	a3 00 00 00 00	 mov	 DWORD PTR ?terrain_texture_field1_colour_pass@@3HA, eax

; 1273 : 	terrain_texture_field2_detail							= get_system_texture_index ( "TERRAIN_PLOUGHED1FIELD" );

  002d8	68 00 00 00 00	 push	 OFFSET ??_C@_0BH@JNGNCFED@TERRAIN_PLOUGHED1FIELD@
  002dd	e8 00 00 00 00	 call	 ?get_system_texture_index@@YGHPBD@Z ; get_system_texture_index
  002e2	a3 00 00 00 00	 mov	 DWORD PTR ?terrain_texture_field2_detail@@3HA, eax

; 1274 : 	terrain_texture_field2_colour_pass						= get_system_texture_index ( "COLOUR_PASS" );

  002e7	68 00 00 00 00	 push	 OFFSET ??_C@_0M@LDEJELLC@COLOUR_PASS@
  002ec	e8 00 00 00 00	 call	 ?get_system_texture_index@@YGHPBD@Z ; get_system_texture_index
  002f1	a3 00 00 00 00	 mov	 DWORD PTR ?terrain_texture_field2_colour_pass@@3HA, eax

; 1275 : 	terrain_texture_field3_detail							= get_system_texture_index ( "TERRAIN_PLOUGHED2FIELD" );

  002f6	68 00 00 00 00	 push	 OFFSET ??_C@_0BH@KMIFDPNO@TERRAIN_PLOUGHED2FIELD@
  002fb	e8 00 00 00 00	 call	 ?get_system_texture_index@@YGHPBD@Z ; get_system_texture_index
  00300	a3 00 00 00 00	 mov	 DWORD PTR ?terrain_texture_field3_detail@@3HA, eax

; 1276 : 	terrain_texture_field3_colour_pass						= get_system_texture_index ( "COLOUR_PASS" );

  00305	68 00 00 00 00	 push	 OFFSET ??_C@_0M@LDEJELLC@COLOUR_PASS@
  0030a	e8 00 00 00 00	 call	 ?get_system_texture_index@@YGHPBD@Z ; get_system_texture_index
  0030f	a3 00 00 00 00	 mov	 DWORD PTR ?terrain_texture_field3_colour_pass@@3HA, eax

; 1277 : 	terrain_texture_field4_detail							= get_system_texture_index ( "TERRAIN_CORNFIELD" );

  00314	68 00 00 00 00	 push	 OFFSET ??_C@_0BC@KJPKDFNB@TERRAIN_CORNFIELD@
  00319	e8 00 00 00 00	 call	 ?get_system_texture_index@@YGHPBD@Z ; get_system_texture_index
  0031e	a3 00 00 00 00	 mov	 DWORD PTR ?terrain_texture_field4_detail@@3HA, eax

; 1278 : 	terrain_texture_field4_colour_pass						= get_system_texture_index ( "COLOUR_PASS" );

  00323	68 00 00 00 00	 push	 OFFSET ??_C@_0M@LDEJELLC@COLOUR_PASS@
  00328	e8 00 00 00 00	 call	 ?get_system_texture_index@@YGHPBD@Z ; get_system_texture_index
  0032d	a3 00 00 00 00	 mov	 DWORD PTR ?terrain_texture_field4_colour_pass@@3HA, eax

; 1279 : 	terrain_texture_field5_detail							= get_system_texture_index ( "TERRAIN_WHEATFIELD" );

  00332	68 00 00 00 00	 push	 OFFSET ??_C@_0BD@DPOGMPFD@TERRAIN_WHEATFIELD@
  00337	e8 00 00 00 00	 call	 ?get_system_texture_index@@YGHPBD@Z ; get_system_texture_index
  0033c	a3 00 00 00 00	 mov	 DWORD PTR ?terrain_texture_field5_detail@@3HA, eax

; 1280 : 	terrain_texture_field5_colour_pass						= get_system_texture_index ( "COLOUR_PASS" );

  00341	68 00 00 00 00	 push	 OFFSET ??_C@_0M@LDEJELLC@COLOUR_PASS@
  00346	e8 00 00 00 00	 call	 ?get_system_texture_index@@YGHPBD@Z ; get_system_texture_index
  0034b	a3 00 00 00 00	 mov	 DWORD PTR ?terrain_texture_field5_colour_pass@@3HA, eax

; 1281 : 	terrain_texture_field6_detail							= get_system_texture_index ( "TERRAIN_LIGHTGREENFIELD" );

  00350	68 00 00 00 00	 push	 OFFSET ??_C@_0BI@KPJCKJLC@TERRAIN_LIGHTGREENFIELD@
  00355	e8 00 00 00 00	 call	 ?get_system_texture_index@@YGHPBD@Z ; get_system_texture_index
  0035a	a3 00 00 00 00	 mov	 DWORD PTR ?terrain_texture_field6_detail@@3HA, eax

; 1282 : 	terrain_texture_field6_colour_pass						= get_system_texture_index ( "COLOUR_PASS" );

  0035f	68 00 00 00 00	 push	 OFFSET ??_C@_0M@LDEJELLC@COLOUR_PASS@
  00364	e8 00 00 00 00	 call	 ?get_system_texture_index@@YGHPBD@Z ; get_system_texture_index
  00369	a3 00 00 00 00	 mov	 DWORD PTR ?terrain_texture_field6_colour_pass@@3HA, eax

; 1283 : 	terrain_texture_field7_detail							= get_system_texture_index ( "TERRAIN_DARKGREENFIELD" );

  0036e	68 00 00 00 00	 push	 OFFSET ??_C@_0BH@BEINOGAP@TERRAIN_DARKGREENFIELD@
  00373	e8 00 00 00 00	 call	 ?get_system_texture_index@@YGHPBD@Z ; get_system_texture_index
  00378	a3 00 00 00 00	 mov	 DWORD PTR ?terrain_texture_field7_detail@@3HA, eax

; 1284 : 	terrain_texture_field7_colour_pass						= get_system_texture_index ( "COLOUR_PASS" );

  0037d	68 00 00 00 00	 push	 OFFSET ??_C@_0M@LDEJELLC@COLOUR_PASS@
  00382	e8 00 00 00 00	 call	 ?get_system_texture_index@@YGHPBD@Z ; get_system_texture_index
  00387	a3 00 00 00 00	 mov	 DWORD PTR ?terrain_texture_field7_colour_pass@@3HA, eax

; 1285 : 	terrain_texture_field8_detail							= get_system_texture_index ( "TERRAIN_MUSTARDFIELD" );

  0038c	68 00 00 00 00	 push	 OFFSET ??_C@_0BF@GFEKLLKL@TERRAIN_MUSTARDFIELD@
  00391	e8 00 00 00 00	 call	 ?get_system_texture_index@@YGHPBD@Z ; get_system_texture_index
  00396	a3 00 00 00 00	 mov	 DWORD PTR ?terrain_texture_field8_detail@@3HA, eax

; 1286 : 	terrain_texture_field8_colour_pass						= get_system_texture_index ( "COLOUR_PASS" );

  0039b	68 00 00 00 00	 push	 OFFSET ??_C@_0M@LDEJELLC@COLOUR_PASS@
  003a0	e8 00 00 00 00	 call	 ?get_system_texture_index@@YGHPBD@Z ; get_system_texture_index
  003a5	a3 00 00 00 00	 mov	 DWORD PTR ?terrain_texture_field8_colour_pass@@3HA, eax

; 1287 : 	terrain_texture_field9_detail							= get_system_texture_index ( "TERRAIN_PLOUGHED1FIELD" );

  003aa	68 00 00 00 00	 push	 OFFSET ??_C@_0BH@JNGNCFED@TERRAIN_PLOUGHED1FIELD@
  003af	e8 00 00 00 00	 call	 ?get_system_texture_index@@YGHPBD@Z ; get_system_texture_index
  003b4	a3 00 00 00 00	 mov	 DWORD PTR ?terrain_texture_field9_detail@@3HA, eax

; 1288 : 	terrain_texture_field9_colour_pass						= get_system_texture_index ( "COLOUR_PASS" );

  003b9	68 00 00 00 00	 push	 OFFSET ??_C@_0M@LDEJELLC@COLOUR_PASS@
  003be	e8 00 00 00 00	 call	 ?get_system_texture_index@@YGHPBD@Z ; get_system_texture_index
  003c3	a3 00 00 00 00	 mov	 DWORD PTR ?terrain_texture_field9_colour_pass@@3HA, eax

; 1289 : 	terrain_texture_field10_detail							= get_system_texture_index ( "TERRAIN_PLOUGHED2FIELD" );

  003c8	68 00 00 00 00	 push	 OFFSET ??_C@_0BH@KMIFDPNO@TERRAIN_PLOUGHED2FIELD@
  003cd	e8 00 00 00 00	 call	 ?get_system_texture_index@@YGHPBD@Z ; get_system_texture_index
  003d2	a3 00 00 00 00	 mov	 DWORD PTR ?terrain_texture_field10_detail@@3HA, eax

; 1290 : 	terrain_texture_field10_colour_pass						= get_system_texture_index ( "COLOUR_PASS" );

  003d7	68 00 00 00 00	 push	 OFFSET ??_C@_0M@LDEJELLC@COLOUR_PASS@
  003dc	e8 00 00 00 00	 call	 ?get_system_texture_index@@YGHPBD@Z ; get_system_texture_index
  003e1	a3 00 00 00 00	 mov	 DWORD PTR ?terrain_texture_field10_colour_pass@@3HA, eax

; 1291 : 	terrain_texture_field11_detail							= get_system_texture_index ( "TERRAIN_CORNFIELD" );

  003e6	68 00 00 00 00	 push	 OFFSET ??_C@_0BC@KJPKDFNB@TERRAIN_CORNFIELD@
  003eb	e8 00 00 00 00	 call	 ?get_system_texture_index@@YGHPBD@Z ; get_system_texture_index
  003f0	a3 00 00 00 00	 mov	 DWORD PTR ?terrain_texture_field11_detail@@3HA, eax

; 1292 : 	terrain_texture_field11_colour_pass						= get_system_texture_index ( "COLOUR_PASS" );

  003f5	68 00 00 00 00	 push	 OFFSET ??_C@_0M@LDEJELLC@COLOUR_PASS@
  003fa	e8 00 00 00 00	 call	 ?get_system_texture_index@@YGHPBD@Z ; get_system_texture_index
  003ff	a3 00 00 00 00	 mov	 DWORD PTR ?terrain_texture_field11_colour_pass@@3HA, eax

; 1293 : 	terrain_texture_altered_land1_detail					= get_system_texture_index ( "TERRAIN_SWAMP1" );

  00404	68 00 00 00 00	 push	 OFFSET ??_C@_0P@BKMAGCLI@TERRAIN_SWAMP1@
  00409	e8 00 00 00 00	 call	 ?get_system_texture_index@@YGHPBD@Z ; get_system_texture_index
  0040e	a3 00 00 00 00	 mov	 DWORD PTR ?terrain_texture_altered_land1_detail@@3HA, eax

; 1294 : 	terrain_texture_altered_land1_colour_pass				= get_system_texture_index ( "COLOUR_PASS" );

  00413	68 00 00 00 00	 push	 OFFSET ??_C@_0M@LDEJELLC@COLOUR_PASS@
  00418	e8 00 00 00 00	 call	 ?get_system_texture_index@@YGHPBD@Z ; get_system_texture_index
  0041d	a3 00 00 00 00	 mov	 DWORD PTR ?terrain_texture_altered_land1_colour_pass@@3HA, eax

; 1295 : 	terrain_texture_altered_land2_detail					= get_system_texture_index ( "TERRAIN_SWAMP2" );

  00422	68 00 00 00 00	 push	 OFFSET ??_C@_0P@DBONDBHL@TERRAIN_SWAMP2@
  00427	e8 00 00 00 00	 call	 ?get_system_texture_index@@YGHPBD@Z ; get_system_texture_index
  0042c	a3 00 00 00 00	 mov	 DWORD PTR ?terrain_texture_altered_land2_detail@@3HA, eax

; 1296 : 	terrain_texture_altered_land2_colour_pass				= get_system_texture_index ( "COLOUR_PASS" );

  00431	68 00 00 00 00	 push	 OFFSET ??_C@_0M@LDEJELLC@COLOUR_PASS@
  00436	e8 00 00 00 00	 call	 ?get_system_texture_index@@YGHPBD@Z ; get_system_texture_index
  0043b	a3 00 00 00 00	 mov	 DWORD PTR ?terrain_texture_altered_land2_colour_pass@@3HA, eax

; 1297 : 	terrain_texture_altered_land3_detail					= get_system_texture_index ( "TERRAIN_HIGHLAND" );

  00440	68 00 00 00 00	 push	 OFFSET ??_C@_0BB@NLCHJFOM@TERRAIN_HIGHLAND@
  00445	e8 00 00 00 00	 call	 ?get_system_texture_index@@YGHPBD@Z ; get_system_texture_index
  0044a	a3 00 00 00 00	 mov	 DWORD PTR ?terrain_texture_altered_land3_detail@@3HA, eax

; 1298 : 	terrain_texture_altered_land3_colour_pass				= get_system_texture_index ( "COLOUR_PASS" );

  0044f	68 00 00 00 00	 push	 OFFSET ??_C@_0M@LDEJELLC@COLOUR_PASS@
  00454	e8 00 00 00 00	 call	 ?get_system_texture_index@@YGHPBD@Z ; get_system_texture_index
  00459	a3 00 00 00 00	 mov	 DWORD PTR ?terrain_texture_altered_land3_colour_pass@@3HA, eax

; 1299 : 	terrain_texture_hedge_detail							= get_system_texture_index ( "TERRAIN_TREE_CANOPY_1" );

  0045e	68 00 00 00 00	 push	 OFFSET ??_C@_0BG@EOMIBGLD@TERRAIN_TREE_CANOPY_1@
  00463	e8 00 00 00 00	 call	 ?get_system_texture_index@@YGHPBD@Z ; get_system_texture_index
  00468	a3 00 00 00 00	 mov	 DWORD PTR ?terrain_texture_hedge_detail@@3HA, eax

; 1300 : 	terrain_texture_hedge_colour_pass						= 0;

  0046d	c7 05 00 00 00
	00 00 00 00 00	 mov	 DWORD PTR ?terrain_texture_hedge_colour_pass@@3HA, 0

; 1301 : 	terrain_texture_wall_detail								= get_system_texture_index ( "TERRAIN_TREE_CANOPY_1" );

  00477	68 00 00 00 00	 push	 OFFSET ??_C@_0BG@EOMIBGLD@TERRAIN_TREE_CANOPY_1@
  0047c	e8 00 00 00 00	 call	 ?get_system_texture_index@@YGHPBD@Z ; get_system_texture_index
  00481	a3 00 00 00 00	 mov	 DWORD PTR ?terrain_texture_wall_detail@@3HA, eax

; 1302 : 	terrain_texture_wall_colour_pass						= get_system_texture_index ( "COLOUR_PASS_ROCK" );

  00486	68 00 00 00 00	 push	 OFFSET ??_C@_0BB@ILJMAEMJ@COLOUR_PASS_ROCK@
  0048b	e8 00 00 00 00	 call	 ?get_system_texture_index@@YGHPBD@Z ; get_system_texture_index
  00490	a3 00 00 00 00	 mov	 DWORD PTR ?terrain_texture_wall_colour_pass@@3HA, eax

; 1303 : 	terrain_texture_trench_detail							= get_system_texture_index ( "TERRAIN_THAILAND_RIVER" );

  00495	68 00 00 00 00	 push	 OFFSET ??_C@_0BH@LCADFALJ@TERRAIN_THAILAND_RIVER@
  0049a	e8 00 00 00 00	 call	 ?get_system_texture_index@@YGHPBD@Z ; get_system_texture_index
  0049f	a3 00 00 00 00	 mov	 DWORD PTR ?terrain_texture_trench_detail@@3HA, eax

; 1304 : 	terrain_texture_trench_colour_pass						= 0;

  004a4	c7 05 00 00 00
	00 00 00 00 00	 mov	 DWORD PTR ?terrain_texture_trench_colour_pass@@3HA, 0

; 1305 : 
; 1306 : 	//VJ 050303 texture colour mod: use texture colour directly instead of brownish haze
; 1307 : 	if (command_line_texture_colour)

  004ae	83 3d 00 00 00
	00 00		 cmp	 DWORD PTR ?command_line_texture_colour@@3HA, 0 ; command_line_texture_colour
  004b5	74 05		 je	 SHORT $LN2@initialise

; 1308 : 		initialise_all_custom_terrain_types ();

  004b7	e8 00 00 00 00	 call	 ?initialise_all_custom_terrain_types@@YGXXZ ; initialise_all_custom_terrain_types
$LN2@initialise:

; 1309 : 
; 1310 : 	// Xhit: the surface types for the various terrain types are set according to the surroundings. (030328)
; 1311 : 	//set surface types for rotor dust
; 1312 : 	//VJ 051224 moved to separate function
; 1313 : 	initialise_surface_types();

  004bc	e8 00 00 00 00	 call	 ?initialise_surface_types@@YGXXZ ; initialise_surface_types

; 1314 : /*
; 1315 : 	terrain_surface_sea										= SURFACE_TYPE_WATER;
; 1316 : 	terrain_surface_beach									= SURFACE_TYPE_SAND;
; 1317 : 	terrain_surface_land										= SURFACE_TYPE_SOIL;
; 1318 : 	terrain_surface_forest									= SURFACE_TYPE_NONE;
; 1319 : 	terrain_surface_builtup_area1							= SURFACE_TYPE_ASPHALT;
; 1320 : 	terrain_surface_builtup_area2							= SURFACE_TYPE_ASPHALT;
; 1321 : 	terrain_surface_builtup_area3							= SURFACE_TYPE_ASPHALT;
; 1322 : 	terrain_surface_builtup_area4							= SURFACE_TYPE_ASPHALT;
; 1323 : 	terrain_surface_builtup_area1_infrared				= SURFACE_TYPE_ASPHALT;
; 1324 : 	terrain_surface_builtup_area2_infrared				= SURFACE_TYPE_ASPHALT;
; 1325 : 	terrain_surface_builtup_area3_infrared				= SURFACE_TYPE_ASPHALT;
; 1326 : 	terrain_surface_builtup_area4_infrared				= SURFACE_TYPE_ASPHALT;
; 1327 : 	terrain_surface_road										= SURFACE_TYPE_ASPHALT;
; 1328 : 	terrain_surface_track									= SURFACE_TYPE_SOIL;
; 1329 : 	terrain_surface_river									= SURFACE_TYPE_WATER;
; 1330 : 	terrain_surface_reservoir								= SURFACE_TYPE_WATER;
; 1331 : 	terrain_surface_rail										= SURFACE_TYPE_SOIL;
; 1332 : 	terrain_surface_road_bank								= SURFACE_TYPE_SOIL;
; 1333 : 	terrain_surface_river_bank								= SURFACE_TYPE_SAND;
; 1334 : 	terrain_surface_rail_bank								= SURFACE_TYPE_SOIL;
; 1335 : 	terrain_surface_field1									= SURFACE_TYPE_FIELD_LIGHTBROWN;
; 1336 : 	terrain_surface_field2									= SURFACE_TYPE_FIELD_DARKBROWN;
; 1337 : 	terrain_surface_field3									= SURFACE_TYPE_FIELD_LIGHTBROWN;
; 1338 : 	terrain_surface_field4									= SURFACE_TYPE_FIELD_LIGHTBROWN;
; 1339 : 	terrain_surface_field5									= SURFACE_TYPE_FIELD_LIGHTBROWN;
; 1340 : 	terrain_surface_field6									= SURFACE_TYPE_SOIL;
; 1341 : 	terrain_surface_field7									= SURFACE_TYPE_SOIL;
; 1342 : 	terrain_surface_field8									= SURFACE_TYPE_FIELD_LIGHTBROWN;
; 1343 : 	terrain_surface_field9									= SURFACE_TYPE_FIELD_LIGHTBROWN;
; 1344 : 	terrain_surface_field10									= SURFACE_TYPE_FIELD_DARKBROWN;
; 1345 : 	terrain_surface_field11									= SURFACE_TYPE_FIELD_LIGHTBROWN;
; 1346 : 	terrain_surface_altered_land1							= SURFACE_TYPE_SOIL;
; 1347 : 	terrain_surface_altered_land2							= SURFACE_TYPE_SOIL;
; 1348 : 	terrain_surface_altered_land3							= SURFACE_TYPE_SOIL;
; 1349 : 	terrain_surface_hedge									= SURFACE_TYPE_SOIL;
; 1350 : 	terrain_surface_wall										= SURFACE_TYPE_ROCK;
; 1351 : 	terrain_surface_trench									= SURFACE_TYPE_WATER;
; 1352 : */
; 1353 : 	set_object_3d_texture_camoflage_by_name ( "DEFAULT" );

  004c1	68 00 00 00 00	 push	 OFFSET ??_C@_07MGCPDNLD@DEFAULT@
  004c6	e8 00 00 00 00	 call	 ?set_object_3d_texture_camoflage_by_name@@YGXPAD@Z ; set_object_3d_texture_camoflage_by_name

; 1354 : 
; 1355 : 	reflection_texture_index = get_system_texture_index ( "ENVIRO_YEMEN_SMALL" );

  004cb	68 00 00 00 00	 push	 OFFSET ??_C@_0BD@MIKAIJBD@ENVIRO_YEMEN_SMALL@
  004d0	e8 00 00 00 00	 call	 ?get_system_texture_index@@YGHPBD@Z ; get_system_texture_index
  004d5	89 45 d8	 mov	 DWORD PTR _reflection_texture_index$[ebp], eax

; 1356 : 
; 1357 : 	if ( reflection_texture_index != -1 )

  004d8	83 7d d8 ff	 cmp	 DWORD PTR _reflection_texture_index$[ebp], -1
  004dc	74 09		 je	 SHORT $LN3@initialise

; 1358 : 	{
; 1359 : 
; 1360 : 		set_object_3d_reflection_texture_map ( reflection_texture_index );

  004de	8b 45 d8	 mov	 eax, DWORD PTR _reflection_texture_index$[ebp]
  004e1	50		 push	 eax
  004e2	e8 00 00 00 00	 call	 ?set_object_3d_reflection_texture_map@@YGXH@Z ; set_object_3d_reflection_texture_map
$LN3@initialise:

; 1361 : 	}
; 1362 : 
; 1363 : 	set_2d_terrain_contour_heights ( sizeof ( contour_heights ) / sizeof ( float ), contour_heights );

  004e7	8d 45 dc	 lea	 eax, DWORD PTR _contour_heights$[ebp]
  004ea	50		 push	 eax
  004eb	6a 09		 push	 9
  004ed	e8 00 00 00 00	 call	 ?set_2d_terrain_contour_heights@@YGXHPAM@Z ; set_2d_terrain_contour_heights

; 1364 : }

  004f2	5f		 pop	 edi
  004f3	5e		 pop	 esi
  004f4	5b		 pop	 ebx
  004f5	8b e5		 mov	 esp, ebp
  004f7	5d		 pop	 ebp
  004f8	c3		 ret	 0
?initialise_3d_thailand_terrain_types@@YGXXZ ENDP	; initialise_3d_thailand_terrain_types
_TEXT	ENDS
; Function compile flags: /Odtp /ZI
; File c:\users\nhv90\projects\eech\modules\3d\terrain\terrtype.c
;	COMDAT ?set_terrain_textures@@YGXHHH@Z
_TEXT	SEGMENT
_type$ = 8						; size = 4
_texture$ = 12						; size = 4
_texture2$ = 16						; size = 4
?set_terrain_textures@@YGXHHH@Z PROC			; set_terrain_textures, COMDAT

; 2252 : {

  00000	55		 push	 ebp
  00001	8b ec		 mov	 ebp, esp
  00003	83 ec 40	 sub	 esp, 64			; 00000040H
  00006	53		 push	 ebx
  00007	56		 push	 esi
  00008	57		 push	 edi

; 2253 : 
; 2254 : 	terrain_type_information[type].texture = system_textures[texture];

  00009	6b 45 08 38	 imul	 eax, DWORD PTR _type$[ebp], 56
  0000d	8b 4d 0c	 mov	 ecx, DWORD PTR _texture$[ebp]
  00010	8b 14 8d 00 00
	00 00		 mov	 edx, DWORD PTR ?system_textures@@3PAPAUSCREEN@@A[ecx*4]
  00017	89 90 04 00 00
	00		 mov	 DWORD PTR ?terrain_type_information@@3PAUTERRAIN_TYPE_INFO@@A[eax+4], edx

; 2255 : 	terrain_type_information[type].texture2 = system_textures[texture2];

  0001d	6b 45 08 38	 imul	 eax, DWORD PTR _type$[ebp], 56
  00021	8b 4d 10	 mov	 ecx, DWORD PTR _texture2$[ebp]
  00024	8b 14 8d 00 00
	00 00		 mov	 edx, DWORD PTR ?system_textures@@3PAPAUSCREEN@@A[ecx*4]
  0002b	89 90 08 00 00
	00		 mov	 DWORD PTR ?terrain_type_information@@3PAUTERRAIN_TYPE_INFO@@A[eax+8], edx

; 2256 : }

  00031	5f		 pop	 edi
  00032	5e		 pop	 esi
  00033	5b		 pop	 ebx
  00034	8b e5		 mov	 esp, ebp
  00036	5d		 pop	 ebp
  00037	c2 0c 00	 ret	 12			; 0000000cH
?set_terrain_textures@@YGXHHH@Z ENDP			; set_terrain_textures
_TEXT	ENDS
; Function compile flags: /Odtp /ZI
; File c:\users\nhv90\projects\eech\modules\3d\terrain\terrtype.c
;	COMDAT ?set_terrain_type_textures@@YGXHHHMMMMMHHHW4SURFACE_TYPES@@@Z
_TEXT	SEGMENT
tv66 = -76						; size = 8
_noisemap_scale_adjustment$ = -4			; size = 4
_type$ = 8						; size = 4
_texture$ = 12						; size = 4
_texture2$ = 16						; size = 4
_noise_adjustment$ = 20					; size = 4
_xz_texture_size$ = 24					; size = 4
_y_texture_size$ = 28					; size = 4
_xz_texture_size2$ = 32					; size = 4
_y_texture_size2$ = 36					; size = 4
_red$ = 40						; size = 4
_green$ = 44						; size = 4
_blue$ = 48						; size = 4
_surface_type$ = 52					; size = 4
?set_terrain_type_textures@@YGXHHHMMMMMHHHW4SURFACE_TYPES@@@Z PROC ; set_terrain_type_textures, COMDAT

; 2222 : {

  00000	55		 push	 ebp
  00001	8b ec		 mov	 ebp, esp
  00003	83 ec 4c	 sub	 esp, 76			; 0000004cH
  00006	53		 push	 ebx
  00007	56		 push	 esi
  00008	57		 push	 edi

; 2223 : 	float
; 2224 : 		noisemap_scale_adjustment = (command_line_texture_colour == 2) ? noise_adjustment : 1.0;

  00009	83 3d 00 00 00
	00 02		 cmp	 DWORD PTR ?command_line_texture_colour@@3HA, 2 ; command_line_texture_colour
  00010	75 0c		 jne	 SHORT $LN7@set_terrai
  00012	f3 0f 5a 45 14	 cvtss2sd xmm0, DWORD PTR _noise_adjustment$[ebp]
  00017	f2 0f 11 45 b4	 movsd	 QWORD PTR tv66[ebp], xmm0
  0001c	eb 0d		 jmp	 SHORT $LN8@set_terrai
$LN7@set_terrai:
  0001e	f2 0f 10 05 00
	00 00 00	 movsd	 xmm0, QWORD PTR __real@3ff0000000000000
  00026	f2 0f 11 45 b4	 movsd	 QWORD PTR tv66[ebp], xmm0
$LN8@set_terrai:
  0002b	f2 0f 5a 45 b4	 cvtsd2ss xmm0, QWORD PTR tv66[ebp]
  00030	f3 0f 11 45 fc	 movss	 DWORD PTR _noisemap_scale_adjustment$[ebp], xmm0

; 2225 : 
; 2226 : 	if ( xz_texture_size == 0.0 )		xz_texture_size = TERRAIN_DEFAULT_TEXTURE_SIZE;

  00035	f3 0f 5a 45 18	 cvtss2sd xmm0, DWORD PTR _xz_texture_size$[ebp]
  0003a	66 0f 2e 05 00
	00 00 00	 ucomisd xmm0, QWORD PTR __real@0000000000000000
  00042	9f		 lahf
  00043	f6 c4 44	 test	 ah, 68			; 00000044H
  00046	7a 0d		 jp	 SHORT $LN2@set_terrai
  00048	f3 0f 10 05 00
	00 00 00	 movss	 xmm0, DWORD PTR __real@3f800000
  00050	f3 0f 11 45 18	 movss	 DWORD PTR _xz_texture_size$[ebp], xmm0
$LN2@set_terrai:

; 2227 : 	if ( y_texture_size == 0.0 )		y_texture_size = TERRAIN_DEFAULT_TEXTURE_SIZE;

  00055	f3 0f 5a 45 1c	 cvtss2sd xmm0, DWORD PTR _y_texture_size$[ebp]
  0005a	66 0f 2e 05 00
	00 00 00	 ucomisd xmm0, QWORD PTR __real@0000000000000000
  00062	9f		 lahf
  00063	f6 c4 44	 test	 ah, 68			; 00000044H
  00066	7a 0d		 jp	 SHORT $LN3@set_terrai
  00068	f3 0f 10 05 00
	00 00 00	 movss	 xmm0, DWORD PTR __real@3f800000
  00070	f3 0f 11 45 1c	 movss	 DWORD PTR _y_texture_size$[ebp], xmm0
$LN3@set_terrai:

; 2228 : 	if ( xz_texture_size2 == 0.0 )	xz_texture_size2 = TERRAIN_DEFAULT_TEXTURE_SIZE;

  00075	f3 0f 5a 45 20	 cvtss2sd xmm0, DWORD PTR _xz_texture_size2$[ebp]
  0007a	66 0f 2e 05 00
	00 00 00	 ucomisd xmm0, QWORD PTR __real@0000000000000000
  00082	9f		 lahf
  00083	f6 c4 44	 test	 ah, 68			; 00000044H
  00086	7a 0d		 jp	 SHORT $LN4@set_terrai
  00088	f3 0f 10 05 00
	00 00 00	 movss	 xmm0, DWORD PTR __real@3f800000
  00090	f3 0f 11 45 20	 movss	 DWORD PTR _xz_texture_size2$[ebp], xmm0
$LN4@set_terrai:

; 2229 : 	if ( y_texture_size2 == 0.0 )		y_texture_size2 = TERRAIN_DEFAULT_TEXTURE_SIZE;

  00095	f3 0f 5a 45 24	 cvtss2sd xmm0, DWORD PTR _y_texture_size2$[ebp]
  0009a	66 0f 2e 05 00
	00 00 00	 ucomisd xmm0, QWORD PTR __real@0000000000000000
  000a2	9f		 lahf
  000a3	f6 c4 44	 test	 ah, 68			; 00000044H
  000a6	7a 0d		 jp	 SHORT $LN5@set_terrai
  000a8	f3 0f 10 05 00
	00 00 00	 movss	 xmm0, DWORD PTR __real@3f800000
  000b0	f3 0f 11 45 24	 movss	 DWORD PTR _y_texture_size2$[ebp], xmm0
$LN5@set_terrai:

; 2230 : 
; 2231 : 	terrain_type_information[type].texture = system_textures[texture];

  000b5	6b 45 08 38	 imul	 eax, DWORD PTR _type$[ebp], 56
  000b9	8b 4d 0c	 mov	 ecx, DWORD PTR _texture$[ebp]
  000bc	8b 14 8d 00 00
	00 00		 mov	 edx, DWORD PTR ?system_textures@@3PAPAUSCREEN@@A[ecx*4]
  000c3	89 90 04 00 00
	00		 mov	 DWORD PTR ?terrain_type_information@@3PAUTERRAIN_TYPE_INFO@@A[eax+4], edx

; 2232 : 	terrain_type_information[type].xz_texture_scale = ( TERRAIN_3D_XZ_SCALE / xz_texture_size );

  000c9	f3 0f 5a 45 18	 cvtss2sd xmm0, DWORD PTR _xz_texture_size$[ebp]
  000ce	f2 0f 10 0d 00
	00 00 00	 movsd	 xmm1, QWORD PTR __real@3fb0000000000000
  000d6	f2 0f 5e c8	 divsd	 xmm1, xmm0
  000da	f2 0f 5a c1	 cvtsd2ss xmm0, xmm1
  000de	6b 45 08 38	 imul	 eax, DWORD PTR _type$[ebp], 56
  000e2	f3 0f 11 80 10
	00 00 00	 movss	 DWORD PTR ?terrain_type_information@@3PAUTERRAIN_TYPE_INFO@@A[eax+16], xmm0

; 2233 : 	terrain_type_information[type].y_texture_scale =  1.0 / y_texture_size;

  000ea	f3 0f 5a 45 1c	 cvtss2sd xmm0, DWORD PTR _y_texture_size$[ebp]
  000ef	f2 0f 10 0d 00
	00 00 00	 movsd	 xmm1, QWORD PTR __real@3ff0000000000000
  000f7	f2 0f 5e c8	 divsd	 xmm1, xmm0
  000fb	f2 0f 5a c1	 cvtsd2ss xmm0, xmm1
  000ff	6b 45 08 38	 imul	 eax, DWORD PTR _type$[ebp], 56
  00103	f3 0f 11 80 14
	00 00 00	 movss	 DWORD PTR ?terrain_type_information@@3PAUTERRAIN_TYPE_INFO@@A[eax+20], xmm0

; 2234 : 
; 2235 : 	terrain_type_information[type].texture2 = system_textures[texture2];

  0010b	6b 45 08 38	 imul	 eax, DWORD PTR _type$[ebp], 56
  0010f	8b 4d 10	 mov	 ecx, DWORD PTR _texture2$[ebp]
  00112	8b 14 8d 00 00
	00 00		 mov	 edx, DWORD PTR ?system_textures@@3PAPAUSCREEN@@A[ecx*4]
  00119	89 90 08 00 00
	00		 mov	 DWORD PTR ?terrain_type_information@@3PAUTERRAIN_TYPE_INFO@@A[eax+8], edx

; 2236 : 	terrain_type_information[type].xz_texture_scale2 = ( noisemap_scale_adjustment * TERRAIN_3D_XZ_SCALE / (xz_texture_size2));

  0011f	f3 0f 5a 45 fc	 cvtss2sd xmm0, DWORD PTR _noisemap_scale_adjustment$[ebp]
  00124	f2 0f 59 05 00
	00 00 00	 mulsd	 xmm0, QWORD PTR __real@3fb0000000000000
  0012c	f3 0f 5a 4d 20	 cvtss2sd xmm1, DWORD PTR _xz_texture_size2$[ebp]
  00131	f2 0f 5e c1	 divsd	 xmm0, xmm1
  00135	f2 0f 5a c0	 cvtsd2ss xmm0, xmm0
  00139	6b 45 08 38	 imul	 eax, DWORD PTR _type$[ebp], 56
  0013d	f3 0f 11 80 18
	00 00 00	 movss	 DWORD PTR ?terrain_type_information@@3PAUTERRAIN_TYPE_INFO@@A[eax+24], xmm0

; 2237 : 	terrain_type_information[type].y_texture_scale2 = 1.0 / y_texture_size2;

  00145	f3 0f 5a 45 24	 cvtss2sd xmm0, DWORD PTR _y_texture_size2$[ebp]
  0014a	f2 0f 10 0d 00
	00 00 00	 movsd	 xmm1, QWORD PTR __real@3ff0000000000000
  00152	f2 0f 5e c8	 divsd	 xmm1, xmm0
  00156	f2 0f 5a c1	 cvtsd2ss xmm0, xmm1
  0015a	6b 45 08 38	 imul	 eax, DWORD PTR _type$[ebp], 56
  0015e	f3 0f 11 80 1c
	00 00 00	 movss	 DWORD PTR ?terrain_type_information@@3PAUTERRAIN_TYPE_INFO@@A[eax+28], xmm0

; 2238 : 
; 2239 : 	terrain_type_information[type].red = red;

  00166	6b 45 08 38	 imul	 eax, DWORD PTR _type$[ebp], 56
  0016a	8a 4d 28	 mov	 cl, BYTE PTR _red$[ebp]
  0016d	88 88 0c 00 00
	00		 mov	 BYTE PTR ?terrain_type_information@@3PAUTERRAIN_TYPE_INFO@@A[eax+12], cl

; 2240 : 	terrain_type_information[type].green = green;

  00173	6b 45 08 38	 imul	 eax, DWORD PTR _type$[ebp], 56
  00177	8a 4d 2c	 mov	 cl, BYTE PTR _green$[ebp]
  0017a	88 88 0d 00 00
	00		 mov	 BYTE PTR ?terrain_type_information@@3PAUTERRAIN_TYPE_INFO@@A[eax+13], cl

; 2241 : 	terrain_type_information[type].blue = blue;

  00180	6b 45 08 38	 imul	 eax, DWORD PTR _type$[ebp], 56
  00184	8a 4d 30	 mov	 cl, BYTE PTR _blue$[ebp]
  00187	88 88 0e 00 00
	00		 mov	 BYTE PTR ?terrain_type_information@@3PAUTERRAIN_TYPE_INFO@@A[eax+14], cl

; 2242 : 
; 2243 : 	// Xhit: set the appropiate surface type according to campaign and terrain type. (030328)
; 2244 : 	terrain_type_information[type].surface_type = surface_type;

  0018d	6b 45 08 38	 imul	 eax, DWORD PTR _type$[ebp], 56
  00191	8b 4d 34	 mov	 ecx, DWORD PTR _surface_type$[ebp]
  00194	89 88 34 00 00
	00		 mov	 DWORD PTR ?terrain_type_information@@3PAUTERRAIN_TYPE_INFO@@A[eax+52], ecx

; 2245 : }

  0019a	5f		 pop	 edi
  0019b	5e		 pop	 esi
  0019c	5b		 pop	 ebx
  0019d	8b e5		 mov	 esp, ebp
  0019f	5d		 pop	 ebp
  001a0	c2 30 00	 ret	 48			; 00000030H
?set_terrain_type_textures@@YGXHHHMMMMMHHHW4SURFACE_TYPES@@@Z ENDP ; set_terrain_type_textures
_TEXT	ENDS
; Function compile flags: /Odtp /ZI
; File c:\users\nhv90\projects\eech\modules\3d\terrain\terrtype.c
;	COMDAT ?set_terrain_rendering_routines@@YGXHW4TERRAIN_POLYGON_TYPE@@P6GXH@Z111@Z
_TEXT	SEGMENT
_type$ = 8						; size = 4
_polygon_type$ = 12					; size = 4
_render_word_clipped$ = 16				; size = 4
_render_byte_clipped$ = 20				; size = 4
_render_word_unclipped$ = 24				; size = 4
_render_byte_unclipped$ = 28				; size = 4
?set_terrain_rendering_routines@@YGXHW4TERRAIN_POLYGON_TYPE@@P6GXH@Z111@Z PROC ; set_terrain_rendering_routines, COMDAT

; 2202 : {

  00000	55		 push	 ebp
  00001	8b ec		 mov	 ebp, esp
  00003	83 ec 40	 sub	 esp, 64			; 00000040H
  00006	53		 push	 ebx
  00007	56		 push	 esi
  00008	57		 push	 edi

; 2203 : 
; 2204 : 	terrain_type_information[type].initialised = TRUE;

  00009	6b 45 08 38	 imul	 eax, DWORD PTR _type$[ebp], 56
  0000d	c7 80 00 00 00
	00 01 00 00 00	 mov	 DWORD PTR ?terrain_type_information@@3PAUTERRAIN_TYPE_INFO@@A[eax], 1

; 2205 : 
; 2206 : 	terrain_type_information[type].polygon_type = polygon_type;

  00017	6b 45 08 38	 imul	 eax, DWORD PTR _type$[ebp], 56
  0001b	8b 4d 0c	 mov	 ecx, DWORD PTR _polygon_type$[ebp]
  0001e	89 88 30 00 00
	00		 mov	 DWORD PTR ?terrain_type_information@@3PAUTERRAIN_TYPE_INFO@@A[eax+48], ecx

; 2207 : 
; 2208 : 	terrain_type_information[type].render_word_clipped = render_word_clipped;

  00024	6b 45 08 38	 imul	 eax, DWORD PTR _type$[ebp], 56
  00028	8b 4d 10	 mov	 ecx, DWORD PTR _render_word_clipped$[ebp]
  0002b	89 88 20 00 00
	00		 mov	 DWORD PTR ?terrain_type_information@@3PAUTERRAIN_TYPE_INFO@@A[eax+32], ecx

; 2209 : 	terrain_type_information[type].render_byte_clipped = render_byte_clipped;

  00031	6b 45 08 38	 imul	 eax, DWORD PTR _type$[ebp], 56
  00035	8b 4d 14	 mov	 ecx, DWORD PTR _render_byte_clipped$[ebp]
  00038	89 88 24 00 00
	00		 mov	 DWORD PTR ?terrain_type_information@@3PAUTERRAIN_TYPE_INFO@@A[eax+36], ecx

; 2210 : 	terrain_type_information[type].render_word_unclipped = render_word_unclipped;

  0003e	6b 45 08 38	 imul	 eax, DWORD PTR _type$[ebp], 56
  00042	8b 4d 18	 mov	 ecx, DWORD PTR _render_word_unclipped$[ebp]
  00045	89 88 28 00 00
	00		 mov	 DWORD PTR ?terrain_type_information@@3PAUTERRAIN_TYPE_INFO@@A[eax+40], ecx

; 2211 : 	terrain_type_information[type].render_byte_unclipped = render_byte_unclipped;

  0004b	6b 45 08 38	 imul	 eax, DWORD PTR _type$[ebp], 56
  0004f	8b 4d 1c	 mov	 ecx, DWORD PTR _render_byte_unclipped$[ebp]
  00052	89 88 2c 00 00
	00		 mov	 DWORD PTR ?terrain_type_information@@3PAUTERRAIN_TYPE_INFO@@A[eax+44], ecx

; 2212 : }

  00058	5f		 pop	 edi
  00059	5e		 pop	 esi
  0005a	5b		 pop	 ebx
  0005b	8b e5		 mov	 esp, ebp
  0005d	5d		 pop	 ebp
  0005e	c2 18 00	 ret	 24			; 00000018H
?set_terrain_rendering_routines@@YGXHW4TERRAIN_POLYGON_TYPE@@P6GXH@Z111@Z ENDP ; set_terrain_rendering_routines
_TEXT	ENDS
; Function compile flags: /Odtp /ZI
; File c:\users\nhv90\projects\eech\modules\3d\terrain\terrtype.c
;	COMDAT ?initialise_noisemaps@@YGXXZ
_TEXT	SEGMENT
tv490 = -100						; size = 4
tv481 = -100						; size = 4
tv472 = -100						; size = 4
tv463 = -100						; size = 4
tv454 = -100						; size = 4
tv413 = -100						; size = 4
tv404 = -100						; size = 4
tv395 = -100						; size = 4
tv386 = -100						; size = 4
tv377 = -100						; size = 4
tv368 = -100						; size = 4
tv359 = -100						; size = 4
tv350 = -100						; size = 4
tv341 = -100						; size = 4
tv332 = -100						; size = 4
tv323 = -100						; size = 4
tv274 = -100						; size = 4
tv265 = -100						; size = 4
tv256 = -100						; size = 4
tv247 = -100						; size = 4
tv238 = -100						; size = 4
tv229 = -100						; size = 4
tv188 = -100						; size = 4
tv179 = -100						; size = 4
tv170 = -100						; size = 4
tv161 = -100						; size = 4
tv152 = -100						; size = 4
tv143 = -100						; size = 4
tv131 = -100						; size = 4
tv87 = -100						; size = 4
_gamma2$ = -32						; size = 4
_gamma$ = -28						; size = 4
_noisemap$ = -24					; size = 4
_field_noise$ = -20					; size = 4
_tree_noisemap$ = -16					; size = 4
_rock_noisemap$ = -12					; size = 4
_grass_noisemap$ = -8					; size = 4
_i$ = -4						; size = 4
?initialise_noisemaps@@YGXXZ PROC			; initialise_noisemaps, COMDAT

; 2406 : {

  00000	55		 push	 ebp
  00001	8b ec		 mov	 ebp, esp
  00003	83 ec 64	 sub	 esp, 100		; 00000064H
  00006	53		 push	 ebx
  00007	56		 push	 esi
  00008	57		 push	 edi

; 2407 : 	unsigned i = 0;

  00009	c7 45 fc 00 00
	00 00		 mov	 DWORD PTR _i$[ebp], 0

; 2408 : 	int
; 2409 : 		grass_noisemap,
; 2410 : 		rock_noisemap = add_new_texture("NOISEMAP_FIELD", "terrtype.c"),

  00010	68 00 00 00 00	 push	 OFFSET ??_C@_0L@GAEOMBKJ@terrtype?4c@
  00015	68 00 00 00 00	 push	 OFFSET ??_C@_0P@CBMAAOCK@NOISEMAP_FIELD@
  0001a	e8 00 00 00 00	 call	 ?add_new_texture@@YGHPBD0@Z ; add_new_texture
  0001f	89 45 f4	 mov	 DWORD PTR _rock_noisemap$[ebp], eax

; 2411 : 		tree_noisemap = add_new_texture("NOISEMAP_TREE_CANOPY", "terrtype.c"),

  00022	68 00 00 00 00	 push	 OFFSET ??_C@_0L@GAEOMBKJ@terrtype?4c@
  00027	68 00 00 00 00	 push	 OFFSET ??_C@_0BF@CENFCBOJ@NOISEMAP_TREE_CANOPY@
  0002c	e8 00 00 00 00	 call	 ?add_new_texture@@YGHPBD0@Z ; add_new_texture
  00031	89 45 f0	 mov	 DWORD PTR _tree_noisemap$[ebp], eax

; 2412 : 		field_noise,
; 2413 : 		noisemap;
; 2414 : 
; 2415 : 	float gamma = 1.25, gamma2 = 1.4;

  00034	f3 0f 10 05 00
	00 00 00	 movss	 xmm0, DWORD PTR __real@3fa00000
  0003c	f3 0f 11 45 e4	 movss	 DWORD PTR _gamma$[ebp], xmm0
  00041	f3 0f 10 05 00
	00 00 00	 movss	 xmm0, DWORD PTR __real@3fb33333
  00049	f3 0f 11 45 e0	 movss	 DWORD PTR _gamma2$[ebp], xmm0

; 2416 : 
; 2417 : #if 0
; 2418 : 	switch (get_global_season())
; 2419 : 	{
; 2420 : 	case SESSION_SEASON_SUMMER:
; 2421 : 	case SESSION_SEASON_INVALID:
; 2422 : 	case SESSION_SEASON_DEFAULT:
; 2423 : 	default:
; 2424 : 		grass_noisemap = add_new_texture("NOISEMAP_GRASS", "terrtype.c");
; 2425 : 		field_noise = grass_noisemap;
; 2426 : 		noisemap = add_new_texture("NOISEMAP", "terrtype.c");
; 2427 : 		break;
; 2428 : 	case SESSION_SEASON_DESERT:
; 2429 : 		grass_noisemap = field_noise = noisemap = add_new_texture("NOISEMAP_SAND", "terrtype.c");
; 2430 : 		break;
; 2431 : 	case SESSION_SEASON_WINTER:
; 2432 : 		grass_noisemap = field_noise = noisemap = add_new_texture("NOISEMAP_SNOW", "terrtype.c");
; 2433 : 		break;
; 2434 : 	}
; 2435 : #endif
; 2436 : 
; 2437 : 	if (get_global_season() == SESSION_SEASON_DESERT)

  0004e	83 3d 14 04 00
	00 04		 cmp	 DWORD PTR ?current_map_info@@3UCUSTOM_MAP_INFO@@A+1044, 4
  00055	75 20		 jne	 SHORT $LN2@initialise

; 2438 : 		grass_noisemap = field_noise = noisemap = add_new_texture("NOISEMAP_SAND", "terrtype.c");

  00057	68 00 00 00 00	 push	 OFFSET ??_C@_0L@GAEOMBKJ@terrtype?4c@
  0005c	68 00 00 00 00	 push	 OFFSET ??_C@_0O@KMHDEPEJ@NOISEMAP_SAND@
  00061	e8 00 00 00 00	 call	 ?add_new_texture@@YGHPBD0@Z ; add_new_texture
  00066	89 45 e8	 mov	 DWORD PTR _noisemap$[ebp], eax
  00069	8b 45 e8	 mov	 eax, DWORD PTR _noisemap$[ebp]
  0006c	89 45 ec	 mov	 DWORD PTR _field_noise$[ebp], eax
  0006f	8b 4d ec	 mov	 ecx, DWORD PTR _field_noise$[ebp]
  00072	89 4d f8	 mov	 DWORD PTR _grass_noisemap$[ebp], ecx
  00075	eb 53		 jmp	 SHORT $LN5@initialise
$LN2@initialise:

; 2439 : 	else if (get_global_season() == SESSION_SEASON_WINTER)

  00077	83 3d 14 04 00
	00 03		 cmp	 DWORD PTR ?current_map_info@@3UCUSTOM_MAP_INFO@@A+1044, 3
  0007e	75 20		 jne	 SHORT $LN4@initialise

; 2440 : 		grass_noisemap = field_noise = noisemap = add_new_texture("NOISEMAP_SNOW", "terrtype.c");

  00080	68 00 00 00 00	 push	 OFFSET ??_C@_0L@GAEOMBKJ@terrtype?4c@
  00085	68 00 00 00 00	 push	 OFFSET ??_C@_0O@JEDNHELK@NOISEMAP_SNOW@
  0008a	e8 00 00 00 00	 call	 ?add_new_texture@@YGHPBD0@Z ; add_new_texture
  0008f	89 45 e8	 mov	 DWORD PTR _noisemap$[ebp], eax
  00092	8b 45 e8	 mov	 eax, DWORD PTR _noisemap$[ebp]
  00095	89 45 ec	 mov	 DWORD PTR _field_noise$[ebp], eax
  00098	8b 4d ec	 mov	 ecx, DWORD PTR _field_noise$[ebp]
  0009b	89 4d f8	 mov	 DWORD PTR _grass_noisemap$[ebp], ecx

; 2441 : 	else

  0009e	eb 2a		 jmp	 SHORT $LN5@initialise
$LN4@initialise:

; 2442 : 	{
; 2443 : 		grass_noisemap = add_new_texture("NOISEMAP_GRASS", "terrtype.c");

  000a0	68 00 00 00 00	 push	 OFFSET ??_C@_0L@GAEOMBKJ@terrtype?4c@
  000a5	68 00 00 00 00	 push	 OFFSET ??_C@_0P@GADHIMJA@NOISEMAP_GRASS@
  000aa	e8 00 00 00 00	 call	 ?add_new_texture@@YGHPBD0@Z ; add_new_texture
  000af	89 45 f8	 mov	 DWORD PTR _grass_noisemap$[ebp], eax

; 2444 : 		field_noise = grass_noisemap;

  000b2	8b 45 f8	 mov	 eax, DWORD PTR _grass_noisemap$[ebp]
  000b5	89 45 ec	 mov	 DWORD PTR _field_noise$[ebp], eax

; 2445 : 		noisemap = add_new_texture("NOISEMAP", "terrtype.c");

  000b8	68 00 00 00 00	 push	 OFFSET ??_C@_0L@GAEOMBKJ@terrtype?4c@
  000bd	68 00 00 00 00	 push	 OFFSET ??_C@_08JGBMEEAM@NOISEMAP@
  000c2	e8 00 00 00 00	 call	 ?add_new_texture@@YGHPBD0@Z ; add_new_texture
  000c7	89 45 e8	 mov	 DWORD PTR _noisemap$[ebp], eax
$LN5@initialise:

; 2446 : 	}
; 2447 : 
; 2448 : 	terrain_texture_sea_detail = textures_with_noisemap[i].index = get_system_texture_index ( "TERRAIN_SEA_1" );

  000ca	68 00 00 00 00	 push	 OFFSET ??_C@_0O@DCAMCMDE@TERRAIN_SEA_1@
  000cf	e8 00 00 00 00	 call	 ?get_system_texture_index@@YGHPBD@Z ; get_system_texture_index
  000d4	89 45 9c	 mov	 DWORD PTR tv87[ebp], eax
  000d7	8b 45 fc	 mov	 eax, DWORD PTR _i$[ebp]
  000da	8b 4d 9c	 mov	 ecx, DWORD PTR tv87[ebp]
  000dd	89 0c c5 00 00
	00 00		 mov	 DWORD PTR ?textures_with_noisemap@@3PAU<unnamed-type-textures_with_noisemap>@@A[eax*8], ecx
  000e4	8b 55 9c	 mov	 edx, DWORD PTR tv87[ebp]
  000e7	89 15 00 00 00
	00		 mov	 DWORD PTR ?terrain_texture_sea_detail@@3HA, edx

; 2449 : 	terrain_texture_sea_colour_pass	= add_new_texture("NOISEMAP_WATER", "terrtype.c");

  000ed	68 00 00 00 00	 push	 OFFSET ??_C@_0L@GAEOMBKJ@terrtype?4c@
  000f2	68 00 00 00 00	 push	 OFFSET ??_C@_0P@CCNGCKHH@NOISEMAP_WATER@
  000f7	e8 00 00 00 00	 call	 ?add_new_texture@@YGHPBD0@Z ; add_new_texture
  000fc	a3 00 00 00 00	 mov	 DWORD PTR ?terrain_texture_sea_colour_pass@@3HA, eax

; 2450 : 	textures_with_noisemap[i++].gamma_correction = gamma;

  00101	8b 45 fc	 mov	 eax, DWORD PTR _i$[ebp]
  00104	f3 0f 10 45 e4	 movss	 xmm0, DWORD PTR _gamma$[ebp]
  00109	f3 0f 11 04 c5
	04 00 00 00	 movss	 DWORD PTR ?textures_with_noisemap@@3PAU<unnamed-type-textures_with_noisemap>@@A[eax*8+4], xmm0
  00112	8b 4d fc	 mov	 ecx, DWORD PTR _i$[ebp]
  00115	83 c1 01	 add	 ecx, 1
  00118	89 4d fc	 mov	 DWORD PTR _i$[ebp], ecx

; 2451 : 
; 2452 : 	terrain_texture_beach_detail = textures_with_noisemap[i].index = get_system_texture_index ( "TERRAIN_BEACH" );

  0011b	68 00 00 00 00	 push	 OFFSET ??_C@_0O@BBEHGFKB@TERRAIN_BEACH@
  00120	e8 00 00 00 00	 call	 ?get_system_texture_index@@YGHPBD@Z ; get_system_texture_index
  00125	89 45 9c	 mov	 DWORD PTR tv131[ebp], eax
  00128	8b 45 fc	 mov	 eax, DWORD PTR _i$[ebp]
  0012b	8b 4d 9c	 mov	 ecx, DWORD PTR tv131[ebp]
  0012e	89 0c c5 00 00
	00 00		 mov	 DWORD PTR ?textures_with_noisemap@@3PAU<unnamed-type-textures_with_noisemap>@@A[eax*8], ecx
  00135	8b 55 9c	 mov	 edx, DWORD PTR tv131[ebp]
  00138	89 15 00 00 00
	00		 mov	 DWORD PTR ?terrain_texture_beach_detail@@3HA, edx

; 2453 : 	terrain_texture_beach_colour_pass = add_new_texture("NOISEMAP_BEACH", "terrtype.c");

  0013e	68 00 00 00 00	 push	 OFFSET ??_C@_0L@GAEOMBKJ@terrtype?4c@
  00143	68 00 00 00 00	 push	 OFFSET ??_C@_0P@FHCKDOFL@NOISEMAP_BEACH@
  00148	e8 00 00 00 00	 call	 ?add_new_texture@@YGHPBD0@Z ; add_new_texture
  0014d	a3 00 00 00 00	 mov	 DWORD PTR ?terrain_texture_beach_colour_pass@@3HA, eax

; 2454 : 	textures_with_noisemap[i++].gamma_correction = gamma;

  00152	8b 45 fc	 mov	 eax, DWORD PTR _i$[ebp]
  00155	f3 0f 10 45 e4	 movss	 xmm0, DWORD PTR _gamma$[ebp]
  0015a	f3 0f 11 04 c5
	04 00 00 00	 movss	 DWORD PTR ?textures_with_noisemap@@3PAU<unnamed-type-textures_with_noisemap>@@A[eax*8+4], xmm0
  00163	8b 4d fc	 mov	 ecx, DWORD PTR _i$[ebp]
  00166	83 c1 01	 add	 ecx, 1
  00169	89 4d fc	 mov	 DWORD PTR _i$[ebp], ecx

; 2455 : 
; 2456 : 	terrain_texture_land_detail	= textures_with_noisemap[i].index = get_system_texture_index ( "TERRAIN_DETAIL_4" );

  0016c	68 00 00 00 00	 push	 OFFSET ??_C@_0BB@BDNEEDDA@TERRAIN_DETAIL_4@
  00171	e8 00 00 00 00	 call	 ?get_system_texture_index@@YGHPBD@Z ; get_system_texture_index
  00176	89 45 9c	 mov	 DWORD PTR tv143[ebp], eax
  00179	8b 45 fc	 mov	 eax, DWORD PTR _i$[ebp]
  0017c	8b 4d 9c	 mov	 ecx, DWORD PTR tv143[ebp]
  0017f	89 0c c5 00 00
	00 00		 mov	 DWORD PTR ?textures_with_noisemap@@3PAU<unnamed-type-textures_with_noisemap>@@A[eax*8], ecx
  00186	8b 55 9c	 mov	 edx, DWORD PTR tv143[ebp]
  00189	89 15 00 00 00
	00		 mov	 DWORD PTR ?terrain_texture_land_detail@@3HA, edx

; 2457 : 	terrain_texture_land_colour_pass = grass_noisemap;

  0018f	8b 45 f8	 mov	 eax, DWORD PTR _grass_noisemap$[ebp]
  00192	a3 00 00 00 00	 mov	 DWORD PTR ?terrain_texture_land_colour_pass@@3HA, eax

; 2458 : 	textures_with_noisemap[i++].gamma_correction = gamma;

  00197	8b 45 fc	 mov	 eax, DWORD PTR _i$[ebp]
  0019a	f3 0f 10 45 e4	 movss	 xmm0, DWORD PTR _gamma$[ebp]
  0019f	f3 0f 11 04 c5
	04 00 00 00	 movss	 DWORD PTR ?textures_with_noisemap@@3PAU<unnamed-type-textures_with_noisemap>@@A[eax*8+4], xmm0
  001a8	8b 4d fc	 mov	 ecx, DWORD PTR _i$[ebp]
  001ab	83 c1 01	 add	 ecx, 1
  001ae	89 4d fc	 mov	 DWORD PTR _i$[ebp], ecx

; 2459 : 
; 2460 : 	terrain_texture_altered_land1_detail = textures_with_noisemap[i].index = get_system_texture_index ( "TERRAIN_SCRUB" );

  001b1	68 00 00 00 00	 push	 OFFSET ??_C@_0O@PGGFIOAG@TERRAIN_SCRUB@
  001b6	e8 00 00 00 00	 call	 ?get_system_texture_index@@YGHPBD@Z ; get_system_texture_index
  001bb	89 45 9c	 mov	 DWORD PTR tv152[ebp], eax
  001be	8b 45 fc	 mov	 eax, DWORD PTR _i$[ebp]
  001c1	8b 4d 9c	 mov	 ecx, DWORD PTR tv152[ebp]
  001c4	89 0c c5 00 00
	00 00		 mov	 DWORD PTR ?textures_with_noisemap@@3PAU<unnamed-type-textures_with_noisemap>@@A[eax*8], ecx
  001cb	8b 55 9c	 mov	 edx, DWORD PTR tv152[ebp]
  001ce	89 15 00 00 00
	00		 mov	 DWORD PTR ?terrain_texture_altered_land1_detail@@3HA, edx

; 2461 : 	terrain_texture_altered_land1_colour_pass = grass_noisemap;

  001d4	8b 45 f8	 mov	 eax, DWORD PTR _grass_noisemap$[ebp]
  001d7	a3 00 00 00 00	 mov	 DWORD PTR ?terrain_texture_altered_land1_colour_pass@@3HA, eax

; 2462 : 	textures_with_noisemap[i++].gamma_correction = gamma;

  001dc	8b 45 fc	 mov	 eax, DWORD PTR _i$[ebp]
  001df	f3 0f 10 45 e4	 movss	 xmm0, DWORD PTR _gamma$[ebp]
  001e4	f3 0f 11 04 c5
	04 00 00 00	 movss	 DWORD PTR ?textures_with_noisemap@@3PAU<unnamed-type-textures_with_noisemap>@@A[eax*8+4], xmm0
  001ed	8b 4d fc	 mov	 ecx, DWORD PTR _i$[ebp]
  001f0	83 c1 01	 add	 ecx, 1
  001f3	89 4d fc	 mov	 DWORD PTR _i$[ebp], ecx

; 2463 : 
; 2464 : 	terrain_texture_altered_land2_detail = textures_with_noisemap[i].index = get_system_texture_index ( "TERRAIN_BARE_ROCK2" );

  001f6	68 00 00 00 00	 push	 OFFSET ??_C@_0BD@BMPINLKM@TERRAIN_BARE_ROCK2@
  001fb	e8 00 00 00 00	 call	 ?get_system_texture_index@@YGHPBD@Z ; get_system_texture_index
  00200	89 45 9c	 mov	 DWORD PTR tv161[ebp], eax
  00203	8b 45 fc	 mov	 eax, DWORD PTR _i$[ebp]
  00206	8b 4d 9c	 mov	 ecx, DWORD PTR tv161[ebp]
  00209	89 0c c5 00 00
	00 00		 mov	 DWORD PTR ?textures_with_noisemap@@3PAU<unnamed-type-textures_with_noisemap>@@A[eax*8], ecx
  00210	8b 55 9c	 mov	 edx, DWORD PTR tv161[ebp]
  00213	89 15 00 00 00
	00		 mov	 DWORD PTR ?terrain_texture_altered_land2_detail@@3HA, edx

; 2465 : 	terrain_texture_altered_land2_colour_pass = rock_noisemap;

  00219	8b 45 f4	 mov	 eax, DWORD PTR _rock_noisemap$[ebp]
  0021c	a3 00 00 00 00	 mov	 DWORD PTR ?terrain_texture_altered_land2_colour_pass@@3HA, eax

; 2466 : 	textures_with_noisemap[i++].gamma_correction = gamma;

  00221	8b 45 fc	 mov	 eax, DWORD PTR _i$[ebp]
  00224	f3 0f 10 45 e4	 movss	 xmm0, DWORD PTR _gamma$[ebp]
  00229	f3 0f 11 04 c5
	04 00 00 00	 movss	 DWORD PTR ?textures_with_noisemap@@3PAU<unnamed-type-textures_with_noisemap>@@A[eax*8+4], xmm0
  00232	8b 4d fc	 mov	 ecx, DWORD PTR _i$[ebp]
  00235	83 c1 01	 add	 ecx, 1
  00238	89 4d fc	 mov	 DWORD PTR _i$[ebp], ecx

; 2467 : 
; 2468 : 	terrain_texture_altered_land3_detail = textures_with_noisemap[i].index = get_system_texture_index ( "TERRAIN_SNOW" );

  0023b	68 00 00 00 00	 push	 OFFSET ??_C@_0N@JANIPHBF@TERRAIN_SNOW@
  00240	e8 00 00 00 00	 call	 ?get_system_texture_index@@YGHPBD@Z ; get_system_texture_index
  00245	89 45 9c	 mov	 DWORD PTR tv170[ebp], eax
  00248	8b 45 fc	 mov	 eax, DWORD PTR _i$[ebp]
  0024b	8b 4d 9c	 mov	 ecx, DWORD PTR tv170[ebp]
  0024e	89 0c c5 00 00
	00 00		 mov	 DWORD PTR ?textures_with_noisemap@@3PAU<unnamed-type-textures_with_noisemap>@@A[eax*8], ecx
  00255	8b 55 9c	 mov	 edx, DWORD PTR tv170[ebp]
  00258	89 15 00 00 00
	00		 mov	 DWORD PTR ?terrain_texture_altered_land3_detail@@3HA, edx

; 2469 : 	terrain_texture_altered_land3_colour_pass = grass_noisemap;

  0025e	8b 45 f8	 mov	 eax, DWORD PTR _grass_noisemap$[ebp]
  00261	a3 00 00 00 00	 mov	 DWORD PTR ?terrain_texture_altered_land3_colour_pass@@3HA, eax

; 2470 : 	textures_with_noisemap[i++].gamma_correction = gamma;

  00266	8b 45 fc	 mov	 eax, DWORD PTR _i$[ebp]
  00269	f3 0f 10 45 e4	 movss	 xmm0, DWORD PTR _gamma$[ebp]
  0026e	f3 0f 11 04 c5
	04 00 00 00	 movss	 DWORD PTR ?textures_with_noisemap@@3PAU<unnamed-type-textures_with_noisemap>@@A[eax*8+4], xmm0
  00277	8b 4d fc	 mov	 ecx, DWORD PTR _i$[ebp]
  0027a	83 c1 01	 add	 ecx, 1
  0027d	89 4d fc	 mov	 DWORD PTR _i$[ebp], ecx

; 2471 : 
; 2472 : 
; 2473 : 	terrain_texture_forest_detail = textures_with_noisemap[i].index = get_system_texture_index ( "TERRAIN_TREE_CANOPY_1" );

  00280	68 00 00 00 00	 push	 OFFSET ??_C@_0BG@EOMIBGLD@TERRAIN_TREE_CANOPY_1@
  00285	e8 00 00 00 00	 call	 ?get_system_texture_index@@YGHPBD@Z ; get_system_texture_index
  0028a	89 45 9c	 mov	 DWORD PTR tv179[ebp], eax
  0028d	8b 45 fc	 mov	 eax, DWORD PTR _i$[ebp]
  00290	8b 4d 9c	 mov	 ecx, DWORD PTR tv179[ebp]
  00293	89 0c c5 00 00
	00 00		 mov	 DWORD PTR ?textures_with_noisemap@@3PAU<unnamed-type-textures_with_noisemap>@@A[eax*8], ecx
  0029a	8b 55 9c	 mov	 edx, DWORD PTR tv179[ebp]
  0029d	89 15 00 00 00
	00		 mov	 DWORD PTR ?terrain_texture_forest_detail@@3HA, edx

; 2474 : 	terrain_texture_forest_colour_pass = tree_noisemap;

  002a3	8b 45 f0	 mov	 eax, DWORD PTR _tree_noisemap$[ebp]
  002a6	a3 00 00 00 00	 mov	 DWORD PTR ?terrain_texture_forest_colour_pass@@3HA, eax

; 2475 : 	textures_with_noisemap[i++].gamma_correction = gamma;

  002ab	8b 45 fc	 mov	 eax, DWORD PTR _i$[ebp]
  002ae	f3 0f 10 45 e4	 movss	 xmm0, DWORD PTR _gamma$[ebp]
  002b3	f3 0f 11 04 c5
	04 00 00 00	 movss	 DWORD PTR ?textures_with_noisemap@@3PAU<unnamed-type-textures_with_noisemap>@@A[eax*8+4], xmm0
  002bc	8b 4d fc	 mov	 ecx, DWORD PTR _i$[ebp]
  002bf	83 c1 01	 add	 ecx, 1
  002c2	89 4d fc	 mov	 DWORD PTR _i$[ebp], ecx

; 2476 : 
; 2477 : 	terrain_texture_forest_top_detail = textures_with_noisemap[i].index = get_system_texture_index ( "TERRAIN_TREE_CANOPY_LEBANON" );

  002c5	68 00 00 00 00	 push	 OFFSET ??_C@_0BM@NCJBOGKD@TERRAIN_TREE_CANOPY_LEBANON@
  002ca	e8 00 00 00 00	 call	 ?get_system_texture_index@@YGHPBD@Z ; get_system_texture_index
  002cf	89 45 9c	 mov	 DWORD PTR tv188[ebp], eax
  002d2	8b 45 fc	 mov	 eax, DWORD PTR _i$[ebp]
  002d5	8b 4d 9c	 mov	 ecx, DWORD PTR tv188[ebp]
  002d8	89 0c c5 00 00
	00 00		 mov	 DWORD PTR ?textures_with_noisemap@@3PAU<unnamed-type-textures_with_noisemap>@@A[eax*8], ecx
  002df	8b 55 9c	 mov	 edx, DWORD PTR tv188[ebp]
  002e2	89 15 00 00 00
	00		 mov	 DWORD PTR ?terrain_texture_forest_top_detail@@3HA, edx

; 2478 : 	terrain_texture_forest_top_colour_pass = tree_noisemap;

  002e8	8b 45 f0	 mov	 eax, DWORD PTR _tree_noisemap$[ebp]
  002eb	a3 00 00 00 00	 mov	 DWORD PTR ?terrain_texture_forest_top_colour_pass@@3HA, eax

; 2479 : 	textures_with_noisemap[i++].gamma_correction = gamma;

  002f0	8b 45 fc	 mov	 eax, DWORD PTR _i$[ebp]
  002f3	f3 0f 10 45 e4	 movss	 xmm0, DWORD PTR _gamma$[ebp]
  002f8	f3 0f 11 04 c5
	04 00 00 00	 movss	 DWORD PTR ?textures_with_noisemap@@3PAU<unnamed-type-textures_with_noisemap>@@A[eax*8+4], xmm0
  00301	8b 4d fc	 mov	 ecx, DWORD PTR _i$[ebp]
  00304	83 c1 01	 add	 ecx, 1
  00307	89 4d fc	 mov	 DWORD PTR _i$[ebp], ecx

; 2480 : 
; 2481 : 	terrain_texture_forest_middle_detail = textures_with_noisemap[i].index = get_system_texture_index ( "TERRAIN_SWAMP2" );

  0030a	68 00 00 00 00	 push	 OFFSET ??_C@_0P@DBONDBHL@TERRAIN_SWAMP2@
  0030f	e8 00 00 00 00	 call	 ?get_system_texture_index@@YGHPBD@Z ; get_system_texture_index
  00314	89 45 9c	 mov	 DWORD PTR tv229[ebp], eax
  00317	8b 45 fc	 mov	 eax, DWORD PTR _i$[ebp]
  0031a	8b 4d 9c	 mov	 ecx, DWORD PTR tv229[ebp]
  0031d	89 0c c5 00 00
	00 00		 mov	 DWORD PTR ?textures_with_noisemap@@3PAU<unnamed-type-textures_with_noisemap>@@A[eax*8], ecx
  00324	8b 55 9c	 mov	 edx, DWORD PTR tv229[ebp]
  00327	89 15 00 00 00
	00		 mov	 DWORD PTR ?terrain_texture_forest_middle_detail@@3HA, edx

; 2482 : 	terrain_texture_forest_middle_colour_pass = tree_noisemap;

  0032d	8b 45 f0	 mov	 eax, DWORD PTR _tree_noisemap$[ebp]
  00330	a3 00 00 00 00	 mov	 DWORD PTR ?terrain_texture_forest_middle_colour_pass@@3HA, eax

; 2483 : 	textures_with_noisemap[i++].gamma_correction = gamma;

  00335	8b 45 fc	 mov	 eax, DWORD PTR _i$[ebp]
  00338	f3 0f 10 45 e4	 movss	 xmm0, DWORD PTR _gamma$[ebp]
  0033d	f3 0f 11 04 c5
	04 00 00 00	 movss	 DWORD PTR ?textures_with_noisemap@@3PAU<unnamed-type-textures_with_noisemap>@@A[eax*8+4], xmm0
  00346	8b 4d fc	 mov	 ecx, DWORD PTR _i$[ebp]
  00349	83 c1 01	 add	 ecx, 1
  0034c	89 4d fc	 mov	 DWORD PTR _i$[ebp], ecx

; 2484 : 
; 2485 : 	terrain_texture_forest_bottom_detail = textures_with_noisemap[i].index = get_system_texture_index ( "TERRAIN_SWAMP1" );

  0034f	68 00 00 00 00	 push	 OFFSET ??_C@_0P@BKMAGCLI@TERRAIN_SWAMP1@
  00354	e8 00 00 00 00	 call	 ?get_system_texture_index@@YGHPBD@Z ; get_system_texture_index
  00359	89 45 9c	 mov	 DWORD PTR tv238[ebp], eax
  0035c	8b 45 fc	 mov	 eax, DWORD PTR _i$[ebp]
  0035f	8b 4d 9c	 mov	 ecx, DWORD PTR tv238[ebp]
  00362	89 0c c5 00 00
	00 00		 mov	 DWORD PTR ?textures_with_noisemap@@3PAU<unnamed-type-textures_with_noisemap>@@A[eax*8], ecx
  00369	8b 55 9c	 mov	 edx, DWORD PTR tv238[ebp]
  0036c	89 15 00 00 00
	00		 mov	 DWORD PTR ?terrain_texture_forest_bottom_detail@@3HA, edx

; 2486 : 	terrain_texture_forest_bottom_colour_pass = tree_noisemap;

  00372	8b 45 f0	 mov	 eax, DWORD PTR _tree_noisemap$[ebp]
  00375	a3 00 00 00 00	 mov	 DWORD PTR ?terrain_texture_forest_bottom_colour_pass@@3HA, eax

; 2487 : 	textures_with_noisemap[i++].gamma_correction = gamma;

  0037a	8b 45 fc	 mov	 eax, DWORD PTR _i$[ebp]
  0037d	f3 0f 10 45 e4	 movss	 xmm0, DWORD PTR _gamma$[ebp]
  00382	f3 0f 11 04 c5
	04 00 00 00	 movss	 DWORD PTR ?textures_with_noisemap@@3PAU<unnamed-type-textures_with_noisemap>@@A[eax*8+4], xmm0
  0038b	8b 4d fc	 mov	 ecx, DWORD PTR _i$[ebp]
  0038e	83 c1 01	 add	 ecx, 1
  00391	89 4d fc	 mov	 DWORD PTR _i$[ebp], ecx

; 2488 : 
; 2489 : 
; 2490 : 	terrain_texture_builtup_area1_detail = textures_with_noisemap[i].index = get_system_texture_index ( "TERRAIN_GRG_CITY4" );

  00394	68 00 00 00 00	 push	 OFFSET ??_C@_0BC@IFNGCBJM@TERRAIN_GRG_CITY4@
  00399	e8 00 00 00 00	 call	 ?get_system_texture_index@@YGHPBD@Z ; get_system_texture_index
  0039e	89 45 9c	 mov	 DWORD PTR tv247[ebp], eax
  003a1	8b 45 fc	 mov	 eax, DWORD PTR _i$[ebp]
  003a4	8b 4d 9c	 mov	 ecx, DWORD PTR tv247[ebp]
  003a7	89 0c c5 00 00
	00 00		 mov	 DWORD PTR ?textures_with_noisemap@@3PAU<unnamed-type-textures_with_noisemap>@@A[eax*8], ecx
  003ae	8b 55 9c	 mov	 edx, DWORD PTR tv247[ebp]
  003b1	89 15 00 00 00
	00		 mov	 DWORD PTR ?terrain_texture_builtup_area1_detail@@3HA, edx

; 2491 : 	terrain_texture_builtup_area1_colour_pass				= noisemap;

  003b7	8b 45 e8	 mov	 eax, DWORD PTR _noisemap$[ebp]
  003ba	a3 00 00 00 00	 mov	 DWORD PTR ?terrain_texture_builtup_area1_colour_pass@@3HA, eax

; 2492 : 	textures_with_noisemap[i++].gamma_correction = gamma2;

  003bf	8b 45 fc	 mov	 eax, DWORD PTR _i$[ebp]
  003c2	f3 0f 10 45 e0	 movss	 xmm0, DWORD PTR _gamma2$[ebp]
  003c7	f3 0f 11 04 c5
	04 00 00 00	 movss	 DWORD PTR ?textures_with_noisemap@@3PAU<unnamed-type-textures_with_noisemap>@@A[eax*8+4], xmm0
  003d0	8b 4d fc	 mov	 ecx, DWORD PTR _i$[ebp]
  003d3	83 c1 01	 add	 ecx, 1
  003d6	89 4d fc	 mov	 DWORD PTR _i$[ebp], ecx

; 2493 : 
; 2494 : 	terrain_texture_builtup_area2_detail = textures_with_noisemap[i].index = get_system_texture_index ( "TERRAIN_GRG_CITY3" );

  003d9	68 00 00 00 00	 push	 OFFSET ??_C@_0BC@MKJHLHFL@TERRAIN_GRG_CITY3@
  003de	e8 00 00 00 00	 call	 ?get_system_texture_index@@YGHPBD@Z ; get_system_texture_index
  003e3	89 45 9c	 mov	 DWORD PTR tv256[ebp], eax
  003e6	8b 45 fc	 mov	 eax, DWORD PTR _i$[ebp]
  003e9	8b 4d 9c	 mov	 ecx, DWORD PTR tv256[ebp]
  003ec	89 0c c5 00 00
	00 00		 mov	 DWORD PTR ?textures_with_noisemap@@3PAU<unnamed-type-textures_with_noisemap>@@A[eax*8], ecx
  003f3	8b 55 9c	 mov	 edx, DWORD PTR tv256[ebp]
  003f6	89 15 00 00 00
	00		 mov	 DWORD PTR ?terrain_texture_builtup_area2_detail@@3HA, edx

; 2495 : 	terrain_texture_builtup_area2_colour_pass				= noisemap;

  003fc	8b 45 e8	 mov	 eax, DWORD PTR _noisemap$[ebp]
  003ff	a3 00 00 00 00	 mov	 DWORD PTR ?terrain_texture_builtup_area2_colour_pass@@3HA, eax

; 2496 : 	textures_with_noisemap[i++].gamma_correction = gamma2;

  00404	8b 45 fc	 mov	 eax, DWORD PTR _i$[ebp]
  00407	f3 0f 10 45 e0	 movss	 xmm0, DWORD PTR _gamma2$[ebp]
  0040c	f3 0f 11 04 c5
	04 00 00 00	 movss	 DWORD PTR ?textures_with_noisemap@@3PAU<unnamed-type-textures_with_noisemap>@@A[eax*8+4], xmm0
  00415	8b 4d fc	 mov	 ecx, DWORD PTR _i$[ebp]
  00418	83 c1 01	 add	 ecx, 1
  0041b	89 4d fc	 mov	 DWORD PTR _i$[ebp], ecx

; 2497 : 
; 2498 : 	terrain_texture_builtup_area3_detail = textures_with_noisemap[i].index = get_system_texture_index ( "TERRAIN_GRG_CITY2" );

  0041e	68 00 00 00 00	 push	 OFFSET ??_C@_0BC@NDIMIGBK@TERRAIN_GRG_CITY2@
  00423	e8 00 00 00 00	 call	 ?get_system_texture_index@@YGHPBD@Z ; get_system_texture_index
  00428	89 45 9c	 mov	 DWORD PTR tv265[ebp], eax
  0042b	8b 45 fc	 mov	 eax, DWORD PTR _i$[ebp]
  0042e	8b 4d 9c	 mov	 ecx, DWORD PTR tv265[ebp]
  00431	89 0c c5 00 00
	00 00		 mov	 DWORD PTR ?textures_with_noisemap@@3PAU<unnamed-type-textures_with_noisemap>@@A[eax*8], ecx
  00438	8b 55 9c	 mov	 edx, DWORD PTR tv265[ebp]
  0043b	89 15 00 00 00
	00		 mov	 DWORD PTR ?terrain_texture_builtup_area3_detail@@3HA, edx

; 2499 : 	terrain_texture_builtup_area3_colour_pass				= noisemap;

  00441	8b 45 e8	 mov	 eax, DWORD PTR _noisemap$[ebp]
  00444	a3 00 00 00 00	 mov	 DWORD PTR ?terrain_texture_builtup_area3_colour_pass@@3HA, eax

; 2500 : 	textures_with_noisemap[i++].gamma_correction = gamma2;

  00449	8b 45 fc	 mov	 eax, DWORD PTR _i$[ebp]
  0044c	f3 0f 10 45 e0	 movss	 xmm0, DWORD PTR _gamma2$[ebp]
  00451	f3 0f 11 04 c5
	04 00 00 00	 movss	 DWORD PTR ?textures_with_noisemap@@3PAU<unnamed-type-textures_with_noisemap>@@A[eax*8+4], xmm0
  0045a	8b 4d fc	 mov	 ecx, DWORD PTR _i$[ebp]
  0045d	83 c1 01	 add	 ecx, 1
  00460	89 4d fc	 mov	 DWORD PTR _i$[ebp], ecx

; 2501 : 
; 2502 : 	terrain_texture_builtup_area4_detail = textures_with_noisemap[i].index = get_system_texture_index ( "TERRAIN_GRG_CITY1" );

  00463	68 00 00 00 00	 push	 OFFSET ??_C@_0BC@PIKBNFNJ@TERRAIN_GRG_CITY1@
  00468	e8 00 00 00 00	 call	 ?get_system_texture_index@@YGHPBD@Z ; get_system_texture_index
  0046d	89 45 9c	 mov	 DWORD PTR tv274[ebp], eax
  00470	8b 45 fc	 mov	 eax, DWORD PTR _i$[ebp]
  00473	8b 4d 9c	 mov	 ecx, DWORD PTR tv274[ebp]
  00476	89 0c c5 00 00
	00 00		 mov	 DWORD PTR ?textures_with_noisemap@@3PAU<unnamed-type-textures_with_noisemap>@@A[eax*8], ecx
  0047d	8b 55 9c	 mov	 edx, DWORD PTR tv274[ebp]
  00480	89 15 00 00 00
	00		 mov	 DWORD PTR ?terrain_texture_builtup_area4_detail@@3HA, edx

; 2503 : 	terrain_texture_builtup_area4_colour_pass				= noisemap;

  00486	8b 45 e8	 mov	 eax, DWORD PTR _noisemap$[ebp]
  00489	a3 00 00 00 00	 mov	 DWORD PTR ?terrain_texture_builtup_area4_colour_pass@@3HA, eax

; 2504 : 	textures_with_noisemap[i++].gamma_correction = gamma2;

  0048e	8b 45 fc	 mov	 eax, DWORD PTR _i$[ebp]
  00491	f3 0f 10 45 e0	 movss	 xmm0, DWORD PTR _gamma2$[ebp]
  00496	f3 0f 11 04 c5
	04 00 00 00	 movss	 DWORD PTR ?textures_with_noisemap@@3PAU<unnamed-type-textures_with_noisemap>@@A[eax*8+4], xmm0
  0049f	8b 4d fc	 mov	 ecx, DWORD PTR _i$[ebp]
  004a2	83 c1 01	 add	 ecx, 1
  004a5	89 4d fc	 mov	 DWORD PTR _i$[ebp], ecx

; 2505 : 
; 2506 : 	terrain_texture_builtup_area1_infrared_detail = get_system_texture_index ( "TERRAIN_BW_CITY4" );

  004a8	68 00 00 00 00	 push	 OFFSET ??_C@_0BB@IALPPKNP@TERRAIN_BW_CITY4@
  004ad	e8 00 00 00 00	 call	 ?get_system_texture_index@@YGHPBD@Z ; get_system_texture_index
  004b2	a3 00 00 00 00	 mov	 DWORD PTR ?terrain_texture_builtup_area1_infrared_detail@@3HA, eax

; 2507 : 	terrain_texture_builtup_area2_infrared_detail = get_system_texture_index ( "TERRAIN_BW_CITY3" );

  004b7	68 00 00 00 00	 push	 OFFSET ??_C@_0BB@MPPOGMBI@TERRAIN_BW_CITY3@
  004bc	e8 00 00 00 00	 call	 ?get_system_texture_index@@YGHPBD@Z ; get_system_texture_index
  004c1	a3 00 00 00 00	 mov	 DWORD PTR ?terrain_texture_builtup_area2_infrared_detail@@3HA, eax

; 2508 : 	terrain_texture_builtup_area3_infrared_detail = get_system_texture_index ( "TERRAIN_BW_CITY2" );

  004c6	68 00 00 00 00	 push	 OFFSET ??_C@_0BB@NGOFFNFJ@TERRAIN_BW_CITY2@
  004cb	e8 00 00 00 00	 call	 ?get_system_texture_index@@YGHPBD@Z ; get_system_texture_index
  004d0	a3 00 00 00 00	 mov	 DWORD PTR ?terrain_texture_builtup_area3_infrared_detail@@3HA, eax

; 2509 : 	terrain_texture_builtup_area4_infrared_detail = get_system_texture_index ( "TERRAIN_BW_CITY1" );

  004d5	68 00 00 00 00	 push	 OFFSET ??_C@_0BB@PNMIAOJK@TERRAIN_BW_CITY1@
  004da	e8 00 00 00 00	 call	 ?get_system_texture_index@@YGHPBD@Z ; get_system_texture_index
  004df	a3 00 00 00 00	 mov	 DWORD PTR ?terrain_texture_builtup_area4_infrared_detail@@3HA, eax

; 2510 : 	// IR view doesn't use second pass anyway
; 2511 : 	terrain_texture_builtup_area1_infrared_colour_pass	= terrain_texture_builtup_area1_infrared_detail;

  004e4	a1 00 00 00 00	 mov	 eax, DWORD PTR ?terrain_texture_builtup_area1_infrared_detail@@3HA
  004e9	a3 00 00 00 00	 mov	 DWORD PTR ?terrain_texture_builtup_area1_infrared_colour_pass@@3HA, eax

; 2512 : 	terrain_texture_builtup_area2_infrared_colour_pass	= terrain_texture_builtup_area2_infrared_detail;

  004ee	a1 00 00 00 00	 mov	 eax, DWORD PTR ?terrain_texture_builtup_area2_infrared_detail@@3HA
  004f3	a3 00 00 00 00	 mov	 DWORD PTR ?terrain_texture_builtup_area2_infrared_colour_pass@@3HA, eax

; 2513 : 	terrain_texture_builtup_area3_infrared_colour_pass	= terrain_texture_builtup_area3_infrared_detail;

  004f8	a1 00 00 00 00	 mov	 eax, DWORD PTR ?terrain_texture_builtup_area3_infrared_detail@@3HA
  004fd	a3 00 00 00 00	 mov	 DWORD PTR ?terrain_texture_builtup_area3_infrared_colour_pass@@3HA, eax

; 2514 : 	terrain_texture_builtup_area4_infrared_colour_pass	= terrain_texture_builtup_area4_infrared_detail;

  00502	a1 00 00 00 00	 mov	 eax, DWORD PTR ?terrain_texture_builtup_area4_infrared_detail@@3HA
  00507	a3 00 00 00 00	 mov	 DWORD PTR ?terrain_texture_builtup_area4_infrared_colour_pass@@3HA, eax

; 2515 : 
; 2516 : 
; 2517 : 	terrain_texture_road_detail	= textures_with_noisemap[i].index = get_system_texture_index ( "TERRAIN_DETAIL_ROAD" );

  0050c	68 00 00 00 00	 push	 OFFSET ??_C@_0BE@EOMJEIPI@TERRAIN_DETAIL_ROAD@
  00511	e8 00 00 00 00	 call	 ?get_system_texture_index@@YGHPBD@Z ; get_system_texture_index
  00516	89 45 9c	 mov	 DWORD PTR tv323[ebp], eax
  00519	8b 45 fc	 mov	 eax, DWORD PTR _i$[ebp]
  0051c	8b 4d 9c	 mov	 ecx, DWORD PTR tv323[ebp]
  0051f	89 0c c5 00 00
	00 00		 mov	 DWORD PTR ?textures_with_noisemap@@3PAU<unnamed-type-textures_with_noisemap>@@A[eax*8], ecx
  00526	8b 55 9c	 mov	 edx, DWORD PTR tv323[ebp]
  00529	89 15 00 00 00
	00		 mov	 DWORD PTR ?terrain_texture_road_detail@@3HA, edx

; 2518 : 	terrain_texture_road_colour_pass							= noisemap;

  0052f	8b 45 e8	 mov	 eax, DWORD PTR _noisemap$[ebp]
  00532	a3 00 00 00 00	 mov	 DWORD PTR ?terrain_texture_road_colour_pass@@3HA, eax

; 2519 : 	textures_with_noisemap[i++].gamma_correction = gamma2;

  00537	8b 45 fc	 mov	 eax, DWORD PTR _i$[ebp]
  0053a	f3 0f 10 45 e0	 movss	 xmm0, DWORD PTR _gamma2$[ebp]
  0053f	f3 0f 11 04 c5
	04 00 00 00	 movss	 DWORD PTR ?textures_with_noisemap@@3PAU<unnamed-type-textures_with_noisemap>@@A[eax*8+4], xmm0
  00548	8b 4d fc	 mov	 ecx, DWORD PTR _i$[ebp]
  0054b	83 c1 01	 add	 ecx, 1
  0054e	89 4d fc	 mov	 DWORD PTR _i$[ebp], ecx

; 2520 : 
; 2521 : 	terrain_texture_road_bank_detail = textures_with_noisemap[i].index = get_system_texture_index ( "TERRAIN_DETAIL_LEBANON" );

  00551	68 00 00 00 00	 push	 OFFSET ??_C@_0BH@IMANJLMO@TERRAIN_DETAIL_LEBANON@
  00556	e8 00 00 00 00	 call	 ?get_system_texture_index@@YGHPBD@Z ; get_system_texture_index
  0055b	89 45 9c	 mov	 DWORD PTR tv332[ebp], eax
  0055e	8b 45 fc	 mov	 eax, DWORD PTR _i$[ebp]
  00561	8b 4d 9c	 mov	 ecx, DWORD PTR tv332[ebp]
  00564	89 0c c5 00 00
	00 00		 mov	 DWORD PTR ?textures_with_noisemap@@3PAU<unnamed-type-textures_with_noisemap>@@A[eax*8], ecx
  0056b	8b 55 9c	 mov	 edx, DWORD PTR tv332[ebp]
  0056e	89 15 00 00 00
	00		 mov	 DWORD PTR ?terrain_texture_road_bank_detail@@3HA, edx

; 2522 : 	terrain_texture_road_bank_colour_pass					= noisemap;

  00574	8b 45 e8	 mov	 eax, DWORD PTR _noisemap$[ebp]
  00577	a3 00 00 00 00	 mov	 DWORD PTR ?terrain_texture_road_bank_colour_pass@@3HA, eax

; 2523 : 	textures_with_noisemap[i++].gamma_correction = gamma2;

  0057c	8b 45 fc	 mov	 eax, DWORD PTR _i$[ebp]
  0057f	f3 0f 10 45 e0	 movss	 xmm0, DWORD PTR _gamma2$[ebp]
  00584	f3 0f 11 04 c5
	04 00 00 00	 movss	 DWORD PTR ?textures_with_noisemap@@3PAU<unnamed-type-textures_with_noisemap>@@A[eax*8+4], xmm0
  0058d	8b 4d fc	 mov	 ecx, DWORD PTR _i$[ebp]
  00590	83 c1 01	 add	 ecx, 1
  00593	89 4d fc	 mov	 DWORD PTR _i$[ebp], ecx

; 2524 : 
; 2525 : 	terrain_texture_river_detail  = textures_with_noisemap[i].index	= get_system_texture_index ( "TERRAIN_RIVER" );

  00596	68 00 00 00 00	 push	 OFFSET ??_C@_0O@KOAPGDHE@TERRAIN_RIVER@
  0059b	e8 00 00 00 00	 call	 ?get_system_texture_index@@YGHPBD@Z ; get_system_texture_index
  005a0	89 45 9c	 mov	 DWORD PTR tv341[ebp], eax
  005a3	8b 45 fc	 mov	 eax, DWORD PTR _i$[ebp]
  005a6	8b 4d 9c	 mov	 ecx, DWORD PTR tv341[ebp]
  005a9	89 0c c5 00 00
	00 00		 mov	 DWORD PTR ?textures_with_noisemap@@3PAU<unnamed-type-textures_with_noisemap>@@A[eax*8], ecx
  005b0	8b 55 9c	 mov	 edx, DWORD PTR tv341[ebp]
  005b3	89 15 00 00 00
	00		 mov	 DWORD PTR ?terrain_texture_river_detail@@3HA, edx

; 2526 : 	terrain_texture_river_colour_pass						=noisemap;

  005b9	8b 45 e8	 mov	 eax, DWORD PTR _noisemap$[ebp]
  005bc	a3 00 00 00 00	 mov	 DWORD PTR ?terrain_texture_river_colour_pass@@3HA, eax

; 2527 : 	textures_with_noisemap[i++].gamma_correction = gamma;

  005c1	8b 45 fc	 mov	 eax, DWORD PTR _i$[ebp]
  005c4	f3 0f 10 45 e4	 movss	 xmm0, DWORD PTR _gamma$[ebp]
  005c9	f3 0f 11 04 c5
	04 00 00 00	 movss	 DWORD PTR ?textures_with_noisemap@@3PAU<unnamed-type-textures_with_noisemap>@@A[eax*8+4], xmm0
  005d2	8b 4d fc	 mov	 ecx, DWORD PTR _i$[ebp]
  005d5	83 c1 01	 add	 ecx, 1
  005d8	89 4d fc	 mov	 DWORD PTR _i$[ebp], ecx

; 2528 : 
; 2529 : 	terrain_texture_river_bank_detail = textures_with_noisemap[i].index = get_system_texture_index ( "TERRAIN_HIGHLAND" );

  005db	68 00 00 00 00	 push	 OFFSET ??_C@_0BB@NLCHJFOM@TERRAIN_HIGHLAND@
  005e0	e8 00 00 00 00	 call	 ?get_system_texture_index@@YGHPBD@Z ; get_system_texture_index
  005e5	89 45 9c	 mov	 DWORD PTR tv350[ebp], eax
  005e8	8b 45 fc	 mov	 eax, DWORD PTR _i$[ebp]
  005eb	8b 4d 9c	 mov	 ecx, DWORD PTR tv350[ebp]
  005ee	89 0c c5 00 00
	00 00		 mov	 DWORD PTR ?textures_with_noisemap@@3PAU<unnamed-type-textures_with_noisemap>@@A[eax*8], ecx
  005f5	8b 55 9c	 mov	 edx, DWORD PTR tv350[ebp]
  005f8	89 15 00 00 00
	00		 mov	 DWORD PTR ?terrain_texture_river_bank_detail@@3HA, edx

; 2530 : 	terrain_texture_river_bank_colour_pass					= field_noise;

  005fe	8b 45 ec	 mov	 eax, DWORD PTR _field_noise$[ebp]
  00601	a3 00 00 00 00	 mov	 DWORD PTR ?terrain_texture_river_bank_colour_pass@@3HA, eax

; 2531 : 	textures_with_noisemap[i++].gamma_correction = gamma;

  00606	8b 45 fc	 mov	 eax, DWORD PTR _i$[ebp]
  00609	f3 0f 10 45 e4	 movss	 xmm0, DWORD PTR _gamma$[ebp]
  0060e	f3 0f 11 04 c5
	04 00 00 00	 movss	 DWORD PTR ?textures_with_noisemap@@3PAU<unnamed-type-textures_with_noisemap>@@A[eax*8+4], xmm0
  00617	8b 4d fc	 mov	 ecx, DWORD PTR _i$[ebp]
  0061a	83 c1 01	 add	 ecx, 1
  0061d	89 4d fc	 mov	 DWORD PTR _i$[ebp], ecx

; 2532 : 
; 2533 : 	terrain_texture_track_detail = textures_with_noisemap[i].index = get_system_texture_index ( "TERRAIN_THAI_TRACK" );

  00620	68 00 00 00 00	 push	 OFFSET ??_C@_0BD@HAICHOLH@TERRAIN_THAI_TRACK@
  00625	e8 00 00 00 00	 call	 ?get_system_texture_index@@YGHPBD@Z ; get_system_texture_index
  0062a	89 45 9c	 mov	 DWORD PTR tv359[ebp], eax
  0062d	8b 45 fc	 mov	 eax, DWORD PTR _i$[ebp]
  00630	8b 4d 9c	 mov	 ecx, DWORD PTR tv359[ebp]
  00633	89 0c c5 00 00
	00 00		 mov	 DWORD PTR ?textures_with_noisemap@@3PAU<unnamed-type-textures_with_noisemap>@@A[eax*8], ecx
  0063a	8b 55 9c	 mov	 edx, DWORD PTR tv359[ebp]
  0063d	89 15 00 00 00
	00		 mov	 DWORD PTR ?terrain_texture_track_detail@@3HA, edx

; 2534 : 	terrain_texture_track_colour_pass						= field_noise;

  00643	8b 45 ec	 mov	 eax, DWORD PTR _field_noise$[ebp]
  00646	a3 00 00 00 00	 mov	 DWORD PTR ?terrain_texture_track_colour_pass@@3HA, eax

; 2535 : 	textures_with_noisemap[i++].gamma_correction = gamma;

  0064b	8b 45 fc	 mov	 eax, DWORD PTR _i$[ebp]
  0064e	f3 0f 10 45 e4	 movss	 xmm0, DWORD PTR _gamma$[ebp]
  00653	f3 0f 11 04 c5
	04 00 00 00	 movss	 DWORD PTR ?textures_with_noisemap@@3PAU<unnamed-type-textures_with_noisemap>@@A[eax*8+4], xmm0
  0065c	8b 4d fc	 mov	 ecx, DWORD PTR _i$[ebp]
  0065f	83 c1 01	 add	 ecx, 1
  00662	89 4d fc	 mov	 DWORD PTR _i$[ebp], ecx

; 2536 : 
; 2537 : 	terrain_texture_field1_detail = textures_with_noisemap[i].index = get_system_texture_index ( "TERRAIN_MUSTARDFIELD" );

  00665	68 00 00 00 00	 push	 OFFSET ??_C@_0BF@GFEKLLKL@TERRAIN_MUSTARDFIELD@
  0066a	e8 00 00 00 00	 call	 ?get_system_texture_index@@YGHPBD@Z ; get_system_texture_index
  0066f	89 45 9c	 mov	 DWORD PTR tv368[ebp], eax
  00672	8b 45 fc	 mov	 eax, DWORD PTR _i$[ebp]
  00675	8b 4d 9c	 mov	 ecx, DWORD PTR tv368[ebp]
  00678	89 0c c5 00 00
	00 00		 mov	 DWORD PTR ?textures_with_noisemap@@3PAU<unnamed-type-textures_with_noisemap>@@A[eax*8], ecx
  0067f	8b 55 9c	 mov	 edx, DWORD PTR tv368[ebp]
  00682	89 15 00 00 00
	00		 mov	 DWORD PTR ?terrain_texture_field1_detail@@3HA, edx

; 2538 : 	terrain_texture_field1_colour_pass						= field_noise;

  00688	8b 45 ec	 mov	 eax, DWORD PTR _field_noise$[ebp]
  0068b	a3 00 00 00 00	 mov	 DWORD PTR ?terrain_texture_field1_colour_pass@@3HA, eax

; 2539 : 	textures_with_noisemap[i++].gamma_correction = gamma;

  00690	8b 45 fc	 mov	 eax, DWORD PTR _i$[ebp]
  00693	f3 0f 10 45 e4	 movss	 xmm0, DWORD PTR _gamma$[ebp]
  00698	f3 0f 11 04 c5
	04 00 00 00	 movss	 DWORD PTR ?textures_with_noisemap@@3PAU<unnamed-type-textures_with_noisemap>@@A[eax*8+4], xmm0
  006a1	8b 4d fc	 mov	 ecx, DWORD PTR _i$[ebp]
  006a4	83 c1 01	 add	 ecx, 1
  006a7	89 4d fc	 mov	 DWORD PTR _i$[ebp], ecx

; 2540 : 
; 2541 : 	terrain_texture_field2_detail = textures_with_noisemap[i].index = get_system_texture_index ( "TERRAIN_PLOUGHED1FIELD" );

  006aa	68 00 00 00 00	 push	 OFFSET ??_C@_0BH@JNGNCFED@TERRAIN_PLOUGHED1FIELD@
  006af	e8 00 00 00 00	 call	 ?get_system_texture_index@@YGHPBD@Z ; get_system_texture_index
  006b4	89 45 9c	 mov	 DWORD PTR tv377[ebp], eax
  006b7	8b 45 fc	 mov	 eax, DWORD PTR _i$[ebp]
  006ba	8b 4d 9c	 mov	 ecx, DWORD PTR tv377[ebp]
  006bd	89 0c c5 00 00
	00 00		 mov	 DWORD PTR ?textures_with_noisemap@@3PAU<unnamed-type-textures_with_noisemap>@@A[eax*8], ecx
  006c4	8b 55 9c	 mov	 edx, DWORD PTR tv377[ebp]
  006c7	89 15 00 00 00
	00		 mov	 DWORD PTR ?terrain_texture_field2_detail@@3HA, edx

; 2542 : 	terrain_texture_field2_colour_pass						= field_noise;

  006cd	8b 45 ec	 mov	 eax, DWORD PTR _field_noise$[ebp]
  006d0	a3 00 00 00 00	 mov	 DWORD PTR ?terrain_texture_field2_colour_pass@@3HA, eax

; 2543 : 	textures_with_noisemap[i++].gamma_correction = gamma;

  006d5	8b 45 fc	 mov	 eax, DWORD PTR _i$[ebp]
  006d8	f3 0f 10 45 e4	 movss	 xmm0, DWORD PTR _gamma$[ebp]
  006dd	f3 0f 11 04 c5
	04 00 00 00	 movss	 DWORD PTR ?textures_with_noisemap@@3PAU<unnamed-type-textures_with_noisemap>@@A[eax*8+4], xmm0
  006e6	8b 4d fc	 mov	 ecx, DWORD PTR _i$[ebp]
  006e9	83 c1 01	 add	 ecx, 1
  006ec	89 4d fc	 mov	 DWORD PTR _i$[ebp], ecx

; 2544 : 
; 2545 : 	terrain_texture_field3_detail = textures_with_noisemap[i].index = get_system_texture_index ( "TERRAIN_PLOUGHED2FIELD" );

  006ef	68 00 00 00 00	 push	 OFFSET ??_C@_0BH@KMIFDPNO@TERRAIN_PLOUGHED2FIELD@
  006f4	e8 00 00 00 00	 call	 ?get_system_texture_index@@YGHPBD@Z ; get_system_texture_index
  006f9	89 45 9c	 mov	 DWORD PTR tv386[ebp], eax
  006fc	8b 45 fc	 mov	 eax, DWORD PTR _i$[ebp]
  006ff	8b 4d 9c	 mov	 ecx, DWORD PTR tv386[ebp]
  00702	89 0c c5 00 00
	00 00		 mov	 DWORD PTR ?textures_with_noisemap@@3PAU<unnamed-type-textures_with_noisemap>@@A[eax*8], ecx
  00709	8b 55 9c	 mov	 edx, DWORD PTR tv386[ebp]
  0070c	89 15 00 00 00
	00		 mov	 DWORD PTR ?terrain_texture_field3_detail@@3HA, edx

; 2546 : 	terrain_texture_field3_colour_pass						= field_noise;

  00712	8b 45 ec	 mov	 eax, DWORD PTR _field_noise$[ebp]
  00715	a3 00 00 00 00	 mov	 DWORD PTR ?terrain_texture_field3_colour_pass@@3HA, eax

; 2547 : 	textures_with_noisemap[i++].gamma_correction = gamma;

  0071a	8b 45 fc	 mov	 eax, DWORD PTR _i$[ebp]
  0071d	f3 0f 10 45 e4	 movss	 xmm0, DWORD PTR _gamma$[ebp]
  00722	f3 0f 11 04 c5
	04 00 00 00	 movss	 DWORD PTR ?textures_with_noisemap@@3PAU<unnamed-type-textures_with_noisemap>@@A[eax*8+4], xmm0
  0072b	8b 4d fc	 mov	 ecx, DWORD PTR _i$[ebp]
  0072e	83 c1 01	 add	 ecx, 1
  00731	89 4d fc	 mov	 DWORD PTR _i$[ebp], ecx

; 2548 : 
; 2549 : 	terrain_texture_field4_detail = textures_with_noisemap[i].index = get_system_texture_index ( "TERRAIN_CORNFIELD" );

  00734	68 00 00 00 00	 push	 OFFSET ??_C@_0BC@KJPKDFNB@TERRAIN_CORNFIELD@
  00739	e8 00 00 00 00	 call	 ?get_system_texture_index@@YGHPBD@Z ; get_system_texture_index
  0073e	89 45 9c	 mov	 DWORD PTR tv395[ebp], eax
  00741	8b 45 fc	 mov	 eax, DWORD PTR _i$[ebp]
  00744	8b 4d 9c	 mov	 ecx, DWORD PTR tv395[ebp]
  00747	89 0c c5 00 00
	00 00		 mov	 DWORD PTR ?textures_with_noisemap@@3PAU<unnamed-type-textures_with_noisemap>@@A[eax*8], ecx
  0074e	8b 55 9c	 mov	 edx, DWORD PTR tv395[ebp]
  00751	89 15 00 00 00
	00		 mov	 DWORD PTR ?terrain_texture_field4_detail@@3HA, edx

; 2550 : 	terrain_texture_field4_colour_pass						= field_noise;

  00757	8b 45 ec	 mov	 eax, DWORD PTR _field_noise$[ebp]
  0075a	a3 00 00 00 00	 mov	 DWORD PTR ?terrain_texture_field4_colour_pass@@3HA, eax

; 2551 : 	textures_with_noisemap[i++].gamma_correction = gamma;

  0075f	8b 45 fc	 mov	 eax, DWORD PTR _i$[ebp]
  00762	f3 0f 10 45 e4	 movss	 xmm0, DWORD PTR _gamma$[ebp]
  00767	f3 0f 11 04 c5
	04 00 00 00	 movss	 DWORD PTR ?textures_with_noisemap@@3PAU<unnamed-type-textures_with_noisemap>@@A[eax*8+4], xmm0
  00770	8b 4d fc	 mov	 ecx, DWORD PTR _i$[ebp]
  00773	83 c1 01	 add	 ecx, 1
  00776	89 4d fc	 mov	 DWORD PTR _i$[ebp], ecx

; 2552 : 
; 2553 : 	terrain_texture_field5_detail =  textures_with_noisemap[i].index = get_system_texture_index ( "TERRAIN_WHEATFIELD" );

  00779	68 00 00 00 00	 push	 OFFSET ??_C@_0BD@DPOGMPFD@TERRAIN_WHEATFIELD@
  0077e	e8 00 00 00 00	 call	 ?get_system_texture_index@@YGHPBD@Z ; get_system_texture_index
  00783	89 45 9c	 mov	 DWORD PTR tv404[ebp], eax
  00786	8b 45 fc	 mov	 eax, DWORD PTR _i$[ebp]
  00789	8b 4d 9c	 mov	 ecx, DWORD PTR tv404[ebp]
  0078c	89 0c c5 00 00
	00 00		 mov	 DWORD PTR ?textures_with_noisemap@@3PAU<unnamed-type-textures_with_noisemap>@@A[eax*8], ecx
  00793	8b 55 9c	 mov	 edx, DWORD PTR tv404[ebp]
  00796	89 15 00 00 00
	00		 mov	 DWORD PTR ?terrain_texture_field5_detail@@3HA, edx

; 2554 : 	terrain_texture_field5_colour_pass						= field_noise;

  0079c	8b 45 ec	 mov	 eax, DWORD PTR _field_noise$[ebp]
  0079f	a3 00 00 00 00	 mov	 DWORD PTR ?terrain_texture_field5_colour_pass@@3HA, eax

; 2555 : 	textures_with_noisemap[i++].gamma_correction = gamma;

  007a4	8b 45 fc	 mov	 eax, DWORD PTR _i$[ebp]
  007a7	f3 0f 10 45 e4	 movss	 xmm0, DWORD PTR _gamma$[ebp]
  007ac	f3 0f 11 04 c5
	04 00 00 00	 movss	 DWORD PTR ?textures_with_noisemap@@3PAU<unnamed-type-textures_with_noisemap>@@A[eax*8+4], xmm0
  007b5	8b 4d fc	 mov	 ecx, DWORD PTR _i$[ebp]
  007b8	83 c1 01	 add	 ecx, 1
  007bb	89 4d fc	 mov	 DWORD PTR _i$[ebp], ecx

; 2556 : 
; 2557 : 	terrain_texture_field6_detail = textures_with_noisemap[i].index = get_system_texture_index ( "TERRAIN_LIGHTGREENFIELD" );

  007be	68 00 00 00 00	 push	 OFFSET ??_C@_0BI@KPJCKJLC@TERRAIN_LIGHTGREENFIELD@
  007c3	e8 00 00 00 00	 call	 ?get_system_texture_index@@YGHPBD@Z ; get_system_texture_index
  007c8	89 45 9c	 mov	 DWORD PTR tv413[ebp], eax
  007cb	8b 45 fc	 mov	 eax, DWORD PTR _i$[ebp]
  007ce	8b 4d 9c	 mov	 ecx, DWORD PTR tv413[ebp]
  007d1	89 0c c5 00 00
	00 00		 mov	 DWORD PTR ?textures_with_noisemap@@3PAU<unnamed-type-textures_with_noisemap>@@A[eax*8], ecx
  007d8	8b 55 9c	 mov	 edx, DWORD PTR tv413[ebp]
  007db	89 15 00 00 00
	00		 mov	 DWORD PTR ?terrain_texture_field6_detail@@3HA, edx

; 2558 : 	terrain_texture_field6_colour_pass						= field_noise;

  007e1	8b 45 ec	 mov	 eax, DWORD PTR _field_noise$[ebp]
  007e4	a3 00 00 00 00	 mov	 DWORD PTR ?terrain_texture_field6_colour_pass@@3HA, eax

; 2559 : 	textures_with_noisemap[i++].gamma_correction = gamma;

  007e9	8b 45 fc	 mov	 eax, DWORD PTR _i$[ebp]
  007ec	f3 0f 10 45 e4	 movss	 xmm0, DWORD PTR _gamma$[ebp]
  007f1	f3 0f 11 04 c5
	04 00 00 00	 movss	 DWORD PTR ?textures_with_noisemap@@3PAU<unnamed-type-textures_with_noisemap>@@A[eax*8+4], xmm0
  007fa	8b 4d fc	 mov	 ecx, DWORD PTR _i$[ebp]
  007fd	83 c1 01	 add	 ecx, 1
  00800	89 4d fc	 mov	 DWORD PTR _i$[ebp], ecx

; 2560 : 
; 2561 : 	terrain_texture_field7_detail = textures_with_noisemap[i].index = get_system_texture_index ( "TERRAIN_DARKGREENFIELD" );

  00803	68 00 00 00 00	 push	 OFFSET ??_C@_0BH@BEINOGAP@TERRAIN_DARKGREENFIELD@
  00808	e8 00 00 00 00	 call	 ?get_system_texture_index@@YGHPBD@Z ; get_system_texture_index
  0080d	89 45 9c	 mov	 DWORD PTR tv454[ebp], eax
  00810	8b 45 fc	 mov	 eax, DWORD PTR _i$[ebp]
  00813	8b 4d 9c	 mov	 ecx, DWORD PTR tv454[ebp]
  00816	89 0c c5 00 00
	00 00		 mov	 DWORD PTR ?textures_with_noisemap@@3PAU<unnamed-type-textures_with_noisemap>@@A[eax*8], ecx
  0081d	8b 55 9c	 mov	 edx, DWORD PTR tv454[ebp]
  00820	89 15 00 00 00
	00		 mov	 DWORD PTR ?terrain_texture_field7_detail@@3HA, edx

; 2562 : 	terrain_texture_field7_colour_pass						= field_noise;

  00826	8b 45 ec	 mov	 eax, DWORD PTR _field_noise$[ebp]
  00829	a3 00 00 00 00	 mov	 DWORD PTR ?terrain_texture_field7_colour_pass@@3HA, eax

; 2563 : 	textures_with_noisemap[i++].gamma_correction = gamma;

  0082e	8b 45 fc	 mov	 eax, DWORD PTR _i$[ebp]
  00831	f3 0f 10 45 e4	 movss	 xmm0, DWORD PTR _gamma$[ebp]
  00836	f3 0f 11 04 c5
	04 00 00 00	 movss	 DWORD PTR ?textures_with_noisemap@@3PAU<unnamed-type-textures_with_noisemap>@@A[eax*8+4], xmm0
  0083f	8b 4d fc	 mov	 ecx, DWORD PTR _i$[ebp]
  00842	83 c1 01	 add	 ecx, 1
  00845	89 4d fc	 mov	 DWORD PTR _i$[ebp], ecx

; 2564 : 
; 2565 : 	terrain_texture_field8_detail = textures_with_noisemap[i].index = get_system_texture_index ( "TERRAIN_MUSTARDFIELD" );

  00848	68 00 00 00 00	 push	 OFFSET ??_C@_0BF@GFEKLLKL@TERRAIN_MUSTARDFIELD@
  0084d	e8 00 00 00 00	 call	 ?get_system_texture_index@@YGHPBD@Z ; get_system_texture_index
  00852	89 45 9c	 mov	 DWORD PTR tv463[ebp], eax
  00855	8b 45 fc	 mov	 eax, DWORD PTR _i$[ebp]
  00858	8b 4d 9c	 mov	 ecx, DWORD PTR tv463[ebp]
  0085b	89 0c c5 00 00
	00 00		 mov	 DWORD PTR ?textures_with_noisemap@@3PAU<unnamed-type-textures_with_noisemap>@@A[eax*8], ecx
  00862	8b 55 9c	 mov	 edx, DWORD PTR tv463[ebp]
  00865	89 15 00 00 00
	00		 mov	 DWORD PTR ?terrain_texture_field8_detail@@3HA, edx

; 2566 : 	terrain_texture_field8_colour_pass						= field_noise;

  0086b	8b 45 ec	 mov	 eax, DWORD PTR _field_noise$[ebp]
  0086e	a3 00 00 00 00	 mov	 DWORD PTR ?terrain_texture_field8_colour_pass@@3HA, eax

; 2567 : 	textures_with_noisemap[i++].gamma_correction = gamma;

  00873	8b 45 fc	 mov	 eax, DWORD PTR _i$[ebp]
  00876	f3 0f 10 45 e4	 movss	 xmm0, DWORD PTR _gamma$[ebp]
  0087b	f3 0f 11 04 c5
	04 00 00 00	 movss	 DWORD PTR ?textures_with_noisemap@@3PAU<unnamed-type-textures_with_noisemap>@@A[eax*8+4], xmm0
  00884	8b 4d fc	 mov	 ecx, DWORD PTR _i$[ebp]
  00887	83 c1 01	 add	 ecx, 1
  0088a	89 4d fc	 mov	 DWORD PTR _i$[ebp], ecx

; 2568 : 
; 2569 : 	terrain_texture_field9_detail = textures_with_noisemap[i].index = get_system_texture_index ( "TERRAIN_PLOUGHED1FIELD" );

  0088d	68 00 00 00 00	 push	 OFFSET ??_C@_0BH@JNGNCFED@TERRAIN_PLOUGHED1FIELD@
  00892	e8 00 00 00 00	 call	 ?get_system_texture_index@@YGHPBD@Z ; get_system_texture_index
  00897	89 45 9c	 mov	 DWORD PTR tv472[ebp], eax
  0089a	8b 45 fc	 mov	 eax, DWORD PTR _i$[ebp]
  0089d	8b 4d 9c	 mov	 ecx, DWORD PTR tv472[ebp]
  008a0	89 0c c5 00 00
	00 00		 mov	 DWORD PTR ?textures_with_noisemap@@3PAU<unnamed-type-textures_with_noisemap>@@A[eax*8], ecx
  008a7	8b 55 9c	 mov	 edx, DWORD PTR tv472[ebp]
  008aa	89 15 00 00 00
	00		 mov	 DWORD PTR ?terrain_texture_field9_detail@@3HA, edx

; 2570 : 	terrain_texture_field9_colour_pass						= field_noise;

  008b0	8b 45 ec	 mov	 eax, DWORD PTR _field_noise$[ebp]
  008b3	a3 00 00 00 00	 mov	 DWORD PTR ?terrain_texture_field9_colour_pass@@3HA, eax

; 2571 : 	textures_with_noisemap[i++].gamma_correction = gamma;

  008b8	8b 45 fc	 mov	 eax, DWORD PTR _i$[ebp]
  008bb	f3 0f 10 45 e4	 movss	 xmm0, DWORD PTR _gamma$[ebp]
  008c0	f3 0f 11 04 c5
	04 00 00 00	 movss	 DWORD PTR ?textures_with_noisemap@@3PAU<unnamed-type-textures_with_noisemap>@@A[eax*8+4], xmm0
  008c9	8b 4d fc	 mov	 ecx, DWORD PTR _i$[ebp]
  008cc	83 c1 01	 add	 ecx, 1
  008cf	89 4d fc	 mov	 DWORD PTR _i$[ebp], ecx

; 2572 : 
; 2573 : 	terrain_texture_field10_detail = textures_with_noisemap[i].index = get_system_texture_index ( "TERRAIN_PLOUGHED2FIELD" );

  008d2	68 00 00 00 00	 push	 OFFSET ??_C@_0BH@KMIFDPNO@TERRAIN_PLOUGHED2FIELD@
  008d7	e8 00 00 00 00	 call	 ?get_system_texture_index@@YGHPBD@Z ; get_system_texture_index
  008dc	89 45 9c	 mov	 DWORD PTR tv481[ebp], eax
  008df	8b 45 fc	 mov	 eax, DWORD PTR _i$[ebp]
  008e2	8b 4d 9c	 mov	 ecx, DWORD PTR tv481[ebp]
  008e5	89 0c c5 00 00
	00 00		 mov	 DWORD PTR ?textures_with_noisemap@@3PAU<unnamed-type-textures_with_noisemap>@@A[eax*8], ecx
  008ec	8b 55 9c	 mov	 edx, DWORD PTR tv481[ebp]
  008ef	89 15 00 00 00
	00		 mov	 DWORD PTR ?terrain_texture_field10_detail@@3HA, edx

; 2574 : 	terrain_texture_field10_colour_pass						= field_noise;

  008f5	8b 45 ec	 mov	 eax, DWORD PTR _field_noise$[ebp]
  008f8	a3 00 00 00 00	 mov	 DWORD PTR ?terrain_texture_field10_colour_pass@@3HA, eax

; 2575 : 	textures_with_noisemap[i++].gamma_correction = gamma;

  008fd	8b 45 fc	 mov	 eax, DWORD PTR _i$[ebp]
  00900	f3 0f 10 45 e4	 movss	 xmm0, DWORD PTR _gamma$[ebp]
  00905	f3 0f 11 04 c5
	04 00 00 00	 movss	 DWORD PTR ?textures_with_noisemap@@3PAU<unnamed-type-textures_with_noisemap>@@A[eax*8+4], xmm0
  0090e	8b 4d fc	 mov	 ecx, DWORD PTR _i$[ebp]
  00911	83 c1 01	 add	 ecx, 1
  00914	89 4d fc	 mov	 DWORD PTR _i$[ebp], ecx

; 2576 : 
; 2577 : 	terrain_texture_field11_detail = textures_with_noisemap[i].index = get_system_texture_index ( "TERRAIN_CORNFIELD" );

  00917	68 00 00 00 00	 push	 OFFSET ??_C@_0BC@KJPKDFNB@TERRAIN_CORNFIELD@
  0091c	e8 00 00 00 00	 call	 ?get_system_texture_index@@YGHPBD@Z ; get_system_texture_index
  00921	89 45 9c	 mov	 DWORD PTR tv490[ebp], eax
  00924	8b 45 fc	 mov	 eax, DWORD PTR _i$[ebp]
  00927	8b 4d 9c	 mov	 ecx, DWORD PTR tv490[ebp]
  0092a	89 0c c5 00 00
	00 00		 mov	 DWORD PTR ?textures_with_noisemap@@3PAU<unnamed-type-textures_with_noisemap>@@A[eax*8], ecx
  00931	8b 55 9c	 mov	 edx, DWORD PTR tv490[ebp]
  00934	89 15 00 00 00
	00		 mov	 DWORD PTR ?terrain_texture_field11_detail@@3HA, edx

; 2578 : 	terrain_texture_field11_colour_pass						= field_noise;

  0093a	8b 45 ec	 mov	 eax, DWORD PTR _field_noise$[ebp]
  0093d	a3 00 00 00 00	 mov	 DWORD PTR ?terrain_texture_field11_colour_pass@@3HA, eax

; 2579 : 	textures_with_noisemap[i++].gamma_correction = gamma;

  00942	8b 45 fc	 mov	 eax, DWORD PTR _i$[ebp]
  00945	f3 0f 10 45 e4	 movss	 xmm0, DWORD PTR _gamma$[ebp]
  0094a	f3 0f 11 04 c5
	04 00 00 00	 movss	 DWORD PTR ?textures_with_noisemap@@3PAU<unnamed-type-textures_with_noisemap>@@A[eax*8+4], xmm0
  00953	8b 4d fc	 mov	 ecx, DWORD PTR _i$[ebp]
  00956	83 c1 01	 add	 ecx, 1
  00959	89 4d fc	 mov	 DWORD PTR _i$[ebp], ecx

; 2580 : 
; 2581 : 	terrain_texture_reservoir_detail						= get_system_texture_index ( "TERRAIN_THAILAND_RIVER" );

  0095c	68 00 00 00 00	 push	 OFFSET ??_C@_0BH@LCADFALJ@TERRAIN_THAILAND_RIVER@
  00961	e8 00 00 00 00	 call	 ?get_system_texture_index@@YGHPBD@Z ; get_system_texture_index
  00966	a3 00 00 00 00	 mov	 DWORD PTR ?terrain_texture_reservoir_detail@@3HA, eax

; 2582 : 	terrain_texture_trench_detail							= get_system_texture_index ( "CH_TERRAIN_DRY_MUD1");

  0096b	68 00 00 00 00	 push	 OFFSET ??_C@_0BE@PCKHIBHJ@CH_TERRAIN_DRY_MUD1@
  00970	e8 00 00 00 00	 call	 ?get_system_texture_index@@YGHPBD@Z ; get_system_texture_index
  00975	a3 00 00 00 00	 mov	 DWORD PTR ?terrain_texture_trench_detail@@3HA, eax

; 2583 : 
; 2584 : 	terrain_texture_hedge_detail							= get_system_texture_index ( "TERRAIN_WALL_LEBANON" );

  0097a	68 00 00 00 00	 push	 OFFSET ??_C@_0BF@MCHGDFIO@TERRAIN_WALL_LEBANON@
  0097f	e8 00 00 00 00	 call	 ?get_system_texture_index@@YGHPBD@Z ; get_system_texture_index
  00984	a3 00 00 00 00	 mov	 DWORD PTR ?terrain_texture_hedge_detail@@3HA, eax

; 2585 : 	terrain_texture_wall_detail							= get_system_texture_index ( "TERRAIN_WALL" );

  00989	68 00 00 00 00	 push	 OFFSET ??_C@_0N@JGELDEEA@TERRAIN_WALL@
  0098e	e8 00 00 00 00	 call	 ?get_system_texture_index@@YGHPBD@Z ; get_system_texture_index
  00993	a3 00 00 00 00	 mov	 DWORD PTR ?terrain_texture_wall_detail@@3HA, eax

; 2586 : 
; 2587 : 	terrain_texture_hedge_colour_pass						= noisemap;

  00998	8b 45 e8	 mov	 eax, DWORD PTR _noisemap$[ebp]
  0099b	a3 00 00 00 00	 mov	 DWORD PTR ?terrain_texture_hedge_colour_pass@@3HA, eax

; 2588 : 	terrain_texture_wall_colour_pass							= noisemap;

  009a0	8b 45 e8	 mov	 eax, DWORD PTR _noisemap$[ebp]
  009a3	a3 00 00 00 00	 mov	 DWORD PTR ?terrain_texture_wall_colour_pass@@3HA, eax

; 2589 : 
; 2590 : 	terrain_texture_reservoir_colour_pass					=noisemap;

  009a8	8b 45 e8	 mov	 eax, DWORD PTR _noisemap$[ebp]
  009ab	a3 00 00 00 00	 mov	 DWORD PTR ?terrain_texture_reservoir_colour_pass@@3HA, eax

; 2591 : 	terrain_texture_trench_colour_pass						=noisemap;

  009b0	8b 45 e8	 mov	 eax, DWORD PTR _noisemap$[ebp]
  009b3	a3 00 00 00 00	 mov	 DWORD PTR ?terrain_texture_trench_colour_pass@@3HA, eax

; 2592 : 
; 2593 : 	if (i >= ARRAY_LENGTH(textures_with_noisemap))

  009b8	83 7d fc 40	 cmp	 DWORD PTR _i$[ebp], 64	; 00000040H
  009bc	72 0d		 jb	 SHORT $LN6@initialise

; 2594 : 		debug_fatal("noisemap array out of bounds!");

  009be	68 00 00 00 00	 push	 OFFSET ??_C@_0BO@FDKKCFKA@noisemap?5array?5out?5of?5bounds?$CB@
  009c3	e8 00 00 00 00	 call	 ?debug_fatal@@YAXPBDZZ	; debug_fatal
  009c8	83 c4 04	 add	 esp, 4
$LN6@initialise:

; 2595 : }

  009cb	5f		 pop	 edi
  009cc	5e		 pop	 esi
  009cd	5b		 pop	 ebx
  009ce	8b e5		 mov	 esp, ebp
  009d0	5d		 pop	 ebp
  009d1	c3		 ret	 0
?initialise_noisemaps@@YGXXZ ENDP			; initialise_noisemaps
_TEXT	ENDS
; Function compile flags: /Odtp /ZI
; File c:\users\nhv90\projects\eech\modules\3d\terrain\terrtype.c
;	COMDAT ?texture_gamma_correction@@YGMH@Z
_TEXT	SEGMENT
_i$ = -4						; size = 4
_texture_index$ = 8					; size = 4
?texture_gamma_correction@@YGMH@Z PROC			; texture_gamma_correction, COMDAT

; 2393 : {

  00000	55		 push	 ebp
  00001	8b ec		 mov	 ebp, esp
  00003	83 ec 44	 sub	 esp, 68			; 00000044H
  00006	53		 push	 ebx
  00007	56		 push	 esi
  00008	57		 push	 edi

; 2394 : 	unsigned i;
; 2395 : 
; 2396 : 	for (i=0; i < ARRAY_LENGTH(textures_with_noisemap) && textures_with_noisemap[i].index; i++)

  00009	c7 45 fc 00 00
	00 00		 mov	 DWORD PTR _i$[ebp], 0
  00010	eb 09		 jmp	 SHORT $LN4@texture_ga
$LN2@texture_ga:
  00012	8b 45 fc	 mov	 eax, DWORD PTR _i$[ebp]
  00015	83 c0 01	 add	 eax, 1
  00018	89 45 fc	 mov	 DWORD PTR _i$[ebp], eax
$LN4@texture_ga:
  0001b	83 7d fc 40	 cmp	 DWORD PTR _i$[ebp], 64	; 00000040H
  0001f	73 2a		 jae	 SHORT $LN3@texture_ga
  00021	8b 45 fc	 mov	 eax, DWORD PTR _i$[ebp]
  00024	83 3c c5 00 00
	00 00 00	 cmp	 DWORD PTR ?textures_with_noisemap@@3PAU<unnamed-type-textures_with_noisemap>@@A[eax*8], 0
  0002c	74 1d		 je	 SHORT $LN3@texture_ga

; 2397 : 	{
; 2398 : 		if (textures_with_noisemap[i].index == texture_index)

  0002e	8b 45 fc	 mov	 eax, DWORD PTR _i$[ebp]
  00031	8b 0c c5 00 00
	00 00		 mov	 ecx, DWORD PTR ?textures_with_noisemap@@3PAU<unnamed-type-textures_with_noisemap>@@A[eax*8]
  00038	3b 4d 08	 cmp	 ecx, DWORD PTR _texture_index$[ebp]
  0003b	75 0c		 jne	 SHORT $LN5@texture_ga

; 2399 : 			return textures_with_noisemap[i].gamma_correction;

  0003d	8b 45 fc	 mov	 eax, DWORD PTR _i$[ebp]
  00040	d9 04 c5 04 00
	00 00		 fld	 DWORD PTR ?textures_with_noisemap@@3PAU<unnamed-type-textures_with_noisemap>@@A[eax*8+4]
  00047	eb 04		 jmp	 SHORT $LN1@texture_ga
$LN5@texture_ga:

; 2400 : 	}

  00049	eb c7		 jmp	 SHORT $LN2@texture_ga
$LN3@texture_ga:

; 2401 : 
; 2402 : 	return 1.0;

  0004b	d9 e8		 fld1
$LN1@texture_ga:

; 2403 : }

  0004d	5f		 pop	 edi
  0004e	5e		 pop	 esi
  0004f	5b		 pop	 ebx
  00050	8b e5		 mov	 esp, ebp
  00052	5d		 pop	 ebp
  00053	c2 04 00	 ret	 4
?texture_gamma_correction@@YGMH@Z ENDP			; texture_gamma_correction
_TEXT	ENDS
; Function compile flags: /Odtp /ZI
; File c:\users\nhv90\projects\eech\modules\3d\terrain\terrtype.c
;	COMDAT ?get_terrain_surface_type@@YGHH@Z
_TEXT	SEGMENT
_type$ = 8						; size = 4
?get_terrain_surface_type@@YGHH@Z PROC			; get_terrain_surface_type, COMDAT

; 2379 : {

  00000	55		 push	 ebp
  00001	8b ec		 mov	 ebp, esp
  00003	83 ec 40	 sub	 esp, 64			; 00000040H
  00006	53		 push	 ebx
  00007	56		 push	 esi
  00008	57		 push	 edi

; 2380 : 	return ( terrain_type_information [type].surface_type ) ;

  00009	6b 45 08 38	 imul	 eax, DWORD PTR _type$[ebp], 56
  0000d	8b 80 34 00 00
	00		 mov	 eax, DWORD PTR ?terrain_type_information@@3PAUTERRAIN_TYPE_INFO@@A[eax+52]

; 2381 : }

  00013	5f		 pop	 edi
  00014	5e		 pop	 esi
  00015	5b		 pop	 ebx
  00016	8b e5		 mov	 esp, ebp
  00018	5d		 pop	 ebp
  00019	c2 04 00	 ret	 4
?get_terrain_surface_type@@YGHH@Z ENDP			; get_terrain_surface_type
_TEXT	ENDS
; Function compile flags: /Odtp /ZI
; File c:\users\nhv90\projects\eech\modules\3d\terrain\terrtype.c
;	COMDAT ?get_terrain_type_name@@YGPBDH@Z
_TEXT	SEGMENT
_elements$ = -8						; size = 4
_count$ = -4						; size = 4
_type$ = 8						; size = 4
?get_terrain_type_name@@YGPBDH@Z PROC			; get_terrain_type_name, COMDAT

; 2352 : {

  00000	55		 push	 ebp
  00001	8b ec		 mov	 ebp, esp
  00003	83 ec 48	 sub	 esp, 72			; 00000048H
  00006	53		 push	 ebx
  00007	56		 push	 esi
  00008	57		 push	 edi

; 2353 : 
; 2354 : 	int
; 2355 : 		count,
; 2356 : 		elements;
; 2357 : 
; 2358 : 	elements = sizeof ( terrain_type_names ) / sizeof ( terrain_type_name );

  00009	c7 45 f8 3f 00
	00 00		 mov	 DWORD PTR _elements$[ebp], 63 ; 0000003fH

; 2359 : 
; 2360 : 	for ( count = 0; count < elements; count++ )

  00010	c7 45 fc 00 00
	00 00		 mov	 DWORD PTR _count$[ebp], 0
  00017	eb 09		 jmp	 SHORT $LN4@get_terrai
$LN2@get_terrai:
  00019	8b 45 fc	 mov	 eax, DWORD PTR _count$[ebp]
  0001c	83 c0 01	 add	 eax, 1
  0001f	89 45 fc	 mov	 DWORD PTR _count$[ebp], eax
$LN4@get_terrai:
  00022	8b 45 fc	 mov	 eax, DWORD PTR _count$[ebp]
  00025	3b 45 f8	 cmp	 eax, DWORD PTR _elements$[ebp]
  00028	7d 1d		 jge	 SHORT $LN3@get_terrai

; 2361 : 	{
; 2362 : 
; 2363 : 		if ( terrain_type_names[count].type == type )

  0002a	8b 45 fc	 mov	 eax, DWORD PTR _count$[ebp]
  0002d	8b 0c c5 00 00
	00 00		 mov	 ecx, DWORD PTR ?terrain_type_names@@3PAUTERRAIN_TYPE_NAME@@A[eax*8]
  00034	3b 4d 08	 cmp	 ecx, DWORD PTR _type$[ebp]
  00037	75 0c		 jne	 SHORT $LN5@get_terrai

; 2364 : 		{
; 2365 : 
; 2366 : 			return ( terrain_type_names[count].name );

  00039	8b 45 fc	 mov	 eax, DWORD PTR _count$[ebp]
  0003c	8b 04 c5 04 00
	00 00		 mov	 eax, DWORD PTR ?terrain_type_names@@3PAUTERRAIN_TYPE_NAME@@A[eax*8+4]
  00043	eb 10		 jmp	 SHORT $LN1@get_terrai
$LN5@get_terrai:

; 2367 : 		}
; 2368 : 	}

  00045	eb d2		 jmp	 SHORT $LN2@get_terrai
$LN3@get_terrai:

; 2369 : 
; 2370 : 	return ( terrain_type_names[0].name );

  00047	b8 08 00 00 00	 mov	 eax, 8
  0004c	6b c8 00	 imul	 ecx, eax, 0
  0004f	8b 81 04 00 00
	00		 mov	 eax, DWORD PTR ?terrain_type_names@@3PAUTERRAIN_TYPE_NAME@@A[ecx+4]
$LN1@get_terrai:

; 2371 : }

  00055	5f		 pop	 edi
  00056	5e		 pop	 esi
  00057	5b		 pop	 ebx
  00058	8b e5		 mov	 esp, ebp
  0005a	5d		 pop	 ebp
  0005b	c2 04 00	 ret	 4
?get_terrain_type_name@@YGPBDH@Z ENDP			; get_terrain_type_name
_TEXT	ENDS
; Function compile flags: /Odtp /ZI
; File c:\users\nhv90\projects\eech\modules\3d\terrain\terrtype.c
;	COMDAT ?initialise_3d_terrain_map_specific_texture_indices@@YGXXZ
_TEXT	SEGMENT
tv65 = -68						; size = 4
?initialise_3d_terrain_map_specific_texture_indices@@YGXXZ PROC ; initialise_3d_terrain_map_specific_texture_indices, COMDAT

; 822  : {

  00000	55		 push	 ebp
  00001	8b ec		 mov	 ebp, esp
  00003	83 ec 44	 sub	 esp, 68			; 00000044H
  00006	53		 push	 ebx
  00007	56		 push	 esi
  00008	57		 push	 edi

; 823  : 
; 824  : 	switch ( current_terrain_version.map_number )

  00009	a1 00 00 00 00	 mov	 eax, DWORD PTR ?current_terrain_version@@3UTERRAIN_3D_FILE_VALIDATION@@A ; current_terrain_version
  0000e	83 e0 0f	 and	 eax, 15			; 0000000fH
  00011	89 45 bc	 mov	 DWORD PTR tv65[ebp], eax
  00014	8b 4d bc	 mov	 ecx, DWORD PTR tv65[ebp]
  00017	83 e9 01	 sub	 ecx, 1
  0001a	89 4d bc	 mov	 DWORD PTR tv65[ebp], ecx
  0001d	83 7d bc 0b	 cmp	 DWORD PTR tv65[ebp], 11	; 0000000bH
  00021	77 57		 ja	 SHORT $LN15@initialise
  00023	8b 55 bc	 mov	 edx, DWORD PTR tv65[ebp]
  00026	ff 24 95 00 00
	00 00		 jmp	 DWORD PTR $LN20@initialise[edx*4]
$LN4@initialise:

; 825  : 	{
; 826  : 
; 827  : 		case 1:	// THAILAND
; 828  : 		{
; 829  : 
; 830  : 			initialise_3d_thailand_terrain_types ();

  0002d	e8 00 00 00 00	 call	 ?initialise_3d_thailand_terrain_types@@YGXXZ ; initialise_3d_thailand_terrain_types

; 831  : 
; 832  : 			break;

  00032	eb 5b		 jmp	 SHORT $LN2@initialise
$LN5@initialise:

; 833  : 		}
; 834  : 
; 835  : 		case 4:	// TAIWAN
; 836  : 		{
; 837  : 
; 838  : 			initialise_3d_taiwan_terrain_types ();

  00034	e8 00 00 00 00	 call	 ?initialise_3d_taiwan_terrain_types@@YGXXZ ; initialise_3d_taiwan_terrain_types

; 839  : 
; 840  : 			break;

  00039	eb 54		 jmp	 SHORT $LN2@initialise
$LN6@initialise:

; 841  : 		}
; 842  : 
; 843  : 		case 2:	// CUBA
; 844  : 		{
; 845  : 
; 846  : 			initialise_3d_cuba_terrain_types ();

  0003b	e8 00 00 00 00	 call	 ?initialise_3d_cuba_terrain_types@@YGXXZ ; initialise_3d_cuba_terrain_types

; 847  : 
; 848  : 			break;

  00040	eb 4d		 jmp	 SHORT $LN2@initialise
$LN7@initialise:

; 849  : 		}
; 850  : 
; 851  : 		case 3: // GEORGIA
; 852  : 		//VJ 051223 moved default down for custom campaign mod
; 853  : 		//default:
; 854  : 		{
; 855  : 
; 856  : 			initialise_3d_georgia_terrain_types ();

  00042	e8 00 00 00 00	 call	 ?initialise_3d_georgia_terrain_types@@YGXXZ ; initialise_3d_georgia_terrain_types

; 857  : 
; 858  : 			break;

  00047	eb 46		 jmp	 SHORT $LN2@initialise
$LN8@initialise:

; 859  : 		}
; 860  : 
; 861  : 		case 5:	// LEBANON
; 862  : 		{
; 863  : 
; 864  : 			initialise_3d_lebanon_terrain_types ();

  00049	e8 00 00 00 00	 call	 ?initialise_3d_lebanon_terrain_types@@YGXXZ ; initialise_3d_lebanon_terrain_types

; 865  : 
; 866  : 			break;

  0004e	eb 3f		 jmp	 SHORT $LN2@initialise
$LN9@initialise:

; 867  : 		}
; 868  : 
; 869  : 		case 6:	// YEMEN
; 870  : 		{
; 871  : 			initialise_3d_yemen_terrain_types ();

  00050	e8 00 00 00 00	 call	 ?initialise_3d_yemen_terrain_types@@YGXXZ ; initialise_3d_yemen_terrain_types

; 872  : 
; 873  : 			break;

  00055	eb 38		 jmp	 SHORT $LN2@initialise
$LN10@initialise:

; 874  : 		}
; 875  : 		//VJ 051007 for Maverick, add user maps in terrain display =>
; 876  : 		case 7:
; 877  : 		{
; 878  : 
; 879  : 			initialise_3d_alaska_terrain_types ();

  00057	e8 00 00 00 00	 call	 ?initialise_3d_alaska_terrain_types@@YGXXZ ; initialise_3d_alaska_terrain_types

; 880  : 
; 881  : 			break;

  0005c	eb 31		 jmp	 SHORT $LN2@initialise
$LN11@initialise:

; 882  : 		}
; 883  : 
; 884  : 
; 885  : 		case 8:
; 886  : 		{
; 887  : 
; 888  : 			initialise_3d_aleut_terrain_types ();

  0005e	e8 00 00 00 00	 call	 ?initialise_3d_aleut_terrain_types@@YGXXZ ; initialise_3d_aleut_terrain_types

; 889  : 
; 890  : 			break;

  00063	eb 2a		 jmp	 SHORT $LN2@initialise
$LN12@initialise:

; 891  : 		}
; 892  : 
; 893  : 		case 9:	//kuwait
; 894  : 		case 10:	//lybia
; 895  : 		{
; 896  : 
; 897  : 			initialise_3d_kuwait_terrain_types ();

  00065	e8 00 00 00 00	 call	 ?initialise_3d_kuwait_terrain_types@@YGXXZ ; initialise_3d_kuwait_terrain_types

; 898  : 
; 899  : 			break;

  0006a	eb 23		 jmp	 SHORT $LN2@initialise
$LN13@initialise:

; 900  : 		}
; 901  : 		case 11:	//grand canyon
; 902  : 		{
; 903  : 
; 904  : 			initialise_3d_grand_terrain_types ();

  0006c	e8 00 00 00 00	 call	 ?initialise_3d_grand_terrain_types@@YGXXZ ; initialise_3d_grand_terrain_types

; 905  : 
; 906  : 			break;

  00071	eb 1c		 jmp	 SHORT $LN2@initialise
$LN14@initialise:

; 907  : 		}
; 908  : 		case 12:	//mars
; 909  : 		{
; 910  : 
; 911  : 			initialise_3d_mars_terrain_types ();

  00073	e8 00 00 00 00	 call	 ?initialise_3d_mars_terrain_types@@YGXXZ ; initialise_3d_mars_terrain_types

; 912  : 
; 913  : 			break;

  00078	eb 15		 jmp	 SHORT $LN2@initialise
$LN15@initialise:

; 914  : 		}
; 915  : 		//VJ 051223 moved default for custom campaign mod
; 916  : 		default:
; 917  : 		{
; 918  : 
; 919  : 			if (!command_line_texture_colour)

  0007a	83 3d 00 00 00
	00 00		 cmp	 DWORD PTR ?command_line_texture_colour@@3HA, 0 ; command_line_texture_colour
  00081	75 07		 jne	 SHORT $LN16@initialise

; 920  : 				initialise_3d_georgia_terrain_types ();

  00083	e8 00 00 00 00	 call	 ?initialise_3d_georgia_terrain_types@@YGXXZ ; initialise_3d_georgia_terrain_types

; 921  : 			else

  00088	eb 05		 jmp	 SHORT $LN2@initialise
$LN16@initialise:

; 922  : 				initialise_3d_custom_map_terrain_types ();

  0008a	e8 00 00 00 00	 call	 ?initialise_3d_custom_map_terrain_types@@YGXXZ ; initialise_3d_custom_map_terrain_types
$LN2@initialise:

; 923  : 		}
; 924  : 		//VJ 051007 <==
; 925  : 	}
; 926  : 
; 927  : 	// link texture indices to textures abd default scales
; 928  : 	initialise_3d_terrain_types ();

  0008f	e8 00 00 00 00	 call	 ?initialise_3d_terrain_types@@YGXXZ ; initialise_3d_terrain_types

; 929  : 
; 930  : 	//VJ 050314	texture colour mod
; 931  : 	if (command_line_texture_colour)

  00094	83 3d 00 00 00
	00 00		 cmp	 DWORD PTR ?command_line_texture_colour@@3HA, 0 ; command_line_texture_colour
  0009b	74 05		 je	 SHORT $LN1@initialise

; 932  : 		initialise_3d_custom_terrain_types();

  0009d	e8 00 00 00 00	 call	 ?initialise_3d_custom_terrain_types@@YGXXZ ; initialise_3d_custom_terrain_types
$LN1@initialise:

; 933  : 
; 934  : }

  000a2	5f		 pop	 edi
  000a3	5e		 pop	 esi
  000a4	5b		 pop	 ebx
  000a5	8b e5		 mov	 esp, ebp
  000a7	5d		 pop	 ebp
  000a8	c3		 ret	 0
  000a9	0f 1f 00	 npad	 3
$LN20@initialise:
  000ac	00 00 00 00	 DD	 $LN4@initialise
  000b0	00 00 00 00	 DD	 $LN6@initialise
  000b4	00 00 00 00	 DD	 $LN7@initialise
  000b8	00 00 00 00	 DD	 $LN5@initialise
  000bc	00 00 00 00	 DD	 $LN8@initialise
  000c0	00 00 00 00	 DD	 $LN9@initialise
  000c4	00 00 00 00	 DD	 $LN10@initialise
  000c8	00 00 00 00	 DD	 $LN11@initialise
  000cc	00 00 00 00	 DD	 $LN12@initialise
  000d0	00 00 00 00	 DD	 $LN12@initialise
  000d4	00 00 00 00	 DD	 $LN13@initialise
  000d8	00 00 00 00	 DD	 $LN14@initialise
?initialise_3d_terrain_map_specific_texture_indices@@YGXXZ ENDP ; initialise_3d_terrain_map_specific_texture_indices
_TEXT	ENDS
; Function compile flags: /Odtp /ZI
; File c:\users\nhv90\projects\eech\modules\3d\terrain\terrtype.c
;	COMDAT ?initialise_3d_terrain_types@@YGXXZ
_TEXT	SEGMENT
tv66 = -72						; size = 4
_default_noise_detail$ = -4				; size = 4
?initialise_3d_terrain_types@@YGXXZ PROC		; initialise_3d_terrain_types, COMDAT

; 1093 : {

  00000	55		 push	 ebp
  00001	8b ec		 mov	 ebp, esp
  00003	83 ec 48	 sub	 esp, 72			; 00000048H
  00006	53		 push	 ebx
  00007	56		 push	 esi
  00008	57		 push	 edi

; 1094 : 	const float default_noise_detail = 32.0;

  00009	f3 0f 10 05 00
	00 00 00	 movss	 xmm0, DWORD PTR __real@42000000
  00011	f3 0f 11 45 fc	 movss	 DWORD PTR _default_noise_detail$[ebp], xmm0

; 1095 : 
; 1096 : 	set_3d_terrain_dual_pass_rendering(command_line_texture_colour == 2 || global_dynamic_water);

  00016	83 3d 00 00 00
	00 02		 cmp	 DWORD PTR ?command_line_texture_colour@@3HA, 2 ; command_line_texture_colour
  0001d	74 12		 je	 SHORT $LN5@initialise
  0001f	83 3d 00 00 00
	00 00		 cmp	 DWORD PTR ?global_dynamic_water@@3HA, 0 ; global_dynamic_water
  00026	75 09		 jne	 SHORT $LN5@initialise
  00028	c7 45 b8 00 00
	00 00		 mov	 DWORD PTR tv66[ebp], 0
  0002f	eb 07		 jmp	 SHORT $LN6@initialise
$LN5@initialise:
  00031	c7 45 b8 01 00
	00 00		 mov	 DWORD PTR tv66[ebp], 1
$LN6@initialise:
  00038	8b 45 b8	 mov	 eax, DWORD PTR tv66[ebp]
  0003b	50		 push	 eax
  0003c	e8 00 00 00 00	 call	 ?set_3d_terrain_dual_pass_rendering@@YGXH@Z ; set_3d_terrain_dual_pass_rendering

; 1097 : 
; 1098 : 	// Xhit: the last argument in follwing calls sets the type of surface for the terrain. (030328)
; 1099 : 
; 1100 : 	set_terrain_type_textures ( TERRAIN_TYPE_SEA, terrain_texture_sea_detail, terrain_texture_sea_colour_pass, 1.0, 256, 256, 2048, 2048, 4, 103, 115, terrain_surface_sea );

  00041	a1 00 00 00 00	 mov	 eax, DWORD PTR ?terrain_surface_sea@@3W4SURFACE_TYPES@@A
  00046	50		 push	 eax
  00047	6a 73		 push	 115			; 00000073H
  00049	6a 67		 push	 103			; 00000067H
  0004b	6a 04		 push	 4
  0004d	51		 push	 ecx
  0004e	f3 0f 10 05 00
	00 00 00	 movss	 xmm0, DWORD PTR __real@45000000
  00056	f3 0f 11 04 24	 movss	 DWORD PTR [esp], xmm0
  0005b	51		 push	 ecx
  0005c	f3 0f 10 05 00
	00 00 00	 movss	 xmm0, DWORD PTR __real@45000000
  00064	f3 0f 11 04 24	 movss	 DWORD PTR [esp], xmm0
  00069	51		 push	 ecx
  0006a	f3 0f 10 05 00
	00 00 00	 movss	 xmm0, DWORD PTR __real@43800000
  00072	f3 0f 11 04 24	 movss	 DWORD PTR [esp], xmm0
  00077	51		 push	 ecx
  00078	f3 0f 10 05 00
	00 00 00	 movss	 xmm0, DWORD PTR __real@43800000
  00080	f3 0f 11 04 24	 movss	 DWORD PTR [esp], xmm0
  00085	51		 push	 ecx
  00086	f3 0f 10 05 00
	00 00 00	 movss	 xmm0, DWORD PTR __real@3f800000
  0008e	f3 0f 11 04 24	 movss	 DWORD PTR [esp], xmm0
  00093	8b 0d 00 00 00
	00		 mov	 ecx, DWORD PTR ?terrain_texture_sea_colour_pass@@3HA
  00099	51		 push	 ecx
  0009a	8b 15 00 00 00
	00		 mov	 edx, DWORD PTR ?terrain_texture_sea_detail@@3HA
  000a0	52		 push	 edx
  000a1	6a 07		 push	 7
  000a3	e8 00 00 00 00	 call	 ?set_terrain_type_textures@@YGXHHHMMMMMHHHW4SURFACE_TYPES@@@Z ; set_terrain_type_textures

; 1101 :    set_terrain_type_textures ( TERRAIN_TYPE_BEACH, terrain_texture_beach_detail, terrain_texture_beach_colour_pass, 8.0, 256, 256, 2048, 2048, 199, 172, 120, terrain_surface_beach );

  000a8	a1 00 00 00 00	 mov	 eax, DWORD PTR ?terrain_surface_beach@@3W4SURFACE_TYPES@@A
  000ad	50		 push	 eax
  000ae	6a 78		 push	 120			; 00000078H
  000b0	68 ac 00 00 00	 push	 172			; 000000acH
  000b5	68 c7 00 00 00	 push	 199			; 000000c7H
  000ba	51		 push	 ecx
  000bb	f3 0f 10 05 00
	00 00 00	 movss	 xmm0, DWORD PTR __real@45000000
  000c3	f3 0f 11 04 24	 movss	 DWORD PTR [esp], xmm0
  000c8	51		 push	 ecx
  000c9	f3 0f 10 05 00
	00 00 00	 movss	 xmm0, DWORD PTR __real@45000000
  000d1	f3 0f 11 04 24	 movss	 DWORD PTR [esp], xmm0
  000d6	51		 push	 ecx
  000d7	f3 0f 10 05 00
	00 00 00	 movss	 xmm0, DWORD PTR __real@43800000
  000df	f3 0f 11 04 24	 movss	 DWORD PTR [esp], xmm0
  000e4	51		 push	 ecx
  000e5	f3 0f 10 05 00
	00 00 00	 movss	 xmm0, DWORD PTR __real@43800000
  000ed	f3 0f 11 04 24	 movss	 DWORD PTR [esp], xmm0
  000f2	51		 push	 ecx
  000f3	f3 0f 10 05 00
	00 00 00	 movss	 xmm0, DWORD PTR __real@41000000
  000fb	f3 0f 11 04 24	 movss	 DWORD PTR [esp], xmm0
  00100	8b 0d 00 00 00
	00		 mov	 ecx, DWORD PTR ?terrain_texture_beach_colour_pass@@3HA
  00106	51		 push	 ecx
  00107	8b 15 00 00 00
	00		 mov	 edx, DWORD PTR ?terrain_texture_beach_detail@@3HA
  0010d	52		 push	 edx
  0010e	6a 08		 push	 8
  00110	e8 00 00 00 00	 call	 ?set_terrain_type_textures@@YGXHHHMMMMMHHHW4SURFACE_TYPES@@@Z ; set_terrain_type_textures

; 1102 :    set_terrain_type_textures ( TERRAIN_TYPE_LAND, terrain_texture_land_detail, terrain_texture_land_colour_pass, default_noise_detail, 256, 256, 2048, 2048, 61, 135, 75, terrain_surface_land);

  00115	a1 00 00 00 00	 mov	 eax, DWORD PTR ?terrain_surface_land@@3W4SURFACE_TYPES@@A
  0011a	50		 push	 eax
  0011b	6a 4b		 push	 75			; 0000004bH
  0011d	68 87 00 00 00	 push	 135			; 00000087H
  00122	6a 3d		 push	 61			; 0000003dH
  00124	51		 push	 ecx
  00125	f3 0f 10 05 00
	00 00 00	 movss	 xmm0, DWORD PTR __real@45000000
  0012d	f3 0f 11 04 24	 movss	 DWORD PTR [esp], xmm0
  00132	51		 push	 ecx
  00133	f3 0f 10 05 00
	00 00 00	 movss	 xmm0, DWORD PTR __real@45000000
  0013b	f3 0f 11 04 24	 movss	 DWORD PTR [esp], xmm0
  00140	51		 push	 ecx
  00141	f3 0f 10 05 00
	00 00 00	 movss	 xmm0, DWORD PTR __real@43800000
  00149	f3 0f 11 04 24	 movss	 DWORD PTR [esp], xmm0
  0014e	51		 push	 ecx
  0014f	f3 0f 10 05 00
	00 00 00	 movss	 xmm0, DWORD PTR __real@43800000
  00157	f3 0f 11 04 24	 movss	 DWORD PTR [esp], xmm0
  0015c	51		 push	 ecx
  0015d	f3 0f 10 05 00
	00 00 00	 movss	 xmm0, DWORD PTR __real@42000000
  00165	f3 0f 11 04 24	 movss	 DWORD PTR [esp], xmm0
  0016a	8b 0d 00 00 00
	00		 mov	 ecx, DWORD PTR ?terrain_texture_land_colour_pass@@3HA
  00170	51		 push	 ecx
  00171	8b 15 00 00 00
	00		 mov	 edx, DWORD PTR ?terrain_texture_land_detail@@3HA
  00177	52		 push	 edx
  00178	6a 09		 push	 9
  0017a	e8 00 00 00 00	 call	 ?set_terrain_type_textures@@YGXHHHMMMMMHHHW4SURFACE_TYPES@@@Z ; set_terrain_type_textures

; 1103 : 
; 1104 : 	//
; 1105 : 	// Forest textures
; 1106 : 	//
; 1107 : 
; 1108 : 	set_terrain_type_textures ( TERRAIN_TYPE_FOREST_FLOOR, terrain_texture_forest_detail, 0, 8.0, 512, 512, 0, 0, 80, 60, 30, terrain_surface_forest );

  0017f	a1 00 00 00 00	 mov	 eax, DWORD PTR ?terrain_surface_forest@@3W4SURFACE_TYPES@@A
  00184	50		 push	 eax
  00185	6a 1e		 push	 30			; 0000001eH
  00187	6a 3c		 push	 60			; 0000003cH
  00189	6a 50		 push	 80			; 00000050H
  0018b	51		 push	 ecx
  0018c	0f 57 c0	 xorps	 xmm0, xmm0
  0018f	f3 0f 11 04 24	 movss	 DWORD PTR [esp], xmm0
  00194	51		 push	 ecx
  00195	0f 57 c0	 xorps	 xmm0, xmm0
  00198	f3 0f 11 04 24	 movss	 DWORD PTR [esp], xmm0
  0019d	51		 push	 ecx
  0019e	f3 0f 10 05 00
	00 00 00	 movss	 xmm0, DWORD PTR __real@44000000
  001a6	f3 0f 11 04 24	 movss	 DWORD PTR [esp], xmm0
  001ab	51		 push	 ecx
  001ac	f3 0f 10 05 00
	00 00 00	 movss	 xmm0, DWORD PTR __real@44000000
  001b4	f3 0f 11 04 24	 movss	 DWORD PTR [esp], xmm0
  001b9	51		 push	 ecx
  001ba	f3 0f 10 05 00
	00 00 00	 movss	 xmm0, DWORD PTR __real@41000000
  001c2	f3 0f 11 04 24	 movss	 DWORD PTR [esp], xmm0
  001c7	6a 00		 push	 0
  001c9	8b 0d 00 00 00
	00		 mov	 ecx, DWORD PTR ?terrain_texture_forest_detail@@3HA
  001cf	51		 push	 ecx
  001d0	6a 18		 push	 24			; 00000018H
  001d2	e8 00 00 00 00	 call	 ?set_terrain_type_textures@@YGXHHHMMMMMHHHW4SURFACE_TYPES@@@Z ; set_terrain_type_textures

; 1109 : 	set_terrain_type_textures ( TERRAIN_TYPE_FOREST_SIDE_BOTTOM_X, terrain_texture_forest_detail, 0, 8.0, 512, 512, 0, 0, 80, 60, 30, terrain_surface_forest );

  001d7	a1 00 00 00 00	 mov	 eax, DWORD PTR ?terrain_surface_forest@@3W4SURFACE_TYPES@@A
  001dc	50		 push	 eax
  001dd	6a 1e		 push	 30			; 0000001eH
  001df	6a 3c		 push	 60			; 0000003cH
  001e1	6a 50		 push	 80			; 00000050H
  001e3	51		 push	 ecx
  001e4	0f 57 c0	 xorps	 xmm0, xmm0
  001e7	f3 0f 11 04 24	 movss	 DWORD PTR [esp], xmm0
  001ec	51		 push	 ecx
  001ed	0f 57 c0	 xorps	 xmm0, xmm0
  001f0	f3 0f 11 04 24	 movss	 DWORD PTR [esp], xmm0
  001f5	51		 push	 ecx
  001f6	f3 0f 10 05 00
	00 00 00	 movss	 xmm0, DWORD PTR __real@44000000
  001fe	f3 0f 11 04 24	 movss	 DWORD PTR [esp], xmm0
  00203	51		 push	 ecx
  00204	f3 0f 10 05 00
	00 00 00	 movss	 xmm0, DWORD PTR __real@44000000
  0020c	f3 0f 11 04 24	 movss	 DWORD PTR [esp], xmm0
  00211	51		 push	 ecx
  00212	f3 0f 10 05 00
	00 00 00	 movss	 xmm0, DWORD PTR __real@41000000
  0021a	f3 0f 11 04 24	 movss	 DWORD PTR [esp], xmm0
  0021f	6a 00		 push	 0
  00221	8b 0d 00 00 00
	00		 mov	 ecx, DWORD PTR ?terrain_texture_forest_detail@@3HA
  00227	51		 push	 ecx
  00228	6a 1f		 push	 31			; 0000001fH
  0022a	e8 00 00 00 00	 call	 ?set_terrain_type_textures@@YGXHHHMMMMMHHHW4SURFACE_TYPES@@@Z ; set_terrain_type_textures

; 1110 : 	set_terrain_type_textures ( TERRAIN_TYPE_FOREST_SIDE_MID_X, terrain_texture_forest_detail, 0, 8.0, 512, 512, 0, 0, 80, 60, 30, terrain_surface_forest );

  0022f	a1 00 00 00 00	 mov	 eax, DWORD PTR ?terrain_surface_forest@@3W4SURFACE_TYPES@@A
  00234	50		 push	 eax
  00235	6a 1e		 push	 30			; 0000001eH
  00237	6a 3c		 push	 60			; 0000003cH
  00239	6a 50		 push	 80			; 00000050H
  0023b	51		 push	 ecx
  0023c	0f 57 c0	 xorps	 xmm0, xmm0
  0023f	f3 0f 11 04 24	 movss	 DWORD PTR [esp], xmm0
  00244	51		 push	 ecx
  00245	0f 57 c0	 xorps	 xmm0, xmm0
  00248	f3 0f 11 04 24	 movss	 DWORD PTR [esp], xmm0
  0024d	51		 push	 ecx
  0024e	f3 0f 10 05 00
	00 00 00	 movss	 xmm0, DWORD PTR __real@44000000
  00256	f3 0f 11 04 24	 movss	 DWORD PTR [esp], xmm0
  0025b	51		 push	 ecx
  0025c	f3 0f 10 05 00
	00 00 00	 movss	 xmm0, DWORD PTR __real@44000000
  00264	f3 0f 11 04 24	 movss	 DWORD PTR [esp], xmm0
  00269	51		 push	 ecx
  0026a	f3 0f 10 05 00
	00 00 00	 movss	 xmm0, DWORD PTR __real@41000000
  00272	f3 0f 11 04 24	 movss	 DWORD PTR [esp], xmm0
  00277	6a 00		 push	 0
  00279	8b 0d 00 00 00
	00		 mov	 ecx, DWORD PTR ?terrain_texture_forest_detail@@3HA
  0027f	51		 push	 ecx
  00280	6a 21		 push	 33			; 00000021H
  00282	e8 00 00 00 00	 call	 ?set_terrain_type_textures@@YGXHHHMMMMMHHHW4SURFACE_TYPES@@@Z ; set_terrain_type_textures

; 1111 : 	set_terrain_type_textures ( TERRAIN_TYPE_FOREST_SIDE_TOP_X, terrain_texture_forest_detail, 0, 8.0, 512, 512, 0, 0, 80, 60, 30, terrain_surface_forest );

  00287	a1 00 00 00 00	 mov	 eax, DWORD PTR ?terrain_surface_forest@@3W4SURFACE_TYPES@@A
  0028c	50		 push	 eax
  0028d	6a 1e		 push	 30			; 0000001eH
  0028f	6a 3c		 push	 60			; 0000003cH
  00291	6a 50		 push	 80			; 00000050H
  00293	51		 push	 ecx
  00294	0f 57 c0	 xorps	 xmm0, xmm0
  00297	f3 0f 11 04 24	 movss	 DWORD PTR [esp], xmm0
  0029c	51		 push	 ecx
  0029d	0f 57 c0	 xorps	 xmm0, xmm0
  002a0	f3 0f 11 04 24	 movss	 DWORD PTR [esp], xmm0
  002a5	51		 push	 ecx
  002a6	f3 0f 10 05 00
	00 00 00	 movss	 xmm0, DWORD PTR __real@44000000
  002ae	f3 0f 11 04 24	 movss	 DWORD PTR [esp], xmm0
  002b3	51		 push	 ecx
  002b4	f3 0f 10 05 00
	00 00 00	 movss	 xmm0, DWORD PTR __real@44000000
  002bc	f3 0f 11 04 24	 movss	 DWORD PTR [esp], xmm0
  002c1	51		 push	 ecx
  002c2	f3 0f 10 05 00
	00 00 00	 movss	 xmm0, DWORD PTR __real@41000000
  002ca	f3 0f 11 04 24	 movss	 DWORD PTR [esp], xmm0
  002cf	6a 00		 push	 0
  002d1	8b 0d 00 00 00
	00		 mov	 ecx, DWORD PTR ?terrain_texture_forest_detail@@3HA
  002d7	51		 push	 ecx
  002d8	6a 23		 push	 35			; 00000023H
  002da	e8 00 00 00 00	 call	 ?set_terrain_type_textures@@YGXHHHMMMMMHHHW4SURFACE_TYPES@@@Z ; set_terrain_type_textures

; 1112 : 	set_terrain_type_textures ( TERRAIN_TYPE_FOREST_SIDE_BOTTOM_Z, terrain_texture_forest_detail, 0, 8.0, 512, 512, 0, 0, 80, 60, 30, terrain_surface_forest );

  002df	a1 00 00 00 00	 mov	 eax, DWORD PTR ?terrain_surface_forest@@3W4SURFACE_TYPES@@A
  002e4	50		 push	 eax
  002e5	6a 1e		 push	 30			; 0000001eH
  002e7	6a 3c		 push	 60			; 0000003cH
  002e9	6a 50		 push	 80			; 00000050H
  002eb	51		 push	 ecx
  002ec	0f 57 c0	 xorps	 xmm0, xmm0
  002ef	f3 0f 11 04 24	 movss	 DWORD PTR [esp], xmm0
  002f4	51		 push	 ecx
  002f5	0f 57 c0	 xorps	 xmm0, xmm0
  002f8	f3 0f 11 04 24	 movss	 DWORD PTR [esp], xmm0
  002fd	51		 push	 ecx
  002fe	f3 0f 10 05 00
	00 00 00	 movss	 xmm0, DWORD PTR __real@44000000
  00306	f3 0f 11 04 24	 movss	 DWORD PTR [esp], xmm0
  0030b	51		 push	 ecx
  0030c	f3 0f 10 05 00
	00 00 00	 movss	 xmm0, DWORD PTR __real@44000000
  00314	f3 0f 11 04 24	 movss	 DWORD PTR [esp], xmm0
  00319	51		 push	 ecx
  0031a	f3 0f 10 05 00
	00 00 00	 movss	 xmm0, DWORD PTR __real@41000000
  00322	f3 0f 11 04 24	 movss	 DWORD PTR [esp], xmm0
  00327	6a 00		 push	 0
  00329	8b 0d 00 00 00
	00		 mov	 ecx, DWORD PTR ?terrain_texture_forest_detail@@3HA
  0032f	51		 push	 ecx
  00330	6a 20		 push	 32			; 00000020H
  00332	e8 00 00 00 00	 call	 ?set_terrain_type_textures@@YGXHHHMMMMMHHHW4SURFACE_TYPES@@@Z ; set_terrain_type_textures

; 1113 : 	set_terrain_type_textures ( TERRAIN_TYPE_FOREST_SIDE_MID_Z, terrain_texture_forest_detail, 0, 8.0, 512, 512, 0, 0, 80, 60, 30, terrain_surface_forest );

  00337	a1 00 00 00 00	 mov	 eax, DWORD PTR ?terrain_surface_forest@@3W4SURFACE_TYPES@@A
  0033c	50		 push	 eax
  0033d	6a 1e		 push	 30			; 0000001eH
  0033f	6a 3c		 push	 60			; 0000003cH
  00341	6a 50		 push	 80			; 00000050H
  00343	51		 push	 ecx
  00344	0f 57 c0	 xorps	 xmm0, xmm0
  00347	f3 0f 11 04 24	 movss	 DWORD PTR [esp], xmm0
  0034c	51		 push	 ecx
  0034d	0f 57 c0	 xorps	 xmm0, xmm0
  00350	f3 0f 11 04 24	 movss	 DWORD PTR [esp], xmm0
  00355	51		 push	 ecx
  00356	f3 0f 10 05 00
	00 00 00	 movss	 xmm0, DWORD PTR __real@44000000
  0035e	f3 0f 11 04 24	 movss	 DWORD PTR [esp], xmm0
  00363	51		 push	 ecx
  00364	f3 0f 10 05 00
	00 00 00	 movss	 xmm0, DWORD PTR __real@44000000
  0036c	f3 0f 11 04 24	 movss	 DWORD PTR [esp], xmm0
  00371	51		 push	 ecx
  00372	f3 0f 10 05 00
	00 00 00	 movss	 xmm0, DWORD PTR __real@41000000
  0037a	f3 0f 11 04 24	 movss	 DWORD PTR [esp], xmm0
  0037f	6a 00		 push	 0
  00381	8b 0d 00 00 00
	00		 mov	 ecx, DWORD PTR ?terrain_texture_forest_detail@@3HA
  00387	51		 push	 ecx
  00388	6a 22		 push	 34			; 00000022H
  0038a	e8 00 00 00 00	 call	 ?set_terrain_type_textures@@YGXHHHMMMMMHHHW4SURFACE_TYPES@@@Z ; set_terrain_type_textures

; 1114 : 	set_terrain_type_textures ( TERRAIN_TYPE_FOREST_SIDE_TOP_Z, terrain_texture_forest_detail, 0, 8.0, 512, 512, 0, 0, 80, 60, 30, terrain_surface_forest );

  0038f	a1 00 00 00 00	 mov	 eax, DWORD PTR ?terrain_surface_forest@@3W4SURFACE_TYPES@@A
  00394	50		 push	 eax
  00395	6a 1e		 push	 30			; 0000001eH
  00397	6a 3c		 push	 60			; 0000003cH
  00399	6a 50		 push	 80			; 00000050H
  0039b	51		 push	 ecx
  0039c	0f 57 c0	 xorps	 xmm0, xmm0
  0039f	f3 0f 11 04 24	 movss	 DWORD PTR [esp], xmm0
  003a4	51		 push	 ecx
  003a5	0f 57 c0	 xorps	 xmm0, xmm0
  003a8	f3 0f 11 04 24	 movss	 DWORD PTR [esp], xmm0
  003ad	51		 push	 ecx
  003ae	f3 0f 10 05 00
	00 00 00	 movss	 xmm0, DWORD PTR __real@44000000
  003b6	f3 0f 11 04 24	 movss	 DWORD PTR [esp], xmm0
  003bb	51		 push	 ecx
  003bc	f3 0f 10 05 00
	00 00 00	 movss	 xmm0, DWORD PTR __real@44000000
  003c4	f3 0f 11 04 24	 movss	 DWORD PTR [esp], xmm0
  003c9	51		 push	 ecx
  003ca	f3 0f 10 05 00
	00 00 00	 movss	 xmm0, DWORD PTR __real@41000000
  003d2	f3 0f 11 04 24	 movss	 DWORD PTR [esp], xmm0
  003d7	6a 00		 push	 0
  003d9	8b 0d 00 00 00
	00		 mov	 ecx, DWORD PTR ?terrain_texture_forest_detail@@3HA
  003df	51		 push	 ecx
  003e0	6a 24		 push	 36			; 00000024H
  003e2	e8 00 00 00 00	 call	 ?set_terrain_type_textures@@YGXHHHMMMMMHHHW4SURFACE_TYPES@@@Z ; set_terrain_type_textures

; 1115 : 	set_terrain_type_textures ( TERRAIN_TYPE_FOREST_TOP, terrain_texture_forest_detail, terrain_texture_forest_colour_pass, 8.0, 512, 512, 1024, 1024, 190, 170, 15, terrain_surface_forest );

  003e7	a1 00 00 00 00	 mov	 eax, DWORD PTR ?terrain_surface_forest@@3W4SURFACE_TYPES@@A
  003ec	50		 push	 eax
  003ed	6a 0f		 push	 15			; 0000000fH
  003ef	68 aa 00 00 00	 push	 170			; 000000aaH
  003f4	68 be 00 00 00	 push	 190			; 000000beH
  003f9	51		 push	 ecx
  003fa	f3 0f 10 05 00
	00 00 00	 movss	 xmm0, DWORD PTR __real@44800000
  00402	f3 0f 11 04 24	 movss	 DWORD PTR [esp], xmm0
  00407	51		 push	 ecx
  00408	f3 0f 10 05 00
	00 00 00	 movss	 xmm0, DWORD PTR __real@44800000
  00410	f3 0f 11 04 24	 movss	 DWORD PTR [esp], xmm0
  00415	51		 push	 ecx
  00416	f3 0f 10 05 00
	00 00 00	 movss	 xmm0, DWORD PTR __real@44000000
  0041e	f3 0f 11 04 24	 movss	 DWORD PTR [esp], xmm0
  00423	51		 push	 ecx
  00424	f3 0f 10 05 00
	00 00 00	 movss	 xmm0, DWORD PTR __real@44000000
  0042c	f3 0f 11 04 24	 movss	 DWORD PTR [esp], xmm0
  00431	51		 push	 ecx
  00432	f3 0f 10 05 00
	00 00 00	 movss	 xmm0, DWORD PTR __real@41000000
  0043a	f3 0f 11 04 24	 movss	 DWORD PTR [esp], xmm0
  0043f	8b 0d 00 00 00
	00		 mov	 ecx, DWORD PTR ?terrain_texture_forest_colour_pass@@3HA
  00445	51		 push	 ecx
  00446	8b 15 00 00 00
	00		 mov	 edx, DWORD PTR ?terrain_texture_forest_detail@@3HA
  0044c	52		 push	 edx
  0044d	6a 2e		 push	 46			; 0000002eH
  0044f	e8 00 00 00 00	 call	 ?set_terrain_type_textures@@YGXHHHMMMMMHHHW4SURFACE_TYPES@@@Z ; set_terrain_type_textures

; 1116 : 
; 1117 : 	//
; 1118 : 	// Builtup areas
; 1119 : 	//
; 1120 : 
; 1121 :    set_terrain_type_textures ( TERRAIN_TYPE_ROAD, terrain_texture_road_detail, terrain_texture_road_colour_pass, 8.0, 8, 8, 1024, 1024, 255, 255, 255, terrain_surface_road );

  00454	a1 00 00 00 00	 mov	 eax, DWORD PTR ?terrain_surface_road@@3W4SURFACE_TYPES@@A
  00459	50		 push	 eax
  0045a	68 ff 00 00 00	 push	 255			; 000000ffH
  0045f	68 ff 00 00 00	 push	 255			; 000000ffH
  00464	68 ff 00 00 00	 push	 255			; 000000ffH
  00469	51		 push	 ecx
  0046a	f3 0f 10 05 00
	00 00 00	 movss	 xmm0, DWORD PTR __real@44800000
  00472	f3 0f 11 04 24	 movss	 DWORD PTR [esp], xmm0
  00477	51		 push	 ecx
  00478	f3 0f 10 05 00
	00 00 00	 movss	 xmm0, DWORD PTR __real@44800000
  00480	f3 0f 11 04 24	 movss	 DWORD PTR [esp], xmm0
  00485	51		 push	 ecx
  00486	f3 0f 10 05 00
	00 00 00	 movss	 xmm0, DWORD PTR __real@41000000
  0048e	f3 0f 11 04 24	 movss	 DWORD PTR [esp], xmm0
  00493	51		 push	 ecx
  00494	f3 0f 10 05 00
	00 00 00	 movss	 xmm0, DWORD PTR __real@41000000
  0049c	f3 0f 11 04 24	 movss	 DWORD PTR [esp], xmm0
  004a1	51		 push	 ecx
  004a2	f3 0f 10 05 00
	00 00 00	 movss	 xmm0, DWORD PTR __real@41000000
  004aa	f3 0f 11 04 24	 movss	 DWORD PTR [esp], xmm0
  004af	8b 0d 00 00 00
	00		 mov	 ecx, DWORD PTR ?terrain_texture_road_colour_pass@@3HA
  004b5	51		 push	 ecx
  004b6	8b 15 00 00 00
	00		 mov	 edx, DWORD PTR ?terrain_texture_road_detail@@3HA
  004bc	52		 push	 edx
  004bd	6a 29		 push	 41			; 00000029H
  004bf	e8 00 00 00 00	 call	 ?set_terrain_type_textures@@YGXHHHMMMMMHHHW4SURFACE_TYPES@@@Z ; set_terrain_type_textures

; 1122 :    set_terrain_type_textures ( TERRAIN_TYPE_TRACK, terrain_texture_track_detail, terrain_texture_track_colour_pass, 8.0, 8, 8, 1024, 1024, 255, 255, 255, terrain_surface_track );

  004c4	a1 00 00 00 00	 mov	 eax, DWORD PTR ?terrain_surface_track@@3W4SURFACE_TYPES@@A
  004c9	50		 push	 eax
  004ca	68 ff 00 00 00	 push	 255			; 000000ffH
  004cf	68 ff 00 00 00	 push	 255			; 000000ffH
  004d4	68 ff 00 00 00	 push	 255			; 000000ffH
  004d9	51		 push	 ecx
  004da	f3 0f 10 05 00
	00 00 00	 movss	 xmm0, DWORD PTR __real@44800000
  004e2	f3 0f 11 04 24	 movss	 DWORD PTR [esp], xmm0
  004e7	51		 push	 ecx
  004e8	f3 0f 10 05 00
	00 00 00	 movss	 xmm0, DWORD PTR __real@44800000
  004f0	f3 0f 11 04 24	 movss	 DWORD PTR [esp], xmm0
  004f5	51		 push	 ecx
  004f6	f3 0f 10 05 00
	00 00 00	 movss	 xmm0, DWORD PTR __real@41000000
  004fe	f3 0f 11 04 24	 movss	 DWORD PTR [esp], xmm0
  00503	51		 push	 ecx
  00504	f3 0f 10 05 00
	00 00 00	 movss	 xmm0, DWORD PTR __real@41000000
  0050c	f3 0f 11 04 24	 movss	 DWORD PTR [esp], xmm0
  00511	51		 push	 ecx
  00512	f3 0f 10 05 00
	00 00 00	 movss	 xmm0, DWORD PTR __real@41000000
  0051a	f3 0f 11 04 24	 movss	 DWORD PTR [esp], xmm0
  0051f	8b 0d 00 00 00
	00		 mov	 ecx, DWORD PTR ?terrain_texture_track_colour_pass@@3HA
  00525	51		 push	 ecx
  00526	8b 15 00 00 00
	00		 mov	 edx, DWORD PTR ?terrain_texture_track_detail@@3HA
  0052c	52		 push	 edx
  0052d	6a 2a		 push	 42			; 0000002aH
  0052f	e8 00 00 00 00	 call	 ?set_terrain_type_textures@@YGXHHHMMMMMHHHW4SURFACE_TYPES@@@Z ; set_terrain_type_textures

; 1123 : 
; 1124 : 	if ( ( active_3d_environment ) && ( active_3d_environment->render_filter == RENDER_INFRARED ) )

  00534	83 3d 00 00 00
	00 00		 cmp	 DWORD PTR ?active_3d_environment@@3PAUENV_3D@@A, 0 ; active_3d_environment
  0053b	0f 84 d7 01 00
	00		 je	 $LN2@initialise
  00541	a1 00 00 00 00	 mov	 eax, DWORD PTR ?active_3d_environment@@3PAUENV_3D@@A ; active_3d_environment
  00546	83 b8 d0 02 00
	00 02		 cmp	 DWORD PTR [eax+720], 2
  0054d	0f 85 c5 01 00
	00		 jne	 $LN2@initialise

; 1125 : 	{
; 1126 : 		set_terrain_type_textures ( TERRAIN_TYPE_BUILT_UP_AREA1, terrain_texture_builtup_area1_infrared_detail, terrain_texture_builtup_area1_infrared_colour_pass, 1.0, 256, 256, 2048, 2048, 255, 255, 255, terrain_surface_builtup_area1_infrared );

  00553	a1 00 00 00 00	 mov	 eax, DWORD PTR ?terrain_surface_builtup_area1_infrared@@3W4SURFACE_TYPES@@A
  00558	50		 push	 eax
  00559	68 ff 00 00 00	 push	 255			; 000000ffH
  0055e	68 ff 00 00 00	 push	 255			; 000000ffH
  00563	68 ff 00 00 00	 push	 255			; 000000ffH
  00568	51		 push	 ecx
  00569	f3 0f 10 05 00
	00 00 00	 movss	 xmm0, DWORD PTR __real@45000000
  00571	f3 0f 11 04 24	 movss	 DWORD PTR [esp], xmm0
  00576	51		 push	 ecx
  00577	f3 0f 10 05 00
	00 00 00	 movss	 xmm0, DWORD PTR __real@45000000
  0057f	f3 0f 11 04 24	 movss	 DWORD PTR [esp], xmm0
  00584	51		 push	 ecx
  00585	f3 0f 10 05 00
	00 00 00	 movss	 xmm0, DWORD PTR __real@43800000
  0058d	f3 0f 11 04 24	 movss	 DWORD PTR [esp], xmm0
  00592	51		 push	 ecx
  00593	f3 0f 10 05 00
	00 00 00	 movss	 xmm0, DWORD PTR __real@43800000
  0059b	f3 0f 11 04 24	 movss	 DWORD PTR [esp], xmm0
  005a0	51		 push	 ecx
  005a1	f3 0f 10 05 00
	00 00 00	 movss	 xmm0, DWORD PTR __real@3f800000
  005a9	f3 0f 11 04 24	 movss	 DWORD PTR [esp], xmm0
  005ae	8b 0d 00 00 00
	00		 mov	 ecx, DWORD PTR ?terrain_texture_builtup_area1_infrared_colour_pass@@3HA
  005b4	51		 push	 ecx
  005b5	8b 15 00 00 00
	00		 mov	 edx, DWORD PTR ?terrain_texture_builtup_area1_infrared_detail@@3HA
  005bb	52		 push	 edx
  005bc	6a 25		 push	 37			; 00000025H
  005be	e8 00 00 00 00	 call	 ?set_terrain_type_textures@@YGXHHHMMMMMHHHW4SURFACE_TYPES@@@Z ; set_terrain_type_textures

; 1127 : 		set_terrain_type_textures ( TERRAIN_TYPE_BUILT_UP_AREA2, terrain_texture_builtup_area2_infrared_detail, terrain_texture_builtup_area2_infrared_colour_pass, 1.0, 256, 256, 2048, 2048, 255, 255, 255, terrain_surface_builtup_area2_infrared );

  005c3	a1 00 00 00 00	 mov	 eax, DWORD PTR ?terrain_surface_builtup_area2_infrared@@3W4SURFACE_TYPES@@A
  005c8	50		 push	 eax
  005c9	68 ff 00 00 00	 push	 255			; 000000ffH
  005ce	68 ff 00 00 00	 push	 255			; 000000ffH
  005d3	68 ff 00 00 00	 push	 255			; 000000ffH
  005d8	51		 push	 ecx
  005d9	f3 0f 10 05 00
	00 00 00	 movss	 xmm0, DWORD PTR __real@45000000
  005e1	f3 0f 11 04 24	 movss	 DWORD PTR [esp], xmm0
  005e6	51		 push	 ecx
  005e7	f3 0f 10 05 00
	00 00 00	 movss	 xmm0, DWORD PTR __real@45000000
  005ef	f3 0f 11 04 24	 movss	 DWORD PTR [esp], xmm0
  005f4	51		 push	 ecx
  005f5	f3 0f 10 05 00
	00 00 00	 movss	 xmm0, DWORD PTR __real@43800000
  005fd	f3 0f 11 04 24	 movss	 DWORD PTR [esp], xmm0
  00602	51		 push	 ecx
  00603	f3 0f 10 05 00
	00 00 00	 movss	 xmm0, DWORD PTR __real@43800000
  0060b	f3 0f 11 04 24	 movss	 DWORD PTR [esp], xmm0
  00610	51		 push	 ecx
  00611	f3 0f 10 05 00
	00 00 00	 movss	 xmm0, DWORD PTR __real@3f800000
  00619	f3 0f 11 04 24	 movss	 DWORD PTR [esp], xmm0
  0061e	8b 0d 00 00 00
	00		 mov	 ecx, DWORD PTR ?terrain_texture_builtup_area2_infrared_colour_pass@@3HA
  00624	51		 push	 ecx
  00625	8b 15 00 00 00
	00		 mov	 edx, DWORD PTR ?terrain_texture_builtup_area2_infrared_detail@@3HA
  0062b	52		 push	 edx
  0062c	6a 26		 push	 38			; 00000026H
  0062e	e8 00 00 00 00	 call	 ?set_terrain_type_textures@@YGXHHHMMMMMHHHW4SURFACE_TYPES@@@Z ; set_terrain_type_textures

; 1128 : 		set_terrain_type_textures ( TERRAIN_TYPE_BUILT_UP_AREA3, terrain_texture_builtup_area3_infrared_detail, terrain_texture_builtup_area3_infrared_colour_pass, 1.0, 256, 256, 2048, 2048, 255, 255, 255, terrain_surface_builtup_area3_infrared );

  00633	a1 00 00 00 00	 mov	 eax, DWORD PTR ?terrain_surface_builtup_area3_infrared@@3W4SURFACE_TYPES@@A
  00638	50		 push	 eax
  00639	68 ff 00 00 00	 push	 255			; 000000ffH
  0063e	68 ff 00 00 00	 push	 255			; 000000ffH
  00643	68 ff 00 00 00	 push	 255			; 000000ffH
  00648	51		 push	 ecx
  00649	f3 0f 10 05 00
	00 00 00	 movss	 xmm0, DWORD PTR __real@45000000
  00651	f3 0f 11 04 24	 movss	 DWORD PTR [esp], xmm0
  00656	51		 push	 ecx
  00657	f3 0f 10 05 00
	00 00 00	 movss	 xmm0, DWORD PTR __real@45000000
  0065f	f3 0f 11 04 24	 movss	 DWORD PTR [esp], xmm0
  00664	51		 push	 ecx
  00665	f3 0f 10 05 00
	00 00 00	 movss	 xmm0, DWORD PTR __real@43800000
  0066d	f3 0f 11 04 24	 movss	 DWORD PTR [esp], xmm0
  00672	51		 push	 ecx
  00673	f3 0f 10 05 00
	00 00 00	 movss	 xmm0, DWORD PTR __real@43800000
  0067b	f3 0f 11 04 24	 movss	 DWORD PTR [esp], xmm0
  00680	51		 push	 ecx
  00681	f3 0f 10 05 00
	00 00 00	 movss	 xmm0, DWORD PTR __real@3f800000
  00689	f3 0f 11 04 24	 movss	 DWORD PTR [esp], xmm0
  0068e	8b 0d 00 00 00
	00		 mov	 ecx, DWORD PTR ?terrain_texture_builtup_area3_infrared_colour_pass@@3HA
  00694	51		 push	 ecx
  00695	8b 15 00 00 00
	00		 mov	 edx, DWORD PTR ?terrain_texture_builtup_area3_infrared_detail@@3HA
  0069b	52		 push	 edx
  0069c	6a 27		 push	 39			; 00000027H
  0069e	e8 00 00 00 00	 call	 ?set_terrain_type_textures@@YGXHHHMMMMMHHHW4SURFACE_TYPES@@@Z ; set_terrain_type_textures

; 1129 : 		set_terrain_type_textures ( TERRAIN_TYPE_BUILT_UP_AREA4, terrain_texture_builtup_area4_infrared_detail, terrain_texture_builtup_area4_infrared_colour_pass, 1.0, 256, 256, 2048, 2048, 255, 255, 255, terrain_surface_builtup_area4_infrared );

  006a3	a1 00 00 00 00	 mov	 eax, DWORD PTR ?terrain_surface_builtup_area4_infrared@@3W4SURFACE_TYPES@@A
  006a8	50		 push	 eax
  006a9	68 ff 00 00 00	 push	 255			; 000000ffH
  006ae	68 ff 00 00 00	 push	 255			; 000000ffH
  006b3	68 ff 00 00 00	 push	 255			; 000000ffH
  006b8	51		 push	 ecx
  006b9	f3 0f 10 05 00
	00 00 00	 movss	 xmm0, DWORD PTR __real@45000000
  006c1	f3 0f 11 04 24	 movss	 DWORD PTR [esp], xmm0
  006c6	51		 push	 ecx
  006c7	f3 0f 10 05 00
	00 00 00	 movss	 xmm0, DWORD PTR __real@45000000
  006cf	f3 0f 11 04 24	 movss	 DWORD PTR [esp], xmm0
  006d4	51		 push	 ecx
  006d5	f3 0f 10 05 00
	00 00 00	 movss	 xmm0, DWORD PTR __real@43800000
  006dd	f3 0f 11 04 24	 movss	 DWORD PTR [esp], xmm0
  006e2	51		 push	 ecx
  006e3	f3 0f 10 05 00
	00 00 00	 movss	 xmm0, DWORD PTR __real@43800000
  006eb	f3 0f 11 04 24	 movss	 DWORD PTR [esp], xmm0
  006f0	51		 push	 ecx
  006f1	f3 0f 10 05 00
	00 00 00	 movss	 xmm0, DWORD PTR __real@3f800000
  006f9	f3 0f 11 04 24	 movss	 DWORD PTR [esp], xmm0
  006fe	8b 0d 00 00 00
	00		 mov	 ecx, DWORD PTR ?terrain_texture_builtup_area4_infrared_colour_pass@@3HA
  00704	51		 push	 ecx
  00705	8b 15 00 00 00
	00		 mov	 edx, DWORD PTR ?terrain_texture_builtup_area4_infrared_detail@@3HA
  0070b	52		 push	 edx
  0070c	6a 28		 push	 40			; 00000028H
  0070e	e8 00 00 00 00	 call	 ?set_terrain_type_textures@@YGXHHHMMMMMHHHW4SURFACE_TYPES@@@Z ; set_terrain_type_textures

; 1130 : 	}
; 1131 : 	else

  00713	e9 c0 01 00 00	 jmp	 $LN3@initialise
$LN2@initialise:

; 1132 : 	{
; 1133 : 		set_terrain_type_textures ( TERRAIN_TYPE_BUILT_UP_AREA1, terrain_texture_builtup_area1_detail, terrain_texture_builtup_area1_colour_pass, default_noise_detail, 256, 256, 2048, 2048, 255, 255, 255, terrain_surface_builtup_area1 );

  00718	a1 00 00 00 00	 mov	 eax, DWORD PTR ?terrain_surface_builtup_area1@@3W4SURFACE_TYPES@@A
  0071d	50		 push	 eax
  0071e	68 ff 00 00 00	 push	 255			; 000000ffH
  00723	68 ff 00 00 00	 push	 255			; 000000ffH
  00728	68 ff 00 00 00	 push	 255			; 000000ffH
  0072d	51		 push	 ecx
  0072e	f3 0f 10 05 00
	00 00 00	 movss	 xmm0, DWORD PTR __real@45000000
  00736	f3 0f 11 04 24	 movss	 DWORD PTR [esp], xmm0
  0073b	51		 push	 ecx
  0073c	f3 0f 10 05 00
	00 00 00	 movss	 xmm0, DWORD PTR __real@45000000
  00744	f3 0f 11 04 24	 movss	 DWORD PTR [esp], xmm0
  00749	51		 push	 ecx
  0074a	f3 0f 10 05 00
	00 00 00	 movss	 xmm0, DWORD PTR __real@43800000
  00752	f3 0f 11 04 24	 movss	 DWORD PTR [esp], xmm0
  00757	51		 push	 ecx
  00758	f3 0f 10 05 00
	00 00 00	 movss	 xmm0, DWORD PTR __real@43800000
  00760	f3 0f 11 04 24	 movss	 DWORD PTR [esp], xmm0
  00765	51		 push	 ecx
  00766	f3 0f 10 05 00
	00 00 00	 movss	 xmm0, DWORD PTR __real@42000000
  0076e	f3 0f 11 04 24	 movss	 DWORD PTR [esp], xmm0
  00773	8b 0d 00 00 00
	00		 mov	 ecx, DWORD PTR ?terrain_texture_builtup_area1_colour_pass@@3HA
  00779	51		 push	 ecx
  0077a	8b 15 00 00 00
	00		 mov	 edx, DWORD PTR ?terrain_texture_builtup_area1_detail@@3HA
  00780	52		 push	 edx
  00781	6a 25		 push	 37			; 00000025H
  00783	e8 00 00 00 00	 call	 ?set_terrain_type_textures@@YGXHHHMMMMMHHHW4SURFACE_TYPES@@@Z ; set_terrain_type_textures

; 1134 : 		set_terrain_type_textures ( TERRAIN_TYPE_BUILT_UP_AREA2, terrain_texture_builtup_area2_detail, terrain_texture_builtup_area2_colour_pass, default_noise_detail, 256, 256, 2048, 2048, 255, 255, 255, terrain_surface_builtup_area2 );

  00788	a1 00 00 00 00	 mov	 eax, DWORD PTR ?terrain_surface_builtup_area2@@3W4SURFACE_TYPES@@A
  0078d	50		 push	 eax
  0078e	68 ff 00 00 00	 push	 255			; 000000ffH
  00793	68 ff 00 00 00	 push	 255			; 000000ffH
  00798	68 ff 00 00 00	 push	 255			; 000000ffH
  0079d	51		 push	 ecx
  0079e	f3 0f 10 05 00
	00 00 00	 movss	 xmm0, DWORD PTR __real@45000000
  007a6	f3 0f 11 04 24	 movss	 DWORD PTR [esp], xmm0
  007ab	51		 push	 ecx
  007ac	f3 0f 10 05 00
	00 00 00	 movss	 xmm0, DWORD PTR __real@45000000
  007b4	f3 0f 11 04 24	 movss	 DWORD PTR [esp], xmm0
  007b9	51		 push	 ecx
  007ba	f3 0f 10 05 00
	00 00 00	 movss	 xmm0, DWORD PTR __real@43800000
  007c2	f3 0f 11 04 24	 movss	 DWORD PTR [esp], xmm0
  007c7	51		 push	 ecx
  007c8	f3 0f 10 05 00
	00 00 00	 movss	 xmm0, DWORD PTR __real@43800000
  007d0	f3 0f 11 04 24	 movss	 DWORD PTR [esp], xmm0
  007d5	51		 push	 ecx
  007d6	f3 0f 10 05 00
	00 00 00	 movss	 xmm0, DWORD PTR __real@42000000
  007de	f3 0f 11 04 24	 movss	 DWORD PTR [esp], xmm0
  007e3	8b 0d 00 00 00
	00		 mov	 ecx, DWORD PTR ?terrain_texture_builtup_area2_colour_pass@@3HA
  007e9	51		 push	 ecx
  007ea	8b 15 00 00 00
	00		 mov	 edx, DWORD PTR ?terrain_texture_builtup_area2_detail@@3HA
  007f0	52		 push	 edx
  007f1	6a 26		 push	 38			; 00000026H
  007f3	e8 00 00 00 00	 call	 ?set_terrain_type_textures@@YGXHHHMMMMMHHHW4SURFACE_TYPES@@@Z ; set_terrain_type_textures

; 1135 : 		set_terrain_type_textures ( TERRAIN_TYPE_BUILT_UP_AREA3, terrain_texture_builtup_area3_detail, terrain_texture_builtup_area3_colour_pass, default_noise_detail, 256, 256, 2048, 2048, 255, 255, 255, terrain_surface_builtup_area3 );

  007f8	a1 00 00 00 00	 mov	 eax, DWORD PTR ?terrain_surface_builtup_area3@@3W4SURFACE_TYPES@@A
  007fd	50		 push	 eax
  007fe	68 ff 00 00 00	 push	 255			; 000000ffH
  00803	68 ff 00 00 00	 push	 255			; 000000ffH
  00808	68 ff 00 00 00	 push	 255			; 000000ffH
  0080d	51		 push	 ecx
  0080e	f3 0f 10 05 00
	00 00 00	 movss	 xmm0, DWORD PTR __real@45000000
  00816	f3 0f 11 04 24	 movss	 DWORD PTR [esp], xmm0
  0081b	51		 push	 ecx
  0081c	f3 0f 10 05 00
	00 00 00	 movss	 xmm0, DWORD PTR __real@45000000
  00824	f3 0f 11 04 24	 movss	 DWORD PTR [esp], xmm0
  00829	51		 push	 ecx
  0082a	f3 0f 10 05 00
	00 00 00	 movss	 xmm0, DWORD PTR __real@43800000
  00832	f3 0f 11 04 24	 movss	 DWORD PTR [esp], xmm0
  00837	51		 push	 ecx
  00838	f3 0f 10 05 00
	00 00 00	 movss	 xmm0, DWORD PTR __real@43800000
  00840	f3 0f 11 04 24	 movss	 DWORD PTR [esp], xmm0
  00845	51		 push	 ecx
  00846	f3 0f 10 05 00
	00 00 00	 movss	 xmm0, DWORD PTR __real@42000000
  0084e	f3 0f 11 04 24	 movss	 DWORD PTR [esp], xmm0
  00853	8b 0d 00 00 00
	00		 mov	 ecx, DWORD PTR ?terrain_texture_builtup_area3_colour_pass@@3HA
  00859	51		 push	 ecx
  0085a	8b 15 00 00 00
	00		 mov	 edx, DWORD PTR ?terrain_texture_builtup_area3_detail@@3HA
  00860	52		 push	 edx
  00861	6a 27		 push	 39			; 00000027H
  00863	e8 00 00 00 00	 call	 ?set_terrain_type_textures@@YGXHHHMMMMMHHHW4SURFACE_TYPES@@@Z ; set_terrain_type_textures

; 1136 : 		set_terrain_type_textures ( TERRAIN_TYPE_BUILT_UP_AREA4, terrain_texture_builtup_area4_detail, terrain_texture_builtup_area4_colour_pass, default_noise_detail, 256, 256, 2048, 2048, 255, 255, 255, terrain_surface_builtup_area4 );

  00868	a1 00 00 00 00	 mov	 eax, DWORD PTR ?terrain_surface_builtup_area4@@3W4SURFACE_TYPES@@A
  0086d	50		 push	 eax
  0086e	68 ff 00 00 00	 push	 255			; 000000ffH
  00873	68 ff 00 00 00	 push	 255			; 000000ffH
  00878	68 ff 00 00 00	 push	 255			; 000000ffH
  0087d	51		 push	 ecx
  0087e	f3 0f 10 05 00
	00 00 00	 movss	 xmm0, DWORD PTR __real@45000000
  00886	f3 0f 11 04 24	 movss	 DWORD PTR [esp], xmm0
  0088b	51		 push	 ecx
  0088c	f3 0f 10 05 00
	00 00 00	 movss	 xmm0, DWORD PTR __real@45000000
  00894	f3 0f 11 04 24	 movss	 DWORD PTR [esp], xmm0
  00899	51		 push	 ecx
  0089a	f3 0f 10 05 00
	00 00 00	 movss	 xmm0, DWORD PTR __real@43800000
  008a2	f3 0f 11 04 24	 movss	 DWORD PTR [esp], xmm0
  008a7	51		 push	 ecx
  008a8	f3 0f 10 05 00
	00 00 00	 movss	 xmm0, DWORD PTR __real@43800000
  008b0	f3 0f 11 04 24	 movss	 DWORD PTR [esp], xmm0
  008b5	51		 push	 ecx
  008b6	f3 0f 10 05 00
	00 00 00	 movss	 xmm0, DWORD PTR __real@42000000
  008be	f3 0f 11 04 24	 movss	 DWORD PTR [esp], xmm0
  008c3	8b 0d 00 00 00
	00		 mov	 ecx, DWORD PTR ?terrain_texture_builtup_area4_colour_pass@@3HA
  008c9	51		 push	 ecx
  008ca	8b 15 00 00 00
	00		 mov	 edx, DWORD PTR ?terrain_texture_builtup_area4_detail@@3HA
  008d0	52		 push	 edx
  008d1	6a 28		 push	 40			; 00000028H
  008d3	e8 00 00 00 00	 call	 ?set_terrain_type_textures@@YGXHHHMMMMMHHHW4SURFACE_TYPES@@@Z ; set_terrain_type_textures
$LN3@initialise:

; 1137 : 	}
; 1138 : 
; 1139 :    set_terrain_type_textures ( TERRAIN_TYPE_RIVER, terrain_texture_river_detail, terrain_texture_river_colour_pass, 1.0, 256, 256, 2048, 2048, 4, 103, 115, terrain_surface_river);

  008d8	a1 00 00 00 00	 mov	 eax, DWORD PTR ?terrain_surface_river@@3W4SURFACE_TYPES@@A
  008dd	50		 push	 eax
  008de	6a 73		 push	 115			; 00000073H
  008e0	6a 67		 push	 103			; 00000067H
  008e2	6a 04		 push	 4
  008e4	51		 push	 ecx
  008e5	f3 0f 10 05 00
	00 00 00	 movss	 xmm0, DWORD PTR __real@45000000
  008ed	f3 0f 11 04 24	 movss	 DWORD PTR [esp], xmm0
  008f2	51		 push	 ecx
  008f3	f3 0f 10 05 00
	00 00 00	 movss	 xmm0, DWORD PTR __real@45000000
  008fb	f3 0f 11 04 24	 movss	 DWORD PTR [esp], xmm0
  00900	51		 push	 ecx
  00901	f3 0f 10 05 00
	00 00 00	 movss	 xmm0, DWORD PTR __real@43800000
  00909	f3 0f 11 04 24	 movss	 DWORD PTR [esp], xmm0
  0090e	51		 push	 ecx
  0090f	f3 0f 10 05 00
	00 00 00	 movss	 xmm0, DWORD PTR __real@43800000
  00917	f3 0f 11 04 24	 movss	 DWORD PTR [esp], xmm0
  0091c	51		 push	 ecx
  0091d	f3 0f 10 05 00
	00 00 00	 movss	 xmm0, DWORD PTR __real@3f800000
  00925	f3 0f 11 04 24	 movss	 DWORD PTR [esp], xmm0
  0092a	8b 0d 00 00 00
	00		 mov	 ecx, DWORD PTR ?terrain_texture_river_colour_pass@@3HA
  00930	51		 push	 ecx
  00931	8b 15 00 00 00
	00		 mov	 edx, DWORD PTR ?terrain_texture_river_detail@@3HA
  00937	52		 push	 edx
  00938	6a 01		 push	 1
  0093a	e8 00 00 00 00	 call	 ?set_terrain_type_textures@@YGXHHHMMMMMHHHW4SURFACE_TYPES@@@Z ; set_terrain_type_textures

; 1140 :    set_terrain_type_textures ( TERRAIN_TYPE_RESERVOIR, terrain_texture_reservoir_detail, terrain_texture_reservoir_colour_pass, 1.0, 1024, 1024, 2048, 2048, 4, 103, 115, terrain_surface_reservoir );

  0093f	a1 00 00 00 00	 mov	 eax, DWORD PTR ?terrain_surface_reservoir@@3W4SURFACE_TYPES@@A
  00944	50		 push	 eax
  00945	6a 73		 push	 115			; 00000073H
  00947	6a 67		 push	 103			; 00000067H
  00949	6a 04		 push	 4
  0094b	51		 push	 ecx
  0094c	f3 0f 10 05 00
	00 00 00	 movss	 xmm0, DWORD PTR __real@45000000
  00954	f3 0f 11 04 24	 movss	 DWORD PTR [esp], xmm0
  00959	51		 push	 ecx
  0095a	f3 0f 10 05 00
	00 00 00	 movss	 xmm0, DWORD PTR __real@45000000
  00962	f3 0f 11 04 24	 movss	 DWORD PTR [esp], xmm0
  00967	51		 push	 ecx
  00968	f3 0f 10 05 00
	00 00 00	 movss	 xmm0, DWORD PTR __real@44800000
  00970	f3 0f 11 04 24	 movss	 DWORD PTR [esp], xmm0
  00975	51		 push	 ecx
  00976	f3 0f 10 05 00
	00 00 00	 movss	 xmm0, DWORD PTR __real@44800000
  0097e	f3 0f 11 04 24	 movss	 DWORD PTR [esp], xmm0
  00983	51		 push	 ecx
  00984	f3 0f 10 05 00
	00 00 00	 movss	 xmm0, DWORD PTR __real@3f800000
  0098c	f3 0f 11 04 24	 movss	 DWORD PTR [esp], xmm0
  00991	8b 0d 00 00 00
	00		 mov	 ecx, DWORD PTR ?terrain_texture_reservoir_colour_pass@@3HA
  00997	51		 push	 ecx
  00998	8b 15 00 00 00
	00		 mov	 edx, DWORD PTR ?terrain_texture_reservoir_detail@@3HA
  0099e	52		 push	 edx
  0099f	6a 02		 push	 2
  009a1	e8 00 00 00 00	 call	 ?set_terrain_type_textures@@YGXHHHMMMMMHHHW4SURFACE_TYPES@@@Z ; set_terrain_type_textures

; 1141 :    set_terrain_type_textures ( TERRAIN_TYPE_RAIL, terrain_texture_rail_detail, terrain_texture_rail_colour_pass, 8.0, 256, 256, 0, 0, 38, 38, 38, terrain_surface_rail );

  009a6	a1 00 00 00 00	 mov	 eax, DWORD PTR ?terrain_surface_rail@@3W4SURFACE_TYPES@@A
  009ab	50		 push	 eax
  009ac	6a 26		 push	 38			; 00000026H
  009ae	6a 26		 push	 38			; 00000026H
  009b0	6a 26		 push	 38			; 00000026H
  009b2	51		 push	 ecx
  009b3	0f 57 c0	 xorps	 xmm0, xmm0
  009b6	f3 0f 11 04 24	 movss	 DWORD PTR [esp], xmm0
  009bb	51		 push	 ecx
  009bc	0f 57 c0	 xorps	 xmm0, xmm0
  009bf	f3 0f 11 04 24	 movss	 DWORD PTR [esp], xmm0
  009c4	51		 push	 ecx
  009c5	f3 0f 10 05 00
	00 00 00	 movss	 xmm0, DWORD PTR __real@43800000
  009cd	f3 0f 11 04 24	 movss	 DWORD PTR [esp], xmm0
  009d2	51		 push	 ecx
  009d3	f3 0f 10 05 00
	00 00 00	 movss	 xmm0, DWORD PTR __real@43800000
  009db	f3 0f 11 04 24	 movss	 DWORD PTR [esp], xmm0
  009e0	51		 push	 ecx
  009e1	f3 0f 10 05 00
	00 00 00	 movss	 xmm0, DWORD PTR __real@41000000
  009e9	f3 0f 11 04 24	 movss	 DWORD PTR [esp], xmm0
  009ee	8b 0d 00 00 00
	00		 mov	 ecx, DWORD PTR ?terrain_texture_rail_colour_pass@@3HA
  009f4	51		 push	 ecx
  009f5	8b 15 00 00 00
	00		 mov	 edx, DWORD PTR ?terrain_texture_rail_detail@@3HA
  009fb	52		 push	 edx
  009fc	6a 2b		 push	 43			; 0000002bH
  009fe	e8 00 00 00 00	 call	 ?set_terrain_type_textures@@YGXHHHMMMMMHHHW4SURFACE_TYPES@@@Z ; set_terrain_type_textures

; 1142 :    set_terrain_type_textures ( TERRAIN_TYPE_ROAD_BANK, terrain_texture_road_bank_detail, terrain_texture_road_bank_colour_pass, 8.0, 256, 256, 2048, 2048, 61, 135, 75, terrain_surface_road_bank );

  00a03	a1 00 00 00 00	 mov	 eax, DWORD PTR ?terrain_surface_road_bank@@3W4SURFACE_TYPES@@A
  00a08	50		 push	 eax
  00a09	6a 4b		 push	 75			; 0000004bH
  00a0b	68 87 00 00 00	 push	 135			; 00000087H
  00a10	6a 3d		 push	 61			; 0000003dH
  00a12	51		 push	 ecx
  00a13	f3 0f 10 05 00
	00 00 00	 movss	 xmm0, DWORD PTR __real@45000000
  00a1b	f3 0f 11 04 24	 movss	 DWORD PTR [esp], xmm0
  00a20	51		 push	 ecx
  00a21	f3 0f 10 05 00
	00 00 00	 movss	 xmm0, DWORD PTR __real@45000000
  00a29	f3 0f 11 04 24	 movss	 DWORD PTR [esp], xmm0
  00a2e	51		 push	 ecx
  00a2f	f3 0f 10 05 00
	00 00 00	 movss	 xmm0, DWORD PTR __real@43800000
  00a37	f3 0f 11 04 24	 movss	 DWORD PTR [esp], xmm0
  00a3c	51		 push	 ecx
  00a3d	f3 0f 10 05 00
	00 00 00	 movss	 xmm0, DWORD PTR __real@43800000
  00a45	f3 0f 11 04 24	 movss	 DWORD PTR [esp], xmm0
  00a4a	51		 push	 ecx
  00a4b	f3 0f 10 05 00
	00 00 00	 movss	 xmm0, DWORD PTR __real@41000000
  00a53	f3 0f 11 04 24	 movss	 DWORD PTR [esp], xmm0
  00a58	8b 0d 00 00 00
	00		 mov	 ecx, DWORD PTR ?terrain_texture_road_bank_colour_pass@@3HA
  00a5e	51		 push	 ecx
  00a5f	8b 15 00 00 00
	00		 mov	 edx, DWORD PTR ?terrain_texture_road_bank_detail@@3HA
  00a65	52		 push	 edx
  00a66	6a 19		 push	 25			; 00000019H
  00a68	e8 00 00 00 00	 call	 ?set_terrain_type_textures@@YGXHHHMMMMMHHHW4SURFACE_TYPES@@@Z ; set_terrain_type_textures

; 1143 :    set_terrain_type_textures ( TERRAIN_TYPE_RIVER_BANK, terrain_texture_river_bank_detail, terrain_texture_river_bank_colour_pass, 8.0, 256, 256, 2048, 2048, 141, 122, 84, terrain_surface_river_bank );

  00a6d	a1 00 00 00 00	 mov	 eax, DWORD PTR ?terrain_surface_river_bank@@3W4SURFACE_TYPES@@A
  00a72	50		 push	 eax
  00a73	6a 54		 push	 84			; 00000054H
  00a75	6a 7a		 push	 122			; 0000007aH
  00a77	68 8d 00 00 00	 push	 141			; 0000008dH
  00a7c	51		 push	 ecx
  00a7d	f3 0f 10 05 00
	00 00 00	 movss	 xmm0, DWORD PTR __real@45000000
  00a85	f3 0f 11 04 24	 movss	 DWORD PTR [esp], xmm0
  00a8a	51		 push	 ecx
  00a8b	f3 0f 10 05 00
	00 00 00	 movss	 xmm0, DWORD PTR __real@45000000
  00a93	f3 0f 11 04 24	 movss	 DWORD PTR [esp], xmm0
  00a98	51		 push	 ecx
  00a99	f3 0f 10 05 00
	00 00 00	 movss	 xmm0, DWORD PTR __real@43800000
  00aa1	f3 0f 11 04 24	 movss	 DWORD PTR [esp], xmm0
  00aa6	51		 push	 ecx
  00aa7	f3 0f 10 05 00
	00 00 00	 movss	 xmm0, DWORD PTR __real@43800000
  00aaf	f3 0f 11 04 24	 movss	 DWORD PTR [esp], xmm0
  00ab4	51		 push	 ecx
  00ab5	f3 0f 10 05 00
	00 00 00	 movss	 xmm0, DWORD PTR __real@41000000
  00abd	f3 0f 11 04 24	 movss	 DWORD PTR [esp], xmm0
  00ac2	8b 0d 00 00 00
	00		 mov	 ecx, DWORD PTR ?terrain_texture_river_bank_colour_pass@@3HA
  00ac8	51		 push	 ecx
  00ac9	8b 15 00 00 00
	00		 mov	 edx, DWORD PTR ?terrain_texture_river_bank_detail@@3HA
  00acf	52		 push	 edx
  00ad0	6a 04		 push	 4
  00ad2	e8 00 00 00 00	 call	 ?set_terrain_type_textures@@YGXHHHMMMMMHHHW4SURFACE_TYPES@@@Z ; set_terrain_type_textures

; 1144 :    set_terrain_type_textures ( TERRAIN_TYPE_RAIL_BANK, terrain_texture_rail_bank_detail, terrain_texture_rail_bank_colour_pass, 8.0, 256, 256, 2048, 2048, 141, 122, 84, terrain_surface_rail_bank );

  00ad7	a1 00 00 00 00	 mov	 eax, DWORD PTR ?terrain_surface_rail_bank@@3W4SURFACE_TYPES@@A
  00adc	50		 push	 eax
  00add	6a 54		 push	 84			; 00000054H
  00adf	6a 7a		 push	 122			; 0000007aH
  00ae1	68 8d 00 00 00	 push	 141			; 0000008dH
  00ae6	51		 push	 ecx
  00ae7	f3 0f 10 05 00
	00 00 00	 movss	 xmm0, DWORD PTR __real@45000000
  00aef	f3 0f 11 04 24	 movss	 DWORD PTR [esp], xmm0
  00af4	51		 push	 ecx
  00af5	f3 0f 10 05 00
	00 00 00	 movss	 xmm0, DWORD PTR __real@45000000
  00afd	f3 0f 11 04 24	 movss	 DWORD PTR [esp], xmm0
  00b02	51		 push	 ecx
  00b03	f3 0f 10 05 00
	00 00 00	 movss	 xmm0, DWORD PTR __real@43800000
  00b0b	f3 0f 11 04 24	 movss	 DWORD PTR [esp], xmm0
  00b10	51		 push	 ecx
  00b11	f3 0f 10 05 00
	00 00 00	 movss	 xmm0, DWORD PTR __real@43800000
  00b19	f3 0f 11 04 24	 movss	 DWORD PTR [esp], xmm0
  00b1e	51		 push	 ecx
  00b1f	f3 0f 10 05 00
	00 00 00	 movss	 xmm0, DWORD PTR __real@41000000
  00b27	f3 0f 11 04 24	 movss	 DWORD PTR [esp], xmm0
  00b2c	8b 0d 00 00 00
	00		 mov	 ecx, DWORD PTR ?terrain_texture_rail_bank_colour_pass@@3HA
  00b32	51		 push	 ecx
  00b33	8b 15 00 00 00
	00		 mov	 edx, DWORD PTR ?terrain_texture_rail_bank_detail@@3HA
  00b39	52		 push	 edx
  00b3a	6a 1a		 push	 26			; 0000001aH
  00b3c	e8 00 00 00 00	 call	 ?set_terrain_type_textures@@YGXHHHMMMMMHHHW4SURFACE_TYPES@@@Z ; set_terrain_type_textures

; 1145 : 
; 1146 : 	//
; 1147 : 	// Field types
; 1148 : 	//
; 1149 : 
; 1150 :    set_terrain_type_textures ( TERRAIN_TYPE_FIELD1, terrain_texture_field1_detail, terrain_texture_field1_colour_pass, default_noise_detail, 256, 256, 1024, 1024, 255, 255, 80, terrain_surface_field1 );

  00b41	a1 00 00 00 00	 mov	 eax, DWORD PTR ?terrain_surface_field1@@3W4SURFACE_TYPES@@A
  00b46	50		 push	 eax
  00b47	6a 50		 push	 80			; 00000050H
  00b49	68 ff 00 00 00	 push	 255			; 000000ffH
  00b4e	68 ff 00 00 00	 push	 255			; 000000ffH
  00b53	51		 push	 ecx
  00b54	f3 0f 10 05 00
	00 00 00	 movss	 xmm0, DWORD PTR __real@44800000
  00b5c	f3 0f 11 04 24	 movss	 DWORD PTR [esp], xmm0
  00b61	51		 push	 ecx
  00b62	f3 0f 10 05 00
	00 00 00	 movss	 xmm0, DWORD PTR __real@44800000
  00b6a	f3 0f 11 04 24	 movss	 DWORD PTR [esp], xmm0
  00b6f	51		 push	 ecx
  00b70	f3 0f 10 05 00
	00 00 00	 movss	 xmm0, DWORD PTR __real@43800000
  00b78	f3 0f 11 04 24	 movss	 DWORD PTR [esp], xmm0
  00b7d	51		 push	 ecx
  00b7e	f3 0f 10 05 00
	00 00 00	 movss	 xmm0, DWORD PTR __real@43800000
  00b86	f3 0f 11 04 24	 movss	 DWORD PTR [esp], xmm0
  00b8b	51		 push	 ecx
  00b8c	f3 0f 10 05 00
	00 00 00	 movss	 xmm0, DWORD PTR __real@42000000
  00b94	f3 0f 11 04 24	 movss	 DWORD PTR [esp], xmm0
  00b99	8b 0d 00 00 00
	00		 mov	 ecx, DWORD PTR ?terrain_texture_field1_colour_pass@@3HA
  00b9f	51		 push	 ecx
  00ba0	8b 15 00 00 00
	00		 mov	 edx, DWORD PTR ?terrain_texture_field1_detail@@3HA
  00ba6	52		 push	 edx
  00ba7	6a 0a		 push	 10			; 0000000aH
  00ba9	e8 00 00 00 00	 call	 ?set_terrain_type_textures@@YGXHHHMMMMMHHHW4SURFACE_TYPES@@@Z ; set_terrain_type_textures

; 1151 :    set_terrain_type_textures ( TERRAIN_TYPE_FIELD2, terrain_texture_field2_detail, terrain_texture_field2_colour_pass, default_noise_detail, 256, 256, 1024, 1024, 100, 70, 40, terrain_surface_field2 );

  00bae	a1 00 00 00 00	 mov	 eax, DWORD PTR ?terrain_surface_field2@@3W4SURFACE_TYPES@@A
  00bb3	50		 push	 eax
  00bb4	6a 28		 push	 40			; 00000028H
  00bb6	6a 46		 push	 70			; 00000046H
  00bb8	6a 64		 push	 100			; 00000064H
  00bba	51		 push	 ecx
  00bbb	f3 0f 10 05 00
	00 00 00	 movss	 xmm0, DWORD PTR __real@44800000
  00bc3	f3 0f 11 04 24	 movss	 DWORD PTR [esp], xmm0
  00bc8	51		 push	 ecx
  00bc9	f3 0f 10 05 00
	00 00 00	 movss	 xmm0, DWORD PTR __real@44800000
  00bd1	f3 0f 11 04 24	 movss	 DWORD PTR [esp], xmm0
  00bd6	51		 push	 ecx
  00bd7	f3 0f 10 05 00
	00 00 00	 movss	 xmm0, DWORD PTR __real@43800000
  00bdf	f3 0f 11 04 24	 movss	 DWORD PTR [esp], xmm0
  00be4	51		 push	 ecx
  00be5	f3 0f 10 05 00
	00 00 00	 movss	 xmm0, DWORD PTR __real@43800000
  00bed	f3 0f 11 04 24	 movss	 DWORD PTR [esp], xmm0
  00bf2	51		 push	 ecx
  00bf3	f3 0f 10 05 00
	00 00 00	 movss	 xmm0, DWORD PTR __real@42000000
  00bfb	f3 0f 11 04 24	 movss	 DWORD PTR [esp], xmm0
  00c00	8b 0d 00 00 00
	00		 mov	 ecx, DWORD PTR ?terrain_texture_field2_colour_pass@@3HA
  00c06	51		 push	 ecx
  00c07	8b 15 00 00 00
	00		 mov	 edx, DWORD PTR ?terrain_texture_field2_detail@@3HA
  00c0d	52		 push	 edx
  00c0e	6a 0b		 push	 11			; 0000000bH
  00c10	e8 00 00 00 00	 call	 ?set_terrain_type_textures@@YGXHHHMMMMMHHHW4SURFACE_TYPES@@@Z ; set_terrain_type_textures

; 1152 :    set_terrain_type_textures ( TERRAIN_TYPE_FIELD3, terrain_texture_field3_detail, terrain_texture_field3_colour_pass, default_noise_detail, 256, 256, 1024, 1024, 140, 70, 50, terrain_surface_field3 );

  00c15	a1 00 00 00 00	 mov	 eax, DWORD PTR ?terrain_surface_field3@@3W4SURFACE_TYPES@@A
  00c1a	50		 push	 eax
  00c1b	6a 32		 push	 50			; 00000032H
  00c1d	6a 46		 push	 70			; 00000046H
  00c1f	68 8c 00 00 00	 push	 140			; 0000008cH
  00c24	51		 push	 ecx
  00c25	f3 0f 10 05 00
	00 00 00	 movss	 xmm0, DWORD PTR __real@44800000
  00c2d	f3 0f 11 04 24	 movss	 DWORD PTR [esp], xmm0
  00c32	51		 push	 ecx
  00c33	f3 0f 10 05 00
	00 00 00	 movss	 xmm0, DWORD PTR __real@44800000
  00c3b	f3 0f 11 04 24	 movss	 DWORD PTR [esp], xmm0
  00c40	51		 push	 ecx
  00c41	f3 0f 10 05 00
	00 00 00	 movss	 xmm0, DWORD PTR __real@43800000
  00c49	f3 0f 11 04 24	 movss	 DWORD PTR [esp], xmm0
  00c4e	51		 push	 ecx
  00c4f	f3 0f 10 05 00
	00 00 00	 movss	 xmm0, DWORD PTR __real@43800000
  00c57	f3 0f 11 04 24	 movss	 DWORD PTR [esp], xmm0
  00c5c	51		 push	 ecx
  00c5d	f3 0f 10 05 00
	00 00 00	 movss	 xmm0, DWORD PTR __real@42000000
  00c65	f3 0f 11 04 24	 movss	 DWORD PTR [esp], xmm0
  00c6a	8b 0d 00 00 00
	00		 mov	 ecx, DWORD PTR ?terrain_texture_field3_colour_pass@@3HA
  00c70	51		 push	 ecx
  00c71	8b 15 00 00 00
	00		 mov	 edx, DWORD PTR ?terrain_texture_field3_detail@@3HA
  00c77	52		 push	 edx
  00c78	6a 0c		 push	 12			; 0000000cH
  00c7a	e8 00 00 00 00	 call	 ?set_terrain_type_textures@@YGXHHHMMMMMHHHW4SURFACE_TYPES@@@Z ; set_terrain_type_textures

; 1153 :    set_terrain_type_textures ( TERRAIN_TYPE_FIELD4, terrain_texture_field4_detail, terrain_texture_field4_colour_pass, default_noise_detail, 256, 256, 1024, 1024, 190, 170, 15, terrain_surface_field4 );

  00c7f	a1 00 00 00 00	 mov	 eax, DWORD PTR ?terrain_surface_field4@@3W4SURFACE_TYPES@@A
  00c84	50		 push	 eax
  00c85	6a 0f		 push	 15			; 0000000fH
  00c87	68 aa 00 00 00	 push	 170			; 000000aaH
  00c8c	68 be 00 00 00	 push	 190			; 000000beH
  00c91	51		 push	 ecx
  00c92	f3 0f 10 05 00
	00 00 00	 movss	 xmm0, DWORD PTR __real@44800000
  00c9a	f3 0f 11 04 24	 movss	 DWORD PTR [esp], xmm0
  00c9f	51		 push	 ecx
  00ca0	f3 0f 10 05 00
	00 00 00	 movss	 xmm0, DWORD PTR __real@44800000
  00ca8	f3 0f 11 04 24	 movss	 DWORD PTR [esp], xmm0
  00cad	51		 push	 ecx
  00cae	f3 0f 10 05 00
	00 00 00	 movss	 xmm0, DWORD PTR __real@43800000
  00cb6	f3 0f 11 04 24	 movss	 DWORD PTR [esp], xmm0
  00cbb	51		 push	 ecx
  00cbc	f3 0f 10 05 00
	00 00 00	 movss	 xmm0, DWORD PTR __real@43800000
  00cc4	f3 0f 11 04 24	 movss	 DWORD PTR [esp], xmm0
  00cc9	51		 push	 ecx
  00cca	f3 0f 10 05 00
	00 00 00	 movss	 xmm0, DWORD PTR __real@42000000
  00cd2	f3 0f 11 04 24	 movss	 DWORD PTR [esp], xmm0
  00cd7	8b 0d 00 00 00
	00		 mov	 ecx, DWORD PTR ?terrain_texture_field4_colour_pass@@3HA
  00cdd	51		 push	 ecx
  00cde	8b 15 00 00 00
	00		 mov	 edx, DWORD PTR ?terrain_texture_field4_detail@@3HA
  00ce4	52		 push	 edx
  00ce5	6a 0d		 push	 13			; 0000000dH
  00ce7	e8 00 00 00 00	 call	 ?set_terrain_type_textures@@YGXHHHMMMMMHHHW4SURFACE_TYPES@@@Z ; set_terrain_type_textures

; 1154 :    set_terrain_type_textures ( TERRAIN_TYPE_FIELD5, terrain_texture_field5_detail, terrain_texture_field5_colour_pass, default_noise_detail, 256, 256, 1024, 1024, 170, 140, 0, terrain_surface_field5 );

  00cec	a1 00 00 00 00	 mov	 eax, DWORD PTR ?terrain_surface_field5@@3W4SURFACE_TYPES@@A
  00cf1	50		 push	 eax
  00cf2	6a 00		 push	 0
  00cf4	68 8c 00 00 00	 push	 140			; 0000008cH
  00cf9	68 aa 00 00 00	 push	 170			; 000000aaH
  00cfe	51		 push	 ecx
  00cff	f3 0f 10 05 00
	00 00 00	 movss	 xmm0, DWORD PTR __real@44800000
  00d07	f3 0f 11 04 24	 movss	 DWORD PTR [esp], xmm0
  00d0c	51		 push	 ecx
  00d0d	f3 0f 10 05 00
	00 00 00	 movss	 xmm0, DWORD PTR __real@44800000
  00d15	f3 0f 11 04 24	 movss	 DWORD PTR [esp], xmm0
  00d1a	51		 push	 ecx
  00d1b	f3 0f 10 05 00
	00 00 00	 movss	 xmm0, DWORD PTR __real@43800000
  00d23	f3 0f 11 04 24	 movss	 DWORD PTR [esp], xmm0
  00d28	51		 push	 ecx
  00d29	f3 0f 10 05 00
	00 00 00	 movss	 xmm0, DWORD PTR __real@43800000
  00d31	f3 0f 11 04 24	 movss	 DWORD PTR [esp], xmm0
  00d36	51		 push	 ecx
  00d37	f3 0f 10 05 00
	00 00 00	 movss	 xmm0, DWORD PTR __real@42000000
  00d3f	f3 0f 11 04 24	 movss	 DWORD PTR [esp], xmm0
  00d44	8b 0d 00 00 00
	00		 mov	 ecx, DWORD PTR ?terrain_texture_field5_colour_pass@@3HA
  00d4a	51		 push	 ecx
  00d4b	8b 15 00 00 00
	00		 mov	 edx, DWORD PTR ?terrain_texture_field5_detail@@3HA
  00d51	52		 push	 edx
  00d52	6a 0e		 push	 14			; 0000000eH
  00d54	e8 00 00 00 00	 call	 ?set_terrain_type_textures@@YGXHHHMMMMMHHHW4SURFACE_TYPES@@@Z ; set_terrain_type_textures

; 1155 :    set_terrain_type_textures ( TERRAIN_TYPE_FIELD6, terrain_texture_field6_detail, terrain_texture_field6_colour_pass, default_noise_detail, 256, 256, 1024, 1024, 81, 165, 85, terrain_surface_field6 );

  00d59	a1 00 00 00 00	 mov	 eax, DWORD PTR ?terrain_surface_field6@@3W4SURFACE_TYPES@@A
  00d5e	50		 push	 eax
  00d5f	6a 55		 push	 85			; 00000055H
  00d61	68 a5 00 00 00	 push	 165			; 000000a5H
  00d66	6a 51		 push	 81			; 00000051H
  00d68	51		 push	 ecx
  00d69	f3 0f 10 05 00
	00 00 00	 movss	 xmm0, DWORD PTR __real@44800000
  00d71	f3 0f 11 04 24	 movss	 DWORD PTR [esp], xmm0
  00d76	51		 push	 ecx
  00d77	f3 0f 10 05 00
	00 00 00	 movss	 xmm0, DWORD PTR __real@44800000
  00d7f	f3 0f 11 04 24	 movss	 DWORD PTR [esp], xmm0
  00d84	51		 push	 ecx
  00d85	f3 0f 10 05 00
	00 00 00	 movss	 xmm0, DWORD PTR __real@43800000
  00d8d	f3 0f 11 04 24	 movss	 DWORD PTR [esp], xmm0
  00d92	51		 push	 ecx
  00d93	f3 0f 10 05 00
	00 00 00	 movss	 xmm0, DWORD PTR __real@43800000
  00d9b	f3 0f 11 04 24	 movss	 DWORD PTR [esp], xmm0
  00da0	51		 push	 ecx
  00da1	f3 0f 10 05 00
	00 00 00	 movss	 xmm0, DWORD PTR __real@42000000
  00da9	f3 0f 11 04 24	 movss	 DWORD PTR [esp], xmm0
  00dae	8b 0d 00 00 00
	00		 mov	 ecx, DWORD PTR ?terrain_texture_field6_colour_pass@@3HA
  00db4	51		 push	 ecx
  00db5	8b 15 00 00 00
	00		 mov	 edx, DWORD PTR ?terrain_texture_field6_detail@@3HA
  00dbb	52		 push	 edx
  00dbc	6a 0f		 push	 15			; 0000000fH
  00dbe	e8 00 00 00 00	 call	 ?set_terrain_type_textures@@YGXHHHMMMMMHHHW4SURFACE_TYPES@@@Z ; set_terrain_type_textures

; 1156 :    set_terrain_type_textures ( TERRAIN_TYPE_FIELD7, terrain_texture_field7_detail, terrain_texture_field7_colour_pass, default_noise_detail, 256, 256, 1024, 1024, 41, 115, 50, terrain_surface_field7 );

  00dc3	a1 00 00 00 00	 mov	 eax, DWORD PTR ?terrain_surface_field7@@3W4SURFACE_TYPES@@A
  00dc8	50		 push	 eax
  00dc9	6a 32		 push	 50			; 00000032H
  00dcb	6a 73		 push	 115			; 00000073H
  00dcd	6a 29		 push	 41			; 00000029H
  00dcf	51		 push	 ecx
  00dd0	f3 0f 10 05 00
	00 00 00	 movss	 xmm0, DWORD PTR __real@44800000
  00dd8	f3 0f 11 04 24	 movss	 DWORD PTR [esp], xmm0
  00ddd	51		 push	 ecx
  00dde	f3 0f 10 05 00
	00 00 00	 movss	 xmm0, DWORD PTR __real@44800000
  00de6	f3 0f 11 04 24	 movss	 DWORD PTR [esp], xmm0
  00deb	51		 push	 ecx
  00dec	f3 0f 10 05 00
	00 00 00	 movss	 xmm0, DWORD PTR __real@43800000
  00df4	f3 0f 11 04 24	 movss	 DWORD PTR [esp], xmm0
  00df9	51		 push	 ecx
  00dfa	f3 0f 10 05 00
	00 00 00	 movss	 xmm0, DWORD PTR __real@43800000
  00e02	f3 0f 11 04 24	 movss	 DWORD PTR [esp], xmm0
  00e07	51		 push	 ecx
  00e08	f3 0f 10 05 00
	00 00 00	 movss	 xmm0, DWORD PTR __real@42000000
  00e10	f3 0f 11 04 24	 movss	 DWORD PTR [esp], xmm0
  00e15	8b 0d 00 00 00
	00		 mov	 ecx, DWORD PTR ?terrain_texture_field7_colour_pass@@3HA
  00e1b	51		 push	 ecx
  00e1c	8b 15 00 00 00
	00		 mov	 edx, DWORD PTR ?terrain_texture_field7_detail@@3HA
  00e22	52		 push	 edx
  00e23	6a 10		 push	 16			; 00000010H
  00e25	e8 00 00 00 00	 call	 ?set_terrain_type_textures@@YGXHHHMMMMMHHHW4SURFACE_TYPES@@@Z ; set_terrain_type_textures

; 1157 :    set_terrain_type_textures ( TERRAIN_TYPE_FIELD8, terrain_texture_field8_detail, terrain_texture_field8_colour_pass, default_noise_detail, 256, 256, 1024, 1024, 255, 255, 80, terrain_surface_field8 );

  00e2a	a1 00 00 00 00	 mov	 eax, DWORD PTR ?terrain_surface_field8@@3W4SURFACE_TYPES@@A
  00e2f	50		 push	 eax
  00e30	6a 50		 push	 80			; 00000050H
  00e32	68 ff 00 00 00	 push	 255			; 000000ffH
  00e37	68 ff 00 00 00	 push	 255			; 000000ffH
  00e3c	51		 push	 ecx
  00e3d	f3 0f 10 05 00
	00 00 00	 movss	 xmm0, DWORD PTR __real@44800000
  00e45	f3 0f 11 04 24	 movss	 DWORD PTR [esp], xmm0
  00e4a	51		 push	 ecx
  00e4b	f3 0f 10 05 00
	00 00 00	 movss	 xmm0, DWORD PTR __real@44800000
  00e53	f3 0f 11 04 24	 movss	 DWORD PTR [esp], xmm0
  00e58	51		 push	 ecx
  00e59	f3 0f 10 05 00
	00 00 00	 movss	 xmm0, DWORD PTR __real@43800000
  00e61	f3 0f 11 04 24	 movss	 DWORD PTR [esp], xmm0
  00e66	51		 push	 ecx
  00e67	f3 0f 10 05 00
	00 00 00	 movss	 xmm0, DWORD PTR __real@43800000
  00e6f	f3 0f 11 04 24	 movss	 DWORD PTR [esp], xmm0
  00e74	51		 push	 ecx
  00e75	f3 0f 10 05 00
	00 00 00	 movss	 xmm0, DWORD PTR __real@42000000
  00e7d	f3 0f 11 04 24	 movss	 DWORD PTR [esp], xmm0
  00e82	8b 0d 00 00 00
	00		 mov	 ecx, DWORD PTR ?terrain_texture_field8_colour_pass@@3HA
  00e88	51		 push	 ecx
  00e89	8b 15 00 00 00
	00		 mov	 edx, DWORD PTR ?terrain_texture_field8_detail@@3HA
  00e8f	52		 push	 edx
  00e90	6a 11		 push	 17			; 00000011H
  00e92	e8 00 00 00 00	 call	 ?set_terrain_type_textures@@YGXHHHMMMMMHHHW4SURFACE_TYPES@@@Z ; set_terrain_type_textures

; 1158 :    set_terrain_type_textures ( TERRAIN_TYPE_FIELD9, terrain_texture_field9_detail, terrain_texture_field9_colour_pass, default_noise_detail, 256, 256, 1024, 1024, 100, 70, 40, terrain_surface_field9 );

  00e97	a1 00 00 00 00	 mov	 eax, DWORD PTR ?terrain_surface_field9@@3W4SURFACE_TYPES@@A
  00e9c	50		 push	 eax
  00e9d	6a 28		 push	 40			; 00000028H
  00e9f	6a 46		 push	 70			; 00000046H
  00ea1	6a 64		 push	 100			; 00000064H
  00ea3	51		 push	 ecx
  00ea4	f3 0f 10 05 00
	00 00 00	 movss	 xmm0, DWORD PTR __real@44800000
  00eac	f3 0f 11 04 24	 movss	 DWORD PTR [esp], xmm0
  00eb1	51		 push	 ecx
  00eb2	f3 0f 10 05 00
	00 00 00	 movss	 xmm0, DWORD PTR __real@44800000
  00eba	f3 0f 11 04 24	 movss	 DWORD PTR [esp], xmm0
  00ebf	51		 push	 ecx
  00ec0	f3 0f 10 05 00
	00 00 00	 movss	 xmm0, DWORD PTR __real@43800000
  00ec8	f3 0f 11 04 24	 movss	 DWORD PTR [esp], xmm0
  00ecd	51		 push	 ecx
  00ece	f3 0f 10 05 00
	00 00 00	 movss	 xmm0, DWORD PTR __real@43800000
  00ed6	f3 0f 11 04 24	 movss	 DWORD PTR [esp], xmm0
  00edb	51		 push	 ecx
  00edc	f3 0f 10 05 00
	00 00 00	 movss	 xmm0, DWORD PTR __real@42000000
  00ee4	f3 0f 11 04 24	 movss	 DWORD PTR [esp], xmm0
  00ee9	8b 0d 00 00 00
	00		 mov	 ecx, DWORD PTR ?terrain_texture_field9_colour_pass@@3HA
  00eef	51		 push	 ecx
  00ef0	8b 15 00 00 00
	00		 mov	 edx, DWORD PTR ?terrain_texture_field9_detail@@3HA
  00ef6	52		 push	 edx
  00ef7	6a 12		 push	 18			; 00000012H
  00ef9	e8 00 00 00 00	 call	 ?set_terrain_type_textures@@YGXHHHMMMMMHHHW4SURFACE_TYPES@@@Z ; set_terrain_type_textures

; 1159 :    set_terrain_type_textures ( TERRAIN_TYPE_FIELD10, terrain_texture_field10_detail, terrain_texture_field10_colour_pass, default_noise_detail, 256, 256, 1024, 1024, 140, 70, 50, terrain_surface_field10 );

  00efe	a1 00 00 00 00	 mov	 eax, DWORD PTR ?terrain_surface_field10@@3W4SURFACE_TYPES@@A
  00f03	50		 push	 eax
  00f04	6a 32		 push	 50			; 00000032H
  00f06	6a 46		 push	 70			; 00000046H
  00f08	68 8c 00 00 00	 push	 140			; 0000008cH
  00f0d	51		 push	 ecx
  00f0e	f3 0f 10 05 00
	00 00 00	 movss	 xmm0, DWORD PTR __real@44800000
  00f16	f3 0f 11 04 24	 movss	 DWORD PTR [esp], xmm0
  00f1b	51		 push	 ecx
  00f1c	f3 0f 10 05 00
	00 00 00	 movss	 xmm0, DWORD PTR __real@44800000
  00f24	f3 0f 11 04 24	 movss	 DWORD PTR [esp], xmm0
  00f29	51		 push	 ecx
  00f2a	f3 0f 10 05 00
	00 00 00	 movss	 xmm0, DWORD PTR __real@43800000
  00f32	f3 0f 11 04 24	 movss	 DWORD PTR [esp], xmm0
  00f37	51		 push	 ecx
  00f38	f3 0f 10 05 00
	00 00 00	 movss	 xmm0, DWORD PTR __real@43800000
  00f40	f3 0f 11 04 24	 movss	 DWORD PTR [esp], xmm0
  00f45	51		 push	 ecx
  00f46	f3 0f 10 05 00
	00 00 00	 movss	 xmm0, DWORD PTR __real@42000000
  00f4e	f3 0f 11 04 24	 movss	 DWORD PTR [esp], xmm0
  00f53	8b 0d 00 00 00
	00		 mov	 ecx, DWORD PTR ?terrain_texture_field10_colour_pass@@3HA
  00f59	51		 push	 ecx
  00f5a	8b 15 00 00 00
	00		 mov	 edx, DWORD PTR ?terrain_texture_field10_detail@@3HA
  00f60	52		 push	 edx
  00f61	6a 13		 push	 19			; 00000013H
  00f63	e8 00 00 00 00	 call	 ?set_terrain_type_textures@@YGXHHHMMMMMHHHW4SURFACE_TYPES@@@Z ; set_terrain_type_textures

; 1160 :    set_terrain_type_textures ( TERRAIN_TYPE_FIELD11, terrain_texture_field11_detail, terrain_texture_field11_colour_pass, default_noise_detail, 256, 256, 1024, 1024, 190, 170, 15, terrain_surface_field11 );

  00f68	a1 00 00 00 00	 mov	 eax, DWORD PTR ?terrain_surface_field11@@3W4SURFACE_TYPES@@A
  00f6d	50		 push	 eax
  00f6e	6a 0f		 push	 15			; 0000000fH
  00f70	68 aa 00 00 00	 push	 170			; 000000aaH
  00f75	68 be 00 00 00	 push	 190			; 000000beH
  00f7a	51		 push	 ecx
  00f7b	f3 0f 10 05 00
	00 00 00	 movss	 xmm0, DWORD PTR __real@44800000
  00f83	f3 0f 11 04 24	 movss	 DWORD PTR [esp], xmm0
  00f88	51		 push	 ecx
  00f89	f3 0f 10 05 00
	00 00 00	 movss	 xmm0, DWORD PTR __real@44800000
  00f91	f3 0f 11 04 24	 movss	 DWORD PTR [esp], xmm0
  00f96	51		 push	 ecx
  00f97	f3 0f 10 05 00
	00 00 00	 movss	 xmm0, DWORD PTR __real@43800000
  00f9f	f3 0f 11 04 24	 movss	 DWORD PTR [esp], xmm0
  00fa4	51		 push	 ecx
  00fa5	f3 0f 10 05 00
	00 00 00	 movss	 xmm0, DWORD PTR __real@43800000
  00fad	f3 0f 11 04 24	 movss	 DWORD PTR [esp], xmm0
  00fb2	51		 push	 ecx
  00fb3	f3 0f 10 05 00
	00 00 00	 movss	 xmm0, DWORD PTR __real@42000000
  00fbb	f3 0f 11 04 24	 movss	 DWORD PTR [esp], xmm0
  00fc0	8b 0d 00 00 00
	00		 mov	 ecx, DWORD PTR ?terrain_texture_field11_colour_pass@@3HA
  00fc6	51		 push	 ecx
  00fc7	8b 15 00 00 00
	00		 mov	 edx, DWORD PTR ?terrain_texture_field11_detail@@3HA
  00fcd	52		 push	 edx
  00fce	6a 14		 push	 20			; 00000014H
  00fd0	e8 00 00 00 00	 call	 ?set_terrain_type_textures@@YGXHHHMMMMMHHHW4SURFACE_TYPES@@@Z ; set_terrain_type_textures

; 1161 : 
; 1162 : 	//
; 1163 : 	// Varied Land Types (e.g. snow, rock etc.)
; 1164 : 	//
; 1165 : 
; 1166 : 	set_terrain_type_textures ( TERRAIN_TYPE_ALTERED_LAND1, terrain_texture_altered_land1_detail, terrain_texture_altered_land1_colour_pass, default_noise_detail, 256, 256, 2048, 2048, 170, 140, 0, terrain_surface_altered_land1 );

  00fd5	a1 00 00 00 00	 mov	 eax, DWORD PTR ?terrain_surface_altered_land1@@3W4SURFACE_TYPES@@A
  00fda	50		 push	 eax
  00fdb	6a 00		 push	 0
  00fdd	68 8c 00 00 00	 push	 140			; 0000008cH
  00fe2	68 aa 00 00 00	 push	 170			; 000000aaH
  00fe7	51		 push	 ecx
  00fe8	f3 0f 10 05 00
	00 00 00	 movss	 xmm0, DWORD PTR __real@45000000
  00ff0	f3 0f 11 04 24	 movss	 DWORD PTR [esp], xmm0
  00ff5	51		 push	 ecx
  00ff6	f3 0f 10 05 00
	00 00 00	 movss	 xmm0, DWORD PTR __real@45000000
  00ffe	f3 0f 11 04 24	 movss	 DWORD PTR [esp], xmm0
  01003	51		 push	 ecx
  01004	f3 0f 10 05 00
	00 00 00	 movss	 xmm0, DWORD PTR __real@43800000
  0100c	f3 0f 11 04 24	 movss	 DWORD PTR [esp], xmm0
  01011	51		 push	 ecx
  01012	f3 0f 10 05 00
	00 00 00	 movss	 xmm0, DWORD PTR __real@43800000
  0101a	f3 0f 11 04 24	 movss	 DWORD PTR [esp], xmm0
  0101f	51		 push	 ecx
  01020	f3 0f 10 05 00
	00 00 00	 movss	 xmm0, DWORD PTR __real@42000000
  01028	f3 0f 11 04 24	 movss	 DWORD PTR [esp], xmm0
  0102d	8b 0d 00 00 00
	00		 mov	 ecx, DWORD PTR ?terrain_texture_altered_land1_colour_pass@@3HA
  01033	51		 push	 ecx
  01034	8b 15 00 00 00
	00		 mov	 edx, DWORD PTR ?terrain_texture_altered_land1_detail@@3HA
  0103a	52		 push	 edx
  0103b	6a 15		 push	 21			; 00000015H
  0103d	e8 00 00 00 00	 call	 ?set_terrain_type_textures@@YGXHHHMMMMMHHHW4SURFACE_TYPES@@@Z ; set_terrain_type_textures

; 1167 : 	set_terrain_type_textures ( TERRAIN_TYPE_ALTERED_LAND2, terrain_texture_altered_land2_detail, terrain_texture_altered_land2_colour_pass, default_noise_detail, 128, 128, 2048, 2048, 81, 165, 85, terrain_surface_altered_land2 );

  01042	a1 00 00 00 00	 mov	 eax, DWORD PTR ?terrain_surface_altered_land2@@3W4SURFACE_TYPES@@A
  01047	50		 push	 eax
  01048	6a 55		 push	 85			; 00000055H
  0104a	68 a5 00 00 00	 push	 165			; 000000a5H
  0104f	6a 51		 push	 81			; 00000051H
  01051	51		 push	 ecx
  01052	f3 0f 10 05 00
	00 00 00	 movss	 xmm0, DWORD PTR __real@45000000
  0105a	f3 0f 11 04 24	 movss	 DWORD PTR [esp], xmm0
  0105f	51		 push	 ecx
  01060	f3 0f 10 05 00
	00 00 00	 movss	 xmm0, DWORD PTR __real@45000000
  01068	f3 0f 11 04 24	 movss	 DWORD PTR [esp], xmm0
  0106d	51		 push	 ecx
  0106e	f3 0f 10 05 00
	00 00 00	 movss	 xmm0, DWORD PTR __real@43000000
  01076	f3 0f 11 04 24	 movss	 DWORD PTR [esp], xmm0
  0107b	51		 push	 ecx
  0107c	f3 0f 10 05 00
	00 00 00	 movss	 xmm0, DWORD PTR __real@43000000
  01084	f3 0f 11 04 24	 movss	 DWORD PTR [esp], xmm0
  01089	51		 push	 ecx
  0108a	f3 0f 10 05 00
	00 00 00	 movss	 xmm0, DWORD PTR __real@42000000
  01092	f3 0f 11 04 24	 movss	 DWORD PTR [esp], xmm0
  01097	8b 0d 00 00 00
	00		 mov	 ecx, DWORD PTR ?terrain_texture_altered_land2_colour_pass@@3HA
  0109d	51		 push	 ecx
  0109e	8b 15 00 00 00
	00		 mov	 edx, DWORD PTR ?terrain_texture_altered_land2_detail@@3HA
  010a4	52		 push	 edx
  010a5	6a 16		 push	 22			; 00000016H
  010a7	e8 00 00 00 00	 call	 ?set_terrain_type_textures@@YGXHHHMMMMMHHHW4SURFACE_TYPES@@@Z ; set_terrain_type_textures

; 1168 : 	set_terrain_type_textures ( TERRAIN_TYPE_ALTERED_LAND3, terrain_texture_altered_land3_detail, terrain_texture_altered_land3_colour_pass, default_noise_detail, 256, 256, 2048, 2048, 255, 255, 255, terrain_surface_altered_land3 );

  010ac	a1 00 00 00 00	 mov	 eax, DWORD PTR ?terrain_surface_altered_land3@@3W4SURFACE_TYPES@@A
  010b1	50		 push	 eax
  010b2	68 ff 00 00 00	 push	 255			; 000000ffH
  010b7	68 ff 00 00 00	 push	 255			; 000000ffH
  010bc	68 ff 00 00 00	 push	 255			; 000000ffH
  010c1	51		 push	 ecx
  010c2	f3 0f 10 05 00
	00 00 00	 movss	 xmm0, DWORD PTR __real@45000000
  010ca	f3 0f 11 04 24	 movss	 DWORD PTR [esp], xmm0
  010cf	51		 push	 ecx
  010d0	f3 0f 10 05 00
	00 00 00	 movss	 xmm0, DWORD PTR __real@45000000
  010d8	f3 0f 11 04 24	 movss	 DWORD PTR [esp], xmm0
  010dd	51		 push	 ecx
  010de	f3 0f 10 05 00
	00 00 00	 movss	 xmm0, DWORD PTR __real@43800000
  010e6	f3 0f 11 04 24	 movss	 DWORD PTR [esp], xmm0
  010eb	51		 push	 ecx
  010ec	f3 0f 10 05 00
	00 00 00	 movss	 xmm0, DWORD PTR __real@43800000
  010f4	f3 0f 11 04 24	 movss	 DWORD PTR [esp], xmm0
  010f9	51		 push	 ecx
  010fa	f3 0f 10 05 00
	00 00 00	 movss	 xmm0, DWORD PTR __real@42000000
  01102	f3 0f 11 04 24	 movss	 DWORD PTR [esp], xmm0
  01107	8b 0d 00 00 00
	00		 mov	 ecx, DWORD PTR ?terrain_texture_altered_land3_colour_pass@@3HA
  0110d	51		 push	 ecx
  0110e	8b 15 00 00 00
	00		 mov	 edx, DWORD PTR ?terrain_texture_altered_land3_detail@@3HA
  01114	52		 push	 edx
  01115	6a 17		 push	 23			; 00000017H
  01117	e8 00 00 00 00	 call	 ?set_terrain_type_textures@@YGXHHHMMMMMHHHW4SURFACE_TYPES@@@Z ; set_terrain_type_textures

; 1169 : 
; 1170 : 
; 1171 : 	//
; 1172 : 	// Hedges / Walls
; 1173 : 	//
; 1174 : 
; 1175 :    set_terrain_type_textures ( TERRAIN_TYPE_HEDGE_TOP, terrain_texture_hedge_detail, terrain_texture_hedge_colour_pass, 8.0, 40, 40, 0, 0, 190, 170, 15, terrain_surface_hedge );

  0111c	a1 00 00 00 00	 mov	 eax, DWORD PTR ?terrain_surface_hedge@@3W4SURFACE_TYPES@@A
  01121	50		 push	 eax
  01122	6a 0f		 push	 15			; 0000000fH
  01124	68 aa 00 00 00	 push	 170			; 000000aaH
  01129	68 be 00 00 00	 push	 190			; 000000beH
  0112e	51		 push	 ecx
  0112f	0f 57 c0	 xorps	 xmm0, xmm0
  01132	f3 0f 11 04 24	 movss	 DWORD PTR [esp], xmm0
  01137	51		 push	 ecx
  01138	0f 57 c0	 xorps	 xmm0, xmm0
  0113b	f3 0f 11 04 24	 movss	 DWORD PTR [esp], xmm0
  01140	51		 push	 ecx
  01141	f3 0f 10 05 00
	00 00 00	 movss	 xmm0, DWORD PTR __real@42200000
  01149	f3 0f 11 04 24	 movss	 DWORD PTR [esp], xmm0
  0114e	51		 push	 ecx
  0114f	f3 0f 10 05 00
	00 00 00	 movss	 xmm0, DWORD PTR __real@42200000
  01157	f3 0f 11 04 24	 movss	 DWORD PTR [esp], xmm0
  0115c	51		 push	 ecx
  0115d	f3 0f 10 05 00
	00 00 00	 movss	 xmm0, DWORD PTR __real@41000000
  01165	f3 0f 11 04 24	 movss	 DWORD PTR [esp], xmm0
  0116a	8b 0d 00 00 00
	00		 mov	 ecx, DWORD PTR ?terrain_texture_hedge_colour_pass@@3HA
  01170	51		 push	 ecx
  01171	8b 15 00 00 00
	00		 mov	 edx, DWORD PTR ?terrain_texture_hedge_detail@@3HA
  01177	52		 push	 edx
  01178	6a 2d		 push	 45			; 0000002dH
  0117a	e8 00 00 00 00	 call	 ?set_terrain_type_textures@@YGXHHHMMMMMHHHW4SURFACE_TYPES@@@Z ; set_terrain_type_textures

; 1176 :    set_terrain_type_textures ( TERRAIN_TYPE_HEDGE_SIDE_X, terrain_texture_hedge_detail, terrain_texture_hedge_colour_pass, 8.0, 40, 40, 0, 0, 190, 170, 15, terrain_surface_hedge );

  0117f	a1 00 00 00 00	 mov	 eax, DWORD PTR ?terrain_surface_hedge@@3W4SURFACE_TYPES@@A
  01184	50		 push	 eax
  01185	6a 0f		 push	 15			; 0000000fH
  01187	68 aa 00 00 00	 push	 170			; 000000aaH
  0118c	68 be 00 00 00	 push	 190			; 000000beH
  01191	51		 push	 ecx
  01192	0f 57 c0	 xorps	 xmm0, xmm0
  01195	f3 0f 11 04 24	 movss	 DWORD PTR [esp], xmm0
  0119a	51		 push	 ecx
  0119b	0f 57 c0	 xorps	 xmm0, xmm0
  0119e	f3 0f 11 04 24	 movss	 DWORD PTR [esp], xmm0
  011a3	51		 push	 ecx
  011a4	f3 0f 10 05 00
	00 00 00	 movss	 xmm0, DWORD PTR __real@42200000
  011ac	f3 0f 11 04 24	 movss	 DWORD PTR [esp], xmm0
  011b1	51		 push	 ecx
  011b2	f3 0f 10 05 00
	00 00 00	 movss	 xmm0, DWORD PTR __real@42200000
  011ba	f3 0f 11 04 24	 movss	 DWORD PTR [esp], xmm0
  011bf	51		 push	 ecx
  011c0	f3 0f 10 05 00
	00 00 00	 movss	 xmm0, DWORD PTR __real@41000000
  011c8	f3 0f 11 04 24	 movss	 DWORD PTR [esp], xmm0
  011cd	8b 0d 00 00 00
	00		 mov	 ecx, DWORD PTR ?terrain_texture_hedge_colour_pass@@3HA
  011d3	51		 push	 ecx
  011d4	8b 15 00 00 00
	00		 mov	 edx, DWORD PTR ?terrain_texture_hedge_detail@@3HA
  011da	52		 push	 edx
  011db	6a 1b		 push	 27			; 0000001bH
  011dd	e8 00 00 00 00	 call	 ?set_terrain_type_textures@@YGXHHHMMMMMHHHW4SURFACE_TYPES@@@Z ; set_terrain_type_textures

; 1177 :    set_terrain_type_textures ( TERRAIN_TYPE_HEDGE_SIDE_Z, terrain_texture_hedge_detail, terrain_texture_hedge_colour_pass, 8.0, 40, 40, 0, 0, 190, 170, 15, terrain_surface_hedge );

  011e2	a1 00 00 00 00	 mov	 eax, DWORD PTR ?terrain_surface_hedge@@3W4SURFACE_TYPES@@A
  011e7	50		 push	 eax
  011e8	6a 0f		 push	 15			; 0000000fH
  011ea	68 aa 00 00 00	 push	 170			; 000000aaH
  011ef	68 be 00 00 00	 push	 190			; 000000beH
  011f4	51		 push	 ecx
  011f5	0f 57 c0	 xorps	 xmm0, xmm0
  011f8	f3 0f 11 04 24	 movss	 DWORD PTR [esp], xmm0
  011fd	51		 push	 ecx
  011fe	0f 57 c0	 xorps	 xmm0, xmm0
  01201	f3 0f 11 04 24	 movss	 DWORD PTR [esp], xmm0
  01206	51		 push	 ecx
  01207	f3 0f 10 05 00
	00 00 00	 movss	 xmm0, DWORD PTR __real@42200000
  0120f	f3 0f 11 04 24	 movss	 DWORD PTR [esp], xmm0
  01214	51		 push	 ecx
  01215	f3 0f 10 05 00
	00 00 00	 movss	 xmm0, DWORD PTR __real@42200000
  0121d	f3 0f 11 04 24	 movss	 DWORD PTR [esp], xmm0
  01222	51		 push	 ecx
  01223	f3 0f 10 05 00
	00 00 00	 movss	 xmm0, DWORD PTR __real@41000000
  0122b	f3 0f 11 04 24	 movss	 DWORD PTR [esp], xmm0
  01230	8b 0d 00 00 00
	00		 mov	 ecx, DWORD PTR ?terrain_texture_hedge_colour_pass@@3HA
  01236	51		 push	 ecx
  01237	8b 15 00 00 00
	00		 mov	 edx, DWORD PTR ?terrain_texture_hedge_detail@@3HA
  0123d	52		 push	 edx
  0123e	6a 1c		 push	 28			; 0000001cH
  01240	e8 00 00 00 00	 call	 ?set_terrain_type_textures@@YGXHHHMMMMMHHHW4SURFACE_TYPES@@@Z ; set_terrain_type_textures

; 1178 : 
; 1179 : 	set_terrain_type_textures ( TERRAIN_TYPE_WALL_TOP, terrain_texture_wall_detail, terrain_texture_wall_colour_pass, 8.0, 5, 5, 0, 0, 255, 255, 255, terrain_surface_wall );

  01245	a1 00 00 00 00	 mov	 eax, DWORD PTR ?terrain_surface_wall@@3W4SURFACE_TYPES@@A
  0124a	50		 push	 eax
  0124b	68 ff 00 00 00	 push	 255			; 000000ffH
  01250	68 ff 00 00 00	 push	 255			; 000000ffH
  01255	68 ff 00 00 00	 push	 255			; 000000ffH
  0125a	51		 push	 ecx
  0125b	0f 57 c0	 xorps	 xmm0, xmm0
  0125e	f3 0f 11 04 24	 movss	 DWORD PTR [esp], xmm0
  01263	51		 push	 ecx
  01264	0f 57 c0	 xorps	 xmm0, xmm0
  01267	f3 0f 11 04 24	 movss	 DWORD PTR [esp], xmm0
  0126c	51		 push	 ecx
  0126d	f3 0f 10 05 00
	00 00 00	 movss	 xmm0, DWORD PTR __real@40a00000
  01275	f3 0f 11 04 24	 movss	 DWORD PTR [esp], xmm0
  0127a	51		 push	 ecx
  0127b	f3 0f 10 05 00
	00 00 00	 movss	 xmm0, DWORD PTR __real@40a00000
  01283	f3 0f 11 04 24	 movss	 DWORD PTR [esp], xmm0
  01288	51		 push	 ecx
  01289	f3 0f 10 05 00
	00 00 00	 movss	 xmm0, DWORD PTR __real@41000000
  01291	f3 0f 11 04 24	 movss	 DWORD PTR [esp], xmm0
  01296	8b 0d 00 00 00
	00		 mov	 ecx, DWORD PTR ?terrain_texture_wall_colour_pass@@3HA
  0129c	51		 push	 ecx
  0129d	8b 15 00 00 00
	00		 mov	 edx, DWORD PTR ?terrain_texture_wall_detail@@3HA
  012a3	52		 push	 edx
  012a4	6a 2c		 push	 44			; 0000002cH
  012a6	e8 00 00 00 00	 call	 ?set_terrain_type_textures@@YGXHHHMMMMMHHHW4SURFACE_TYPES@@@Z ; set_terrain_type_textures

; 1180 : 	set_terrain_type_textures ( TERRAIN_TYPE_WALL_SIDE_X, terrain_texture_wall_detail, terrain_texture_wall_colour_pass, 8.0, 5, 5, 0, 0, 255, 255, 255, terrain_surface_wall );

  012ab	a1 00 00 00 00	 mov	 eax, DWORD PTR ?terrain_surface_wall@@3W4SURFACE_TYPES@@A
  012b0	50		 push	 eax
  012b1	68 ff 00 00 00	 push	 255			; 000000ffH
  012b6	68 ff 00 00 00	 push	 255			; 000000ffH
  012bb	68 ff 00 00 00	 push	 255			; 000000ffH
  012c0	51		 push	 ecx
  012c1	0f 57 c0	 xorps	 xmm0, xmm0
  012c4	f3 0f 11 04 24	 movss	 DWORD PTR [esp], xmm0
  012c9	51		 push	 ecx
  012ca	0f 57 c0	 xorps	 xmm0, xmm0
  012cd	f3 0f 11 04 24	 movss	 DWORD PTR [esp], xmm0
  012d2	51		 push	 ecx
  012d3	f3 0f 10 05 00
	00 00 00	 movss	 xmm0, DWORD PTR __real@40a00000
  012db	f3 0f 11 04 24	 movss	 DWORD PTR [esp], xmm0
  012e0	51		 push	 ecx
  012e1	f3 0f 10 05 00
	00 00 00	 movss	 xmm0, DWORD PTR __real@40a00000
  012e9	f3 0f 11 04 24	 movss	 DWORD PTR [esp], xmm0
  012ee	51		 push	 ecx
  012ef	f3 0f 10 05 00
	00 00 00	 movss	 xmm0, DWORD PTR __real@41000000
  012f7	f3 0f 11 04 24	 movss	 DWORD PTR [esp], xmm0
  012fc	8b 0d 00 00 00
	00		 mov	 ecx, DWORD PTR ?terrain_texture_wall_colour_pass@@3HA
  01302	51		 push	 ecx
  01303	8b 15 00 00 00
	00		 mov	 edx, DWORD PTR ?terrain_texture_wall_detail@@3HA
  01309	52		 push	 edx
  0130a	6a 1d		 push	 29			; 0000001dH
  0130c	e8 00 00 00 00	 call	 ?set_terrain_type_textures@@YGXHHHMMMMMHHHW4SURFACE_TYPES@@@Z ; set_terrain_type_textures

; 1181 : 	set_terrain_type_textures ( TERRAIN_TYPE_WALL_SIDE_Z, terrain_texture_wall_detail, terrain_texture_wall_colour_pass, 8.0, 5, 5, 0, 0, 255, 255, 255, terrain_surface_wall );

  01311	a1 00 00 00 00	 mov	 eax, DWORD PTR ?terrain_surface_wall@@3W4SURFACE_TYPES@@A
  01316	50		 push	 eax
  01317	68 ff 00 00 00	 push	 255			; 000000ffH
  0131c	68 ff 00 00 00	 push	 255			; 000000ffH
  01321	68 ff 00 00 00	 push	 255			; 000000ffH
  01326	51		 push	 ecx
  01327	0f 57 c0	 xorps	 xmm0, xmm0
  0132a	f3 0f 11 04 24	 movss	 DWORD PTR [esp], xmm0
  0132f	51		 push	 ecx
  01330	0f 57 c0	 xorps	 xmm0, xmm0
  01333	f3 0f 11 04 24	 movss	 DWORD PTR [esp], xmm0
  01338	51		 push	 ecx
  01339	f3 0f 10 05 00
	00 00 00	 movss	 xmm0, DWORD PTR __real@40a00000
  01341	f3 0f 11 04 24	 movss	 DWORD PTR [esp], xmm0
  01346	51		 push	 ecx
  01347	f3 0f 10 05 00
	00 00 00	 movss	 xmm0, DWORD PTR __real@40a00000
  0134f	f3 0f 11 04 24	 movss	 DWORD PTR [esp], xmm0
  01354	51		 push	 ecx
  01355	f3 0f 10 05 00
	00 00 00	 movss	 xmm0, DWORD PTR __real@41000000
  0135d	f3 0f 11 04 24	 movss	 DWORD PTR [esp], xmm0
  01362	8b 0d 00 00 00
	00		 mov	 ecx, DWORD PTR ?terrain_texture_wall_colour_pass@@3HA
  01368	51		 push	 ecx
  01369	8b 15 00 00 00
	00		 mov	 edx, DWORD PTR ?terrain_texture_wall_detail@@3HA
  0136f	52		 push	 edx
  01370	6a 1e		 push	 30			; 0000001eH
  01372	e8 00 00 00 00	 call	 ?set_terrain_type_textures@@YGXHHHMMMMMHHHW4SURFACE_TYPES@@@Z ; set_terrain_type_textures

; 1182 : 
; 1183 :    set_terrain_type_textures ( TERRAIN_TYPE_TRENCH, terrain_texture_trench_detail, terrain_texture_trench_colour_pass, 8.0, 256, 256, 0, 0, 190, 170, 15, terrain_surface_trench );

  01377	a1 00 00 00 00	 mov	 eax, DWORD PTR ?terrain_surface_trench@@3W4SURFACE_TYPES@@A
  0137c	50		 push	 eax
  0137d	6a 0f		 push	 15			; 0000000fH
  0137f	68 aa 00 00 00	 push	 170			; 000000aaH
  01384	68 be 00 00 00	 push	 190			; 000000beH
  01389	51		 push	 ecx
  0138a	0f 57 c0	 xorps	 xmm0, xmm0
  0138d	f3 0f 11 04 24	 movss	 DWORD PTR [esp], xmm0
  01392	51		 push	 ecx
  01393	0f 57 c0	 xorps	 xmm0, xmm0
  01396	f3 0f 11 04 24	 movss	 DWORD PTR [esp], xmm0
  0139b	51		 push	 ecx
  0139c	f3 0f 10 05 00
	00 00 00	 movss	 xmm0, DWORD PTR __real@43800000
  013a4	f3 0f 11 04 24	 movss	 DWORD PTR [esp], xmm0
  013a9	51		 push	 ecx
  013aa	f3 0f 10 05 00
	00 00 00	 movss	 xmm0, DWORD PTR __real@43800000
  013b2	f3 0f 11 04 24	 movss	 DWORD PTR [esp], xmm0
  013b7	51		 push	 ecx
  013b8	f3 0f 10 05 00
	00 00 00	 movss	 xmm0, DWORD PTR __real@41000000
  013c0	f3 0f 11 04 24	 movss	 DWORD PTR [esp], xmm0
  013c5	8b 0d 00 00 00
	00		 mov	 ecx, DWORD PTR ?terrain_texture_trench_colour_pass@@3HA
  013cb	51		 push	 ecx
  013cc	8b 15 00 00 00
	00		 mov	 edx, DWORD PTR ?terrain_texture_trench_detail@@3HA
  013d2	52		 push	 edx
  013d3	6a 03		 push	 3
  013d5	e8 00 00 00 00	 call	 ?set_terrain_type_textures@@YGXHHHMMMMMHHHW4SURFACE_TYPES@@@Z ; set_terrain_type_textures

; 1184 :    set_terrain_type_textures ( TERRAIN_TYPE_TRENCH_SIDE_X, terrain_texture_trench_detail, terrain_texture_trench_colour_pass, 8.0, 256, 256, 0, 0, 190, 170, 15, terrain_surface_trench );

  013da	a1 00 00 00 00	 mov	 eax, DWORD PTR ?terrain_surface_trench@@3W4SURFACE_TYPES@@A
  013df	50		 push	 eax
  013e0	6a 0f		 push	 15			; 0000000fH
  013e2	68 aa 00 00 00	 push	 170			; 000000aaH
  013e7	68 be 00 00 00	 push	 190			; 000000beH
  013ec	51		 push	 ecx
  013ed	0f 57 c0	 xorps	 xmm0, xmm0
  013f0	f3 0f 11 04 24	 movss	 DWORD PTR [esp], xmm0
  013f5	51		 push	 ecx
  013f6	0f 57 c0	 xorps	 xmm0, xmm0
  013f9	f3 0f 11 04 24	 movss	 DWORD PTR [esp], xmm0
  013fe	51		 push	 ecx
  013ff	f3 0f 10 05 00
	00 00 00	 movss	 xmm0, DWORD PTR __real@43800000
  01407	f3 0f 11 04 24	 movss	 DWORD PTR [esp], xmm0
  0140c	51		 push	 ecx
  0140d	f3 0f 10 05 00
	00 00 00	 movss	 xmm0, DWORD PTR __real@43800000
  01415	f3 0f 11 04 24	 movss	 DWORD PTR [esp], xmm0
  0141a	51		 push	 ecx
  0141b	f3 0f 10 05 00
	00 00 00	 movss	 xmm0, DWORD PTR __real@41000000
  01423	f3 0f 11 04 24	 movss	 DWORD PTR [esp], xmm0
  01428	8b 0d 00 00 00
	00		 mov	 ecx, DWORD PTR ?terrain_texture_trench_colour_pass@@3HA
  0142e	51		 push	 ecx
  0142f	8b 15 00 00 00
	00		 mov	 edx, DWORD PTR ?terrain_texture_trench_detail@@3HA
  01435	52		 push	 edx
  01436	6a 05		 push	 5
  01438	e8 00 00 00 00	 call	 ?set_terrain_type_textures@@YGXHHHMMMMMHHHW4SURFACE_TYPES@@@Z ; set_terrain_type_textures

; 1185 :    set_terrain_type_textures ( TERRAIN_TYPE_TRENCH_SIDE_Z, terrain_texture_trench_detail, terrain_texture_trench_colour_pass, 8.0, 256, 256, 0, 0, 190, 170, 15, terrain_surface_trench );

  0143d	a1 00 00 00 00	 mov	 eax, DWORD PTR ?terrain_surface_trench@@3W4SURFACE_TYPES@@A
  01442	50		 push	 eax
  01443	6a 0f		 push	 15			; 0000000fH
  01445	68 aa 00 00 00	 push	 170			; 000000aaH
  0144a	68 be 00 00 00	 push	 190			; 000000beH
  0144f	51		 push	 ecx
  01450	0f 57 c0	 xorps	 xmm0, xmm0
  01453	f3 0f 11 04 24	 movss	 DWORD PTR [esp], xmm0
  01458	51		 push	 ecx
  01459	0f 57 c0	 xorps	 xmm0, xmm0
  0145c	f3 0f 11 04 24	 movss	 DWORD PTR [esp], xmm0
  01461	51		 push	 ecx
  01462	f3 0f 10 05 00
	00 00 00	 movss	 xmm0, DWORD PTR __real@43800000
  0146a	f3 0f 11 04 24	 movss	 DWORD PTR [esp], xmm0
  0146f	51		 push	 ecx
  01470	f3 0f 10 05 00
	00 00 00	 movss	 xmm0, DWORD PTR __real@43800000
  01478	f3 0f 11 04 24	 movss	 DWORD PTR [esp], xmm0
  0147d	51		 push	 ecx
  0147e	f3 0f 10 05 00
	00 00 00	 movss	 xmm0, DWORD PTR __real@41000000
  01486	f3 0f 11 04 24	 movss	 DWORD PTR [esp], xmm0
  0148b	8b 0d 00 00 00
	00		 mov	 ecx, DWORD PTR ?terrain_texture_trench_colour_pass@@3HA
  01491	51		 push	 ecx
  01492	8b 15 00 00 00
	00		 mov	 edx, DWORD PTR ?terrain_texture_trench_detail@@3HA
  01498	52		 push	 edx
  01499	6a 06		 push	 6
  0149b	e8 00 00 00 00	 call	 ?set_terrain_type_textures@@YGXHHHMMMMMHHHW4SURFACE_TYPES@@@Z ; set_terrain_type_textures

; 1186 : 
; 1187 : 	//
; 1188 : 	// All the types that are used in the terrain generation tool
; 1189 : 	//
; 1190 : 
; 1191 :    set_terrain_type_textures ( TEMP_TERRAIN_TYPE_BEACH_MID,			0, 0, 1.0, 256, 256, 0, 0, 255, 0, 255, SURFACE_TYPE_NONE );

  014a0	6a 00		 push	 0
  014a2	68 ff 00 00 00	 push	 255			; 000000ffH
  014a7	6a 00		 push	 0
  014a9	68 ff 00 00 00	 push	 255			; 000000ffH
  014ae	51		 push	 ecx
  014af	0f 57 c0	 xorps	 xmm0, xmm0
  014b2	f3 0f 11 04 24	 movss	 DWORD PTR [esp], xmm0
  014b7	51		 push	 ecx
  014b8	0f 57 c0	 xorps	 xmm0, xmm0
  014bb	f3 0f 11 04 24	 movss	 DWORD PTR [esp], xmm0
  014c0	51		 push	 ecx
  014c1	f3 0f 10 05 00
	00 00 00	 movss	 xmm0, DWORD PTR __real@43800000
  014c9	f3 0f 11 04 24	 movss	 DWORD PTR [esp], xmm0
  014ce	51		 push	 ecx
  014cf	f3 0f 10 05 00
	00 00 00	 movss	 xmm0, DWORD PTR __real@43800000
  014d7	f3 0f 11 04 24	 movss	 DWORD PTR [esp], xmm0
  014dc	51		 push	 ecx
  014dd	f3 0f 10 05 00
	00 00 00	 movss	 xmm0, DWORD PTR __real@3f800000
  014e5	f3 0f 11 04 24	 movss	 DWORD PTR [esp], xmm0
  014ea	6a 00		 push	 0
  014ec	6a 00		 push	 0
  014ee	6a 34		 push	 52			; 00000034H
  014f0	e8 00 00 00 00	 call	 ?set_terrain_type_textures@@YGXHHHMMMMMHHHW4SURFACE_TYPES@@@Z ; set_terrain_type_textures

; 1192 :    set_terrain_type_textures ( TEMP_TERRAIN_TYPE_FRINGE,				0, 0, 1.0, 256, 256, 0, 0, 255, 0, 255, SURFACE_TYPE_NONE );

  014f5	6a 00		 push	 0
  014f7	68 ff 00 00 00	 push	 255			; 000000ffH
  014fc	6a 00		 push	 0
  014fe	68 ff 00 00 00	 push	 255			; 000000ffH
  01503	51		 push	 ecx
  01504	0f 57 c0	 xorps	 xmm0, xmm0
  01507	f3 0f 11 04 24	 movss	 DWORD PTR [esp], xmm0
  0150c	51		 push	 ecx
  0150d	0f 57 c0	 xorps	 xmm0, xmm0
  01510	f3 0f 11 04 24	 movss	 DWORD PTR [esp], xmm0
  01515	51		 push	 ecx
  01516	f3 0f 10 05 00
	00 00 00	 movss	 xmm0, DWORD PTR __real@43800000
  0151e	f3 0f 11 04 24	 movss	 DWORD PTR [esp], xmm0
  01523	51		 push	 ecx
  01524	f3 0f 10 05 00
	00 00 00	 movss	 xmm0, DWORD PTR __real@43800000
  0152c	f3 0f 11 04 24	 movss	 DWORD PTR [esp], xmm0
  01531	51		 push	 ecx
  01532	f3 0f 10 05 00
	00 00 00	 movss	 xmm0, DWORD PTR __real@3f800000
  0153a	f3 0f 11 04 24	 movss	 DWORD PTR [esp], xmm0
  0153f	6a 00		 push	 0
  01541	6a 00		 push	 0
  01543	6a 2f		 push	 47			; 0000002fH
  01545	e8 00 00 00 00	 call	 ?set_terrain_type_textures@@YGXHHHMMMMMHHHW4SURFACE_TYPES@@@Z ; set_terrain_type_textures

; 1193 :    set_terrain_type_textures ( TEMP_TERRAIN_TYPE_POWER_LINE,		0, 0, 1.0, 256, 256, 0, 0, 255, 0, 255, SURFACE_TYPE_NONE );

  0154a	6a 00		 push	 0
  0154c	68 ff 00 00 00	 push	 255			; 000000ffH
  01551	6a 00		 push	 0
  01553	68 ff 00 00 00	 push	 255			; 000000ffH
  01558	51		 push	 ecx
  01559	0f 57 c0	 xorps	 xmm0, xmm0
  0155c	f3 0f 11 04 24	 movss	 DWORD PTR [esp], xmm0
  01561	51		 push	 ecx
  01562	0f 57 c0	 xorps	 xmm0, xmm0
  01565	f3 0f 11 04 24	 movss	 DWORD PTR [esp], xmm0
  0156a	51		 push	 ecx
  0156b	f3 0f 10 05 00
	00 00 00	 movss	 xmm0, DWORD PTR __real@43800000
  01573	f3 0f 11 04 24	 movss	 DWORD PTR [esp], xmm0
  01578	51		 push	 ecx
  01579	f3 0f 10 05 00
	00 00 00	 movss	 xmm0, DWORD PTR __real@43800000
  01581	f3 0f 11 04 24	 movss	 DWORD PTR [esp], xmm0
  01586	51		 push	 ecx
  01587	f3 0f 10 05 00
	00 00 00	 movss	 xmm0, DWORD PTR __real@3f800000
  0158f	f3 0f 11 04 24	 movss	 DWORD PTR [esp], xmm0
  01594	6a 00		 push	 0
  01596	6a 00		 push	 0
  01598	6a 30		 push	 48			; 00000030H
  0159a	e8 00 00 00 00	 call	 ?set_terrain_type_textures@@YGXHHHMMMMMHHHW4SURFACE_TYPES@@@Z ; set_terrain_type_textures

; 1194 :    set_terrain_type_textures ( TEMP_TERRAIN_TYPE_TELEPHONE_LINE,	0, 0, 1.0, 256, 256, 0, 0, 255, 0, 255, SURFACE_TYPE_NONE );

  0159f	6a 00		 push	 0
  015a1	68 ff 00 00 00	 push	 255			; 000000ffH
  015a6	6a 00		 push	 0
  015a8	68 ff 00 00 00	 push	 255			; 000000ffH
  015ad	51		 push	 ecx
  015ae	0f 57 c0	 xorps	 xmm0, xmm0
  015b1	f3 0f 11 04 24	 movss	 DWORD PTR [esp], xmm0
  015b6	51		 push	 ecx
  015b7	0f 57 c0	 xorps	 xmm0, xmm0
  015ba	f3 0f 11 04 24	 movss	 DWORD PTR [esp], xmm0
  015bf	51		 push	 ecx
  015c0	f3 0f 10 05 00
	00 00 00	 movss	 xmm0, DWORD PTR __real@43800000
  015c8	f3 0f 11 04 24	 movss	 DWORD PTR [esp], xmm0
  015cd	51		 push	 ecx
  015ce	f3 0f 10 05 00
	00 00 00	 movss	 xmm0, DWORD PTR __real@43800000
  015d6	f3 0f 11 04 24	 movss	 DWORD PTR [esp], xmm0
  015db	51		 push	 ecx
  015dc	f3 0f 10 05 00
	00 00 00	 movss	 xmm0, DWORD PTR __real@3f800000
  015e4	f3 0f 11 04 24	 movss	 DWORD PTR [esp], xmm0
  015e9	6a 00		 push	 0
  015eb	6a 00		 push	 0
  015ed	6a 31		 push	 49			; 00000031H
  015ef	e8 00 00 00 00	 call	 ?set_terrain_type_textures@@YGXHHHMMMMMHHHW4SURFACE_TYPES@@@Z ; set_terrain_type_textures

; 1195 :    set_terrain_type_textures ( TEMP_TERRAIN_TYPE_SEA_BANK,			0, 0, 1.0, 256, 256, 0, 0, 255, 0, 255, SURFACE_TYPE_NONE );

  015f4	6a 00		 push	 0
  015f6	68 ff 00 00 00	 push	 255			; 000000ffH
  015fb	6a 00		 push	 0
  015fd	68 ff 00 00 00	 push	 255			; 000000ffH
  01602	51		 push	 ecx
  01603	0f 57 c0	 xorps	 xmm0, xmm0
  01606	f3 0f 11 04 24	 movss	 DWORD PTR [esp], xmm0
  0160b	51		 push	 ecx
  0160c	0f 57 c0	 xorps	 xmm0, xmm0
  0160f	f3 0f 11 04 24	 movss	 DWORD PTR [esp], xmm0
  01614	51		 push	 ecx
  01615	f3 0f 10 05 00
	00 00 00	 movss	 xmm0, DWORD PTR __real@43800000
  0161d	f3 0f 11 04 24	 movss	 DWORD PTR [esp], xmm0
  01622	51		 push	 ecx
  01623	f3 0f 10 05 00
	00 00 00	 movss	 xmm0, DWORD PTR __real@43800000
  0162b	f3 0f 11 04 24	 movss	 DWORD PTR [esp], xmm0
  01630	51		 push	 ecx
  01631	f3 0f 10 05 00
	00 00 00	 movss	 xmm0, DWORD PTR __real@3f800000
  01639	f3 0f 11 04 24	 movss	 DWORD PTR [esp], xmm0
  0163e	6a 00		 push	 0
  01640	6a 00		 push	 0
  01642	6a 32		 push	 50			; 00000032H
  01644	e8 00 00 00 00	 call	 ?set_terrain_type_textures@@YGXHHHMMMMMHHHW4SURFACE_TYPES@@@Z ; set_terrain_type_textures

; 1196 :    set_terrain_type_textures ( TEMP_TERRAIN_TYPE_COASTAL_RIVER,	0, 0, 1.0, 256, 256, 0, 0, 255, 0, 255, SURFACE_TYPE_NONE );

  01649	6a 00		 push	 0
  0164b	68 ff 00 00 00	 push	 255			; 000000ffH
  01650	6a 00		 push	 0
  01652	68 ff 00 00 00	 push	 255			; 000000ffH
  01657	51		 push	 ecx
  01658	0f 57 c0	 xorps	 xmm0, xmm0
  0165b	f3 0f 11 04 24	 movss	 DWORD PTR [esp], xmm0
  01660	51		 push	 ecx
  01661	0f 57 c0	 xorps	 xmm0, xmm0
  01664	f3 0f 11 04 24	 movss	 DWORD PTR [esp], xmm0
  01669	51		 push	 ecx
  0166a	f3 0f 10 05 00
	00 00 00	 movss	 xmm0, DWORD PTR __real@43800000
  01672	f3 0f 11 04 24	 movss	 DWORD PTR [esp], xmm0
  01677	51		 push	 ecx
  01678	f3 0f 10 05 00
	00 00 00	 movss	 xmm0, DWORD PTR __real@43800000
  01680	f3 0f 11 04 24	 movss	 DWORD PTR [esp], xmm0
  01685	51		 push	 ecx
  01686	f3 0f 10 05 00
	00 00 00	 movss	 xmm0, DWORD PTR __real@3f800000
  0168e	f3 0f 11 04 24	 movss	 DWORD PTR [esp], xmm0
  01693	6a 00		 push	 0
  01695	6a 00		 push	 0
  01697	6a 33		 push	 51			; 00000033H
  01699	e8 00 00 00 00	 call	 ?set_terrain_type_textures@@YGXHHHMMMMMHHHW4SURFACE_TYPES@@@Z ; set_terrain_type_textures

; 1197 : 
; 1198 : }

  0169e	5f		 pop	 edi
  0169f	5e		 pop	 esi
  016a0	5b		 pop	 ebx
  016a1	8b e5		 mov	 esp, ebp
  016a3	5d		 pop	 ebp
  016a4	c3		 ret	 0
?initialise_3d_terrain_types@@YGXXZ ENDP		; initialise_3d_terrain_types
_TEXT	ENDS
; Function compile flags: /Odtp /ZI
; File c:\users\nhv90\projects\eech\modules\3d\terrain\terrtype.c
;	COMDAT ?initialise_3d_terrain_rendering_routines@@YGXH@Z
_TEXT	SEGMENT
tv640 = -264						; size = 4
_draw_texture_z_colour_clipped_strip_byte_face$ = -196	; size = 4
_draw_texture_z_colour_clipped_strip_word_face$ = -192	; size = 4
_draw_texture_x_colour_clipped_strip_byte_face$ = -188	; size = 4
_draw_texture_x_colour_clipped_strip_word_face$ = -184	; size = 4
_draw_texture_z_colour_clipped_fan_byte_face$ = -180	; size = 4
_draw_texture_z_colour_clipped_fan_word_face$ = -176	; size = 4
_draw_texture_x_colour_clipped_fan_byte_face$ = -172	; size = 4
_draw_texture_x_colour_clipped_fan_word_face$ = -168	; size = 4
_draw_colour_clipped_strip_byte_face$ = -164		; size = 4
_draw_colour_clipped_strip_word_face$ = -160		; size = 4
_draw_colour_clipped_fan_byte_face$ = -156		; size = 4
_draw_colour_clipped_fan_word_face$ = -152		; size = 4
_draw_texture_z_clipped_strip_byte_face$ = -148		; size = 4
_draw_texture_z_clipped_strip_word_face$ = -144		; size = 4
_draw_texture_x_clipped_strip_byte_face$ = -140		; size = 4
_draw_texture_x_clipped_strip_word_face$ = -136		; size = 4
_draw_texture_z_clipped_fan_byte_face$ = -132		; size = 4
_draw_texture_z_clipped_fan_word_face$ = -128		; size = 4
_draw_texture_x_clipped_fan_byte_face$ = -124		; size = 4
_draw_texture_x_clipped_fan_word_face$ = -120		; size = 4
_draw_clipped_strip_byte_face$ = -116			; size = 4
_draw_clipped_strip_word_face$ = -112			; size = 4
_draw_clipped_fan_byte_face$ = -108			; size = 4
_draw_clipped_fan_word_face$ = -104			; size = 4
_draw_texture_z_colour_unclipped_strip_byte_face$ = -100 ; size = 4
_draw_texture_z_colour_unclipped_strip_word_face$ = -96	; size = 4
_draw_texture_x_colour_unclipped_strip_byte_face$ = -92	; size = 4
_draw_texture_x_colour_unclipped_strip_word_face$ = -88	; size = 4
_draw_texture_z_colour_unclipped_fan_byte_face$ = -84	; size = 4
_draw_texture_z_colour_unclipped_fan_word_face$ = -80	; size = 4
_draw_texture_x_colour_unclipped_fan_byte_face$ = -76	; size = 4
_draw_texture_x_colour_unclipped_fan_word_face$ = -72	; size = 4
_draw_colour_unclipped_strip_byte_face$ = -68		; size = 4
_draw_colour_unclipped_strip_word_face$ = -64		; size = 4
_draw_colour_unclipped_fan_byte_face$ = -60		; size = 4
_draw_colour_unclipped_fan_word_face$ = -56		; size = 4
_draw_texture_z_unclipped_strip_byte_face$ = -52	; size = 4
_draw_texture_z_unclipped_strip_word_face$ = -48	; size = 4
_draw_texture_x_unclipped_strip_byte_face$ = -44	; size = 4
_draw_texture_x_unclipped_strip_word_face$ = -40	; size = 4
_draw_texture_z_unclipped_fan_byte_face$ = -36		; size = 4
_draw_texture_z_unclipped_fan_word_face$ = -32		; size = 4
_draw_texture_x_unclipped_fan_byte_face$ = -28		; size = 4
_draw_texture_x_unclipped_fan_word_face$ = -24		; size = 4
_draw_unclipped_strip_byte_face$ = -20			; size = 4
_draw_unclipped_strip_word_face$ = -16			; size = 4
_draw_unclipped_fan_byte_face$ = -12			; size = 4
_draw_unclipped_fan_word_face$ = -8			; size = 4
_count$ = -4						; size = 4
_dual_pass$ = 8						; size = 4
?initialise_3d_terrain_rendering_routines@@YGXH@Z PROC	; initialise_3d_terrain_rendering_routines, COMDAT

; 278  : {

  00000	55		 push	 ebp
  00001	8b ec		 mov	 ebp, esp
  00003	81 ec 08 01 00
	00		 sub	 esp, 264		; 00000108H
  00009	53		 push	 ebx
  0000a	56		 push	 esi
  0000b	57		 push	 edi

; 279  : 
; 280  : 	terrain_types
; 281  : 		count;
; 282  : 
; 283  : 
; 284  : 	void ( *draw_unclipped_fan_word_face ) ( int );
; 285  : 	void ( *draw_unclipped_fan_byte_face ) ( int );
; 286  : 	void ( *draw_unclipped_strip_word_face ) ( int );
; 287  : 	void ( *draw_unclipped_strip_byte_face ) ( int );
; 288  : 	void ( *draw_texture_x_unclipped_fan_word_face ) ( int );
; 289  : 	void ( *draw_texture_x_unclipped_fan_byte_face ) ( int );
; 290  : 	void ( *draw_texture_z_unclipped_fan_word_face ) ( int );
; 291  : 	void ( *draw_texture_z_unclipped_fan_byte_face ) ( int );
; 292  : 	void ( *draw_texture_x_unclipped_strip_word_face ) ( int );
; 293  : 	void ( *draw_texture_x_unclipped_strip_byte_face ) ( int );
; 294  : 	void ( *draw_texture_z_unclipped_strip_word_face ) ( int );
; 295  : 	void ( *draw_texture_z_unclipped_strip_byte_face ) ( int );
; 296  : 
; 297  : 	void ( *draw_colour_unclipped_fan_word_face ) ( int );
; 298  : 	void ( *draw_colour_unclipped_fan_byte_face ) ( int );
; 299  : 	void ( *draw_colour_unclipped_strip_word_face ) ( int );
; 300  : 	void ( *draw_colour_unclipped_strip_byte_face ) ( int );
; 301  : 	void ( *draw_texture_x_colour_unclipped_fan_word_face ) ( int );
; 302  : 	void ( *draw_texture_x_colour_unclipped_fan_byte_face ) ( int );
; 303  : 	void ( *draw_texture_z_colour_unclipped_fan_word_face ) ( int );
; 304  : 	void ( *draw_texture_z_colour_unclipped_fan_byte_face ) ( int );
; 305  : 	void ( *draw_texture_x_colour_unclipped_strip_word_face ) ( int );
; 306  : 	void ( *draw_texture_x_colour_unclipped_strip_byte_face ) ( int );
; 307  : 	void ( *draw_texture_z_colour_unclipped_strip_word_face ) ( int );
; 308  : 	void ( *draw_texture_z_colour_unclipped_strip_byte_face ) ( int );
; 309  : 
; 310  : 	void ( *draw_clipped_fan_word_face ) ( int );
; 311  : 	void ( *draw_clipped_fan_byte_face ) ( int );
; 312  : 	void ( *draw_clipped_strip_word_face ) ( int );
; 313  : 	void ( *draw_clipped_strip_byte_face ) ( int );
; 314  : 	void ( *draw_texture_x_clipped_fan_word_face ) ( int );
; 315  : 	void ( *draw_texture_x_clipped_fan_byte_face ) ( int );
; 316  : 	void ( *draw_texture_z_clipped_fan_word_face ) ( int );
; 317  : 	void ( *draw_texture_z_clipped_fan_byte_face ) ( int );
; 318  : 	void ( *draw_texture_x_clipped_strip_word_face ) ( int );
; 319  : 	void ( *draw_texture_x_clipped_strip_byte_face ) ( int );
; 320  : 	void ( *draw_texture_z_clipped_strip_word_face ) ( int );
; 321  : 	void ( *draw_texture_z_clipped_strip_byte_face ) ( int );
; 322  : 
; 323  : 	void ( *draw_colour_clipped_fan_word_face ) ( int );
; 324  : 	void ( *draw_colour_clipped_fan_byte_face ) ( int );
; 325  : 	void ( *draw_colour_clipped_strip_word_face ) ( int );
; 326  : 	void ( *draw_colour_clipped_strip_byte_face ) ( int );
; 327  : 	void ( *draw_texture_x_colour_clipped_fan_word_face ) ( int );
; 328  : 	void ( *draw_texture_x_colour_clipped_fan_byte_face ) ( int );
; 329  : 	void ( *draw_texture_z_colour_clipped_fan_word_face ) ( int );
; 330  : 	void ( *draw_texture_z_colour_clipped_fan_byte_face ) ( int );
; 331  : 	void ( *draw_texture_x_colour_clipped_strip_word_face ) ( int );
; 332  : 	void ( *draw_texture_x_colour_clipped_strip_byte_face ) ( int );
; 333  : 	void ( *draw_texture_z_colour_clipped_strip_word_face ) ( int );
; 334  : 	void ( *draw_texture_z_colour_clipped_strip_byte_face ) ( int );
; 335  : 
; 336  : 
; 337  : 	for ( count = ( TERRAIN_TYPE_INVALID + 1 ); count < TERRAIN_TYPE_LAST; count++ )

  0000c	c7 45 fc 01 00
	00 00		 mov	 DWORD PTR _count$[ebp], 1
  00013	eb 09		 jmp	 SHORT $LN4@initialise
$LN2@initialise:
  00015	8b 45 fc	 mov	 eax, DWORD PTR _count$[ebp]
  00018	83 c0 01	 add	 eax, 1
  0001b	89 45 fc	 mov	 DWORD PTR _count$[ebp], eax
$LN4@initialise:
  0001e	83 7d fc 3e	 cmp	 DWORD PTR _count$[ebp], 62 ; 0000003eH
  00022	7d 48		 jge	 SHORT $LN3@initialise

; 338  : 	{
; 339  : 
; 340  : 		terrain_type_information[count].initialised = FALSE;

  00024	6b 45 fc 38	 imul	 eax, DWORD PTR _count$[ebp], 56
  00028	c7 80 00 00 00
	00 00 00 00 00	 mov	 DWORD PTR ?terrain_type_information@@3PAUTERRAIN_TYPE_INFO@@A[eax], 0

; 341  : 		terrain_type_information[count].render_word_clipped = NULL;

  00032	6b 45 fc 38	 imul	 eax, DWORD PTR _count$[ebp], 56
  00036	c7 80 20 00 00
	00 00 00 00 00	 mov	 DWORD PTR ?terrain_type_information@@3PAUTERRAIN_TYPE_INFO@@A[eax+32], 0

; 342  : 		terrain_type_information[count].render_byte_clipped = NULL;

  00040	6b 45 fc 38	 imul	 eax, DWORD PTR _count$[ebp], 56
  00044	c7 80 24 00 00
	00 00 00 00 00	 mov	 DWORD PTR ?terrain_type_information@@3PAUTERRAIN_TYPE_INFO@@A[eax+36], 0

; 343  : 		terrain_type_information[count].render_word_unclipped = NULL;

  0004e	6b 45 fc 38	 imul	 eax, DWORD PTR _count$[ebp], 56
  00052	c7 80 28 00 00
	00 00 00 00 00	 mov	 DWORD PTR ?terrain_type_information@@3PAUTERRAIN_TYPE_INFO@@A[eax+40], 0

; 344  : 		terrain_type_information[count].render_byte_unclipped = NULL;

  0005c	6b 45 fc 38	 imul	 eax, DWORD PTR _count$[ebp], 56
  00060	c7 80 2c 00 00
	00 00 00 00 00	 mov	 DWORD PTR ?terrain_type_information@@3PAUTERRAIN_TYPE_INFO@@A[eax+44], 0

; 345  : 	}

  0006a	eb a9		 jmp	 SHORT $LN2@initialise
$LN3@initialise:

; 346  : 
; 347  : 	//
; 348  : 	// Switch on the two pass rendering routines ( override on the modulate alpha )
; 349  : 	//
; 350  : 
; 351  : 	//NOTE: dual_pass is TRUE normally !!!!
; 352  : 	if ( ( dual_pass ) && ( d3d_modulate_alpha ) )

  0006c	83 7d 08 00	 cmp	 DWORD PTR _dual_pass$[ebp], 0
  00070	0f 84 95 01 00
	00		 je	 $LN10@initialise
  00076	83 3d 00 00 00
	00 00		 cmp	 DWORD PTR ?d3d_modulate_alpha@@3HA, 0 ; d3d_modulate_alpha
  0007d	0f 84 88 01 00
	00		 je	 $LN10@initialise

; 353  : 	{
; 354  : 
; 355  : 		draw_unclipped_fan_word_face = draw_3d_terrain_twopass_unclipped_fan_word_face;

  00083	c7 45 f8 00 00
	00 00		 mov	 DWORD PTR _draw_unclipped_fan_word_face$[ebp], OFFSET ?draw_3d_terrain_twopass_unclipped_fan_word_face@@YGXH@Z ; draw_3d_terrain_twopass_unclipped_fan_word_face

; 356  : 		draw_unclipped_fan_byte_face = draw_3d_terrain_twopass_unclipped_fan_byte_face;

  0008a	c7 45 f4 00 00
	00 00		 mov	 DWORD PTR _draw_unclipped_fan_byte_face$[ebp], OFFSET ?draw_3d_terrain_twopass_unclipped_fan_byte_face@@YGXH@Z ; draw_3d_terrain_twopass_unclipped_fan_byte_face

; 357  : 		draw_unclipped_strip_word_face = draw_3d_terrain_twopass_unclipped_strip_word_face;

  00091	c7 45 f0 00 00
	00 00		 mov	 DWORD PTR _draw_unclipped_strip_word_face$[ebp], OFFSET ?draw_3d_terrain_twopass_unclipped_strip_word_face@@YGXH@Z ; draw_3d_terrain_twopass_unclipped_strip_word_face

; 358  : 		draw_unclipped_strip_byte_face = draw_3d_terrain_twopass_unclipped_strip_byte_face;

  00098	c7 45 ec 00 00
	00 00		 mov	 DWORD PTR _draw_unclipped_strip_byte_face$[ebp], OFFSET ?draw_3d_terrain_twopass_unclipped_strip_byte_face@@YGXH@Z ; draw_3d_terrain_twopass_unclipped_strip_byte_face

; 359  : 		draw_texture_x_unclipped_fan_word_face = draw_3d_terrain_twopass_texture_x_unclipped_fan_word_face;

  0009f	c7 45 e8 00 00
	00 00		 mov	 DWORD PTR _draw_texture_x_unclipped_fan_word_face$[ebp], OFFSET ?draw_3d_terrain_twopass_texture_x_unclipped_fan_word_face@@YGXH@Z ; draw_3d_terrain_twopass_texture_x_unclipped_fan_word_face

; 360  : 		draw_texture_x_unclipped_fan_byte_face = draw_3d_terrain_twopass_texture_x_unclipped_fan_byte_face;

  000a6	c7 45 e4 00 00
	00 00		 mov	 DWORD PTR _draw_texture_x_unclipped_fan_byte_face$[ebp], OFFSET ?draw_3d_terrain_twopass_texture_x_unclipped_fan_byte_face@@YGXH@Z ; draw_3d_terrain_twopass_texture_x_unclipped_fan_byte_face

; 361  : 		draw_texture_z_unclipped_fan_word_face = draw_3d_terrain_twopass_texture_z_unclipped_fan_word_face;

  000ad	c7 45 e0 00 00
	00 00		 mov	 DWORD PTR _draw_texture_z_unclipped_fan_word_face$[ebp], OFFSET ?draw_3d_terrain_twopass_texture_z_unclipped_fan_word_face@@YGXH@Z ; draw_3d_terrain_twopass_texture_z_unclipped_fan_word_face

; 362  : 		draw_texture_z_unclipped_fan_byte_face = draw_3d_terrain_twopass_texture_z_unclipped_fan_byte_face;

  000b4	c7 45 dc 00 00
	00 00		 mov	 DWORD PTR _draw_texture_z_unclipped_fan_byte_face$[ebp], OFFSET ?draw_3d_terrain_twopass_texture_z_unclipped_fan_byte_face@@YGXH@Z ; draw_3d_terrain_twopass_texture_z_unclipped_fan_byte_face

; 363  : 		draw_texture_x_unclipped_strip_word_face = draw_3d_terrain_twopass_texture_x_unclipped_strip_word_face;

  000bb	c7 45 d8 00 00
	00 00		 mov	 DWORD PTR _draw_texture_x_unclipped_strip_word_face$[ebp], OFFSET ?draw_3d_terrain_twopass_texture_x_unclipped_strip_word_face@@YGXH@Z ; draw_3d_terrain_twopass_texture_x_unclipped_strip_word_face

; 364  : 		draw_texture_x_unclipped_strip_byte_face = draw_3d_terrain_twopass_texture_x_unclipped_strip_byte_face;

  000c2	c7 45 d4 00 00
	00 00		 mov	 DWORD PTR _draw_texture_x_unclipped_strip_byte_face$[ebp], OFFSET ?draw_3d_terrain_twopass_texture_x_unclipped_strip_byte_face@@YGXH@Z ; draw_3d_terrain_twopass_texture_x_unclipped_strip_byte_face

; 365  : 		draw_texture_z_unclipped_strip_word_face = draw_3d_terrain_twopass_texture_z_unclipped_strip_word_face;

  000c9	c7 45 d0 00 00
	00 00		 mov	 DWORD PTR _draw_texture_z_unclipped_strip_word_face$[ebp], OFFSET ?draw_3d_terrain_twopass_texture_z_unclipped_strip_word_face@@YGXH@Z ; draw_3d_terrain_twopass_texture_z_unclipped_strip_word_face

; 366  : 		draw_texture_z_unclipped_strip_byte_face = draw_3d_terrain_twopass_texture_z_unclipped_strip_byte_face;

  000d0	c7 45 cc 00 00
	00 00		 mov	 DWORD PTR _draw_texture_z_unclipped_strip_byte_face$[ebp], OFFSET ?draw_3d_terrain_twopass_texture_z_unclipped_strip_byte_face@@YGXH@Z ; draw_3d_terrain_twopass_texture_z_unclipped_strip_byte_face

; 367  : 
; 368  : 		draw_colour_unclipped_strip_word_face = draw_3d_terrain_twopass_colour_unclipped_strip_word_face;

  000d7	c7 45 c0 00 00
	00 00		 mov	 DWORD PTR _draw_colour_unclipped_strip_word_face$[ebp], OFFSET ?draw_3d_terrain_twopass_colour_unclipped_strip_word_face@@YGXH@Z ; draw_3d_terrain_twopass_colour_unclipped_strip_word_face

; 369  : 		draw_colour_unclipped_strip_byte_face = draw_3d_terrain_twopass_colour_unclipped_strip_byte_face;

  000de	c7 45 bc 00 00
	00 00		 mov	 DWORD PTR _draw_colour_unclipped_strip_byte_face$[ebp], OFFSET ?draw_3d_terrain_twopass_colour_unclipped_strip_byte_face@@YGXH@Z ; draw_3d_terrain_twopass_colour_unclipped_strip_byte_face

; 370  : 		draw_colour_unclipped_fan_word_face = draw_3d_terrain_twopass_colour_unclipped_fan_word_face;

  000e5	c7 45 c8 00 00
	00 00		 mov	 DWORD PTR _draw_colour_unclipped_fan_word_face$[ebp], OFFSET ?draw_3d_terrain_twopass_colour_unclipped_fan_word_face@@YGXH@Z ; draw_3d_terrain_twopass_colour_unclipped_fan_word_face

; 371  : 		draw_colour_unclipped_fan_byte_face = draw_3d_terrain_twopass_colour_unclipped_fan_byte_face;

  000ec	c7 45 c4 00 00
	00 00		 mov	 DWORD PTR _draw_colour_unclipped_fan_byte_face$[ebp], OFFSET ?draw_3d_terrain_twopass_colour_unclipped_fan_byte_face@@YGXH@Z ; draw_3d_terrain_twopass_colour_unclipped_fan_byte_face

; 372  : 		draw_texture_x_colour_unclipped_strip_word_face = draw_3d_terrain_twopass_texture_x_colour_unclipped_strip_word_face;

  000f3	c7 45 a8 00 00
	00 00		 mov	 DWORD PTR _draw_texture_x_colour_unclipped_strip_word_face$[ebp], OFFSET ?draw_3d_terrain_twopass_texture_x_colour_unclipped_strip_word_face@@YGXH@Z ; draw_3d_terrain_twopass_texture_x_colour_unclipped_strip_word_face

; 373  : 		draw_texture_x_colour_unclipped_strip_byte_face = draw_3d_terrain_twopass_texture_x_colour_unclipped_strip_byte_face;

  000fa	c7 45 a4 00 00
	00 00		 mov	 DWORD PTR _draw_texture_x_colour_unclipped_strip_byte_face$[ebp], OFFSET ?draw_3d_terrain_twopass_texture_x_colour_unclipped_strip_byte_face@@YGXH@Z ; draw_3d_terrain_twopass_texture_x_colour_unclipped_strip_byte_face

; 374  : 		draw_texture_z_colour_unclipped_strip_word_face = draw_3d_terrain_twopass_texture_z_colour_unclipped_strip_word_face;

  00101	c7 45 a0 00 00
	00 00		 mov	 DWORD PTR _draw_texture_z_colour_unclipped_strip_word_face$[ebp], OFFSET ?draw_3d_terrain_twopass_texture_z_colour_unclipped_strip_word_face@@YGXH@Z ; draw_3d_terrain_twopass_texture_z_colour_unclipped_strip_word_face

; 375  : 		draw_texture_z_colour_unclipped_strip_byte_face = draw_3d_terrain_twopass_texture_z_colour_unclipped_strip_byte_face;

  00108	c7 45 9c 00 00
	00 00		 mov	 DWORD PTR _draw_texture_z_colour_unclipped_strip_byte_face$[ebp], OFFSET ?draw_3d_terrain_twopass_texture_z_colour_unclipped_strip_byte_face@@YGXH@Z ; draw_3d_terrain_twopass_texture_z_colour_unclipped_strip_byte_face

; 376  : 		draw_texture_x_colour_unclipped_fan_word_face = draw_3d_terrain_twopass_texture_x_colour_unclipped_fan_word_face;

  0010f	c7 45 b8 00 00
	00 00		 mov	 DWORD PTR _draw_texture_x_colour_unclipped_fan_word_face$[ebp], OFFSET ?draw_3d_terrain_twopass_texture_x_colour_unclipped_fan_word_face@@YGXH@Z ; draw_3d_terrain_twopass_texture_x_colour_unclipped_fan_word_face

; 377  : 		draw_texture_x_colour_unclipped_fan_byte_face = draw_3d_terrain_twopass_texture_x_colour_unclipped_fan_byte_face;

  00116	c7 45 b4 00 00
	00 00		 mov	 DWORD PTR _draw_texture_x_colour_unclipped_fan_byte_face$[ebp], OFFSET ?draw_3d_terrain_twopass_texture_x_colour_unclipped_fan_byte_face@@YGXH@Z ; draw_3d_terrain_twopass_texture_x_colour_unclipped_fan_byte_face

; 378  : 		draw_texture_z_colour_unclipped_fan_word_face = draw_3d_terrain_twopass_texture_z_colour_unclipped_fan_word_face;

  0011d	c7 45 b0 00 00
	00 00		 mov	 DWORD PTR _draw_texture_z_colour_unclipped_fan_word_face$[ebp], OFFSET ?draw_3d_terrain_twopass_texture_z_colour_unclipped_fan_word_face@@YGXH@Z ; draw_3d_terrain_twopass_texture_z_colour_unclipped_fan_word_face

; 379  : 		draw_texture_z_colour_unclipped_fan_byte_face = draw_3d_terrain_twopass_texture_z_colour_unclipped_fan_byte_face;

  00124	c7 45 ac 00 00
	00 00		 mov	 DWORD PTR _draw_texture_z_colour_unclipped_fan_byte_face$[ebp], OFFSET ?draw_3d_terrain_twopass_texture_z_colour_unclipped_fan_byte_face@@YGXH@Z ; draw_3d_terrain_twopass_texture_z_colour_unclipped_fan_byte_face

; 380  : 
; 381  : 		draw_clipped_fan_word_face = draw_3d_terrain_twopass_clipped_fan_word_face;

  0012b	c7 45 98 00 00
	00 00		 mov	 DWORD PTR _draw_clipped_fan_word_face$[ebp], OFFSET ?draw_3d_terrain_twopass_clipped_fan_word_face@@YGXH@Z ; draw_3d_terrain_twopass_clipped_fan_word_face

; 382  : 		draw_clipped_fan_byte_face = draw_3d_terrain_twopass_clipped_fan_byte_face;

  00132	c7 45 94 00 00
	00 00		 mov	 DWORD PTR _draw_clipped_fan_byte_face$[ebp], OFFSET ?draw_3d_terrain_twopass_clipped_fan_byte_face@@YGXH@Z ; draw_3d_terrain_twopass_clipped_fan_byte_face

; 383  : 		draw_clipped_strip_word_face = draw_3d_terrain_twopass_clipped_strip_word_face;

  00139	c7 45 90 00 00
	00 00		 mov	 DWORD PTR _draw_clipped_strip_word_face$[ebp], OFFSET ?draw_3d_terrain_twopass_clipped_strip_word_face@@YGXH@Z ; draw_3d_terrain_twopass_clipped_strip_word_face

; 384  : 		draw_clipped_strip_byte_face = draw_3d_terrain_twopass_clipped_strip_byte_face;

  00140	c7 45 8c 00 00
	00 00		 mov	 DWORD PTR _draw_clipped_strip_byte_face$[ebp], OFFSET ?draw_3d_terrain_twopass_clipped_strip_byte_face@@YGXH@Z ; draw_3d_terrain_twopass_clipped_strip_byte_face

; 385  : 		draw_texture_x_clipped_fan_word_face = draw_3d_terrain_twopass_texture_x_clipped_fan_word_face;

  00147	c7 45 88 00 00
	00 00		 mov	 DWORD PTR _draw_texture_x_clipped_fan_word_face$[ebp], OFFSET ?draw_3d_terrain_twopass_texture_x_clipped_fan_word_face@@YGXH@Z ; draw_3d_terrain_twopass_texture_x_clipped_fan_word_face

; 386  : 		draw_texture_x_clipped_fan_byte_face = draw_3d_terrain_twopass_texture_x_clipped_fan_byte_face;

  0014e	c7 45 84 00 00
	00 00		 mov	 DWORD PTR _draw_texture_x_clipped_fan_byte_face$[ebp], OFFSET ?draw_3d_terrain_twopass_texture_x_clipped_fan_byte_face@@YGXH@Z ; draw_3d_terrain_twopass_texture_x_clipped_fan_byte_face

; 387  : 		draw_texture_z_clipped_fan_word_face = draw_3d_terrain_twopass_texture_z_clipped_fan_word_face;

  00155	c7 45 80 00 00
	00 00		 mov	 DWORD PTR _draw_texture_z_clipped_fan_word_face$[ebp], OFFSET ?draw_3d_terrain_twopass_texture_z_clipped_fan_word_face@@YGXH@Z ; draw_3d_terrain_twopass_texture_z_clipped_fan_word_face

; 388  : 		draw_texture_z_clipped_fan_byte_face = draw_3d_terrain_twopass_texture_z_clipped_fan_byte_face;

  0015c	c7 85 7c ff ff
	ff 00 00 00 00	 mov	 DWORD PTR _draw_texture_z_clipped_fan_byte_face$[ebp], OFFSET ?draw_3d_terrain_twopass_texture_z_clipped_fan_byte_face@@YGXH@Z ; draw_3d_terrain_twopass_texture_z_clipped_fan_byte_face

; 389  : 		draw_texture_x_clipped_strip_word_face = draw_3d_terrain_twopass_texture_x_clipped_strip_word_face;

  00166	c7 85 78 ff ff
	ff 00 00 00 00	 mov	 DWORD PTR _draw_texture_x_clipped_strip_word_face$[ebp], OFFSET ?draw_3d_terrain_twopass_texture_x_clipped_strip_word_face@@YGXH@Z ; draw_3d_terrain_twopass_texture_x_clipped_strip_word_face

; 390  : 		draw_texture_x_clipped_strip_byte_face = draw_3d_terrain_twopass_texture_x_clipped_strip_byte_face;

  00170	c7 85 74 ff ff
	ff 00 00 00 00	 mov	 DWORD PTR _draw_texture_x_clipped_strip_byte_face$[ebp], OFFSET ?draw_3d_terrain_twopass_texture_x_clipped_strip_byte_face@@YGXH@Z ; draw_3d_terrain_twopass_texture_x_clipped_strip_byte_face

; 391  : 		draw_texture_z_clipped_strip_word_face = draw_3d_terrain_twopass_texture_z_clipped_strip_word_face;

  0017a	c7 85 70 ff ff
	ff 00 00 00 00	 mov	 DWORD PTR _draw_texture_z_clipped_strip_word_face$[ebp], OFFSET ?draw_3d_terrain_twopass_texture_z_clipped_strip_word_face@@YGXH@Z ; draw_3d_terrain_twopass_texture_z_clipped_strip_word_face

; 392  : 		draw_texture_z_clipped_strip_byte_face = draw_3d_terrain_twopass_texture_z_clipped_strip_byte_face;

  00184	c7 85 6c ff ff
	ff 00 00 00 00	 mov	 DWORD PTR _draw_texture_z_clipped_strip_byte_face$[ebp], OFFSET ?draw_3d_terrain_twopass_texture_z_clipped_strip_byte_face@@YGXH@Z ; draw_3d_terrain_twopass_texture_z_clipped_strip_byte_face

; 393  : 
; 394  : 		draw_colour_clipped_strip_word_face = draw_3d_terrain_twopass_colour_clipped_strip_word_face;

  0018e	c7 85 60 ff ff
	ff 00 00 00 00	 mov	 DWORD PTR _draw_colour_clipped_strip_word_face$[ebp], OFFSET ?draw_3d_terrain_twopass_colour_clipped_strip_word_face@@YGXH@Z ; draw_3d_terrain_twopass_colour_clipped_strip_word_face

; 395  : 		draw_colour_clipped_strip_byte_face = draw_3d_terrain_twopass_colour_clipped_strip_byte_face;

  00198	c7 85 5c ff ff
	ff 00 00 00 00	 mov	 DWORD PTR _draw_colour_clipped_strip_byte_face$[ebp], OFFSET ?draw_3d_terrain_twopass_colour_clipped_strip_byte_face@@YGXH@Z ; draw_3d_terrain_twopass_colour_clipped_strip_byte_face

; 396  : 		draw_colour_clipped_fan_word_face = draw_3d_terrain_twopass_colour_clipped_fan_word_face;

  001a2	c7 85 68 ff ff
	ff 00 00 00 00	 mov	 DWORD PTR _draw_colour_clipped_fan_word_face$[ebp], OFFSET ?draw_3d_terrain_twopass_colour_clipped_fan_word_face@@YGXH@Z ; draw_3d_terrain_twopass_colour_clipped_fan_word_face

; 397  : 		draw_colour_clipped_fan_byte_face = draw_3d_terrain_twopass_colour_clipped_fan_byte_face;

  001ac	c7 85 64 ff ff
	ff 00 00 00 00	 mov	 DWORD PTR _draw_colour_clipped_fan_byte_face$[ebp], OFFSET ?draw_3d_terrain_twopass_colour_clipped_fan_byte_face@@YGXH@Z ; draw_3d_terrain_twopass_colour_clipped_fan_byte_face

; 398  : 		draw_texture_x_colour_clipped_fan_word_face = draw_3d_terrain_twopass_texture_x_colour_clipped_fan_word_face;

  001b6	c7 85 58 ff ff
	ff 00 00 00 00	 mov	 DWORD PTR _draw_texture_x_colour_clipped_fan_word_face$[ebp], OFFSET ?draw_3d_terrain_twopass_texture_x_colour_clipped_fan_word_face@@YGXH@Z ; draw_3d_terrain_twopass_texture_x_colour_clipped_fan_word_face

; 399  : 		draw_texture_x_colour_clipped_fan_byte_face = draw_3d_terrain_twopass_texture_x_colour_clipped_fan_byte_face;

  001c0	c7 85 54 ff ff
	ff 00 00 00 00	 mov	 DWORD PTR _draw_texture_x_colour_clipped_fan_byte_face$[ebp], OFFSET ?draw_3d_terrain_twopass_texture_x_colour_clipped_fan_byte_face@@YGXH@Z ; draw_3d_terrain_twopass_texture_x_colour_clipped_fan_byte_face

; 400  : 		draw_texture_z_colour_clipped_fan_word_face = draw_3d_terrain_twopass_texture_z_colour_clipped_fan_word_face;

  001ca	c7 85 50 ff ff
	ff 00 00 00 00	 mov	 DWORD PTR _draw_texture_z_colour_clipped_fan_word_face$[ebp], OFFSET ?draw_3d_terrain_twopass_texture_z_colour_clipped_fan_word_face@@YGXH@Z ; draw_3d_terrain_twopass_texture_z_colour_clipped_fan_word_face

; 401  : 		draw_texture_z_colour_clipped_fan_byte_face = draw_3d_terrain_twopass_texture_z_colour_clipped_fan_byte_face;

  001d4	c7 85 4c ff ff
	ff 00 00 00 00	 mov	 DWORD PTR _draw_texture_z_colour_clipped_fan_byte_face$[ebp], OFFSET ?draw_3d_terrain_twopass_texture_z_colour_clipped_fan_byte_face@@YGXH@Z ; draw_3d_terrain_twopass_texture_z_colour_clipped_fan_byte_face

; 402  : 		draw_texture_x_colour_clipped_strip_word_face = draw_3d_terrain_twopass_texture_x_colour_clipped_strip_word_face;

  001de	c7 85 48 ff ff
	ff 00 00 00 00	 mov	 DWORD PTR _draw_texture_x_colour_clipped_strip_word_face$[ebp], OFFSET ?draw_3d_terrain_twopass_texture_x_colour_clipped_strip_word_face@@YGXH@Z ; draw_3d_terrain_twopass_texture_x_colour_clipped_strip_word_face

; 403  : 		draw_texture_x_colour_clipped_strip_byte_face = draw_3d_terrain_twopass_texture_x_colour_clipped_strip_byte_face;

  001e8	c7 85 44 ff ff
	ff 00 00 00 00	 mov	 DWORD PTR _draw_texture_x_colour_clipped_strip_byte_face$[ebp], OFFSET ?draw_3d_terrain_twopass_texture_x_colour_clipped_strip_byte_face@@YGXH@Z ; draw_3d_terrain_twopass_texture_x_colour_clipped_strip_byte_face

; 404  : 		draw_texture_z_colour_clipped_strip_word_face = draw_3d_terrain_twopass_texture_z_colour_clipped_strip_word_face;

  001f2	c7 85 40 ff ff
	ff 00 00 00 00	 mov	 DWORD PTR _draw_texture_z_colour_clipped_strip_word_face$[ebp], OFFSET ?draw_3d_terrain_twopass_texture_z_colour_clipped_strip_word_face@@YGXH@Z ; draw_3d_terrain_twopass_texture_z_colour_clipped_strip_word_face

; 405  : 		draw_texture_z_colour_clipped_strip_byte_face = draw_3d_terrain_twopass_texture_z_colour_clipped_strip_byte_face;

  001fc	c7 85 3c ff ff
	ff 00 00 00 00	 mov	 DWORD PTR _draw_texture_z_colour_clipped_strip_byte_face$[ebp], OFFSET ?draw_3d_terrain_twopass_texture_z_colour_clipped_strip_byte_face@@YGXH@Z ; draw_3d_terrain_twopass_texture_z_colour_clipped_strip_byte_face

; 406  : 	}
; 407  : 	else

  00206	e9 83 01 00 00	 jmp	 $LN11@initialise
$LN10@initialise:

; 408  : 	{
; 409  : 		//'normal UNCLIPPED polys and strips'
; 410  : 		draw_unclipped_fan_word_face = draw_3d_terrain_unclipped_fan_word_face;

  0020b	c7 45 f8 00 00
	00 00		 mov	 DWORD PTR _draw_unclipped_fan_word_face$[ebp], OFFSET ?draw_3d_terrain_unclipped_fan_word_face@@YGXH@Z ; draw_3d_terrain_unclipped_fan_word_face

; 411  : 		draw_unclipped_fan_byte_face = draw_3d_terrain_unclipped_fan_byte_face;

  00212	c7 45 f4 00 00
	00 00		 mov	 DWORD PTR _draw_unclipped_fan_byte_face$[ebp], OFFSET ?draw_3d_terrain_unclipped_fan_byte_face@@YGXH@Z ; draw_3d_terrain_unclipped_fan_byte_face

; 412  : 		draw_unclipped_strip_word_face = draw_3d_terrain_unclipped_strip_word_face;

  00219	c7 45 f0 00 00
	00 00		 mov	 DWORD PTR _draw_unclipped_strip_word_face$[ebp], OFFSET ?draw_3d_terrain_unclipped_strip_word_face@@YGXH@Z ; draw_3d_terrain_unclipped_strip_word_face

; 413  : 		draw_unclipped_strip_byte_face = draw_3d_terrain_unclipped_strip_byte_face;

  00220	c7 45 ec 00 00
	00 00		 mov	 DWORD PTR _draw_unclipped_strip_byte_face$[ebp], OFFSET ?draw_3d_terrain_unclipped_strip_byte_face@@YGXH@Z ; draw_3d_terrain_unclipped_strip_byte_face

; 414  : 		//'not used' ?
; 415  : 		draw_texture_x_unclipped_fan_word_face = draw_3d_terrain_texture_x_unclipped_fan_word_face;

  00227	c7 45 e8 00 00
	00 00		 mov	 DWORD PTR _draw_texture_x_unclipped_fan_word_face$[ebp], OFFSET ?draw_3d_terrain_texture_x_unclipped_fan_word_face@@YGXH@Z ; draw_3d_terrain_texture_x_unclipped_fan_word_face

; 416  : 		draw_texture_x_unclipped_fan_byte_face = draw_3d_terrain_texture_x_unclipped_fan_byte_face;

  0022e	c7 45 e4 00 00
	00 00		 mov	 DWORD PTR _draw_texture_x_unclipped_fan_byte_face$[ebp], OFFSET ?draw_3d_terrain_texture_x_unclipped_fan_byte_face@@YGXH@Z ; draw_3d_terrain_texture_x_unclipped_fan_byte_face

; 417  : 		draw_texture_z_unclipped_fan_word_face = draw_3d_terrain_texture_z_unclipped_fan_word_face;

  00235	c7 45 e0 00 00
	00 00		 mov	 DWORD PTR _draw_texture_z_unclipped_fan_word_face$[ebp], OFFSET ?draw_3d_terrain_texture_z_unclipped_fan_word_face@@YGXH@Z ; draw_3d_terrain_texture_z_unclipped_fan_word_face

; 418  : 		draw_texture_z_unclipped_fan_byte_face = draw_3d_terrain_texture_z_unclipped_fan_byte_face;

  0023c	c7 45 dc 00 00
	00 00		 mov	 DWORD PTR _draw_texture_z_unclipped_fan_byte_face$[ebp], OFFSET ?draw_3d_terrain_texture_z_unclipped_fan_byte_face@@YGXH@Z ; draw_3d_terrain_texture_z_unclipped_fan_byte_face

; 419  : 		draw_texture_x_unclipped_strip_word_face = draw_3d_terrain_texture_x_unclipped_strip_word_face;

  00243	c7 45 d8 00 00
	00 00		 mov	 DWORD PTR _draw_texture_x_unclipped_strip_word_face$[ebp], OFFSET ?draw_3d_terrain_texture_x_unclipped_strip_word_face@@YGXH@Z ; draw_3d_terrain_texture_x_unclipped_strip_word_face

; 420  : 		draw_texture_x_unclipped_strip_byte_face = draw_3d_terrain_texture_x_unclipped_strip_byte_face;

  0024a	c7 45 d4 00 00
	00 00		 mov	 DWORD PTR _draw_texture_x_unclipped_strip_byte_face$[ebp], OFFSET ?draw_3d_terrain_texture_x_unclipped_strip_byte_face@@YGXH@Z ; draw_3d_terrain_texture_x_unclipped_strip_byte_face

; 421  : 		draw_texture_z_unclipped_strip_word_face = draw_3d_terrain_texture_z_unclipped_strip_word_face;

  00251	c7 45 d0 00 00
	00 00		 mov	 DWORD PTR _draw_texture_z_unclipped_strip_word_face$[ebp], OFFSET ?draw_3d_terrain_texture_z_unclipped_strip_word_face@@YGXH@Z ; draw_3d_terrain_texture_z_unclipped_strip_word_face

; 422  : 		draw_texture_z_unclipped_strip_byte_face = draw_3d_terrain_texture_z_unclipped_strip_byte_face;

  00258	c7 45 cc 00 00
	00 00		 mov	 DWORD PTR _draw_texture_z_unclipped_strip_byte_face$[ebp], OFFSET ?draw_3d_terrain_texture_z_unclipped_strip_byte_face@@YGXH@Z ; draw_3d_terrain_texture_z_unclipped_strip_byte_face

; 423  : 
; 424  : 		//'normal COLOUR UNCLIPPED polys and strips'
; 425  : 		draw_colour_unclipped_strip_word_face = draw_3d_terrain_colour_unclipped_strip_word_face;

  0025f	c7 45 c0 00 00
	00 00		 mov	 DWORD PTR _draw_colour_unclipped_strip_word_face$[ebp], OFFSET ?draw_3d_terrain_colour_unclipped_strip_word_face@@YGXH@Z ; draw_3d_terrain_colour_unclipped_strip_word_face

; 426  : 		draw_colour_unclipped_strip_byte_face = draw_3d_terrain_colour_unclipped_strip_byte_face;

  00266	c7 45 bc 00 00
	00 00		 mov	 DWORD PTR _draw_colour_unclipped_strip_byte_face$[ebp], OFFSET ?draw_3d_terrain_colour_unclipped_strip_byte_face@@YGXH@Z ; draw_3d_terrain_colour_unclipped_strip_byte_face

; 427  : 		draw_colour_unclipped_fan_word_face = draw_3d_terrain_colour_unclipped_fan_word_face;

  0026d	c7 45 c8 00 00
	00 00		 mov	 DWORD PTR _draw_colour_unclipped_fan_word_face$[ebp], OFFSET ?draw_3d_terrain_colour_unclipped_fan_word_face@@YGXH@Z ; draw_3d_terrain_colour_unclipped_fan_word_face

; 428  : 		draw_colour_unclipped_fan_byte_face = draw_3d_terrain_colour_unclipped_fan_byte_face;

  00274	c7 45 c4 00 00
	00 00		 mov	 DWORD PTR _draw_colour_unclipped_fan_byte_face$[ebp], OFFSET ?draw_3d_terrain_colour_unclipped_fan_byte_face@@YGXH@Z ; draw_3d_terrain_colour_unclipped_fan_byte_face

; 429  : 
; 430  : 		//'not used'?
; 431  : 		draw_texture_x_colour_unclipped_fan_word_face = draw_3d_terrain_texture_x_colour_unclipped_fan_word_face;

  0027b	c7 45 b8 00 00
	00 00		 mov	 DWORD PTR _draw_texture_x_colour_unclipped_fan_word_face$[ebp], OFFSET ?draw_3d_terrain_texture_x_colour_unclipped_fan_word_face@@YGXH@Z ; draw_3d_terrain_texture_x_colour_unclipped_fan_word_face

; 432  : 		draw_texture_x_colour_unclipped_fan_byte_face = draw_3d_terrain_texture_x_colour_unclipped_fan_byte_face;

  00282	c7 45 b4 00 00
	00 00		 mov	 DWORD PTR _draw_texture_x_colour_unclipped_fan_byte_face$[ebp], OFFSET ?draw_3d_terrain_texture_x_colour_unclipped_fan_byte_face@@YGXH@Z ; draw_3d_terrain_texture_x_colour_unclipped_fan_byte_face

; 433  : 		draw_texture_z_colour_unclipped_fan_word_face = draw_3d_terrain_texture_z_colour_unclipped_fan_word_face;

  00289	c7 45 b0 00 00
	00 00		 mov	 DWORD PTR _draw_texture_z_colour_unclipped_fan_word_face$[ebp], OFFSET ?draw_3d_terrain_texture_z_colour_unclipped_fan_word_face@@YGXH@Z ; draw_3d_terrain_texture_z_colour_unclipped_fan_word_face

; 434  : 		draw_texture_z_colour_unclipped_fan_byte_face = draw_3d_terrain_texture_z_colour_unclipped_fan_byte_face;

  00290	c7 45 ac 00 00
	00 00		 mov	 DWORD PTR _draw_texture_z_colour_unclipped_fan_byte_face$[ebp], OFFSET ?draw_3d_terrain_texture_z_colour_unclipped_fan_byte_face@@YGXH@Z ; draw_3d_terrain_texture_z_colour_unclipped_fan_byte_face

; 435  : 		draw_texture_x_colour_unclipped_strip_word_face = draw_3d_terrain_texture_x_colour_unclipped_strip_word_face;

  00297	c7 45 a8 00 00
	00 00		 mov	 DWORD PTR _draw_texture_x_colour_unclipped_strip_word_face$[ebp], OFFSET ?draw_3d_terrain_texture_x_colour_unclipped_strip_word_face@@YGXH@Z ; draw_3d_terrain_texture_x_colour_unclipped_strip_word_face

; 436  : 		draw_texture_x_colour_unclipped_strip_byte_face = draw_3d_terrain_texture_x_colour_unclipped_strip_byte_face;

  0029e	c7 45 a4 00 00
	00 00		 mov	 DWORD PTR _draw_texture_x_colour_unclipped_strip_byte_face$[ebp], OFFSET ?draw_3d_terrain_texture_x_colour_unclipped_strip_byte_face@@YGXH@Z ; draw_3d_terrain_texture_x_colour_unclipped_strip_byte_face

; 437  : 		draw_texture_z_colour_unclipped_strip_word_face = draw_3d_terrain_texture_z_colour_unclipped_strip_word_face;

  002a5	c7 45 a0 00 00
	00 00		 mov	 DWORD PTR _draw_texture_z_colour_unclipped_strip_word_face$[ebp], OFFSET ?draw_3d_terrain_texture_z_colour_unclipped_strip_word_face@@YGXH@Z ; draw_3d_terrain_texture_z_colour_unclipped_strip_word_face

; 438  : 		draw_texture_z_colour_unclipped_strip_byte_face = draw_3d_terrain_texture_z_colour_unclipped_strip_byte_face;

  002ac	c7 45 9c 00 00
	00 00		 mov	 DWORD PTR _draw_texture_z_colour_unclipped_strip_byte_face$[ebp], OFFSET ?draw_3d_terrain_texture_z_colour_unclipped_strip_byte_face@@YGXH@Z ; draw_3d_terrain_texture_z_colour_unclipped_strip_byte_face

; 439  : 
; 440  : 		//'normal CLIPPED polys and strips'
; 441  : 		draw_clipped_fan_word_face = draw_3d_terrain_clipped_fan_word_face;

  002b3	c7 45 98 00 00
	00 00		 mov	 DWORD PTR _draw_clipped_fan_word_face$[ebp], OFFSET ?draw_3d_terrain_clipped_fan_word_face@@YGXH@Z ; draw_3d_terrain_clipped_fan_word_face

; 442  : 		draw_clipped_fan_byte_face = draw_3d_terrain_clipped_fan_byte_face;

  002ba	c7 45 94 00 00
	00 00		 mov	 DWORD PTR _draw_clipped_fan_byte_face$[ebp], OFFSET ?draw_3d_terrain_clipped_fan_byte_face@@YGXH@Z ; draw_3d_terrain_clipped_fan_byte_face

; 443  : 		draw_clipped_strip_word_face = draw_3d_terrain_clipped_strip_word_face;

  002c1	c7 45 90 00 00
	00 00		 mov	 DWORD PTR _draw_clipped_strip_word_face$[ebp], OFFSET ?draw_3d_terrain_clipped_strip_word_face@@YGXH@Z ; draw_3d_terrain_clipped_strip_word_face

; 444  : 		draw_clipped_strip_byte_face = draw_3d_terrain_clipped_strip_byte_face;

  002c8	c7 45 8c 00 00
	00 00		 mov	 DWORD PTR _draw_clipped_strip_byte_face$[ebp], OFFSET ?draw_3d_terrain_clipped_strip_byte_face@@YGXH@Z ; draw_3d_terrain_clipped_strip_byte_face

; 445  : 
; 446  : 		draw_texture_x_clipped_fan_word_face = draw_3d_terrain_texture_x_clipped_fan_word_face;

  002cf	c7 45 88 00 00
	00 00		 mov	 DWORD PTR _draw_texture_x_clipped_fan_word_face$[ebp], OFFSET ?draw_3d_terrain_texture_x_clipped_fan_word_face@@YGXH@Z ; draw_3d_terrain_texture_x_clipped_fan_word_face

; 447  : 		draw_texture_x_clipped_fan_byte_face = draw_3d_terrain_texture_x_clipped_fan_byte_face;

  002d6	c7 45 84 00 00
	00 00		 mov	 DWORD PTR _draw_texture_x_clipped_fan_byte_face$[ebp], OFFSET ?draw_3d_terrain_texture_x_clipped_fan_byte_face@@YGXH@Z ; draw_3d_terrain_texture_x_clipped_fan_byte_face

; 448  : 		draw_texture_z_clipped_fan_word_face = draw_3d_terrain_texture_z_clipped_fan_word_face;

  002dd	c7 45 80 00 00
	00 00		 mov	 DWORD PTR _draw_texture_z_clipped_fan_word_face$[ebp], OFFSET ?draw_3d_terrain_texture_z_clipped_fan_word_face@@YGXH@Z ; draw_3d_terrain_texture_z_clipped_fan_word_face

; 449  : 		draw_texture_z_clipped_fan_byte_face = draw_3d_terrain_texture_z_clipped_fan_byte_face;

  002e4	c7 85 7c ff ff
	ff 00 00 00 00	 mov	 DWORD PTR _draw_texture_z_clipped_fan_byte_face$[ebp], OFFSET ?draw_3d_terrain_texture_z_clipped_fan_byte_face@@YGXH@Z ; draw_3d_terrain_texture_z_clipped_fan_byte_face

; 450  : 		draw_texture_x_clipped_strip_word_face = draw_3d_terrain_texture_x_clipped_strip_word_face;

  002ee	c7 85 78 ff ff
	ff 00 00 00 00	 mov	 DWORD PTR _draw_texture_x_clipped_strip_word_face$[ebp], OFFSET ?draw_3d_terrain_texture_x_clipped_strip_word_face@@YGXH@Z ; draw_3d_terrain_texture_x_clipped_strip_word_face

; 451  : 		draw_texture_x_clipped_strip_byte_face = draw_3d_terrain_texture_x_clipped_strip_byte_face;

  002f8	c7 85 74 ff ff
	ff 00 00 00 00	 mov	 DWORD PTR _draw_texture_x_clipped_strip_byte_face$[ebp], OFFSET ?draw_3d_terrain_texture_x_clipped_strip_byte_face@@YGXH@Z ; draw_3d_terrain_texture_x_clipped_strip_byte_face

; 452  : 		draw_texture_z_clipped_strip_word_face = draw_3d_terrain_texture_z_clipped_strip_word_face;

  00302	c7 85 70 ff ff
	ff 00 00 00 00	 mov	 DWORD PTR _draw_texture_z_clipped_strip_word_face$[ebp], OFFSET ?draw_3d_terrain_texture_z_clipped_strip_word_face@@YGXH@Z ; draw_3d_terrain_texture_z_clipped_strip_word_face

; 453  : 		draw_texture_z_clipped_strip_byte_face = draw_3d_terrain_texture_z_clipped_strip_byte_face;

  0030c	c7 85 6c ff ff
	ff 00 00 00 00	 mov	 DWORD PTR _draw_texture_z_clipped_strip_byte_face$[ebp], OFFSET ?draw_3d_terrain_texture_z_clipped_strip_byte_face@@YGXH@Z ; draw_3d_terrain_texture_z_clipped_strip_byte_face

; 454  : 
; 455  : 		//'normal COLOUR CLIPPED polys and strips'
; 456  : 		draw_colour_clipped_strip_word_face = draw_3d_terrain_colour_clipped_strip_word_face;

  00316	c7 85 60 ff ff
	ff 00 00 00 00	 mov	 DWORD PTR _draw_colour_clipped_strip_word_face$[ebp], OFFSET ?draw_3d_terrain_colour_clipped_strip_word_face@@YGXH@Z ; draw_3d_terrain_colour_clipped_strip_word_face

; 457  : 		draw_colour_clipped_strip_byte_face = draw_3d_terrain_colour_clipped_strip_byte_face;

  00320	c7 85 5c ff ff
	ff 00 00 00 00	 mov	 DWORD PTR _draw_colour_clipped_strip_byte_face$[ebp], OFFSET ?draw_3d_terrain_colour_clipped_strip_byte_face@@YGXH@Z ; draw_3d_terrain_colour_clipped_strip_byte_face

; 458  : 		draw_colour_clipped_fan_word_face = draw_3d_terrain_colour_clipped_fan_word_face;

  0032a	c7 85 68 ff ff
	ff 00 00 00 00	 mov	 DWORD PTR _draw_colour_clipped_fan_word_face$[ebp], OFFSET ?draw_3d_terrain_colour_clipped_fan_word_face@@YGXH@Z ; draw_3d_terrain_colour_clipped_fan_word_face

; 459  : 		draw_colour_clipped_fan_byte_face = draw_3d_terrain_colour_clipped_fan_byte_face;

  00334	c7 85 64 ff ff
	ff 00 00 00 00	 mov	 DWORD PTR _draw_colour_clipped_fan_byte_face$[ebp], OFFSET ?draw_3d_terrain_colour_clipped_fan_byte_face@@YGXH@Z ; draw_3d_terrain_colour_clipped_fan_byte_face

; 460  : 
; 461  : 		draw_texture_x_colour_clipped_fan_word_face = draw_3d_terrain_texture_x_colour_clipped_fan_word_face;

  0033e	c7 85 58 ff ff
	ff 00 00 00 00	 mov	 DWORD PTR _draw_texture_x_colour_clipped_fan_word_face$[ebp], OFFSET ?draw_3d_terrain_texture_x_colour_clipped_fan_word_face@@YGXH@Z ; draw_3d_terrain_texture_x_colour_clipped_fan_word_face

; 462  : 		draw_texture_x_colour_clipped_fan_byte_face = draw_3d_terrain_texture_x_colour_clipped_fan_byte_face;

  00348	c7 85 54 ff ff
	ff 00 00 00 00	 mov	 DWORD PTR _draw_texture_x_colour_clipped_fan_byte_face$[ebp], OFFSET ?draw_3d_terrain_texture_x_colour_clipped_fan_byte_face@@YGXH@Z ; draw_3d_terrain_texture_x_colour_clipped_fan_byte_face

; 463  : 		draw_texture_z_colour_clipped_fan_word_face = draw_3d_terrain_texture_z_colour_clipped_fan_word_face;

  00352	c7 85 50 ff ff
	ff 00 00 00 00	 mov	 DWORD PTR _draw_texture_z_colour_clipped_fan_word_face$[ebp], OFFSET ?draw_3d_terrain_texture_z_colour_clipped_fan_word_face@@YGXH@Z ; draw_3d_terrain_texture_z_colour_clipped_fan_word_face

; 464  : 		draw_texture_z_colour_clipped_fan_byte_face = draw_3d_terrain_texture_z_colour_clipped_fan_byte_face;

  0035c	c7 85 4c ff ff
	ff 00 00 00 00	 mov	 DWORD PTR _draw_texture_z_colour_clipped_fan_byte_face$[ebp], OFFSET ?draw_3d_terrain_texture_z_colour_clipped_fan_byte_face@@YGXH@Z ; draw_3d_terrain_texture_z_colour_clipped_fan_byte_face

; 465  : 		draw_texture_x_colour_clipped_strip_word_face = draw_3d_terrain_texture_x_colour_clipped_strip_word_face;

  00366	c7 85 48 ff ff
	ff 00 00 00 00	 mov	 DWORD PTR _draw_texture_x_colour_clipped_strip_word_face$[ebp], OFFSET ?draw_3d_terrain_texture_x_colour_clipped_strip_word_face@@YGXH@Z ; draw_3d_terrain_texture_x_colour_clipped_strip_word_face

; 466  : 		draw_texture_x_colour_clipped_strip_byte_face = draw_3d_terrain_texture_x_colour_clipped_strip_byte_face;

  00370	c7 85 44 ff ff
	ff 00 00 00 00	 mov	 DWORD PTR _draw_texture_x_colour_clipped_strip_byte_face$[ebp], OFFSET ?draw_3d_terrain_texture_x_colour_clipped_strip_byte_face@@YGXH@Z ; draw_3d_terrain_texture_x_colour_clipped_strip_byte_face

; 467  : 		draw_texture_z_colour_clipped_strip_word_face = draw_3d_terrain_texture_z_colour_clipped_strip_word_face;

  0037a	c7 85 40 ff ff
	ff 00 00 00 00	 mov	 DWORD PTR _draw_texture_z_colour_clipped_strip_word_face$[ebp], OFFSET ?draw_3d_terrain_texture_z_colour_clipped_strip_word_face@@YGXH@Z ; draw_3d_terrain_texture_z_colour_clipped_strip_word_face

; 468  : 		draw_texture_z_colour_clipped_strip_byte_face = draw_3d_terrain_texture_z_colour_clipped_strip_byte_face;

  00384	c7 85 3c ff ff
	ff 00 00 00 00	 mov	 DWORD PTR _draw_texture_z_colour_clipped_strip_byte_face$[ebp], OFFSET ?draw_3d_terrain_texture_z_colour_clipped_strip_byte_face@@YGXH@Z ; draw_3d_terrain_texture_z_colour_clipped_strip_byte_face
$LN11@initialise:

; 469  : 	}
; 470  : 
; 471  : 	set_terrain_rendering_routines ( TERRAIN_TYPE_SEA, POLYGON_TYPE_FAN,

  0038e	8b 45 f4	 mov	 eax, DWORD PTR _draw_unclipped_fan_byte_face$[ebp]
  00391	50		 push	 eax
  00392	8b 4d f8	 mov	 ecx, DWORD PTR _draw_unclipped_fan_word_face$[ebp]
  00395	51		 push	 ecx
  00396	8b 55 94	 mov	 edx, DWORD PTR _draw_clipped_fan_byte_face$[ebp]
  00399	52		 push	 edx
  0039a	8b 45 98	 mov	 eax, DWORD PTR _draw_clipped_fan_word_face$[ebp]
  0039d	50		 push	 eax
  0039e	6a 00		 push	 0
  003a0	6a 07		 push	 7
  003a2	e8 00 00 00 00	 call	 ?set_terrain_rendering_routines@@YGXHW4TERRAIN_POLYGON_TYPE@@P6GXH@Z111@Z ; set_terrain_rendering_routines

; 472  : 												draw_clipped_fan_word_face, draw_clipped_fan_byte_face,
; 473  : 												draw_unclipped_fan_word_face, draw_unclipped_fan_byte_face );
; 474  : 
; 475  :    set_terrain_rendering_routines ( TERRAIN_TYPE_BEACH, POLYGON_TYPE_STRIP,

  003a7	8b 45 ec	 mov	 eax, DWORD PTR _draw_unclipped_strip_byte_face$[ebp]
  003aa	50		 push	 eax
  003ab	8b 4d f0	 mov	 ecx, DWORD PTR _draw_unclipped_strip_word_face$[ebp]
  003ae	51		 push	 ecx
  003af	8b 55 8c	 mov	 edx, DWORD PTR _draw_clipped_strip_byte_face$[ebp]
  003b2	52		 push	 edx
  003b3	8b 45 90	 mov	 eax, DWORD PTR _draw_clipped_strip_word_face$[ebp]
  003b6	50		 push	 eax
  003b7	6a 01		 push	 1
  003b9	6a 08		 push	 8
  003bb	e8 00 00 00 00	 call	 ?set_terrain_rendering_routines@@YGXHW4TERRAIN_POLYGON_TYPE@@P6GXH@Z111@Z ; set_terrain_rendering_routines

; 476  : 												draw_clipped_strip_word_face, draw_clipped_strip_byte_face,
; 477  : 												draw_unclipped_strip_word_face, draw_unclipped_strip_byte_face );
; 478  : 
; 479  :    set_terrain_rendering_routines ( TERRAIN_TYPE_LAND, POLYGON_TYPE_FAN,

  003c0	8b 45 f4	 mov	 eax, DWORD PTR _draw_unclipped_fan_byte_face$[ebp]
  003c3	50		 push	 eax
  003c4	8b 4d f8	 mov	 ecx, DWORD PTR _draw_unclipped_fan_word_face$[ebp]
  003c7	51		 push	 ecx
  003c8	8b 55 94	 mov	 edx, DWORD PTR _draw_clipped_fan_byte_face$[ebp]
  003cb	52		 push	 edx
  003cc	8b 45 98	 mov	 eax, DWORD PTR _draw_clipped_fan_word_face$[ebp]
  003cf	50		 push	 eax
  003d0	6a 00		 push	 0
  003d2	6a 09		 push	 9
  003d4	e8 00 00 00 00	 call	 ?set_terrain_rendering_routines@@YGXHW4TERRAIN_POLYGON_TYPE@@P6GXH@Z111@Z ; set_terrain_rendering_routines

; 480  : 												draw_clipped_fan_word_face, draw_clipped_fan_byte_face,
; 481  : 												draw_unclipped_fan_word_face, draw_unclipped_fan_byte_face );
; 482  : 
; 483  : 	set_terrain_rendering_routines ( TERRAIN_TYPE_FOREST_FLOOR, POLYGON_TYPE_FAN,

  003d9	68 00 00 00 00	 push	 OFFSET ?draw_3d_terrain_unclipped_fan_byte_face@@YGXH@Z ; draw_3d_terrain_unclipped_fan_byte_face
  003de	68 00 00 00 00	 push	 OFFSET ?draw_3d_terrain_unclipped_fan_word_face@@YGXH@Z ; draw_3d_terrain_unclipped_fan_word_face
  003e3	68 00 00 00 00	 push	 OFFSET ?draw_3d_terrain_clipped_fan_byte_face@@YGXH@Z ; draw_3d_terrain_clipped_fan_byte_face
  003e8	68 00 00 00 00	 push	 OFFSET ?draw_3d_terrain_clipped_fan_word_face@@YGXH@Z ; draw_3d_terrain_clipped_fan_word_face
  003ed	6a 00		 push	 0
  003ef	6a 18		 push	 24			; 00000018H
  003f1	e8 00 00 00 00	 call	 ?set_terrain_rendering_routines@@YGXHW4TERRAIN_POLYGON_TYPE@@P6GXH@Z111@Z ; set_terrain_rendering_routines

; 484  : 												draw_3d_terrain_clipped_fan_word_face, draw_3d_terrain_clipped_fan_byte_face,
; 485  : 												draw_3d_terrain_unclipped_fan_word_face, draw_3d_terrain_unclipped_fan_byte_face );
; 486  : 
; 487  : 	set_terrain_rendering_routines ( TERRAIN_TYPE_FOREST_SIDE_BOTTOM_X, POLYGON_TYPE_STRIP,

  003f6	68 00 00 00 00	 push	 OFFSET ?draw_3d_terrain_texture_x_unclipped_strip_byte_face@@YGXH@Z ; draw_3d_terrain_texture_x_unclipped_strip_byte_face
  003fb	68 00 00 00 00	 push	 OFFSET ?draw_3d_terrain_texture_x_unclipped_strip_word_face@@YGXH@Z ; draw_3d_terrain_texture_x_unclipped_strip_word_face
  00400	68 00 00 00 00	 push	 OFFSET ?draw_3d_terrain_texture_x_clipped_strip_byte_face@@YGXH@Z ; draw_3d_terrain_texture_x_clipped_strip_byte_face
  00405	68 00 00 00 00	 push	 OFFSET ?draw_3d_terrain_texture_x_clipped_strip_word_face@@YGXH@Z ; draw_3d_terrain_texture_x_clipped_strip_word_face
  0040a	6a 01		 push	 1
  0040c	6a 1f		 push	 31			; 0000001fH
  0040e	e8 00 00 00 00	 call	 ?set_terrain_rendering_routines@@YGXHW4TERRAIN_POLYGON_TYPE@@P6GXH@Z111@Z ; set_terrain_rendering_routines

; 488  : 												draw_3d_terrain_texture_x_clipped_strip_word_face, draw_3d_terrain_texture_x_clipped_strip_byte_face,
; 489  : 												draw_3d_terrain_texture_x_unclipped_strip_word_face, draw_3d_terrain_texture_x_unclipped_strip_byte_face );
; 490  : 	set_terrain_rendering_routines ( TERRAIN_TYPE_FOREST_SIDE_MID_X, POLYGON_TYPE_STRIP,

  00413	68 00 00 00 00	 push	 OFFSET ?draw_3d_terrain_texture_x_unclipped_strip_byte_face@@YGXH@Z ; draw_3d_terrain_texture_x_unclipped_strip_byte_face
  00418	68 00 00 00 00	 push	 OFFSET ?draw_3d_terrain_texture_x_unclipped_strip_word_face@@YGXH@Z ; draw_3d_terrain_texture_x_unclipped_strip_word_face
  0041d	68 00 00 00 00	 push	 OFFSET ?draw_3d_terrain_texture_x_clipped_strip_byte_face@@YGXH@Z ; draw_3d_terrain_texture_x_clipped_strip_byte_face
  00422	68 00 00 00 00	 push	 OFFSET ?draw_3d_terrain_texture_x_clipped_strip_word_face@@YGXH@Z ; draw_3d_terrain_texture_x_clipped_strip_word_face
  00427	6a 01		 push	 1
  00429	6a 21		 push	 33			; 00000021H
  0042b	e8 00 00 00 00	 call	 ?set_terrain_rendering_routines@@YGXHW4TERRAIN_POLYGON_TYPE@@P6GXH@Z111@Z ; set_terrain_rendering_routines

; 491  : 												draw_3d_terrain_texture_x_clipped_strip_word_face, draw_3d_terrain_texture_x_clipped_strip_byte_face,
; 492  : 												draw_3d_terrain_texture_x_unclipped_strip_word_face, draw_3d_terrain_texture_x_unclipped_strip_byte_face );
; 493  : 	set_terrain_rendering_routines ( TERRAIN_TYPE_FOREST_SIDE_TOP_X, POLYGON_TYPE_STRIP,

  00430	68 00 00 00 00	 push	 OFFSET ?draw_3d_terrain_texture_x_unclipped_strip_byte_face@@YGXH@Z ; draw_3d_terrain_texture_x_unclipped_strip_byte_face
  00435	68 00 00 00 00	 push	 OFFSET ?draw_3d_terrain_texture_x_unclipped_strip_word_face@@YGXH@Z ; draw_3d_terrain_texture_x_unclipped_strip_word_face
  0043a	68 00 00 00 00	 push	 OFFSET ?draw_3d_terrain_texture_x_clipped_strip_byte_face@@YGXH@Z ; draw_3d_terrain_texture_x_clipped_strip_byte_face
  0043f	68 00 00 00 00	 push	 OFFSET ?draw_3d_terrain_texture_x_clipped_strip_word_face@@YGXH@Z ; draw_3d_terrain_texture_x_clipped_strip_word_face
  00444	6a 01		 push	 1
  00446	6a 23		 push	 35			; 00000023H
  00448	e8 00 00 00 00	 call	 ?set_terrain_rendering_routines@@YGXHW4TERRAIN_POLYGON_TYPE@@P6GXH@Z111@Z ; set_terrain_rendering_routines

; 494  : 												draw_3d_terrain_texture_x_clipped_strip_word_face, draw_3d_terrain_texture_x_clipped_strip_byte_face,
; 495  : 												draw_3d_terrain_texture_x_unclipped_strip_word_face, draw_3d_terrain_texture_x_unclipped_strip_byte_face );
; 496  : 	set_terrain_rendering_routines ( TERRAIN_TYPE_FOREST_SIDE_BOTTOM_Z, POLYGON_TYPE_STRIP,

  0044d	68 00 00 00 00	 push	 OFFSET ?draw_3d_terrain_texture_z_unclipped_strip_byte_face@@YGXH@Z ; draw_3d_terrain_texture_z_unclipped_strip_byte_face
  00452	68 00 00 00 00	 push	 OFFSET ?draw_3d_terrain_texture_z_unclipped_strip_word_face@@YGXH@Z ; draw_3d_terrain_texture_z_unclipped_strip_word_face
  00457	68 00 00 00 00	 push	 OFFSET ?draw_3d_terrain_texture_z_clipped_strip_byte_face@@YGXH@Z ; draw_3d_terrain_texture_z_clipped_strip_byte_face
  0045c	68 00 00 00 00	 push	 OFFSET ?draw_3d_terrain_texture_z_clipped_strip_word_face@@YGXH@Z ; draw_3d_terrain_texture_z_clipped_strip_word_face
  00461	6a 01		 push	 1
  00463	6a 20		 push	 32			; 00000020H
  00465	e8 00 00 00 00	 call	 ?set_terrain_rendering_routines@@YGXHW4TERRAIN_POLYGON_TYPE@@P6GXH@Z111@Z ; set_terrain_rendering_routines

; 497  : 												draw_3d_terrain_texture_z_clipped_strip_word_face, draw_3d_terrain_texture_z_clipped_strip_byte_face,
; 498  : 												draw_3d_terrain_texture_z_unclipped_strip_word_face, draw_3d_terrain_texture_z_unclipped_strip_byte_face );
; 499  : 	set_terrain_rendering_routines ( TERRAIN_TYPE_FOREST_SIDE_MID_Z, POLYGON_TYPE_STRIP,

  0046a	68 00 00 00 00	 push	 OFFSET ?draw_3d_terrain_texture_z_unclipped_strip_byte_face@@YGXH@Z ; draw_3d_terrain_texture_z_unclipped_strip_byte_face
  0046f	68 00 00 00 00	 push	 OFFSET ?draw_3d_terrain_texture_z_unclipped_strip_word_face@@YGXH@Z ; draw_3d_terrain_texture_z_unclipped_strip_word_face
  00474	68 00 00 00 00	 push	 OFFSET ?draw_3d_terrain_texture_z_clipped_strip_byte_face@@YGXH@Z ; draw_3d_terrain_texture_z_clipped_strip_byte_face
  00479	68 00 00 00 00	 push	 OFFSET ?draw_3d_terrain_texture_z_clipped_strip_word_face@@YGXH@Z ; draw_3d_terrain_texture_z_clipped_strip_word_face
  0047e	6a 01		 push	 1
  00480	6a 22		 push	 34			; 00000022H
  00482	e8 00 00 00 00	 call	 ?set_terrain_rendering_routines@@YGXHW4TERRAIN_POLYGON_TYPE@@P6GXH@Z111@Z ; set_terrain_rendering_routines

; 500  : 												draw_3d_terrain_texture_z_clipped_strip_word_face, draw_3d_terrain_texture_z_clipped_strip_byte_face,
; 501  : 												draw_3d_terrain_texture_z_unclipped_strip_word_face, draw_3d_terrain_texture_z_unclipped_strip_byte_face );
; 502  : 	set_terrain_rendering_routines ( TERRAIN_TYPE_FOREST_SIDE_TOP_Z, POLYGON_TYPE_STRIP,

  00487	68 00 00 00 00	 push	 OFFSET ?draw_3d_terrain_texture_z_unclipped_strip_byte_face@@YGXH@Z ; draw_3d_terrain_texture_z_unclipped_strip_byte_face
  0048c	68 00 00 00 00	 push	 OFFSET ?draw_3d_terrain_texture_z_unclipped_strip_word_face@@YGXH@Z ; draw_3d_terrain_texture_z_unclipped_strip_word_face
  00491	68 00 00 00 00	 push	 OFFSET ?draw_3d_terrain_texture_z_clipped_strip_byte_face@@YGXH@Z ; draw_3d_terrain_texture_z_clipped_strip_byte_face
  00496	68 00 00 00 00	 push	 OFFSET ?draw_3d_terrain_texture_z_clipped_strip_word_face@@YGXH@Z ; draw_3d_terrain_texture_z_clipped_strip_word_face
  0049b	6a 01		 push	 1
  0049d	6a 24		 push	 36			; 00000024H
  0049f	e8 00 00 00 00	 call	 ?set_terrain_rendering_routines@@YGXHW4TERRAIN_POLYGON_TYPE@@P6GXH@Z111@Z ; set_terrain_rendering_routines

; 503  : 												draw_3d_terrain_texture_z_clipped_strip_word_face, draw_3d_terrain_texture_z_clipped_strip_byte_face,
; 504  : 												draw_3d_terrain_texture_z_unclipped_strip_word_face, draw_3d_terrain_texture_z_unclipped_strip_byte_face );
; 505  : //VJ goes to C:\gms\Razorworks\eech-new\modules\graphics\polyd3d.c
; 506  : 	set_terrain_rendering_routines ( TERRAIN_TYPE_FOREST_TOP, POLYGON_TYPE_FAN,

  004a4	68 00 00 00 00	 push	 OFFSET ?draw_3d_terrain_unclipped_fan_byte_face@@YGXH@Z ; draw_3d_terrain_unclipped_fan_byte_face
  004a9	68 00 00 00 00	 push	 OFFSET ?draw_3d_terrain_unclipped_fan_word_face@@YGXH@Z ; draw_3d_terrain_unclipped_fan_word_face
  004ae	68 00 00 00 00	 push	 OFFSET ?draw_3d_terrain_clipped_fan_byte_face@@YGXH@Z ; draw_3d_terrain_clipped_fan_byte_face
  004b3	68 00 00 00 00	 push	 OFFSET ?draw_3d_terrain_clipped_fan_word_face@@YGXH@Z ; draw_3d_terrain_clipped_fan_word_face
  004b8	6a 00		 push	 0
  004ba	6a 2e		 push	 46			; 0000002eH
  004bc	e8 00 00 00 00	 call	 ?set_terrain_rendering_routines@@YGXHW4TERRAIN_POLYGON_TYPE@@P6GXH@Z111@Z ; set_terrain_rendering_routines

; 507  : 												draw_3d_terrain_clipped_fan_word_face, draw_3d_terrain_clipped_fan_byte_face,
; 508  : 												draw_3d_terrain_unclipped_fan_word_face, draw_3d_terrain_unclipped_fan_byte_face );
; 509  : 
; 510  : 	//cities
; 511  : 
; 512  :    set_terrain_rendering_routines ( TERRAIN_TYPE_BUILT_UP_AREA1, POLYGON_TYPE_FAN,

  004c1	8b 45 c4	 mov	 eax, DWORD PTR _draw_colour_unclipped_fan_byte_face$[ebp]
  004c4	50		 push	 eax
  004c5	8b 4d c8	 mov	 ecx, DWORD PTR _draw_colour_unclipped_fan_word_face$[ebp]
  004c8	51		 push	 ecx
  004c9	8b 95 64 ff ff
	ff		 mov	 edx, DWORD PTR _draw_colour_clipped_fan_byte_face$[ebp]
  004cf	52		 push	 edx
  004d0	8b 85 68 ff ff
	ff		 mov	 eax, DWORD PTR _draw_colour_clipped_fan_word_face$[ebp]
  004d6	50		 push	 eax
  004d7	6a 00		 push	 0
  004d9	6a 25		 push	 37			; 00000025H
  004db	e8 00 00 00 00	 call	 ?set_terrain_rendering_routines@@YGXHW4TERRAIN_POLYGON_TYPE@@P6GXH@Z111@Z ; set_terrain_rendering_routines

; 513  : 												draw_colour_clipped_fan_word_face, draw_colour_clipped_fan_byte_face,
; 514  : 												draw_colour_unclipped_fan_word_face, draw_colour_unclipped_fan_byte_face );
; 515  :    set_terrain_rendering_routines ( TERRAIN_TYPE_BUILT_UP_AREA2, POLYGON_TYPE_FAN,

  004e0	8b 45 c4	 mov	 eax, DWORD PTR _draw_colour_unclipped_fan_byte_face$[ebp]
  004e3	50		 push	 eax
  004e4	8b 4d c8	 mov	 ecx, DWORD PTR _draw_colour_unclipped_fan_word_face$[ebp]
  004e7	51		 push	 ecx
  004e8	8b 95 64 ff ff
	ff		 mov	 edx, DWORD PTR _draw_colour_clipped_fan_byte_face$[ebp]
  004ee	52		 push	 edx
  004ef	8b 85 68 ff ff
	ff		 mov	 eax, DWORD PTR _draw_colour_clipped_fan_word_face$[ebp]
  004f5	50		 push	 eax
  004f6	6a 00		 push	 0
  004f8	6a 26		 push	 38			; 00000026H
  004fa	e8 00 00 00 00	 call	 ?set_terrain_rendering_routines@@YGXHW4TERRAIN_POLYGON_TYPE@@P6GXH@Z111@Z ; set_terrain_rendering_routines

; 516  : 												draw_colour_clipped_fan_word_face, draw_colour_clipped_fan_byte_face,
; 517  : 												draw_colour_unclipped_fan_word_face, draw_colour_unclipped_fan_byte_face );
; 518  :    set_terrain_rendering_routines ( TERRAIN_TYPE_BUILT_UP_AREA3, POLYGON_TYPE_FAN,

  004ff	8b 45 c4	 mov	 eax, DWORD PTR _draw_colour_unclipped_fan_byte_face$[ebp]
  00502	50		 push	 eax
  00503	8b 4d c8	 mov	 ecx, DWORD PTR _draw_colour_unclipped_fan_word_face$[ebp]
  00506	51		 push	 ecx
  00507	8b 95 64 ff ff
	ff		 mov	 edx, DWORD PTR _draw_colour_clipped_fan_byte_face$[ebp]
  0050d	52		 push	 edx
  0050e	8b 85 68 ff ff
	ff		 mov	 eax, DWORD PTR _draw_colour_clipped_fan_word_face$[ebp]
  00514	50		 push	 eax
  00515	6a 00		 push	 0
  00517	6a 27		 push	 39			; 00000027H
  00519	e8 00 00 00 00	 call	 ?set_terrain_rendering_routines@@YGXHW4TERRAIN_POLYGON_TYPE@@P6GXH@Z111@Z ; set_terrain_rendering_routines

; 519  : 												draw_colour_clipped_fan_word_face, draw_colour_clipped_fan_byte_face,
; 520  : 												draw_colour_unclipped_fan_word_face, draw_colour_unclipped_fan_byte_face );
; 521  :    set_terrain_rendering_routines ( TERRAIN_TYPE_BUILT_UP_AREA4, POLYGON_TYPE_FAN,

  0051e	8b 45 c4	 mov	 eax, DWORD PTR _draw_colour_unclipped_fan_byte_face$[ebp]
  00521	50		 push	 eax
  00522	8b 4d c8	 mov	 ecx, DWORD PTR _draw_colour_unclipped_fan_word_face$[ebp]
  00525	51		 push	 ecx
  00526	8b 95 64 ff ff
	ff		 mov	 edx, DWORD PTR _draw_colour_clipped_fan_byte_face$[ebp]
  0052c	52		 push	 edx
  0052d	8b 85 68 ff ff
	ff		 mov	 eax, DWORD PTR _draw_colour_clipped_fan_word_face$[ebp]
  00533	50		 push	 eax
  00534	6a 00		 push	 0
  00536	6a 28		 push	 40			; 00000028H
  00538	e8 00 00 00 00	 call	 ?set_terrain_rendering_routines@@YGXHW4TERRAIN_POLYGON_TYPE@@P6GXH@Z111@Z ; set_terrain_rendering_routines

; 522  : 												draw_colour_clipped_fan_word_face, draw_colour_clipped_fan_byte_face,
; 523  : 												draw_colour_unclipped_fan_word_face, draw_colour_unclipped_fan_byte_face );
; 524  : 
; 525  :    set_terrain_rendering_routines ( TERRAIN_TYPE_ROAD, POLYGON_TYPE_STRIP,

  0053d	8b 45 bc	 mov	 eax, DWORD PTR _draw_colour_unclipped_strip_byte_face$[ebp]
  00540	50		 push	 eax
  00541	8b 4d c0	 mov	 ecx, DWORD PTR _draw_colour_unclipped_strip_word_face$[ebp]
  00544	51		 push	 ecx
  00545	8b 95 5c ff ff
	ff		 mov	 edx, DWORD PTR _draw_colour_clipped_strip_byte_face$[ebp]
  0054b	52		 push	 edx
  0054c	8b 85 60 ff ff
	ff		 mov	 eax, DWORD PTR _draw_colour_clipped_strip_word_face$[ebp]
  00552	50		 push	 eax
  00553	6a 01		 push	 1
  00555	6a 29		 push	 41			; 00000029H
  00557	e8 00 00 00 00	 call	 ?set_terrain_rendering_routines@@YGXHW4TERRAIN_POLYGON_TYPE@@P6GXH@Z111@Z ; set_terrain_rendering_routines

; 526  : 												draw_colour_clipped_strip_word_face, draw_colour_clipped_strip_byte_face,
; 527  : 												draw_colour_unclipped_strip_word_face, draw_colour_unclipped_strip_byte_face );
; 528  : 
; 529  :    set_terrain_rendering_routines ( TERRAIN_TYPE_TRACK, POLYGON_TYPE_STRIP,

  0055c	8b 45 bc	 mov	 eax, DWORD PTR _draw_colour_unclipped_strip_byte_face$[ebp]
  0055f	50		 push	 eax
  00560	8b 4d c0	 mov	 ecx, DWORD PTR _draw_colour_unclipped_strip_word_face$[ebp]
  00563	51		 push	 ecx
  00564	8b 95 5c ff ff
	ff		 mov	 edx, DWORD PTR _draw_colour_clipped_strip_byte_face$[ebp]
  0056a	52		 push	 edx
  0056b	8b 85 60 ff ff
	ff		 mov	 eax, DWORD PTR _draw_colour_clipped_strip_word_face$[ebp]
  00571	50		 push	 eax
  00572	6a 01		 push	 1
  00574	6a 2a		 push	 42			; 0000002aH
  00576	e8 00 00 00 00	 call	 ?set_terrain_rendering_routines@@YGXHW4TERRAIN_POLYGON_TYPE@@P6GXH@Z111@Z ; set_terrain_rendering_routines

; 530  : 												draw_colour_clipped_strip_word_face, draw_colour_clipped_strip_byte_face,
; 531  : 												draw_colour_unclipped_strip_word_face, draw_colour_unclipped_strip_byte_face );
; 532  : 
; 533  : 	set_terrain_rendering_routines ( TERRAIN_TYPE_RIVER, POLYGON_TYPE_STRIP,

  0057b	68 00 00 00 00	 push	 OFFSET ?draw_3d_terrain_unclipped_strip_byte_face@@YGXH@Z ; draw_3d_terrain_unclipped_strip_byte_face
  00580	68 00 00 00 00	 push	 OFFSET ?draw_3d_terrain_unclipped_strip_word_face@@YGXH@Z ; draw_3d_terrain_unclipped_strip_word_face
  00585	68 00 00 00 00	 push	 OFFSET ?draw_3d_terrain_clipped_strip_byte_face@@YGXH@Z ; draw_3d_terrain_clipped_strip_byte_face
  0058a	68 00 00 00 00	 push	 OFFSET ?draw_3d_terrain_clipped_strip_word_face@@YGXH@Z ; draw_3d_terrain_clipped_strip_word_face
  0058f	6a 01		 push	 1
  00591	6a 01		 push	 1
  00593	e8 00 00 00 00	 call	 ?set_terrain_rendering_routines@@YGXHW4TERRAIN_POLYGON_TYPE@@P6GXH@Z111@Z ; set_terrain_rendering_routines

; 534  : 												draw_3d_terrain_clipped_strip_word_face, draw_3d_terrain_clipped_strip_byte_face,
; 535  : 												draw_3d_terrain_unclipped_strip_word_face, draw_3d_terrain_unclipped_strip_byte_face );
; 536  : 
; 537  : 	set_terrain_rendering_routines ( TERRAIN_TYPE_RESERVOIR, POLYGON_TYPE_FAN,

  00598	68 00 00 00 00	 push	 OFFSET ?draw_3d_terrain_unclipped_fan_byte_face@@YGXH@Z ; draw_3d_terrain_unclipped_fan_byte_face
  0059d	68 00 00 00 00	 push	 OFFSET ?draw_3d_terrain_unclipped_fan_word_face@@YGXH@Z ; draw_3d_terrain_unclipped_fan_word_face
  005a2	68 00 00 00 00	 push	 OFFSET ?draw_3d_terrain_clipped_fan_byte_face@@YGXH@Z ; draw_3d_terrain_clipped_fan_byte_face
  005a7	68 00 00 00 00	 push	 OFFSET ?draw_3d_terrain_clipped_fan_word_face@@YGXH@Z ; draw_3d_terrain_clipped_fan_word_face
  005ac	6a 00		 push	 0
  005ae	6a 02		 push	 2
  005b0	e8 00 00 00 00	 call	 ?set_terrain_rendering_routines@@YGXHW4TERRAIN_POLYGON_TYPE@@P6GXH@Z111@Z ; set_terrain_rendering_routines

; 538  : 												draw_3d_terrain_clipped_fan_word_face, draw_3d_terrain_clipped_fan_byte_face,
; 539  : 												draw_3d_terrain_unclipped_fan_word_face, draw_3d_terrain_unclipped_fan_byte_face );
; 540  : 
; 541  :    set_terrain_rendering_routines ( TERRAIN_TYPE_RAIL, POLYGON_TYPE_STRIP,

  005b5	68 00 00 00 00	 push	 OFFSET ?draw_3d_terrain_unclipped_strip_byte_face@@YGXH@Z ; draw_3d_terrain_unclipped_strip_byte_face
  005ba	68 00 00 00 00	 push	 OFFSET ?draw_3d_terrain_unclipped_strip_word_face@@YGXH@Z ; draw_3d_terrain_unclipped_strip_word_face
  005bf	68 00 00 00 00	 push	 OFFSET ?draw_3d_terrain_clipped_strip_byte_face@@YGXH@Z ; draw_3d_terrain_clipped_strip_byte_face
  005c4	68 00 00 00 00	 push	 OFFSET ?draw_3d_terrain_clipped_strip_word_face@@YGXH@Z ; draw_3d_terrain_clipped_strip_word_face
  005c9	6a 01		 push	 1
  005cb	6a 2b		 push	 43			; 0000002bH
  005cd	e8 00 00 00 00	 call	 ?set_terrain_rendering_routines@@YGXHW4TERRAIN_POLYGON_TYPE@@P6GXH@Z111@Z ; set_terrain_rendering_routines

; 542  : 												draw_3d_terrain_clipped_strip_word_face, draw_3d_terrain_clipped_strip_byte_face,
; 543  : 												draw_3d_terrain_unclipped_strip_word_face, draw_3d_terrain_unclipped_strip_byte_face );
; 544  : 
; 545  :    set_terrain_rendering_routines ( TERRAIN_TYPE_ROAD_BANK, POLYGON_TYPE_STRIP,

  005d2	8b 45 ec	 mov	 eax, DWORD PTR _draw_unclipped_strip_byte_face$[ebp]
  005d5	50		 push	 eax
  005d6	8b 4d f0	 mov	 ecx, DWORD PTR _draw_unclipped_strip_word_face$[ebp]
  005d9	51		 push	 ecx
  005da	8b 55 8c	 mov	 edx, DWORD PTR _draw_clipped_strip_byte_face$[ebp]
  005dd	52		 push	 edx
  005de	8b 45 90	 mov	 eax, DWORD PTR _draw_clipped_strip_word_face$[ebp]
  005e1	50		 push	 eax
  005e2	6a 01		 push	 1
  005e4	6a 19		 push	 25			; 00000019H
  005e6	e8 00 00 00 00	 call	 ?set_terrain_rendering_routines@@YGXHW4TERRAIN_POLYGON_TYPE@@P6GXH@Z111@Z ; set_terrain_rendering_routines

; 546  : 												draw_clipped_strip_word_face, draw_clipped_strip_byte_face,
; 547  : 												draw_unclipped_strip_word_face, draw_unclipped_strip_byte_face );
; 548  : 
; 549  :    set_terrain_rendering_routines ( TERRAIN_TYPE_RIVER_BANK, POLYGON_TYPE_STRIP,

  005eb	8b 45 ec	 mov	 eax, DWORD PTR _draw_unclipped_strip_byte_face$[ebp]
  005ee	50		 push	 eax
  005ef	8b 4d f0	 mov	 ecx, DWORD PTR _draw_unclipped_strip_word_face$[ebp]
  005f2	51		 push	 ecx
  005f3	8b 55 8c	 mov	 edx, DWORD PTR _draw_clipped_strip_byte_face$[ebp]
  005f6	52		 push	 edx
  005f7	8b 45 90	 mov	 eax, DWORD PTR _draw_clipped_strip_word_face$[ebp]
  005fa	50		 push	 eax
  005fb	6a 01		 push	 1
  005fd	6a 04		 push	 4
  005ff	e8 00 00 00 00	 call	 ?set_terrain_rendering_routines@@YGXHW4TERRAIN_POLYGON_TYPE@@P6GXH@Z111@Z ; set_terrain_rendering_routines

; 550  : 												draw_clipped_strip_word_face, draw_clipped_strip_byte_face,
; 551  : 												draw_unclipped_strip_word_face, draw_unclipped_strip_byte_face );
; 552  : 
; 553  :    set_terrain_rendering_routines ( TERRAIN_TYPE_RAIL_BANK, POLYGON_TYPE_STRIP,

  00604	8b 45 ec	 mov	 eax, DWORD PTR _draw_unclipped_strip_byte_face$[ebp]
  00607	50		 push	 eax
  00608	8b 4d f0	 mov	 ecx, DWORD PTR _draw_unclipped_strip_word_face$[ebp]
  0060b	51		 push	 ecx
  0060c	8b 55 8c	 mov	 edx, DWORD PTR _draw_clipped_strip_byte_face$[ebp]
  0060f	52		 push	 edx
  00610	8b 45 90	 mov	 eax, DWORD PTR _draw_clipped_strip_word_face$[ebp]
  00613	50		 push	 eax
  00614	6a 01		 push	 1
  00616	6a 1a		 push	 26			; 0000001aH
  00618	e8 00 00 00 00	 call	 ?set_terrain_rendering_routines@@YGXHW4TERRAIN_POLYGON_TYPE@@P6GXH@Z111@Z ; set_terrain_rendering_routines

; 554  : 												draw_clipped_strip_word_face, draw_clipped_strip_byte_face,
; 555  : 												draw_unclipped_strip_word_face, draw_unclipped_strip_byte_face );
; 556  : 
; 557  : 	//
; 558  : 	// Field types
; 559  : 	//
; 560  : 
; 561  :    set_terrain_rendering_routines ( TERRAIN_TYPE_FIELD1, POLYGON_TYPE_FAN,

  0061d	8b 45 f4	 mov	 eax, DWORD PTR _draw_unclipped_fan_byte_face$[ebp]
  00620	50		 push	 eax
  00621	8b 4d f8	 mov	 ecx, DWORD PTR _draw_unclipped_fan_word_face$[ebp]
  00624	51		 push	 ecx
  00625	8b 55 94	 mov	 edx, DWORD PTR _draw_clipped_fan_byte_face$[ebp]
  00628	52		 push	 edx
  00629	8b 45 98	 mov	 eax, DWORD PTR _draw_clipped_fan_word_face$[ebp]
  0062c	50		 push	 eax
  0062d	6a 00		 push	 0
  0062f	6a 0a		 push	 10			; 0000000aH
  00631	e8 00 00 00 00	 call	 ?set_terrain_rendering_routines@@YGXHW4TERRAIN_POLYGON_TYPE@@P6GXH@Z111@Z ; set_terrain_rendering_routines

; 562  : 												draw_clipped_fan_word_face, draw_clipped_fan_byte_face,
; 563  : 												draw_unclipped_fan_word_face, draw_unclipped_fan_byte_face );
; 564  : 
; 565  :    set_terrain_rendering_routines ( TERRAIN_TYPE_FIELD2, POLYGON_TYPE_FAN,

  00636	8b 45 f4	 mov	 eax, DWORD PTR _draw_unclipped_fan_byte_face$[ebp]
  00639	50		 push	 eax
  0063a	8b 4d f8	 mov	 ecx, DWORD PTR _draw_unclipped_fan_word_face$[ebp]
  0063d	51		 push	 ecx
  0063e	8b 55 94	 mov	 edx, DWORD PTR _draw_clipped_fan_byte_face$[ebp]
  00641	52		 push	 edx
  00642	8b 45 98	 mov	 eax, DWORD PTR _draw_clipped_fan_word_face$[ebp]
  00645	50		 push	 eax
  00646	6a 00		 push	 0
  00648	6a 0b		 push	 11			; 0000000bH
  0064a	e8 00 00 00 00	 call	 ?set_terrain_rendering_routines@@YGXHW4TERRAIN_POLYGON_TYPE@@P6GXH@Z111@Z ; set_terrain_rendering_routines

; 566  : 												draw_clipped_fan_word_face, draw_clipped_fan_byte_face,
; 567  : 												draw_unclipped_fan_word_face, draw_unclipped_fan_byte_face );
; 568  : 
; 569  :    set_terrain_rendering_routines ( TERRAIN_TYPE_FIELD3, POLYGON_TYPE_FAN,

  0064f	8b 45 f4	 mov	 eax, DWORD PTR _draw_unclipped_fan_byte_face$[ebp]
  00652	50		 push	 eax
  00653	8b 4d f8	 mov	 ecx, DWORD PTR _draw_unclipped_fan_word_face$[ebp]
  00656	51		 push	 ecx
  00657	8b 55 94	 mov	 edx, DWORD PTR _draw_clipped_fan_byte_face$[ebp]
  0065a	52		 push	 edx
  0065b	8b 45 98	 mov	 eax, DWORD PTR _draw_clipped_fan_word_face$[ebp]
  0065e	50		 push	 eax
  0065f	6a 00		 push	 0
  00661	6a 0c		 push	 12			; 0000000cH
  00663	e8 00 00 00 00	 call	 ?set_terrain_rendering_routines@@YGXHW4TERRAIN_POLYGON_TYPE@@P6GXH@Z111@Z ; set_terrain_rendering_routines

; 570  : 												draw_clipped_fan_word_face, draw_clipped_fan_byte_face,
; 571  : 												draw_unclipped_fan_word_face, draw_unclipped_fan_byte_face );
; 572  : 
; 573  :    set_terrain_rendering_routines ( TERRAIN_TYPE_FIELD4, POLYGON_TYPE_FAN,

  00668	8b 45 f4	 mov	 eax, DWORD PTR _draw_unclipped_fan_byte_face$[ebp]
  0066b	50		 push	 eax
  0066c	8b 4d f8	 mov	 ecx, DWORD PTR _draw_unclipped_fan_word_face$[ebp]
  0066f	51		 push	 ecx
  00670	8b 55 94	 mov	 edx, DWORD PTR _draw_clipped_fan_byte_face$[ebp]
  00673	52		 push	 edx
  00674	8b 45 98	 mov	 eax, DWORD PTR _draw_clipped_fan_word_face$[ebp]
  00677	50		 push	 eax
  00678	6a 00		 push	 0
  0067a	6a 0d		 push	 13			; 0000000dH
  0067c	e8 00 00 00 00	 call	 ?set_terrain_rendering_routines@@YGXHW4TERRAIN_POLYGON_TYPE@@P6GXH@Z111@Z ; set_terrain_rendering_routines

; 574  : 												draw_clipped_fan_word_face, draw_clipped_fan_byte_face,
; 575  : 												draw_unclipped_fan_word_face, draw_unclipped_fan_byte_face );
; 576  : 
; 577  :    set_terrain_rendering_routines ( TERRAIN_TYPE_FIELD5, POLYGON_TYPE_FAN,

  00681	8b 45 f4	 mov	 eax, DWORD PTR _draw_unclipped_fan_byte_face$[ebp]
  00684	50		 push	 eax
  00685	8b 4d f8	 mov	 ecx, DWORD PTR _draw_unclipped_fan_word_face$[ebp]
  00688	51		 push	 ecx
  00689	8b 55 94	 mov	 edx, DWORD PTR _draw_clipped_fan_byte_face$[ebp]
  0068c	52		 push	 edx
  0068d	8b 45 98	 mov	 eax, DWORD PTR _draw_clipped_fan_word_face$[ebp]
  00690	50		 push	 eax
  00691	6a 00		 push	 0
  00693	6a 0e		 push	 14			; 0000000eH
  00695	e8 00 00 00 00	 call	 ?set_terrain_rendering_routines@@YGXHW4TERRAIN_POLYGON_TYPE@@P6GXH@Z111@Z ; set_terrain_rendering_routines

; 578  : 												draw_clipped_fan_word_face, draw_clipped_fan_byte_face,
; 579  : 												draw_unclipped_fan_word_face, draw_unclipped_fan_byte_face );
; 580  : 
; 581  :    set_terrain_rendering_routines ( TERRAIN_TYPE_FIELD6, POLYGON_TYPE_FAN,

  0069a	8b 45 f4	 mov	 eax, DWORD PTR _draw_unclipped_fan_byte_face$[ebp]
  0069d	50		 push	 eax
  0069e	8b 4d f8	 mov	 ecx, DWORD PTR _draw_unclipped_fan_word_face$[ebp]
  006a1	51		 push	 ecx
  006a2	8b 55 94	 mov	 edx, DWORD PTR _draw_clipped_fan_byte_face$[ebp]
  006a5	52		 push	 edx
  006a6	8b 45 98	 mov	 eax, DWORD PTR _draw_clipped_fan_word_face$[ebp]
  006a9	50		 push	 eax
  006aa	6a 00		 push	 0
  006ac	6a 0f		 push	 15			; 0000000fH
  006ae	e8 00 00 00 00	 call	 ?set_terrain_rendering_routines@@YGXHW4TERRAIN_POLYGON_TYPE@@P6GXH@Z111@Z ; set_terrain_rendering_routines

; 582  : 												draw_clipped_fan_word_face, draw_clipped_fan_byte_face,
; 583  : 												draw_unclipped_fan_word_face, draw_unclipped_fan_byte_face );
; 584  : 
; 585  :    set_terrain_rendering_routines ( TERRAIN_TYPE_FIELD7, POLYGON_TYPE_FAN,

  006b3	8b 45 f4	 mov	 eax, DWORD PTR _draw_unclipped_fan_byte_face$[ebp]
  006b6	50		 push	 eax
  006b7	8b 4d f8	 mov	 ecx, DWORD PTR _draw_unclipped_fan_word_face$[ebp]
  006ba	51		 push	 ecx
  006bb	8b 55 94	 mov	 edx, DWORD PTR _draw_clipped_fan_byte_face$[ebp]
  006be	52		 push	 edx
  006bf	8b 45 98	 mov	 eax, DWORD PTR _draw_clipped_fan_word_face$[ebp]
  006c2	50		 push	 eax
  006c3	6a 00		 push	 0
  006c5	6a 10		 push	 16			; 00000010H
  006c7	e8 00 00 00 00	 call	 ?set_terrain_rendering_routines@@YGXHW4TERRAIN_POLYGON_TYPE@@P6GXH@Z111@Z ; set_terrain_rendering_routines

; 586  : 												draw_clipped_fan_word_face, draw_clipped_fan_byte_face,
; 587  : 												draw_unclipped_fan_word_face, draw_unclipped_fan_byte_face );
; 588  : 
; 589  :    set_terrain_rendering_routines ( TERRAIN_TYPE_FIELD8, POLYGON_TYPE_FAN,

  006cc	8b 45 f4	 mov	 eax, DWORD PTR _draw_unclipped_fan_byte_face$[ebp]
  006cf	50		 push	 eax
  006d0	8b 4d f8	 mov	 ecx, DWORD PTR _draw_unclipped_fan_word_face$[ebp]
  006d3	51		 push	 ecx
  006d4	8b 55 94	 mov	 edx, DWORD PTR _draw_clipped_fan_byte_face$[ebp]
  006d7	52		 push	 edx
  006d8	8b 45 98	 mov	 eax, DWORD PTR _draw_clipped_fan_word_face$[ebp]
  006db	50		 push	 eax
  006dc	6a 00		 push	 0
  006de	6a 11		 push	 17			; 00000011H
  006e0	e8 00 00 00 00	 call	 ?set_terrain_rendering_routines@@YGXHW4TERRAIN_POLYGON_TYPE@@P6GXH@Z111@Z ; set_terrain_rendering_routines

; 590  : 												draw_clipped_fan_word_face, draw_clipped_fan_byte_face,
; 591  : 												draw_unclipped_fan_word_face, draw_unclipped_fan_byte_face );
; 592  : 
; 593  :    set_terrain_rendering_routines ( TERRAIN_TYPE_FIELD9, POLYGON_TYPE_FAN,

  006e5	8b 45 f4	 mov	 eax, DWORD PTR _draw_unclipped_fan_byte_face$[ebp]
  006e8	50		 push	 eax
  006e9	8b 4d f8	 mov	 ecx, DWORD PTR _draw_unclipped_fan_word_face$[ebp]
  006ec	51		 push	 ecx
  006ed	8b 55 94	 mov	 edx, DWORD PTR _draw_clipped_fan_byte_face$[ebp]
  006f0	52		 push	 edx
  006f1	8b 45 98	 mov	 eax, DWORD PTR _draw_clipped_fan_word_face$[ebp]
  006f4	50		 push	 eax
  006f5	6a 00		 push	 0
  006f7	6a 12		 push	 18			; 00000012H
  006f9	e8 00 00 00 00	 call	 ?set_terrain_rendering_routines@@YGXHW4TERRAIN_POLYGON_TYPE@@P6GXH@Z111@Z ; set_terrain_rendering_routines

; 594  : 												draw_clipped_fan_word_face, draw_clipped_fan_byte_face,
; 595  : 												draw_unclipped_fan_word_face, draw_unclipped_fan_byte_face );
; 596  : 
; 597  :    set_terrain_rendering_routines ( TERRAIN_TYPE_FIELD10, POLYGON_TYPE_FAN,

  006fe	8b 45 f4	 mov	 eax, DWORD PTR _draw_unclipped_fan_byte_face$[ebp]
  00701	50		 push	 eax
  00702	8b 4d f8	 mov	 ecx, DWORD PTR _draw_unclipped_fan_word_face$[ebp]
  00705	51		 push	 ecx
  00706	8b 55 94	 mov	 edx, DWORD PTR _draw_clipped_fan_byte_face$[ebp]
  00709	52		 push	 edx
  0070a	8b 45 98	 mov	 eax, DWORD PTR _draw_clipped_fan_word_face$[ebp]
  0070d	50		 push	 eax
  0070e	6a 00		 push	 0
  00710	6a 13		 push	 19			; 00000013H
  00712	e8 00 00 00 00	 call	 ?set_terrain_rendering_routines@@YGXHW4TERRAIN_POLYGON_TYPE@@P6GXH@Z111@Z ; set_terrain_rendering_routines

; 598  : 												draw_clipped_fan_word_face, draw_clipped_fan_byte_face,
; 599  : 												draw_unclipped_fan_word_face, draw_unclipped_fan_byte_face );
; 600  : 
; 601  :    set_terrain_rendering_routines ( TERRAIN_TYPE_FIELD11, POLYGON_TYPE_FAN,

  00717	8b 45 f4	 mov	 eax, DWORD PTR _draw_unclipped_fan_byte_face$[ebp]
  0071a	50		 push	 eax
  0071b	8b 4d f8	 mov	 ecx, DWORD PTR _draw_unclipped_fan_word_face$[ebp]
  0071e	51		 push	 ecx
  0071f	8b 55 94	 mov	 edx, DWORD PTR _draw_clipped_fan_byte_face$[ebp]
  00722	52		 push	 edx
  00723	8b 45 98	 mov	 eax, DWORD PTR _draw_clipped_fan_word_face$[ebp]
  00726	50		 push	 eax
  00727	6a 00		 push	 0
  00729	6a 14		 push	 20			; 00000014H
  0072b	e8 00 00 00 00	 call	 ?set_terrain_rendering_routines@@YGXHW4TERRAIN_POLYGON_TYPE@@P6GXH@Z111@Z ; set_terrain_rendering_routines

; 602  : 												draw_clipped_fan_word_face, draw_clipped_fan_byte_face,
; 603  : 												draw_unclipped_fan_word_face, draw_unclipped_fan_byte_face );
; 604  : 
; 605  : 	//
; 606  : 	// Varied Land Types (e.g. snow, rock etc.)
; 607  : 	//
; 608  : 
; 609  :    set_terrain_rendering_routines ( TERRAIN_TYPE_ALTERED_LAND1, POLYGON_TYPE_FAN,

  00730	8b 45 f4	 mov	 eax, DWORD PTR _draw_unclipped_fan_byte_face$[ebp]
  00733	50		 push	 eax
  00734	8b 4d f8	 mov	 ecx, DWORD PTR _draw_unclipped_fan_word_face$[ebp]
  00737	51		 push	 ecx
  00738	8b 55 94	 mov	 edx, DWORD PTR _draw_clipped_fan_byte_face$[ebp]
  0073b	52		 push	 edx
  0073c	8b 45 98	 mov	 eax, DWORD PTR _draw_clipped_fan_word_face$[ebp]
  0073f	50		 push	 eax
  00740	6a 00		 push	 0
  00742	6a 15		 push	 21			; 00000015H
  00744	e8 00 00 00 00	 call	 ?set_terrain_rendering_routines@@YGXHW4TERRAIN_POLYGON_TYPE@@P6GXH@Z111@Z ; set_terrain_rendering_routines

; 610  : 												draw_clipped_fan_word_face, draw_clipped_fan_byte_face,
; 611  : 												draw_unclipped_fan_word_face, draw_unclipped_fan_byte_face );
; 612  : 
; 613  :    set_terrain_rendering_routines ( TERRAIN_TYPE_ALTERED_LAND2, POLYGON_TYPE_FAN,

  00749	8b 45 f4	 mov	 eax, DWORD PTR _draw_unclipped_fan_byte_face$[ebp]
  0074c	50		 push	 eax
  0074d	8b 4d f8	 mov	 ecx, DWORD PTR _draw_unclipped_fan_word_face$[ebp]
  00750	51		 push	 ecx
  00751	8b 55 94	 mov	 edx, DWORD PTR _draw_clipped_fan_byte_face$[ebp]
  00754	52		 push	 edx
  00755	8b 45 98	 mov	 eax, DWORD PTR _draw_clipped_fan_word_face$[ebp]
  00758	50		 push	 eax
  00759	6a 00		 push	 0
  0075b	6a 16		 push	 22			; 00000016H
  0075d	e8 00 00 00 00	 call	 ?set_terrain_rendering_routines@@YGXHW4TERRAIN_POLYGON_TYPE@@P6GXH@Z111@Z ; set_terrain_rendering_routines

; 614  : 												draw_clipped_fan_word_face, draw_clipped_fan_byte_face,
; 615  : 												draw_unclipped_fan_word_face, draw_unclipped_fan_byte_face );
; 616  : 
; 617  :    set_terrain_rendering_routines ( TERRAIN_TYPE_ALTERED_LAND3, POLYGON_TYPE_FAN,

  00762	8b 45 f4	 mov	 eax, DWORD PTR _draw_unclipped_fan_byte_face$[ebp]
  00765	50		 push	 eax
  00766	8b 4d f8	 mov	 ecx, DWORD PTR _draw_unclipped_fan_word_face$[ebp]
  00769	51		 push	 ecx
  0076a	8b 55 94	 mov	 edx, DWORD PTR _draw_clipped_fan_byte_face$[ebp]
  0076d	52		 push	 edx
  0076e	8b 45 98	 mov	 eax, DWORD PTR _draw_clipped_fan_word_face$[ebp]
  00771	50		 push	 eax
  00772	6a 00		 push	 0
  00774	6a 17		 push	 23			; 00000017H
  00776	e8 00 00 00 00	 call	 ?set_terrain_rendering_routines@@YGXHW4TERRAIN_POLYGON_TYPE@@P6GXH@Z111@Z ; set_terrain_rendering_routines

; 618  : 												draw_clipped_fan_word_face, draw_clipped_fan_byte_face,
; 619  : 												draw_unclipped_fan_word_face, draw_unclipped_fan_byte_face );
; 620  : 
; 621  : 	//
; 622  : 	// Hedges / Walls
; 623  : 	//
; 624  : 
; 625  :    set_terrain_rendering_routines ( TERRAIN_TYPE_HEDGE_TOP, POLYGON_TYPE_STRIP,

  0077b	68 00 00 00 00	 push	 OFFSET ?draw_3d_terrain_unclipped_strip_byte_face@@YGXH@Z ; draw_3d_terrain_unclipped_strip_byte_face
  00780	68 00 00 00 00	 push	 OFFSET ?draw_3d_terrain_unclipped_strip_word_face@@YGXH@Z ; draw_3d_terrain_unclipped_strip_word_face
  00785	68 00 00 00 00	 push	 OFFSET ?draw_3d_terrain_clipped_strip_byte_face@@YGXH@Z ; draw_3d_terrain_clipped_strip_byte_face
  0078a	68 00 00 00 00	 push	 OFFSET ?draw_3d_terrain_clipped_strip_word_face@@YGXH@Z ; draw_3d_terrain_clipped_strip_word_face
  0078f	6a 01		 push	 1
  00791	6a 2d		 push	 45			; 0000002dH
  00793	e8 00 00 00 00	 call	 ?set_terrain_rendering_routines@@YGXHW4TERRAIN_POLYGON_TYPE@@P6GXH@Z111@Z ; set_terrain_rendering_routines

; 626  : 												draw_3d_terrain_clipped_strip_word_face, draw_3d_terrain_clipped_strip_byte_face,
; 627  : 												draw_3d_terrain_unclipped_strip_word_face, draw_3d_terrain_unclipped_strip_byte_face );
; 628  :    set_terrain_rendering_routines ( TERRAIN_TYPE_HEDGE_SIDE_X, POLYGON_TYPE_STRIP,

  00798	68 00 00 00 00	 push	 OFFSET ?draw_3d_terrain_texture_x_unclipped_strip_byte_face@@YGXH@Z ; draw_3d_terrain_texture_x_unclipped_strip_byte_face
  0079d	68 00 00 00 00	 push	 OFFSET ?draw_3d_terrain_texture_x_unclipped_strip_word_face@@YGXH@Z ; draw_3d_terrain_texture_x_unclipped_strip_word_face
  007a2	68 00 00 00 00	 push	 OFFSET ?draw_3d_terrain_texture_x_clipped_strip_byte_face@@YGXH@Z ; draw_3d_terrain_texture_x_clipped_strip_byte_face
  007a7	68 00 00 00 00	 push	 OFFSET ?draw_3d_terrain_texture_x_clipped_strip_word_face@@YGXH@Z ; draw_3d_terrain_texture_x_clipped_strip_word_face
  007ac	6a 01		 push	 1
  007ae	6a 1b		 push	 27			; 0000001bH
  007b0	e8 00 00 00 00	 call	 ?set_terrain_rendering_routines@@YGXHW4TERRAIN_POLYGON_TYPE@@P6GXH@Z111@Z ; set_terrain_rendering_routines

; 629  : 												draw_3d_terrain_texture_x_clipped_strip_word_face, draw_3d_terrain_texture_x_clipped_strip_byte_face,
; 630  : 												draw_3d_terrain_texture_x_unclipped_strip_word_face, draw_3d_terrain_texture_x_unclipped_strip_byte_face );
; 631  :    set_terrain_rendering_routines ( TERRAIN_TYPE_HEDGE_SIDE_Z, POLYGON_TYPE_STRIP,

  007b5	68 00 00 00 00	 push	 OFFSET ?draw_3d_terrain_texture_z_unclipped_strip_byte_face@@YGXH@Z ; draw_3d_terrain_texture_z_unclipped_strip_byte_face
  007ba	68 00 00 00 00	 push	 OFFSET ?draw_3d_terrain_texture_z_unclipped_strip_word_face@@YGXH@Z ; draw_3d_terrain_texture_z_unclipped_strip_word_face
  007bf	68 00 00 00 00	 push	 OFFSET ?draw_3d_terrain_texture_z_clipped_strip_byte_face@@YGXH@Z ; draw_3d_terrain_texture_z_clipped_strip_byte_face
  007c4	68 00 00 00 00	 push	 OFFSET ?draw_3d_terrain_texture_z_clipped_strip_word_face@@YGXH@Z ; draw_3d_terrain_texture_z_clipped_strip_word_face
  007c9	6a 01		 push	 1
  007cb	6a 1c		 push	 28			; 0000001cH
  007cd	e8 00 00 00 00	 call	 ?set_terrain_rendering_routines@@YGXHW4TERRAIN_POLYGON_TYPE@@P6GXH@Z111@Z ; set_terrain_rendering_routines

; 632  : 												draw_3d_terrain_texture_z_clipped_strip_word_face, draw_3d_terrain_texture_z_clipped_strip_byte_face,
; 633  : 												draw_3d_terrain_texture_z_unclipped_strip_word_face, draw_3d_terrain_texture_z_unclipped_strip_byte_face );
; 634  : 
; 635  : //VJ 060923 use mipmap levels for wall display, was draw_3d_terrain_texture_z_colour_clipped_strip_word_face etc.
; 636  :    set_terrain_rendering_routines ( TERRAIN_TYPE_WALL_TOP, POLYGON_TYPE_STRIP,

  007d2	68 00 00 00 00	 push	 OFFSET ?draw_3d_terrain_unclipped_strip_byte_face@@YGXH@Z ; draw_3d_terrain_unclipped_strip_byte_face
  007d7	68 00 00 00 00	 push	 OFFSET ?draw_3d_terrain_unclipped_strip_word_face@@YGXH@Z ; draw_3d_terrain_unclipped_strip_word_face
  007dc	68 00 00 00 00	 push	 OFFSET ?draw_3d_terrain_clipped_strip_byte_face@@YGXH@Z ; draw_3d_terrain_clipped_strip_byte_face
  007e1	68 00 00 00 00	 push	 OFFSET ?draw_3d_terrain_clipped_strip_word_face@@YGXH@Z ; draw_3d_terrain_clipped_strip_word_face
  007e6	6a 01		 push	 1
  007e8	6a 2c		 push	 44			; 0000002cH
  007ea	e8 00 00 00 00	 call	 ?set_terrain_rendering_routines@@YGXHW4TERRAIN_POLYGON_TYPE@@P6GXH@Z111@Z ; set_terrain_rendering_routines

; 637  : 												draw_3d_terrain_clipped_strip_word_face, draw_3d_terrain_clipped_strip_byte_face,
; 638  : 												draw_3d_terrain_unclipped_strip_word_face, draw_3d_terrain_unclipped_strip_byte_face );
; 639  :    set_terrain_rendering_routines ( TERRAIN_TYPE_WALL_SIDE_X, POLYGON_TYPE_STRIP,

  007ef	68 00 00 00 00	 push	 OFFSET ?draw_3d_terrain_texture_x_unclipped_strip_byte_face@@YGXH@Z ; draw_3d_terrain_texture_x_unclipped_strip_byte_face
  007f4	68 00 00 00 00	 push	 OFFSET ?draw_3d_terrain_texture_x_unclipped_strip_word_face@@YGXH@Z ; draw_3d_terrain_texture_x_unclipped_strip_word_face
  007f9	68 00 00 00 00	 push	 OFFSET ?draw_3d_terrain_texture_x_clipped_strip_byte_face@@YGXH@Z ; draw_3d_terrain_texture_x_clipped_strip_byte_face
  007fe	68 00 00 00 00	 push	 OFFSET ?draw_3d_terrain_texture_x_clipped_strip_word_face@@YGXH@Z ; draw_3d_terrain_texture_x_clipped_strip_word_face
  00803	6a 01		 push	 1
  00805	6a 1d		 push	 29			; 0000001dH
  00807	e8 00 00 00 00	 call	 ?set_terrain_rendering_routines@@YGXHW4TERRAIN_POLYGON_TYPE@@P6GXH@Z111@Z ; set_terrain_rendering_routines

; 640  : 												draw_3d_terrain_texture_x_clipped_strip_word_face, draw_3d_terrain_texture_x_clipped_strip_byte_face,
; 641  : 												draw_3d_terrain_texture_x_unclipped_strip_word_face, draw_3d_terrain_texture_x_unclipped_strip_byte_face );
; 642  :    set_terrain_rendering_routines ( TERRAIN_TYPE_WALL_SIDE_Z, POLYGON_TYPE_STRIP,

  0080c	68 00 00 00 00	 push	 OFFSET ?draw_3d_terrain_texture_z_unclipped_strip_byte_face@@YGXH@Z ; draw_3d_terrain_texture_z_unclipped_strip_byte_face
  00811	68 00 00 00 00	 push	 OFFSET ?draw_3d_terrain_texture_z_unclipped_strip_word_face@@YGXH@Z ; draw_3d_terrain_texture_z_unclipped_strip_word_face
  00816	68 00 00 00 00	 push	 OFFSET ?draw_3d_terrain_texture_z_clipped_strip_byte_face@@YGXH@Z ; draw_3d_terrain_texture_z_clipped_strip_byte_face
  0081b	68 00 00 00 00	 push	 OFFSET ?draw_3d_terrain_texture_z_clipped_strip_word_face@@YGXH@Z ; draw_3d_terrain_texture_z_clipped_strip_word_face
  00820	6a 01		 push	 1
  00822	6a 1e		 push	 30			; 0000001eH
  00824	e8 00 00 00 00	 call	 ?set_terrain_rendering_routines@@YGXHW4TERRAIN_POLYGON_TYPE@@P6GXH@Z111@Z ; set_terrain_rendering_routines

; 643  : 												draw_3d_terrain_texture_z_clipped_strip_word_face, draw_3d_terrain_texture_z_clipped_strip_byte_face,
; 644  : 												draw_3d_terrain_texture_z_unclipped_strip_word_face, draw_3d_terrain_texture_z_unclipped_strip_byte_face );
; 645  : 
; 646  :    set_terrain_rendering_routines ( TERRAIN_TYPE_TRENCH, POLYGON_TYPE_STRIP,

  00829	68 00 00 00 00	 push	 OFFSET ?draw_3d_terrain_unclipped_strip_byte_face@@YGXH@Z ; draw_3d_terrain_unclipped_strip_byte_face
  0082e	68 00 00 00 00	 push	 OFFSET ?draw_3d_terrain_unclipped_strip_word_face@@YGXH@Z ; draw_3d_terrain_unclipped_strip_word_face
  00833	68 00 00 00 00	 push	 OFFSET ?draw_3d_terrain_clipped_strip_byte_face@@YGXH@Z ; draw_3d_terrain_clipped_strip_byte_face
  00838	68 00 00 00 00	 push	 OFFSET ?draw_3d_terrain_clipped_strip_word_face@@YGXH@Z ; draw_3d_terrain_clipped_strip_word_face
  0083d	6a 01		 push	 1
  0083f	6a 03		 push	 3
  00841	e8 00 00 00 00	 call	 ?set_terrain_rendering_routines@@YGXHW4TERRAIN_POLYGON_TYPE@@P6GXH@Z111@Z ; set_terrain_rendering_routines

; 647  : 												draw_3d_terrain_clipped_strip_word_face, draw_3d_terrain_clipped_strip_byte_face,
; 648  : 												draw_3d_terrain_unclipped_strip_word_face, draw_3d_terrain_unclipped_strip_byte_face );
; 649  :    set_terrain_rendering_routines ( TERRAIN_TYPE_TRENCH_SIDE_X, POLYGON_TYPE_STRIP,

  00846	68 00 00 00 00	 push	 OFFSET ?draw_3d_terrain_texture_x_unclipped_strip_byte_face@@YGXH@Z ; draw_3d_terrain_texture_x_unclipped_strip_byte_face
  0084b	68 00 00 00 00	 push	 OFFSET ?draw_3d_terrain_texture_x_unclipped_strip_word_face@@YGXH@Z ; draw_3d_terrain_texture_x_unclipped_strip_word_face
  00850	68 00 00 00 00	 push	 OFFSET ?draw_3d_terrain_texture_x_clipped_strip_byte_face@@YGXH@Z ; draw_3d_terrain_texture_x_clipped_strip_byte_face
  00855	68 00 00 00 00	 push	 OFFSET ?draw_3d_terrain_texture_x_clipped_strip_word_face@@YGXH@Z ; draw_3d_terrain_texture_x_clipped_strip_word_face
  0085a	6a 01		 push	 1
  0085c	6a 05		 push	 5
  0085e	e8 00 00 00 00	 call	 ?set_terrain_rendering_routines@@YGXHW4TERRAIN_POLYGON_TYPE@@P6GXH@Z111@Z ; set_terrain_rendering_routines

; 650  : 												draw_3d_terrain_texture_x_clipped_strip_word_face, draw_3d_terrain_texture_x_clipped_strip_byte_face,
; 651  : 												draw_3d_terrain_texture_x_unclipped_strip_word_face, draw_3d_terrain_texture_x_unclipped_strip_byte_face );
; 652  :    set_terrain_rendering_routines ( TERRAIN_TYPE_TRENCH_SIDE_Z, POLYGON_TYPE_STRIP,

  00863	68 00 00 00 00	 push	 OFFSET ?draw_3d_terrain_texture_z_unclipped_strip_byte_face@@YGXH@Z ; draw_3d_terrain_texture_z_unclipped_strip_byte_face
  00868	68 00 00 00 00	 push	 OFFSET ?draw_3d_terrain_texture_z_unclipped_strip_word_face@@YGXH@Z ; draw_3d_terrain_texture_z_unclipped_strip_word_face
  0086d	68 00 00 00 00	 push	 OFFSET ?draw_3d_terrain_texture_z_clipped_strip_byte_face@@YGXH@Z ; draw_3d_terrain_texture_z_clipped_strip_byte_face
  00872	68 00 00 00 00	 push	 OFFSET ?draw_3d_terrain_texture_z_clipped_strip_word_face@@YGXH@Z ; draw_3d_terrain_texture_z_clipped_strip_word_face
  00877	6a 01		 push	 1
  00879	6a 06		 push	 6
  0087b	e8 00 00 00 00	 call	 ?set_terrain_rendering_routines@@YGXHW4TERRAIN_POLYGON_TYPE@@P6GXH@Z111@Z ; set_terrain_rendering_routines

; 653  : 												draw_3d_terrain_texture_z_clipped_strip_word_face, draw_3d_terrain_texture_z_clipped_strip_byte_face,
; 654  : 												draw_3d_terrain_texture_z_unclipped_strip_word_face, draw_3d_terrain_texture_z_unclipped_strip_byte_face );
; 655  : 	//
; 656  : 	// All the types that are used in the terrain generation tool
; 657  : 	//
; 658  : 
; 659  :    set_terrain_rendering_routines ( TEMP_TERRAIN_TYPE_BEACH_MID,			POLYGON_TYPE_UNKNOWN, NULL, NULL, NULL, NULL );

  00880	6a 00		 push	 0
  00882	6a 00		 push	 0
  00884	6a 00		 push	 0
  00886	6a 00		 push	 0
  00888	6a 02		 push	 2
  0088a	6a 34		 push	 52			; 00000034H
  0088c	e8 00 00 00 00	 call	 ?set_terrain_rendering_routines@@YGXHW4TERRAIN_POLYGON_TYPE@@P6GXH@Z111@Z ; set_terrain_rendering_routines

; 660  :    set_terrain_rendering_routines ( TEMP_TERRAIN_TYPE_FRINGE,				POLYGON_TYPE_UNKNOWN, NULL, NULL, NULL, NULL );

  00891	6a 00		 push	 0
  00893	6a 00		 push	 0
  00895	6a 00		 push	 0
  00897	6a 00		 push	 0
  00899	6a 02		 push	 2
  0089b	6a 2f		 push	 47			; 0000002fH
  0089d	e8 00 00 00 00	 call	 ?set_terrain_rendering_routines@@YGXHW4TERRAIN_POLYGON_TYPE@@P6GXH@Z111@Z ; set_terrain_rendering_routines

; 661  :    set_terrain_rendering_routines ( TEMP_TERRAIN_TYPE_POWER_LINE,			POLYGON_TYPE_UNKNOWN, NULL, NULL, NULL, NULL );

  008a2	6a 00		 push	 0
  008a4	6a 00		 push	 0
  008a6	6a 00		 push	 0
  008a8	6a 00		 push	 0
  008aa	6a 02		 push	 2
  008ac	6a 30		 push	 48			; 00000030H
  008ae	e8 00 00 00 00	 call	 ?set_terrain_rendering_routines@@YGXHW4TERRAIN_POLYGON_TYPE@@P6GXH@Z111@Z ; set_terrain_rendering_routines

; 662  :    set_terrain_rendering_routines ( TEMP_TERRAIN_TYPE_TELEPHONE_LINE,	POLYGON_TYPE_UNKNOWN, NULL, NULL, NULL, NULL );

  008b3	6a 00		 push	 0
  008b5	6a 00		 push	 0
  008b7	6a 00		 push	 0
  008b9	6a 00		 push	 0
  008bb	6a 02		 push	 2
  008bd	6a 31		 push	 49			; 00000031H
  008bf	e8 00 00 00 00	 call	 ?set_terrain_rendering_routines@@YGXHW4TERRAIN_POLYGON_TYPE@@P6GXH@Z111@Z ; set_terrain_rendering_routines

; 663  :    set_terrain_rendering_routines ( TEMP_TERRAIN_TYPE_SEA_BANK,			POLYGON_TYPE_UNKNOWN, NULL, NULL, NULL, NULL );

  008c4	6a 00		 push	 0
  008c6	6a 00		 push	 0
  008c8	6a 00		 push	 0
  008ca	6a 00		 push	 0
  008cc	6a 02		 push	 2
  008ce	6a 32		 push	 50			; 00000032H
  008d0	e8 00 00 00 00	 call	 ?set_terrain_rendering_routines@@YGXHW4TERRAIN_POLYGON_TYPE@@P6GXH@Z111@Z ; set_terrain_rendering_routines

; 664  :    set_terrain_rendering_routines ( TEMP_TERRAIN_TYPE_COASTAL_RIVER,		POLYGON_TYPE_UNKNOWN, NULL, NULL, NULL, NULL );

  008d5	6a 00		 push	 0
  008d7	6a 00		 push	 0
  008d9	6a 00		 push	 0
  008db	6a 00		 push	 0
  008dd	6a 02		 push	 2
  008df	6a 33		 push	 51			; 00000033H
  008e1	e8 00 00 00 00	 call	 ?set_terrain_rendering_routines@@YGXHW4TERRAIN_POLYGON_TYPE@@P6GXH@Z111@Z ; set_terrain_rendering_routines

; 665  : 
; 666  :    set_terrain_rendering_routines ( TEMP_TERRAIN_TYPE_STEPPED_RIVER_BANK3,		POLYGON_TYPE_UNKNOWN, NULL, NULL, NULL, NULL );

  008e6	6a 00		 push	 0
  008e8	6a 00		 push	 0
  008ea	6a 00		 push	 0
  008ec	6a 00		 push	 0
  008ee	6a 02		 push	 2
  008f0	6a 35		 push	 53			; 00000035H
  008f2	e8 00 00 00 00	 call	 ?set_terrain_rendering_routines@@YGXHW4TERRAIN_POLYGON_TYPE@@P6GXH@Z111@Z ; set_terrain_rendering_routines

; 667  :    set_terrain_rendering_routines ( TEMP_TERRAIN_TYPE_STEPPED_RIVER_BANK5,		POLYGON_TYPE_UNKNOWN, NULL, NULL, NULL, NULL );

  008f7	6a 00		 push	 0
  008f9	6a 00		 push	 0
  008fb	6a 00		 push	 0
  008fd	6a 00		 push	 0
  008ff	6a 02		 push	 2
  00901	6a 36		 push	 54			; 00000036H
  00903	e8 00 00 00 00	 call	 ?set_terrain_rendering_routines@@YGXHW4TERRAIN_POLYGON_TYPE@@P6GXH@Z111@Z ; set_terrain_rendering_routines

; 668  :    set_terrain_rendering_routines ( TEMP_TERRAIN_TYPE_STEPPED_RIVER_BANK7,		POLYGON_TYPE_UNKNOWN, NULL, NULL, NULL, NULL );

  00908	6a 00		 push	 0
  0090a	6a 00		 push	 0
  0090c	6a 00		 push	 0
  0090e	6a 00		 push	 0
  00910	6a 02		 push	 2
  00912	6a 37		 push	 55			; 00000037H
  00914	e8 00 00 00 00	 call	 ?set_terrain_rendering_routines@@YGXHW4TERRAIN_POLYGON_TYPE@@P6GXH@Z111@Z ; set_terrain_rendering_routines

; 669  :    set_terrain_rendering_routines ( TEMP_TERRAIN_TYPE_LAKE,							POLYGON_TYPE_UNKNOWN, NULL, NULL, NULL, NULL );

  00919	6a 00		 push	 0
  0091b	6a 00		 push	 0
  0091d	6a 00		 push	 0
  0091f	6a 00		 push	 0
  00921	6a 02		 push	 2
  00923	6a 38		 push	 56			; 00000038H
  00925	e8 00 00 00 00	 call	 ?set_terrain_rendering_routines@@YGXHW4TERRAIN_POLYGON_TYPE@@P6GXH@Z111@Z ; set_terrain_rendering_routines

; 670  :    set_terrain_rendering_routines ( TEMP_TERRAIN_TYPE_FOREST_SIDE_X,				POLYGON_TYPE_UNKNOWN, NULL, NULL, NULL, NULL );

  0092a	6a 00		 push	 0
  0092c	6a 00		 push	 0
  0092e	6a 00		 push	 0
  00930	6a 00		 push	 0
  00932	6a 02		 push	 2
  00934	6a 39		 push	 57			; 00000039H
  00936	e8 00 00 00 00	 call	 ?set_terrain_rendering_routines@@YGXHW4TERRAIN_POLYGON_TYPE@@P6GXH@Z111@Z ; set_terrain_rendering_routines

; 671  :    set_terrain_rendering_routines ( TEMP_TERRAIN_TYPE_FOREST_SIDE_Z,				POLYGON_TYPE_UNKNOWN, NULL, NULL, NULL, NULL );

  0093b	6a 00		 push	 0
  0093d	6a 00		 push	 0
  0093f	6a 00		 push	 0
  00941	6a 00		 push	 0
  00943	6a 02		 push	 2
  00945	6a 3a		 push	 58			; 0000003aH
  00947	e8 00 00 00 00	 call	 ?set_terrain_rendering_routines@@YGXHW4TERRAIN_POLYGON_TYPE@@P6GXH@Z111@Z ; set_terrain_rendering_routines

; 672  :    set_terrain_rendering_routines ( TEMP_TERRAIN_TYPE_OFFROAD,						POLYGON_TYPE_UNKNOWN, NULL, NULL, NULL, NULL );

  0094c	6a 00		 push	 0
  0094e	6a 00		 push	 0
  00950	6a 00		 push	 0
  00952	6a 00		 push	 0
  00954	6a 02		 push	 2
  00956	6a 3b		 push	 59			; 0000003bH
  00958	e8 00 00 00 00	 call	 ?set_terrain_rendering_routines@@YGXHW4TERRAIN_POLYGON_TYPE@@P6GXH@Z111@Z ; set_terrain_rendering_routines

; 673  :    set_terrain_rendering_routines ( TEMP_TERRAIN_TYPE_POLITICAL_BOUNDARY,		POLYGON_TYPE_UNKNOWN, NULL, NULL, NULL, NULL );

  0095d	6a 00		 push	 0
  0095f	6a 00		 push	 0
  00961	6a 00		 push	 0
  00963	6a 00		 push	 0
  00965	6a 02		 push	 2
  00967	6a 3c		 push	 60			; 0000003cH
  00969	e8 00 00 00 00	 call	 ?set_terrain_rendering_routines@@YGXHW4TERRAIN_POLYGON_TYPE@@P6GXH@Z111@Z ; set_terrain_rendering_routines

; 674  :    set_terrain_rendering_routines ( TEMP_TERRAIN_TYPE_BUILT_UP_AREA_BANK,		POLYGON_TYPE_UNKNOWN, NULL, NULL, NULL, NULL );

  0096e	6a 00		 push	 0
  00970	6a 00		 push	 0
  00972	6a 00		 push	 0
  00974	6a 00		 push	 0
  00976	6a 02		 push	 2
  00978	6a 3d		 push	 61			; 0000003dH
  0097a	e8 00 00 00 00	 call	 ?set_terrain_rendering_routines@@YGXHW4TERRAIN_POLYGON_TYPE@@P6GXH@Z111@Z ; set_terrain_rendering_routines

; 675  : 
; 676  : 
; 677  : 	//VJ 050303 texture colour mod: use texture colour directly instead of brownish haze
; 678  : 	if (command_line_texture_colour)

  0097f	83 3d 00 00 00
	00 00		 cmp	 DWORD PTR ?command_line_texture_colour@@3HA, 0 ; command_line_texture_colour
  00986	0f 84 0b 02 00
	00		 je	 $LN12@initialise

; 679  : 	{
; 680  : 
; 681  : 		set_terrain_rendering_routines ( TERRAIN_TYPE_FOREST_FLOOR, POLYGON_TYPE_FAN,

  0098c	8b 45 f4	 mov	 eax, DWORD PTR _draw_unclipped_fan_byte_face$[ebp]
  0098f	50		 push	 eax
  00990	8b 4d f8	 mov	 ecx, DWORD PTR _draw_unclipped_fan_word_face$[ebp]
  00993	51		 push	 ecx
  00994	8b 55 94	 mov	 edx, DWORD PTR _draw_clipped_fan_byte_face$[ebp]
  00997	52		 push	 edx
  00998	8b 45 98	 mov	 eax, DWORD PTR _draw_clipped_fan_word_face$[ebp]
  0099b	50		 push	 eax
  0099c	6a 00		 push	 0
  0099e	6a 18		 push	 24			; 00000018H
  009a0	e8 00 00 00 00	 call	 ?set_terrain_rendering_routines@@YGXHW4TERRAIN_POLYGON_TYPE@@P6GXH@Z111@Z ; set_terrain_rendering_routines

; 682  : 													draw_clipped_fan_word_face, draw_clipped_fan_byte_face,
; 683  : 													draw_unclipped_fan_word_face, draw_unclipped_fan_byte_face );
; 684  : //VJ 050619 changed these to display without greyish haze in the distance
; 685  : 		set_terrain_rendering_routines ( TERRAIN_TYPE_FOREST_SIDE_BOTTOM_X, POLYGON_TYPE_STRIP,

  009a5	8b 45 d4	 mov	 eax, DWORD PTR _draw_texture_x_unclipped_strip_byte_face$[ebp]
  009a8	50		 push	 eax
  009a9	8b 4d d8	 mov	 ecx, DWORD PTR _draw_texture_x_unclipped_strip_word_face$[ebp]
  009ac	51		 push	 ecx
  009ad	8b 95 74 ff ff
	ff		 mov	 edx, DWORD PTR _draw_texture_x_clipped_strip_byte_face$[ebp]
  009b3	52		 push	 edx
  009b4	8b 85 78 ff ff
	ff		 mov	 eax, DWORD PTR _draw_texture_x_clipped_strip_word_face$[ebp]
  009ba	50		 push	 eax
  009bb	6a 01		 push	 1
  009bd	6a 1f		 push	 31			; 0000001fH
  009bf	e8 00 00 00 00	 call	 ?set_terrain_rendering_routines@@YGXHW4TERRAIN_POLYGON_TYPE@@P6GXH@Z111@Z ; set_terrain_rendering_routines

; 686  : 													draw_texture_x_clipped_strip_word_face, draw_texture_x_clipped_strip_byte_face,
; 687  : 													draw_texture_x_unclipped_strip_word_face, draw_texture_x_unclipped_strip_byte_face );
; 688  : 		set_terrain_rendering_routines ( TERRAIN_TYPE_FOREST_SIDE_MID_X, POLYGON_TYPE_STRIP,

  009c4	8b 45 d4	 mov	 eax, DWORD PTR _draw_texture_x_unclipped_strip_byte_face$[ebp]
  009c7	50		 push	 eax
  009c8	8b 4d d8	 mov	 ecx, DWORD PTR _draw_texture_x_unclipped_strip_word_face$[ebp]
  009cb	51		 push	 ecx
  009cc	8b 95 74 ff ff
	ff		 mov	 edx, DWORD PTR _draw_texture_x_clipped_strip_byte_face$[ebp]
  009d2	52		 push	 edx
  009d3	8b 85 78 ff ff
	ff		 mov	 eax, DWORD PTR _draw_texture_x_clipped_strip_word_face$[ebp]
  009d9	50		 push	 eax
  009da	6a 01		 push	 1
  009dc	6a 21		 push	 33			; 00000021H
  009de	e8 00 00 00 00	 call	 ?set_terrain_rendering_routines@@YGXHW4TERRAIN_POLYGON_TYPE@@P6GXH@Z111@Z ; set_terrain_rendering_routines

; 689  : 													draw_texture_x_clipped_strip_word_face, draw_texture_x_clipped_strip_byte_face,
; 690  : 													draw_texture_x_unclipped_strip_word_face, draw_texture_x_unclipped_strip_byte_face );
; 691  : 		set_terrain_rendering_routines ( TERRAIN_TYPE_FOREST_SIDE_TOP_X, POLYGON_TYPE_STRIP,

  009e3	8b 45 d4	 mov	 eax, DWORD PTR _draw_texture_x_unclipped_strip_byte_face$[ebp]
  009e6	50		 push	 eax
  009e7	8b 4d d8	 mov	 ecx, DWORD PTR _draw_texture_x_unclipped_strip_word_face$[ebp]
  009ea	51		 push	 ecx
  009eb	8b 95 74 ff ff
	ff		 mov	 edx, DWORD PTR _draw_texture_x_clipped_strip_byte_face$[ebp]
  009f1	52		 push	 edx
  009f2	8b 85 78 ff ff
	ff		 mov	 eax, DWORD PTR _draw_texture_x_clipped_strip_word_face$[ebp]
  009f8	50		 push	 eax
  009f9	6a 01		 push	 1
  009fb	6a 23		 push	 35			; 00000023H
  009fd	e8 00 00 00 00	 call	 ?set_terrain_rendering_routines@@YGXHW4TERRAIN_POLYGON_TYPE@@P6GXH@Z111@Z ; set_terrain_rendering_routines

; 692  : 													draw_texture_x_clipped_strip_word_face, draw_texture_x_clipped_strip_byte_face,
; 693  : 													draw_texture_x_unclipped_strip_word_face, draw_texture_x_unclipped_strip_byte_face );
; 694  : 		set_terrain_rendering_routines ( TERRAIN_TYPE_FOREST_SIDE_BOTTOM_Z, POLYGON_TYPE_STRIP,

  00a02	8b 45 cc	 mov	 eax, DWORD PTR _draw_texture_z_unclipped_strip_byte_face$[ebp]
  00a05	50		 push	 eax
  00a06	8b 4d d0	 mov	 ecx, DWORD PTR _draw_texture_z_unclipped_strip_word_face$[ebp]
  00a09	51		 push	 ecx
  00a0a	8b 95 6c ff ff
	ff		 mov	 edx, DWORD PTR _draw_texture_z_clipped_strip_byte_face$[ebp]
  00a10	52		 push	 edx
  00a11	8b 85 70 ff ff
	ff		 mov	 eax, DWORD PTR _draw_texture_z_clipped_strip_word_face$[ebp]
  00a17	50		 push	 eax
  00a18	6a 01		 push	 1
  00a1a	6a 20		 push	 32			; 00000020H
  00a1c	e8 00 00 00 00	 call	 ?set_terrain_rendering_routines@@YGXHW4TERRAIN_POLYGON_TYPE@@P6GXH@Z111@Z ; set_terrain_rendering_routines

; 695  : 													draw_texture_z_clipped_strip_word_face, draw_texture_z_clipped_strip_byte_face,
; 696  : 													draw_texture_z_unclipped_strip_word_face, draw_texture_z_unclipped_strip_byte_face );
; 697  : 		set_terrain_rendering_routines ( TERRAIN_TYPE_FOREST_SIDE_MID_Z, POLYGON_TYPE_STRIP,

  00a21	8b 45 cc	 mov	 eax, DWORD PTR _draw_texture_z_unclipped_strip_byte_face$[ebp]
  00a24	50		 push	 eax
  00a25	8b 4d d0	 mov	 ecx, DWORD PTR _draw_texture_z_unclipped_strip_word_face$[ebp]
  00a28	51		 push	 ecx
  00a29	8b 95 6c ff ff
	ff		 mov	 edx, DWORD PTR _draw_texture_z_clipped_strip_byte_face$[ebp]
  00a2f	52		 push	 edx
  00a30	8b 85 70 ff ff
	ff		 mov	 eax, DWORD PTR _draw_texture_z_clipped_strip_word_face$[ebp]
  00a36	50		 push	 eax
  00a37	6a 01		 push	 1
  00a39	6a 22		 push	 34			; 00000022H
  00a3b	e8 00 00 00 00	 call	 ?set_terrain_rendering_routines@@YGXHW4TERRAIN_POLYGON_TYPE@@P6GXH@Z111@Z ; set_terrain_rendering_routines

; 698  : 													draw_texture_z_clipped_strip_word_face, draw_texture_z_clipped_strip_byte_face,
; 699  : 													draw_texture_z_unclipped_strip_word_face, draw_texture_z_unclipped_strip_byte_face );
; 700  : 		set_terrain_rendering_routines ( TERRAIN_TYPE_FOREST_SIDE_TOP_Z, POLYGON_TYPE_STRIP,

  00a40	8b 45 cc	 mov	 eax, DWORD PTR _draw_texture_z_unclipped_strip_byte_face$[ebp]
  00a43	50		 push	 eax
  00a44	8b 4d d0	 mov	 ecx, DWORD PTR _draw_texture_z_unclipped_strip_word_face$[ebp]
  00a47	51		 push	 ecx
  00a48	8b 95 6c ff ff
	ff		 mov	 edx, DWORD PTR _draw_texture_z_clipped_strip_byte_face$[ebp]
  00a4e	52		 push	 edx
  00a4f	8b 85 70 ff ff
	ff		 mov	 eax, DWORD PTR _draw_texture_z_clipped_strip_word_face$[ebp]
  00a55	50		 push	 eax
  00a56	6a 01		 push	 1
  00a58	6a 24		 push	 36			; 00000024H
  00a5a	e8 00 00 00 00	 call	 ?set_terrain_rendering_routines@@YGXHW4TERRAIN_POLYGON_TYPE@@P6GXH@Z111@Z ; set_terrain_rendering_routines

; 701  : 													draw_texture_z_clipped_strip_word_face, draw_texture_z_clipped_strip_byte_face,
; 702  : 													draw_texture_z_unclipped_strip_word_face, draw_texture_z_unclipped_strip_byte_face );
; 703  : 
; 704  : //the difference between colour_clipped_fan and clipped fan is a recolouring before rendering
; 705  : //where the colours (255,255,255) are applied. This ignores than light and time of day so no good!
; 706  : //it also affects NPVS view: lighting ignored so CITIES showing up as bright!
; 707  : 		set_terrain_rendering_routines ( TERRAIN_TYPE_FOREST_TOP, POLYGON_TYPE_FAN,

  00a5f	8b 45 f4	 mov	 eax, DWORD PTR _draw_unclipped_fan_byte_face$[ebp]
  00a62	50		 push	 eax
  00a63	8b 4d f8	 mov	 ecx, DWORD PTR _draw_unclipped_fan_word_face$[ebp]
  00a66	51		 push	 ecx
  00a67	8b 55 94	 mov	 edx, DWORD PTR _draw_clipped_fan_byte_face$[ebp]
  00a6a	52		 push	 edx
  00a6b	8b 45 98	 mov	 eax, DWORD PTR _draw_clipped_fan_word_face$[ebp]
  00a6e	50		 push	 eax
  00a6f	6a 00		 push	 0
  00a71	6a 2e		 push	 46			; 0000002eH
  00a73	e8 00 00 00 00	 call	 ?set_terrain_rendering_routines@@YGXHW4TERRAIN_POLYGON_TYPE@@P6GXH@Z111@Z ; set_terrain_rendering_routines

; 708  : 													draw_clipped_fan_word_face, draw_clipped_fan_byte_face,
; 709  : 													draw_unclipped_fan_word_face, draw_unclipped_fan_byte_face );
; 710  : //very little difference between these
; 711  : 
; 712  : 	   set_terrain_rendering_routines ( TERRAIN_TYPE_BUILT_UP_AREA1, POLYGON_TYPE_FAN,

  00a78	8b 45 f4	 mov	 eax, DWORD PTR _draw_unclipped_fan_byte_face$[ebp]
  00a7b	50		 push	 eax
  00a7c	8b 4d f8	 mov	 ecx, DWORD PTR _draw_unclipped_fan_word_face$[ebp]
  00a7f	51		 push	 ecx
  00a80	8b 55 94	 mov	 edx, DWORD PTR _draw_clipped_fan_byte_face$[ebp]
  00a83	52		 push	 edx
  00a84	8b 45 98	 mov	 eax, DWORD PTR _draw_clipped_fan_word_face$[ebp]
  00a87	50		 push	 eax
  00a88	6a 00		 push	 0
  00a8a	6a 25		 push	 37			; 00000025H
  00a8c	e8 00 00 00 00	 call	 ?set_terrain_rendering_routines@@YGXHW4TERRAIN_POLYGON_TYPE@@P6GXH@Z111@Z ; set_terrain_rendering_routines

; 713  : 													draw_clipped_fan_word_face, draw_clipped_fan_byte_face,
; 714  : 													draw_unclipped_fan_word_face, draw_unclipped_fan_byte_face );
; 715  : 	   set_terrain_rendering_routines ( TERRAIN_TYPE_BUILT_UP_AREA2, POLYGON_TYPE_FAN,

  00a91	8b 45 f4	 mov	 eax, DWORD PTR _draw_unclipped_fan_byte_face$[ebp]
  00a94	50		 push	 eax
  00a95	8b 4d f8	 mov	 ecx, DWORD PTR _draw_unclipped_fan_word_face$[ebp]
  00a98	51		 push	 ecx
  00a99	8b 55 94	 mov	 edx, DWORD PTR _draw_clipped_fan_byte_face$[ebp]
  00a9c	52		 push	 edx
  00a9d	8b 45 98	 mov	 eax, DWORD PTR _draw_clipped_fan_word_face$[ebp]
  00aa0	50		 push	 eax
  00aa1	6a 00		 push	 0
  00aa3	6a 26		 push	 38			; 00000026H
  00aa5	e8 00 00 00 00	 call	 ?set_terrain_rendering_routines@@YGXHW4TERRAIN_POLYGON_TYPE@@P6GXH@Z111@Z ; set_terrain_rendering_routines

; 716  : 													draw_clipped_fan_word_face, draw_clipped_fan_byte_face,
; 717  : 													draw_unclipped_fan_word_face, draw_unclipped_fan_byte_face );
; 718  : 	   set_terrain_rendering_routines ( TERRAIN_TYPE_BUILT_UP_AREA3, POLYGON_TYPE_FAN,

  00aaa	8b 45 f4	 mov	 eax, DWORD PTR _draw_unclipped_fan_byte_face$[ebp]
  00aad	50		 push	 eax
  00aae	8b 4d f8	 mov	 ecx, DWORD PTR _draw_unclipped_fan_word_face$[ebp]
  00ab1	51		 push	 ecx
  00ab2	8b 55 94	 mov	 edx, DWORD PTR _draw_clipped_fan_byte_face$[ebp]
  00ab5	52		 push	 edx
  00ab6	8b 45 98	 mov	 eax, DWORD PTR _draw_clipped_fan_word_face$[ebp]
  00ab9	50		 push	 eax
  00aba	6a 00		 push	 0
  00abc	6a 27		 push	 39			; 00000027H
  00abe	e8 00 00 00 00	 call	 ?set_terrain_rendering_routines@@YGXHW4TERRAIN_POLYGON_TYPE@@P6GXH@Z111@Z ; set_terrain_rendering_routines

; 719  : 													draw_clipped_fan_word_face, draw_clipped_fan_byte_face,
; 720  : 													draw_unclipped_fan_word_face, draw_unclipped_fan_byte_face );
; 721  : 	   set_terrain_rendering_routines ( TERRAIN_TYPE_BUILT_UP_AREA4, POLYGON_TYPE_FAN,

  00ac3	8b 45 f4	 mov	 eax, DWORD PTR _draw_unclipped_fan_byte_face$[ebp]
  00ac6	50		 push	 eax
  00ac7	8b 4d f8	 mov	 ecx, DWORD PTR _draw_unclipped_fan_word_face$[ebp]
  00aca	51		 push	 ecx
  00acb	8b 55 94	 mov	 edx, DWORD PTR _draw_clipped_fan_byte_face$[ebp]
  00ace	52		 push	 edx
  00acf	8b 45 98	 mov	 eax, DWORD PTR _draw_clipped_fan_word_face$[ebp]
  00ad2	50		 push	 eax
  00ad3	6a 00		 push	 0
  00ad5	6a 28		 push	 40			; 00000028H
  00ad7	e8 00 00 00 00	 call	 ?set_terrain_rendering_routines@@YGXHW4TERRAIN_POLYGON_TYPE@@P6GXH@Z111@Z ; set_terrain_rendering_routines

; 722  : 													draw_clipped_fan_word_face, draw_clipped_fan_byte_face,
; 723  : 													draw_unclipped_fan_word_face, draw_unclipped_fan_byte_face );
; 724  : 
; 725  :    	set_terrain_rendering_routines ( TERRAIN_TYPE_TRENCH, POLYGON_TYPE_STRIP,

  00adc	8b 45 ec	 mov	 eax, DWORD PTR _draw_unclipped_strip_byte_face$[ebp]
  00adf	50		 push	 eax
  00ae0	8b 4d f0	 mov	 ecx, DWORD PTR _draw_unclipped_strip_word_face$[ebp]
  00ae3	51		 push	 ecx
  00ae4	8b 55 8c	 mov	 edx, DWORD PTR _draw_clipped_strip_byte_face$[ebp]
  00ae7	52		 push	 edx
  00ae8	8b 45 90	 mov	 eax, DWORD PTR _draw_clipped_strip_word_face$[ebp]
  00aeb	50		 push	 eax
  00aec	6a 01		 push	 1
  00aee	6a 03		 push	 3
  00af0	e8 00 00 00 00	 call	 ?set_terrain_rendering_routines@@YGXHW4TERRAIN_POLYGON_TYPE@@P6GXH@Z111@Z ; set_terrain_rendering_routines

; 726  : 													draw_clipped_strip_word_face, draw_clipped_strip_byte_face,
; 727  : 													draw_unclipped_strip_word_face, draw_unclipped_strip_byte_face);
; 728  : 
; 729  : 	   set_terrain_rendering_routines ( TERRAIN_TYPE_WALL_TOP, POLYGON_TYPE_STRIP,

  00af5	8b 45 ec	 mov	 eax, DWORD PTR _draw_unclipped_strip_byte_face$[ebp]
  00af8	50		 push	 eax
  00af9	8b 4d f0	 mov	 ecx, DWORD PTR _draw_unclipped_strip_word_face$[ebp]
  00afc	51		 push	 ecx
  00afd	8b 55 8c	 mov	 edx, DWORD PTR _draw_clipped_strip_byte_face$[ebp]
  00b00	52		 push	 edx
  00b01	8b 45 90	 mov	 eax, DWORD PTR _draw_clipped_strip_word_face$[ebp]
  00b04	50		 push	 eax
  00b05	6a 01		 push	 1
  00b07	6a 2c		 push	 44			; 0000002cH
  00b09	e8 00 00 00 00	 call	 ?set_terrain_rendering_routines@@YGXHW4TERRAIN_POLYGON_TYPE@@P6GXH@Z111@Z ; set_terrain_rendering_routines

; 730  : 													draw_clipped_strip_word_face, draw_clipped_strip_byte_face,
; 731  : 													draw_unclipped_strip_word_face, draw_unclipped_strip_byte_face);
; 732  : 
; 733  : 		set_terrain_rendering_routines ( TERRAIN_TYPE_RIVER, POLYGON_TYPE_STRIP,

  00b0e	8b 45 ec	 mov	 eax, DWORD PTR _draw_unclipped_strip_byte_face$[ebp]
  00b11	50		 push	 eax
  00b12	8b 4d f0	 mov	 ecx, DWORD PTR _draw_unclipped_strip_word_face$[ebp]
  00b15	51		 push	 ecx
  00b16	8b 55 8c	 mov	 edx, DWORD PTR _draw_clipped_strip_byte_face$[ebp]
  00b19	52		 push	 edx
  00b1a	8b 45 90	 mov	 eax, DWORD PTR _draw_clipped_strip_word_face$[ebp]
  00b1d	50		 push	 eax
  00b1e	6a 01		 push	 1
  00b20	6a 01		 push	 1
  00b22	e8 00 00 00 00	 call	 ?set_terrain_rendering_routines@@YGXHW4TERRAIN_POLYGON_TYPE@@P6GXH@Z111@Z ; set_terrain_rendering_routines

; 734  : 													draw_clipped_strip_word_face, draw_clipped_strip_byte_face,
; 735  : 													draw_unclipped_strip_word_face, draw_unclipped_strip_byte_face);
; 736  : 
; 737  : 		set_terrain_rendering_routines ( TERRAIN_TYPE_RESERVOIR, POLYGON_TYPE_FAN,

  00b27	8b 45 f4	 mov	 eax, DWORD PTR _draw_unclipped_fan_byte_face$[ebp]
  00b2a	50		 push	 eax
  00b2b	8b 4d f8	 mov	 ecx, DWORD PTR _draw_unclipped_fan_word_face$[ebp]
  00b2e	51		 push	 ecx
  00b2f	8b 55 94	 mov	 edx, DWORD PTR _draw_clipped_fan_byte_face$[ebp]
  00b32	52		 push	 edx
  00b33	8b 45 98	 mov	 eax, DWORD PTR _draw_clipped_fan_word_face$[ebp]
  00b36	50		 push	 eax
  00b37	6a 00		 push	 0
  00b39	6a 02		 push	 2
  00b3b	e8 00 00 00 00	 call	 ?set_terrain_rendering_routines@@YGXHW4TERRAIN_POLYGON_TYPE@@P6GXH@Z111@Z ; set_terrain_rendering_routines

; 738  : 													draw_clipped_fan_word_face, draw_clipped_fan_byte_face,
; 739  : 													draw_unclipped_fan_word_face, draw_unclipped_fan_byte_face );
; 740  : 
; 741  : 	   set_terrain_rendering_routines ( TERRAIN_TYPE_HEDGE_TOP, POLYGON_TYPE_STRIP,

  00b40	8b 45 ec	 mov	 eax, DWORD PTR _draw_unclipped_strip_byte_face$[ebp]
  00b43	50		 push	 eax
  00b44	8b 4d f0	 mov	 ecx, DWORD PTR _draw_unclipped_strip_word_face$[ebp]
  00b47	51		 push	 ecx
  00b48	8b 55 8c	 mov	 edx, DWORD PTR _draw_clipped_strip_byte_face$[ebp]
  00b4b	52		 push	 edx
  00b4c	8b 45 90	 mov	 eax, DWORD PTR _draw_clipped_strip_word_face$[ebp]
  00b4f	50		 push	 eax
  00b50	6a 01		 push	 1
  00b52	6a 2d		 push	 45			; 0000002dH
  00b54	e8 00 00 00 00	 call	 ?set_terrain_rendering_routines@@YGXHW4TERRAIN_POLYGON_TYPE@@P6GXH@Z111@Z ; set_terrain_rendering_routines

; 742  : 													draw_clipped_strip_word_face, draw_clipped_strip_byte_face,
; 743  : 													draw_unclipped_strip_word_face, draw_unclipped_strip_byte_face);
; 744  : 	//VJ 050619 changed these to display without greyish haze in the distance
; 745  : 	   set_terrain_rendering_routines ( TERRAIN_TYPE_HEDGE_SIDE_X, POLYGON_TYPE_STRIP,

  00b59	8b 45 d4	 mov	 eax, DWORD PTR _draw_texture_x_unclipped_strip_byte_face$[ebp]
  00b5c	50		 push	 eax
  00b5d	8b 4d d8	 mov	 ecx, DWORD PTR _draw_texture_x_unclipped_strip_word_face$[ebp]
  00b60	51		 push	 ecx
  00b61	8b 95 74 ff ff
	ff		 mov	 edx, DWORD PTR _draw_texture_x_clipped_strip_byte_face$[ebp]
  00b67	52		 push	 edx
  00b68	8b 85 78 ff ff
	ff		 mov	 eax, DWORD PTR _draw_texture_x_clipped_strip_word_face$[ebp]
  00b6e	50		 push	 eax
  00b6f	6a 01		 push	 1
  00b71	6a 1b		 push	 27			; 0000001bH
  00b73	e8 00 00 00 00	 call	 ?set_terrain_rendering_routines@@YGXHW4TERRAIN_POLYGON_TYPE@@P6GXH@Z111@Z ; set_terrain_rendering_routines

; 746  : 													draw_texture_x_clipped_strip_word_face, draw_texture_x_clipped_strip_byte_face,
; 747  : 													draw_texture_x_unclipped_strip_word_face, draw_texture_x_unclipped_strip_byte_face );
; 748  : 	   set_terrain_rendering_routines ( TERRAIN_TYPE_HEDGE_SIDE_Z, POLYGON_TYPE_STRIP,

  00b78	8b 45 cc	 mov	 eax, DWORD PTR _draw_texture_z_unclipped_strip_byte_face$[ebp]
  00b7b	50		 push	 eax
  00b7c	8b 4d d0	 mov	 ecx, DWORD PTR _draw_texture_z_unclipped_strip_word_face$[ebp]
  00b7f	51		 push	 ecx
  00b80	8b 95 6c ff ff
	ff		 mov	 edx, DWORD PTR _draw_texture_z_clipped_strip_byte_face$[ebp]
  00b86	52		 push	 edx
  00b87	8b 85 70 ff ff
	ff		 mov	 eax, DWORD PTR _draw_texture_z_clipped_strip_word_face$[ebp]
  00b8d	50		 push	 eax
  00b8e	6a 01		 push	 1
  00b90	6a 1c		 push	 28			; 0000001cH
  00b92	e8 00 00 00 00	 call	 ?set_terrain_rendering_routines@@YGXHW4TERRAIN_POLYGON_TYPE@@P6GXH@Z111@Z ; set_terrain_rendering_routines
$LN12@initialise:

; 749  : 													draw_texture_z_clipped_strip_word_face, draw_texture_z_clipped_strip_byte_face,
; 750  : 													draw_texture_z_unclipped_strip_word_face, draw_texture_z_unclipped_strip_byte_face );
; 751  : 
; 752  : 	}
; 753  : 
; 754  : 	//
; 755  : 	// All the types that have been axed, due to visual impairments ( don't look nice! ) or speed considerations
; 756  : 	//
; 757  : 
; 758  : 	for ( count = ( TERRAIN_TYPE_INVALID + 1 ); count < TERRAIN_TYPE_LAST; count++ )

  00b97	c7 45 fc 01 00
	00 00		 mov	 DWORD PTR _count$[ebp], 1
  00b9e	eb 09		 jmp	 SHORT $LN7@initialise
$LN5@initialise:
  00ba0	8b 45 fc	 mov	 eax, DWORD PTR _count$[ebp]
  00ba3	83 c0 01	 add	 eax, 1
  00ba6	89 45 fc	 mov	 DWORD PTR _count$[ebp], eax
$LN7@initialise:
  00ba9	83 7d fc 3e	 cmp	 DWORD PTR _count$[ebp], 62 ; 0000003eH
  00bad	7d 26		 jge	 SHORT $LN6@initialise

; 759  : 	{
; 760  : 
; 761  : 		if ( !terrain_type_information[count].initialised )

  00baf	6b 45 fc 38	 imul	 eax, DWORD PTR _count$[ebp], 56
  00bb3	83 b8 00 00 00
	00 00		 cmp	 DWORD PTR ?terrain_type_information@@3PAUTERRAIN_TYPE_INFO@@A[eax], 0
  00bba	75 17		 jne	 SHORT $LN13@initialise

; 762  : 		{
; 763  : 
; 764  : 			debug_log ( "terrain type %s not initialised", get_terrain_type_name ( count ) );

  00bbc	8b 45 fc	 mov	 eax, DWORD PTR _count$[ebp]
  00bbf	50		 push	 eax
  00bc0	e8 00 00 00 00	 call	 ?get_terrain_type_name@@YGPBDH@Z ; get_terrain_type_name
  00bc5	50		 push	 eax
  00bc6	68 00 00 00 00	 push	 OFFSET ??_C@_0CA@IOGBLHOJ@terrain?5type?5?$CFs?5not?5initialised@
  00bcb	e8 00 00 00 00	 call	 ?debug_log@@YAXPBDZZ	; debug_log
  00bd0	83 c4 08	 add	 esp, 8
$LN13@initialise:

; 765  : 		}
; 766  : 	}

  00bd3	eb cb		 jmp	 SHORT $LN5@initialise
$LN6@initialise:

; 767  : 
; 768  : 	//VJ 050321 texture colour mod
; 769  : 	if (command_line_texture_colour)

  00bd5	83 3d 00 00 00
	00 00		 cmp	 DWORD PTR ?command_line_texture_colour@@3HA, 0 ; command_line_texture_colour
  00bdc	0f 84 ba 00 00
	00		 je	 $LN14@initialise

; 770  : 	switch ( current_terrain_version.map_number )

  00be2	a1 00 00 00 00	 mov	 eax, DWORD PTR ?current_terrain_version@@3UTERRAIN_3D_FILE_VALIDATION@@A ; current_terrain_version
  00be7	83 e0 0f	 and	 eax, 15			; 0000000fH
  00bea	89 85 f8 fe ff
	ff		 mov	 DWORD PTR tv640[ebp], eax
  00bf0	8b 8d f8 fe ff
	ff		 mov	 ecx, DWORD PTR tv640[ebp]
  00bf6	83 e9 01	 sub	 ecx, 1
  00bf9	89 8d f8 fe ff
	ff		 mov	 DWORD PTR tv640[ebp], ecx
  00bff	83 bd f8 fe ff
	ff 05		 cmp	 DWORD PTR tv640[ebp], 5
  00c06	77 28		 ja	 SHORT $LN16@initialise
  00c08	8b 95 f8 fe ff
	ff		 mov	 edx, DWORD PTR tv640[ebp]
  00c0e	ff 24 95 00 00
	00 00		 jmp	 DWORD PTR $LN19@initialise[edx*4]
$LN15@initialise:

; 771  : 	{
; 772  : 
; 773  : 		case 1:	// THAILAND
; 774  : 		case 2:	// CUBA
; 775  : 		case 4:	// TAIWAN
; 776  : 		{
; 777  : 
; 778  : 			set_terrain_rendering_routines ( TERRAIN_TYPE_ALTERED_LAND3, POLYGON_TYPE_FAN,

  00c15	8b 45 f4	 mov	 eax, DWORD PTR _draw_unclipped_fan_byte_face$[ebp]
  00c18	50		 push	 eax
  00c19	8b 4d f8	 mov	 ecx, DWORD PTR _draw_unclipped_fan_word_face$[ebp]
  00c1c	51		 push	 ecx
  00c1d	8b 55 94	 mov	 edx, DWORD PTR _draw_clipped_fan_byte_face$[ebp]
  00c20	52		 push	 edx
  00c21	8b 45 98	 mov	 eax, DWORD PTR _draw_clipped_fan_word_face$[ebp]
  00c24	50		 push	 eax
  00c25	6a 00		 push	 0
  00c27	6a 17		 push	 23			; 00000017H
  00c29	e8 00 00 00 00	 call	 ?set_terrain_rendering_routines@@YGXHW4TERRAIN_POLYGON_TYPE@@P6GXH@Z111@Z ; set_terrain_rendering_routines

; 779  : 														draw_clipped_fan_word_face, draw_clipped_fan_byte_face,
; 780  : 														draw_unclipped_fan_word_face, draw_unclipped_fan_byte_face );
; 781  : 
; 782  : 			break;

  00c2e	eb 6c		 jmp	 SHORT $LN14@initialise
$LN16@initialise:

; 783  : 		}
; 784  : 
; 785  : 		default:	// GEORGIA
; 786  : 		{
; 787  : 
; 788  : 			set_terrain_rendering_routines ( TERRAIN_TYPE_ALTERED_LAND3, POLYGON_TYPE_FAN,

  00c30	8b 45 c4	 mov	 eax, DWORD PTR _draw_colour_unclipped_fan_byte_face$[ebp]
  00c33	50		 push	 eax
  00c34	8b 4d c8	 mov	 ecx, DWORD PTR _draw_colour_unclipped_fan_word_face$[ebp]
  00c37	51		 push	 ecx
  00c38	8b 95 64 ff ff
	ff		 mov	 edx, DWORD PTR _draw_colour_clipped_fan_byte_face$[ebp]
  00c3e	52		 push	 edx
  00c3f	8b 85 68 ff ff
	ff		 mov	 eax, DWORD PTR _draw_colour_clipped_fan_word_face$[ebp]
  00c45	50		 push	 eax
  00c46	6a 00		 push	 0
  00c48	6a 17		 push	 23			; 00000017H
  00c4a	e8 00 00 00 00	 call	 ?set_terrain_rendering_routines@@YGXHW4TERRAIN_POLYGON_TYPE@@P6GXH@Z111@Z ; set_terrain_rendering_routines

; 789  : 														draw_colour_clipped_fan_word_face, draw_colour_clipped_fan_byte_face,
; 790  : 														draw_colour_unclipped_fan_word_face, draw_colour_unclipped_fan_byte_face );
; 791  : 
; 792  : 			break;

  00c4f	eb 4b		 jmp	 SHORT $LN14@initialise
$LN17@initialise:

; 793  : 		}
; 794  : 
; 795  : 		case 6: // YEMEN
; 796  : 		{
; 797  : 
; 798  : 			set_terrain_rendering_routines ( TERRAIN_TYPE_ALTERED_LAND3, POLYGON_TYPE_FAN,

  00c51	8b 45 f4	 mov	 eax, DWORD PTR _draw_unclipped_fan_byte_face$[ebp]
  00c54	50		 push	 eax
  00c55	8b 4d f8	 mov	 ecx, DWORD PTR _draw_unclipped_fan_word_face$[ebp]
  00c58	51		 push	 ecx
  00c59	8b 55 94	 mov	 edx, DWORD PTR _draw_clipped_fan_byte_face$[ebp]
  00c5c	52		 push	 edx
  00c5d	8b 45 98	 mov	 eax, DWORD PTR _draw_clipped_fan_word_face$[ebp]
  00c60	50		 push	 eax
  00c61	6a 00		 push	 0
  00c63	6a 17		 push	 23			; 00000017H
  00c65	e8 00 00 00 00	 call	 ?set_terrain_rendering_routines@@YGXHW4TERRAIN_POLYGON_TYPE@@P6GXH@Z111@Z ; set_terrain_rendering_routines

; 799  : 														draw_clipped_fan_word_face, draw_clipped_fan_byte_face,
; 800  : 														draw_unclipped_fan_word_face, draw_unclipped_fan_byte_face );
; 801  : 
; 802  : 			set_terrain_rendering_routines ( TERRAIN_TYPE_RIVER, POLYGON_TYPE_STRIP,

  00c6a	8b 45 ec	 mov	 eax, DWORD PTR _draw_unclipped_strip_byte_face$[ebp]
  00c6d	50		 push	 eax
  00c6e	8b 4d f0	 mov	 ecx, DWORD PTR _draw_unclipped_strip_word_face$[ebp]
  00c71	51		 push	 ecx
  00c72	8b 55 8c	 mov	 edx, DWORD PTR _draw_clipped_strip_byte_face$[ebp]
  00c75	52		 push	 edx
  00c76	8b 45 90	 mov	 eax, DWORD PTR _draw_clipped_strip_word_face$[ebp]
  00c79	50		 push	 eax
  00c7a	6a 01		 push	 1
  00c7c	6a 01		 push	 1
  00c7e	e8 00 00 00 00	 call	 ?set_terrain_rendering_routines@@YGXHW4TERRAIN_POLYGON_TYPE@@P6GXH@Z111@Z ; set_terrain_rendering_routines

; 803  : 														draw_clipped_strip_word_face, draw_clipped_strip_byte_face,
; 804  : 														draw_unclipped_strip_word_face, draw_unclipped_strip_byte_face );
; 805  : 
; 806  : 			set_terrain_rendering_routines ( TERRAIN_TYPE_RESERVOIR, POLYGON_TYPE_FAN,

  00c83	8b 45 f4	 mov	 eax, DWORD PTR _draw_unclipped_fan_byte_face$[ebp]
  00c86	50		 push	 eax
  00c87	8b 4d f8	 mov	 ecx, DWORD PTR _draw_unclipped_fan_word_face$[ebp]
  00c8a	51		 push	 ecx
  00c8b	8b 55 94	 mov	 edx, DWORD PTR _draw_clipped_fan_byte_face$[ebp]
  00c8e	52		 push	 edx
  00c8f	8b 45 98	 mov	 eax, DWORD PTR _draw_clipped_fan_word_face$[ebp]
  00c92	50		 push	 eax
  00c93	6a 00		 push	 0
  00c95	6a 02		 push	 2
  00c97	e8 00 00 00 00	 call	 ?set_terrain_rendering_routines@@YGXHW4TERRAIN_POLYGON_TYPE@@P6GXH@Z111@Z ; set_terrain_rendering_routines
$LN14@initialise:

; 807  : 														draw_clipped_fan_word_face, draw_clipped_fan_byte_face,
; 808  : 														draw_unclipped_fan_word_face, draw_unclipped_fan_byte_face );
; 809  : 
; 810  : 			break;
; 811  : 		}
; 812  : 	}
; 813  : 
; 814  : 	initialise_3d_terrain_map_specific_texture_indices ();

  00c9c	e8 00 00 00 00	 call	 ?initialise_3d_terrain_map_specific_texture_indices@@YGXXZ ; initialise_3d_terrain_map_specific_texture_indices

; 815  : }

  00ca1	5f		 pop	 edi
  00ca2	5e		 pop	 esi
  00ca3	5b		 pop	 ebx
  00ca4	8b e5		 mov	 esp, ebp
  00ca6	5d		 pop	 ebp
  00ca7	c2 04 00	 ret	 4
  00caa	66 90		 npad	 2
$LN19@initialise:
  00cac	00 00 00 00	 DD	 $LN15@initialise
  00cb0	00 00 00 00	 DD	 $LN15@initialise
  00cb4	00 00 00 00	 DD	 $LN16@initialise
  00cb8	00 00 00 00	 DD	 $LN15@initialise
  00cbc	00 00 00 00	 DD	 $LN16@initialise
  00cc0	00 00 00 00	 DD	 $LN17@initialise
?initialise_3d_terrain_rendering_routines@@YGXH@Z ENDP	; initialise_3d_terrain_rendering_routines
_TEXT	ENDS
; Function compile flags: /Odtp /ZI
; File c:\users\nhv90\projects\eech\modules\3d\terrain\terrtype.c
;	COMDAT ?get_3d_terrain_dual_pass_rendering@@YGHXZ
_TEXT	SEGMENT
?get_3d_terrain_dual_pass_rendering@@YGHXZ PROC		; get_3d_terrain_dual_pass_rendering, COMDAT

; 268  : {

  00000	55		 push	 ebp
  00001	8b ec		 mov	 ebp, esp
  00003	83 ec 40	 sub	 esp, 64			; 00000040H
  00006	53		 push	 ebx
  00007	56		 push	 esi
  00008	57		 push	 edi

; 269  : 
; 270  : 	return ( terrain_dual_pass_rendering_enabled );

  00009	a1 00 00 00 00	 mov	 eax, DWORD PTR ?terrain_dual_pass_rendering_enabled@@3HA ; terrain_dual_pass_rendering_enabled

; 271  : }

  0000e	5f		 pop	 edi
  0000f	5e		 pop	 esi
  00010	5b		 pop	 ebx
  00011	8b e5		 mov	 esp, ebp
  00013	5d		 pop	 ebp
  00014	c3		 ret	 0
?get_3d_terrain_dual_pass_rendering@@YGHXZ ENDP		; get_3d_terrain_dual_pass_rendering
_TEXT	ENDS
; Function compile flags: /Odtp /ZI
; File c:\users\nhv90\projects\eech\modules\3d\terrain\terrtype.c
;	COMDAT ?set_3d_terrain_dual_pass_rendering@@YGXH@Z
_TEXT	SEGMENT
_enabled$ = 8						; size = 4
?set_3d_terrain_dual_pass_rendering@@YGXH@Z PROC	; set_3d_terrain_dual_pass_rendering, COMDAT

; 248  : {

  00000	55		 push	 ebp
  00001	8b ec		 mov	 ebp, esp
  00003	83 ec 40	 sub	 esp, 64			; 00000040H
  00006	53		 push	 ebx
  00007	56		 push	 esi
  00008	57		 push	 edi

; 249  : 
; 250  : 	if ( enabled != terrain_dual_pass_rendering_enabled )

  00009	8b 45 08	 mov	 eax, DWORD PTR _enabled$[ebp]
  0000c	3b 05 00 00 00
	00		 cmp	 eax, DWORD PTR ?terrain_dual_pass_rendering_enabled@@3HA ; terrain_dual_pass_rendering_enabled
  00012	74 13		 je	 SHORT $LN1@set_3d_ter

; 251  : 	{
; 252  : 
; 253  : 		terrain_dual_pass_rendering_enabled = enabled;

  00014	8b 45 08	 mov	 eax, DWORD PTR _enabled$[ebp]
  00017	a3 00 00 00 00	 mov	 DWORD PTR ?terrain_dual_pass_rendering_enabled@@3HA, eax ; terrain_dual_pass_rendering_enabled

; 254  : 
; 255  : 		//
; 256  : 		// Reinitialise the terrain rendering routines
; 257  : 		//
; 258  : 
; 259  : 		initialise_3d_terrain_rendering_routines ( terrain_dual_pass_rendering_enabled );

  0001c	a1 00 00 00 00	 mov	 eax, DWORD PTR ?terrain_dual_pass_rendering_enabled@@3HA ; terrain_dual_pass_rendering_enabled
  00021	50		 push	 eax
  00022	e8 00 00 00 00	 call	 ?initialise_3d_terrain_rendering_routines@@YGXH@Z ; initialise_3d_terrain_rendering_routines
$LN1@set_3d_ter:

; 260  : 	}
; 261  : }

  00027	5f		 pop	 edi
  00028	5e		 pop	 esi
  00029	5b		 pop	 ebx
  0002a	8b e5		 mov	 esp, ebp
  0002c	5d		 pop	 ebp
  0002d	c2 04 00	 ret	 4
?set_3d_terrain_dual_pass_rendering@@YGXH@Z ENDP	; set_3d_terrain_dual_pass_rendering
_TEXT	ENDS
END
