; Listing generated by Microsoft (R) Optimizing Compiler Version 19.16.27045.0 

	TITLE	C:\Users\nhv90\Projects\eech\aphavoc\source\entity\special\task\ts_creat.c
	.686P
	.XMM
	include listing.inc
	.model	flat

INCLUDELIB MSVCRTD
INCLUDELIB OLDNAMES

PUBLIC	?overload_task_create_functions@@YGXXZ		; overload_task_create_functions
PUBLIC	?__LINE__Var@?0??create_local@@YGPAUENTITY@@W4ENTITY_TYPES@@HPAD@Z@4JA ; `create_local'::`1'::__LINE__Var
PUBLIC	??_C@_0EL@LPJCCNHP@c?3?2users?2nhv90?2projects?2eech?2ap@ ; `string'
PUBLIC	??_C@_0CL@OOPHFNJI@assert_local_create_entity_inde@ ; `string'
PUBLIC	?__LINE__Var@?0??create_remote@@YGPAUENTITY@@W4ENTITY_TYPES@@HPAD@Z@4JA ; `create_remote'::`1'::__LINE__Var
PUBLIC	??_C@_0CM@DHBIKIGD@assert_remote_create_entity_ind@ ; `string'
PUBLIC	?__LINE__Var@?0??create_server@@YGPAUENTITY@@W4ENTITY_TYPES@@HPAD@Z@4JA ; `create_server'::`1'::__LINE__Var
PUBLIC	??_C@_0CB@CFOCLFOK@assert_client_server_local_fn?5?$CI@ ; `string'
PUBLIC	??_C@_0CC@BNNNEGEG@assert_client_server_remote_fn?5@ ; `string'
PUBLIC	?__LINE__Var@?0??create_client@@YGPAUENTITY@@W4ENTITY_TYPES@@HPAD@Z@4JA ; `create_client'::`1'::__LINE__Var
EXTRN	_memset:PROC
EXTRN	?process_assert@@YGXPBD0H@Z:PROC		; process_assert
EXTRN	?malloc_fast_memory@@YGPAXI@Z:PROC		; malloc_fast_memory
EXTRN	?set_local_entity_attributes@@YGXPAUENTITY@@PAD@Z:PROC ; set_local_entity_attributes
EXTRN	?insert_local_entity_into_parents_child_list@@YGXPAUENTITY@@W4LIST_TYPES@@00@Z:PROC ; insert_local_entity_into_parents_child_list
EXTRN	?transmit_entity_comms_message@@YAXW4ENTITY_COMMS_MESSAGES@@PAUENTITY@@ZZ:PROC ; transmit_entity_comms_message
EXTRN	?assert_client_server_local_fn@@YGHXZ:PROC	; assert_client_server_local_fn
EXTRN	?assert_client_server_remote_fn@@YGHXZ:PROC	; assert_client_server_remote_fn
EXTRN	?assert_local_create_entity_index@@YGHH@Z:PROC	; assert_local_create_entity_index
EXTRN	?assert_remote_create_entity_index@@YGHH@Z:PROC	; assert_remote_create_entity_index
EXTRN	?get_free_entity@@YGPAUENTITY@@H@Z:PROC		; get_free_entity
EXTRN	?get_local_task_list_type@@YG?AW4LIST_TYPES@@PAUENTITY@@@Z:PROC ; get_local_task_list_type
EXTRN	?system_comms_data_flow@@3W4COMMS_DATA_FLOW_TYPES@@A:DWORD ; system_comms_data_flow
EXTRN	?fn_create_local_entity@@3PAP6GPAUENTITY@@W4ENTITY_TYPES@@HPAD@ZA:BYTE ; fn_create_local_entity
EXTRN	?fn_create_client_server_entity@@3PAY01P6GPAUENTITY@@W4ENTITY_TYPES@@HPAD@ZA:BYTE ; fn_create_client_server_entity
EXTRN	?entities@@3PAUENTITY@@A:DWORD			; entities
EXTRN	?update_entity@@3PAUENTITY@@A:DWORD		; update_entity
;	COMDAT ?__LINE__Var@?0??create_client@@YGPAUENTITY@@W4ENTITY_TYPES@@HPAD@Z@4JA
_DATA	SEGMENT
?__LINE__Var@?0??create_client@@YGPAUENTITY@@W4ENTITY_TYPES@@HPAD@Z@4JA DD 0e1H ; `create_client'::`1'::__LINE__Var
_DATA	ENDS
;	COMDAT ??_C@_0CC@BNNNEGEG@assert_client_server_remote_fn?5@
CONST	SEGMENT
??_C@_0CC@BNNNEGEG@assert_client_server_remote_fn?5@ DB 'assert_client_se'
	DB	'rver_remote_fn ()', 00H			; `string'
CONST	ENDS
;	COMDAT ??_C@_0CB@CFOCLFOK@assert_client_server_local_fn?5?$CI@
CONST	SEGMENT
??_C@_0CB@CFOCLFOK@assert_client_server_local_fn?5?$CI@ DB 'assert_client'
	DB	'_server_local_fn ()', 00H			; `string'
CONST	ENDS
;	COMDAT ?__LINE__Var@?0??create_server@@YGPAUENTITY@@W4ENTITY_TYPES@@HPAD@Z@4JA
_DATA	SEGMENT
?__LINE__Var@?0??create_server@@YGPAUENTITY@@W4ENTITY_TYPES@@HPAD@Z@4JA DD 0caH ; `create_server'::`1'::__LINE__Var
_DATA	ENDS
;	COMDAT ??_C@_0CM@DHBIKIGD@assert_remote_create_entity_ind@
CONST	SEGMENT
??_C@_0CM@DHBIKIGD@assert_remote_create_entity_ind@ DB 'assert_remote_cre'
	DB	'ate_entity_index ((index))', 00H		; `string'
CONST	ENDS
;	COMDAT ?__LINE__Var@?0??create_remote@@YGPAUENTITY@@W4ENTITY_TYPES@@HPAD@Z@4JA
_DATA	SEGMENT
?__LINE__Var@?0??create_remote@@YGPAUENTITY@@W4ENTITY_TYPES@@HPAD@Z@4JA DD 0b7H ; `create_remote'::`1'::__LINE__Var
_DATA	ENDS
;	COMDAT ??_C@_0CL@OOPHFNJI@assert_local_create_entity_inde@
CONST	SEGMENT
??_C@_0CL@OOPHFNJI@assert_local_create_entity_inde@ DB 'assert_local_crea'
	DB	'te_entity_index ((index))', 00H		; `string'
CONST	ENDS
;	COMDAT ??_C@_0EL@LPJCCNHP@c?3?2users?2nhv90?2projects?2eech?2ap@
CONST	SEGMENT
??_C@_0EL@LPJCCNHP@c?3?2users?2nhv90?2projects?2eech?2ap@ DB 'c:\users\nh'
	DB	'v90\projects\eech\aphavoc\source\entity\special\task\ts_creat'
	DB	'.c', 00H					; `string'
CONST	ENDS
;	COMDAT ?__LINE__Var@?0??create_local@@YGPAUENTITY@@W4ENTITY_TYPES@@HPAD@Z@4JA
_DATA	SEGMENT
?__LINE__Var@?0??create_local@@YGPAUENTITY@@W4ENTITY_TYPES@@HPAD@Z@4JA DD 050H ; `create_local'::`1'::__LINE__Var
_DATA	ENDS
; Function compile flags: /Odtp /ZI
; File c:\users\nhv90\projects\eech\aphavoc\source\entity\special\task\ts_creat.c
;	COMDAT ?create_client@@YGPAUENTITY@@W4ENTITY_TYPES@@HPAD@Z
_TEXT	SEGMENT
_en$ = -4						; size = 4
_type$ = 8						; size = 4
_index$ = 12						; size = 4
_pargs$ = 16						; size = 4
?create_client@@YGPAUENTITY@@W4ENTITY_TYPES@@HPAD@Z PROC ; create_client, COMDAT

; 225  : {

  00000	55		 push	 ebp
  00001	8b ec		 mov	 ebp, esp
  00003	83 ec 44	 sub	 esp, 68			; 00000044H
  00006	53		 push	 ebx
  00007	56		 push	 esi
  00008	57		 push	 edi

; 226  : 	entity
; 227  : 		*en;
; 228  : 
; 229  : 	if (get_comms_data_flow () == COMMS_DATA_FLOW_TX)

  00009	83 3d 00 00 00
	00 00		 cmp	 DWORD PTR ?system_comms_data_flow@@3W4COMMS_DATA_FLOW_TYPES@@A, 0 ; system_comms_data_flow
  00010	75 37		 jne	 SHORT $LN2@create_cli

; 230  : 	{
; 231  : 		validate_client_server_remote_fn ();

  00012	e8 00 00 00 00	 call	 ?assert_client_server_remote_fn@@YGHXZ ; assert_client_server_remote_fn
  00017	85 c0		 test	 eax, eax
  00019	75 18		 jne	 SHORT $LN4@create_cli
  0001b	a1 00 00 00 00	 mov	 eax, DWORD PTR ?__LINE__Var@?0??create_client@@YGPAUENTITY@@W4ENTITY_TYPES@@HPAD@Z@4JA
  00020	83 c0 06	 add	 eax, 6
  00023	50		 push	 eax
  00024	68 00 00 00 00	 push	 OFFSET ??_C@_0EL@LPJCCNHP@c?3?2users?2nhv90?2projects?2eech?2ap@
  00029	68 00 00 00 00	 push	 OFFSET ??_C@_0CC@BNNNEGEG@assert_client_server_remote_fn?5@
  0002e	e8 00 00 00 00	 call	 ?process_assert@@YGXPBD0H@Z ; process_assert
$LN4@create_cli:

; 232  : 
; 233  : 		en = create_remote (type, index, pargs);

  00033	8b 45 10	 mov	 eax, DWORD PTR _pargs$[ebp]
  00036	50		 push	 eax
  00037	8b 4d 0c	 mov	 ecx, DWORD PTR _index$[ebp]
  0003a	51		 push	 ecx
  0003b	8b 55 08	 mov	 edx, DWORD PTR _type$[ebp]
  0003e	52		 push	 edx
  0003f	e8 00 00 00 00	 call	 ?create_remote@@YGPAUENTITY@@W4ENTITY_TYPES@@HPAD@Z ; create_remote
  00044	89 45 fc	 mov	 DWORD PTR _en$[ebp], eax

; 234  : 	}
; 235  : 	else

  00047	eb 35		 jmp	 SHORT $LN3@create_cli
$LN2@create_cli:

; 236  : 	{
; 237  : 		validate_client_server_local_fn ();

  00049	e8 00 00 00 00	 call	 ?assert_client_server_local_fn@@YGHXZ ; assert_client_server_local_fn
  0004e	85 c0		 test	 eax, eax
  00050	75 18		 jne	 SHORT $LN5@create_cli
  00052	a1 00 00 00 00	 mov	 eax, DWORD PTR ?__LINE__Var@?0??create_client@@YGPAUENTITY@@W4ENTITY_TYPES@@HPAD@Z@4JA
  00057	83 c0 0c	 add	 eax, 12			; 0000000cH
  0005a	50		 push	 eax
  0005b	68 00 00 00 00	 push	 OFFSET ??_C@_0EL@LPJCCNHP@c?3?2users?2nhv90?2projects?2eech?2ap@
  00060	68 00 00 00 00	 push	 OFFSET ??_C@_0CB@CFOCLFOK@assert_client_server_local_fn?5?$CI@
  00065	e8 00 00 00 00	 call	 ?process_assert@@YGXPBD0H@Z ; process_assert
$LN5@create_cli:

; 238  : 
; 239  : 		en = create_local (type, index, pargs);

  0006a	8b 45 10	 mov	 eax, DWORD PTR _pargs$[ebp]
  0006d	50		 push	 eax
  0006e	8b 4d 0c	 mov	 ecx, DWORD PTR _index$[ebp]
  00071	51		 push	 ecx
  00072	8b 55 08	 mov	 edx, DWORD PTR _type$[ebp]
  00075	52		 push	 edx
  00076	e8 00 00 00 00	 call	 ?create_local@@YGPAUENTITY@@W4ENTITY_TYPES@@HPAD@Z ; create_local
  0007b	89 45 fc	 mov	 DWORD PTR _en$[ebp], eax
$LN3@create_cli:

; 240  : 	}
; 241  : 
; 242  : 	return (en);

  0007e	8b 45 fc	 mov	 eax, DWORD PTR _en$[ebp]

; 243  : }

  00081	5f		 pop	 edi
  00082	5e		 pop	 esi
  00083	5b		 pop	 ebx
  00084	8b e5		 mov	 esp, ebp
  00086	5d		 pop	 ebp
  00087	c2 0c 00	 ret	 12			; 0000000cH
?create_client@@YGPAUENTITY@@W4ENTITY_TYPES@@HPAD@Z ENDP ; create_client
_TEXT	ENDS
; Function compile flags: /Odtp /ZI
; File c:\users\nhv90\projects\eech\aphavoc\source\entity\special\task\ts_creat.c
;	COMDAT ?create_server@@YGPAUENTITY@@W4ENTITY_TYPES@@HPAD@Z
_TEXT	SEGMENT
_en$ = -4						; size = 4
_type$ = 8						; size = 4
_index$ = 12						; size = 4
_pargs$ = 16						; size = 4
?create_server@@YGPAUENTITY@@W4ENTITY_TYPES@@HPAD@Z PROC ; create_server, COMDAT

; 202  : {

  00000	55		 push	 ebp
  00001	8b ec		 mov	 ebp, esp
  00003	83 ec 44	 sub	 esp, 68			; 00000044H
  00006	53		 push	 ebx
  00007	56		 push	 esi
  00008	57		 push	 edi

; 203  : 	entity
; 204  : 		*en;
; 205  : 
; 206  : 	validate_client_server_local_fn ();

  00009	e8 00 00 00 00	 call	 ?assert_client_server_local_fn@@YGHXZ ; assert_client_server_local_fn
  0000e	85 c0		 test	 eax, eax
  00010	75 18		 jne	 SHORT $LN2@create_ser
  00012	a1 00 00 00 00	 mov	 eax, DWORD PTR ?__LINE__Var@?0??create_server@@YGPAUENTITY@@W4ENTITY_TYPES@@HPAD@Z@4JA
  00017	83 c0 04	 add	 eax, 4
  0001a	50		 push	 eax
  0001b	68 00 00 00 00	 push	 OFFSET ??_C@_0EL@LPJCCNHP@c?3?2users?2nhv90?2projects?2eech?2ap@
  00020	68 00 00 00 00	 push	 OFFSET ??_C@_0CB@CFOCLFOK@assert_client_server_local_fn?5?$CI@
  00025	e8 00 00 00 00	 call	 ?process_assert@@YGXPBD0H@Z ; process_assert
$LN2@create_ser:

; 207  : 
; 208  : 	en = create_local (type, index, pargs);

  0002a	8b 45 10	 mov	 eax, DWORD PTR _pargs$[ebp]
  0002d	50		 push	 eax
  0002e	8b 4d 0c	 mov	 ecx, DWORD PTR _index$[ebp]
  00031	51		 push	 ecx
  00032	8b 55 08	 mov	 edx, DWORD PTR _type$[ebp]
  00035	52		 push	 edx
  00036	e8 00 00 00 00	 call	 ?create_local@@YGPAUENTITY@@W4ENTITY_TYPES@@HPAD@Z ; create_local
  0003b	89 45 fc	 mov	 DWORD PTR _en$[ebp], eax

; 209  : 
; 210  : 	if (en)

  0003e	83 7d fc 00	 cmp	 DWORD PTR _en$[ebp], 0
  00042	74 3b		 je	 SHORT $LN3@create_ser

; 211  : 	{
; 212  : 		validate_client_server_remote_fn ();

  00044	e8 00 00 00 00	 call	 ?assert_client_server_remote_fn@@YGHXZ ; assert_client_server_remote_fn
  00049	85 c0		 test	 eax, eax
  0004b	75 18		 jne	 SHORT $LN4@create_ser
  0004d	a1 00 00 00 00	 mov	 eax, DWORD PTR ?__LINE__Var@?0??create_server@@YGPAUENTITY@@W4ENTITY_TYPES@@HPAD@Z@4JA
  00052	83 c0 0a	 add	 eax, 10			; 0000000aH
  00055	50		 push	 eax
  00056	68 00 00 00 00	 push	 OFFSET ??_C@_0EL@LPJCCNHP@c?3?2users?2nhv90?2projects?2eech?2ap@
  0005b	68 00 00 00 00	 push	 OFFSET ??_C@_0CC@BNNNEGEG@assert_client_server_remote_fn?5@
  00060	e8 00 00 00 00	 call	 ?process_assert@@YGXPBD0H@Z ; process_assert
$LN4@create_ser:

; 213  : 
; 214  : 		create_remote (type, get_local_entity_index (en), pargs);

  00065	8b 45 10	 mov	 eax, DWORD PTR _pargs$[ebp]
  00068	50		 push	 eax
  00069	8b 4d fc	 mov	 ecx, DWORD PTR _en$[ebp]
  0006c	2b 0d 00 00 00
	00		 sub	 ecx, DWORD PTR ?entities@@3PAUENTITY@@A ; entities
  00072	c1 f9 04	 sar	 ecx, 4
  00075	51		 push	 ecx
  00076	8b 55 08	 mov	 edx, DWORD PTR _type$[ebp]
  00079	52		 push	 edx
  0007a	e8 00 00 00 00	 call	 ?create_remote@@YGPAUENTITY@@W4ENTITY_TYPES@@HPAD@Z ; create_remote
$LN3@create_ser:

; 215  : 	}
; 216  : 
; 217  : 	return (en);

  0007f	8b 45 fc	 mov	 eax, DWORD PTR _en$[ebp]

; 218  : }

  00082	5f		 pop	 edi
  00083	5e		 pop	 esi
  00084	5b		 pop	 ebx
  00085	8b e5		 mov	 esp, ebp
  00087	5d		 pop	 ebp
  00088	c2 0c 00	 ret	 12			; 0000000cH
?create_server@@YGPAUENTITY@@W4ENTITY_TYPES@@HPAD@Z ENDP ; create_server
_TEXT	ENDS
; Function compile flags: /Odtp /ZI
; File c:\users\nhv90\projects\eech\aphavoc\source\entity\special\task\ts_creat.c
;	COMDAT ?create_remote@@YGPAUENTITY@@W4ENTITY_TYPES@@HPAD@Z
_TEXT	SEGMENT
_type$ = 8						; size = 4
_index$ = 12						; size = 4
_pargs$ = 16						; size = 4
?create_remote@@YGPAUENTITY@@W4ENTITY_TYPES@@HPAD@Z PROC ; create_remote, COMDAT

; 183  : {

  00000	55		 push	 ebp
  00001	8b ec		 mov	 ebp, esp
  00003	83 ec 40	 sub	 esp, 64			; 00000040H
  00006	53		 push	 ebx
  00007	56		 push	 esi
  00008	57		 push	 edi

; 184  : 	validate_remote_create_entity_index (index);

  00009	8b 45 0c	 mov	 eax, DWORD PTR _index$[ebp]
  0000c	50		 push	 eax
  0000d	e8 00 00 00 00	 call	 ?assert_remote_create_entity_index@@YGHH@Z ; assert_remote_create_entity_index
  00012	85 c0		 test	 eax, eax
  00014	75 18		 jne	 SHORT $LN2@create_rem
  00016	a1 00 00 00 00	 mov	 eax, DWORD PTR ?__LINE__Var@?0??create_remote@@YGPAUENTITY@@W4ENTITY_TYPES@@HPAD@Z@4JA
  0001b	83 c0 01	 add	 eax, 1
  0001e	50		 push	 eax
  0001f	68 00 00 00 00	 push	 OFFSET ??_C@_0EL@LPJCCNHP@c?3?2users?2nhv90?2projects?2eech?2ap@
  00024	68 00 00 00 00	 push	 OFFSET ??_C@_0CM@DHBIKIGD@assert_remote_create_entity_ind@
  00029	e8 00 00 00 00	 call	 ?process_assert@@YGXPBD0H@Z ; process_assert
$LN2@create_rem:

; 185  : 
; 186  : 	#if DEBUG_MODULE
; 187  : 
; 188  : 	debug_log_entity_args (ENTITY_DEBUG_REMOTE, ENTITY_DEBUG_CREATE, NULL, type, index);
; 189  : 
; 190  : 	#endif
; 191  : 
; 192  : 	transmit_entity_comms_message (ENTITY_COMMS_CREATE, NULL, type, index, pargs);

  0002e	8b 45 10	 mov	 eax, DWORD PTR _pargs$[ebp]
  00031	50		 push	 eax
  00032	8b 4d 0c	 mov	 ecx, DWORD PTR _index$[ebp]
  00035	51		 push	 ecx
  00036	8b 55 08	 mov	 edx, DWORD PTR _type$[ebp]
  00039	52		 push	 edx
  0003a	6a 00		 push	 0
  0003c	6a 08		 push	 8
  0003e	e8 00 00 00 00	 call	 ?transmit_entity_comms_message@@YAXW4ENTITY_COMMS_MESSAGES@@PAUENTITY@@ZZ ; transmit_entity_comms_message
  00043	83 c4 14	 add	 esp, 20			; 00000014H

; 193  : 
; 194  : 	return (NULL);

  00046	33 c0		 xor	 eax, eax

; 195  : }

  00048	5f		 pop	 edi
  00049	5e		 pop	 esi
  0004a	5b		 pop	 ebx
  0004b	8b e5		 mov	 esp, ebp
  0004d	5d		 pop	 ebp
  0004e	c2 0c 00	 ret	 12			; 0000000cH
?create_remote@@YGPAUENTITY@@W4ENTITY_TYPES@@HPAD@Z ENDP ; create_remote
_TEXT	ENDS
; Function compile flags: /Odtp /ZI
; File c:\users\nhv90\projects\eech\aphavoc\source\entity\special\task\ts_creat.c
;	COMDAT ?create_local@@YGPAUENTITY@@W4ENTITY_TYPES@@HPAD@Z
_TEXT	SEGMENT
_raw$ = -8						; size = 4
_en$ = -4						; size = 4
_type$ = 8						; size = 4
_index$ = 12						; size = 4
_pargs$ = 16						; size = 4
?create_local@@YGPAUENTITY@@W4ENTITY_TYPES@@HPAD@Z PROC	; create_local, COMDAT

; 80   : {

  00000	55		 push	 ebp
  00001	8b ec		 mov	 ebp, esp
  00003	83 ec 48	 sub	 esp, 72			; 00000048H
  00006	53		 push	 ebx
  00007	56		 push	 esi
  00008	57		 push	 edi

; 81   : 
; 82   : 	entity
; 83   : 		*en;
; 84   : 
; 85   : 	task
; 86   : 		*raw;
; 87   : 
; 88   : 	////////////////////////////////////////
; 89   :   	//
; 90   :   	// VALIDATE
; 91   :   	//
; 92   : 	////////////////////////////////////////
; 93   : 
; 94   : 	validate_local_create_entity_index (index);

  00009	8b 45 0c	 mov	 eax, DWORD PTR _index$[ebp]
  0000c	50		 push	 eax
  0000d	e8 00 00 00 00	 call	 ?assert_local_create_entity_index@@YGHH@Z ; assert_local_create_entity_index
  00012	85 c0		 test	 eax, eax
  00014	75 18		 jne	 SHORT $LN2@create_loc
  00016	a1 00 00 00 00	 mov	 eax, DWORD PTR ?__LINE__Var@?0??create_local@@YGPAUENTITY@@W4ENTITY_TYPES@@HPAD@Z@4JA
  0001b	83 c0 0e	 add	 eax, 14			; 0000000eH
  0001e	50		 push	 eax
  0001f	68 00 00 00 00	 push	 OFFSET ??_C@_0EL@LPJCCNHP@c?3?2users?2nhv90?2projects?2eech?2ap@
  00024	68 00 00 00 00	 push	 OFFSET ??_C@_0CL@OOPHFNJI@assert_local_create_entity_inde@
  00029	e8 00 00 00 00	 call	 ?process_assert@@YGXPBD0H@Z ; process_assert
$LN2@create_loc:

; 95   : 
; 96   : 	#if DEBUG_MODULE
; 97   : 
; 98   : 	debug_log_entity_args (ENTITY_DEBUG_LOCAL, ENTITY_DEBUG_CREATE, NULL, type, index);
; 99   : 
; 100  : 	#endif
; 101  : 
; 102  : 	en = get_free_entity (index);

  0002e	8b 45 0c	 mov	 eax, DWORD PTR _index$[ebp]
  00031	50		 push	 eax
  00032	e8 00 00 00 00	 call	 ?get_free_entity@@YGPAUENTITY@@H@Z ; get_free_entity
  00037	89 45 fc	 mov	 DWORD PTR _en$[ebp], eax

; 103  : 
; 104  : 	if (en)

  0003a	83 7d fc 00	 cmp	 DWORD PTR _en$[ebp], 0
  0003e	0f 84 bf 00 00
	00		 je	 $LN3@create_loc

; 105  : 	{
; 106  : 		////////////////////////////////////////
; 107  :    	//
; 108  :    	// MALLOC ENTITY DATA
; 109  :    	//
; 110  : 		////////////////////////////////////////
; 111  : 
; 112  : 		set_local_entity_type (en, type);

  00044	8b 45 fc	 mov	 eax, DWORD PTR _en$[ebp]
  00047	8b 4d 08	 mov	 ecx, DWORD PTR _type$[ebp]
  0004a	89 08		 mov	 DWORD PTR [eax], ecx

; 113  : 
; 114  : 		raw = (task *) malloc_fast_mem (sizeof (task));

  0004c	68 ac 00 00 00	 push	 172			; 000000acH
  00051	e8 00 00 00 00	 call	 ?malloc_fast_memory@@YGPAXI@Z ; malloc_fast_memory
  00056	89 45 f8	 mov	 DWORD PTR _raw$[ebp], eax

; 115  : 
; 116  : 		set_local_entity_data (en, raw);

  00059	8b 45 fc	 mov	 eax, DWORD PTR _en$[ebp]
  0005c	8b 4d f8	 mov	 ecx, DWORD PTR _raw$[ebp]
  0005f	89 48 04	 mov	 DWORD PTR [eax+4], ecx

; 117  : 
; 118  : 		////////////////////////////////////////
; 119  :    	//
; 120  :    	// INITIALISE ALL ENTITY DATA TO 'WORKING' DEFAULT VALUES
; 121  : 		//
; 122  : 		// DO NOT USE ACCESS FUNCTIONS
; 123  : 		//
; 124  : 		// DO NOT USE RANDOM VALUES
; 125  : 		//
; 126  : 		////////////////////////////////////////
; 127  : 
; 128  : 		memset (raw, 0, sizeof (task));

  00062	68 ac 00 00 00	 push	 172			; 000000acH
  00067	6a 00		 push	 0
  00069	8b 45 f8	 mov	 eax, DWORD PTR _raw$[ebp]
  0006c	50		 push	 eax
  0006d	e8 00 00 00 00	 call	 _memset
  00072	83 c4 0c	 add	 esp, 12			; 0000000cH

; 129  : 
; 130  : 		raw->side = ENTITY_SIDE_UNINITIALISED;

  00075	8b 45 f8	 mov	 eax, DWORD PTR _raw$[ebp]
  00078	8b 88 a8 00 00
	00		 mov	 ecx, DWORD PTR [eax+168]
  0007e	83 c9 03	 or	 ecx, 3
  00081	8b 55 f8	 mov	 edx, DWORD PTR _raw$[ebp]
  00084	89 8a a8 00 00
	00		 mov	 DWORD PTR [edx+168], ecx

; 131  : 
; 132  : 		raw->task_state = TASK_STATE_UNASSIGNED;

  0008a	8b 45 f8	 mov	 eax, DWORD PTR _raw$[ebp]
  0008d	c7 40 04 00 00
	00 00		 mov	 DWORD PTR [eax+4], 0

; 133  : 
; 134  : 		raw->task_terminated = TASK_TERMINATED_IN_PROGRESS;

  00094	8b 45 f8	 mov	 eax, DWORD PTR _raw$[ebp]
  00097	c7 80 8c 00 00
	00 00 00 00 00	 mov	 DWORD PTR [eax+140], 0

; 135  : 
; 136  : 		////////////////////////////////////////
; 137  : 		//
; 138  : 		// OVERWRITE DEFAULT VALUES WITH GIVEN ATTRIBUTES
; 139  : 		//
; 140  : 		////////////////////////////////////////
; 141  : 
; 142  : 		set_local_entity_attributes (en, pargs);

  000a1	8b 45 10	 mov	 eax, DWORD PTR _pargs$[ebp]
  000a4	50		 push	 eax
  000a5	8b 4d fc	 mov	 ecx, DWORD PTR _en$[ebp]
  000a8	51		 push	 ecx
  000a9	e8 00 00 00 00	 call	 ?set_local_entity_attributes@@YGXPAUENTITY@@PAD@Z ; set_local_entity_attributes

; 143  : 
; 144  : 		////////////////////////////////////////
; 145  : 		//
; 146  : 		// CHECK MANDATORY ATTRIBUTES HAVE BEEN GIVEN
; 147  : 		//
; 148  : 		////////////////////////////////////////
; 149  : 
; 150  : 		////////////////////////////////////////
; 151  : 		//
; 152  : 		// RESOLVE DEFAULT VALUES
; 153  : 		//
; 154  : 		////////////////////////////////////////
; 155  : 
; 156  : 		////////////////////////////////////////
; 157  : 		//
; 158  : 		// LINK INTO SYSTEM
; 159  : 		//
; 160  : 		////////////////////////////////////////
; 161  : 
; 162  : 		insert_local_entity_into_parents_child_list (en, LIST_TYPE_UPDATE, get_update_entity (), NULL);

  000ae	6a 00		 push	 0
  000b0	a1 00 00 00 00	 mov	 eax, DWORD PTR ?update_entity@@3PAUENTITY@@A ; update_entity
  000b5	50		 push	 eax
  000b6	6a 29		 push	 41			; 00000029H
  000b8	8b 4d fc	 mov	 ecx, DWORD PTR _en$[ebp]
  000bb	51		 push	 ecx
  000bc	e8 00 00 00 00	 call	 ?insert_local_entity_into_parents_child_list@@YGXPAUENTITY@@W4LIST_TYPES@@00@Z ; insert_local_entity_into_parents_child_list

; 163  : 
; 164  : 		if (raw->task_dependent_link.parent)

  000c1	8b 45 f8	 mov	 eax, DWORD PTR _raw$[ebp]
  000c4	83 78 68 00	 cmp	 DWORD PTR [eax+104], 0
  000c8	74 14		 je	 SHORT $LN4@create_loc

; 165  : 		{
; 166  : 			insert_local_entity_into_parents_child_list (en, LIST_TYPE_TASK_DEPENDENT, raw->task_dependent_link.parent, NULL);

  000ca	6a 00		 push	 0
  000cc	8b 45 f8	 mov	 eax, DWORD PTR _raw$[ebp]
  000cf	8b 48 68	 mov	 ecx, DWORD PTR [eax+104]
  000d2	51		 push	 ecx
  000d3	6a 27		 push	 39			; 00000027H
  000d5	8b 55 fc	 mov	 edx, DWORD PTR _en$[ebp]
  000d8	52		 push	 edx
  000d9	e8 00 00 00 00	 call	 ?insert_local_entity_into_parents_child_list@@YGXPAUENTITY@@W4LIST_TYPES@@00@Z ; insert_local_entity_into_parents_child_list
$LN4@create_loc:

; 167  : 		}
; 168  : 
; 169  : 		if (raw->task_link.parent)

  000de	8b 45 f8	 mov	 eax, DWORD PTR _raw$[ebp]
  000e1	83 78 74 00	 cmp	 DWORD PTR [eax+116], 0
  000e5	74 1c		 je	 SHORT $LN3@create_loc

; 170  : 		{
; 171  : 			insert_local_entity_into_parents_child_list (en, get_local_task_list_type (en), raw->task_link.parent, NULL);

  000e7	6a 00		 push	 0
  000e9	8b 45 f8	 mov	 eax, DWORD PTR _raw$[ebp]
  000ec	8b 48 74	 mov	 ecx, DWORD PTR [eax+116]
  000ef	51		 push	 ecx
  000f0	8b 55 fc	 mov	 edx, DWORD PTR _en$[ebp]
  000f3	52		 push	 edx
  000f4	e8 00 00 00 00	 call	 ?get_local_task_list_type@@YG?AW4LIST_TYPES@@PAUENTITY@@@Z ; get_local_task_list_type
  000f9	50		 push	 eax
  000fa	8b 45 fc	 mov	 eax, DWORD PTR _en$[ebp]
  000fd	50		 push	 eax
  000fe	e8 00 00 00 00	 call	 ?insert_local_entity_into_parents_child_list@@YGXPAUENTITY@@W4LIST_TYPES@@00@Z ; insert_local_entity_into_parents_child_list
$LN3@create_loc:

; 172  : 		}
; 173  : 	}
; 174  : 
; 175  : 	return (en);

  00103	8b 45 fc	 mov	 eax, DWORD PTR _en$[ebp]

; 176  : }

  00106	5f		 pop	 edi
  00107	5e		 pop	 esi
  00108	5b		 pop	 ebx
  00109	8b e5		 mov	 esp, ebp
  0010b	5d		 pop	 ebp
  0010c	c2 0c 00	 ret	 12			; 0000000cH
?create_local@@YGPAUENTITY@@W4ENTITY_TYPES@@HPAD@Z ENDP	; create_local
_TEXT	ENDS
; Function compile flags: /Odtp /ZI
; File c:\users\nhv90\projects\eech\aphavoc\source\entity\special\task\ts_creat.c
;	COMDAT ?overload_task_create_functions@@YGXXZ
_TEXT	SEGMENT
?overload_task_create_functions@@YGXXZ PROC		; overload_task_create_functions, COMDAT

; 250  : {

  00000	55		 push	 ebp
  00001	8b ec		 mov	 ebp, esp
  00003	83 ec 40	 sub	 esp, 64			; 00000040H
  00006	53		 push	 ebx
  00007	56		 push	 esi
  00008	57		 push	 edi

; 251  : 	fn_create_local_entity[ENTITY_TYPE_TASK]										= create_local;

  00009	b8 04 00 00 00	 mov	 eax, 4
  0000e	6b c8 22	 imul	 ecx, eax, 34
  00011	c7 81 00 00 00
	00 00 00 00 00	 mov	 DWORD PTR ?fn_create_local_entity@@3PAP6GPAUENTITY@@W4ENTITY_TYPES@@HPAD@ZA[ecx], OFFSET ?create_local@@YGPAUENTITY@@W4ENTITY_TYPES@@HPAD@Z ; create_local

; 252  : 
; 253  : 	fn_create_client_server_entity[ENTITY_TYPE_TASK][COMMS_MODEL_SERVER]	= create_server;

  0001b	b8 08 00 00 00	 mov	 eax, 8
  00020	6b c8 22	 imul	 ecx, eax, 34
  00023	ba 04 00 00 00	 mov	 edx, 4
  00028	6b c2 00	 imul	 eax, edx, 0
  0002b	c7 84 01 00 00
	00 00 00 00 00
	00		 mov	 DWORD PTR ?fn_create_client_server_entity@@3PAY01P6GPAUENTITY@@W4ENTITY_TYPES@@HPAD@ZA[ecx+eax], OFFSET ?create_server@@YGPAUENTITY@@W4ENTITY_TYPES@@HPAD@Z ; create_server

; 254  : 
; 255  : 	fn_create_client_server_entity[ENTITY_TYPE_TASK][COMMS_MODEL_CLIENT]	= create_client;

  00036	b8 08 00 00 00	 mov	 eax, 8
  0003b	6b c8 22	 imul	 ecx, eax, 34
  0003e	ba 04 00 00 00	 mov	 edx, 4
  00043	c1 e2 00	 shl	 edx, 0
  00046	c7 84 11 00 00
	00 00 00 00 00
	00		 mov	 DWORD PTR ?fn_create_client_server_entity@@3PAY01P6GPAUENTITY@@W4ENTITY_TYPES@@HPAD@ZA[ecx+edx], OFFSET ?create_client@@YGPAUENTITY@@W4ENTITY_TYPES@@HPAD@Z ; create_client

; 256  : }

  00051	5f		 pop	 edi
  00052	5e		 pop	 esi
  00053	5b		 pop	 ebx
  00054	8b e5		 mov	 esp, ebp
  00056	5d		 pop	 ebp
  00057	c3		 ret	 0
?overload_task_create_functions@@YGXXZ ENDP		; overload_task_create_functions
_TEXT	ENDS
END
