; Listing generated by Microsoft (R) Optimizing Compiler Version 19.16.27045.0 

	TITLE	C:\Users\nhv90\Projects\eech\aphavoc\source\entity\special\task\ts_dstry.c
	.686P
	.XMM
	include listing.inc
	.model	flat

INCLUDELIB MSVCRTD
INCLUDELIB OLDNAMES

PUBLIC	?overload_task_destroy_functions@@YGXXZ		; overload_task_destroy_functions
PUBLIC	?__LINE__Var@?0??destroy_local@@YGXPAUENTITY@@@Z@4JA ; `destroy_local'::`1'::__LINE__Var
PUBLIC	??_C@_0CF@LKDAGMIA@TS_DSTRY?5?3?5destroying?5player?5ta@ ; `string'
PUBLIC	??_C@_0EL@OIAMLGD@c?3?2users?2nhv90?2projects?2eech?2ap@ ; `string'
PUBLIC	??_C@_0BN@JEIFMPIH@?$CBraw?9?$DOguide_root?4first_child@ ; `string'
PUBLIC	??_C@_0CA@CADEMDDE@?$CBraw?9?$DOwaypoint_root?4first_child@ ; `string'
PUBLIC	?__LINE__Var@?0??destroy_server@@YGXPAUENTITY@@@Z@4JA ; `destroy_server'::`1'::__LINE__Var
PUBLIC	??_C@_0CC@BNNNEGEG@assert_client_server_remote_fn?5@ ; `string'
PUBLIC	??_C@_0CB@CFOCLFOK@assert_client_server_local_fn?5?$CI@ ; `string'
PUBLIC	?__LINE__Var@?0??destroy_client@@YGXPAUENTITY@@@Z@4JA ; `destroy_client'::`1'::__LINE__Var
PUBLIC	?__LINE__Var@?0??destroy_server_family@@YGXPAUENTITY@@@Z@4JA ; `destroy_server_family'::`1'::__LINE__Var
PUBLIC	?__LINE__Var@?0??kill_local@@YGXPAUENTITY@@@Z@4JA ; `kill_local'::`1'::__LINE__Var
PUBLIC	??_C@_0DL@FMMCLGGO@get_local_task_list_type?5?$CIen?$CJ?5?$CB@ ; `string'
PUBLIC	??_C@_0CJ@GKEKNI@raw?9?$DOtask_state?5?$CB?$DN?5TASK_STATE_U@ ; `string'
PUBLIC	??_C@_0CL@EMGIMDH@task_database?5?$FLraw?9?$DOsub_type?$FN?4p@ ; `string'
PUBLIC	??_C@_0CL@GMNJMPEL@task_database?5?$FLraw?9?$DOsub_type?$FN?4v@ ; `string'
PUBLIC	??_C@_0BI@JCAMLBEB@raw?9?$DOexpire_timer?5?$DO?50?40@ ; `string'
PUBLIC	??_C@_0BC@PODNONFH@ASSERT?5?$CFs?5?$CI?$CFs?3?$CFd?$CJ@ ; `string'
PUBLIC	?__LINE__Var@?0??kill_server@@YGXPAUENTITY@@@Z@4JA ; `kill_server'::`1'::__LINE__Var
PUBLIC	?__LINE__Var@?0??kill_client@@YGXPAUENTITY@@@Z@4JA ; `kill_client'::`1'::__LINE__Var
PUBLIC	__real@0000000000000000
EXTRN	?process_assert@@YGXPBD0H@Z:PROC		; process_assert
EXTRN	?debug_fatal@@YAXPBDZZ:PROC			; debug_fatal
EXTRN	?debug_log@@YAXPBDZZ:PROC			; debug_log
EXTRN	?free_mem@@YGXPAX@Z:PROC			; free_mem
EXTRN	?delete_local_entity_from_parents_child_list@@YGXPAUENTITY@@W4LIST_TYPES@@@Z:PROC ; delete_local_entity_from_parents_child_list
EXTRN	?unlink_local_entity_children@@YGXPAUENTITY@@W4LIST_TYPES@@@Z:PROC ; unlink_local_entity_children
EXTRN	?destroy_local_entity@@YGXPAUENTITY@@@Z:PROC	; destroy_local_entity
EXTRN	?destroy_local_entity_children@@YGXPAUENTITY@@W4LIST_TYPES@@@Z:PROC ; destroy_local_entity_children
EXTRN	?destroy_client_server_entity_children@@YGXPAUENTITY@@W4LIST_TYPES@@@Z:PROC ; destroy_client_server_entity_children
EXTRN	?transmit_entity_comms_message@@YAXW4ENTITY_COMMS_MESSAGES@@PAUENTITY@@ZZ:PROC ; transmit_entity_comms_message
EXTRN	?assert_client_server_local_fn@@YGHXZ:PROC	; assert_client_server_local_fn
EXTRN	?assert_client_server_remote_fn@@YGHXZ:PROC	; assert_client_server_remote_fn
EXTRN	?set_free_entity@@YGXPAUENTITY@@@Z:PROC		; set_free_entity
EXTRN	?get_local_task_list_type@@YG?AW4LIST_TYPES@@PAUENTITY@@@Z:PROC ; get_local_task_list_type
EXTRN	?get_completed_task_expire_time@@YGMXZ:PROC	; get_completed_task_expire_time
EXTRN	?notify_campaign_screen@@YGHW4CAMPAIGN_SCREEN_MESSAGES@@PAUENTITY@@@Z:PROC ; notify_campaign_screen
EXTRN	?null_entity_pointer_message@@3PBDB:DWORD	; null_entity_pointer_message
EXTRN	?system_comms_model@@3W4COMMS_MODEL_TYPES@@A:DWORD ; system_comms_model
EXTRN	?system_comms_data_flow@@3W4COMMS_DATA_FLOW_TYPES@@A:DWORD ; system_comms_data_flow
EXTRN	?fn_destroy_local_entity@@3PAP6GXPAUENTITY@@@ZA:BYTE ; fn_destroy_local_entity
EXTRN	?fn_destroy_client_server_entity@@3PAY01P6GXPAUENTITY@@@ZA:BYTE ; fn_destroy_client_server_entity
EXTRN	?fn_destroy_local_entity_family@@3PAP6GXPAUENTITY@@@ZA:BYTE ; fn_destroy_local_entity_family
EXTRN	?fn_destroy_client_server_entity_family@@3PAY01P6GXPAUENTITY@@@ZA:BYTE ; fn_destroy_client_server_entity_family
EXTRN	?fn_kill_local_entity@@3PAP6GXPAUENTITY@@@ZA:BYTE ; fn_kill_local_entity
EXTRN	?fn_kill_client_server_entity@@3PAY01P6GXPAUENTITY@@@ZA:BYTE ; fn_kill_client_server_entity
EXTRN	?overload_invalid_float_type_message@@3PBDB:DWORD ; overload_invalid_float_type_message
EXTRN	?fn_set_local_entity_float_value@@3PAY0KP@P6GXPAUENTITY@@W4FLOAT_TYPES@@M@ZA:BYTE ; fn_set_local_entity_float_value
EXTRN	?entities@@3PAUENTITY@@A:DWORD			; entities
EXTRN	?task_database@@3PAUTASK_DATA@@A:BYTE		; task_database
EXTRN	__fltused:DWORD
;	COMDAT __real@0000000000000000
CONST	SEGMENT
__real@0000000000000000 DQ 00000000000000000r	; 0
CONST	ENDS
;	COMDAT ?__LINE__Var@?0??kill_client@@YGXPAUENTITY@@@Z@4JA
_DATA	SEGMENT
?__LINE__Var@?0??kill_client@@YGXPAUENTITY@@@Z@4JA DD 01a0H ; `kill_client'::`1'::__LINE__Var
_DATA	ENDS
;	COMDAT ?__LINE__Var@?0??kill_server@@YGXPAUENTITY@@@Z@4JA
_DATA	SEGMENT
?__LINE__Var@?0??kill_server@@YGXPAUENTITY@@@Z@4JA DD 0189H ; `kill_server'::`1'::__LINE__Var
_DATA	ENDS
;	COMDAT ??_C@_0BC@PODNONFH@ASSERT?5?$CFs?5?$CI?$CFs?3?$CFd?$CJ@
CONST	SEGMENT
??_C@_0BC@PODNONFH@ASSERT?5?$CFs?5?$CI?$CFs?3?$CFd?$CJ@ DB 'ASSERT %s (%s'
	DB	':%d)', 00H					; `string'
CONST	ENDS
;	COMDAT ??_C@_0BI@JCAMLBEB@raw?9?$DOexpire_timer?5?$DO?50?40@
CONST	SEGMENT
??_C@_0BI@JCAMLBEB@raw?9?$DOexpire_timer?5?$DO?50?40@ DB 'raw->expire_tim'
	DB	'er > 0.0', 00H				; `string'
CONST	ENDS
;	COMDAT ??_C@_0CL@GMNJMPEL@task_database?5?$FLraw?9?$DOsub_type?$FN?4v@
CONST	SEGMENT
??_C@_0CL@GMNJMPEL@task_database?5?$FLraw?9?$DOsub_type?$FN?4v@ DB 'task_'
	DB	'database [raw->sub_type].visible_task', 00H	; `string'
CONST	ENDS
;	COMDAT ??_C@_0CL@EMGIMDH@task_database?5?$FLraw?9?$DOsub_type?$FN?4p@
CONST	SEGMENT
??_C@_0CL@EMGIMDH@task_database?5?$FLraw?9?$DOsub_type?$FN?4p@ DB 'task_d'
	DB	'atabase [raw->sub_type].primary_task', 00H	; `string'
CONST	ENDS
;	COMDAT ??_C@_0CJ@GKEKNI@raw?9?$DOtask_state?5?$CB?$DN?5TASK_STATE_U@
CONST	SEGMENT
??_C@_0CJ@GKEKNI@raw?9?$DOtask_state?5?$CB?$DN?5TASK_STATE_U@ DB 'raw->ta'
	DB	'sk_state != TASK_STATE_UNASSIGNED', 00H	; `string'
CONST	ENDS
;	COMDAT ??_C@_0DL@FMMCLGGO@get_local_task_list_type?5?$CIen?$CJ?5?$CB@
CONST	SEGMENT
??_C@_0DL@FMMCLGGO@get_local_task_list_type?5?$CIen?$CJ?5?$CB@ DB 'get_lo'
	DB	'cal_task_list_type (en) != LIST_TYPE_UNASSIGNED_TASK', 00H ; `string'
CONST	ENDS
;	COMDAT ?__LINE__Var@?0??kill_local@@YGXPAUENTITY@@@Z@4JA
_DATA	SEGMENT
?__LINE__Var@?0??kill_local@@YGXPAUENTITY@@@Z@4JA DD 0148H ; `kill_local'::`1'::__LINE__Var
_DATA	ENDS
;	COMDAT ?__LINE__Var@?0??destroy_server_family@@YGXPAUENTITY@@@Z@4JA
_DATA	SEGMENT
?__LINE__Var@?0??destroy_server_family@@YGXPAUENTITY@@@Z@4JA DD 012bH ; `destroy_server_family'::`1'::__LINE__Var
_DATA	ENDS
;	COMDAT ?__LINE__Var@?0??destroy_client@@YGXPAUENTITY@@@Z@4JA
_DATA	SEGMENT
?__LINE__Var@?0??destroy_client@@YGXPAUENTITY@@@Z@4JA DD 0105H ; `destroy_client'::`1'::__LINE__Var
_DATA	ENDS
;	COMDAT ??_C@_0CB@CFOCLFOK@assert_client_server_local_fn?5?$CI@
CONST	SEGMENT
??_C@_0CB@CFOCLFOK@assert_client_server_local_fn?5?$CI@ DB 'assert_client'
	DB	'_server_local_fn ()', 00H			; `string'
CONST	ENDS
;	COMDAT ??_C@_0CC@BNNNEGEG@assert_client_server_remote_fn?5@
CONST	SEGMENT
??_C@_0CC@BNNNEGEG@assert_client_server_remote_fn?5@ DB 'assert_client_se'
	DB	'rver_remote_fn ()', 00H			; `string'
CONST	ENDS
;	COMDAT ?__LINE__Var@?0??destroy_server@@YGXPAUENTITY@@@Z@4JA
_DATA	SEGMENT
?__LINE__Var@?0??destroy_server@@YGXPAUENTITY@@@Z@4JA DD 0eeH ; `destroy_server'::`1'::__LINE__Var
_DATA	ENDS
;	COMDAT ??_C@_0CA@CADEMDDE@?$CBraw?9?$DOwaypoint_root?4first_child@
CONST	SEGMENT
??_C@_0CA@CADEMDDE@?$CBraw?9?$DOwaypoint_root?4first_child@ DB '!raw->way'
	DB	'point_root.first_child', 00H		; `string'
CONST	ENDS
;	COMDAT ??_C@_0BN@JEIFMPIH@?$CBraw?9?$DOguide_root?4first_child@
CONST	SEGMENT
??_C@_0BN@JEIFMPIH@?$CBraw?9?$DOguide_root?4first_child@ DB '!raw->guide_'
	DB	'root.first_child', 00H			; `string'
CONST	ENDS
;	COMDAT ??_C@_0EL@OIAMLGD@c?3?2users?2nhv90?2projects?2eech?2ap@
CONST	SEGMENT
??_C@_0EL@OIAMLGD@c?3?2users?2nhv90?2projects?2eech?2ap@ DB 'c:\users\nhv'
	DB	'90\projects\eech\aphavoc\source\entity\special\task\ts_dstry.'
	DB	'c', 00H					; `string'
CONST	ENDS
;	COMDAT ??_C@_0CF@LKDAGMIA@TS_DSTRY?5?3?5destroying?5player?5ta@
CONST	SEGMENT
??_C@_0CF@LKDAGMIA@TS_DSTRY?5?3?5destroying?5player?5ta@ DB 'TS_DSTRY : d'
	DB	'estroying player task %d', 00H		; `string'
CONST	ENDS
;	COMDAT ?__LINE__Var@?0??destroy_local@@YGXPAUENTITY@@@Z@4JA
_DATA	SEGMENT
?__LINE__Var@?0??destroy_local@@YGXPAUENTITY@@@Z@4JA DD 050H ; `destroy_local'::`1'::__LINE__Var
_DATA	ENDS
; Function compile flags: /Odtp /ZI
; File c:\users\nhv90\projects\eech\aphavoc\source\entity\special\task\ts_dstry.c
;	COMDAT ?kill_client@@YGXPAUENTITY@@@Z
_TEXT	SEGMENT
tv84 = -68						; size = 4
_en$ = 8						; size = 4
?kill_client@@YGXPAUENTITY@@@Z PROC			; kill_client, COMDAT

; 416  : {

  00000	55		 push	 ebp
  00001	8b ec		 mov	 ebp, esp
  00003	83 ec 44	 sub	 esp, 68			; 00000044H
  00006	53		 push	 ebx
  00007	56		 push	 esi
  00008	57		 push	 edi

; 417  : 	if (get_comms_data_flow () == COMMS_DATA_FLOW_TX)

  00009	83 3d 00 00 00
	00 00		 cmp	 DWORD PTR ?system_comms_data_flow@@3W4COMMS_DATA_FLOW_TYPES@@A, 0 ; system_comms_data_flow
  00010	75 2c		 jne	 SHORT $LN2@kill_clien

; 418  : 	{
; 419  : 		validate_client_server_remote_fn ();

  00012	e8 00 00 00 00	 call	 ?assert_client_server_remote_fn@@YGHXZ ; assert_client_server_remote_fn
  00017	85 c0		 test	 eax, eax
  00019	75 18		 jne	 SHORT $LN4@kill_clien
  0001b	a1 00 00 00 00	 mov	 eax, DWORD PTR ?__LINE__Var@?0??kill_client@@YGXPAUENTITY@@@Z@4JA
  00020	83 c0 03	 add	 eax, 3
  00023	50		 push	 eax
  00024	68 00 00 00 00	 push	 OFFSET ??_C@_0EL@OIAMLGD@c?3?2users?2nhv90?2projects?2eech?2ap@
  00029	68 00 00 00 00	 push	 OFFSET ??_C@_0CC@BNNNEGEG@assert_client_server_remote_fn?5@
  0002e	e8 00 00 00 00	 call	 ?process_assert@@YGXPBD0H@Z ; process_assert
$LN4@kill_clien:

; 420  : 
; 421  : 		kill_remote (en);

  00033	8b 45 08	 mov	 eax, DWORD PTR _en$[ebp]
  00036	50		 push	 eax
  00037	e8 00 00 00 00	 call	 ?kill_remote@@YGXPAUENTITY@@@Z ; kill_remote

; 422  : 	}
; 423  : 	else

  0003c	eb 62		 jmp	 SHORT $LN1@kill_clien
$LN2@kill_clien:

; 424  : 	{
; 425  : 		validate_client_server_local_fn ();

  0003e	e8 00 00 00 00	 call	 ?assert_client_server_local_fn@@YGHXZ ; assert_client_server_local_fn
  00043	85 c0		 test	 eax, eax
  00045	75 18		 jne	 SHORT $LN5@kill_clien
  00047	a1 00 00 00 00	 mov	 eax, DWORD PTR ?__LINE__Var@?0??kill_client@@YGXPAUENTITY@@@Z@4JA
  0004c	83 c0 09	 add	 eax, 9
  0004f	50		 push	 eax
  00050	68 00 00 00 00	 push	 OFFSET ??_C@_0EL@OIAMLGD@c?3?2users?2nhv90?2projects?2eech?2ap@
  00055	68 00 00 00 00	 push	 OFFSET ??_C@_0CB@CFOCLFOK@assert_client_server_local_fn?5?$CI@
  0005a	e8 00 00 00 00	 call	 ?process_assert@@YGXPBD0H@Z ; process_assert
$LN5@kill_clien:

; 426  : 
; 427  : 		//
; 428  : 		// kill local using 'full' function
; 429  : 		//
; 430  : 
; 431  : 		kill_local_entity (en);

  0005f	83 7d 08 00	 cmp	 DWORD PTR _en$[ebp], 0
  00063	74 0a		 je	 SHORT $LN7@kill_clien
  00065	8b 45 08	 mov	 eax, DWORD PTR _en$[ebp]
  00068	8b 08		 mov	 ecx, DWORD PTR [eax]
  0006a	89 4d bc	 mov	 DWORD PTR tv84[ebp], ecx
  0006d	eb 21		 jmp	 SHORT $LN8@kill_clien
$LN7@kill_clien:
  0006f	8b 15 00 00 00
	00		 mov	 edx, DWORD PTR ?__LINE__Var@?0??kill_client@@YGXPAUENTITY@@@Z@4JA
  00075	83 c2 0f	 add	 edx, 15			; 0000000fH
  00078	52		 push	 edx
  00079	68 00 00 00 00	 push	 OFFSET ??_C@_0EL@OIAMLGD@c?3?2users?2nhv90?2projects?2eech?2ap@
  0007e	a1 00 00 00 00	 mov	 eax, DWORD PTR ?null_entity_pointer_message@@3PBDB ; null_entity_pointer_message
  00083	50		 push	 eax
  00084	e8 00 00 00 00	 call	 ?process_assert@@YGXPBD0H@Z ; process_assert
  00089	c7 45 bc 00 00
	00 00		 mov	 DWORD PTR tv84[ebp], 0
$LN8@kill_clien:
  00090	8b 4d 08	 mov	 ecx, DWORD PTR _en$[ebp]
  00093	51		 push	 ecx
  00094	8b 55 bc	 mov	 edx, DWORD PTR tv84[ebp]
  00097	8b 04 95 00 00
	00 00		 mov	 eax, DWORD PTR ?fn_kill_local_entity@@3PAP6GXPAUENTITY@@@ZA[edx*4]
  0009e	ff d0		 call	 eax
$LN1@kill_clien:

; 432  : 	}
; 433  : }

  000a0	5f		 pop	 edi
  000a1	5e		 pop	 esi
  000a2	5b		 pop	 ebx
  000a3	8b e5		 mov	 esp, ebp
  000a5	5d		 pop	 ebp
  000a6	c2 04 00	 ret	 4
?kill_client@@YGXPAUENTITY@@@Z ENDP			; kill_client
_TEXT	ENDS
; Function compile flags: /Odtp /ZI
; File c:\users\nhv90\projects\eech\aphavoc\source\entity\special\task\ts_dstry.c
;	COMDAT ?kill_server@@YGXPAUENTITY@@@Z
_TEXT	SEGMENT
tv83 = -68						; size = 4
_en$ = 8						; size = 4
?kill_server@@YGXPAUENTITY@@@Z PROC			; kill_server, COMDAT

; 393  : {

  00000	55		 push	 ebp
  00001	8b ec		 mov	 ebp, esp
  00003	83 ec 44	 sub	 esp, 68			; 00000044H
  00006	53		 push	 ebx
  00007	56		 push	 esi
  00008	57		 push	 edi

; 394  : 	//
; 395  : 	// kill remote entity first (keeping local entity valid)
; 396  : 	//
; 397  : 
; 398  : 	validate_client_server_remote_fn ();

  00009	e8 00 00 00 00	 call	 ?assert_client_server_remote_fn@@YGHXZ ; assert_client_server_remote_fn
  0000e	85 c0		 test	 eax, eax
  00010	75 18		 jne	 SHORT $LN2@kill_serve
  00012	a1 00 00 00 00	 mov	 eax, DWORD PTR ?__LINE__Var@?0??kill_server@@YGXPAUENTITY@@@Z@4JA
  00017	83 c0 05	 add	 eax, 5
  0001a	50		 push	 eax
  0001b	68 00 00 00 00	 push	 OFFSET ??_C@_0EL@OIAMLGD@c?3?2users?2nhv90?2projects?2eech?2ap@
  00020	68 00 00 00 00	 push	 OFFSET ??_C@_0CC@BNNNEGEG@assert_client_server_remote_fn?5@
  00025	e8 00 00 00 00	 call	 ?process_assert@@YGXPBD0H@Z ; process_assert
$LN2@kill_serve:

; 399  : 
; 400  : 	kill_remote (en);

  0002a	8b 45 08	 mov	 eax, DWORD PTR _en$[ebp]
  0002d	50		 push	 eax
  0002e	e8 00 00 00 00	 call	 ?kill_remote@@YGXPAUENTITY@@@Z ; kill_remote

; 401  : 
; 402  : 	validate_client_server_local_fn ();

  00033	e8 00 00 00 00	 call	 ?assert_client_server_local_fn@@YGHXZ ; assert_client_server_local_fn
  00038	85 c0		 test	 eax, eax
  0003a	75 18		 jne	 SHORT $LN3@kill_serve
  0003c	a1 00 00 00 00	 mov	 eax, DWORD PTR ?__LINE__Var@?0??kill_server@@YGXPAUENTITY@@@Z@4JA
  00041	83 c0 09	 add	 eax, 9
  00044	50		 push	 eax
  00045	68 00 00 00 00	 push	 OFFSET ??_C@_0EL@OIAMLGD@c?3?2users?2nhv90?2projects?2eech?2ap@
  0004a	68 00 00 00 00	 push	 OFFSET ??_C@_0CB@CFOCLFOK@assert_client_server_local_fn?5?$CI@
  0004f	e8 00 00 00 00	 call	 ?process_assert@@YGXPBD0H@Z ; process_assert
$LN3@kill_serve:

; 403  : 
; 404  : 	//
; 405  : 	// kill local using 'full' function
; 406  : 	//
; 407  : 
; 408  : 	kill_local_entity (en);

  00054	83 7d 08 00	 cmp	 DWORD PTR _en$[ebp], 0
  00058	74 0a		 je	 SHORT $LN5@kill_serve
  0005a	8b 45 08	 mov	 eax, DWORD PTR _en$[ebp]
  0005d	8b 08		 mov	 ecx, DWORD PTR [eax]
  0005f	89 4d bc	 mov	 DWORD PTR tv83[ebp], ecx
  00062	eb 21		 jmp	 SHORT $LN6@kill_serve
$LN5@kill_serve:
  00064	8b 15 00 00 00
	00		 mov	 edx, DWORD PTR ?__LINE__Var@?0??kill_server@@YGXPAUENTITY@@@Z@4JA
  0006a	83 c2 0f	 add	 edx, 15			; 0000000fH
  0006d	52		 push	 edx
  0006e	68 00 00 00 00	 push	 OFFSET ??_C@_0EL@OIAMLGD@c?3?2users?2nhv90?2projects?2eech?2ap@
  00073	a1 00 00 00 00	 mov	 eax, DWORD PTR ?null_entity_pointer_message@@3PBDB ; null_entity_pointer_message
  00078	50		 push	 eax
  00079	e8 00 00 00 00	 call	 ?process_assert@@YGXPBD0H@Z ; process_assert
  0007e	c7 45 bc 00 00
	00 00		 mov	 DWORD PTR tv83[ebp], 0
$LN6@kill_serve:
  00085	8b 4d 08	 mov	 ecx, DWORD PTR _en$[ebp]
  00088	51		 push	 ecx
  00089	8b 55 bc	 mov	 edx, DWORD PTR tv83[ebp]
  0008c	8b 04 95 00 00
	00 00		 mov	 eax, DWORD PTR ?fn_kill_local_entity@@3PAP6GXPAUENTITY@@@ZA[edx*4]
  00093	ff d0		 call	 eax

; 409  : }

  00095	5f		 pop	 edi
  00096	5e		 pop	 esi
  00097	5b		 pop	 ebx
  00098	8b e5		 mov	 esp, ebp
  0009a	5d		 pop	 ebp
  0009b	c2 04 00	 ret	 4
?kill_server@@YGXPAUENTITY@@@Z ENDP			; kill_server
_TEXT	ENDS
; Function compile flags: /Odtp /ZI
; File c:\users\nhv90\projects\eech\aphavoc\source\entity\special\task\ts_dstry.c
;	COMDAT ?kill_remote@@YGXPAUENTITY@@@Z
_TEXT	SEGMENT
_en$ = 8						; size = 4
?kill_remote@@YGXPAUENTITY@@@Z PROC			; kill_remote, COMDAT

; 378  : {

  00000	55		 push	 ebp
  00001	8b ec		 mov	 ebp, esp
  00003	83 ec 40	 sub	 esp, 64			; 00000040H
  00006	53		 push	 ebx
  00007	56		 push	 esi
  00008	57		 push	 edi

; 379  : 	#if DEBUG_MODULE
; 380  : 
; 381  : 	debug_log_entity_args (ENTITY_DEBUG_REMOTE, ENTITY_DEBUG_KILL, en);
; 382  : 
; 383  : 	#endif
; 384  : 
; 385  : 	transmit_entity_comms_message (ENTITY_COMMS_KILL, en);

  00009	8b 45 08	 mov	 eax, DWORD PTR _en$[ebp]
  0000c	50		 push	 eax
  0000d	6a 18		 push	 24			; 00000018H
  0000f	e8 00 00 00 00	 call	 ?transmit_entity_comms_message@@YAXW4ENTITY_COMMS_MESSAGES@@PAUENTITY@@ZZ ; transmit_entity_comms_message
  00014	83 c4 08	 add	 esp, 8

; 386  : }

  00017	5f		 pop	 edi
  00018	5e		 pop	 esi
  00019	5b		 pop	 ebx
  0001a	8b e5		 mov	 esp, ebp
  0001c	5d		 pop	 ebp
  0001d	c2 04 00	 ret	 4
?kill_remote@@YGXPAUENTITY@@@Z ENDP			; kill_remote
_TEXT	ENDS
; Function compile flags: /Odtp /ZI
; File c:\users\nhv90\projects\eech\aphavoc\source\entity\special\task\ts_dstry.c
;	COMDAT ?kill_local@@YGXPAUENTITY@@@Z
_TEXT	SEGMENT
tv198 = -80						; size = 4
tv154 = -76						; size = 4
tv146 = -72						; size = 4
_raw$ = -4						; size = 4
_en$ = 8						; size = 4
?kill_local@@YGXPAUENTITY@@@Z PROC			; kill_local, COMDAT

; 328  : {

  00000	55		 push	 ebp
  00001	8b ec		 mov	 ebp, esp
  00003	83 ec 50	 sub	 esp, 80			; 00000050H
  00006	53		 push	 ebx
  00007	56		 push	 esi
  00008	57		 push	 edi

; 329  : 	task
; 330  : 		*raw;
; 331  : 
; 332  : 	////////////////////////////////////////
; 333  : 	//
; 334  : 	// PRE-AMBLE
; 335  : 	//
; 336  : 	////////////////////////////////////////
; 337  : 
; 338  : 	#if DEBUG_MODULE
; 339  : 
; 340  : 	debug_log_entity_args (ENTITY_DEBUG_LOCAL, ENTITY_DEBUG_KILL, en);
; 341  : 
; 342  : 	#endif
; 343  : 
; 344  : 	raw = (task *) get_local_entity_data (en);

  00009	8b 45 08	 mov	 eax, DWORD PTR _en$[ebp]
  0000c	8b 48 04	 mov	 ecx, DWORD PTR [eax+4]
  0000f	89 4d fc	 mov	 DWORD PTR _raw$[ebp], ecx

; 345  : 
; 346  : 	ASSERT (get_local_task_list_type (en) != LIST_TYPE_UNASSIGNED_TASK);

  00012	8b 45 08	 mov	 eax, DWORD PTR _en$[ebp]
  00015	50		 push	 eax
  00016	e8 00 00 00 00	 call	 ?get_local_task_list_type@@YG?AW4LIST_TYPES@@PAUENTITY@@@Z ; get_local_task_list_type
  0001b	83 f8 28	 cmp	 eax, 40			; 00000028H
  0001e	75 18		 jne	 SHORT $LN2@kill_local
  00020	a1 00 00 00 00	 mov	 eax, DWORD PTR ?__LINE__Var@?0??kill_local@@YGXPAUENTITY@@@Z@4JA
  00025	83 c0 12	 add	 eax, 18			; 00000012H
  00028	50		 push	 eax
  00029	68 00 00 00 00	 push	 OFFSET ??_C@_0EL@OIAMLGD@c?3?2users?2nhv90?2projects?2eech?2ap@
  0002e	68 00 00 00 00	 push	 OFFSET ??_C@_0DL@FMMCLGGO@get_local_task_list_type?5?$CIen?$CJ?5?$CB@
  00033	e8 00 00 00 00	 call	 ?process_assert@@YGXPBD0H@Z ; process_assert
$LN2@kill_local:

; 347  : 
; 348  : 	ASSERT (raw->task_state != TASK_STATE_UNASSIGNED);

  00038	8b 45 fc	 mov	 eax, DWORD PTR _raw$[ebp]
  0003b	83 78 04 00	 cmp	 DWORD PTR [eax+4], 0
  0003f	75 18		 jne	 SHORT $LN3@kill_local
  00041	a1 00 00 00 00	 mov	 eax, DWORD PTR ?__LINE__Var@?0??kill_local@@YGXPAUENTITY@@@Z@4JA
  00046	83 c0 14	 add	 eax, 20			; 00000014H
  00049	50		 push	 eax
  0004a	68 00 00 00 00	 push	 OFFSET ??_C@_0EL@OIAMLGD@c?3?2users?2nhv90?2projects?2eech?2ap@
  0004f	68 00 00 00 00	 push	 OFFSET ??_C@_0CJ@GKEKNI@raw?9?$DOtask_state?5?$CB?$DN?5TASK_STATE_U@
  00054	e8 00 00 00 00	 call	 ?process_assert@@YGXPBD0H@Z ; process_assert
$LN3@kill_local:

; 349  : 
; 350  : 	ASSERT (task_database [raw->sub_type].primary_task);

  00059	8b 45 fc	 mov	 eax, DWORD PTR _raw$[ebp]
  0005c	6b 08 50	 imul	 ecx, DWORD PTR [eax], 80
  0005f	8b 91 28 00 00
	00		 mov	 edx, DWORD PTR ?task_database@@3PAUTASK_DATA@@A[ecx+40]
  00065	d1 ea		 shr	 edx, 1
  00067	83 e2 01	 and	 edx, 1
  0006a	75 18		 jne	 SHORT $LN4@kill_local
  0006c	a1 00 00 00 00	 mov	 eax, DWORD PTR ?__LINE__Var@?0??kill_local@@YGXPAUENTITY@@@Z@4JA
  00071	83 c0 16	 add	 eax, 22			; 00000016H
  00074	50		 push	 eax
  00075	68 00 00 00 00	 push	 OFFSET ??_C@_0EL@OIAMLGD@c?3?2users?2nhv90?2projects?2eech?2ap@
  0007a	68 00 00 00 00	 push	 OFFSET ??_C@_0CL@EMGIMDH@task_database?5?$FLraw?9?$DOsub_type?$FN?4p@
  0007f	e8 00 00 00 00	 call	 ?process_assert@@YGXPBD0H@Z ; process_assert
$LN4@kill_local:

; 351  : 	
; 352  : 	ASSERT (task_database [raw->sub_type].visible_task);

  00084	8b 45 fc	 mov	 eax, DWORD PTR _raw$[ebp]
  00087	6b 08 50	 imul	 ecx, DWORD PTR [eax], 80
  0008a	8b 91 28 00 00
	00		 mov	 edx, DWORD PTR ?task_database@@3PAUTASK_DATA@@A[ecx+40]
  00090	c1 ea 04	 shr	 edx, 4
  00093	83 e2 01	 and	 edx, 1
  00096	75 18		 jne	 SHORT $LN5@kill_local
  00098	a1 00 00 00 00	 mov	 eax, DWORD PTR ?__LINE__Var@?0??kill_local@@YGXPAUENTITY@@@Z@4JA
  0009d	83 c0 18	 add	 eax, 24			; 00000018H
  000a0	50		 push	 eax
  000a1	68 00 00 00 00	 push	 OFFSET ??_C@_0EL@OIAMLGD@c?3?2users?2nhv90?2projects?2eech?2ap@
  000a6	68 00 00 00 00	 push	 OFFSET ??_C@_0CL@GMNJMPEL@task_database?5?$FLraw?9?$DOsub_type?$FN?4v@
  000ab	e8 00 00 00 00	 call	 ?process_assert@@YGXPBD0H@Z ; process_assert
$LN5@kill_local:

; 353  : 	
; 354  : 	// task_dependent_root
; 355  : 
; 356  : 	delete_local_entity_from_parents_child_list (en, LIST_TYPE_PILOT_LOCK);

  000b0	6a 1d		 push	 29			; 0000001dH
  000b2	8b 45 08	 mov	 eax, DWORD PTR _en$[ebp]
  000b5	50		 push	 eax
  000b6	e8 00 00 00 00	 call	 ?delete_local_entity_from_parents_child_list@@YGXPAUENTITY@@W4LIST_TYPES@@@Z ; delete_local_entity_from_parents_child_list

; 357  : 
; 358  : 	delete_local_entity_from_parents_child_list (en, LIST_TYPE_SECTOR_TASK);

  000bb	6a 22		 push	 34			; 00000022H
  000bd	8b 45 08	 mov	 eax, DWORD PTR _en$[ebp]
  000c0	50		 push	 eax
  000c1	e8 00 00 00 00	 call	 ?delete_local_entity_from_parents_child_list@@YGXPAUENTITY@@W4LIST_TYPES@@@Z ; delete_local_entity_from_parents_child_list

; 359  : 
; 360  : 	delete_local_entity_from_parents_child_list (en, LIST_TYPE_TASK_DEPENDENT);

  000c6	6a 27		 push	 39			; 00000027H
  000c8	8b 45 08	 mov	 eax, DWORD PTR _en$[ebp]
  000cb	50		 push	 eax
  000cc	e8 00 00 00 00	 call	 ?delete_local_entity_from_parents_child_list@@YGXPAUENTITY@@W4LIST_TYPES@@@Z ; delete_local_entity_from_parents_child_list

; 361  : 
; 362  : 	destroy_local_entity_children (en, LIST_TYPE_GUIDE);

  000d1	6a 10		 push	 16			; 00000010H
  000d3	8b 45 08	 mov	 eax, DWORD PTR _en$[ebp]
  000d6	50		 push	 eax
  000d7	e8 00 00 00 00	 call	 ?destroy_local_entity_children@@YGXPAUENTITY@@W4LIST_TYPES@@@Z ; destroy_local_entity_children

; 363  : 
; 364  : 	//
; 365  : 	// Set EXPIRE timer so the the task will be DESTROYED after a certain time
; 366  : 	//
; 367  : 
; 368  : 	set_local_entity_float_value (en, FLOAT_TYPE_EXPIRE_TIMER, get_completed_task_expire_time ());

  000dc	83 7d 08 00	 cmp	 DWORD PTR _en$[ebp], 0
  000e0	74 0a		 je	 SHORT $LN8@kill_local
  000e2	8b 45 08	 mov	 eax, DWORD PTR _en$[ebp]
  000e5	8b 08		 mov	 ecx, DWORD PTR [eax]
  000e7	89 4d b8	 mov	 DWORD PTR tv146[ebp], ecx
  000ea	eb 21		 jmp	 SHORT $LN9@kill_local
$LN8@kill_local:
  000ec	8b 15 00 00 00
	00		 mov	 edx, DWORD PTR ?__LINE__Var@?0??kill_local@@YGXPAUENTITY@@@Z@4JA
  000f2	83 c2 28	 add	 edx, 40			; 00000028H
  000f5	52		 push	 edx
  000f6	68 00 00 00 00	 push	 OFFSET ??_C@_0EL@OIAMLGD@c?3?2users?2nhv90?2projects?2eech?2ap@
  000fb	a1 00 00 00 00	 mov	 eax, DWORD PTR ?null_entity_pointer_message@@3PBDB ; null_entity_pointer_message
  00100	50		 push	 eax
  00101	e8 00 00 00 00	 call	 ?process_assert@@YGXPBD0H@Z ; process_assert
  00106	c7 45 b8 00 00
	00 00		 mov	 DWORD PTR tv146[ebp], 0
$LN9@kill_local:
  0010d	b9 01 00 00 00	 mov	 ecx, 1
  00112	85 c9		 test	 ecx, ecx
  00114	74 09		 je	 SHORT $LN10@kill_local
  00116	c7 45 b4 25 00
	00 00		 mov	 DWORD PTR tv154[ebp], 37 ; 00000025H
  0011d	eb 21		 jmp	 SHORT $LN11@kill_local
$LN10@kill_local:
  0011f	8b 15 00 00 00
	00		 mov	 edx, DWORD PTR ?__LINE__Var@?0??kill_local@@YGXPAUENTITY@@@Z@4JA
  00125	83 c2 28	 add	 edx, 40			; 00000028H
  00128	52		 push	 edx
  00129	68 00 00 00 00	 push	 OFFSET ??_C@_0EL@OIAMLGD@c?3?2users?2nhv90?2projects?2eech?2ap@
  0012e	a1 00 00 00 00	 mov	 eax, DWORD PTR ?overload_invalid_float_type_message@@3PBDB ; overload_invalid_float_type_message
  00133	50		 push	 eax
  00134	e8 00 00 00 00	 call	 ?process_assert@@YGXPBD0H@Z ; process_assert
  00139	c7 45 b4 00 00
	00 00		 mov	 DWORD PTR tv154[ebp], 0
$LN11@kill_local:
  00140	e8 00 00 00 00	 call	 ?get_completed_task_expire_time@@YGMXZ ; get_completed_task_expire_time
  00145	d9 5d b0	 fstp	 DWORD PTR tv198[ebp]
  00148	f3 0f 10 45 b0	 movss	 xmm0, DWORD PTR tv198[ebp]
  0014d	51		 push	 ecx
  0014e	f3 0f 11 04 24	 movss	 DWORD PTR [esp], xmm0
  00153	6a 25		 push	 37			; 00000025H
  00155	8b 4d 08	 mov	 ecx, DWORD PTR _en$[ebp]
  00158	51		 push	 ecx
  00159	69 55 b8 bc 02
	00 00		 imul	 edx, DWORD PTR tv146[ebp], 700
  00160	8b 45 b4	 mov	 eax, DWORD PTR tv154[ebp]
  00163	8b 8c 82 00 00
	00 00		 mov	 ecx, DWORD PTR ?fn_set_local_entity_float_value@@3PAY0KP@P6GXPAUENTITY@@W4FLOAT_TYPES@@M@ZA[edx+eax*4]
  0016a	ff d1		 call	 ecx

; 369  : 
; 370  : 	debug_assert (raw->expire_timer > 0.0);

  0016c	8b 45 fc	 mov	 eax, DWORD PTR _raw$[ebp]
  0016f	f3 0f 5a 40 2c	 cvtss2sd xmm0, DWORD PTR [eax+44]
  00174	66 0f 2f 05 00
	00 00 00	 comisd	 xmm0, QWORD PTR __real@0000000000000000
  0017c	77 20		 ja	 SHORT $LN6@kill_local
  0017e	a1 00 00 00 00	 mov	 eax, DWORD PTR ?__LINE__Var@?0??kill_local@@YGXPAUENTITY@@@Z@4JA
  00183	83 c0 2a	 add	 eax, 42			; 0000002aH
  00186	50		 push	 eax
  00187	68 00 00 00 00	 push	 OFFSET ??_C@_0EL@OIAMLGD@c?3?2users?2nhv90?2projects?2eech?2ap@
  0018c	68 00 00 00 00	 push	 OFFSET ??_C@_0BI@JCAMLBEB@raw?9?$DOexpire_timer?5?$DO?50?40@
  00191	68 00 00 00 00	 push	 OFFSET ??_C@_0BC@PODNONFH@ASSERT?5?$CFs?5?$CI?$CFs?3?$CFd?$CJ@
  00196	e8 00 00 00 00	 call	 ?debug_fatal@@YAXPBDZZ	; debug_fatal
  0019b	83 c4 10	 add	 esp, 16			; 00000010H
$LN6@kill_local:

; 371  : }

  0019e	5f		 pop	 edi
  0019f	5e		 pop	 esi
  001a0	5b		 pop	 ebx
  001a1	8b e5		 mov	 esp, ebp
  001a3	5d		 pop	 ebp
  001a4	c2 04 00	 ret	 4
?kill_local@@YGXPAUENTITY@@@Z ENDP			; kill_local
_TEXT	ENDS
; Function compile flags: /Odtp /ZI
; File c:\users\nhv90\projects\eech\aphavoc\source\entity\special\task\ts_dstry.c
;	COMDAT ?destroy_client_family@@YGXPAUENTITY@@@Z
_TEXT	SEGMENT
_en$ = 8						; size = 4
?destroy_client_family@@YGXPAUENTITY@@@Z PROC		; destroy_client_family, COMDAT

; 313  : {

  00000	55		 push	 ebp
  00001	8b ec		 mov	 ebp, esp
  00003	83 ec 40	 sub	 esp, 64			; 00000040H
  00006	53		 push	 ebx
  00007	56		 push	 esi
  00008	57		 push	 edi

; 314  : 	#if DEBUG_MODULE
; 315  : 
; 316  : 	debug_log_entity_args (ENTITY_DEBUG_REMOTE, ENTITY_DEBUG_DESTROY_FAMILY, en);
; 317  : 
; 318  : 	#endif
; 319  : 
; 320  : 	transmit_entity_comms_message (ENTITY_COMMS_DESTROY_FAMILY, en);

  00009	8b 45 08	 mov	 eax, DWORD PTR _en$[ebp]
  0000c	50		 push	 eax
  0000d	6a 13		 push	 19			; 00000013H
  0000f	e8 00 00 00 00	 call	 ?transmit_entity_comms_message@@YAXW4ENTITY_COMMS_MESSAGES@@PAUENTITY@@ZZ ; transmit_entity_comms_message
  00014	83 c4 08	 add	 esp, 8

; 321  : }

  00017	5f		 pop	 edi
  00018	5e		 pop	 esi
  00019	5b		 pop	 ebx
  0001a	8b e5		 mov	 esp, ebp
  0001c	5d		 pop	 ebp
  0001d	c2 04 00	 ret	 4
?destroy_client_family@@YGXPAUENTITY@@@Z ENDP		; destroy_client_family
_TEXT	ENDS
; Function compile flags: /Odtp /ZI
; File c:\users\nhv90\projects\eech\aphavoc\source\entity\special\task\ts_dstry.c
;	COMDAT ?destroy_server_family@@YGXPAUENTITY@@@Z
_TEXT	SEGMENT
tv74 = -68						; size = 4
_en$ = 8						; size = 4
?destroy_server_family@@YGXPAUENTITY@@@Z PROC		; destroy_server_family, COMDAT

; 299  : {

  00000	55		 push	 ebp
  00001	8b ec		 mov	 ebp, esp
  00003	83 ec 44	 sub	 esp, 68			; 00000044H
  00006	53		 push	 ebx
  00007	56		 push	 esi
  00008	57		 push	 edi

; 300  : 
; 301  : 	destroy_client_server_entity_children (en, LIST_TYPE_GUIDE);

  00009	6a 10		 push	 16			; 00000010H
  0000b	8b 45 08	 mov	 eax, DWORD PTR _en$[ebp]
  0000e	50		 push	 eax
  0000f	e8 00 00 00 00	 call	 ?destroy_client_server_entity_children@@YGXPAUENTITY@@W4LIST_TYPES@@@Z ; destroy_client_server_entity_children

; 302  : 
; 303  : 	destroy_client_server_entity_children (en, LIST_TYPE_WAYPOINT);

  00014	6a 2c		 push	 44			; 0000002cH
  00016	8b 45 08	 mov	 eax, DWORD PTR _en$[ebp]
  00019	50		 push	 eax
  0001a	e8 00 00 00 00	 call	 ?destroy_client_server_entity_children@@YGXPAUENTITY@@W4LIST_TYPES@@@Z ; destroy_client_server_entity_children

; 304  : 
; 305  : 	destroy_client_server_entity (en);

  0001f	83 7d 08 00	 cmp	 DWORD PTR _en$[ebp], 0
  00023	74 0a		 je	 SHORT $LN3@destroy_se
  00025	8b 45 08	 mov	 eax, DWORD PTR _en$[ebp]
  00028	8b 08		 mov	 ecx, DWORD PTR [eax]
  0002a	89 4d bc	 mov	 DWORD PTR tv74[ebp], ecx
  0002d	eb 21		 jmp	 SHORT $LN4@destroy_se
$LN3@destroy_se:
  0002f	8b 15 00 00 00
	00		 mov	 edx, DWORD PTR ?__LINE__Var@?0??destroy_server_family@@YGXPAUENTITY@@@Z@4JA
  00035	83 c2 06	 add	 edx, 6
  00038	52		 push	 edx
  00039	68 00 00 00 00	 push	 OFFSET ??_C@_0EL@OIAMLGD@c?3?2users?2nhv90?2projects?2eech?2ap@
  0003e	a1 00 00 00 00	 mov	 eax, DWORD PTR ?null_entity_pointer_message@@3PBDB ; null_entity_pointer_message
  00043	50		 push	 eax
  00044	e8 00 00 00 00	 call	 ?process_assert@@YGXPBD0H@Z ; process_assert
  00049	c7 45 bc 00 00
	00 00		 mov	 DWORD PTR tv74[ebp], 0
$LN4@destroy_se:
  00050	8b 4d 08	 mov	 ecx, DWORD PTR _en$[ebp]
  00053	51		 push	 ecx
  00054	8b 15 00 00 00
	00		 mov	 edx, DWORD PTR ?system_comms_model@@3W4COMMS_MODEL_TYPES@@A ; system_comms_model
  0005a	c1 e2 02	 shl	 edx, 2
  0005d	8b 45 bc	 mov	 eax, DWORD PTR tv74[ebp]
  00060	8b 8c c2 00 00
	00 00		 mov	 ecx, DWORD PTR ?fn_destroy_client_server_entity@@3PAY01P6GXPAUENTITY@@@ZA[edx+eax*8]
  00067	ff d1		 call	 ecx

; 306  : }

  00069	5f		 pop	 edi
  0006a	5e		 pop	 esi
  0006b	5b		 pop	 ebx
  0006c	8b e5		 mov	 esp, ebp
  0006e	5d		 pop	 ebp
  0006f	c2 04 00	 ret	 4
?destroy_server_family@@YGXPAUENTITY@@@Z ENDP		; destroy_server_family
_TEXT	ENDS
; Function compile flags: /Odtp /ZI
; File c:\users\nhv90\projects\eech\aphavoc\source\entity\special\task\ts_dstry.c
;	COMDAT ?destroy_local_family@@YGXPAUENTITY@@@Z
_TEXT	SEGMENT
_en$ = 8						; size = 4
?destroy_local_family@@YGXPAUENTITY@@@Z PROC		; destroy_local_family, COMDAT

; 285  : {

  00000	55		 push	 ebp
  00001	8b ec		 mov	 ebp, esp
  00003	83 ec 40	 sub	 esp, 64			; 00000040H
  00006	53		 push	 ebx
  00007	56		 push	 esi
  00008	57		 push	 edi

; 286  : 
; 287  : 	destroy_local_entity_children (en, LIST_TYPE_GUIDE);

  00009	6a 10		 push	 16			; 00000010H
  0000b	8b 45 08	 mov	 eax, DWORD PTR _en$[ebp]
  0000e	50		 push	 eax
  0000f	e8 00 00 00 00	 call	 ?destroy_local_entity_children@@YGXPAUENTITY@@W4LIST_TYPES@@@Z ; destroy_local_entity_children

; 288  : 
; 289  : 	destroy_local_entity_children (en, LIST_TYPE_WAYPOINT);

  00014	6a 2c		 push	 44			; 0000002cH
  00016	8b 45 08	 mov	 eax, DWORD PTR _en$[ebp]
  00019	50		 push	 eax
  0001a	e8 00 00 00 00	 call	 ?destroy_local_entity_children@@YGXPAUENTITY@@W4LIST_TYPES@@@Z ; destroy_local_entity_children

; 290  : 
; 291  : 	destroy_local_entity (en);

  0001f	8b 45 08	 mov	 eax, DWORD PTR _en$[ebp]
  00022	50		 push	 eax
  00023	e8 00 00 00 00	 call	 ?destroy_local_entity@@YGXPAUENTITY@@@Z ; destroy_local_entity

; 292  : }

  00028	5f		 pop	 edi
  00029	5e		 pop	 esi
  0002a	5b		 pop	 ebx
  0002b	8b e5		 mov	 esp, ebp
  0002d	5d		 pop	 ebp
  0002e	c2 04 00	 ret	 4
?destroy_local_family@@YGXPAUENTITY@@@Z ENDP		; destroy_local_family
_TEXT	ENDS
; Function compile flags: /Odtp /ZI
; File c:\users\nhv90\projects\eech\aphavoc\source\entity\special\task\ts_dstry.c
;	COMDAT ?destroy_client@@YGXPAUENTITY@@@Z
_TEXT	SEGMENT
_en$ = 8						; size = 4
?destroy_client@@YGXPAUENTITY@@@Z PROC			; destroy_client, COMDAT

; 261  : {

  00000	55		 push	 ebp
  00001	8b ec		 mov	 ebp, esp
  00003	83 ec 40	 sub	 esp, 64			; 00000040H
  00006	53		 push	 ebx
  00007	56		 push	 esi
  00008	57		 push	 edi

; 262  : 	if (get_comms_data_flow () == COMMS_DATA_FLOW_TX)

  00009	83 3d 00 00 00
	00 00		 cmp	 DWORD PTR ?system_comms_data_flow@@3W4COMMS_DATA_FLOW_TYPES@@A, 0 ; system_comms_data_flow
  00010	75 2c		 jne	 SHORT $LN2@destroy_cl

; 263  : 	{
; 264  : 		validate_client_server_remote_fn ();

  00012	e8 00 00 00 00	 call	 ?assert_client_server_remote_fn@@YGHXZ ; assert_client_server_remote_fn
  00017	85 c0		 test	 eax, eax
  00019	75 18		 jne	 SHORT $LN4@destroy_cl
  0001b	a1 00 00 00 00	 mov	 eax, DWORD PTR ?__LINE__Var@?0??destroy_client@@YGXPAUENTITY@@@Z@4JA
  00020	83 c0 03	 add	 eax, 3
  00023	50		 push	 eax
  00024	68 00 00 00 00	 push	 OFFSET ??_C@_0EL@OIAMLGD@c?3?2users?2nhv90?2projects?2eech?2ap@
  00029	68 00 00 00 00	 push	 OFFSET ??_C@_0CC@BNNNEGEG@assert_client_server_remote_fn?5@
  0002e	e8 00 00 00 00	 call	 ?process_assert@@YGXPBD0H@Z ; process_assert
$LN4@destroy_cl:

; 265  : 
; 266  : 		destroy_remote (en);

  00033	8b 45 08	 mov	 eax, DWORD PTR _en$[ebp]
  00036	50		 push	 eax
  00037	e8 00 00 00 00	 call	 ?destroy_remote@@YGXPAUENTITY@@@Z ; destroy_remote

; 267  : 	}
; 268  : 	else

  0003c	eb 2a		 jmp	 SHORT $LN1@destroy_cl
$LN2@destroy_cl:

; 269  : 	{
; 270  : 		validate_client_server_local_fn ();

  0003e	e8 00 00 00 00	 call	 ?assert_client_server_local_fn@@YGHXZ ; assert_client_server_local_fn
  00043	85 c0		 test	 eax, eax
  00045	75 18		 jne	 SHORT $LN5@destroy_cl
  00047	a1 00 00 00 00	 mov	 eax, DWORD PTR ?__LINE__Var@?0??destroy_client@@YGXPAUENTITY@@@Z@4JA
  0004c	83 c0 09	 add	 eax, 9
  0004f	50		 push	 eax
  00050	68 00 00 00 00	 push	 OFFSET ??_C@_0EL@OIAMLGD@c?3?2users?2nhv90?2projects?2eech?2ap@
  00055	68 00 00 00 00	 push	 OFFSET ??_C@_0CB@CFOCLFOK@assert_client_server_local_fn?5?$CI@
  0005a	e8 00 00 00 00	 call	 ?process_assert@@YGXPBD0H@Z ; process_assert
$LN5@destroy_cl:

; 271  : 
; 272  : 		//
; 273  : 		// destroy local using 'full' function
; 274  : 		//
; 275  : 
; 276  : 		destroy_local_entity (en);

  0005f	8b 45 08	 mov	 eax, DWORD PTR _en$[ebp]
  00062	50		 push	 eax
  00063	e8 00 00 00 00	 call	 ?destroy_local_entity@@YGXPAUENTITY@@@Z ; destroy_local_entity
$LN1@destroy_cl:

; 277  : 	}
; 278  : }

  00068	5f		 pop	 edi
  00069	5e		 pop	 esi
  0006a	5b		 pop	 ebx
  0006b	8b e5		 mov	 esp, ebp
  0006d	5d		 pop	 ebp
  0006e	c2 04 00	 ret	 4
?destroy_client@@YGXPAUENTITY@@@Z ENDP			; destroy_client
_TEXT	ENDS
; Function compile flags: /Odtp /ZI
; File c:\users\nhv90\projects\eech\aphavoc\source\entity\special\task\ts_dstry.c
;	COMDAT ?destroy_server@@YGXPAUENTITY@@@Z
_TEXT	SEGMENT
_en$ = 8						; size = 4
?destroy_server@@YGXPAUENTITY@@@Z PROC			; destroy_server, COMDAT

; 238  : {

  00000	55		 push	 ebp
  00001	8b ec		 mov	 ebp, esp
  00003	83 ec 40	 sub	 esp, 64			; 00000040H
  00006	53		 push	 ebx
  00007	56		 push	 esi
  00008	57		 push	 edi

; 239  : 	//
; 240  : 	// destroy remote entity first (keeping local entity valid)
; 241  : 	//
; 242  : 
; 243  : 	validate_client_server_remote_fn ();

  00009	e8 00 00 00 00	 call	 ?assert_client_server_remote_fn@@YGHXZ ; assert_client_server_remote_fn
  0000e	85 c0		 test	 eax, eax
  00010	75 18		 jne	 SHORT $LN2@destroy_se
  00012	a1 00 00 00 00	 mov	 eax, DWORD PTR ?__LINE__Var@?0??destroy_server@@YGXPAUENTITY@@@Z@4JA
  00017	83 c0 05	 add	 eax, 5
  0001a	50		 push	 eax
  0001b	68 00 00 00 00	 push	 OFFSET ??_C@_0EL@OIAMLGD@c?3?2users?2nhv90?2projects?2eech?2ap@
  00020	68 00 00 00 00	 push	 OFFSET ??_C@_0CC@BNNNEGEG@assert_client_server_remote_fn?5@
  00025	e8 00 00 00 00	 call	 ?process_assert@@YGXPBD0H@Z ; process_assert
$LN2@destroy_se:

; 244  : 
; 245  : 	destroy_remote (en);

  0002a	8b 45 08	 mov	 eax, DWORD PTR _en$[ebp]
  0002d	50		 push	 eax
  0002e	e8 00 00 00 00	 call	 ?destroy_remote@@YGXPAUENTITY@@@Z ; destroy_remote

; 246  : 
; 247  : 	validate_client_server_local_fn ();

  00033	e8 00 00 00 00	 call	 ?assert_client_server_local_fn@@YGHXZ ; assert_client_server_local_fn
  00038	85 c0		 test	 eax, eax
  0003a	75 18		 jne	 SHORT $LN3@destroy_se
  0003c	a1 00 00 00 00	 mov	 eax, DWORD PTR ?__LINE__Var@?0??destroy_server@@YGXPAUENTITY@@@Z@4JA
  00041	83 c0 09	 add	 eax, 9
  00044	50		 push	 eax
  00045	68 00 00 00 00	 push	 OFFSET ??_C@_0EL@OIAMLGD@c?3?2users?2nhv90?2projects?2eech?2ap@
  0004a	68 00 00 00 00	 push	 OFFSET ??_C@_0CB@CFOCLFOK@assert_client_server_local_fn?5?$CI@
  0004f	e8 00 00 00 00	 call	 ?process_assert@@YGXPBD0H@Z ; process_assert
$LN3@destroy_se:

; 248  : 
; 249  : 	//
; 250  : 	// destroy local using 'full' function
; 251  : 	//
; 252  : 
; 253  : 	destroy_local_entity (en);

  00054	8b 45 08	 mov	 eax, DWORD PTR _en$[ebp]
  00057	50		 push	 eax
  00058	e8 00 00 00 00	 call	 ?destroy_local_entity@@YGXPAUENTITY@@@Z ; destroy_local_entity

; 254  : }

  0005d	5f		 pop	 edi
  0005e	5e		 pop	 esi
  0005f	5b		 pop	 ebx
  00060	8b e5		 mov	 esp, ebp
  00062	5d		 pop	 ebp
  00063	c2 04 00	 ret	 4
?destroy_server@@YGXPAUENTITY@@@Z ENDP			; destroy_server
_TEXT	ENDS
; Function compile flags: /Odtp /ZI
; File c:\users\nhv90\projects\eech\aphavoc\source\entity\special\task\ts_dstry.c
;	COMDAT ?destroy_remote@@YGXPAUENTITY@@@Z
_TEXT	SEGMENT
_en$ = 8						; size = 4
?destroy_remote@@YGXPAUENTITY@@@Z PROC			; destroy_remote, COMDAT

; 223  : {

  00000	55		 push	 ebp
  00001	8b ec		 mov	 ebp, esp
  00003	83 ec 40	 sub	 esp, 64			; 00000040H
  00006	53		 push	 ebx
  00007	56		 push	 esi
  00008	57		 push	 edi

; 224  : 	#if DEBUG_MODULE
; 225  : 
; 226  : 	debug_log_entity_args (ENTITY_DEBUG_REMOTE, ENTITY_DEBUG_DESTROY, en);
; 227  : 
; 228  : 	#endif
; 229  : 
; 230  : 	transmit_entity_comms_message (ENTITY_COMMS_DESTROY, en);

  00009	8b 45 08	 mov	 eax, DWORD PTR _en$[ebp]
  0000c	50		 push	 eax
  0000d	6a 12		 push	 18			; 00000012H
  0000f	e8 00 00 00 00	 call	 ?transmit_entity_comms_message@@YAXW4ENTITY_COMMS_MESSAGES@@PAUENTITY@@ZZ ; transmit_entity_comms_message
  00014	83 c4 08	 add	 esp, 8

; 231  : }

  00017	5f		 pop	 edi
  00018	5e		 pop	 esi
  00019	5b		 pop	 ebx
  0001a	8b e5		 mov	 esp, ebp
  0001c	5d		 pop	 ebp
  0001d	c2 04 00	 ret	 4
?destroy_remote@@YGXPAUENTITY@@@Z ENDP			; destroy_remote
_TEXT	ENDS
; Function compile flags: /Odtp /ZI
; File c:\users\nhv90\projects\eech\aphavoc\source\entity\special\task\ts_dstry.c
;	COMDAT ?destroy_local@@YGXPAUENTITY@@@Z
_TEXT	SEGMENT
tv72 = -80						; size = 4
_raw$ = -12						; size = 4
_kill$ = -8						; size = 4
_destroy_kill$ = -4					; size = 4
_en$ = 8						; size = 4
?destroy_local@@YGXPAUENTITY@@@Z PROC			; destroy_local, COMDAT

; 80   : {

  00000	55		 push	 ebp
  00001	8b ec		 mov	 ebp, esp
  00003	83 ec 50	 sub	 esp, 80			; 00000050H
  00006	53		 push	 ebx
  00007	56		 push	 esi
  00008	57		 push	 edi

; 81   : 
; 82   : 	task_kill_loss_data
; 83   : 		*destroy_kill,
; 84   : 		*kill;
; 85   : 
; 86   : 	task
; 87   : 		*raw;
; 88   : 
; 89   : 	////////////////////////////////////////
; 90   : 	//
; 91   : 	// PRE-AMBLE
; 92   : 	//
; 93   : 	////////////////////////////////////////
; 94   : 
; 95   : 	#if DEBUG_MODULE
; 96   : 
; 97   : 	debug_log_entity_args (ENTITY_DEBUG_LOCAL, ENTITY_DEBUG_DESTROY, en);
; 98   : 
; 99   : 	#endif
; 100  : 
; 101  : 	raw = (task *) get_local_entity_data (en);

  00009	8b 45 08	 mov	 eax, DWORD PTR _en$[ebp]
  0000c	8b 48 04	 mov	 ecx, DWORD PTR [eax+4]
  0000f	89 4d f4	 mov	 DWORD PTR _raw$[ebp], ecx

; 102  : 
; 103  : 	if (raw->player_task)

  00012	8b 45 f4	 mov	 eax, DWORD PTR _raw$[ebp]
  00015	8b 88 a0 00 00
	00		 mov	 ecx, DWORD PTR [eax+160]
  0001b	c1 e9 16	 shr	 ecx, 22			; 00000016H
  0001e	83 e1 01	 and	 ecx, 1
  00021	74 2f		 je	 SHORT $LN6@destroy_lo

; 104  : 	{
; 105  : 		debug_log ("TS_DSTRY : destroying player task %d", get_local_entity_safe_index (en));

  00023	83 7d 08 00	 cmp	 DWORD PTR _en$[ebp], 0
  00027	74 11		 je	 SHORT $LN15@destroy_lo
  00029	8b 45 08	 mov	 eax, DWORD PTR _en$[ebp]
  0002c	2b 05 00 00 00
	00		 sub	 eax, DWORD PTR ?entities@@3PAUENTITY@@A ; entities
  00032	c1 f8 04	 sar	 eax, 4
  00035	89 45 b0	 mov	 DWORD PTR tv72[ebp], eax
  00038	eb 07		 jmp	 SHORT $LN16@destroy_lo
$LN15@destroy_lo:
  0003a	c7 45 b0 ff ff
	ff ff		 mov	 DWORD PTR tv72[ebp], -1
$LN16@destroy_lo:
  00041	8b 4d b0	 mov	 ecx, DWORD PTR tv72[ebp]
  00044	51		 push	 ecx
  00045	68 00 00 00 00	 push	 OFFSET ??_C@_0CF@LKDAGMIA@TS_DSTRY?5?3?5destroying?5player?5ta@
  0004a	e8 00 00 00 00	 call	 ?debug_log@@YAXPBDZZ	; debug_log
  0004f	83 c4 08	 add	 esp, 8
$LN6@destroy_lo:

; 106  : 	}
; 107  : 
; 108  : 	////////////////////////////////////////
; 109  : 	//
; 110  : 	// VALIDATE
; 111  : 	//
; 112  : 	////////////////////////////////////////
; 113  : 
; 114  : 	ASSERT (!raw->guide_root.first_child);

  00052	8b 45 f4	 mov	 eax, DWORD PTR _raw$[ebp]
  00055	83 78 40 00	 cmp	 DWORD PTR [eax+64], 0
  00059	74 18		 je	 SHORT $LN7@destroy_lo
  0005b	a1 00 00 00 00	 mov	 eax, DWORD PTR ?__LINE__Var@?0??destroy_local@@YGXPAUENTITY@@@Z@4JA
  00060	83 c0 22	 add	 eax, 34			; 00000022H
  00063	50		 push	 eax
  00064	68 00 00 00 00	 push	 OFFSET ??_C@_0EL@OIAMLGD@c?3?2users?2nhv90?2projects?2eech?2ap@
  00069	68 00 00 00 00	 push	 OFFSET ??_C@_0BN@JEIFMPIH@?$CBraw?9?$DOguide_root?4first_child@
  0006e	e8 00 00 00 00	 call	 ?process_assert@@YGXPBD0H@Z ; process_assert
$LN7@destroy_lo:

; 115  : 
; 116  : 	ASSERT (!raw->waypoint_root.first_child);

  00073	8b 45 f4	 mov	 eax, DWORD PTR _raw$[ebp]
  00076	83 78 4c 00	 cmp	 DWORD PTR [eax+76], 0
  0007a	74 18		 je	 SHORT $LN8@destroy_lo
  0007c	a1 00 00 00 00	 mov	 eax, DWORD PTR ?__LINE__Var@?0??destroy_local@@YGXPAUENTITY@@@Z@4JA
  00081	83 c0 24	 add	 eax, 36			; 00000024H
  00084	50		 push	 eax
  00085	68 00 00 00 00	 push	 OFFSET ??_C@_0EL@OIAMLGD@c?3?2users?2nhv90?2projects?2eech?2ap@
  0008a	68 00 00 00 00	 push	 OFFSET ??_C@_0CA@CADEMDDE@?$CBraw?9?$DOwaypoint_root?4first_child@
  0008f	e8 00 00 00 00	 call	 ?process_assert@@YGXPBD0H@Z ; process_assert
$LN8@destroy_lo:

; 117  : 
; 118  : 	////////////////////////////////////////
; 119  : 	//
; 120  : 	// DESTROY COMPONENTS
; 121  : 	//
; 122  : 	////////////////////////////////////////
; 123  : 
; 124  : 	////////////////////////////////////////
; 125  : 	//
; 126  : 	// UNLINK FROM SYSTEM
; 127  : 	//
; 128  : 	////////////////////////////////////////
; 129  : 
; 130  : 	// leave on task lists for destroy
; 131  : 
; 132  : 	unlink_local_entity_children (en, LIST_TYPE_PLAYER_TASK);

  00094	6a 1e		 push	 30			; 0000001eH
  00096	8b 45 08	 mov	 eax, DWORD PTR _en$[ebp]
  00099	50		 push	 eax
  0009a	e8 00 00 00 00	 call	 ?unlink_local_entity_children@@YGXPAUENTITY@@W4LIST_TYPES@@@Z ; unlink_local_entity_children

; 133  : 
; 134  : 	unlink_local_entity_children (en, LIST_TYPE_TASK_DEPENDENT);

  0009f	6a 27		 push	 39			; 00000027H
  000a1	8b 45 08	 mov	 eax, DWORD PTR _en$[ebp]
  000a4	50		 push	 eax
  000a5	e8 00 00 00 00	 call	 ?unlink_local_entity_children@@YGXPAUENTITY@@W4LIST_TYPES@@@Z ; unlink_local_entity_children

; 135  : 
; 136  : 	delete_local_entity_from_parents_child_list (en, get_local_task_list_type (en));

  000aa	8b 45 08	 mov	 eax, DWORD PTR _en$[ebp]
  000ad	50		 push	 eax
  000ae	e8 00 00 00 00	 call	 ?get_local_task_list_type@@YG?AW4LIST_TYPES@@PAUENTITY@@@Z ; get_local_task_list_type
  000b3	50		 push	 eax
  000b4	8b 4d 08	 mov	 ecx, DWORD PTR _en$[ebp]
  000b7	51		 push	 ecx
  000b8	e8 00 00 00 00	 call	 ?delete_local_entity_from_parents_child_list@@YGXPAUENTITY@@W4LIST_TYPES@@@Z ; delete_local_entity_from_parents_child_list

; 137  : 
; 138  : 	delete_local_entity_from_parents_child_list (en, LIST_TYPE_PILOT_LOCK);

  000bd	6a 1d		 push	 29			; 0000001dH
  000bf	8b 45 08	 mov	 eax, DWORD PTR _en$[ebp]
  000c2	50		 push	 eax
  000c3	e8 00 00 00 00	 call	 ?delete_local_entity_from_parents_child_list@@YGXPAUENTITY@@W4LIST_TYPES@@@Z ; delete_local_entity_from_parents_child_list

; 139  : 
; 140  : 	delete_local_entity_from_parents_child_list (en, LIST_TYPE_SECTOR_TASK);

  000c8	6a 22		 push	 34			; 00000022H
  000ca	8b 45 08	 mov	 eax, DWORD PTR _en$[ebp]
  000cd	50		 push	 eax
  000ce	e8 00 00 00 00	 call	 ?delete_local_entity_from_parents_child_list@@YGXPAUENTITY@@W4LIST_TYPES@@@Z ; delete_local_entity_from_parents_child_list

; 141  : 
; 142  : 	delete_local_entity_from_parents_child_list (en, LIST_TYPE_TASK_DEPENDENT);

  000d3	6a 27		 push	 39			; 00000027H
  000d5	8b 45 08	 mov	 eax, DWORD PTR _en$[ebp]
  000d8	50		 push	 eax
  000d9	e8 00 00 00 00	 call	 ?delete_local_entity_from_parents_child_list@@YGXPAUENTITY@@W4LIST_TYPES@@@Z ; delete_local_entity_from_parents_child_list

; 143  : 
; 144  : 	delete_local_entity_from_parents_child_list (en, LIST_TYPE_UPDATE);

  000de	6a 29		 push	 41			; 00000029H
  000e0	8b 45 08	 mov	 eax, DWORD PTR _en$[ebp]
  000e3	50		 push	 eax
  000e4	e8 00 00 00 00	 call	 ?delete_local_entity_from_parents_child_list@@YGXPAUENTITY@@W4LIST_TYPES@@@Z ; delete_local_entity_from_parents_child_list

; 145  : 
; 146  : 	//
; 147  : 	// notify campaign screen (should be done AFTER unlinked from keysite)
; 148  : 	//
; 149  : 
; 150  : 	if (task_database [raw->sub_type].primary_task)

  000e9	8b 45 f4	 mov	 eax, DWORD PTR _raw$[ebp]
  000ec	6b 08 50	 imul	 ecx, DWORD PTR [eax], 80
  000ef	8b 91 28 00 00
	00		 mov	 edx, DWORD PTR ?task_database@@3PAUTASK_DATA@@A[ecx+40]
  000f5	d1 ea		 shr	 edx, 1
  000f7	83 e2 01	 and	 edx, 1
  000fa	74 0b		 je	 SHORT $LN9@destroy_lo

; 151  : 	{
; 152  : 		notify_campaign_screen (CAMPAIGN_SCREEN_MISSION_DESTROYED, en);

  000fc	8b 45 08	 mov	 eax, DWORD PTR _en$[ebp]
  000ff	50		 push	 eax
  00100	6a 03		 push	 3
  00102	e8 00 00 00 00	 call	 ?notify_campaign_screen@@YGHW4CAMPAIGN_SCREEN_MESSAGES@@PAUENTITY@@@Z ; notify_campaign_screen
$LN9@destroy_lo:

; 153  : 	}
; 154  : 
; 155  : 	////////////////////////////////////////
; 156  : 	//
; 157  : 	// FREE ENTITY DATA
; 158  : 	//
; 159  : 	////////////////////////////////////////
; 160  : 
; 161  : 	if (raw->route_dependents)

  00107	8b 45 f4	 mov	 eax, DWORD PTR _raw$[ebp]
  0010a	83 78 34 00	 cmp	 DWORD PTR [eax+52], 0
  0010e	74 0c		 je	 SHORT $LN10@destroy_lo

; 162  : 	{
; 163  : 
; 164  : 		free_mem (raw->route_dependents);

  00110	8b 45 f4	 mov	 eax, DWORD PTR _raw$[ebp]
  00113	8b 48 34	 mov	 ecx, DWORD PTR [eax+52]
  00116	51		 push	 ecx
  00117	e8 00 00 00 00	 call	 ?free_mem@@YGXPAX@Z	; free_mem
$LN10@destroy_lo:

; 165  : 	}
; 166  : 
; 167  : 	if (raw->route_formation_types)

  0011c	8b 45 f4	 mov	 eax, DWORD PTR _raw$[ebp]
  0011f	83 78 38 00	 cmp	 DWORD PTR [eax+56], 0
  00123	74 0c		 je	 SHORT $LN11@destroy_lo

; 168  : 	{
; 169  : 
; 170  : 		free_mem (raw->route_formation_types);

  00125	8b 45 f4	 mov	 eax, DWORD PTR _raw$[ebp]
  00128	8b 48 38	 mov	 ecx, DWORD PTR [eax+56]
  0012b	51		 push	 ecx
  0012c	e8 00 00 00 00	 call	 ?free_mem@@YGXPAX@Z	; free_mem
$LN11@destroy_lo:

; 171  : 	}
; 172  : 
; 173  : 	if (raw->route_waypoint_types)

  00131	8b 45 f4	 mov	 eax, DWORD PTR _raw$[ebp]
  00134	83 78 3c 00	 cmp	 DWORD PTR [eax+60], 0
  00138	74 0c		 je	 SHORT $LN12@destroy_lo

; 174  : 	{
; 175  : 
; 176  : 		free_mem (raw->route_waypoint_types);

  0013a	8b 45 f4	 mov	 eax, DWORD PTR _raw$[ebp]
  0013d	8b 48 3c	 mov	 ecx, DWORD PTR [eax+60]
  00140	51		 push	 ecx
  00141	e8 00 00 00 00	 call	 ?free_mem@@YGXPAX@Z	; free_mem
$LN12@destroy_lo:

; 177  : 	}
; 178  : 
; 179  : 	if (raw->route_nodes)

  00146	8b 45 f4	 mov	 eax, DWORD PTR _raw$[ebp]
  00149	83 78 14 00	 cmp	 DWORD PTR [eax+20], 0
  0014d	74 0c		 je	 SHORT $LN13@destroy_lo

; 180  : 	{
; 181  : 
; 182  : 		free_mem (raw->route_nodes);

  0014f	8b 45 f4	 mov	 eax, DWORD PTR _raw$[ebp]
  00152	8b 48 14	 mov	 ecx, DWORD PTR [eax+20]
  00155	51		 push	 ecx
  00156	e8 00 00 00 00	 call	 ?free_mem@@YGXPAX@Z	; free_mem
$LN13@destroy_lo:

; 183  : 	}
; 184  : 
; 185  : 	// kills
; 186  : 
; 187  : 	kill = raw->task_kills;

  0015b	8b 45 f4	 mov	 eax, DWORD PTR _raw$[ebp]
  0015e	8b 88 90 00 00
	00		 mov	 ecx, DWORD PTR [eax+144]
  00164	89 4d f8	 mov	 DWORD PTR _kill$[ebp], ecx
$LN2@destroy_lo:

; 188  : 
; 189  : 	while (kill)

  00167	83 7d f8 00	 cmp	 DWORD PTR _kill$[ebp], 0
  0016b	74 1a		 je	 SHORT $LN3@destroy_lo

; 190  : 	{
; 191  : 
; 192  : 		destroy_kill = kill;

  0016d	8b 45 f8	 mov	 eax, DWORD PTR _kill$[ebp]
  00170	89 45 fc	 mov	 DWORD PTR _destroy_kill$[ebp], eax

; 193  : 
; 194  : 		kill = kill->next;

  00173	8b 45 f8	 mov	 eax, DWORD PTR _kill$[ebp]
  00176	8b 48 28	 mov	 ecx, DWORD PTR [eax+40]
  00179	89 4d f8	 mov	 DWORD PTR _kill$[ebp], ecx

; 195  : 
; 196  : 		free_mem (destroy_kill);

  0017c	8b 45 fc	 mov	 eax, DWORD PTR _destroy_kill$[ebp]
  0017f	50		 push	 eax
  00180	e8 00 00 00 00	 call	 ?free_mem@@YGXPAX@Z	; free_mem

; 197  : 	}

  00185	eb e0		 jmp	 SHORT $LN2@destroy_lo
$LN3@destroy_lo:

; 198  : 
; 199  : 	// losses
; 200  : 
; 201  : 	kill = raw->task_losses;

  00187	8b 45 f4	 mov	 eax, DWORD PTR _raw$[ebp]
  0018a	8b 88 94 00 00
	00		 mov	 ecx, DWORD PTR [eax+148]
  00190	89 4d f8	 mov	 DWORD PTR _kill$[ebp], ecx
$LN4@destroy_lo:

; 202  : 
; 203  : 	while (kill)

  00193	83 7d f8 00	 cmp	 DWORD PTR _kill$[ebp], 0
  00197	74 1a		 je	 SHORT $LN5@destroy_lo

; 204  : 	{
; 205  : 
; 206  : 		destroy_kill = kill;

  00199	8b 45 f8	 mov	 eax, DWORD PTR _kill$[ebp]
  0019c	89 45 fc	 mov	 DWORD PTR _destroy_kill$[ebp], eax

; 207  : 
; 208  : 		kill = kill->next;

  0019f	8b 45 f8	 mov	 eax, DWORD PTR _kill$[ebp]
  001a2	8b 48 28	 mov	 ecx, DWORD PTR [eax+40]
  001a5	89 4d f8	 mov	 DWORD PTR _kill$[ebp], ecx

; 209  : 
; 210  : 		free_mem (destroy_kill);

  001a8	8b 45 fc	 mov	 eax, DWORD PTR _destroy_kill$[ebp]
  001ab	50		 push	 eax
  001ac	e8 00 00 00 00	 call	 ?free_mem@@YGXPAX@Z	; free_mem

; 211  : 	}

  001b1	eb e0		 jmp	 SHORT $LN4@destroy_lo
$LN5@destroy_lo:

; 212  : 
; 213  : 	free_mem (raw);

  001b3	8b 45 f4	 mov	 eax, DWORD PTR _raw$[ebp]
  001b6	50		 push	 eax
  001b7	e8 00 00 00 00	 call	 ?free_mem@@YGXPAX@Z	; free_mem

; 214  : 
; 215  : 	set_free_entity (en);

  001bc	8b 45 08	 mov	 eax, DWORD PTR _en$[ebp]
  001bf	50		 push	 eax
  001c0	e8 00 00 00 00	 call	 ?set_free_entity@@YGXPAUENTITY@@@Z ; set_free_entity

; 216  : }

  001c5	5f		 pop	 edi
  001c6	5e		 pop	 esi
  001c7	5b		 pop	 ebx
  001c8	8b e5		 mov	 esp, ebp
  001ca	5d		 pop	 ebp
  001cb	c2 04 00	 ret	 4
?destroy_local@@YGXPAUENTITY@@@Z ENDP			; destroy_local
_TEXT	ENDS
; Function compile flags: /Odtp /ZI
; File c:\users\nhv90\projects\eech\aphavoc\source\entity\special\task\ts_dstry.c
;	COMDAT ?overload_task_destroy_functions@@YGXXZ
_TEXT	SEGMENT
?overload_task_destroy_functions@@YGXXZ PROC		; overload_task_destroy_functions, COMDAT

; 440  : {

  00000	55		 push	 ebp
  00001	8b ec		 mov	 ebp, esp
  00003	83 ec 40	 sub	 esp, 64			; 00000040H
  00006	53		 push	 ebx
  00007	56		 push	 esi
  00008	57		 push	 edi

; 441  : 	fn_destroy_local_entity						[ENTITY_TYPE_TASK]							= destroy_local;

  00009	b8 04 00 00 00	 mov	 eax, 4
  0000e	6b c8 22	 imul	 ecx, eax, 34
  00011	c7 81 00 00 00
	00 00 00 00 00	 mov	 DWORD PTR ?fn_destroy_local_entity@@3PAP6GXPAUENTITY@@@ZA[ecx], OFFSET ?destroy_local@@YGXPAUENTITY@@@Z ; destroy_local

; 442  : 	fn_destroy_client_server_entity			[ENTITY_TYPE_TASK][COMMS_MODEL_SERVER]	= destroy_server;

  0001b	b8 08 00 00 00	 mov	 eax, 8
  00020	6b c8 22	 imul	 ecx, eax, 34
  00023	ba 04 00 00 00	 mov	 edx, 4
  00028	6b c2 00	 imul	 eax, edx, 0
  0002b	c7 84 01 00 00
	00 00 00 00 00
	00		 mov	 DWORD PTR ?fn_destroy_client_server_entity@@3PAY01P6GXPAUENTITY@@@ZA[ecx+eax], OFFSET ?destroy_server@@YGXPAUENTITY@@@Z ; destroy_server

; 443  : 	fn_destroy_client_server_entity			[ENTITY_TYPE_TASK][COMMS_MODEL_CLIENT]	= destroy_client;

  00036	b8 08 00 00 00	 mov	 eax, 8
  0003b	6b c8 22	 imul	 ecx, eax, 34
  0003e	ba 04 00 00 00	 mov	 edx, 4
  00043	c1 e2 00	 shl	 edx, 0
  00046	c7 84 11 00 00
	00 00 00 00 00
	00		 mov	 DWORD PTR ?fn_destroy_client_server_entity@@3PAY01P6GXPAUENTITY@@@ZA[ecx+edx], OFFSET ?destroy_client@@YGXPAUENTITY@@@Z ; destroy_client

; 444  : 
; 445  : 	fn_destroy_local_entity_family			[ENTITY_TYPE_TASK]							= destroy_local_family;

  00051	b8 04 00 00 00	 mov	 eax, 4
  00056	6b c8 22	 imul	 ecx, eax, 34
  00059	c7 81 00 00 00
	00 00 00 00 00	 mov	 DWORD PTR ?fn_destroy_local_entity_family@@3PAP6GXPAUENTITY@@@ZA[ecx], OFFSET ?destroy_local_family@@YGXPAUENTITY@@@Z ; destroy_local_family

; 446  : 	fn_destroy_client_server_entity_family	[ENTITY_TYPE_TASK][COMMS_MODEL_SERVER]	= destroy_server_family;

  00063	b8 08 00 00 00	 mov	 eax, 8
  00068	6b c8 22	 imul	 ecx, eax, 34
  0006b	ba 04 00 00 00	 mov	 edx, 4
  00070	6b c2 00	 imul	 eax, edx, 0
  00073	c7 84 01 00 00
	00 00 00 00 00
	00		 mov	 DWORD PTR ?fn_destroy_client_server_entity_family@@3PAY01P6GXPAUENTITY@@@ZA[ecx+eax], OFFSET ?destroy_server_family@@YGXPAUENTITY@@@Z ; destroy_server_family

; 447  : 	fn_destroy_client_server_entity_family	[ENTITY_TYPE_TASK][COMMS_MODEL_CLIENT]	= destroy_client_family;

  0007e	b8 08 00 00 00	 mov	 eax, 8
  00083	6b c8 22	 imul	 ecx, eax, 34
  00086	ba 04 00 00 00	 mov	 edx, 4
  0008b	c1 e2 00	 shl	 edx, 0
  0008e	c7 84 11 00 00
	00 00 00 00 00
	00		 mov	 DWORD PTR ?fn_destroy_client_server_entity_family@@3PAY01P6GXPAUENTITY@@@ZA[ecx+edx], OFFSET ?destroy_client_family@@YGXPAUENTITY@@@Z ; destroy_client_family

; 448  : 
; 449  : 	fn_kill_local_entity							[ENTITY_TYPE_TASK]							= kill_local;

  00099	b8 04 00 00 00	 mov	 eax, 4
  0009e	6b c8 22	 imul	 ecx, eax, 34
  000a1	c7 81 00 00 00
	00 00 00 00 00	 mov	 DWORD PTR ?fn_kill_local_entity@@3PAP6GXPAUENTITY@@@ZA[ecx], OFFSET ?kill_local@@YGXPAUENTITY@@@Z ; kill_local

; 450  : 	fn_kill_client_server_entity				[ENTITY_TYPE_TASK][COMMS_MODEL_SERVER]	= kill_server;

  000ab	b8 08 00 00 00	 mov	 eax, 8
  000b0	6b c8 22	 imul	 ecx, eax, 34
  000b3	ba 04 00 00 00	 mov	 edx, 4
  000b8	6b c2 00	 imul	 eax, edx, 0
  000bb	c7 84 01 00 00
	00 00 00 00 00
	00		 mov	 DWORD PTR ?fn_kill_client_server_entity@@3PAY01P6GXPAUENTITY@@@ZA[ecx+eax], OFFSET ?kill_server@@YGXPAUENTITY@@@Z ; kill_server

; 451  : 	fn_kill_client_server_entity				[ENTITY_TYPE_TASK][COMMS_MODEL_CLIENT]	= kill_client;

  000c6	b8 08 00 00 00	 mov	 eax, 8
  000cb	6b c8 22	 imul	 ecx, eax, 34
  000ce	ba 04 00 00 00	 mov	 edx, 4
  000d3	c1 e2 00	 shl	 edx, 0
  000d6	c7 84 11 00 00
	00 00 00 00 00
	00		 mov	 DWORD PTR ?fn_kill_client_server_entity@@3PAY01P6GXPAUENTITY@@@ZA[ecx+edx], OFFSET ?kill_client@@YGXPAUENTITY@@@Z ; kill_client

; 452  : }

  000e1	5f		 pop	 edi
  000e2	5e		 pop	 esi
  000e3	5b		 pop	 ebx
  000e4	8b e5		 mov	 esp, ebp
  000e6	5d		 pop	 ebp
  000e7	c3		 ret	 0
?overload_task_destroy_functions@@YGXXZ ENDP		; overload_task_destroy_functions
_TEXT	ENDS
END
