; Listing generated by Microsoft (R) Optimizing Compiler Version 19.16.27045.0 

	TITLE	C:\Users\nhv90\Projects\eech\aphavoc\source\entity\special\task\ts_float.c
	.686P
	.XMM
	include listing.inc
	.model	flat

INCLUDELIB MSVCRTD
INCLUDELIB OLDNAMES

PUBLIC	?overload_task_float_value_functions@@YGXXZ	; overload_task_float_value_functions
PUBLIC	?__LINE__Var@?0??set_local_float_value@@YGXPAUENTITY@@W4FLOAT_TYPES@@M@Z@4JA ; `set_local_float_value'::`1'::__LINE__Var
PUBLIC	??_C@_0EL@GBAIOHOO@c?3?2users?2nhv90?2projects?2eech?2ap@ ; `string'
PUBLIC	?__LINE__Var@?0??set_server_float_value@@YGXPAUENTITY@@W4FLOAT_TYPES@@M@Z@4JA ; `set_server_float_value'::`1'::__LINE__Var
PUBLIC	??_C@_0CB@CFOCLFOK@assert_client_server_local_fn?5?$CI@ ; `string'
PUBLIC	??_C@_0CC@BNNNEGEG@assert_client_server_remote_fn?5@ ; `string'
PUBLIC	?__LINE__Var@?0??set_client_float_value@@YGXPAUENTITY@@W4FLOAT_TYPES@@M@Z@4JA ; `set_client_float_value'::`1'::__LINE__Var
PUBLIC	?__LINE__Var@?0??get_local_float_value@@YGMPAUENTITY@@W4FLOAT_TYPES@@@Z@4JA ; `get_local_float_value'::`1'::__LINE__Var
PUBLIC	??_C@_0BG@EFCJJKAA@get_session_entity?5?$CI?$CJ@ ; `string'
EXTRN	?process_assert@@YGXPBD0H@Z:PROC		; process_assert
EXTRN	?debug_fatal@@YAXPBDZZ:PROC			; debug_fatal
EXTRN	?transmit_entity_comms_message@@YAXW4ENTITY_COMMS_MESSAGES@@PAUENTITY@@ZZ:PROC ; transmit_entity_comms_message
EXTRN	?assert_client_server_local_fn@@YGHXZ:PROC	; assert_client_server_local_fn
EXTRN	?assert_client_server_remote_fn@@YGHXZ:PROC	; assert_client_server_remote_fn
EXTRN	?null_entity_pointer_message@@3PBDB:DWORD	; null_entity_pointer_message
EXTRN	?entity_type_database@@3PAUENTITY_TYPE_DATA@@A:BYTE ; entity_type_database
EXTRN	?system_comms_data_flow@@3W4COMMS_DATA_FLOW_TYPES@@A:DWORD ; system_comms_data_flow
EXTRN	?float_type_database@@3PAUFLOAT_TYPE_DATA@@A:BYTE ; float_type_database
EXTRN	?overload_invalid_float_type_message@@3PBDB:DWORD ; overload_invalid_float_type_message
EXTRN	?debug_fatal_invalid_float_type_message@@3PBDB:DWORD ; debug_fatal_invalid_float_type_message
EXTRN	?fn_set_local_entity_raw_float_value@@3PAY0KP@P6GXPAUENTITY@@W4FLOAT_TYPES@@M@ZA:BYTE ; fn_set_local_entity_raw_float_value
EXTRN	?fn_set_local_entity_float_value@@3PAY0KP@P6GXPAUENTITY@@W4FLOAT_TYPES@@M@ZA:BYTE ; fn_set_local_entity_float_value
EXTRN	?fn_set_client_server_entity_float_value@@3PAY1KP@1P6GXPAUENTITY@@W4FLOAT_TYPES@@M@ZA:BYTE ; fn_set_client_server_entity_float_value
EXTRN	?fn_get_local_entity_float_value@@3PAY0KP@P6GMPAUENTITY@@W4FLOAT_TYPES@@@ZA:BYTE ; fn_get_local_entity_float_value
EXTRN	?entities@@3PAUENTITY@@A:DWORD			; entities
EXTRN	?session_entity@@3PAUENTITY@@A:DWORD		; session_entity
EXTRN	?task_database@@3PAUTASK_DATA@@A:BYTE		; task_database
EXTRN	__fltused:DWORD
;	COMDAT ??_C@_0BG@EFCJJKAA@get_session_entity?5?$CI?$CJ@
CONST	SEGMENT
??_C@_0BG@EFCJJKAA@get_session_entity?5?$CI?$CJ@ DB 'get_session_entity ('
	DB	')', 00H					; `string'
CONST	ENDS
;	COMDAT ?__LINE__Var@?0??get_local_float_value@@YGMPAUENTITY@@W4FLOAT_TYPES@@@Z@4JA
_DATA	SEGMENT
?__LINE__Var@?0??get_local_float_value@@YGMPAUENTITY@@W4FLOAT_TYPES@@@Z@4JA DD 0d0H ; `get_local_float_value'::`1'::__LINE__Var
_DATA	ENDS
;	COMDAT ?__LINE__Var@?0??set_client_float_value@@YGXPAUENTITY@@W4FLOAT_TYPES@@M@Z@4JA
_DATA	SEGMENT
?__LINE__Var@?0??set_client_float_value@@YGXPAUENTITY@@W4FLOAT_TYPES@@M@Z@4JA DD 0bcH ; `set_client_float_value'::`1'::__LINE__Var
_DATA	ENDS
;	COMDAT ??_C@_0CC@BNNNEGEG@assert_client_server_remote_fn?5@
CONST	SEGMENT
??_C@_0CC@BNNNEGEG@assert_client_server_remote_fn?5@ DB 'assert_client_se'
	DB	'rver_remote_fn ()', 00H			; `string'
CONST	ENDS
;	COMDAT ??_C@_0CB@CFOCLFOK@assert_client_server_local_fn?5?$CI@
CONST	SEGMENT
??_C@_0CB@CFOCLFOK@assert_client_server_local_fn?5?$CI@ DB 'assert_client'
	DB	'_server_local_fn ()', 00H			; `string'
CONST	ENDS
;	COMDAT ?__LINE__Var@?0??set_server_float_value@@YGXPAUENTITY@@W4FLOAT_TYPES@@M@Z@4JA
_DATA	SEGMENT
?__LINE__Var@?0??set_server_float_value@@YGXPAUENTITY@@W4FLOAT_TYPES@@M@Z@4JA DD 0adH ; `set_server_float_value'::`1'::__LINE__Var
_DATA	ENDS
;	COMDAT ??_C@_0EL@GBAIOHOO@c?3?2users?2nhv90?2projects?2eech?2ap@
CONST	SEGMENT
??_C@_0EL@GBAIOHOO@c?3?2users?2nhv90?2projects?2eech?2ap@ DB 'c:\users\nh'
	DB	'v90\projects\eech\aphavoc\source\entity\special\task\ts_float'
	DB	'.c', 00H					; `string'
CONST	ENDS
;	COMDAT ?__LINE__Var@?0??set_local_float_value@@YGXPAUENTITY@@W4FLOAT_TYPES@@M@Z@4JA
_DATA	SEGMENT
?__LINE__Var@?0??set_local_float_value@@YGXPAUENTITY@@W4FLOAT_TYPES@@M@Z@4JA DD 050H ; `set_local_float_value'::`1'::__LINE__Var
_DATA	ENDS
; Function compile flags: /Odtp /ZI
; File c:\users\nhv90\projects\eech\aphavoc\source\entity\special\task\ts_float.c
;	COMDAT ?get_local_float_value@@YGMPAUENTITY@@W4FLOAT_TYPES@@@Z
_TEXT	SEGMENT
tv182 = -84						; size = 4
tv87 = -80						; size = 4
tv153 = -76						; size = 4
tv79 = -76						; size = 4
tv65 = -76						; size = 4
_value$ = -8						; size = 4
_raw$ = -4						; size = 4
_en$ = 8						; size = 4
_type$ = 12						; size = 4
?get_local_float_value@@YGMPAUENTITY@@W4FLOAT_TYPES@@@Z PROC ; get_local_float_value, COMDAT

; 208  : {

  00000	55		 push	 ebp
  00001	8b ec		 mov	 ebp, esp
  00003	83 ec 54	 sub	 esp, 84			; 00000054H
  00006	53		 push	 ebx
  00007	56		 push	 esi
  00008	57		 push	 edi

; 209  : 	task
; 210  : 		*raw;
; 211  : 
; 212  : 	float
; 213  : 		value;
; 214  : 
; 215  : 	raw = (task *) get_local_entity_data (en);

  00009	8b 45 08	 mov	 eax, DWORD PTR _en$[ebp]
  0000c	8b 48 04	 mov	 ecx, DWORD PTR [eax+4]
  0000f	89 4d fc	 mov	 DWORD PTR _raw$[ebp], ecx

; 216  : 
; 217  : 	switch (type)

  00012	8b 45 0c	 mov	 eax, DWORD PTR _type$[ebp]
  00015	89 45 b4	 mov	 DWORD PTR tv65[ebp], eax
  00018	8b 4d b4	 mov	 ecx, DWORD PTR tv65[ebp]
  0001b	83 e9 22	 sub	 ecx, 34			; 00000022H
  0001e	89 4d b4	 mov	 DWORD PTR tv65[ebp], ecx
  00021	83 7d b4 6a	 cmp	 DWORD PTR tv65[ebp], 106 ; 0000006aH
  00025	0f 87 69 01 00
	00		 ja	 $LN15@get_local_
  0002b	8b 55 b4	 mov	 edx, DWORD PTR tv65[ebp]
  0002e	0f b6 82 00 00
	00 00		 movzx	 eax, BYTE PTR $LN23@get_local_[edx]
  00035	ff 24 85 00 00
	00 00		 jmp	 DWORD PTR $LN24@get_local_[eax*4]
$LN4@get_local_:

; 218  : 	{
; 219  : 		////////////////////////////////////////
; 220  : 		case FLOAT_TYPE_ELAPSED_MISSION_TIME:
; 221  : 		////////////////////////////////////////
; 222  : 		{
; 223  : 			if (raw->task_state == TASK_STATE_ASSIGNED)

  0003c	8b 45 fc	 mov	 eax, DWORD PTR _raw$[ebp]
  0003f	83 78 04 01	 cmp	 DWORD PTR [eax+4], 1
  00043	0f 85 bd 00 00
	00		 jne	 $LN5@get_local_

; 224  : 			{
; 225  : 				ASSERT (get_session_entity ());

  00049	83 3d 00 00 00
	00 00		 cmp	 DWORD PTR ?session_entity@@3PAUENTITY@@A, 0 ; session_entity
  00050	75 18		 jne	 SHORT $LN7@get_local_
  00052	a1 00 00 00 00	 mov	 eax, DWORD PTR ?__LINE__Var@?0??get_local_float_value@@YGMPAUENTITY@@W4FLOAT_TYPES@@@Z@4JA
  00057	83 c0 11	 add	 eax, 17			; 00000011H
  0005a	50		 push	 eax
  0005b	68 00 00 00 00	 push	 OFFSET ??_C@_0EL@GBAIOHOO@c?3?2users?2nhv90?2projects?2eech?2ap@
  00060	68 00 00 00 00	 push	 OFFSET ??_C@_0BG@EFCJJKAA@get_session_entity?5?$CI?$CJ@
  00065	e8 00 00 00 00	 call	 ?process_assert@@YGXPBD0H@Z ; process_assert
$LN7@get_local_:

; 226  : 
; 227  : 				value = get_local_entity_float_value (get_session_entity (), FLOAT_TYPE_ELAPSED_TIME) - raw->start_time;

  0006a	83 3d 00 00 00
	00 00		 cmp	 DWORD PTR ?session_entity@@3PAUENTITY@@A, 0 ; session_entity
  00071	74 0c		 je	 SHORT $LN17@get_local_
  00073	a1 00 00 00 00	 mov	 eax, DWORD PTR ?session_entity@@3PAUENTITY@@A ; session_entity
  00078	8b 08		 mov	 ecx, DWORD PTR [eax]
  0007a	89 4d b4	 mov	 DWORD PTR tv79[ebp], ecx
  0007d	eb 21		 jmp	 SHORT $LN18@get_local_
$LN17@get_local_:
  0007f	8b 15 00 00 00
	00		 mov	 edx, DWORD PTR ?__LINE__Var@?0??get_local_float_value@@YGMPAUENTITY@@W4FLOAT_TYPES@@@Z@4JA
  00085	83 c2 13	 add	 edx, 19			; 00000013H
  00088	52		 push	 edx
  00089	68 00 00 00 00	 push	 OFFSET ??_C@_0EL@GBAIOHOO@c?3?2users?2nhv90?2projects?2eech?2ap@
  0008e	a1 00 00 00 00	 mov	 eax, DWORD PTR ?null_entity_pointer_message@@3PBDB ; null_entity_pointer_message
  00093	50		 push	 eax
  00094	e8 00 00 00 00	 call	 ?process_assert@@YGXPBD0H@Z ; process_assert
  00099	c7 45 b4 00 00
	00 00		 mov	 DWORD PTR tv79[ebp], 0
$LN18@get_local_:
  000a0	b9 01 00 00 00	 mov	 ecx, 1
  000a5	85 c9		 test	 ecx, ecx
  000a7	74 09		 je	 SHORT $LN19@get_local_
  000a9	c7 45 b0 23 00
	00 00		 mov	 DWORD PTR tv87[ebp], 35	; 00000023H
  000b0	eb 21		 jmp	 SHORT $LN20@get_local_
$LN19@get_local_:
  000b2	8b 15 00 00 00
	00		 mov	 edx, DWORD PTR ?__LINE__Var@?0??get_local_float_value@@YGMPAUENTITY@@W4FLOAT_TYPES@@@Z@4JA
  000b8	83 c2 13	 add	 edx, 19			; 00000013H
  000bb	52		 push	 edx
  000bc	68 00 00 00 00	 push	 OFFSET ??_C@_0EL@GBAIOHOO@c?3?2users?2nhv90?2projects?2eech?2ap@
  000c1	a1 00 00 00 00	 mov	 eax, DWORD PTR ?overload_invalid_float_type_message@@3PBDB ; overload_invalid_float_type_message
  000c6	50		 push	 eax
  000c7	e8 00 00 00 00	 call	 ?process_assert@@YGXPBD0H@Z ; process_assert
  000cc	c7 45 b0 00 00
	00 00		 mov	 DWORD PTR tv87[ebp], 0
$LN20@get_local_:
  000d3	6a 23		 push	 35			; 00000023H
  000d5	8b 0d 00 00 00
	00		 mov	 ecx, DWORD PTR ?session_entity@@3PAUENTITY@@A ; session_entity
  000db	51		 push	 ecx
  000dc	69 55 b4 bc 02
	00 00		 imul	 edx, DWORD PTR tv79[ebp], 700
  000e3	8b 45 b0	 mov	 eax, DWORD PTR tv87[ebp]
  000e6	8b 8c 82 00 00
	00 00		 mov	 ecx, DWORD PTR ?fn_get_local_entity_float_value@@3PAY0KP@P6GMPAUENTITY@@W4FLOAT_TYPES@@@ZA[edx+eax*4]
  000ed	ff d1		 call	 ecx
  000ef	d9 5d ac	 fstp	 DWORD PTR tv182[ebp]
  000f2	f3 0f 10 45 ac	 movss	 xmm0, DWORD PTR tv182[ebp]
  000f7	8b 55 fc	 mov	 edx, DWORD PTR _raw$[ebp]
  000fa	f3 0f 5c 42 24	 subss	 xmm0, DWORD PTR [edx+36]
  000ff	f3 0f 11 45 f8	 movss	 DWORD PTR _value$[ebp], xmm0

; 228  : 			}
; 229  : 			else

  00104	eb 08		 jmp	 SHORT $LN6@get_local_
$LN5@get_local_:

; 230  : 			{
; 231  : 				value = 0.0;

  00106	0f 57 c0	 xorps	 xmm0, xmm0
  00109	f3 0f 11 45 f8	 movss	 DWORD PTR _value$[ebp], xmm0
$LN6@get_local_:

; 232  : 			}
; 233  : 
; 234  : 			break;

  0010e	e9 f3 00 00 00	 jmp	 $LN2@get_local_
$LN8@get_local_:

; 235  : 		}
; 236  : 		////////////////////////////////////////
; 237  : 		case FLOAT_TYPE_EXPIRE_TIMER:
; 238  : 		////////////////////////////////////////
; 239  : 		{
; 240  : 			value = raw->expire_timer;

  00113	8b 45 fc	 mov	 eax, DWORD PTR _raw$[ebp]
  00116	f3 0f 10 40 2c	 movss	 xmm0, DWORD PTR [eax+44]
  0011b	f3 0f 11 45 f8	 movss	 DWORD PTR _value$[ebp], xmm0

; 241  : 
; 242  : 			break;

  00120	e9 e1 00 00 00	 jmp	 $LN2@get_local_
$LN9@get_local_:

; 243  : 		}
; 244  : 		////////////////////////////////////////
; 245  : 		case FLOAT_TYPE_RATING:
; 246  : 		////////////////////////////////////////
; 247  : 		{
; 248  : 			value = raw->rating;

  00125	8b 45 fc	 mov	 eax, DWORD PTR _raw$[ebp]
  00128	f3 0f 10 40 20	 movss	 xmm0, DWORD PTR [eax+32]
  0012d	f3 0f 11 45 f8	 movss	 DWORD PTR _value$[ebp], xmm0

; 249  : 
; 250  : 			break;

  00132	e9 cf 00 00 00	 jmp	 $LN2@get_local_
$LN10@get_local_:

; 251  : 		}
; 252  : 		////////////////////////////////////////
; 253  : 		case FLOAT_TYPE_START_TIME:
; 254  : 		////////////////////////////////////////
; 255  : 		{
; 256  : 			value = raw->start_time;

  00137	8b 45 fc	 mov	 eax, DWORD PTR _raw$[ebp]
  0013a	f3 0f 10 40 24	 movss	 xmm0, DWORD PTR [eax+36]
  0013f	f3 0f 11 45 f8	 movss	 DWORD PTR _value$[ebp], xmm0

; 257  : 
; 258  : 			break;

  00144	e9 bd 00 00 00	 jmp	 $LN2@get_local_
$LN11@get_local_:

; 259  : 		}
; 260  : 		////////////////////////////////////////
; 261  : 		case FLOAT_TYPE_STOP_TIMER:
; 262  : 		////////////////////////////////////////
; 263  : 		{
; 264  : 			value = raw->stop_timer;

  00149	8b 45 fc	 mov	 eax, DWORD PTR _raw$[ebp]
  0014c	f3 0f 10 40 28	 movss	 xmm0, DWORD PTR [eax+40]
  00151	f3 0f 11 45 f8	 movss	 DWORD PTR _value$[ebp], xmm0

; 265  : 
; 266  : 			break;

  00156	e9 ab 00 00 00	 jmp	 $LN2@get_local_
$LN12@get_local_:

; 267  : 		}
; 268  : 		////////////////////////////////////////
; 269  : 		case FLOAT_TYPE_TASK_DEFAULT_PRIORITY:
; 270  : 		////////////////////////////////////////
; 271  : 		{
; 272  : 			value = task_database [raw->sub_type].task_priority;

  0015b	8b 45 fc	 mov	 eax, DWORD PTR _raw$[ebp]
  0015e	6b 08 50	 imul	 ecx, DWORD PTR [eax], 80
  00161	f3 0f 10 81 10
	00 00 00	 movss	 xmm0, DWORD PTR ?task_database@@3PAUTASK_DATA@@A[ecx+16]
  00169	f3 0f 11 45 f8	 movss	 DWORD PTR _value$[ebp], xmm0

; 273  : 
; 274  : 			break;

  0016e	e9 93 00 00 00	 jmp	 $LN2@get_local_
$LN13@get_local_:

; 275  : 		}
; 276  : 		////////////////////////////////////////
; 277  : 		case FLOAT_TYPE_TASK_PRIORITY:
; 278  : 		////////////////////////////////////////
; 279  : 		{
; 280  : 			value = raw->task_priority;

  00173	8b 45 fc	 mov	 eax, DWORD PTR _raw$[ebp]
  00176	f3 0f 10 40 1c	 movss	 xmm0, DWORD PTR [eax+28]
  0017b	f3 0f 11 45 f8	 movss	 DWORD PTR _value$[ebp], xmm0

; 281  : 
; 282  : 			break;

  00180	e9 81 00 00 00	 jmp	 $LN2@get_local_
$LN14@get_local_:

; 283  : 		}
; 284  : 		////////////////////////////////////////
; 285  : 		case FLOAT_TYPE_TASK_USER_DATA:
; 286  : 		////////////////////////////////////////
; 287  : 		{
; 288  : 			value = raw->task_user_data;

  00185	8b 45 fc	 mov	 eax, DWORD PTR _raw$[ebp]
  00188	f3 0f 10 40 18	 movss	 xmm0, DWORD PTR [eax+24]
  0018d	f3 0f 11 45 f8	 movss	 DWORD PTR _value$[ebp], xmm0

; 289  : 
; 290  : 			break;

  00192	eb 72		 jmp	 SHORT $LN2@get_local_
$LN15@get_local_:

; 291  : 		}
; 292  : 		////////////////////////////////////////
; 293  : 		default:
; 294  : 		////////////////////////////////////////
; 295  : 		{
; 296  : 			debug_fatal_invalid_float_type (en, type);

  00194	83 7d 08 00	 cmp	 DWORD PTR _en$[ebp], 0
  00198	74 0a		 je	 SHORT $LN21@get_local_
  0019a	8b 45 08	 mov	 eax, DWORD PTR _en$[ebp]
  0019d	8b 08		 mov	 ecx, DWORD PTR [eax]
  0019f	89 4d b4	 mov	 DWORD PTR tv153[ebp], ecx
  001a2	eb 21		 jmp	 SHORT $LN22@get_local_
$LN21@get_local_:
  001a4	8b 15 00 00 00
	00		 mov	 edx, DWORD PTR ?__LINE__Var@?0??get_local_float_value@@YGMPAUENTITY@@W4FLOAT_TYPES@@@Z@4JA
  001aa	83 c2 58	 add	 edx, 88			; 00000058H
  001ad	52		 push	 edx
  001ae	68 00 00 00 00	 push	 OFFSET ??_C@_0EL@GBAIOHOO@c?3?2users?2nhv90?2projects?2eech?2ap@
  001b3	a1 00 00 00 00	 mov	 eax, DWORD PTR ?null_entity_pointer_message@@3PBDB ; null_entity_pointer_message
  001b8	50		 push	 eax
  001b9	e8 00 00 00 00	 call	 ?process_assert@@YGXPBD0H@Z ; process_assert
  001be	c7 45 b4 00 00
	00 00		 mov	 DWORD PTR tv153[ebp], 0
$LN22@get_local_:
  001c5	8b 0d 00 00 00
	00		 mov	 ecx, DWORD PTR ?__LINE__Var@?0??get_local_float_value@@YGMPAUENTITY@@W4FLOAT_TYPES@@@Z@4JA
  001cb	83 c1 58	 add	 ecx, 88			; 00000058H
  001ce	51		 push	 ecx
  001cf	68 00 00 00 00	 push	 OFFSET ??_C@_0EL@GBAIOHOO@c?3?2users?2nhv90?2projects?2eech?2ap@
  001d4	6b 55 0c 18	 imul	 edx, DWORD PTR _type$[ebp], 24
  001d8	8b 82 00 00 00
	00		 mov	 eax, DWORD PTR ?float_type_database@@3PAUFLOAT_TYPE_DATA@@A[edx]
  001de	50		 push	 eax
  001df	8b 4d 08	 mov	 ecx, DWORD PTR _en$[ebp]
  001e2	2b 0d 00 00 00
	00		 sub	 ecx, DWORD PTR ?entities@@3PAUENTITY@@A ; entities
  001e8	c1 f9 04	 sar	 ecx, 4
  001eb	51		 push	 ecx
  001ec	6b 55 b4 0c	 imul	 edx, DWORD PTR tv153[ebp], 12
  001f0	8b 82 00 00 00
	00		 mov	 eax, DWORD PTR ?entity_type_database@@3PAUENTITY_TYPE_DATA@@A[edx]
  001f6	50		 push	 eax
  001f7	8b 0d 00 00 00
	00		 mov	 ecx, DWORD PTR ?debug_fatal_invalid_float_type_message@@3PBDB ; debug_fatal_invalid_float_type_message
  001fd	51		 push	 ecx
  001fe	e8 00 00 00 00	 call	 ?debug_fatal@@YAXPBDZZ	; debug_fatal
  00203	83 c4 18	 add	 esp, 24			; 00000018H
$LN2@get_local_:

; 297  : 
; 298  : 			break;
; 299  : 		}
; 300  : 	}
; 301  : 
; 302  : 	return (value);

  00206	d9 45 f8	 fld	 DWORD PTR _value$[ebp]

; 303  : }

  00209	5f		 pop	 edi
  0020a	5e		 pop	 esi
  0020b	5b		 pop	 ebx
  0020c	8b e5		 mov	 esp, ebp
  0020e	5d		 pop	 ebp
  0020f	c2 08 00	 ret	 8
  00212	66 90		 npad	 2
$LN24@get_local_:
  00214	00 00 00 00	 DD	 $LN4@get_local_
  00218	00 00 00 00	 DD	 $LN8@get_local_
  0021c	00 00 00 00	 DD	 $LN9@get_local_
  00220	00 00 00 00	 DD	 $LN10@get_local_
  00224	00 00 00 00	 DD	 $LN11@get_local_
  00228	00 00 00 00	 DD	 $LN12@get_local_
  0022c	00 00 00 00	 DD	 $LN13@get_local_
  00230	00 00 00 00	 DD	 $LN14@get_local_
  00234	00 00 00 00	 DD	 $LN15@get_local_
$LN23@get_local_:
  00238	00		 DB	 0
  00239	08		 DB	 8
  0023a	08		 DB	 8
  0023b	01		 DB	 1
  0023c	08		 DB	 8
  0023d	08		 DB	 8
  0023e	08		 DB	 8
  0023f	08		 DB	 8
  00240	08		 DB	 8
  00241	08		 DB	 8
  00242	08		 DB	 8
  00243	08		 DB	 8
  00244	08		 DB	 8
  00245	08		 DB	 8
  00246	08		 DB	 8
  00247	08		 DB	 8
  00248	08		 DB	 8
  00249	08		 DB	 8
  0024a	08		 DB	 8
  0024b	08		 DB	 8
  0024c	08		 DB	 8
  0024d	08		 DB	 8
  0024e	08		 DB	 8
  0024f	08		 DB	 8
  00250	08		 DB	 8
  00251	08		 DB	 8
  00252	08		 DB	 8
  00253	08		 DB	 8
  00254	08		 DB	 8
  00255	08		 DB	 8
  00256	08		 DB	 8
  00257	08		 DB	 8
  00258	08		 DB	 8
  00259	08		 DB	 8
  0025a	08		 DB	 8
  0025b	08		 DB	 8
  0025c	08		 DB	 8
  0025d	08		 DB	 8
  0025e	08		 DB	 8
  0025f	08		 DB	 8
  00260	08		 DB	 8
  00261	08		 DB	 8
  00262	08		 DB	 8
  00263	08		 DB	 8
  00264	08		 DB	 8
  00265	08		 DB	 8
  00266	08		 DB	 8
  00267	08		 DB	 8
  00268	08		 DB	 8
  00269	08		 DB	 8
  0026a	08		 DB	 8
  0026b	08		 DB	 8
  0026c	08		 DB	 8
  0026d	08		 DB	 8
  0026e	08		 DB	 8
  0026f	08		 DB	 8
  00270	08		 DB	 8
  00271	08		 DB	 8
  00272	08		 DB	 8
  00273	08		 DB	 8
  00274	08		 DB	 8
  00275	08		 DB	 8
  00276	08		 DB	 8
  00277	08		 DB	 8
  00278	08		 DB	 8
  00279	08		 DB	 8
  0027a	08		 DB	 8
  0027b	08		 DB	 8
  0027c	08		 DB	 8
  0027d	08		 DB	 8
  0027e	08		 DB	 8
  0027f	08		 DB	 8
  00280	08		 DB	 8
  00281	08		 DB	 8
  00282	02		 DB	 2
  00283	08		 DB	 8
  00284	08		 DB	 8
  00285	08		 DB	 8
  00286	08		 DB	 8
  00287	08		 DB	 8
  00288	08		 DB	 8
  00289	08		 DB	 8
  0028a	08		 DB	 8
  0028b	08		 DB	 8
  0028c	08		 DB	 8
  0028d	08		 DB	 8
  0028e	08		 DB	 8
  0028f	08		 DB	 8
  00290	08		 DB	 8
  00291	08		 DB	 8
  00292	08		 DB	 8
  00293	03		 DB	 3
  00294	04		 DB	 4
  00295	08		 DB	 8
  00296	08		 DB	 8
  00297	08		 DB	 8
  00298	08		 DB	 8
  00299	08		 DB	 8
  0029a	08		 DB	 8
  0029b	08		 DB	 8
  0029c	08		 DB	 8
  0029d	08		 DB	 8
  0029e	08		 DB	 8
  0029f	05		 DB	 5
  002a0	06		 DB	 6
  002a1	08		 DB	 8
  002a2	07		 DB	 7
?get_local_float_value@@YGMPAUENTITY@@W4FLOAT_TYPES@@@Z ENDP ; get_local_float_value
_TEXT	ENDS
; Function compile flags: /Odtp /ZI
; File c:\users\nhv90\projects\eech\aphavoc\source\entity\special\task\ts_float.c
;	COMDAT ?set_client_float_value@@YGXPAUENTITY@@W4FLOAT_TYPES@@M@Z
_TEXT	SEGMENT
_en$ = 8						; size = 4
_type$ = 12						; size = 4
_value$ = 16						; size = 4
?set_client_float_value@@YGXPAUENTITY@@W4FLOAT_TYPES@@M@Z PROC ; set_client_float_value, COMDAT

; 188  : {

  00000	55		 push	 ebp
  00001	8b ec		 mov	 ebp, esp
  00003	83 ec 40	 sub	 esp, 64			; 00000040H
  00006	53		 push	 ebx
  00007	56		 push	 esi
  00008	57		 push	 edi

; 189  : 	if (get_comms_data_flow () == COMMS_DATA_FLOW_TX)

  00009	83 3d 00 00 00
	00 00		 cmp	 DWORD PTR ?system_comms_data_flow@@3W4COMMS_DATA_FLOW_TYPES@@A, 0 ; system_comms_data_flow
  00010	75 3b		 jne	 SHORT $LN2@set_client

; 190  : 	{
; 191  : 		validate_client_server_remote_fn ();

  00012	e8 00 00 00 00	 call	 ?assert_client_server_remote_fn@@YGHXZ ; assert_client_server_remote_fn
  00017	85 c0		 test	 eax, eax
  00019	75 18		 jne	 SHORT $LN4@set_client
  0001b	a1 00 00 00 00	 mov	 eax, DWORD PTR ?__LINE__Var@?0??set_client_float_value@@YGXPAUENTITY@@W4FLOAT_TYPES@@M@Z@4JA
  00020	83 c0 03	 add	 eax, 3
  00023	50		 push	 eax
  00024	68 00 00 00 00	 push	 OFFSET ??_C@_0EL@GBAIOHOO@c?3?2users?2nhv90?2projects?2eech?2ap@
  00029	68 00 00 00 00	 push	 OFFSET ??_C@_0CC@BNNNEGEG@assert_client_server_remote_fn?5@
  0002e	e8 00 00 00 00	 call	 ?process_assert@@YGXPBD0H@Z ; process_assert
$LN4@set_client:

; 192  : 
; 193  : 		set_remote_float_value (en, type, value);

  00033	51		 push	 ecx
  00034	f3 0f 10 45 10	 movss	 xmm0, DWORD PTR _value$[ebp]
  00039	f3 0f 11 04 24	 movss	 DWORD PTR [esp], xmm0
  0003e	8b 45 0c	 mov	 eax, DWORD PTR _type$[ebp]
  00041	50		 push	 eax
  00042	8b 4d 08	 mov	 ecx, DWORD PTR _en$[ebp]
  00045	51		 push	 ecx
  00046	e8 00 00 00 00	 call	 ?set_remote_float_value@@YGXPAUENTITY@@W4FLOAT_TYPES@@M@Z ; set_remote_float_value

; 194  : 	}
; 195  : 	else

  0004b	eb 39		 jmp	 SHORT $LN3@set_client
$LN2@set_client:

; 196  : 	{
; 197  : 		validate_client_server_local_fn ();

  0004d	e8 00 00 00 00	 call	 ?assert_client_server_local_fn@@YGHXZ ; assert_client_server_local_fn
  00052	85 c0		 test	 eax, eax
  00054	75 18		 jne	 SHORT $LN5@set_client
  00056	a1 00 00 00 00	 mov	 eax, DWORD PTR ?__LINE__Var@?0??set_client_float_value@@YGXPAUENTITY@@W4FLOAT_TYPES@@M@Z@4JA
  0005b	83 c0 09	 add	 eax, 9
  0005e	50		 push	 eax
  0005f	68 00 00 00 00	 push	 OFFSET ??_C@_0EL@GBAIOHOO@c?3?2users?2nhv90?2projects?2eech?2ap@
  00064	68 00 00 00 00	 push	 OFFSET ??_C@_0CB@CFOCLFOK@assert_client_server_local_fn?5?$CI@
  00069	e8 00 00 00 00	 call	 ?process_assert@@YGXPBD0H@Z ; process_assert
$LN5@set_client:

; 198  : 
; 199  : 		set_local_float_value (en, type, value);

  0006e	51		 push	 ecx
  0006f	f3 0f 10 45 10	 movss	 xmm0, DWORD PTR _value$[ebp]
  00074	f3 0f 11 04 24	 movss	 DWORD PTR [esp], xmm0
  00079	8b 45 0c	 mov	 eax, DWORD PTR _type$[ebp]
  0007c	50		 push	 eax
  0007d	8b 4d 08	 mov	 ecx, DWORD PTR _en$[ebp]
  00080	51		 push	 ecx
  00081	e8 00 00 00 00	 call	 ?set_local_float_value@@YGXPAUENTITY@@W4FLOAT_TYPES@@M@Z ; set_local_float_value
$LN3@set_client:

; 200  : 	}
; 201  : }

  00086	5f		 pop	 edi
  00087	5e		 pop	 esi
  00088	5b		 pop	 ebx
  00089	8b e5		 mov	 esp, ebp
  0008b	5d		 pop	 ebp
  0008c	c2 0c 00	 ret	 12			; 0000000cH
?set_client_float_value@@YGXPAUENTITY@@W4FLOAT_TYPES@@M@Z ENDP ; set_client_float_value
_TEXT	ENDS
; Function compile flags: /Odtp /ZI
; File c:\users\nhv90\projects\eech\aphavoc\source\entity\special\task\ts_float.c
;	COMDAT ?set_server_float_value@@YGXPAUENTITY@@W4FLOAT_TYPES@@M@Z
_TEXT	SEGMENT
_en$ = 8						; size = 4
_type$ = 12						; size = 4
_value$ = 16						; size = 4
?set_server_float_value@@YGXPAUENTITY@@W4FLOAT_TYPES@@M@Z PROC ; set_server_float_value, COMDAT

; 173  : {

  00000	55		 push	 ebp
  00001	8b ec		 mov	 ebp, esp
  00003	83 ec 40	 sub	 esp, 64			; 00000040H
  00006	53		 push	 ebx
  00007	56		 push	 esi
  00008	57		 push	 edi

; 174  : 	validate_client_server_local_fn ();

  00009	e8 00 00 00 00	 call	 ?assert_client_server_local_fn@@YGHXZ ; assert_client_server_local_fn
  0000e	85 c0		 test	 eax, eax
  00010	75 18		 jne	 SHORT $LN2@set_server
  00012	a1 00 00 00 00	 mov	 eax, DWORD PTR ?__LINE__Var@?0??set_server_float_value@@YGXPAUENTITY@@W4FLOAT_TYPES@@M@Z@4JA
  00017	83 c0 01	 add	 eax, 1
  0001a	50		 push	 eax
  0001b	68 00 00 00 00	 push	 OFFSET ??_C@_0EL@GBAIOHOO@c?3?2users?2nhv90?2projects?2eech?2ap@
  00020	68 00 00 00 00	 push	 OFFSET ??_C@_0CB@CFOCLFOK@assert_client_server_local_fn?5?$CI@
  00025	e8 00 00 00 00	 call	 ?process_assert@@YGXPBD0H@Z ; process_assert
$LN2@set_server:

; 175  : 
; 176  : 	set_local_float_value (en, type, value);

  0002a	51		 push	 ecx
  0002b	f3 0f 10 45 10	 movss	 xmm0, DWORD PTR _value$[ebp]
  00030	f3 0f 11 04 24	 movss	 DWORD PTR [esp], xmm0
  00035	8b 45 0c	 mov	 eax, DWORD PTR _type$[ebp]
  00038	50		 push	 eax
  00039	8b 4d 08	 mov	 ecx, DWORD PTR _en$[ebp]
  0003c	51		 push	 ecx
  0003d	e8 00 00 00 00	 call	 ?set_local_float_value@@YGXPAUENTITY@@W4FLOAT_TYPES@@M@Z ; set_local_float_value

; 177  : 
; 178  : 	validate_client_server_remote_fn ();

  00042	e8 00 00 00 00	 call	 ?assert_client_server_remote_fn@@YGHXZ ; assert_client_server_remote_fn
  00047	85 c0		 test	 eax, eax
  00049	75 18		 jne	 SHORT $LN3@set_server
  0004b	a1 00 00 00 00	 mov	 eax, DWORD PTR ?__LINE__Var@?0??set_server_float_value@@YGXPAUENTITY@@W4FLOAT_TYPES@@M@Z@4JA
  00050	83 c0 05	 add	 eax, 5
  00053	50		 push	 eax
  00054	68 00 00 00 00	 push	 OFFSET ??_C@_0EL@GBAIOHOO@c?3?2users?2nhv90?2projects?2eech?2ap@
  00059	68 00 00 00 00	 push	 OFFSET ??_C@_0CC@BNNNEGEG@assert_client_server_remote_fn?5@
  0005e	e8 00 00 00 00	 call	 ?process_assert@@YGXPBD0H@Z ; process_assert
$LN3@set_server:

; 179  : 
; 180  : 	set_remote_float_value (en, type, value);

  00063	51		 push	 ecx
  00064	f3 0f 10 45 10	 movss	 xmm0, DWORD PTR _value$[ebp]
  00069	f3 0f 11 04 24	 movss	 DWORD PTR [esp], xmm0
  0006e	8b 45 0c	 mov	 eax, DWORD PTR _type$[ebp]
  00071	50		 push	 eax
  00072	8b 4d 08	 mov	 ecx, DWORD PTR _en$[ebp]
  00075	51		 push	 ecx
  00076	e8 00 00 00 00	 call	 ?set_remote_float_value@@YGXPAUENTITY@@W4FLOAT_TYPES@@M@Z ; set_remote_float_value

; 181  : }

  0007b	5f		 pop	 edi
  0007c	5e		 pop	 esi
  0007d	5b		 pop	 ebx
  0007e	8b e5		 mov	 esp, ebp
  00080	5d		 pop	 ebp
  00081	c2 0c 00	 ret	 12			; 0000000cH
?set_server_float_value@@YGXPAUENTITY@@W4FLOAT_TYPES@@M@Z ENDP ; set_server_float_value
_TEXT	ENDS
; Function compile flags: /Odtp /ZI
; File c:\users\nhv90\projects\eech\aphavoc\source\entity\special\task\ts_float.c
;	COMDAT ?set_remote_float_value@@YGXPAUENTITY@@W4FLOAT_TYPES@@M@Z
_TEXT	SEGMENT
_en$ = 8						; size = 4
_type$ = 12						; size = 4
_value$ = 16						; size = 4
?set_remote_float_value@@YGXPAUENTITY@@W4FLOAT_TYPES@@M@Z PROC ; set_remote_float_value, COMDAT

; 158  : {

  00000	55		 push	 ebp
  00001	8b ec		 mov	 ebp, esp
  00003	83 ec 40	 sub	 esp, 64			; 00000040H
  00006	53		 push	 ebx
  00007	56		 push	 esi
  00008	57		 push	 edi

; 159  : 	#if DEBUG_MODULE
; 160  : 
; 161  : 	debug_log_entity_args (ENTITY_DEBUG_REMOTE, ENTITY_DEBUG_FLOAT_VALUE, en, type, value);
; 162  : 
; 163  : 	#endif
; 164  : 
; 165  : 	transmit_entity_comms_message (ENTITY_COMMS_FLOAT_VALUE, en, type, value);

  00009	f3 0f 5a 45 10	 cvtss2sd xmm0, DWORD PTR _value$[ebp]
  0000e	83 ec 08	 sub	 esp, 8
  00011	f2 0f 11 04 24	 movsd	 QWORD PTR [esp], xmm0
  00016	8b 45 0c	 mov	 eax, DWORD PTR _type$[ebp]
  00019	50		 push	 eax
  0001a	8b 4d 08	 mov	 ecx, DWORD PTR _en$[ebp]
  0001d	51		 push	 ecx
  0001e	6a 16		 push	 22			; 00000016H
  00020	e8 00 00 00 00	 call	 ?transmit_entity_comms_message@@YAXW4ENTITY_COMMS_MESSAGES@@PAUENTITY@@ZZ ; transmit_entity_comms_message
  00025	83 c4 14	 add	 esp, 20			; 00000014H

; 166  : }

  00028	5f		 pop	 edi
  00029	5e		 pop	 esi
  0002a	5b		 pop	 ebx
  0002b	8b e5		 mov	 esp, ebp
  0002d	5d		 pop	 ebp
  0002e	c2 0c 00	 ret	 12			; 0000000cH
?set_remote_float_value@@YGXPAUENTITY@@W4FLOAT_TYPES@@M@Z ENDP ; set_remote_float_value
_TEXT	ENDS
; Function compile flags: /Odtp /ZI
; File c:\users\nhv90\projects\eech\aphavoc\source\entity\special\task\ts_float.c
;	COMDAT ?set_local_float_value@@YGXPAUENTITY@@W4FLOAT_TYPES@@M@Z
_TEXT	SEGMENT
tv88 = -72						; size = 4
tv65 = -72						; size = 4
_raw$ = -4						; size = 4
_en$ = 8						; size = 4
_type$ = 12						; size = 4
_value$ = 16						; size = 4
?set_local_float_value@@YGXPAUENTITY@@W4FLOAT_TYPES@@M@Z PROC ; set_local_float_value, COMDAT

; 80   : {

  00000	55		 push	 ebp
  00001	8b ec		 mov	 ebp, esp
  00003	83 ec 48	 sub	 esp, 72			; 00000048H
  00006	53		 push	 ebx
  00007	56		 push	 esi
  00008	57		 push	 edi

; 81   : 	task
; 82   : 		*raw;
; 83   : 
; 84   : 	#if DEBUG_MODULE
; 85   : 
; 86   : 	debug_log_entity_args (ENTITY_DEBUG_LOCAL, ENTITY_DEBUG_FLOAT_VALUE, en, type, value);
; 87   : 
; 88   : 	#endif
; 89   : 
; 90   : 	raw = (task *) get_local_entity_data (en);

  00009	8b 45 08	 mov	 eax, DWORD PTR _en$[ebp]
  0000c	8b 48 04	 mov	 ecx, DWORD PTR [eax+4]
  0000f	89 4d fc	 mov	 DWORD PTR _raw$[ebp], ecx

; 91   : 
; 92   : 	switch (type)

  00012	8b 45 0c	 mov	 eax, DWORD PTR _type$[ebp]
  00015	89 45 b8	 mov	 DWORD PTR tv65[ebp], eax
  00018	8b 4d b8	 mov	 ecx, DWORD PTR tv65[ebp]
  0001b	83 e9 25	 sub	 ecx, 37			; 00000025H
  0001e	89 4d b8	 mov	 DWORD PTR tv65[ebp], ecx
  00021	83 7d b8 67	 cmp	 DWORD PTR tv65[ebp], 103 ; 00000067H
  00025	77 7a		 ja	 SHORT $LN10@set_local_
  00027	8b 55 b8	 mov	 edx, DWORD PTR tv65[ebp]
  0002a	0f b6 82 00 00
	00 00		 movzx	 eax, BYTE PTR $LN14@set_local_[edx]
  00031	ff 24 85 00 00
	00 00		 jmp	 DWORD PTR $LN15@set_local_[eax*4]
$LN4@set_local_:

; 93   : 	{
; 94   : 		////////////////////////////////////////
; 95   : 		case FLOAT_TYPE_EXPIRE_TIMER:
; 96   : 		////////////////////////////////////////
; 97   : 		{
; 98   : 			raw->expire_timer = value;

  00038	8b 45 fc	 mov	 eax, DWORD PTR _raw$[ebp]
  0003b	f3 0f 10 45 10	 movss	 xmm0, DWORD PTR _value$[ebp]
  00040	f3 0f 11 40 2c	 movss	 DWORD PTR [eax+44], xmm0

; 99   : 
; 100  : 			break;

  00045	e9 c9 00 00 00	 jmp	 $LN2@set_local_
$LN5@set_local_:

; 101  : 		}
; 102  : 		////////////////////////////////////////
; 103  : 		case FLOAT_TYPE_RATING:
; 104  : 		////////////////////////////////////////
; 105  : 		{
; 106  : 			raw->rating = value;

  0004a	8b 45 fc	 mov	 eax, DWORD PTR _raw$[ebp]
  0004d	f3 0f 10 45 10	 movss	 xmm0, DWORD PTR _value$[ebp]
  00052	f3 0f 11 40 20	 movss	 DWORD PTR [eax+32], xmm0

; 107  : 
; 108  : 			break;

  00057	e9 b7 00 00 00	 jmp	 $LN2@set_local_
$LN6@set_local_:

; 109  : 		}
; 110  : 		////////////////////////////////////////
; 111  : 		case FLOAT_TYPE_START_TIME:
; 112  : 		////////////////////////////////////////
; 113  : 		{
; 114  : 			raw->start_time = value;

  0005c	8b 45 fc	 mov	 eax, DWORD PTR _raw$[ebp]
  0005f	f3 0f 10 45 10	 movss	 xmm0, DWORD PTR _value$[ebp]
  00064	f3 0f 11 40 24	 movss	 DWORD PTR [eax+36], xmm0

; 115  : 
; 116  : 			break;

  00069	e9 a5 00 00 00	 jmp	 $LN2@set_local_
$LN7@set_local_:

; 117  : 		}
; 118  : 		////////////////////////////////////////
; 119  : 		case FLOAT_TYPE_STOP_TIMER:
; 120  : 		////////////////////////////////////////
; 121  : 		{
; 122  : 			raw->stop_timer = value;

  0006e	8b 45 fc	 mov	 eax, DWORD PTR _raw$[ebp]
  00071	f3 0f 10 45 10	 movss	 xmm0, DWORD PTR _value$[ebp]
  00076	f3 0f 11 40 28	 movss	 DWORD PTR [eax+40], xmm0

; 123  : 
; 124  : 			break;

  0007b	e9 93 00 00 00	 jmp	 $LN2@set_local_
$LN8@set_local_:

; 125  : 		}
; 126  : 		////////////////////////////////////////
; 127  : 		case FLOAT_TYPE_TASK_PRIORITY:
; 128  : 		////////////////////////////////////////
; 129  : 		{
; 130  : 			raw->task_priority = value;

  00080	8b 45 fc	 mov	 eax, DWORD PTR _raw$[ebp]
  00083	f3 0f 10 45 10	 movss	 xmm0, DWORD PTR _value$[ebp]
  00088	f3 0f 11 40 1c	 movss	 DWORD PTR [eax+28], xmm0

; 131  : 
; 132  : 			break;

  0008d	e9 81 00 00 00	 jmp	 $LN2@set_local_
$LN9@set_local_:

; 133  : 		}
; 134  : 		////////////////////////////////////////
; 135  : 		case FLOAT_TYPE_TASK_USER_DATA:
; 136  : 		////////////////////////////////////////
; 137  : 		{
; 138  : 			raw->task_user_data = value;

  00092	8b 45 fc	 mov	 eax, DWORD PTR _raw$[ebp]
  00095	f3 0f 10 45 10	 movss	 xmm0, DWORD PTR _value$[ebp]
  0009a	f3 0f 11 40 18	 movss	 DWORD PTR [eax+24], xmm0

; 139  : 
; 140  : 			break;

  0009f	eb 72		 jmp	 SHORT $LN2@set_local_
$LN10@set_local_:

; 141  : 		}
; 142  : 		////////////////////////////////////////
; 143  : 		default:
; 144  : 		////////////////////////////////////////
; 145  : 		{
; 146  : 			debug_fatal_invalid_float_type (en, type);

  000a1	83 7d 08 00	 cmp	 DWORD PTR _en$[ebp], 0
  000a5	74 0a		 je	 SHORT $LN12@set_local_
  000a7	8b 45 08	 mov	 eax, DWORD PTR _en$[ebp]
  000aa	8b 08		 mov	 ecx, DWORD PTR [eax]
  000ac	89 4d b8	 mov	 DWORD PTR tv88[ebp], ecx
  000af	eb 21		 jmp	 SHORT $LN13@set_local_
$LN12@set_local_:
  000b1	8b 15 00 00 00
	00		 mov	 edx, DWORD PTR ?__LINE__Var@?0??set_local_float_value@@YGXPAUENTITY@@W4FLOAT_TYPES@@M@Z@4JA
  000b7	83 c2 42	 add	 edx, 66			; 00000042H
  000ba	52		 push	 edx
  000bb	68 00 00 00 00	 push	 OFFSET ??_C@_0EL@GBAIOHOO@c?3?2users?2nhv90?2projects?2eech?2ap@
  000c0	a1 00 00 00 00	 mov	 eax, DWORD PTR ?null_entity_pointer_message@@3PBDB ; null_entity_pointer_message
  000c5	50		 push	 eax
  000c6	e8 00 00 00 00	 call	 ?process_assert@@YGXPBD0H@Z ; process_assert
  000cb	c7 45 b8 00 00
	00 00		 mov	 DWORD PTR tv88[ebp], 0
$LN13@set_local_:
  000d2	8b 0d 00 00 00
	00		 mov	 ecx, DWORD PTR ?__LINE__Var@?0??set_local_float_value@@YGXPAUENTITY@@W4FLOAT_TYPES@@M@Z@4JA
  000d8	83 c1 42	 add	 ecx, 66			; 00000042H
  000db	51		 push	 ecx
  000dc	68 00 00 00 00	 push	 OFFSET ??_C@_0EL@GBAIOHOO@c?3?2users?2nhv90?2projects?2eech?2ap@
  000e1	6b 55 0c 18	 imul	 edx, DWORD PTR _type$[ebp], 24
  000e5	8b 82 00 00 00
	00		 mov	 eax, DWORD PTR ?float_type_database@@3PAUFLOAT_TYPE_DATA@@A[edx]
  000eb	50		 push	 eax
  000ec	8b 4d 08	 mov	 ecx, DWORD PTR _en$[ebp]
  000ef	2b 0d 00 00 00
	00		 sub	 ecx, DWORD PTR ?entities@@3PAUENTITY@@A ; entities
  000f5	c1 f9 04	 sar	 ecx, 4
  000f8	51		 push	 ecx
  000f9	6b 55 b8 0c	 imul	 edx, DWORD PTR tv88[ebp], 12
  000fd	8b 82 00 00 00
	00		 mov	 eax, DWORD PTR ?entity_type_database@@3PAUENTITY_TYPE_DATA@@A[edx]
  00103	50		 push	 eax
  00104	8b 0d 00 00 00
	00		 mov	 ecx, DWORD PTR ?debug_fatal_invalid_float_type_message@@3PBDB ; debug_fatal_invalid_float_type_message
  0010a	51		 push	 ecx
  0010b	e8 00 00 00 00	 call	 ?debug_fatal@@YAXPBDZZ	; debug_fatal
  00110	83 c4 18	 add	 esp, 24			; 00000018H
$LN2@set_local_:

; 147  : 
; 148  : 			break;
; 149  : 		}
; 150  : 	}
; 151  : }

  00113	5f		 pop	 edi
  00114	5e		 pop	 esi
  00115	5b		 pop	 ebx
  00116	8b e5		 mov	 esp, ebp
  00118	5d		 pop	 ebp
  00119	c2 0c 00	 ret	 12			; 0000000cH
$LN15@set_local_:
  0011c	00 00 00 00	 DD	 $LN4@set_local_
  00120	00 00 00 00	 DD	 $LN5@set_local_
  00124	00 00 00 00	 DD	 $LN6@set_local_
  00128	00 00 00 00	 DD	 $LN7@set_local_
  0012c	00 00 00 00	 DD	 $LN8@set_local_
  00130	00 00 00 00	 DD	 $LN9@set_local_
  00134	00 00 00 00	 DD	 $LN10@set_local_
$LN14@set_local_:
  00138	00		 DB	 0
  00139	06		 DB	 6
  0013a	06		 DB	 6
  0013b	06		 DB	 6
  0013c	06		 DB	 6
  0013d	06		 DB	 6
  0013e	06		 DB	 6
  0013f	06		 DB	 6
  00140	06		 DB	 6
  00141	06		 DB	 6
  00142	06		 DB	 6
  00143	06		 DB	 6
  00144	06		 DB	 6
  00145	06		 DB	 6
  00146	06		 DB	 6
  00147	06		 DB	 6
  00148	06		 DB	 6
  00149	06		 DB	 6
  0014a	06		 DB	 6
  0014b	06		 DB	 6
  0014c	06		 DB	 6
  0014d	06		 DB	 6
  0014e	06		 DB	 6
  0014f	06		 DB	 6
  00150	06		 DB	 6
  00151	06		 DB	 6
  00152	06		 DB	 6
  00153	06		 DB	 6
  00154	06		 DB	 6
  00155	06		 DB	 6
  00156	06		 DB	 6
  00157	06		 DB	 6
  00158	06		 DB	 6
  00159	06		 DB	 6
  0015a	06		 DB	 6
  0015b	06		 DB	 6
  0015c	06		 DB	 6
  0015d	06		 DB	 6
  0015e	06		 DB	 6
  0015f	06		 DB	 6
  00160	06		 DB	 6
  00161	06		 DB	 6
  00162	06		 DB	 6
  00163	06		 DB	 6
  00164	06		 DB	 6
  00165	06		 DB	 6
  00166	06		 DB	 6
  00167	06		 DB	 6
  00168	06		 DB	 6
  00169	06		 DB	 6
  0016a	06		 DB	 6
  0016b	06		 DB	 6
  0016c	06		 DB	 6
  0016d	06		 DB	 6
  0016e	06		 DB	 6
  0016f	06		 DB	 6
  00170	06		 DB	 6
  00171	06		 DB	 6
  00172	06		 DB	 6
  00173	06		 DB	 6
  00174	06		 DB	 6
  00175	06		 DB	 6
  00176	06		 DB	 6
  00177	06		 DB	 6
  00178	06		 DB	 6
  00179	06		 DB	 6
  0017a	06		 DB	 6
  0017b	06		 DB	 6
  0017c	06		 DB	 6
  0017d	06		 DB	 6
  0017e	06		 DB	 6
  0017f	01		 DB	 1
  00180	06		 DB	 6
  00181	06		 DB	 6
  00182	06		 DB	 6
  00183	06		 DB	 6
  00184	06		 DB	 6
  00185	06		 DB	 6
  00186	06		 DB	 6
  00187	06		 DB	 6
  00188	06		 DB	 6
  00189	06		 DB	 6
  0018a	06		 DB	 6
  0018b	06		 DB	 6
  0018c	06		 DB	 6
  0018d	06		 DB	 6
  0018e	06		 DB	 6
  0018f	06		 DB	 6
  00190	02		 DB	 2
  00191	03		 DB	 3
  00192	06		 DB	 6
  00193	06		 DB	 6
  00194	06		 DB	 6
  00195	06		 DB	 6
  00196	06		 DB	 6
  00197	06		 DB	 6
  00198	06		 DB	 6
  00199	06		 DB	 6
  0019a	06		 DB	 6
  0019b	06		 DB	 6
  0019c	06		 DB	 6
  0019d	04		 DB	 4
  0019e	06		 DB	 6
  0019f	05		 DB	 5
?set_local_float_value@@YGXPAUENTITY@@W4FLOAT_TYPES@@M@Z ENDP ; set_local_float_value
_TEXT	ENDS
; Function compile flags: /Odtp /ZI
; File c:\users\nhv90\projects\eech\aphavoc\source\entity\special\task\ts_float.c
;	COMDAT ?overload_task_float_value_functions@@YGXXZ
_TEXT	SEGMENT
?overload_task_float_value_functions@@YGXXZ PROC	; overload_task_float_value_functions, COMDAT

; 310  : {

  00000	55		 push	 ebp
  00001	8b ec		 mov	 ebp, esp
  00003	83 ec 40	 sub	 esp, 64			; 00000040H
  00006	53		 push	 ebx
  00007	56		 push	 esi
  00008	57		 push	 edi

; 311  : 
; 312  : 	fn_get_local_entity_float_value				[ENTITY_TYPE_TASK][FLOAT_TYPE_ELAPSED_MISSION_TIME]				= get_local_float_value;

  00009	b8 bc 02 00 00	 mov	 eax, 700		; 000002bcH
  0000e	6b c8 22	 imul	 ecx, eax, 34
  00011	ba 04 00 00 00	 mov	 edx, 4
  00016	6b c2 22	 imul	 eax, edx, 34
  00019	c7 84 01 00 00
	00 00 00 00 00
	00		 mov	 DWORD PTR ?fn_get_local_entity_float_value@@3PAY0KP@P6GMPAUENTITY@@W4FLOAT_TYPES@@@ZA[ecx+eax], OFFSET ?get_local_float_value@@YGMPAUENTITY@@W4FLOAT_TYPES@@@Z ; get_local_float_value

; 313  : 
; 314  : 	fn_set_local_entity_raw_float_value			[ENTITY_TYPE_TASK][FLOAT_TYPE_EXPIRE_TIMER]							= set_local_float_value;

  00024	b8 bc 02 00 00	 mov	 eax, 700		; 000002bcH
  00029	6b c8 22	 imul	 ecx, eax, 34
  0002c	ba 04 00 00 00	 mov	 edx, 4
  00031	6b c2 25	 imul	 eax, edx, 37
  00034	c7 84 01 00 00
	00 00 00 00 00
	00		 mov	 DWORD PTR ?fn_set_local_entity_raw_float_value@@3PAY0KP@P6GXPAUENTITY@@W4FLOAT_TYPES@@M@ZA[ecx+eax], OFFSET ?set_local_float_value@@YGXPAUENTITY@@W4FLOAT_TYPES@@M@Z ; set_local_float_value

; 315  : 	fn_set_local_entity_float_value				[ENTITY_TYPE_TASK][FLOAT_TYPE_EXPIRE_TIMER]							= set_local_float_value;

  0003f	b8 bc 02 00 00	 mov	 eax, 700		; 000002bcH
  00044	6b c8 22	 imul	 ecx, eax, 34
  00047	ba 04 00 00 00	 mov	 edx, 4
  0004c	6b c2 25	 imul	 eax, edx, 37
  0004f	c7 84 01 00 00
	00 00 00 00 00
	00		 mov	 DWORD PTR ?fn_set_local_entity_float_value@@3PAY0KP@P6GXPAUENTITY@@W4FLOAT_TYPES@@M@ZA[ecx+eax], OFFSET ?set_local_float_value@@YGXPAUENTITY@@W4FLOAT_TYPES@@M@Z ; set_local_float_value

; 316  : 	fn_set_client_server_entity_float_value	[ENTITY_TYPE_TASK][FLOAT_TYPE_EXPIRE_TIMER][COMMS_MODEL_SERVER]	= set_server_float_value;

  0005a	b8 78 05 00 00	 mov	 eax, 1400		; 00000578H
  0005f	6b c8 22	 imul	 ecx, eax, 34
  00062	ba 08 00 00 00	 mov	 edx, 8
  00067	6b c2 25	 imul	 eax, edx, 37
  0006a	8d 8c 01 00 00
	00 00		 lea	 ecx, DWORD PTR ?fn_set_client_server_entity_float_value@@3PAY1KP@1P6GXPAUENTITY@@W4FLOAT_TYPES@@M@ZA[ecx+eax]
  00071	ba 04 00 00 00	 mov	 edx, 4
  00076	6b c2 00	 imul	 eax, edx, 0
  00079	c7 04 01 00 00
	00 00		 mov	 DWORD PTR [ecx+eax], OFFSET ?set_server_float_value@@YGXPAUENTITY@@W4FLOAT_TYPES@@M@Z ; set_server_float_value

; 317  : 	fn_set_client_server_entity_float_value	[ENTITY_TYPE_TASK][FLOAT_TYPE_EXPIRE_TIMER][COMMS_MODEL_CLIENT]	= set_client_float_value;

  00080	b8 78 05 00 00	 mov	 eax, 1400		; 00000578H
  00085	6b c8 22	 imul	 ecx, eax, 34
  00088	ba 08 00 00 00	 mov	 edx, 8
  0008d	6b c2 25	 imul	 eax, edx, 37
  00090	8d 8c 01 00 00
	00 00		 lea	 ecx, DWORD PTR ?fn_set_client_server_entity_float_value@@3PAY1KP@1P6GXPAUENTITY@@W4FLOAT_TYPES@@M@ZA[ecx+eax]
  00097	ba 04 00 00 00	 mov	 edx, 4
  0009c	c1 e2 00	 shl	 edx, 0
  0009f	c7 04 11 00 00
	00 00		 mov	 DWORD PTR [ecx+edx], OFFSET ?set_client_float_value@@YGXPAUENTITY@@W4FLOAT_TYPES@@M@Z ; set_client_float_value

; 318  : 	fn_get_local_entity_float_value				[ENTITY_TYPE_TASK][FLOAT_TYPE_EXPIRE_TIMER]							= get_local_float_value;

  000a6	b8 bc 02 00 00	 mov	 eax, 700		; 000002bcH
  000ab	6b c8 22	 imul	 ecx, eax, 34
  000ae	ba 04 00 00 00	 mov	 edx, 4
  000b3	6b c2 25	 imul	 eax, edx, 37
  000b6	c7 84 01 00 00
	00 00 00 00 00
	00		 mov	 DWORD PTR ?fn_get_local_entity_float_value@@3PAY0KP@P6GMPAUENTITY@@W4FLOAT_TYPES@@@ZA[ecx+eax], OFFSET ?get_local_float_value@@YGMPAUENTITY@@W4FLOAT_TYPES@@@Z ; get_local_float_value

; 319  : 
; 320  : 	fn_set_local_entity_raw_float_value			[ENTITY_TYPE_TASK][FLOAT_TYPE_RATING]									= set_local_float_value;

  000c1	b8 bc 02 00 00	 mov	 eax, 700		; 000002bcH
  000c6	6b c8 22	 imul	 ecx, eax, 34
  000c9	ba 04 00 00 00	 mov	 edx, 4
  000ce	6b c2 6c	 imul	 eax, edx, 108
  000d1	c7 84 01 00 00
	00 00 00 00 00
	00		 mov	 DWORD PTR ?fn_set_local_entity_raw_float_value@@3PAY0KP@P6GXPAUENTITY@@W4FLOAT_TYPES@@M@ZA[ecx+eax], OFFSET ?set_local_float_value@@YGXPAUENTITY@@W4FLOAT_TYPES@@M@Z ; set_local_float_value

; 321  : 	fn_set_local_entity_float_value				[ENTITY_TYPE_TASK][FLOAT_TYPE_RATING]									= set_local_float_value;

  000dc	b8 bc 02 00 00	 mov	 eax, 700		; 000002bcH
  000e1	6b c8 22	 imul	 ecx, eax, 34
  000e4	ba 04 00 00 00	 mov	 edx, 4
  000e9	6b c2 6c	 imul	 eax, edx, 108
  000ec	c7 84 01 00 00
	00 00 00 00 00
	00		 mov	 DWORD PTR ?fn_set_local_entity_float_value@@3PAY0KP@P6GXPAUENTITY@@W4FLOAT_TYPES@@M@ZA[ecx+eax], OFFSET ?set_local_float_value@@YGXPAUENTITY@@W4FLOAT_TYPES@@M@Z ; set_local_float_value

; 322  : 	fn_set_client_server_entity_float_value	[ENTITY_TYPE_TASK][FLOAT_TYPE_RATING][COMMS_MODEL_SERVER]		= set_server_float_value;

  000f7	b8 78 05 00 00	 mov	 eax, 1400		; 00000578H
  000fc	6b c8 22	 imul	 ecx, eax, 34
  000ff	ba 08 00 00 00	 mov	 edx, 8
  00104	6b c2 6c	 imul	 eax, edx, 108
  00107	8d 8c 01 00 00
	00 00		 lea	 ecx, DWORD PTR ?fn_set_client_server_entity_float_value@@3PAY1KP@1P6GXPAUENTITY@@W4FLOAT_TYPES@@M@ZA[ecx+eax]
  0010e	ba 04 00 00 00	 mov	 edx, 4
  00113	6b c2 00	 imul	 eax, edx, 0
  00116	c7 04 01 00 00
	00 00		 mov	 DWORD PTR [ecx+eax], OFFSET ?set_server_float_value@@YGXPAUENTITY@@W4FLOAT_TYPES@@M@Z ; set_server_float_value

; 323  : 	fn_set_client_server_entity_float_value	[ENTITY_TYPE_TASK][FLOAT_TYPE_RATING][COMMS_MODEL_CLIENT]		= set_client_float_value;

  0011d	b8 78 05 00 00	 mov	 eax, 1400		; 00000578H
  00122	6b c8 22	 imul	 ecx, eax, 34
  00125	ba 08 00 00 00	 mov	 edx, 8
  0012a	6b c2 6c	 imul	 eax, edx, 108
  0012d	8d 8c 01 00 00
	00 00		 lea	 ecx, DWORD PTR ?fn_set_client_server_entity_float_value@@3PAY1KP@1P6GXPAUENTITY@@W4FLOAT_TYPES@@M@ZA[ecx+eax]
  00134	ba 04 00 00 00	 mov	 edx, 4
  00139	c1 e2 00	 shl	 edx, 0
  0013c	c7 04 11 00 00
	00 00		 mov	 DWORD PTR [ecx+edx], OFFSET ?set_client_float_value@@YGXPAUENTITY@@W4FLOAT_TYPES@@M@Z ; set_client_float_value

; 324  : 	fn_get_local_entity_float_value				[ENTITY_TYPE_TASK][FLOAT_TYPE_RATING]									= get_local_float_value;

  00143	b8 bc 02 00 00	 mov	 eax, 700		; 000002bcH
  00148	6b c8 22	 imul	 ecx, eax, 34
  0014b	ba 04 00 00 00	 mov	 edx, 4
  00150	6b c2 6c	 imul	 eax, edx, 108
  00153	c7 84 01 00 00
	00 00 00 00 00
	00		 mov	 DWORD PTR ?fn_get_local_entity_float_value@@3PAY0KP@P6GMPAUENTITY@@W4FLOAT_TYPES@@@ZA[ecx+eax], OFFSET ?get_local_float_value@@YGMPAUENTITY@@W4FLOAT_TYPES@@@Z ; get_local_float_value

; 325  : 
; 326  : 	fn_set_local_entity_raw_float_value			[ENTITY_TYPE_TASK][FLOAT_TYPE_START_TIME]								= set_local_float_value;

  0015e	b8 bc 02 00 00	 mov	 eax, 700		; 000002bcH
  00163	6b c8 22	 imul	 ecx, eax, 34
  00166	ba 04 00 00 00	 mov	 edx, 4
  0016b	6b c2 7d	 imul	 eax, edx, 125
  0016e	c7 84 01 00 00
	00 00 00 00 00
	00		 mov	 DWORD PTR ?fn_set_local_entity_raw_float_value@@3PAY0KP@P6GXPAUENTITY@@W4FLOAT_TYPES@@M@ZA[ecx+eax], OFFSET ?set_local_float_value@@YGXPAUENTITY@@W4FLOAT_TYPES@@M@Z ; set_local_float_value

; 327  : 	fn_set_local_entity_float_value				[ENTITY_TYPE_TASK][FLOAT_TYPE_START_TIME]								= set_local_float_value;

  00179	b8 bc 02 00 00	 mov	 eax, 700		; 000002bcH
  0017e	6b c8 22	 imul	 ecx, eax, 34
  00181	ba 04 00 00 00	 mov	 edx, 4
  00186	6b c2 7d	 imul	 eax, edx, 125
  00189	c7 84 01 00 00
	00 00 00 00 00
	00		 mov	 DWORD PTR ?fn_set_local_entity_float_value@@3PAY0KP@P6GXPAUENTITY@@W4FLOAT_TYPES@@M@ZA[ecx+eax], OFFSET ?set_local_float_value@@YGXPAUENTITY@@W4FLOAT_TYPES@@M@Z ; set_local_float_value

; 328  : 	fn_set_client_server_entity_float_value	[ENTITY_TYPE_TASK][FLOAT_TYPE_START_TIME][COMMS_MODEL_SERVER]	= set_server_float_value;

  00194	b8 78 05 00 00	 mov	 eax, 1400		; 00000578H
  00199	6b c8 22	 imul	 ecx, eax, 34
  0019c	ba 08 00 00 00	 mov	 edx, 8
  001a1	6b c2 7d	 imul	 eax, edx, 125
  001a4	8d 8c 01 00 00
	00 00		 lea	 ecx, DWORD PTR ?fn_set_client_server_entity_float_value@@3PAY1KP@1P6GXPAUENTITY@@W4FLOAT_TYPES@@M@ZA[ecx+eax]
  001ab	ba 04 00 00 00	 mov	 edx, 4
  001b0	6b c2 00	 imul	 eax, edx, 0
  001b3	c7 04 01 00 00
	00 00		 mov	 DWORD PTR [ecx+eax], OFFSET ?set_server_float_value@@YGXPAUENTITY@@W4FLOAT_TYPES@@M@Z ; set_server_float_value

; 329  : 	fn_set_client_server_entity_float_value	[ENTITY_TYPE_TASK][FLOAT_TYPE_START_TIME][COMMS_MODEL_CLIENT]	= set_client_float_value;

  001ba	b8 78 05 00 00	 mov	 eax, 1400		; 00000578H
  001bf	6b c8 22	 imul	 ecx, eax, 34
  001c2	ba 08 00 00 00	 mov	 edx, 8
  001c7	6b c2 7d	 imul	 eax, edx, 125
  001ca	8d 8c 01 00 00
	00 00		 lea	 ecx, DWORD PTR ?fn_set_client_server_entity_float_value@@3PAY1KP@1P6GXPAUENTITY@@W4FLOAT_TYPES@@M@ZA[ecx+eax]
  001d1	ba 04 00 00 00	 mov	 edx, 4
  001d6	c1 e2 00	 shl	 edx, 0
  001d9	c7 04 11 00 00
	00 00		 mov	 DWORD PTR [ecx+edx], OFFSET ?set_client_float_value@@YGXPAUENTITY@@W4FLOAT_TYPES@@M@Z ; set_client_float_value

; 330  : 	fn_get_local_entity_float_value				[ENTITY_TYPE_TASK][FLOAT_TYPE_START_TIME]								= get_local_float_value;

  001e0	b8 bc 02 00 00	 mov	 eax, 700		; 000002bcH
  001e5	6b c8 22	 imul	 ecx, eax, 34
  001e8	ba 04 00 00 00	 mov	 edx, 4
  001ed	6b c2 7d	 imul	 eax, edx, 125
  001f0	c7 84 01 00 00
	00 00 00 00 00
	00		 mov	 DWORD PTR ?fn_get_local_entity_float_value@@3PAY0KP@P6GMPAUENTITY@@W4FLOAT_TYPES@@@ZA[ecx+eax], OFFSET ?get_local_float_value@@YGMPAUENTITY@@W4FLOAT_TYPES@@@Z ; get_local_float_value

; 331  : 
; 332  : 	fn_set_local_entity_raw_float_value			[ENTITY_TYPE_TASK][FLOAT_TYPE_STOP_TIMER]								= set_local_float_value;

  001fb	b8 bc 02 00 00	 mov	 eax, 700		; 000002bcH
  00200	6b c8 22	 imul	 ecx, eax, 34
  00203	ba 04 00 00 00	 mov	 edx, 4
  00208	6b c2 7e	 imul	 eax, edx, 126
  0020b	c7 84 01 00 00
	00 00 00 00 00
	00		 mov	 DWORD PTR ?fn_set_local_entity_raw_float_value@@3PAY0KP@P6GXPAUENTITY@@W4FLOAT_TYPES@@M@ZA[ecx+eax], OFFSET ?set_local_float_value@@YGXPAUENTITY@@W4FLOAT_TYPES@@M@Z ; set_local_float_value

; 333  : 	fn_set_local_entity_float_value				[ENTITY_TYPE_TASK][FLOAT_TYPE_STOP_TIMER]								= set_local_float_value;

  00216	b8 bc 02 00 00	 mov	 eax, 700		; 000002bcH
  0021b	6b c8 22	 imul	 ecx, eax, 34
  0021e	ba 04 00 00 00	 mov	 edx, 4
  00223	6b c2 7e	 imul	 eax, edx, 126
  00226	c7 84 01 00 00
	00 00 00 00 00
	00		 mov	 DWORD PTR ?fn_set_local_entity_float_value@@3PAY0KP@P6GXPAUENTITY@@W4FLOAT_TYPES@@M@ZA[ecx+eax], OFFSET ?set_local_float_value@@YGXPAUENTITY@@W4FLOAT_TYPES@@M@Z ; set_local_float_value

; 334  : 	fn_set_client_server_entity_float_value	[ENTITY_TYPE_TASK][FLOAT_TYPE_STOP_TIMER][COMMS_MODEL_SERVER]	= set_server_float_value;

  00231	b8 78 05 00 00	 mov	 eax, 1400		; 00000578H
  00236	6b c8 22	 imul	 ecx, eax, 34
  00239	ba 08 00 00 00	 mov	 edx, 8
  0023e	6b c2 7e	 imul	 eax, edx, 126
  00241	8d 8c 01 00 00
	00 00		 lea	 ecx, DWORD PTR ?fn_set_client_server_entity_float_value@@3PAY1KP@1P6GXPAUENTITY@@W4FLOAT_TYPES@@M@ZA[ecx+eax]
  00248	ba 04 00 00 00	 mov	 edx, 4
  0024d	6b c2 00	 imul	 eax, edx, 0
  00250	c7 04 01 00 00
	00 00		 mov	 DWORD PTR [ecx+eax], OFFSET ?set_server_float_value@@YGXPAUENTITY@@W4FLOAT_TYPES@@M@Z ; set_server_float_value

; 335  : 	fn_set_client_server_entity_float_value	[ENTITY_TYPE_TASK][FLOAT_TYPE_STOP_TIMER][COMMS_MODEL_CLIENT]	= set_client_float_value;

  00257	b8 78 05 00 00	 mov	 eax, 1400		; 00000578H
  0025c	6b c8 22	 imul	 ecx, eax, 34
  0025f	ba 08 00 00 00	 mov	 edx, 8
  00264	6b c2 7e	 imul	 eax, edx, 126
  00267	8d 8c 01 00 00
	00 00		 lea	 ecx, DWORD PTR ?fn_set_client_server_entity_float_value@@3PAY1KP@1P6GXPAUENTITY@@W4FLOAT_TYPES@@M@ZA[ecx+eax]
  0026e	ba 04 00 00 00	 mov	 edx, 4
  00273	c1 e2 00	 shl	 edx, 0
  00276	c7 04 11 00 00
	00 00		 mov	 DWORD PTR [ecx+edx], OFFSET ?set_client_float_value@@YGXPAUENTITY@@W4FLOAT_TYPES@@M@Z ; set_client_float_value

; 336  : 	fn_get_local_entity_float_value				[ENTITY_TYPE_TASK][FLOAT_TYPE_STOP_TIMER]								= get_local_float_value;

  0027d	b8 bc 02 00 00	 mov	 eax, 700		; 000002bcH
  00282	6b c8 22	 imul	 ecx, eax, 34
  00285	ba 04 00 00 00	 mov	 edx, 4
  0028a	6b c2 7e	 imul	 eax, edx, 126
  0028d	c7 84 01 00 00
	00 00 00 00 00
	00		 mov	 DWORD PTR ?fn_get_local_entity_float_value@@3PAY0KP@P6GMPAUENTITY@@W4FLOAT_TYPES@@@ZA[ecx+eax], OFFSET ?get_local_float_value@@YGMPAUENTITY@@W4FLOAT_TYPES@@@Z ; get_local_float_value

; 337  : 
; 338  : 	fn_get_local_entity_float_value				[ENTITY_TYPE_TASK][FLOAT_TYPE_TASK_DEFAULT_PRIORITY]					= get_local_float_value;

  00298	b8 bc 02 00 00	 mov	 eax, 700		; 000002bcH
  0029d	6b c8 22	 imul	 ecx, eax, 34
  002a0	ba 04 00 00 00	 mov	 edx, 4
  002a5	69 c2 89 00 00
	00		 imul	 eax, edx, 137
  002ab	c7 84 01 00 00
	00 00 00 00 00
	00		 mov	 DWORD PTR ?fn_get_local_entity_float_value@@3PAY0KP@P6GMPAUENTITY@@W4FLOAT_TYPES@@@ZA[ecx+eax], OFFSET ?get_local_float_value@@YGMPAUENTITY@@W4FLOAT_TYPES@@@Z ; get_local_float_value

; 339  : 
; 340  : 	fn_set_local_entity_raw_float_value			[ENTITY_TYPE_TASK][FLOAT_TYPE_TASK_PRIORITY]								= set_local_float_value;

  002b6	b8 bc 02 00 00	 mov	 eax, 700		; 000002bcH
  002bb	6b c8 22	 imul	 ecx, eax, 34
  002be	ba 04 00 00 00	 mov	 edx, 4
  002c3	69 c2 8a 00 00
	00		 imul	 eax, edx, 138
  002c9	c7 84 01 00 00
	00 00 00 00 00
	00		 mov	 DWORD PTR ?fn_set_local_entity_raw_float_value@@3PAY0KP@P6GXPAUENTITY@@W4FLOAT_TYPES@@M@ZA[ecx+eax], OFFSET ?set_local_float_value@@YGXPAUENTITY@@W4FLOAT_TYPES@@M@Z ; set_local_float_value

; 341  : 	fn_set_local_entity_float_value				[ENTITY_TYPE_TASK][FLOAT_TYPE_TASK_PRIORITY]								= set_local_float_value;

  002d4	b8 bc 02 00 00	 mov	 eax, 700		; 000002bcH
  002d9	6b c8 22	 imul	 ecx, eax, 34
  002dc	ba 04 00 00 00	 mov	 edx, 4
  002e1	69 c2 8a 00 00
	00		 imul	 eax, edx, 138
  002e7	c7 84 01 00 00
	00 00 00 00 00
	00		 mov	 DWORD PTR ?fn_set_local_entity_float_value@@3PAY0KP@P6GXPAUENTITY@@W4FLOAT_TYPES@@M@ZA[ecx+eax], OFFSET ?set_local_float_value@@YGXPAUENTITY@@W4FLOAT_TYPES@@M@Z ; set_local_float_value

; 342  : 	fn_set_client_server_entity_float_value	[ENTITY_TYPE_TASK][FLOAT_TYPE_TASK_PRIORITY][COMMS_MODEL_SERVER]	= set_server_float_value;

  002f2	b8 78 05 00 00	 mov	 eax, 1400		; 00000578H
  002f7	6b c8 22	 imul	 ecx, eax, 34
  002fa	ba 08 00 00 00	 mov	 edx, 8
  002ff	69 c2 8a 00 00
	00		 imul	 eax, edx, 138
  00305	8d 8c 01 00 00
	00 00		 lea	 ecx, DWORD PTR ?fn_set_client_server_entity_float_value@@3PAY1KP@1P6GXPAUENTITY@@W4FLOAT_TYPES@@M@ZA[ecx+eax]
  0030c	ba 04 00 00 00	 mov	 edx, 4
  00311	6b c2 00	 imul	 eax, edx, 0
  00314	c7 04 01 00 00
	00 00		 mov	 DWORD PTR [ecx+eax], OFFSET ?set_server_float_value@@YGXPAUENTITY@@W4FLOAT_TYPES@@M@Z ; set_server_float_value

; 343  : 	fn_set_client_server_entity_float_value	[ENTITY_TYPE_TASK][FLOAT_TYPE_TASK_PRIORITY][COMMS_MODEL_CLIENT]	= set_client_float_value;

  0031b	b8 78 05 00 00	 mov	 eax, 1400		; 00000578H
  00320	6b c8 22	 imul	 ecx, eax, 34
  00323	ba 08 00 00 00	 mov	 edx, 8
  00328	69 c2 8a 00 00
	00		 imul	 eax, edx, 138
  0032e	8d 8c 01 00 00
	00 00		 lea	 ecx, DWORD PTR ?fn_set_client_server_entity_float_value@@3PAY1KP@1P6GXPAUENTITY@@W4FLOAT_TYPES@@M@ZA[ecx+eax]
  00335	ba 04 00 00 00	 mov	 edx, 4
  0033a	c1 e2 00	 shl	 edx, 0
  0033d	c7 04 11 00 00
	00 00		 mov	 DWORD PTR [ecx+edx], OFFSET ?set_client_float_value@@YGXPAUENTITY@@W4FLOAT_TYPES@@M@Z ; set_client_float_value

; 344  : 	fn_get_local_entity_float_value				[ENTITY_TYPE_TASK][FLOAT_TYPE_TASK_PRIORITY]								= get_local_float_value;

  00344	b8 bc 02 00 00	 mov	 eax, 700		; 000002bcH
  00349	6b c8 22	 imul	 ecx, eax, 34
  0034c	ba 04 00 00 00	 mov	 edx, 4
  00351	69 c2 8a 00 00
	00		 imul	 eax, edx, 138
  00357	c7 84 01 00 00
	00 00 00 00 00
	00		 mov	 DWORD PTR ?fn_get_local_entity_float_value@@3PAY0KP@P6GMPAUENTITY@@W4FLOAT_TYPES@@@ZA[ecx+eax], OFFSET ?get_local_float_value@@YGMPAUENTITY@@W4FLOAT_TYPES@@@Z ; get_local_float_value

; 345  : 
; 346  : 	fn_set_local_entity_raw_float_value			[ENTITY_TYPE_TASK][FLOAT_TYPE_TASK_USER_DATA]							= set_local_float_value;

  00362	b8 bc 02 00 00	 mov	 eax, 700		; 000002bcH
  00367	6b c8 22	 imul	 ecx, eax, 34
  0036a	ba 04 00 00 00	 mov	 edx, 4
  0036f	69 c2 8c 00 00
	00		 imul	 eax, edx, 140
  00375	c7 84 01 00 00
	00 00 00 00 00
	00		 mov	 DWORD PTR ?fn_set_local_entity_raw_float_value@@3PAY0KP@P6GXPAUENTITY@@W4FLOAT_TYPES@@M@ZA[ecx+eax], OFFSET ?set_local_float_value@@YGXPAUENTITY@@W4FLOAT_TYPES@@M@Z ; set_local_float_value

; 347  : 	fn_set_local_entity_float_value				[ENTITY_TYPE_TASK][FLOAT_TYPE_TASK_USER_DATA]							= set_local_float_value;

  00380	b8 bc 02 00 00	 mov	 eax, 700		; 000002bcH
  00385	6b c8 22	 imul	 ecx, eax, 34
  00388	ba 04 00 00 00	 mov	 edx, 4
  0038d	69 c2 8c 00 00
	00		 imul	 eax, edx, 140
  00393	c7 84 01 00 00
	00 00 00 00 00
	00		 mov	 DWORD PTR ?fn_set_local_entity_float_value@@3PAY0KP@P6GXPAUENTITY@@W4FLOAT_TYPES@@M@ZA[ecx+eax], OFFSET ?set_local_float_value@@YGXPAUENTITY@@W4FLOAT_TYPES@@M@Z ; set_local_float_value

; 348  : 	fn_set_client_server_entity_float_value	[ENTITY_TYPE_TASK][FLOAT_TYPE_TASK_USER_DATA][COMMS_MODEL_SERVER]	= set_server_float_value;

  0039e	b8 78 05 00 00	 mov	 eax, 1400		; 00000578H
  003a3	6b c8 22	 imul	 ecx, eax, 34
  003a6	ba 08 00 00 00	 mov	 edx, 8
  003ab	69 c2 8c 00 00
	00		 imul	 eax, edx, 140
  003b1	8d 8c 01 00 00
	00 00		 lea	 ecx, DWORD PTR ?fn_set_client_server_entity_float_value@@3PAY1KP@1P6GXPAUENTITY@@W4FLOAT_TYPES@@M@ZA[ecx+eax]
  003b8	ba 04 00 00 00	 mov	 edx, 4
  003bd	6b c2 00	 imul	 eax, edx, 0
  003c0	c7 04 01 00 00
	00 00		 mov	 DWORD PTR [ecx+eax], OFFSET ?set_server_float_value@@YGXPAUENTITY@@W4FLOAT_TYPES@@M@Z ; set_server_float_value

; 349  : 	fn_set_client_server_entity_float_value	[ENTITY_TYPE_TASK][FLOAT_TYPE_TASK_USER_DATA][COMMS_MODEL_CLIENT]	= set_client_float_value;

  003c7	b8 78 05 00 00	 mov	 eax, 1400		; 00000578H
  003cc	6b c8 22	 imul	 ecx, eax, 34
  003cf	ba 08 00 00 00	 mov	 edx, 8
  003d4	69 c2 8c 00 00
	00		 imul	 eax, edx, 140
  003da	8d 8c 01 00 00
	00 00		 lea	 ecx, DWORD PTR ?fn_set_client_server_entity_float_value@@3PAY1KP@1P6GXPAUENTITY@@W4FLOAT_TYPES@@M@ZA[ecx+eax]
  003e1	ba 04 00 00 00	 mov	 edx, 4
  003e6	c1 e2 00	 shl	 edx, 0
  003e9	c7 04 11 00 00
	00 00		 mov	 DWORD PTR [ecx+edx], OFFSET ?set_client_float_value@@YGXPAUENTITY@@W4FLOAT_TYPES@@M@Z ; set_client_float_value

; 350  : 	fn_get_local_entity_float_value				[ENTITY_TYPE_TASK][FLOAT_TYPE_TASK_USER_DATA]							= get_local_float_value;

  003f0	b8 bc 02 00 00	 mov	 eax, 700		; 000002bcH
  003f5	6b c8 22	 imul	 ecx, eax, 34
  003f8	ba 04 00 00 00	 mov	 edx, 4
  003fd	69 c2 8c 00 00
	00		 imul	 eax, edx, 140
  00403	c7 84 01 00 00
	00 00 00 00 00
	00		 mov	 DWORD PTR ?fn_get_local_entity_float_value@@3PAY0KP@P6GMPAUENTITY@@W4FLOAT_TYPES@@@ZA[ecx+eax], OFFSET ?get_local_float_value@@YGMPAUENTITY@@W4FLOAT_TYPES@@@Z ; get_local_float_value

; 351  : }

  0040e	5f		 pop	 edi
  0040f	5e		 pop	 esi
  00410	5b		 pop	 ebx
  00411	8b e5		 mov	 esp, ebp
  00413	5d		 pop	 ebp
  00414	c3		 ret	 0
?overload_task_float_value_functions@@YGXXZ ENDP	; overload_task_float_value_functions
_TEXT	ENDS
END
