; Listing generated by Microsoft (R) Optimizing Compiler Version 19.16.27045.0 

	TITLE	C:\Users\nhv90\Projects\eech\aphavoc\source\entity\special\task\ts_ptr.c
	.686P
	.XMM
	include listing.inc
	.model	flat

INCLUDELIB MSVCRTD
INCLUDELIB OLDNAMES

PUBLIC	?overload_task_ptr_value_functions@@YGXXZ	; overload_task_ptr_value_functions
PUBLIC	?__LINE__Var@?0??set_local_ptr_value@@YGXPAUENTITY@@W4PTR_TYPES@@PAX@Z@4JA ; `set_local_ptr_value'::`1'::__LINE__Var
PUBLIC	??_C@_0EJ@JLKOPGFN@c?3?2users?2nhv90?2projects?2eech?2ap@ ; `string'
PUBLIC	?__LINE__Var@?0??get_local_ptr_value@@YGPAXPAUENTITY@@W4PTR_TYPES@@@Z@4JA ; `get_local_ptr_value'::`1'::__LINE__Var
EXTRN	?process_assert@@YGXPBD0H@Z:PROC		; process_assert
EXTRN	?debug_fatal@@YAXPBDZZ:PROC			; debug_fatal
EXTRN	?null_entity_pointer_message@@3PBDB:DWORD	; null_entity_pointer_message
EXTRN	?entity_type_database@@3PAUENTITY_TYPE_DATA@@A:BYTE ; entity_type_database
EXTRN	?ptr_type_database@@3PAUPTR_TYPE_DATA@@A:BYTE	; ptr_type_database
EXTRN	?debug_fatal_invalid_ptr_type_message@@3PBDB:DWORD ; debug_fatal_invalid_ptr_type_message
EXTRN	?fn_set_local_entity_ptr_value@@3PAY0BE@P6GXPAUENTITY@@W4PTR_TYPES@@PAX@ZA:BYTE ; fn_set_local_entity_ptr_value
EXTRN	?fn_get_local_entity_ptr_value@@3PAY0BE@P6GPAXPAUENTITY@@W4PTR_TYPES@@@ZA:BYTE ; fn_get_local_entity_ptr_value
EXTRN	?entities@@3PAUENTITY@@A:DWORD			; entities
;	COMDAT ?__LINE__Var@?0??get_local_ptr_value@@YGPAXPAUENTITY@@W4PTR_TYPES@@@Z@4JA
_DATA	SEGMENT
?__LINE__Var@?0??get_local_ptr_value@@YGPAXPAUENTITY@@W4PTR_TYPES@@@Z@4JA DD 096H ; `get_local_ptr_value'::`1'::__LINE__Var
_DATA	ENDS
;	COMDAT ??_C@_0EJ@JLKOPGFN@c?3?2users?2nhv90?2projects?2eech?2ap@
CONST	SEGMENT
??_C@_0EJ@JLKOPGFN@c?3?2users?2nhv90?2projects?2eech?2ap@ DB 'c:\users\nh'
	DB	'v90\projects\eech\aphavoc\source\entity\special\task\ts_ptr.c'
	DB	00H						; `string'
CONST	ENDS
;	COMDAT ?__LINE__Var@?0??set_local_ptr_value@@YGXPAUENTITY@@W4PTR_TYPES@@PAX@Z@4JA
_DATA	SEGMENT
?__LINE__Var@?0??set_local_ptr_value@@YGXPAUENTITY@@W4PTR_TYPES@@PAX@Z@4JA DD 050H ; `set_local_ptr_value'::`1'::__LINE__Var
_DATA	ENDS
; Function compile flags: /Odtp /ZI
; File c:\users\nhv90\projects\eech\aphavoc\source\entity\special\task\ts_ptr.c
;	COMDAT ?get_local_ptr_value@@YGPAXPAUENTITY@@W4PTR_TYPES@@@Z
_TEXT	SEGMENT
tv87 = -76						; size = 4
tv65 = -76						; size = 4
_ptr$ = -8						; size = 4
_raw$ = -4						; size = 4
_en$ = 8						; size = 4
_type$ = 12						; size = 4
?get_local_ptr_value@@YGPAXPAUENTITY@@W4PTR_TYPES@@@Z PROC ; get_local_ptr_value, COMDAT

; 150  : {

  00000	55		 push	 ebp
  00001	8b ec		 mov	 ebp, esp
  00003	83 ec 4c	 sub	 esp, 76			; 0000004cH
  00006	53		 push	 ebx
  00007	56		 push	 esi
  00008	57		 push	 edi

; 151  : 	task
; 152  : 		*raw;
; 153  : 
; 154  : 	void
; 155  : 		*ptr;
; 156  : 
; 157  : 	raw = (task *) get_local_entity_data (en);

  00009	8b 45 08	 mov	 eax, DWORD PTR _en$[ebp]
  0000c	8b 48 04	 mov	 ecx, DWORD PTR [eax+4]
  0000f	89 4d fc	 mov	 DWORD PTR _raw$[ebp], ecx

; 158  : 
; 159  : 	switch (type)

  00012	8b 45 0c	 mov	 eax, DWORD PTR _type$[ebp]
  00015	89 45 b4	 mov	 DWORD PTR tv65[ebp], eax
  00018	8b 4d b4	 mov	 ecx, DWORD PTR tv65[ebp]
  0001b	83 e9 08	 sub	 ecx, 8
  0001e	89 4d b4	 mov	 DWORD PTR tv65[ebp], ecx
  00021	83 7d b4 04	 cmp	 DWORD PTR tv65[ebp], 4
  00025	77 4a		 ja	 SHORT $LN9@get_local_
  00027	8b 55 b4	 mov	 edx, DWORD PTR tv65[ebp]
  0002a	ff 24 95 00 00
	00 00		 jmp	 DWORD PTR $LN13@get_local_[edx*4]
$LN4@get_local_:

; 160  : 	{
; 161  : 		////////////////////////////////////////
; 162  : 		case PTR_TYPE_RETURN_KEYSITE:
; 163  : 		////////////////////////////////////////
; 164  : 		{
; 165  : 			ptr = raw->return_keysite;

  00031	8b 45 fc	 mov	 eax, DWORD PTR _raw$[ebp]
  00034	8b 48 30	 mov	 ecx, DWORD PTR [eax+48]
  00037	89 4d f8	 mov	 DWORD PTR _ptr$[ebp], ecx

; 166  : 
; 167  : 			break;

  0003a	e9 a4 00 00 00	 jmp	 $LN2@get_local_
$LN5@get_local_:

; 168  : 		}
; 169  : 		////////////////////////////////////////
; 170  : 		case PTR_TYPE_ROUTE_DEPENDENTS:
; 171  : 		////////////////////////////////////////
; 172  : 		{
; 173  : 			ptr = raw->route_dependents;

  0003f	8b 45 fc	 mov	 eax, DWORD PTR _raw$[ebp]
  00042	8b 48 34	 mov	 ecx, DWORD PTR [eax+52]
  00045	89 4d f8	 mov	 DWORD PTR _ptr$[ebp], ecx

; 174  : 
; 175  : 			break;

  00048	e9 96 00 00 00	 jmp	 $LN2@get_local_
$LN6@get_local_:

; 176  : 		}
; 177  : 		////////////////////////////////////////
; 178  : 		case PTR_TYPE_ROUTE_FORMATION_TYPES:
; 179  : 		////////////////////////////////////////
; 180  : 		{
; 181  : 			ptr = raw->route_formation_types;

  0004d	8b 45 fc	 mov	 eax, DWORD PTR _raw$[ebp]
  00050	8b 48 38	 mov	 ecx, DWORD PTR [eax+56]
  00053	89 4d f8	 mov	 DWORD PTR _ptr$[ebp], ecx

; 182  : 
; 183  : 			break;

  00056	e9 88 00 00 00	 jmp	 $LN2@get_local_
$LN7@get_local_:

; 184  : 		}
; 185  : 		////////////////////////////////////////
; 186  : 		case PTR_TYPE_ROUTE_NODE:
; 187  : 		////////////////////////////////////////
; 188  : 		{
; 189  : 			ptr = raw->route_nodes;

  0005b	8b 45 fc	 mov	 eax, DWORD PTR _raw$[ebp]
  0005e	8b 48 14	 mov	 ecx, DWORD PTR [eax+20]
  00061	89 4d f8	 mov	 DWORD PTR _ptr$[ebp], ecx

; 190  : 
; 191  : 			break;

  00064	eb 7d		 jmp	 SHORT $LN2@get_local_
$LN8@get_local_:

; 192  : 		}
; 193  : 		////////////////////////////////////////
; 194  : 		case PTR_TYPE_ROUTE_WAYPOINT_TYPES:
; 195  : 		////////////////////////////////////////
; 196  : 		{
; 197  : 			ptr = raw->route_waypoint_types;

  00066	8b 45 fc	 mov	 eax, DWORD PTR _raw$[ebp]
  00069	8b 48 3c	 mov	 ecx, DWORD PTR [eax+60]
  0006c	89 4d f8	 mov	 DWORD PTR _ptr$[ebp], ecx

; 198  : 
; 199  : 			break;

  0006f	eb 72		 jmp	 SHORT $LN2@get_local_
$LN9@get_local_:

; 200  : 		}
; 201  : 		////////////////////////////////////////
; 202  : 		default:
; 203  : 		////////////////////////////////////////
; 204  : 		{
; 205  : 			debug_fatal_invalid_ptr_type (en, type);

  00071	83 7d 08 00	 cmp	 DWORD PTR _en$[ebp], 0
  00075	74 0a		 je	 SHORT $LN11@get_local_
  00077	8b 45 08	 mov	 eax, DWORD PTR _en$[ebp]
  0007a	8b 08		 mov	 ecx, DWORD PTR [eax]
  0007c	89 4d b4	 mov	 DWORD PTR tv87[ebp], ecx
  0007f	eb 21		 jmp	 SHORT $LN12@get_local_
$LN11@get_local_:
  00081	8b 15 00 00 00
	00		 mov	 edx, DWORD PTR ?__LINE__Var@?0??get_local_ptr_value@@YGPAXPAUENTITY@@W4PTR_TYPES@@@Z@4JA
  00087	83 c2 37	 add	 edx, 55			; 00000037H
  0008a	52		 push	 edx
  0008b	68 00 00 00 00	 push	 OFFSET ??_C@_0EJ@JLKOPGFN@c?3?2users?2nhv90?2projects?2eech?2ap@
  00090	a1 00 00 00 00	 mov	 eax, DWORD PTR ?null_entity_pointer_message@@3PBDB ; null_entity_pointer_message
  00095	50		 push	 eax
  00096	e8 00 00 00 00	 call	 ?process_assert@@YGXPBD0H@Z ; process_assert
  0009b	c7 45 b4 00 00
	00 00		 mov	 DWORD PTR tv87[ebp], 0
$LN12@get_local_:
  000a2	8b 0d 00 00 00
	00		 mov	 ecx, DWORD PTR ?__LINE__Var@?0??get_local_ptr_value@@YGPAXPAUENTITY@@W4PTR_TYPES@@@Z@4JA
  000a8	83 c1 37	 add	 ecx, 55			; 00000037H
  000ab	51		 push	 ecx
  000ac	68 00 00 00 00	 push	 OFFSET ??_C@_0EJ@JLKOPGFN@c?3?2users?2nhv90?2projects?2eech?2ap@
  000b1	8b 55 0c	 mov	 edx, DWORD PTR _type$[ebp]
  000b4	8b 04 95 00 00
	00 00		 mov	 eax, DWORD PTR ?ptr_type_database@@3PAUPTR_TYPE_DATA@@A[edx*4]
  000bb	50		 push	 eax
  000bc	8b 4d 08	 mov	 ecx, DWORD PTR _en$[ebp]
  000bf	2b 0d 00 00 00
	00		 sub	 ecx, DWORD PTR ?entities@@3PAUENTITY@@A ; entities
  000c5	c1 f9 04	 sar	 ecx, 4
  000c8	51		 push	 ecx
  000c9	6b 55 b4 0c	 imul	 edx, DWORD PTR tv87[ebp], 12
  000cd	8b 82 00 00 00
	00		 mov	 eax, DWORD PTR ?entity_type_database@@3PAUENTITY_TYPE_DATA@@A[edx]
  000d3	50		 push	 eax
  000d4	8b 0d 00 00 00
	00		 mov	 ecx, DWORD PTR ?debug_fatal_invalid_ptr_type_message@@3PBDB ; debug_fatal_invalid_ptr_type_message
  000da	51		 push	 ecx
  000db	e8 00 00 00 00	 call	 ?debug_fatal@@YAXPBDZZ	; debug_fatal
  000e0	83 c4 18	 add	 esp, 24			; 00000018H
$LN2@get_local_:

; 206  : 
; 207  : 			break;
; 208  : 		}
; 209  : 	}
; 210  : 
; 211  : 	return (ptr);

  000e3	8b 45 f8	 mov	 eax, DWORD PTR _ptr$[ebp]

; 212  : }

  000e6	5f		 pop	 edi
  000e7	5e		 pop	 esi
  000e8	5b		 pop	 ebx
  000e9	8b e5		 mov	 esp, ebp
  000eb	5d		 pop	 ebp
  000ec	c2 08 00	 ret	 8
  000ef	90		 npad	 1
$LN13@get_local_:
  000f0	00 00 00 00	 DD	 $LN4@get_local_
  000f4	00 00 00 00	 DD	 $LN5@get_local_
  000f8	00 00 00 00	 DD	 $LN6@get_local_
  000fc	00 00 00 00	 DD	 $LN7@get_local_
  00100	00 00 00 00	 DD	 $LN8@get_local_
?get_local_ptr_value@@YGPAXPAUENTITY@@W4PTR_TYPES@@@Z ENDP ; get_local_ptr_value
_TEXT	ENDS
; Function compile flags: /Odtp /ZI
; File c:\users\nhv90\projects\eech\aphavoc\source\entity\special\task\ts_ptr.c
;	COMDAT ?set_local_ptr_value@@YGXPAUENTITY@@W4PTR_TYPES@@PAX@Z
_TEXT	SEGMENT
tv87 = -72						; size = 4
tv65 = -72						; size = 4
_raw$ = -4						; size = 4
_en$ = 8						; size = 4
_type$ = 12						; size = 4
_ptr$ = 16						; size = 4
?set_local_ptr_value@@YGXPAUENTITY@@W4PTR_TYPES@@PAX@Z PROC ; set_local_ptr_value, COMDAT

; 80   : {

  00000	55		 push	 ebp
  00001	8b ec		 mov	 ebp, esp
  00003	83 ec 48	 sub	 esp, 72			; 00000048H
  00006	53		 push	 ebx
  00007	56		 push	 esi
  00008	57		 push	 edi

; 81   : 	task
; 82   : 		*raw;
; 83   : 
; 84   : 	#if DEBUG_MODULE
; 85   : 
; 86   : 	debug_log_entity_args (ENTITY_DEBUG_LOCAL, ENTITY_DEBUG_PTR_VALUE, en, type, ptr);
; 87   : 
; 88   : 	#endif
; 89   : 
; 90   : 	raw = (task *) get_local_entity_data (en);

  00009	8b 45 08	 mov	 eax, DWORD PTR _en$[ebp]
  0000c	8b 48 04	 mov	 ecx, DWORD PTR [eax+4]
  0000f	89 4d fc	 mov	 DWORD PTR _raw$[ebp], ecx

; 91   : 
; 92   : 	switch (type)

  00012	8b 45 0c	 mov	 eax, DWORD PTR _type$[ebp]
  00015	89 45 b8	 mov	 DWORD PTR tv65[ebp], eax
  00018	8b 4d b8	 mov	 ecx, DWORD PTR tv65[ebp]
  0001b	83 e9 08	 sub	 ecx, 8
  0001e	89 4d b8	 mov	 DWORD PTR tv65[ebp], ecx
  00021	83 7d b8 04	 cmp	 DWORD PTR tv65[ebp], 4
  00025	77 4a		 ja	 SHORT $LN9@set_local_
  00027	8b 55 b8	 mov	 edx, DWORD PTR tv65[ebp]
  0002a	ff 24 95 00 00
	00 00		 jmp	 DWORD PTR $LN13@set_local_[edx*4]
$LN4@set_local_:

; 93   : 	{
; 94   : 		////////////////////////////////////////
; 95   : 		case PTR_TYPE_RETURN_KEYSITE:
; 96   : 		////////////////////////////////////////
; 97   : 		{
; 98   : 			raw->return_keysite = (entity *) ptr;

  00031	8b 45 fc	 mov	 eax, DWORD PTR _raw$[ebp]
  00034	8b 4d 10	 mov	 ecx, DWORD PTR _ptr$[ebp]
  00037	89 48 30	 mov	 DWORD PTR [eax+48], ecx

; 99   : 
; 100  : 			break;

  0003a	e9 a4 00 00 00	 jmp	 $LN1@set_local_
$LN5@set_local_:

; 101  : 		}
; 102  : 		////////////////////////////////////////
; 103  : 		case PTR_TYPE_ROUTE_DEPENDENTS:
; 104  : 		////////////////////////////////////////
; 105  : 		{
; 106  : 			raw->route_dependents = (entity **) ptr;

  0003f	8b 45 fc	 mov	 eax, DWORD PTR _raw$[ebp]
  00042	8b 4d 10	 mov	 ecx, DWORD PTR _ptr$[ebp]
  00045	89 48 34	 mov	 DWORD PTR [eax+52], ecx

; 107  : 
; 108  : 			break;

  00048	e9 96 00 00 00	 jmp	 $LN1@set_local_
$LN6@set_local_:

; 109  : 		}
; 110  : 		////////////////////////////////////////
; 111  : 		case PTR_TYPE_ROUTE_FORMATION_TYPES:
; 112  : 		////////////////////////////////////////
; 113  : 		{
; 114  : 			raw->route_formation_types = (formation_types *) ptr;

  0004d	8b 45 fc	 mov	 eax, DWORD PTR _raw$[ebp]
  00050	8b 4d 10	 mov	 ecx, DWORD PTR _ptr$[ebp]
  00053	89 48 38	 mov	 DWORD PTR [eax+56], ecx

; 115  : 
; 116  : 			break;

  00056	e9 88 00 00 00	 jmp	 $LN1@set_local_
$LN7@set_local_:

; 117  : 		}
; 118  : 		////////////////////////////////////////
; 119  : 		case PTR_TYPE_ROUTE_NODE:
; 120  : 		////////////////////////////////////////
; 121  : 		{
; 122  : 			raw->route_nodes = (vec3d *) ptr;

  0005b	8b 45 fc	 mov	 eax, DWORD PTR _raw$[ebp]
  0005e	8b 4d 10	 mov	 ecx, DWORD PTR _ptr$[ebp]
  00061	89 48 14	 mov	 DWORD PTR [eax+20], ecx

; 123  : 
; 124  : 			break;

  00064	eb 7d		 jmp	 SHORT $LN1@set_local_
$LN8@set_local_:

; 125  : 		}
; 126  : 		////////////////////////////////////////
; 127  : 		case PTR_TYPE_ROUTE_WAYPOINT_TYPES:
; 128  : 		////////////////////////////////////////
; 129  : 		{
; 130  : 			raw->route_waypoint_types = (entity_sub_types *) ptr;

  00066	8b 45 fc	 mov	 eax, DWORD PTR _raw$[ebp]
  00069	8b 4d 10	 mov	 ecx, DWORD PTR _ptr$[ebp]
  0006c	89 48 3c	 mov	 DWORD PTR [eax+60], ecx

; 131  : 
; 132  : 			break;

  0006f	eb 72		 jmp	 SHORT $LN1@set_local_
$LN9@set_local_:

; 133  : 		}
; 134  : 		////////////////////////////////////////
; 135  : 		default:
; 136  : 		////////////////////////////////////////
; 137  : 		{
; 138  : 			debug_fatal_invalid_ptr_type (en, type);

  00071	83 7d 08 00	 cmp	 DWORD PTR _en$[ebp], 0
  00075	74 0a		 je	 SHORT $LN11@set_local_
  00077	8b 45 08	 mov	 eax, DWORD PTR _en$[ebp]
  0007a	8b 08		 mov	 ecx, DWORD PTR [eax]
  0007c	89 4d b8	 mov	 DWORD PTR tv87[ebp], ecx
  0007f	eb 21		 jmp	 SHORT $LN12@set_local_
$LN11@set_local_:
  00081	8b 15 00 00 00
	00		 mov	 edx, DWORD PTR ?__LINE__Var@?0??set_local_ptr_value@@YGXPAUENTITY@@W4PTR_TYPES@@PAX@Z@4JA
  00087	83 c2 3a	 add	 edx, 58			; 0000003aH
  0008a	52		 push	 edx
  0008b	68 00 00 00 00	 push	 OFFSET ??_C@_0EJ@JLKOPGFN@c?3?2users?2nhv90?2projects?2eech?2ap@
  00090	a1 00 00 00 00	 mov	 eax, DWORD PTR ?null_entity_pointer_message@@3PBDB ; null_entity_pointer_message
  00095	50		 push	 eax
  00096	e8 00 00 00 00	 call	 ?process_assert@@YGXPBD0H@Z ; process_assert
  0009b	c7 45 b8 00 00
	00 00		 mov	 DWORD PTR tv87[ebp], 0
$LN12@set_local_:
  000a2	8b 0d 00 00 00
	00		 mov	 ecx, DWORD PTR ?__LINE__Var@?0??set_local_ptr_value@@YGXPAUENTITY@@W4PTR_TYPES@@PAX@Z@4JA
  000a8	83 c1 3a	 add	 ecx, 58			; 0000003aH
  000ab	51		 push	 ecx
  000ac	68 00 00 00 00	 push	 OFFSET ??_C@_0EJ@JLKOPGFN@c?3?2users?2nhv90?2projects?2eech?2ap@
  000b1	8b 55 0c	 mov	 edx, DWORD PTR _type$[ebp]
  000b4	8b 04 95 00 00
	00 00		 mov	 eax, DWORD PTR ?ptr_type_database@@3PAUPTR_TYPE_DATA@@A[edx*4]
  000bb	50		 push	 eax
  000bc	8b 4d 08	 mov	 ecx, DWORD PTR _en$[ebp]
  000bf	2b 0d 00 00 00
	00		 sub	 ecx, DWORD PTR ?entities@@3PAUENTITY@@A ; entities
  000c5	c1 f9 04	 sar	 ecx, 4
  000c8	51		 push	 ecx
  000c9	6b 55 b8 0c	 imul	 edx, DWORD PTR tv87[ebp], 12
  000cd	8b 82 00 00 00
	00		 mov	 eax, DWORD PTR ?entity_type_database@@3PAUENTITY_TYPE_DATA@@A[edx]
  000d3	50		 push	 eax
  000d4	8b 0d 00 00 00
	00		 mov	 ecx, DWORD PTR ?debug_fatal_invalid_ptr_type_message@@3PBDB ; debug_fatal_invalid_ptr_type_message
  000da	51		 push	 ecx
  000db	e8 00 00 00 00	 call	 ?debug_fatal@@YAXPBDZZ	; debug_fatal
  000e0	83 c4 18	 add	 esp, 24			; 00000018H
$LN1@set_local_:

; 139  : 
; 140  : 			break;
; 141  : 		}
; 142  : 	}
; 143  : }

  000e3	5f		 pop	 edi
  000e4	5e		 pop	 esi
  000e5	5b		 pop	 ebx
  000e6	8b e5		 mov	 esp, ebp
  000e8	5d		 pop	 ebp
  000e9	c2 0c 00	 ret	 12			; 0000000cH
$LN13@set_local_:
  000ec	00 00 00 00	 DD	 $LN4@set_local_
  000f0	00 00 00 00	 DD	 $LN5@set_local_
  000f4	00 00 00 00	 DD	 $LN6@set_local_
  000f8	00 00 00 00	 DD	 $LN7@set_local_
  000fc	00 00 00 00	 DD	 $LN8@set_local_
?set_local_ptr_value@@YGXPAUENTITY@@W4PTR_TYPES@@PAX@Z ENDP ; set_local_ptr_value
_TEXT	ENDS
; Function compile flags: /Odtp /ZI
; File c:\users\nhv90\projects\eech\aphavoc\source\entity\special\task\ts_ptr.c
;	COMDAT ?overload_task_ptr_value_functions@@YGXXZ
_TEXT	SEGMENT
?overload_task_ptr_value_functions@@YGXXZ PROC		; overload_task_ptr_value_functions, COMDAT

; 219  : {

  00000	55		 push	 ebp
  00001	8b ec		 mov	 ebp, esp
  00003	83 ec 40	 sub	 esp, 64			; 00000040H
  00006	53		 push	 ebx
  00007	56		 push	 esi
  00008	57		 push	 edi

; 220  : 	fn_set_local_entity_ptr_value				[ENTITY_TYPE_TASK][PTR_TYPE_RETURN_KEYSITE]									= set_local_ptr_value;

  00009	b8 50 00 00 00	 mov	 eax, 80			; 00000050H
  0000e	6b c8 22	 imul	 ecx, eax, 34
  00011	ba 04 00 00 00	 mov	 edx, 4
  00016	c1 e2 03	 shl	 edx, 3
  00019	c7 84 11 00 00
	00 00 00 00 00
	00		 mov	 DWORD PTR ?fn_set_local_entity_ptr_value@@3PAY0BE@P6GXPAUENTITY@@W4PTR_TYPES@@PAX@ZA[ecx+edx], OFFSET ?set_local_ptr_value@@YGXPAUENTITY@@W4PTR_TYPES@@PAX@Z ; set_local_ptr_value

; 221  : 	fn_get_local_entity_ptr_value				[ENTITY_TYPE_TASK][PTR_TYPE_RETURN_KEYSITE]									= get_local_ptr_value;

  00024	b8 50 00 00 00	 mov	 eax, 80			; 00000050H
  00029	6b c8 22	 imul	 ecx, eax, 34
  0002c	ba 04 00 00 00	 mov	 edx, 4
  00031	c1 e2 03	 shl	 edx, 3
  00034	c7 84 11 00 00
	00 00 00 00 00
	00		 mov	 DWORD PTR ?fn_get_local_entity_ptr_value@@3PAY0BE@P6GPAXPAUENTITY@@W4PTR_TYPES@@@ZA[ecx+edx], OFFSET ?get_local_ptr_value@@YGPAXPAUENTITY@@W4PTR_TYPES@@@Z ; get_local_ptr_value

; 222  : 
; 223  : 	fn_set_local_entity_ptr_value				[ENTITY_TYPE_TASK][PTR_TYPE_ROUTE_DEPENDENTS]								= set_local_ptr_value;

  0003f	b8 50 00 00 00	 mov	 eax, 80			; 00000050H
  00044	6b c8 22	 imul	 ecx, eax, 34
  00047	ba 04 00 00 00	 mov	 edx, 4
  0004c	6b c2 09	 imul	 eax, edx, 9
  0004f	c7 84 01 00 00
	00 00 00 00 00
	00		 mov	 DWORD PTR ?fn_set_local_entity_ptr_value@@3PAY0BE@P6GXPAUENTITY@@W4PTR_TYPES@@PAX@ZA[ecx+eax], OFFSET ?set_local_ptr_value@@YGXPAUENTITY@@W4PTR_TYPES@@PAX@Z ; set_local_ptr_value

; 224  : 	fn_get_local_entity_ptr_value				[ENTITY_TYPE_TASK][PTR_TYPE_ROUTE_DEPENDENTS]								= get_local_ptr_value;

  0005a	b8 50 00 00 00	 mov	 eax, 80			; 00000050H
  0005f	6b c8 22	 imul	 ecx, eax, 34
  00062	ba 04 00 00 00	 mov	 edx, 4
  00067	6b c2 09	 imul	 eax, edx, 9
  0006a	c7 84 01 00 00
	00 00 00 00 00
	00		 mov	 DWORD PTR ?fn_get_local_entity_ptr_value@@3PAY0BE@P6GPAXPAUENTITY@@W4PTR_TYPES@@@ZA[ecx+eax], OFFSET ?get_local_ptr_value@@YGPAXPAUENTITY@@W4PTR_TYPES@@@Z ; get_local_ptr_value

; 225  : 
; 226  : 	fn_set_local_entity_ptr_value				[ENTITY_TYPE_TASK][PTR_TYPE_ROUTE_FORMATION_TYPES]							= set_local_ptr_value;

  00075	b8 50 00 00 00	 mov	 eax, 80			; 00000050H
  0007a	6b c8 22	 imul	 ecx, eax, 34
  0007d	ba 04 00 00 00	 mov	 edx, 4
  00082	6b c2 0a	 imul	 eax, edx, 10
  00085	c7 84 01 00 00
	00 00 00 00 00
	00		 mov	 DWORD PTR ?fn_set_local_entity_ptr_value@@3PAY0BE@P6GXPAUENTITY@@W4PTR_TYPES@@PAX@ZA[ecx+eax], OFFSET ?set_local_ptr_value@@YGXPAUENTITY@@W4PTR_TYPES@@PAX@Z ; set_local_ptr_value

; 227  : 	fn_get_local_entity_ptr_value				[ENTITY_TYPE_TASK][PTR_TYPE_ROUTE_FORMATION_TYPES]							= get_local_ptr_value;

  00090	b8 50 00 00 00	 mov	 eax, 80			; 00000050H
  00095	6b c8 22	 imul	 ecx, eax, 34
  00098	ba 04 00 00 00	 mov	 edx, 4
  0009d	6b c2 0a	 imul	 eax, edx, 10
  000a0	c7 84 01 00 00
	00 00 00 00 00
	00		 mov	 DWORD PTR ?fn_get_local_entity_ptr_value@@3PAY0BE@P6GPAXPAUENTITY@@W4PTR_TYPES@@@ZA[ecx+eax], OFFSET ?get_local_ptr_value@@YGPAXPAUENTITY@@W4PTR_TYPES@@@Z ; get_local_ptr_value

; 228  : 
; 229  : 	fn_set_local_entity_ptr_value				[ENTITY_TYPE_TASK][PTR_TYPE_ROUTE_NODE]										= set_local_ptr_value;

  000ab	b8 50 00 00 00	 mov	 eax, 80			; 00000050H
  000b0	6b c8 22	 imul	 ecx, eax, 34
  000b3	ba 04 00 00 00	 mov	 edx, 4
  000b8	6b c2 0b	 imul	 eax, edx, 11
  000bb	c7 84 01 00 00
	00 00 00 00 00
	00		 mov	 DWORD PTR ?fn_set_local_entity_ptr_value@@3PAY0BE@P6GXPAUENTITY@@W4PTR_TYPES@@PAX@ZA[ecx+eax], OFFSET ?set_local_ptr_value@@YGXPAUENTITY@@W4PTR_TYPES@@PAX@Z ; set_local_ptr_value

; 230  : 	fn_get_local_entity_ptr_value				[ENTITY_TYPE_TASK][PTR_TYPE_ROUTE_NODE]										= get_local_ptr_value;

  000c6	b8 50 00 00 00	 mov	 eax, 80			; 00000050H
  000cb	6b c8 22	 imul	 ecx, eax, 34
  000ce	ba 04 00 00 00	 mov	 edx, 4
  000d3	6b c2 0b	 imul	 eax, edx, 11
  000d6	c7 84 01 00 00
	00 00 00 00 00
	00		 mov	 DWORD PTR ?fn_get_local_entity_ptr_value@@3PAY0BE@P6GPAXPAUENTITY@@W4PTR_TYPES@@@ZA[ecx+eax], OFFSET ?get_local_ptr_value@@YGPAXPAUENTITY@@W4PTR_TYPES@@@Z ; get_local_ptr_value

; 231  : 
; 232  : 	fn_set_local_entity_ptr_value				[ENTITY_TYPE_TASK][PTR_TYPE_ROUTE_WAYPOINT_TYPES]							= set_local_ptr_value;

  000e1	b8 50 00 00 00	 mov	 eax, 80			; 00000050H
  000e6	6b c8 22	 imul	 ecx, eax, 34
  000e9	ba 04 00 00 00	 mov	 edx, 4
  000ee	6b c2 0c	 imul	 eax, edx, 12
  000f1	c7 84 01 00 00
	00 00 00 00 00
	00		 mov	 DWORD PTR ?fn_set_local_entity_ptr_value@@3PAY0BE@P6GXPAUENTITY@@W4PTR_TYPES@@PAX@ZA[ecx+eax], OFFSET ?set_local_ptr_value@@YGXPAUENTITY@@W4PTR_TYPES@@PAX@Z ; set_local_ptr_value

; 233  : 	fn_get_local_entity_ptr_value				[ENTITY_TYPE_TASK][PTR_TYPE_ROUTE_WAYPOINT_TYPES]							= get_local_ptr_value;

  000fc	b8 50 00 00 00	 mov	 eax, 80			; 00000050H
  00101	6b c8 22	 imul	 ecx, eax, 34
  00104	ba 04 00 00 00	 mov	 edx, 4
  00109	6b c2 0c	 imul	 eax, edx, 12
  0010c	c7 84 01 00 00
	00 00 00 00 00
	00		 mov	 DWORD PTR ?fn_get_local_entity_ptr_value@@3PAY0BE@P6GPAXPAUENTITY@@W4PTR_TYPES@@@ZA[ecx+eax], OFFSET ?get_local_ptr_value@@YGPAXPAUENTITY@@W4PTR_TYPES@@@Z ; get_local_ptr_value

; 234  : }

  00117	5f		 pop	 edi
  00118	5e		 pop	 esi
  00119	5b		 pop	 ebx
  0011a	8b e5		 mov	 esp, ebp
  0011c	5d		 pop	 ebp
  0011d	c3		 ret	 0
?overload_task_ptr_value_functions@@YGXXZ ENDP		; overload_task_ptr_value_functions
_TEXT	ENDS
END
