; Listing generated by Microsoft (R) Optimizing Compiler Version 19.16.27045.0 

	TITLE	C:\Users\nhv90\Projects\eech\aphavoc\source\entity\special\task\ts_str.c
	.686P
	.XMM
	include listing.inc
	.model	flat

INCLUDELIB MSVCRTD
INCLUDELIB OLDNAMES

PUBLIC	?overload_task_string_functions@@YGXXZ		; overload_task_string_functions
PUBLIC	?__LINE__Var@?0??get_local_string@@YGPBDPAUENTITY@@W4STRING_TYPES@@@Z@4JA ; `get_local_string'::`1'::__LINE__Var
PUBLIC	??_C@_0EJ@BNDKIEPD@c?3?2users?2nhv90?2projects?2eech?2ap@ ; `string'
EXTRN	?process_assert@@YGXPBD0H@Z:PROC		; process_assert
EXTRN	?debug_fatal@@YAXPBDZZ:PROC			; debug_fatal
EXTRN	?null_entity_pointer_message@@3PBDB:DWORD	; null_entity_pointer_message
EXTRN	?entity_type_database@@3PAUENTITY_TYPE_DATA@@A:BYTE ; entity_type_database
EXTRN	?string_type_database@@3PAUSTRING_TYPE_DATA@@A:BYTE ; string_type_database
EXTRN	?debug_fatal_invalid_string_type_message@@3PBDB:DWORD ; debug_fatal_invalid_string_type_message
EXTRN	?fn_get_local_entity_string@@3PAY0N@P6GPBDPAUENTITY@@W4STRING_TYPES@@@ZA:BYTE ; fn_get_local_entity_string
EXTRN	?entities@@3PAUENTITY@@A:DWORD			; entities
EXTRN	?task_database@@3PAUTASK_DATA@@A:BYTE		; task_database
;	COMDAT ??_C@_0EJ@BNDKIEPD@c?3?2users?2nhv90?2projects?2eech?2ap@
CONST	SEGMENT
??_C@_0EJ@BNDKIEPD@c?3?2users?2nhv90?2projects?2eech?2ap@ DB 'c:\users\nh'
	DB	'v90\projects\eech\aphavoc\source\entity\special\task\ts_str.c'
	DB	00H						; `string'
CONST	ENDS
;	COMDAT ?__LINE__Var@?0??get_local_string@@YGPBDPAUENTITY@@W4STRING_TYPES@@@Z@4JA
_DATA	SEGMENT
?__LINE__Var@?0??get_local_string@@YGPBDPAUENTITY@@W4STRING_TYPES@@@Z@4JA DD 0b8H ; `get_local_string'::`1'::__LINE__Var
_DATA	ENDS
; Function compile flags: /Odtp /ZI
; File c:\users\nhv90\projects\eech\aphavoc\source\entity\special\task\ts_str.c
;	COMDAT ?get_local_string@@YGPBDPAUENTITY@@W4STRING_TYPES@@@Z
_TEXT	SEGMENT
tv90 = -76						; size = 4
tv65 = -76						; size = 4
_s$ = -8						; size = 4
_raw$ = -4						; size = 4
_en$ = 8						; size = 4
_type$ = 12						; size = 4
?get_local_string@@YGPBDPAUENTITY@@W4STRING_TYPES@@@Z PROC ; get_local_string, COMDAT

; 184  : {

  00000	55		 push	 ebp
  00001	8b ec		 mov	 ebp, esp
  00003	83 ec 4c	 sub	 esp, 76			; 0000004cH
  00006	53		 push	 ebx
  00007	56		 push	 esi
  00008	57		 push	 edi

; 185  : 	task
; 186  : 		*raw;
; 187  : 
; 188  : 	const char
; 189  : 		*s;
; 190  : 
; 191  : 	raw = (task *) get_local_entity_data (en);

  00009	8b 45 08	 mov	 eax, DWORD PTR _en$[ebp]
  0000c	8b 48 04	 mov	 ecx, DWORD PTR [eax+4]
  0000f	89 4d fc	 mov	 DWORD PTR _raw$[ebp], ecx

; 192  : 
; 193  : 	switch (type)

  00012	8b 45 0c	 mov	 eax, DWORD PTR _type$[ebp]
  00015	89 45 b4	 mov	 DWORD PTR tv65[ebp], eax
  00018	83 7d b4 03	 cmp	 DWORD PTR tv65[ebp], 3
  0001c	74 08		 je	 SHORT $LN4@get_local_
  0001e	83 7d b4 0c	 cmp	 DWORD PTR tv65[ebp], 12	; 0000000cH
  00022	74 16		 je	 SHORT $LN5@get_local_
  00024	eb 25		 jmp	 SHORT $LN6@get_local_
$LN4@get_local_:

; 194  : 	{
; 195  : 		////////////////////////////////////////
; 196  : 		case STRING_TYPE_FULL_NAME:
; 197  : 		////////////////////////////////////////
; 198  : 		{
; 199  : 			s = task_database[raw->sub_type].full_name;

  00026	8b 45 fc	 mov	 eax, DWORD PTR _raw$[ebp]
  00029	6b 08 50	 imul	 ecx, DWORD PTR [eax], 80
  0002c	8b 91 00 00 00
	00		 mov	 edx, DWORD PTR ?task_database@@3PAUTASK_DATA@@A[ecx]
  00032	89 55 f8	 mov	 DWORD PTR _s$[ebp], edx

; 200  : 
; 201  : 			break;

  00035	e9 85 00 00 00	 jmp	 $LN2@get_local_
$LN5@get_local_:

; 202  : 		}
; 203  : 		////////////////////////////////////////
; 204  : 		case STRING_TYPE_SHORT_DISPLAY_NAME:
; 205  : 		////////////////////////////////////////
; 206  : 		{
; 207  : 			s = task_database[raw->sub_type].short_name;

  0003a	8b 45 fc	 mov	 eax, DWORD PTR _raw$[ebp]
  0003d	6b 08 50	 imul	 ecx, DWORD PTR [eax], 80
  00040	8b 91 04 00 00
	00		 mov	 edx, DWORD PTR ?task_database@@3PAUTASK_DATA@@A[ecx+4]
  00046	89 55 f8	 mov	 DWORD PTR _s$[ebp], edx

; 208  : 
; 209  : 			break;

  00049	eb 74		 jmp	 SHORT $LN2@get_local_
$LN6@get_local_:

; 210  : 		}
; 211  : 		////////////////////////////////////////
; 212  : 		default:
; 213  : 		////////////////////////////////////////
; 214  : 		{
; 215  : 			debug_fatal_invalid_string_type (en, type);

  0004b	83 7d 08 00	 cmp	 DWORD PTR _en$[ebp], 0
  0004f	74 0a		 je	 SHORT $LN8@get_local_
  00051	8b 45 08	 mov	 eax, DWORD PTR _en$[ebp]
  00054	8b 08		 mov	 ecx, DWORD PTR [eax]
  00056	89 4d b4	 mov	 DWORD PTR tv90[ebp], ecx
  00059	eb 21		 jmp	 SHORT $LN9@get_local_
$LN8@get_local_:
  0005b	8b 15 00 00 00
	00		 mov	 edx, DWORD PTR ?__LINE__Var@?0??get_local_string@@YGPBDPAUENTITY@@W4STRING_TYPES@@@Z@4JA
  00061	83 c2 1f	 add	 edx, 31			; 0000001fH
  00064	52		 push	 edx
  00065	68 00 00 00 00	 push	 OFFSET ??_C@_0EJ@BNDKIEPD@c?3?2users?2nhv90?2projects?2eech?2ap@
  0006a	a1 00 00 00 00	 mov	 eax, DWORD PTR ?null_entity_pointer_message@@3PBDB ; null_entity_pointer_message
  0006f	50		 push	 eax
  00070	e8 00 00 00 00	 call	 ?process_assert@@YGXPBD0H@Z ; process_assert
  00075	c7 45 b4 00 00
	00 00		 mov	 DWORD PTR tv90[ebp], 0
$LN9@get_local_:
  0007c	8b 0d 00 00 00
	00		 mov	 ecx, DWORD PTR ?__LINE__Var@?0??get_local_string@@YGPBDPAUENTITY@@W4STRING_TYPES@@@Z@4JA
  00082	83 c1 1f	 add	 ecx, 31			; 0000001fH
  00085	51		 push	 ecx
  00086	68 00 00 00 00	 push	 OFFSET ??_C@_0EJ@BNDKIEPD@c?3?2users?2nhv90?2projects?2eech?2ap@
  0008b	8b 55 0c	 mov	 edx, DWORD PTR _type$[ebp]
  0008e	c1 e2 04	 shl	 edx, 4
  00091	8b 82 00 00 00
	00		 mov	 eax, DWORD PTR ?string_type_database@@3PAUSTRING_TYPE_DATA@@A[edx]
  00097	50		 push	 eax
  00098	8b 4d 08	 mov	 ecx, DWORD PTR _en$[ebp]
  0009b	2b 0d 00 00 00
	00		 sub	 ecx, DWORD PTR ?entities@@3PAUENTITY@@A ; entities
  000a1	c1 f9 04	 sar	 ecx, 4
  000a4	51		 push	 ecx
  000a5	6b 55 b4 0c	 imul	 edx, DWORD PTR tv90[ebp], 12
  000a9	8b 82 00 00 00
	00		 mov	 eax, DWORD PTR ?entity_type_database@@3PAUENTITY_TYPE_DATA@@A[edx]
  000af	50		 push	 eax
  000b0	8b 0d 00 00 00
	00		 mov	 ecx, DWORD PTR ?debug_fatal_invalid_string_type_message@@3PBDB ; debug_fatal_invalid_string_type_message
  000b6	51		 push	 ecx
  000b7	e8 00 00 00 00	 call	 ?debug_fatal@@YAXPBDZZ	; debug_fatal
  000bc	83 c4 18	 add	 esp, 24			; 00000018H
$LN2@get_local_:

; 216  : 
; 217  : 			break;
; 218  : 		}
; 219  : 	}
; 220  : 
; 221  : 	return (s);

  000bf	8b 45 f8	 mov	 eax, DWORD PTR _s$[ebp]

; 222  : }

  000c2	5f		 pop	 edi
  000c3	5e		 pop	 esi
  000c4	5b		 pop	 ebx
  000c5	8b e5		 mov	 esp, ebp
  000c7	5d		 pop	 ebp
  000c8	c2 08 00	 ret	 8
?get_local_string@@YGPBDPAUENTITY@@W4STRING_TYPES@@@Z ENDP ; get_local_string
_TEXT	ENDS
; Function compile flags: /Odtp /ZI
; File c:\users\nhv90\projects\eech\aphavoc\source\entity\special\task\ts_str.c
;	COMDAT ?overload_task_string_functions@@YGXXZ
_TEXT	SEGMENT
?overload_task_string_functions@@YGXXZ PROC		; overload_task_string_functions, COMDAT

; 229  : {

  00000	55		 push	 ebp
  00001	8b ec		 mov	 ebp, esp
  00003	83 ec 40	 sub	 esp, 64			; 00000040H
  00006	53		 push	 ebx
  00007	56		 push	 esi
  00008	57		 push	 edi

; 230  : 	fn_get_local_entity_string[ENTITY_TYPE_TASK][STRING_TYPE_FULL_NAME] 				= get_local_string;

  00009	b8 34 00 00 00	 mov	 eax, 52			; 00000034H
  0000e	6b c8 22	 imul	 ecx, eax, 34
  00011	ba 04 00 00 00	 mov	 edx, 4
  00016	6b c2 03	 imul	 eax, edx, 3
  00019	c7 84 01 00 00
	00 00 00 00 00
	00		 mov	 DWORD PTR ?fn_get_local_entity_string@@3PAY0N@P6GPBDPAUENTITY@@W4STRING_TYPES@@@ZA[ecx+eax], OFFSET ?get_local_string@@YGPBDPAUENTITY@@W4STRING_TYPES@@@Z ; get_local_string

; 231  : 
; 232  : 	fn_get_local_entity_string[ENTITY_TYPE_TASK][STRING_TYPE_SHORT_DISPLAY_NAME] 	= get_local_string;

  00024	b8 34 00 00 00	 mov	 eax, 52			; 00000034H
  00029	6b c8 22	 imul	 ecx, eax, 34
  0002c	ba 04 00 00 00	 mov	 edx, 4
  00031	6b c2 0c	 imul	 eax, edx, 12
  00034	c7 84 01 00 00
	00 00 00 00 00
	00		 mov	 DWORD PTR ?fn_get_local_entity_string@@3PAY0N@P6GPBDPAUENTITY@@W4STRING_TYPES@@@ZA[ecx+eax], OFFSET ?get_local_string@@YGPBDPAUENTITY@@W4STRING_TYPES@@@Z ; get_local_string

; 233  : }

  0003f	5f		 pop	 edi
  00040	5e		 pop	 esi
  00041	5b		 pop	 ebx
  00042	8b e5		 mov	 esp, ebp
  00044	5d		 pop	 ebp
  00045	c3		 ret	 0
?overload_task_string_functions@@YGXXZ ENDP		; overload_task_string_functions
_TEXT	ENDS
END
