; Listing generated by Microsoft (R) Optimizing Compiler Version 19.16.27045.0 

	TITLE	C:\Users\nhv90\Projects\eech\aphavoc\source\entity\special\task\ts_vec3d.c
	.686P
	.XMM
	include listing.inc
	.model	flat

INCLUDELIB MSVCRTD
INCLUDELIB OLDNAMES

PUBLIC	?overload_task_vec3d_functions@@YGXXZ		; overload_task_vec3d_functions
PUBLIC	?__LINE__Var@?0??set_local_raw_vec3d@@YGXPAUENTITY@@W4VEC3D_TYPES@@PAUVEC3D@@@Z@4JA ; `set_local_raw_vec3d'::`1'::__LINE__Var
PUBLIC	??_C@_0EL@ONCDJIFJ@c?3?2users?2nhv90?2projects?2eech?2ap@ ; `string'
PUBLIC	??_C@_01MHEDDDHA@v@				; `string'
PUBLIC	?__LINE__Var@?0??set_local_vec3d@@YGXPAUENTITY@@W4VEC3D_TYPES@@PAUVEC3D@@@Z@4JA ; `set_local_vec3d'::`1'::__LINE__Var
PUBLIC	?__LINE__Var@?0??set_remote_vec3d@@YGXPAUENTITY@@W4VEC3D_TYPES@@PAUVEC3D@@@Z@4JA ; `set_remote_vec3d'::`1'::__LINE__Var
PUBLIC	?__LINE__Var@?0??set_server_vec3d@@YGXPAUENTITY@@W4VEC3D_TYPES@@PAUVEC3D@@@Z@4JA ; `set_server_vec3d'::`1'::__LINE__Var
PUBLIC	??_C@_0CB@CFOCLFOK@assert_client_server_local_fn?5?$CI@ ; `string'
PUBLIC	??_C@_0CC@BNNNEGEG@assert_client_server_remote_fn?5@ ; `string'
PUBLIC	?__LINE__Var@?0??set_client_vec3d@@YGXPAUENTITY@@W4VEC3D_TYPES@@PAUVEC3D@@@Z@4JA ; `set_client_vec3d'::`1'::__LINE__Var
PUBLIC	?__LINE__Var@?0??get_local_vec3d@@YGXPAUENTITY@@W4VEC3D_TYPES@@PAUVEC3D@@@Z@4JA ; `get_local_vec3d'::`1'::__LINE__Var
PUBLIC	?__LINE__Var@?0??get_local_vec3d_ptr@@YGPAUVEC3D@@PAUENTITY@@W4VEC3D_TYPES@@@Z@4JA ; `get_local_vec3d_ptr'::`1'::__LINE__Var
EXTRN	?process_assert@@YGXPBD0H@Z:PROC		; process_assert
EXTRN	?debug_fatal@@YAXPBDZZ:PROC			; debug_fatal
EXTRN	?transmit_entity_comms_message@@YAXW4ENTITY_COMMS_MESSAGES@@PAUENTITY@@ZZ:PROC ; transmit_entity_comms_message
EXTRN	?assert_client_server_local_fn@@YGHXZ:PROC	; assert_client_server_local_fn
EXTRN	?assert_client_server_remote_fn@@YGHXZ:PROC	; assert_client_server_remote_fn
EXTRN	?null_entity_pointer_message@@3PBDB:DWORD	; null_entity_pointer_message
EXTRN	?entity_type_database@@3PAUENTITY_TYPE_DATA@@A:BYTE ; entity_type_database
EXTRN	?system_comms_data_flow@@3W4COMMS_DATA_FLOW_TYPES@@A:DWORD ; system_comms_data_flow
EXTRN	?vec3d_type_database@@3PAUVEC3D_TYPE_DATA@@A:BYTE ; vec3d_type_database
EXTRN	?debug_fatal_invalid_vec3d_type_message@@3PBDB:DWORD ; debug_fatal_invalid_vec3d_type_message
EXTRN	?fn_set_local_entity_raw_vec3d@@3PAY0BI@P6GXPAUENTITY@@W4VEC3D_TYPES@@PAUVEC3D@@@ZA:BYTE ; fn_set_local_entity_raw_vec3d
EXTRN	?fn_set_local_entity_vec3d@@3PAY0BI@P6GXPAUENTITY@@W4VEC3D_TYPES@@PAUVEC3D@@@ZA:BYTE ; fn_set_local_entity_vec3d
EXTRN	?fn_set_client_server_entity_vec3d@@3PAY1BI@1P6GXPAUENTITY@@W4VEC3D_TYPES@@PAUVEC3D@@@ZA:BYTE ; fn_set_client_server_entity_vec3d
EXTRN	?fn_get_local_entity_vec3d@@3PAY0BI@P6GXPAUENTITY@@W4VEC3D_TYPES@@PAUVEC3D@@@ZA:BYTE ; fn_get_local_entity_vec3d
EXTRN	?fn_get_local_entity_vec3d_ptr@@3PAY0BI@P6GPAUVEC3D@@PAUENTITY@@W4VEC3D_TYPES@@@ZA:BYTE ; fn_get_local_entity_vec3d_ptr
EXTRN	?entities@@3PAUENTITY@@A:DWORD			; entities
;	COMDAT ?__LINE__Var@?0??get_local_vec3d_ptr@@YGPAUVEC3D@@PAUENTITY@@W4VEC3D_TYPES@@@Z@4JA
_DATA	SEGMENT
?__LINE__Var@?0??get_local_vec3d_ptr@@YGPAUVEC3D@@PAUENTITY@@W4VEC3D_TYPES@@@Z@4JA DD 0121H ; `get_local_vec3d_ptr'::`1'::__LINE__Var
_DATA	ENDS
;	COMDAT ?__LINE__Var@?0??get_local_vec3d@@YGXPAUENTITY@@W4VEC3D_TYPES@@PAUVEC3D@@@Z@4JA
_DATA	SEGMENT
?__LINE__Var@?0??get_local_vec3d@@YGXPAUENTITY@@W4VEC3D_TYPES@@PAUVEC3D@@@Z@4JA DD 0efH ; `get_local_vec3d'::`1'::__LINE__Var
_DATA	ENDS
;	COMDAT ?__LINE__Var@?0??set_client_vec3d@@YGXPAUENTITY@@W4VEC3D_TYPES@@PAUVEC3D@@@Z@4JA
_DATA	SEGMENT
?__LINE__Var@?0??set_client_vec3d@@YGXPAUENTITY@@W4VEC3D_TYPES@@PAUVEC3D@@@Z@4JA DD 0d9H ; `set_client_vec3d'::`1'::__LINE__Var
_DATA	ENDS
;	COMDAT ??_C@_0CC@BNNNEGEG@assert_client_server_remote_fn?5@
CONST	SEGMENT
??_C@_0CC@BNNNEGEG@assert_client_server_remote_fn?5@ DB 'assert_client_se'
	DB	'rver_remote_fn ()', 00H			; `string'
CONST	ENDS
;	COMDAT ??_C@_0CB@CFOCLFOK@assert_client_server_local_fn?5?$CI@
CONST	SEGMENT
??_C@_0CB@CFOCLFOK@assert_client_server_local_fn?5?$CI@ DB 'assert_client'
	DB	'_server_local_fn ()', 00H			; `string'
CONST	ENDS
;	COMDAT ?__LINE__Var@?0??set_server_vec3d@@YGXPAUENTITY@@W4VEC3D_TYPES@@PAUVEC3D@@@Z@4JA
_DATA	SEGMENT
?__LINE__Var@?0??set_server_vec3d@@YGXPAUENTITY@@W4VEC3D_TYPES@@PAUVEC3D@@@Z@4JA DD 0c8H ; `set_server_vec3d'::`1'::__LINE__Var
_DATA	ENDS
;	COMDAT ?__LINE__Var@?0??set_remote_vec3d@@YGXPAUENTITY@@W4VEC3D_TYPES@@PAUVEC3D@@@Z@4JA
_DATA	SEGMENT
?__LINE__Var@?0??set_remote_vec3d@@YGXPAUENTITY@@W4VEC3D_TYPES@@PAUVEC3D@@@Z@4JA DD 0b7H ; `set_remote_vec3d'::`1'::__LINE__Var
_DATA	ENDS
;	COMDAT ?__LINE__Var@?0??set_local_vec3d@@YGXPAUENTITY@@W4VEC3D_TYPES@@PAUVEC3D@@@Z@4JA
_DATA	SEGMENT
?__LINE__Var@?0??set_local_vec3d@@YGXPAUENTITY@@W4VEC3D_TYPES@@PAUVEC3D@@@Z@4JA DD 079H ; `set_local_vec3d'::`1'::__LINE__Var
_DATA	ENDS
;	COMDAT ??_C@_01MHEDDDHA@v@
CONST	SEGMENT
??_C@_01MHEDDDHA@v@ DB 'v', 00H				; `string'
CONST	ENDS
;	COMDAT ??_C@_0EL@ONCDJIFJ@c?3?2users?2nhv90?2projects?2eech?2ap@
CONST	SEGMENT
??_C@_0EL@ONCDJIFJ@c?3?2users?2nhv90?2projects?2eech?2ap@ DB 'c:\users\nh'
	DB	'v90\projects\eech\aphavoc\source\entity\special\task\ts_vec3d'
	DB	'.c', 00H					; `string'
CONST	ENDS
;	COMDAT ?__LINE__Var@?0??set_local_raw_vec3d@@YGXPAUENTITY@@W4VEC3D_TYPES@@PAUVEC3D@@@Z@4JA
_DATA	SEGMENT
?__LINE__Var@?0??set_local_raw_vec3d@@YGXPAUENTITY@@W4VEC3D_TYPES@@PAUVEC3D@@@Z@4JA DD 050H ; `set_local_raw_vec3d'::`1'::__LINE__Var
_DATA	ENDS
; Function compile flags: /Odtp /ZI
; File c:\users\nhv90\projects\eech\aphavoc\source\entity\special\task\ts_vec3d.c
;	COMDAT ?get_local_vec3d_ptr@@YGPAUVEC3D@@PAUENTITY@@W4VEC3D_TYPES@@@Z
_TEXT	SEGMENT
tv93 = -76						; size = 4
tv65 = -76						; size = 4
_v$ = -8						; size = 4
_raw$ = -4						; size = 4
_en$ = 8						; size = 4
_type$ = 12						; size = 4
?get_local_vec3d_ptr@@YGPAUVEC3D@@PAUENTITY@@W4VEC3D_TYPES@@@Z PROC ; get_local_vec3d_ptr, COMDAT

; 289  : {

  00000	55		 push	 ebp
  00001	8b ec		 mov	 ebp, esp
  00003	83 ec 4c	 sub	 esp, 76			; 0000004cH
  00006	53		 push	 ebx
  00007	56		 push	 esi
  00008	57		 push	 edi

; 290  : 	task
; 291  : 		*raw;
; 292  : 
; 293  : 	vec3d
; 294  : 		*v;
; 295  : 
; 296  : 	raw = (task *) get_local_entity_data (en);

  00009	8b 45 08	 mov	 eax, DWORD PTR _en$[ebp]
  0000c	8b 48 04	 mov	 ecx, DWORD PTR [eax+4]
  0000f	89 4d fc	 mov	 DWORD PTR _raw$[ebp], ecx

; 297  : 
; 298  : 	switch (type)

  00012	8b 45 0c	 mov	 eax, DWORD PTR _type$[ebp]
  00015	89 45 b4	 mov	 DWORD PTR tv65[ebp], eax
  00018	83 7d b4 08	 cmp	 DWORD PTR tv65[ebp], 8
  0001c	74 0e		 je	 SHORT $LN4@get_local_
  0001e	83 7d b4 0a	 cmp	 DWORD PTR tv65[ebp], 10	; 0000000aH
  00022	74 16		 je	 SHORT $LN5@get_local_
  00024	83 7d b4 0b	 cmp	 DWORD PTR tv65[ebp], 11	; 0000000bH
  00028	74 26		 je	 SHORT $LN6@get_local_
  0002a	eb 47		 jmp	 SHORT $LN7@get_local_
$LN4@get_local_:

; 299  : 	{
; 300  : 		////////////////////////////////////////
; 301  : 		case VEC3D_TYPE_POSITION:
; 302  : 		////////////////////////////////////////
; 303  : 		{
; 304  : 			v = &raw->position;

  0002c	8b 45 fc	 mov	 eax, DWORD PTR _raw$[ebp]
  0002f	83 c0 08	 add	 eax, 8
  00032	89 45 f8	 mov	 DWORD PTR _v$[ebp], eax

; 305  : 
; 306  : 			break;

  00035	e9 ab 00 00 00	 jmp	 $LN2@get_local_
$LN5@get_local_:

; 307  : 		}
; 308  : 		////////////////////////////////////////
; 309  : 		case VEC3D_TYPE_START_POSITION:
; 310  : 		////////////////////////////////////////
; 311  : 		{
; 312  : 			v = &raw->route_nodes [0];

  0003a	b8 0c 00 00 00	 mov	 eax, 12			; 0000000cH
  0003f	6b c8 00	 imul	 ecx, eax, 0
  00042	8b 55 fc	 mov	 edx, DWORD PTR _raw$[ebp]
  00045	03 4a 14	 add	 ecx, DWORD PTR [edx+20]
  00048	89 4d f8	 mov	 DWORD PTR _v$[ebp], ecx

; 313  : 
; 314  : 			break;

  0004b	e9 95 00 00 00	 jmp	 $LN2@get_local_
$LN6@get_local_:

; 315  : 		}
; 316  : 		////////////////////////////////////////
; 317  : 		case VEC3D_TYPE_STOP_POSITION:
; 318  : 		////////////////////////////////////////
; 319  : 		{
; 320  : 			v = &raw->route_nodes [raw->route_length - 1];

  00050	8b 45 fc	 mov	 eax, DWORD PTR _raw$[ebp]
  00053	8b 88 a4 00 00
	00		 mov	 ecx, DWORD PTR [eax+164]
  00059	c1 e9 10	 shr	 ecx, 16			; 00000010H
  0005c	81 e1 ff ff 00
	00		 and	 ecx, 65535		; 0000ffffH
  00062	83 e9 01	 sub	 ecx, 1
  00065	6b d1 0c	 imul	 edx, ecx, 12
  00068	8b 45 fc	 mov	 eax, DWORD PTR _raw$[ebp]
  0006b	03 50 14	 add	 edx, DWORD PTR [eax+20]
  0006e	89 55 f8	 mov	 DWORD PTR _v$[ebp], edx

; 321  : 
; 322  : 			break;

  00071	eb 72		 jmp	 SHORT $LN2@get_local_
$LN7@get_local_:

; 323  : 		}
; 324  : 		////////////////////////////////////////
; 325  : 		default:
; 326  : 		////////////////////////////////////////
; 327  : 		{
; 328  : 			debug_fatal_invalid_vec3d_type (en, type);

  00073	83 7d 08 00	 cmp	 DWORD PTR _en$[ebp], 0
  00077	74 0a		 je	 SHORT $LN9@get_local_
  00079	8b 45 08	 mov	 eax, DWORD PTR _en$[ebp]
  0007c	8b 08		 mov	 ecx, DWORD PTR [eax]
  0007e	89 4d b4	 mov	 DWORD PTR tv93[ebp], ecx
  00081	eb 21		 jmp	 SHORT $LN10@get_local_
$LN9@get_local_:
  00083	8b 15 00 00 00
	00		 mov	 edx, DWORD PTR ?__LINE__Var@?0??get_local_vec3d_ptr@@YGPAUVEC3D@@PAUENTITY@@W4VEC3D_TYPES@@@Z@4JA
  00089	83 c2 27	 add	 edx, 39			; 00000027H
  0008c	52		 push	 edx
  0008d	68 00 00 00 00	 push	 OFFSET ??_C@_0EL@ONCDJIFJ@c?3?2users?2nhv90?2projects?2eech?2ap@
  00092	a1 00 00 00 00	 mov	 eax, DWORD PTR ?null_entity_pointer_message@@3PBDB ; null_entity_pointer_message
  00097	50		 push	 eax
  00098	e8 00 00 00 00	 call	 ?process_assert@@YGXPBD0H@Z ; process_assert
  0009d	c7 45 b4 00 00
	00 00		 mov	 DWORD PTR tv93[ebp], 0
$LN10@get_local_:
  000a4	8b 0d 00 00 00
	00		 mov	 ecx, DWORD PTR ?__LINE__Var@?0??get_local_vec3d_ptr@@YGPAUVEC3D@@PAUENTITY@@W4VEC3D_TYPES@@@Z@4JA
  000aa	83 c1 27	 add	 ecx, 39			; 00000027H
  000ad	51		 push	 ecx
  000ae	68 00 00 00 00	 push	 OFFSET ??_C@_0EL@ONCDJIFJ@c?3?2users?2nhv90?2projects?2eech?2ap@
  000b3	6b 55 0c 0c	 imul	 edx, DWORD PTR _type$[ebp], 12
  000b7	8b 82 00 00 00
	00		 mov	 eax, DWORD PTR ?vec3d_type_database@@3PAUVEC3D_TYPE_DATA@@A[edx]
  000bd	50		 push	 eax
  000be	8b 4d 08	 mov	 ecx, DWORD PTR _en$[ebp]
  000c1	2b 0d 00 00 00
	00		 sub	 ecx, DWORD PTR ?entities@@3PAUENTITY@@A ; entities
  000c7	c1 f9 04	 sar	 ecx, 4
  000ca	51		 push	 ecx
  000cb	6b 55 b4 0c	 imul	 edx, DWORD PTR tv93[ebp], 12
  000cf	8b 82 00 00 00
	00		 mov	 eax, DWORD PTR ?entity_type_database@@3PAUENTITY_TYPE_DATA@@A[edx]
  000d5	50		 push	 eax
  000d6	8b 0d 00 00 00
	00		 mov	 ecx, DWORD PTR ?debug_fatal_invalid_vec3d_type_message@@3PBDB ; debug_fatal_invalid_vec3d_type_message
  000dc	51		 push	 ecx
  000dd	e8 00 00 00 00	 call	 ?debug_fatal@@YAXPBDZZ	; debug_fatal
  000e2	83 c4 18	 add	 esp, 24			; 00000018H
$LN2@get_local_:

; 329  : 
; 330  : 			break;
; 331  : 		}
; 332  : 	}
; 333  : 
; 334  : 	return (v);

  000e5	8b 45 f8	 mov	 eax, DWORD PTR _v$[ebp]

; 335  : }

  000e8	5f		 pop	 edi
  000e9	5e		 pop	 esi
  000ea	5b		 pop	 ebx
  000eb	8b e5		 mov	 esp, ebp
  000ed	5d		 pop	 ebp
  000ee	c2 08 00	 ret	 8
?get_local_vec3d_ptr@@YGPAUVEC3D@@PAUENTITY@@W4VEC3D_TYPES@@@Z ENDP ; get_local_vec3d_ptr
_TEXT	ENDS
; Function compile flags: /Odtp /ZI
; File c:\users\nhv90\projects\eech\aphavoc\source\entity\special\task\ts_vec3d.c
;	COMDAT ?get_local_vec3d@@YGXPAUENTITY@@W4VEC3D_TYPES@@PAUVEC3D@@@Z
_TEXT	SEGMENT
tv133 = -72						; size = 4
tv70 = -72						; size = 4
_raw$ = -4						; size = 4
_en$ = 8						; size = 4
_type$ = 12						; size = 4
_v$ = 16						; size = 4
?get_local_vec3d@@YGXPAUENTITY@@W4VEC3D_TYPES@@PAUVEC3D@@@Z PROC ; get_local_vec3d, COMDAT

; 239  : {

  00000	55		 push	 ebp
  00001	8b ec		 mov	 ebp, esp
  00003	83 ec 48	 sub	 esp, 72			; 00000048H
  00006	53		 push	 ebx
  00007	56		 push	 esi
  00008	57		 push	 edi

; 240  : 	task
; 241  : 		*raw;
; 242  : 
; 243  : 	ASSERT (v);

  00009	83 7d 10 00	 cmp	 DWORD PTR _v$[ebp], 0
  0000d	75 18		 jne	 SHORT $LN4@get_local_
  0000f	a1 00 00 00 00	 mov	 eax, DWORD PTR ?__LINE__Var@?0??get_local_vec3d@@YGXPAUENTITY@@W4VEC3D_TYPES@@PAUVEC3D@@@Z@4JA
  00014	83 c0 04	 add	 eax, 4
  00017	50		 push	 eax
  00018	68 00 00 00 00	 push	 OFFSET ??_C@_0EL@ONCDJIFJ@c?3?2users?2nhv90?2projects?2eech?2ap@
  0001d	68 00 00 00 00	 push	 OFFSET ??_C@_01MHEDDDHA@v@
  00022	e8 00 00 00 00	 call	 ?process_assert@@YGXPBD0H@Z ; process_assert
$LN4@get_local_:

; 244  : 
; 245  : 	raw = (task *) get_local_entity_data (en);

  00027	8b 45 08	 mov	 eax, DWORD PTR _en$[ebp]
  0002a	8b 48 04	 mov	 ecx, DWORD PTR [eax+4]
  0002d	89 4d fc	 mov	 DWORD PTR _raw$[ebp], ecx

; 246  : 
; 247  : 	switch (type)

  00030	8b 45 0c	 mov	 eax, DWORD PTR _type$[ebp]
  00033	89 45 b8	 mov	 DWORD PTR tv70[ebp], eax
  00036	83 7d b8 08	 cmp	 DWORD PTR tv70[ebp], 8
  0003a	74 0e		 je	 SHORT $LN5@get_local_
  0003c	83 7d b8 0a	 cmp	 DWORD PTR tv70[ebp], 10	; 0000000aH
  00040	74 26		 je	 SHORT $LN6@get_local_
  00042	83 7d b8 0b	 cmp	 DWORD PTR tv70[ebp], 11	; 0000000bH
  00046	74 48		 je	 SHORT $LN7@get_local_
  00048	eb 7b		 jmp	 SHORT $LN8@get_local_
$LN5@get_local_:

; 248  : 	{
; 249  : 		////////////////////////////////////////
; 250  : 		case VEC3D_TYPE_POSITION:
; 251  : 		////////////////////////////////////////
; 252  : 		{
; 253  : 			*v = raw->position;

  0004a	8b 45 fc	 mov	 eax, DWORD PTR _raw$[ebp]
  0004d	83 c0 08	 add	 eax, 8
  00050	8b 4d 10	 mov	 ecx, DWORD PTR _v$[ebp]
  00053	8b 10		 mov	 edx, DWORD PTR [eax]
  00055	89 11		 mov	 DWORD PTR [ecx], edx
  00057	8b 50 04	 mov	 edx, DWORD PTR [eax+4]
  0005a	89 51 04	 mov	 DWORD PTR [ecx+4], edx
  0005d	8b 40 08	 mov	 eax, DWORD PTR [eax+8]
  00060	89 41 08	 mov	 DWORD PTR [ecx+8], eax

; 254  : 
; 255  : 			break;

  00063	e9 cf 00 00 00	 jmp	 $LN1@get_local_
$LN6@get_local_:

; 256  : 		}
; 257  : 		////////////////////////////////////////
; 258  : 		case VEC3D_TYPE_START_POSITION:
; 259  : 		////////////////////////////////////////
; 260  : 		{
; 261  : 			*v = raw->route_nodes [0];

  00068	b8 0c 00 00 00	 mov	 eax, 12			; 0000000cH
  0006d	6b c8 00	 imul	 ecx, eax, 0
  00070	8b 55 fc	 mov	 edx, DWORD PTR _raw$[ebp]
  00073	8b 42 14	 mov	 eax, DWORD PTR [edx+20]
  00076	03 c1		 add	 eax, ecx
  00078	8b 4d 10	 mov	 ecx, DWORD PTR _v$[ebp]
  0007b	8b 10		 mov	 edx, DWORD PTR [eax]
  0007d	89 11		 mov	 DWORD PTR [ecx], edx
  0007f	8b 50 04	 mov	 edx, DWORD PTR [eax+4]
  00082	89 51 04	 mov	 DWORD PTR [ecx+4], edx
  00085	8b 40 08	 mov	 eax, DWORD PTR [eax+8]
  00088	89 41 08	 mov	 DWORD PTR [ecx+8], eax

; 262  : 
; 263  : 			break;

  0008b	e9 a7 00 00 00	 jmp	 $LN1@get_local_
$LN7@get_local_:

; 264  : 		}
; 265  : 		////////////////////////////////////////
; 266  : 		case VEC3D_TYPE_STOP_POSITION:
; 267  : 		////////////////////////////////////////
; 268  : 		{
; 269  : 			*v = raw->route_nodes [raw->route_length - 1];

  00090	8b 45 fc	 mov	 eax, DWORD PTR _raw$[ebp]
  00093	8b 88 a4 00 00
	00		 mov	 ecx, DWORD PTR [eax+164]
  00099	c1 e9 10	 shr	 ecx, 16			; 00000010H
  0009c	81 e1 ff ff 00
	00		 and	 ecx, 65535		; 0000ffffH
  000a2	83 e9 01	 sub	 ecx, 1
  000a5	6b d1 0c	 imul	 edx, ecx, 12
  000a8	8b 45 fc	 mov	 eax, DWORD PTR _raw$[ebp]
  000ab	8b 48 14	 mov	 ecx, DWORD PTR [eax+20]
  000ae	03 ca		 add	 ecx, edx
  000b0	8b 55 10	 mov	 edx, DWORD PTR _v$[ebp]
  000b3	8b 01		 mov	 eax, DWORD PTR [ecx]
  000b5	89 02		 mov	 DWORD PTR [edx], eax
  000b7	8b 41 04	 mov	 eax, DWORD PTR [ecx+4]
  000ba	89 42 04	 mov	 DWORD PTR [edx+4], eax
  000bd	8b 49 08	 mov	 ecx, DWORD PTR [ecx+8]
  000c0	89 4a 08	 mov	 DWORD PTR [edx+8], ecx

; 270  : 
; 271  : 			break;

  000c3	eb 72		 jmp	 SHORT $LN1@get_local_
$LN8@get_local_:

; 272  : 		}
; 273  : 		////////////////////////////////////////
; 274  : 		default:
; 275  : 		////////////////////////////////////////
; 276  : 		{
; 277  : 			debug_fatal_invalid_vec3d_type (en, type);

  000c5	83 7d 08 00	 cmp	 DWORD PTR _en$[ebp], 0
  000c9	74 0a		 je	 SHORT $LN10@get_local_
  000cb	8b 45 08	 mov	 eax, DWORD PTR _en$[ebp]
  000ce	8b 08		 mov	 ecx, DWORD PTR [eax]
  000d0	89 4d b8	 mov	 DWORD PTR tv133[ebp], ecx
  000d3	eb 21		 jmp	 SHORT $LN11@get_local_
$LN10@get_local_:
  000d5	8b 15 00 00 00
	00		 mov	 edx, DWORD PTR ?__LINE__Var@?0??get_local_vec3d@@YGXPAUENTITY@@W4VEC3D_TYPES@@PAUVEC3D@@@Z@4JA
  000db	83 c2 26	 add	 edx, 38			; 00000026H
  000de	52		 push	 edx
  000df	68 00 00 00 00	 push	 OFFSET ??_C@_0EL@ONCDJIFJ@c?3?2users?2nhv90?2projects?2eech?2ap@
  000e4	a1 00 00 00 00	 mov	 eax, DWORD PTR ?null_entity_pointer_message@@3PBDB ; null_entity_pointer_message
  000e9	50		 push	 eax
  000ea	e8 00 00 00 00	 call	 ?process_assert@@YGXPBD0H@Z ; process_assert
  000ef	c7 45 b8 00 00
	00 00		 mov	 DWORD PTR tv133[ebp], 0
$LN11@get_local_:
  000f6	8b 0d 00 00 00
	00		 mov	 ecx, DWORD PTR ?__LINE__Var@?0??get_local_vec3d@@YGXPAUENTITY@@W4VEC3D_TYPES@@PAUVEC3D@@@Z@4JA
  000fc	83 c1 26	 add	 ecx, 38			; 00000026H
  000ff	51		 push	 ecx
  00100	68 00 00 00 00	 push	 OFFSET ??_C@_0EL@ONCDJIFJ@c?3?2users?2nhv90?2projects?2eech?2ap@
  00105	6b 55 0c 0c	 imul	 edx, DWORD PTR _type$[ebp], 12
  00109	8b 82 00 00 00
	00		 mov	 eax, DWORD PTR ?vec3d_type_database@@3PAUVEC3D_TYPE_DATA@@A[edx]
  0010f	50		 push	 eax
  00110	8b 4d 08	 mov	 ecx, DWORD PTR _en$[ebp]
  00113	2b 0d 00 00 00
	00		 sub	 ecx, DWORD PTR ?entities@@3PAUENTITY@@A ; entities
  00119	c1 f9 04	 sar	 ecx, 4
  0011c	51		 push	 ecx
  0011d	6b 55 b8 0c	 imul	 edx, DWORD PTR tv133[ebp], 12
  00121	8b 82 00 00 00
	00		 mov	 eax, DWORD PTR ?entity_type_database@@3PAUENTITY_TYPE_DATA@@A[edx]
  00127	50		 push	 eax
  00128	8b 0d 00 00 00
	00		 mov	 ecx, DWORD PTR ?debug_fatal_invalid_vec3d_type_message@@3PBDB ; debug_fatal_invalid_vec3d_type_message
  0012e	51		 push	 ecx
  0012f	e8 00 00 00 00	 call	 ?debug_fatal@@YAXPBDZZ	; debug_fatal
  00134	83 c4 18	 add	 esp, 24			; 00000018H
$LN1@get_local_:

; 278  : 
; 279  : 			break;
; 280  : 		}
; 281  : 	}
; 282  : }

  00137	5f		 pop	 edi
  00138	5e		 pop	 esi
  00139	5b		 pop	 ebx
  0013a	8b e5		 mov	 esp, ebp
  0013c	5d		 pop	 ebp
  0013d	c2 0c 00	 ret	 12			; 0000000cH
?get_local_vec3d@@YGXPAUENTITY@@W4VEC3D_TYPES@@PAUVEC3D@@@Z ENDP ; get_local_vec3d
_TEXT	ENDS
; Function compile flags: /Odtp /ZI
; File c:\users\nhv90\projects\eech\aphavoc\source\entity\special\task\ts_vec3d.c
;	COMDAT ?set_client_vec3d@@YGXPAUENTITY@@W4VEC3D_TYPES@@PAUVEC3D@@@Z
_TEXT	SEGMENT
_en$ = 8						; size = 4
_type$ = 12						; size = 4
_v$ = 16						; size = 4
?set_client_vec3d@@YGXPAUENTITY@@W4VEC3D_TYPES@@PAUVEC3D@@@Z PROC ; set_client_vec3d, COMDAT

; 217  : {

  00000	55		 push	 ebp
  00001	8b ec		 mov	 ebp, esp
  00003	83 ec 40	 sub	 esp, 64			; 00000040H
  00006	53		 push	 ebx
  00007	56		 push	 esi
  00008	57		 push	 edi

; 218  : 	ASSERT (v);

  00009	83 7d 10 00	 cmp	 DWORD PTR _v$[ebp], 0
  0000d	75 18		 jne	 SHORT $LN2@set_client
  0000f	a1 00 00 00 00	 mov	 eax, DWORD PTR ?__LINE__Var@?0??set_client_vec3d@@YGXPAUENTITY@@W4VEC3D_TYPES@@PAUVEC3D@@@Z@4JA
  00014	83 c0 01	 add	 eax, 1
  00017	50		 push	 eax
  00018	68 00 00 00 00	 push	 OFFSET ??_C@_0EL@ONCDJIFJ@c?3?2users?2nhv90?2projects?2eech?2ap@
  0001d	68 00 00 00 00	 push	 OFFSET ??_C@_01MHEDDDHA@v@
  00022	e8 00 00 00 00	 call	 ?process_assert@@YGXPBD0H@Z ; process_assert
$LN2@set_client:

; 219  : 
; 220  : 	if (get_comms_data_flow () == COMMS_DATA_FLOW_TX)

  00027	83 3d 00 00 00
	00 00		 cmp	 DWORD PTR ?system_comms_data_flow@@3W4COMMS_DATA_FLOW_TYPES@@A, 0 ; system_comms_data_flow
  0002e	75 34		 jne	 SHORT $LN3@set_client

; 221  : 	{
; 222  : 		validate_client_server_remote_fn ();

  00030	e8 00 00 00 00	 call	 ?assert_client_server_remote_fn@@YGHXZ ; assert_client_server_remote_fn
  00035	85 c0		 test	 eax, eax
  00037	75 18		 jne	 SHORT $LN5@set_client
  00039	a1 00 00 00 00	 mov	 eax, DWORD PTR ?__LINE__Var@?0??set_client_vec3d@@YGXPAUENTITY@@W4VEC3D_TYPES@@PAUVEC3D@@@Z@4JA
  0003e	83 c0 05	 add	 eax, 5
  00041	50		 push	 eax
  00042	68 00 00 00 00	 push	 OFFSET ??_C@_0EL@ONCDJIFJ@c?3?2users?2nhv90?2projects?2eech?2ap@
  00047	68 00 00 00 00	 push	 OFFSET ??_C@_0CC@BNNNEGEG@assert_client_server_remote_fn?5@
  0004c	e8 00 00 00 00	 call	 ?process_assert@@YGXPBD0H@Z ; process_assert
$LN5@set_client:

; 223  : 
; 224  : 		set_remote_vec3d (en, type, v);

  00051	8b 45 10	 mov	 eax, DWORD PTR _v$[ebp]
  00054	50		 push	 eax
  00055	8b 4d 0c	 mov	 ecx, DWORD PTR _type$[ebp]
  00058	51		 push	 ecx
  00059	8b 55 08	 mov	 edx, DWORD PTR _en$[ebp]
  0005c	52		 push	 edx
  0005d	e8 00 00 00 00	 call	 ?set_remote_vec3d@@YGXPAUENTITY@@W4VEC3D_TYPES@@PAUVEC3D@@@Z ; set_remote_vec3d

; 225  : 	}
; 226  : 	else

  00062	eb 32		 jmp	 SHORT $LN1@set_client
$LN3@set_client:

; 227  : 	{
; 228  : 		validate_client_server_local_fn ();

  00064	e8 00 00 00 00	 call	 ?assert_client_server_local_fn@@YGHXZ ; assert_client_server_local_fn
  00069	85 c0		 test	 eax, eax
  0006b	75 18		 jne	 SHORT $LN6@set_client
  0006d	a1 00 00 00 00	 mov	 eax, DWORD PTR ?__LINE__Var@?0??set_client_vec3d@@YGXPAUENTITY@@W4VEC3D_TYPES@@PAUVEC3D@@@Z@4JA
  00072	83 c0 0b	 add	 eax, 11			; 0000000bH
  00075	50		 push	 eax
  00076	68 00 00 00 00	 push	 OFFSET ??_C@_0EL@ONCDJIFJ@c?3?2users?2nhv90?2projects?2eech?2ap@
  0007b	68 00 00 00 00	 push	 OFFSET ??_C@_0CB@CFOCLFOK@assert_client_server_local_fn?5?$CI@
  00080	e8 00 00 00 00	 call	 ?process_assert@@YGXPBD0H@Z ; process_assert
$LN6@set_client:

; 229  : 
; 230  : 		set_local_vec3d (en, type, v);

  00085	8b 45 10	 mov	 eax, DWORD PTR _v$[ebp]
  00088	50		 push	 eax
  00089	8b 4d 0c	 mov	 ecx, DWORD PTR _type$[ebp]
  0008c	51		 push	 ecx
  0008d	8b 55 08	 mov	 edx, DWORD PTR _en$[ebp]
  00090	52		 push	 edx
  00091	e8 00 00 00 00	 call	 ?set_local_vec3d@@YGXPAUENTITY@@W4VEC3D_TYPES@@PAUVEC3D@@@Z ; set_local_vec3d
$LN1@set_client:

; 231  : 	}
; 232  : }

  00096	5f		 pop	 edi
  00097	5e		 pop	 esi
  00098	5b		 pop	 ebx
  00099	8b e5		 mov	 esp, ebp
  0009b	5d		 pop	 ebp
  0009c	c2 0c 00	 ret	 12			; 0000000cH
?set_client_vec3d@@YGXPAUENTITY@@W4VEC3D_TYPES@@PAUVEC3D@@@Z ENDP ; set_client_vec3d
_TEXT	ENDS
; Function compile flags: /Odtp /ZI
; File c:\users\nhv90\projects\eech\aphavoc\source\entity\special\task\ts_vec3d.c
;	COMDAT ?set_server_vec3d@@YGXPAUENTITY@@W4VEC3D_TYPES@@PAUVEC3D@@@Z
_TEXT	SEGMENT
_en$ = 8						; size = 4
_type$ = 12						; size = 4
_v$ = 16						; size = 4
?set_server_vec3d@@YGXPAUENTITY@@W4VEC3D_TYPES@@PAUVEC3D@@@Z PROC ; set_server_vec3d, COMDAT

; 200  : {

  00000	55		 push	 ebp
  00001	8b ec		 mov	 ebp, esp
  00003	83 ec 40	 sub	 esp, 64			; 00000040H
  00006	53		 push	 ebx
  00007	56		 push	 esi
  00008	57		 push	 edi

; 201  : 	ASSERT (v);

  00009	83 7d 10 00	 cmp	 DWORD PTR _v$[ebp], 0
  0000d	75 18		 jne	 SHORT $LN2@set_server
  0000f	a1 00 00 00 00	 mov	 eax, DWORD PTR ?__LINE__Var@?0??set_server_vec3d@@YGXPAUENTITY@@W4VEC3D_TYPES@@PAUVEC3D@@@Z@4JA
  00014	83 c0 01	 add	 eax, 1
  00017	50		 push	 eax
  00018	68 00 00 00 00	 push	 OFFSET ??_C@_0EL@ONCDJIFJ@c?3?2users?2nhv90?2projects?2eech?2ap@
  0001d	68 00 00 00 00	 push	 OFFSET ??_C@_01MHEDDDHA@v@
  00022	e8 00 00 00 00	 call	 ?process_assert@@YGXPBD0H@Z ; process_assert
$LN2@set_server:

; 202  : 
; 203  : 	validate_client_server_local_fn ();

  00027	e8 00 00 00 00	 call	 ?assert_client_server_local_fn@@YGHXZ ; assert_client_server_local_fn
  0002c	85 c0		 test	 eax, eax
  0002e	75 18		 jne	 SHORT $LN3@set_server
  00030	a1 00 00 00 00	 mov	 eax, DWORD PTR ?__LINE__Var@?0??set_server_vec3d@@YGXPAUENTITY@@W4VEC3D_TYPES@@PAUVEC3D@@@Z@4JA
  00035	83 c0 03	 add	 eax, 3
  00038	50		 push	 eax
  00039	68 00 00 00 00	 push	 OFFSET ??_C@_0EL@ONCDJIFJ@c?3?2users?2nhv90?2projects?2eech?2ap@
  0003e	68 00 00 00 00	 push	 OFFSET ??_C@_0CB@CFOCLFOK@assert_client_server_local_fn?5?$CI@
  00043	e8 00 00 00 00	 call	 ?process_assert@@YGXPBD0H@Z ; process_assert
$LN3@set_server:

; 204  : 
; 205  : 	set_local_vec3d (en, type, v);

  00048	8b 45 10	 mov	 eax, DWORD PTR _v$[ebp]
  0004b	50		 push	 eax
  0004c	8b 4d 0c	 mov	 ecx, DWORD PTR _type$[ebp]
  0004f	51		 push	 ecx
  00050	8b 55 08	 mov	 edx, DWORD PTR _en$[ebp]
  00053	52		 push	 edx
  00054	e8 00 00 00 00	 call	 ?set_local_vec3d@@YGXPAUENTITY@@W4VEC3D_TYPES@@PAUVEC3D@@@Z ; set_local_vec3d

; 206  : 
; 207  : 	validate_client_server_remote_fn ();

  00059	e8 00 00 00 00	 call	 ?assert_client_server_remote_fn@@YGHXZ ; assert_client_server_remote_fn
  0005e	85 c0		 test	 eax, eax
  00060	75 18		 jne	 SHORT $LN4@set_server
  00062	a1 00 00 00 00	 mov	 eax, DWORD PTR ?__LINE__Var@?0??set_server_vec3d@@YGXPAUENTITY@@W4VEC3D_TYPES@@PAUVEC3D@@@Z@4JA
  00067	83 c0 07	 add	 eax, 7
  0006a	50		 push	 eax
  0006b	68 00 00 00 00	 push	 OFFSET ??_C@_0EL@ONCDJIFJ@c?3?2users?2nhv90?2projects?2eech?2ap@
  00070	68 00 00 00 00	 push	 OFFSET ??_C@_0CC@BNNNEGEG@assert_client_server_remote_fn?5@
  00075	e8 00 00 00 00	 call	 ?process_assert@@YGXPBD0H@Z ; process_assert
$LN4@set_server:

; 208  : 
; 209  : 	set_remote_vec3d (en, type, v);

  0007a	8b 45 10	 mov	 eax, DWORD PTR _v$[ebp]
  0007d	50		 push	 eax
  0007e	8b 4d 0c	 mov	 ecx, DWORD PTR _type$[ebp]
  00081	51		 push	 ecx
  00082	8b 55 08	 mov	 edx, DWORD PTR _en$[ebp]
  00085	52		 push	 edx
  00086	e8 00 00 00 00	 call	 ?set_remote_vec3d@@YGXPAUENTITY@@W4VEC3D_TYPES@@PAUVEC3D@@@Z ; set_remote_vec3d

; 210  : }

  0008b	5f		 pop	 edi
  0008c	5e		 pop	 esi
  0008d	5b		 pop	 ebx
  0008e	8b e5		 mov	 esp, ebp
  00090	5d		 pop	 ebp
  00091	c2 0c 00	 ret	 12			; 0000000cH
?set_server_vec3d@@YGXPAUENTITY@@W4VEC3D_TYPES@@PAUVEC3D@@@Z ENDP ; set_server_vec3d
_TEXT	ENDS
; Function compile flags: /Odtp /ZI
; File c:\users\nhv90\projects\eech\aphavoc\source\entity\special\task\ts_vec3d.c
;	COMDAT ?set_remote_vec3d@@YGXPAUENTITY@@W4VEC3D_TYPES@@PAUVEC3D@@@Z
_TEXT	SEGMENT
_en$ = 8						; size = 4
_type$ = 12						; size = 4
_v$ = 16						; size = 4
?set_remote_vec3d@@YGXPAUENTITY@@W4VEC3D_TYPES@@PAUVEC3D@@@Z PROC ; set_remote_vec3d, COMDAT

; 183  : {

  00000	55		 push	 ebp
  00001	8b ec		 mov	 ebp, esp
  00003	83 ec 40	 sub	 esp, 64			; 00000040H
  00006	53		 push	 ebx
  00007	56		 push	 esi
  00008	57		 push	 edi

; 184  : 	ASSERT (v);

  00009	83 7d 10 00	 cmp	 DWORD PTR _v$[ebp], 0
  0000d	75 18		 jne	 SHORT $LN2@set_remote
  0000f	a1 00 00 00 00	 mov	 eax, DWORD PTR ?__LINE__Var@?0??set_remote_vec3d@@YGXPAUENTITY@@W4VEC3D_TYPES@@PAUVEC3D@@@Z@4JA
  00014	83 c0 01	 add	 eax, 1
  00017	50		 push	 eax
  00018	68 00 00 00 00	 push	 OFFSET ??_C@_0EL@ONCDJIFJ@c?3?2users?2nhv90?2projects?2eech?2ap@
  0001d	68 00 00 00 00	 push	 OFFSET ??_C@_01MHEDDDHA@v@
  00022	e8 00 00 00 00	 call	 ?process_assert@@YGXPBD0H@Z ; process_assert
$LN2@set_remote:

; 185  : 
; 186  : 	#if DEBUG_MODULE
; 187  : 
; 188  : 	debug_log_entity_args (ENTITY_DEBUG_REMOTE, ENTITY_DEBUG_VEC3D, en, type, v);
; 189  : 
; 190  : 	#endif
; 191  : 
; 192  : 	transmit_entity_comms_message (ENTITY_COMMS_VEC3D, en, type, v);

  00027	8b 45 10	 mov	 eax, DWORD PTR _v$[ebp]
  0002a	50		 push	 eax
  0002b	8b 4d 0c	 mov	 ecx, DWORD PTR _type$[ebp]
  0002e	51		 push	 ecx
  0002f	8b 55 08	 mov	 edx, DWORD PTR _en$[ebp]
  00032	52		 push	 edx
  00033	6a 42		 push	 66			; 00000042H
  00035	e8 00 00 00 00	 call	 ?transmit_entity_comms_message@@YAXW4ENTITY_COMMS_MESSAGES@@PAUENTITY@@ZZ ; transmit_entity_comms_message
  0003a	83 c4 10	 add	 esp, 16			; 00000010H

; 193  : }

  0003d	5f		 pop	 edi
  0003e	5e		 pop	 esi
  0003f	5b		 pop	 ebx
  00040	8b e5		 mov	 esp, ebp
  00042	5d		 pop	 ebp
  00043	c2 0c 00	 ret	 12			; 0000000cH
?set_remote_vec3d@@YGXPAUENTITY@@W4VEC3D_TYPES@@PAUVEC3D@@@Z ENDP ; set_remote_vec3d
_TEXT	ENDS
; Function compile flags: /Odtp /ZI
; File c:\users\nhv90\projects\eech\aphavoc\source\entity\special\task\ts_vec3d.c
;	COMDAT ?set_local_vec3d@@YGXPAUENTITY@@W4VEC3D_TYPES@@PAUVEC3D@@@Z
_TEXT	SEGMENT
tv89 = -72						; size = 4
tv70 = -72						; size = 4
_raw$ = -4						; size = 4
_en$ = 8						; size = 4
_type$ = 12						; size = 4
_v$ = 16						; size = 4
?set_local_vec3d@@YGXPAUENTITY@@W4VEC3D_TYPES@@PAUVEC3D@@@Z PROC ; set_local_vec3d, COMDAT

; 121  : {

  00000	55		 push	 ebp
  00001	8b ec		 mov	 ebp, esp
  00003	83 ec 48	 sub	 esp, 72			; 00000048H
  00006	53		 push	 ebx
  00007	56		 push	 esi
  00008	57		 push	 edi

; 122  : 
; 123  : 	task
; 124  : 		*raw;
; 125  : 
; 126  : 	ASSERT (v);

  00009	83 7d 10 00	 cmp	 DWORD PTR _v$[ebp], 0
  0000d	75 18		 jne	 SHORT $LN4@set_local_
  0000f	a1 00 00 00 00	 mov	 eax, DWORD PTR ?__LINE__Var@?0??set_local_vec3d@@YGXPAUENTITY@@W4VEC3D_TYPES@@PAUVEC3D@@@Z@4JA
  00014	83 c0 05	 add	 eax, 5
  00017	50		 push	 eax
  00018	68 00 00 00 00	 push	 OFFSET ??_C@_0EL@ONCDJIFJ@c?3?2users?2nhv90?2projects?2eech?2ap@
  0001d	68 00 00 00 00	 push	 OFFSET ??_C@_01MHEDDDHA@v@
  00022	e8 00 00 00 00	 call	 ?process_assert@@YGXPBD0H@Z ; process_assert
$LN4@set_local_:

; 127  : 
; 128  : 	#if DEBUG_MODULE
; 129  : 
; 130  : 	debug_log_entity_args (ENTITY_DEBUG_LOCAL, ENTITY_DEBUG_VEC3D, en, type, v);
; 131  : 
; 132  : 	#endif
; 133  : 
; 134  : 	raw = (task *) get_local_entity_data (en);

  00027	8b 45 08	 mov	 eax, DWORD PTR _en$[ebp]
  0002a	8b 48 04	 mov	 ecx, DWORD PTR [eax+4]
  0002d	89 4d fc	 mov	 DWORD PTR _raw$[ebp], ecx

; 135  : 
; 136  : 	switch (type)

  00030	8b 45 0c	 mov	 eax, DWORD PTR _type$[ebp]
  00033	89 45 b8	 mov	 DWORD PTR tv70[ebp], eax
  00036	83 7d b8 08	 cmp	 DWORD PTR tv70[ebp], 8
  0003a	74 02		 je	 SHORT $LN5@set_local_
  0003c	eb 1b		 jmp	 SHORT $LN6@set_local_
$LN5@set_local_:

; 137  : 	{
; 138  : 		////////////////////////////////////////
; 139  : 		case VEC3D_TYPE_POSITION:
; 140  : 		////////////////////////////////////////
; 141  : 		{
; 142  : 
; 143  : 			// is this needed for mobile landing ?
; 144  : 			//
; 145  : 			// if parent == keysite then mobile landing entity
; 146  : 			//
; 147  : /*
; 148  : 			entity
; 149  : 				*parent;
; 150  : 
; 151  : 			parent = get_local_entity_parent (en, LIST_TYPE_GENERIC_TASK);
; 152  : 
; 153  : 			if (parent)
; 154  : 			{
; 155  : 
; 156  : 				if (parent->type == ENTITY_TYPE_KEYSITE)
; 157  : 				{
; 158  : 
; 159  : 					notify_local_entity (ENTITY_MESSAGE_SET_ENTITY_POSITION, parent, en, v, 0.0, 0.0);
; 160  : 				}
; 161  : 			}
; 162  : */
; 163  : 			raw->position = *v;

  0003e	8b 45 fc	 mov	 eax, DWORD PTR _raw$[ebp]
  00041	83 c0 08	 add	 eax, 8
  00044	8b 4d 10	 mov	 ecx, DWORD PTR _v$[ebp]
  00047	8b 11		 mov	 edx, DWORD PTR [ecx]
  00049	89 10		 mov	 DWORD PTR [eax], edx
  0004b	8b 51 04	 mov	 edx, DWORD PTR [ecx+4]
  0004e	89 50 04	 mov	 DWORD PTR [eax+4], edx
  00051	8b 49 08	 mov	 ecx, DWORD PTR [ecx+8]
  00054	89 48 08	 mov	 DWORD PTR [eax+8], ecx

; 164  : 
; 165  : 			break;

  00057	eb 72		 jmp	 SHORT $LN1@set_local_
$LN6@set_local_:

; 166  : 		}
; 167  : 		////////////////////////////////////////
; 168  : 		default:
; 169  : 		////////////////////////////////////////
; 170  : 		{
; 171  : 			debug_fatal_invalid_vec3d_type (en, type);

  00059	83 7d 08 00	 cmp	 DWORD PTR _en$[ebp], 0
  0005d	74 0a		 je	 SHORT $LN8@set_local_
  0005f	8b 45 08	 mov	 eax, DWORD PTR _en$[ebp]
  00062	8b 08		 mov	 ecx, DWORD PTR [eax]
  00064	89 4d b8	 mov	 DWORD PTR tv89[ebp], ecx
  00067	eb 21		 jmp	 SHORT $LN9@set_local_
$LN8@set_local_:
  00069	8b 15 00 00 00
	00		 mov	 edx, DWORD PTR ?__LINE__Var@?0??set_local_vec3d@@YGXPAUENTITY@@W4VEC3D_TYPES@@PAUVEC3D@@@Z@4JA
  0006f	83 c2 32	 add	 edx, 50			; 00000032H
  00072	52		 push	 edx
  00073	68 00 00 00 00	 push	 OFFSET ??_C@_0EL@ONCDJIFJ@c?3?2users?2nhv90?2projects?2eech?2ap@
  00078	a1 00 00 00 00	 mov	 eax, DWORD PTR ?null_entity_pointer_message@@3PBDB ; null_entity_pointer_message
  0007d	50		 push	 eax
  0007e	e8 00 00 00 00	 call	 ?process_assert@@YGXPBD0H@Z ; process_assert
  00083	c7 45 b8 00 00
	00 00		 mov	 DWORD PTR tv89[ebp], 0
$LN9@set_local_:
  0008a	8b 0d 00 00 00
	00		 mov	 ecx, DWORD PTR ?__LINE__Var@?0??set_local_vec3d@@YGXPAUENTITY@@W4VEC3D_TYPES@@PAUVEC3D@@@Z@4JA
  00090	83 c1 32	 add	 ecx, 50			; 00000032H
  00093	51		 push	 ecx
  00094	68 00 00 00 00	 push	 OFFSET ??_C@_0EL@ONCDJIFJ@c?3?2users?2nhv90?2projects?2eech?2ap@
  00099	6b 55 0c 0c	 imul	 edx, DWORD PTR _type$[ebp], 12
  0009d	8b 82 00 00 00
	00		 mov	 eax, DWORD PTR ?vec3d_type_database@@3PAUVEC3D_TYPE_DATA@@A[edx]
  000a3	50		 push	 eax
  000a4	8b 4d 08	 mov	 ecx, DWORD PTR _en$[ebp]
  000a7	2b 0d 00 00 00
	00		 sub	 ecx, DWORD PTR ?entities@@3PAUENTITY@@A ; entities
  000ad	c1 f9 04	 sar	 ecx, 4
  000b0	51		 push	 ecx
  000b1	6b 55 b8 0c	 imul	 edx, DWORD PTR tv89[ebp], 12
  000b5	8b 82 00 00 00
	00		 mov	 eax, DWORD PTR ?entity_type_database@@3PAUENTITY_TYPE_DATA@@A[edx]
  000bb	50		 push	 eax
  000bc	8b 0d 00 00 00
	00		 mov	 ecx, DWORD PTR ?debug_fatal_invalid_vec3d_type_message@@3PBDB ; debug_fatal_invalid_vec3d_type_message
  000c2	51		 push	 ecx
  000c3	e8 00 00 00 00	 call	 ?debug_fatal@@YAXPBDZZ	; debug_fatal
  000c8	83 c4 18	 add	 esp, 24			; 00000018H
$LN1@set_local_:

; 172  : 
; 173  : 			break;
; 174  : 		}
; 175  : 	}
; 176  : }

  000cb	5f		 pop	 edi
  000cc	5e		 pop	 esi
  000cd	5b		 pop	 ebx
  000ce	8b e5		 mov	 esp, ebp
  000d0	5d		 pop	 ebp
  000d1	c2 0c 00	 ret	 12			; 0000000cH
?set_local_vec3d@@YGXPAUENTITY@@W4VEC3D_TYPES@@PAUVEC3D@@@Z ENDP ; set_local_vec3d
_TEXT	ENDS
; Function compile flags: /Odtp /ZI
; File c:\users\nhv90\projects\eech\aphavoc\source\entity\special\task\ts_vec3d.c
;	COMDAT ?set_local_raw_vec3d@@YGXPAUENTITY@@W4VEC3D_TYPES@@PAUVEC3D@@@Z
_TEXT	SEGMENT
tv89 = -72						; size = 4
tv70 = -72						; size = 4
_raw$ = -4						; size = 4
_en$ = 8						; size = 4
_type$ = 12						; size = 4
_v$ = 16						; size = 4
?set_local_raw_vec3d@@YGXPAUENTITY@@W4VEC3D_TYPES@@PAUVEC3D@@@Z PROC ; set_local_raw_vec3d, COMDAT

; 80   : {

  00000	55		 push	 ebp
  00001	8b ec		 mov	 ebp, esp
  00003	83 ec 48	 sub	 esp, 72			; 00000048H
  00006	53		 push	 ebx
  00007	56		 push	 esi
  00008	57		 push	 edi

; 81   : 	task
; 82   : 		*raw;
; 83   : 
; 84   : 	ASSERT (v);

  00009	83 7d 10 00	 cmp	 DWORD PTR _v$[ebp], 0
  0000d	75 18		 jne	 SHORT $LN4@set_local_
  0000f	a1 00 00 00 00	 mov	 eax, DWORD PTR ?__LINE__Var@?0??set_local_raw_vec3d@@YGXPAUENTITY@@W4VEC3D_TYPES@@PAUVEC3D@@@Z@4JA
  00014	83 c0 04	 add	 eax, 4
  00017	50		 push	 eax
  00018	68 00 00 00 00	 push	 OFFSET ??_C@_0EL@ONCDJIFJ@c?3?2users?2nhv90?2projects?2eech?2ap@
  0001d	68 00 00 00 00	 push	 OFFSET ??_C@_01MHEDDDHA@v@
  00022	e8 00 00 00 00	 call	 ?process_assert@@YGXPBD0H@Z ; process_assert
$LN4@set_local_:

; 85   : 
; 86   : 	#if DEBUG_MODULE
; 87   : 
; 88   : 	debug_log_entity_args (ENTITY_DEBUG_LOCAL, ENTITY_DEBUG_VEC3D, en, type, v);
; 89   : 
; 90   : 	#endif
; 91   : 
; 92   : 	raw = (task *) get_local_entity_data (en);

  00027	8b 45 08	 mov	 eax, DWORD PTR _en$[ebp]
  0002a	8b 48 04	 mov	 ecx, DWORD PTR [eax+4]
  0002d	89 4d fc	 mov	 DWORD PTR _raw$[ebp], ecx

; 93   : 
; 94   : 	switch (type)

  00030	8b 45 0c	 mov	 eax, DWORD PTR _type$[ebp]
  00033	89 45 b8	 mov	 DWORD PTR tv70[ebp], eax
  00036	83 7d b8 08	 cmp	 DWORD PTR tv70[ebp], 8
  0003a	74 02		 je	 SHORT $LN5@set_local_
  0003c	eb 1b		 jmp	 SHORT $LN6@set_local_
$LN5@set_local_:

; 95   : 	{
; 96   : 		////////////////////////////////////////
; 97   : 		case VEC3D_TYPE_POSITION:
; 98   : 		////////////////////////////////////////
; 99   : 		{
; 100  : 
; 101  : 			raw->position = *v;

  0003e	8b 45 fc	 mov	 eax, DWORD PTR _raw$[ebp]
  00041	83 c0 08	 add	 eax, 8
  00044	8b 4d 10	 mov	 ecx, DWORD PTR _v$[ebp]
  00047	8b 11		 mov	 edx, DWORD PTR [ecx]
  00049	89 10		 mov	 DWORD PTR [eax], edx
  0004b	8b 51 04	 mov	 edx, DWORD PTR [ecx+4]
  0004e	89 50 04	 mov	 DWORD PTR [eax+4], edx
  00051	8b 49 08	 mov	 ecx, DWORD PTR [ecx+8]
  00054	89 48 08	 mov	 DWORD PTR [eax+8], ecx

; 102  : 
; 103  : 			break;

  00057	eb 72		 jmp	 SHORT $LN1@set_local_
$LN6@set_local_:

; 104  : 		}
; 105  : 		////////////////////////////////////////
; 106  : 		default:
; 107  : 		////////////////////////////////////////
; 108  : 		{
; 109  : 			debug_fatal_invalid_vec3d_type (en, type);

  00059	83 7d 08 00	 cmp	 DWORD PTR _en$[ebp], 0
  0005d	74 0a		 je	 SHORT $LN8@set_local_
  0005f	8b 45 08	 mov	 eax, DWORD PTR _en$[ebp]
  00062	8b 08		 mov	 ecx, DWORD PTR [eax]
  00064	89 4d b8	 mov	 DWORD PTR tv89[ebp], ecx
  00067	eb 21		 jmp	 SHORT $LN9@set_local_
$LN8@set_local_:
  00069	8b 15 00 00 00
	00		 mov	 edx, DWORD PTR ?__LINE__Var@?0??set_local_raw_vec3d@@YGXPAUENTITY@@W4VEC3D_TYPES@@PAUVEC3D@@@Z@4JA
  0006f	83 c2 1d	 add	 edx, 29			; 0000001dH
  00072	52		 push	 edx
  00073	68 00 00 00 00	 push	 OFFSET ??_C@_0EL@ONCDJIFJ@c?3?2users?2nhv90?2projects?2eech?2ap@
  00078	a1 00 00 00 00	 mov	 eax, DWORD PTR ?null_entity_pointer_message@@3PBDB ; null_entity_pointer_message
  0007d	50		 push	 eax
  0007e	e8 00 00 00 00	 call	 ?process_assert@@YGXPBD0H@Z ; process_assert
  00083	c7 45 b8 00 00
	00 00		 mov	 DWORD PTR tv89[ebp], 0
$LN9@set_local_:
  0008a	8b 0d 00 00 00
	00		 mov	 ecx, DWORD PTR ?__LINE__Var@?0??set_local_raw_vec3d@@YGXPAUENTITY@@W4VEC3D_TYPES@@PAUVEC3D@@@Z@4JA
  00090	83 c1 1d	 add	 ecx, 29			; 0000001dH
  00093	51		 push	 ecx
  00094	68 00 00 00 00	 push	 OFFSET ??_C@_0EL@ONCDJIFJ@c?3?2users?2nhv90?2projects?2eech?2ap@
  00099	6b 55 0c 0c	 imul	 edx, DWORD PTR _type$[ebp], 12
  0009d	8b 82 00 00 00
	00		 mov	 eax, DWORD PTR ?vec3d_type_database@@3PAUVEC3D_TYPE_DATA@@A[edx]
  000a3	50		 push	 eax
  000a4	8b 4d 08	 mov	 ecx, DWORD PTR _en$[ebp]
  000a7	2b 0d 00 00 00
	00		 sub	 ecx, DWORD PTR ?entities@@3PAUENTITY@@A ; entities
  000ad	c1 f9 04	 sar	 ecx, 4
  000b0	51		 push	 ecx
  000b1	6b 55 b8 0c	 imul	 edx, DWORD PTR tv89[ebp], 12
  000b5	8b 82 00 00 00
	00		 mov	 eax, DWORD PTR ?entity_type_database@@3PAUENTITY_TYPE_DATA@@A[edx]
  000bb	50		 push	 eax
  000bc	8b 0d 00 00 00
	00		 mov	 ecx, DWORD PTR ?debug_fatal_invalid_vec3d_type_message@@3PBDB ; debug_fatal_invalid_vec3d_type_message
  000c2	51		 push	 ecx
  000c3	e8 00 00 00 00	 call	 ?debug_fatal@@YAXPBDZZ	; debug_fatal
  000c8	83 c4 18	 add	 esp, 24			; 00000018H
$LN1@set_local_:

; 110  : 
; 111  : 			break;
; 112  : 		}
; 113  : 	}
; 114  : }

  000cb	5f		 pop	 edi
  000cc	5e		 pop	 esi
  000cd	5b		 pop	 ebx
  000ce	8b e5		 mov	 esp, ebp
  000d0	5d		 pop	 ebp
  000d1	c2 0c 00	 ret	 12			; 0000000cH
?set_local_raw_vec3d@@YGXPAUENTITY@@W4VEC3D_TYPES@@PAUVEC3D@@@Z ENDP ; set_local_raw_vec3d
_TEXT	ENDS
; Function compile flags: /Odtp /ZI
; File c:\users\nhv90\projects\eech\aphavoc\source\entity\special\task\ts_vec3d.c
;	COMDAT ?overload_task_vec3d_functions@@YGXXZ
_TEXT	SEGMENT
?overload_task_vec3d_functions@@YGXXZ PROC		; overload_task_vec3d_functions, COMDAT

; 342  : {

  00000	55		 push	 ebp
  00001	8b ec		 mov	 ebp, esp
  00003	83 ec 40	 sub	 esp, 64			; 00000040H
  00006	53		 push	 ebx
  00007	56		 push	 esi
  00008	57		 push	 edi

; 343  : 	////////////////////////////////////////
; 344  : 	//
; 345  : 	// VEC3D_TYPE_POSITION
; 346  : 	//
; 347  : 	////////////////////////////////////////
; 348  : 
; 349  : 	fn_set_local_entity_raw_vec3d			[ENTITY_TYPE_TASK][VEC3D_TYPE_POSITION]											= set_local_raw_vec3d;

  00009	b8 60 00 00 00	 mov	 eax, 96			; 00000060H
  0000e	6b c8 22	 imul	 ecx, eax, 34
  00011	ba 04 00 00 00	 mov	 edx, 4
  00016	c1 e2 03	 shl	 edx, 3
  00019	c7 84 11 00 00
	00 00 00 00 00
	00		 mov	 DWORD PTR ?fn_set_local_entity_raw_vec3d@@3PAY0BI@P6GXPAUENTITY@@W4VEC3D_TYPES@@PAUVEC3D@@@ZA[ecx+edx], OFFSET ?set_local_raw_vec3d@@YGXPAUENTITY@@W4VEC3D_TYPES@@PAUVEC3D@@@Z ; set_local_raw_vec3d

; 350  : 
; 351  : 	fn_set_local_entity_vec3d				[ENTITY_TYPE_TASK][VEC3D_TYPE_POSITION]											= set_local_vec3d;

  00024	b8 60 00 00 00	 mov	 eax, 96			; 00000060H
  00029	6b c8 22	 imul	 ecx, eax, 34
  0002c	ba 04 00 00 00	 mov	 edx, 4
  00031	c1 e2 03	 shl	 edx, 3
  00034	c7 84 11 00 00
	00 00 00 00 00
	00		 mov	 DWORD PTR ?fn_set_local_entity_vec3d@@3PAY0BI@P6GXPAUENTITY@@W4VEC3D_TYPES@@PAUVEC3D@@@ZA[ecx+edx], OFFSET ?set_local_vec3d@@YGXPAUENTITY@@W4VEC3D_TYPES@@PAUVEC3D@@@Z ; set_local_vec3d

; 352  : 
; 353  : 	fn_set_client_server_entity_vec3d	[ENTITY_TYPE_TASK][VEC3D_TYPE_POSITION][COMMS_MODEL_SERVER]					= set_server_vec3d;

  0003f	b8 c0 00 00 00	 mov	 eax, 192		; 000000c0H
  00044	6b c8 22	 imul	 ecx, eax, 34
  00047	ba 08 00 00 00	 mov	 edx, 8
  0004c	c1 e2 03	 shl	 edx, 3
  0004f	8d 84 11 00 00
	00 00		 lea	 eax, DWORD PTR ?fn_set_client_server_entity_vec3d@@3PAY1BI@1P6GXPAUENTITY@@W4VEC3D_TYPES@@PAUVEC3D@@@ZA[ecx+edx]
  00056	b9 04 00 00 00	 mov	 ecx, 4
  0005b	6b d1 00	 imul	 edx, ecx, 0
  0005e	c7 04 10 00 00
	00 00		 mov	 DWORD PTR [eax+edx], OFFSET ?set_server_vec3d@@YGXPAUENTITY@@W4VEC3D_TYPES@@PAUVEC3D@@@Z ; set_server_vec3d

; 354  : 
; 355  : 	fn_set_client_server_entity_vec3d	[ENTITY_TYPE_TASK][VEC3D_TYPE_POSITION][COMMS_MODEL_CLIENT]					= set_client_vec3d;

  00065	b8 c0 00 00 00	 mov	 eax, 192		; 000000c0H
  0006a	6b c8 22	 imul	 ecx, eax, 34
  0006d	ba 08 00 00 00	 mov	 edx, 8
  00072	c1 e2 03	 shl	 edx, 3
  00075	8d 84 11 00 00
	00 00		 lea	 eax, DWORD PTR ?fn_set_client_server_entity_vec3d@@3PAY1BI@1P6GXPAUENTITY@@W4VEC3D_TYPES@@PAUVEC3D@@@ZA[ecx+edx]
  0007c	b9 04 00 00 00	 mov	 ecx, 4
  00081	c1 e1 00	 shl	 ecx, 0
  00084	c7 04 08 00 00
	00 00		 mov	 DWORD PTR [eax+ecx], OFFSET ?set_client_vec3d@@YGXPAUENTITY@@W4VEC3D_TYPES@@PAUVEC3D@@@Z ; set_client_vec3d

; 356  : 
; 357  : 	fn_get_local_entity_vec3d				[ENTITY_TYPE_TASK][VEC3D_TYPE_POSITION]									 		= get_local_vec3d;

  0008b	b8 60 00 00 00	 mov	 eax, 96			; 00000060H
  00090	6b c8 22	 imul	 ecx, eax, 34
  00093	ba 04 00 00 00	 mov	 edx, 4
  00098	c1 e2 03	 shl	 edx, 3
  0009b	c7 84 11 00 00
	00 00 00 00 00
	00		 mov	 DWORD PTR ?fn_get_local_entity_vec3d@@3PAY0BI@P6GXPAUENTITY@@W4VEC3D_TYPES@@PAUVEC3D@@@ZA[ecx+edx], OFFSET ?get_local_vec3d@@YGXPAUENTITY@@W4VEC3D_TYPES@@PAUVEC3D@@@Z ; get_local_vec3d

; 358  : 
; 359  : 	fn_get_local_entity_vec3d_ptr			[ENTITY_TYPE_TASK][VEC3D_TYPE_POSITION]											= get_local_vec3d_ptr;

  000a6	b8 60 00 00 00	 mov	 eax, 96			; 00000060H
  000ab	6b c8 22	 imul	 ecx, eax, 34
  000ae	ba 04 00 00 00	 mov	 edx, 4
  000b3	c1 e2 03	 shl	 edx, 3
  000b6	c7 84 11 00 00
	00 00 00 00 00
	00		 mov	 DWORD PTR ?fn_get_local_entity_vec3d_ptr@@3PAY0BI@P6GPAUVEC3D@@PAUENTITY@@W4VEC3D_TYPES@@@ZA[ecx+edx], OFFSET ?get_local_vec3d_ptr@@YGPAUVEC3D@@PAUENTITY@@W4VEC3D_TYPES@@@Z ; get_local_vec3d_ptr

; 360  : 
; 361  : 	////////////////////////////////////////
; 362  : 	//
; 363  : 	// VEC3D_TYPE_START_POSITION
; 364  : 	//
; 365  : 	////////////////////////////////////////
; 366  : 
; 367  : 	fn_set_local_entity_raw_vec3d			[ENTITY_TYPE_TASK][VEC3D_TYPE_START_POSITION]									= set_local_raw_vec3d;

  000c1	b8 60 00 00 00	 mov	 eax, 96			; 00000060H
  000c6	6b c8 22	 imul	 ecx, eax, 34
  000c9	ba 04 00 00 00	 mov	 edx, 4
  000ce	6b c2 0a	 imul	 eax, edx, 10
  000d1	c7 84 01 00 00
	00 00 00 00 00
	00		 mov	 DWORD PTR ?fn_set_local_entity_raw_vec3d@@3PAY0BI@P6GXPAUENTITY@@W4VEC3D_TYPES@@PAUVEC3D@@@ZA[ecx+eax], OFFSET ?set_local_raw_vec3d@@YGXPAUENTITY@@W4VEC3D_TYPES@@PAUVEC3D@@@Z ; set_local_raw_vec3d

; 368  : 
; 369  : 	fn_set_local_entity_vec3d				[ENTITY_TYPE_TASK][VEC3D_TYPE_START_POSITION]									= set_local_vec3d;

  000dc	b8 60 00 00 00	 mov	 eax, 96			; 00000060H
  000e1	6b c8 22	 imul	 ecx, eax, 34
  000e4	ba 04 00 00 00	 mov	 edx, 4
  000e9	6b c2 0a	 imul	 eax, edx, 10
  000ec	c7 84 01 00 00
	00 00 00 00 00
	00		 mov	 DWORD PTR ?fn_set_local_entity_vec3d@@3PAY0BI@P6GXPAUENTITY@@W4VEC3D_TYPES@@PAUVEC3D@@@ZA[ecx+eax], OFFSET ?set_local_vec3d@@YGXPAUENTITY@@W4VEC3D_TYPES@@PAUVEC3D@@@Z ; set_local_vec3d

; 370  : 
; 371  : 	fn_set_client_server_entity_vec3d	[ENTITY_TYPE_TASK][VEC3D_TYPE_START_POSITION][COMMS_MODEL_SERVER]			= set_server_vec3d;

  000f7	b8 c0 00 00 00	 mov	 eax, 192		; 000000c0H
  000fc	6b c8 22	 imul	 ecx, eax, 34
  000ff	ba 08 00 00 00	 mov	 edx, 8
  00104	6b c2 0a	 imul	 eax, edx, 10
  00107	8d 8c 01 00 00
	00 00		 lea	 ecx, DWORD PTR ?fn_set_client_server_entity_vec3d@@3PAY1BI@1P6GXPAUENTITY@@W4VEC3D_TYPES@@PAUVEC3D@@@ZA[ecx+eax]
  0010e	ba 04 00 00 00	 mov	 edx, 4
  00113	6b c2 00	 imul	 eax, edx, 0
  00116	c7 04 01 00 00
	00 00		 mov	 DWORD PTR [ecx+eax], OFFSET ?set_server_vec3d@@YGXPAUENTITY@@W4VEC3D_TYPES@@PAUVEC3D@@@Z ; set_server_vec3d

; 372  : 
; 373  : 	fn_set_client_server_entity_vec3d	[ENTITY_TYPE_TASK][VEC3D_TYPE_START_POSITION][COMMS_MODEL_CLIENT]			= set_client_vec3d;

  0011d	b8 c0 00 00 00	 mov	 eax, 192		; 000000c0H
  00122	6b c8 22	 imul	 ecx, eax, 34
  00125	ba 08 00 00 00	 mov	 edx, 8
  0012a	6b c2 0a	 imul	 eax, edx, 10
  0012d	8d 8c 01 00 00
	00 00		 lea	 ecx, DWORD PTR ?fn_set_client_server_entity_vec3d@@3PAY1BI@1P6GXPAUENTITY@@W4VEC3D_TYPES@@PAUVEC3D@@@ZA[ecx+eax]
  00134	ba 04 00 00 00	 mov	 edx, 4
  00139	c1 e2 00	 shl	 edx, 0
  0013c	c7 04 11 00 00
	00 00		 mov	 DWORD PTR [ecx+edx], OFFSET ?set_client_vec3d@@YGXPAUENTITY@@W4VEC3D_TYPES@@PAUVEC3D@@@Z ; set_client_vec3d

; 374  : 
; 375  : 	fn_get_local_entity_vec3d				[ENTITY_TYPE_TASK][VEC3D_TYPE_START_POSITION]							 		= get_local_vec3d;

  00143	b8 60 00 00 00	 mov	 eax, 96			; 00000060H
  00148	6b c8 22	 imul	 ecx, eax, 34
  0014b	ba 04 00 00 00	 mov	 edx, 4
  00150	6b c2 0a	 imul	 eax, edx, 10
  00153	c7 84 01 00 00
	00 00 00 00 00
	00		 mov	 DWORD PTR ?fn_get_local_entity_vec3d@@3PAY0BI@P6GXPAUENTITY@@W4VEC3D_TYPES@@PAUVEC3D@@@ZA[ecx+eax], OFFSET ?get_local_vec3d@@YGXPAUENTITY@@W4VEC3D_TYPES@@PAUVEC3D@@@Z ; get_local_vec3d

; 376  : 
; 377  : 	fn_get_local_entity_vec3d_ptr			[ENTITY_TYPE_TASK][VEC3D_TYPE_START_POSITION]									= get_local_vec3d_ptr;

  0015e	b8 60 00 00 00	 mov	 eax, 96			; 00000060H
  00163	6b c8 22	 imul	 ecx, eax, 34
  00166	ba 04 00 00 00	 mov	 edx, 4
  0016b	6b c2 0a	 imul	 eax, edx, 10
  0016e	c7 84 01 00 00
	00 00 00 00 00
	00		 mov	 DWORD PTR ?fn_get_local_entity_vec3d_ptr@@3PAY0BI@P6GPAUVEC3D@@PAUENTITY@@W4VEC3D_TYPES@@@ZA[ecx+eax], OFFSET ?get_local_vec3d_ptr@@YGPAUVEC3D@@PAUENTITY@@W4VEC3D_TYPES@@@Z ; get_local_vec3d_ptr

; 378  : 
; 379  : 	////////////////////////////////////////
; 380  : 	//
; 381  : 	// VEC3D_TYPE_STOP_POSITION
; 382  : 	//
; 383  : 	////////////////////////////////////////
; 384  : 
; 385  : 	fn_set_local_entity_raw_vec3d			[ENTITY_TYPE_TASK][VEC3D_TYPE_STOP_POSITION]										= set_local_raw_vec3d;

  00179	b8 60 00 00 00	 mov	 eax, 96			; 00000060H
  0017e	6b c8 22	 imul	 ecx, eax, 34
  00181	ba 04 00 00 00	 mov	 edx, 4
  00186	6b c2 0b	 imul	 eax, edx, 11
  00189	c7 84 01 00 00
	00 00 00 00 00
	00		 mov	 DWORD PTR ?fn_set_local_entity_raw_vec3d@@3PAY0BI@P6GXPAUENTITY@@W4VEC3D_TYPES@@PAUVEC3D@@@ZA[ecx+eax], OFFSET ?set_local_raw_vec3d@@YGXPAUENTITY@@W4VEC3D_TYPES@@PAUVEC3D@@@Z ; set_local_raw_vec3d

; 386  : 
; 387  : 	fn_set_local_entity_vec3d				[ENTITY_TYPE_TASK][VEC3D_TYPE_STOP_POSITION]										= set_local_vec3d;

  00194	b8 60 00 00 00	 mov	 eax, 96			; 00000060H
  00199	6b c8 22	 imul	 ecx, eax, 34
  0019c	ba 04 00 00 00	 mov	 edx, 4
  001a1	6b c2 0b	 imul	 eax, edx, 11
  001a4	c7 84 01 00 00
	00 00 00 00 00
	00		 mov	 DWORD PTR ?fn_set_local_entity_vec3d@@3PAY0BI@P6GXPAUENTITY@@W4VEC3D_TYPES@@PAUVEC3D@@@ZA[ecx+eax], OFFSET ?set_local_vec3d@@YGXPAUENTITY@@W4VEC3D_TYPES@@PAUVEC3D@@@Z ; set_local_vec3d

; 388  : 
; 389  : 	fn_set_client_server_entity_vec3d	[ENTITY_TYPE_TASK][VEC3D_TYPE_STOP_POSITION][COMMS_MODEL_SERVER]			= set_server_vec3d;

  001af	b8 c0 00 00 00	 mov	 eax, 192		; 000000c0H
  001b4	6b c8 22	 imul	 ecx, eax, 34
  001b7	ba 08 00 00 00	 mov	 edx, 8
  001bc	6b c2 0b	 imul	 eax, edx, 11
  001bf	8d 8c 01 00 00
	00 00		 lea	 ecx, DWORD PTR ?fn_set_client_server_entity_vec3d@@3PAY1BI@1P6GXPAUENTITY@@W4VEC3D_TYPES@@PAUVEC3D@@@ZA[ecx+eax]
  001c6	ba 04 00 00 00	 mov	 edx, 4
  001cb	6b c2 00	 imul	 eax, edx, 0
  001ce	c7 04 01 00 00
	00 00		 mov	 DWORD PTR [ecx+eax], OFFSET ?set_server_vec3d@@YGXPAUENTITY@@W4VEC3D_TYPES@@PAUVEC3D@@@Z ; set_server_vec3d

; 390  : 
; 391  : 	fn_set_client_server_entity_vec3d	[ENTITY_TYPE_TASK][VEC3D_TYPE_STOP_POSITION][COMMS_MODEL_CLIENT]			= set_client_vec3d;

  001d5	b8 c0 00 00 00	 mov	 eax, 192		; 000000c0H
  001da	6b c8 22	 imul	 ecx, eax, 34
  001dd	ba 08 00 00 00	 mov	 edx, 8
  001e2	6b c2 0b	 imul	 eax, edx, 11
  001e5	8d 8c 01 00 00
	00 00		 lea	 ecx, DWORD PTR ?fn_set_client_server_entity_vec3d@@3PAY1BI@1P6GXPAUENTITY@@W4VEC3D_TYPES@@PAUVEC3D@@@ZA[ecx+eax]
  001ec	ba 04 00 00 00	 mov	 edx, 4
  001f1	c1 e2 00	 shl	 edx, 0
  001f4	c7 04 11 00 00
	00 00		 mov	 DWORD PTR [ecx+edx], OFFSET ?set_client_vec3d@@YGXPAUENTITY@@W4VEC3D_TYPES@@PAUVEC3D@@@Z ; set_client_vec3d

; 392  : 
; 393  : 	fn_get_local_entity_vec3d				[ENTITY_TYPE_TASK][VEC3D_TYPE_STOP_POSITION]							 			= get_local_vec3d;

  001fb	b8 60 00 00 00	 mov	 eax, 96			; 00000060H
  00200	6b c8 22	 imul	 ecx, eax, 34
  00203	ba 04 00 00 00	 mov	 edx, 4
  00208	6b c2 0b	 imul	 eax, edx, 11
  0020b	c7 84 01 00 00
	00 00 00 00 00
	00		 mov	 DWORD PTR ?fn_get_local_entity_vec3d@@3PAY0BI@P6GXPAUENTITY@@W4VEC3D_TYPES@@PAUVEC3D@@@ZA[ecx+eax], OFFSET ?get_local_vec3d@@YGXPAUENTITY@@W4VEC3D_TYPES@@PAUVEC3D@@@Z ; get_local_vec3d

; 394  : 
; 395  : 	fn_get_local_entity_vec3d_ptr			[ENTITY_TYPE_TASK][VEC3D_TYPE_STOP_POSITION]										= get_local_vec3d_ptr;

  00216	b8 60 00 00 00	 mov	 eax, 96			; 00000060H
  0021b	6b c8 22	 imul	 ecx, eax, 34
  0021e	ba 04 00 00 00	 mov	 edx, 4
  00223	6b c2 0b	 imul	 eax, edx, 11
  00226	c7 84 01 00 00
	00 00 00 00 00
	00		 mov	 DWORD PTR ?fn_get_local_entity_vec3d_ptr@@3PAY0BI@P6GPAUVEC3D@@PAUENTITY@@W4VEC3D_TYPES@@@ZA[ecx+eax], OFFSET ?get_local_vec3d_ptr@@YGPAUVEC3D@@PAUENTITY@@W4VEC3D_TYPES@@@Z ; get_local_vec3d_ptr

; 396  : }

  00231	5f		 pop	 edi
  00232	5e		 pop	 esi
  00233	5b		 pop	 ebx
  00234	8b e5		 mov	 esp, ebp
  00236	5d		 pop	 ebp
  00237	c3		 ret	 0
?overload_task_vec3d_functions@@YGXXZ ENDP		; overload_task_vec3d_functions
_TEXT	ENDS
END
