; Listing generated by Microsoft (R) Optimizing Compiler Version 19.16.27045.0 

	TITLE	C:\Users\nhv90\Projects\eech\modules\userint2\ui_sys\ui_funcs\ui_funcs.c
	.686P
	.XMM
	include listing.inc
	.model	flat

INCLUDELIB MSVCRTD
INCLUDELIB OLDNAMES

PUBLIC	?initialise_ui_global_functions@@YGXXZ		; initialise_ui_global_functions
EXTRN	?set_ui_object_create_default_functions@@YGXXZ:PROC ; set_ui_object_create_default_functions
EXTRN	?set_ui_object_draw_default_functions@@YGXXZ:PROC ; set_ui_object_draw_default_functions
EXTRN	?set_ui_object_position_default_functions@@YGXXZ:PROC ; set_ui_object_position_default_functions
EXTRN	?set_ui_object_size_default_functions@@YGXXZ:PROC ; set_ui_object_size_default_functions
EXTRN	?set_ui_object_origin_default_functions@@YGXXZ:PROC ; set_ui_object_origin_default_functions
EXTRN	?set_ui_object_flags_default_functions@@YGXXZ:PROC ; set_ui_object_flags_default_functions
EXTRN	?set_ui_object_colour_default_functions@@YGXXZ:PROC ; set_ui_object_colour_default_functions
EXTRN	?set_ui_object_links_default_functions@@YGXXZ:PROC ; set_ui_object_links_default_functions
EXTRN	?set_ui_object_function_default_functions@@YGXXZ:PROC ; set_ui_object_function_default_functions
EXTRN	?set_ui_object_notify_on_default_functions@@YGXXZ:PROC ; set_ui_object_notify_on_default_functions
EXTRN	?set_ui_object_ptr_default_functions@@YGXXZ:PROC ; set_ui_object_ptr_default_functions
EXTRN	?set_ui_object_update_default_functions@@YGXXZ:PROC ; set_ui_object_update_default_functions
EXTRN	?set_ui_object_text_default_functions@@YGXXZ:PROC ; set_ui_object_text_default_functions
EXTRN	?set_ui_object_graphic_default_functions@@YGXXZ:PROC ; set_ui_object_graphic_default_functions
EXTRN	?initialise_area_ui_object_functions@@YGXH@Z:PROC ; initialise_area_ui_object_functions
EXTRN	?initialise_screen_ui_object_functions@@YGXH@Z:PROC ; initialise_screen_ui_object_functions
EXTRN	?initialise_button_ui_object_functions@@YGXH@Z:PROC ; initialise_button_ui_object_functions
EXTRN	?initialise_radio_ui_object_functions@@YGXH@Z:PROC ; initialise_radio_ui_object_functions
EXTRN	?initialise_toggle_ui_object_functions@@YGXH@Z:PROC ; initialise_toggle_ui_object_functions
EXTRN	?initialise_text_ui_object_functions@@YGXH@Z:PROC ; initialise_text_ui_object_functions
EXTRN	?initialise_close_ui_object_functions@@YGXH@Z:PROC ; initialise_close_ui_object_functions
EXTRN	?initialise_list_ui_object_functions@@YGXH@Z:PROC ; initialise_list_ui_object_functions
EXTRN	?initialise_vslider_ui_object_functions@@YGXH@Z:PROC ; initialise_vslider_ui_object_functions
EXTRN	?initialise_mslider_ui_object_functions@@YGXH@Z:PROC ; initialise_mslider_ui_object_functions
EXTRN	?initialise_menu_ui_object_functions@@YGXH@Z:PROC ; initialise_menu_ui_object_functions
EXTRN	?initialise_input_ui_object_functions@@YGXH@Z:PROC ; initialise_input_ui_object_functions
EXTRN	?initialise_number_ui_object_functions@@YGXH@Z:PROC ; initialise_number_ui_object_functions
; Function compile flags: /Odtp /ZI
; File c:\users\nhv90\projects\eech\modules\userint2\ui_sys\ui_funcs\ui_funcs.c
;	COMDAT ?initialise_ui_global_functions@@YGXXZ
_TEXT	SEGMENT
?initialise_ui_global_functions@@YGXXZ PROC		; initialise_ui_global_functions, COMDAT

; 74   : {

  00000	55		 push	 ebp
  00001	8b ec		 mov	 ebp, esp
  00003	83 ec 40	 sub	 esp, 64			; 00000040H
  00006	53		 push	 ebx
  00007	56		 push	 esi
  00008	57		 push	 edi

; 75   : 
; 76   : 	// set default functions
; 77   : 
; 78   : 	set_ui_object_create_default_functions ();

  00009	e8 00 00 00 00	 call	 ?set_ui_object_create_default_functions@@YGXXZ ; set_ui_object_create_default_functions

; 79   : 
; 80   : 	set_ui_object_draw_default_functions ();

  0000e	e8 00 00 00 00	 call	 ?set_ui_object_draw_default_functions@@YGXXZ ; set_ui_object_draw_default_functions

; 81   : 
; 82   : 	set_ui_object_position_default_functions ();

  00013	e8 00 00 00 00	 call	 ?set_ui_object_position_default_functions@@YGXXZ ; set_ui_object_position_default_functions

; 83   : 
; 84   : 	set_ui_object_size_default_functions ();

  00018	e8 00 00 00 00	 call	 ?set_ui_object_size_default_functions@@YGXXZ ; set_ui_object_size_default_functions

; 85   : 
; 86   : 	set_ui_object_origin_default_functions ();

  0001d	e8 00 00 00 00	 call	 ?set_ui_object_origin_default_functions@@YGXXZ ; set_ui_object_origin_default_functions

; 87   : 
; 88   : 	set_ui_object_flags_default_functions ();

  00022	e8 00 00 00 00	 call	 ?set_ui_object_flags_default_functions@@YGXXZ ; set_ui_object_flags_default_functions

; 89   : 
; 90   : 	set_ui_object_colour_default_functions ();

  00027	e8 00 00 00 00	 call	 ?set_ui_object_colour_default_functions@@YGXXZ ; set_ui_object_colour_default_functions

; 91   : 
; 92   : 	set_ui_object_links_default_functions ();

  0002c	e8 00 00 00 00	 call	 ?set_ui_object_links_default_functions@@YGXXZ ; set_ui_object_links_default_functions

; 93   : 
; 94   : 	set_ui_object_function_default_functions ();

  00031	e8 00 00 00 00	 call	 ?set_ui_object_function_default_functions@@YGXXZ ; set_ui_object_function_default_functions

; 95   : 
; 96   : 	set_ui_object_notify_on_default_functions ();

  00036	e8 00 00 00 00	 call	 ?set_ui_object_notify_on_default_functions@@YGXXZ ; set_ui_object_notify_on_default_functions

; 97   : 
; 98   : 	set_ui_object_ptr_default_functions ();

  0003b	e8 00 00 00 00	 call	 ?set_ui_object_ptr_default_functions@@YGXXZ ; set_ui_object_ptr_default_functions

; 99   : 
; 100  : 	set_ui_object_update_default_functions ();

  00040	e8 00 00 00 00	 call	 ?set_ui_object_update_default_functions@@YGXXZ ; set_ui_object_update_default_functions

; 101  : 
; 102  : 	set_ui_object_text_default_functions ();

  00045	e8 00 00 00 00	 call	 ?set_ui_object_text_default_functions@@YGXXZ ; set_ui_object_text_default_functions

; 103  : 
; 104  : 	set_ui_object_graphic_default_functions ();

  0004a	e8 00 00 00 00	 call	 ?set_ui_object_graphic_default_functions@@YGXXZ ; set_ui_object_graphic_default_functions

; 105  : 
; 106  : 	// overload default functions
; 107  : 
; 108  : 	initialise_area_ui_object_functions (UI_TYPE_AREA);

  0004f	6a 01		 push	 1
  00051	e8 00 00 00 00	 call	 ?initialise_area_ui_object_functions@@YGXH@Z ; initialise_area_ui_object_functions

; 109  : 	
; 110  : 	initialise_button_ui_object_functions (UI_TYPE_BUTTON);

  00056	6a 02		 push	 2
  00058	e8 00 00 00 00	 call	 ?initialise_button_ui_object_functions@@YGXH@Z ; initialise_button_ui_object_functions

; 111  : 	
; 112  : 	initialise_radio_ui_object_functions (UI_TYPE_RADIO);

  0005d	6a 03		 push	 3
  0005f	e8 00 00 00 00	 call	 ?initialise_radio_ui_object_functions@@YGXH@Z ; initialise_radio_ui_object_functions

; 113  : 	
; 114  : 	initialise_toggle_ui_object_functions (UI_TYPE_TOGGLE);

  00064	6a 04		 push	 4
  00066	e8 00 00 00 00	 call	 ?initialise_toggle_ui_object_functions@@YGXH@Z ; initialise_toggle_ui_object_functions

; 115  : 	
; 116  : 	initialise_text_ui_object_functions (UI_TYPE_TEXT);

  0006b	6a 05		 push	 5
  0006d	e8 00 00 00 00	 call	 ?initialise_text_ui_object_functions@@YGXH@Z ; initialise_text_ui_object_functions

; 117  : 	
; 118  : 	initialise_screen_ui_object_functions (UI_TYPE_SCREEN);

  00072	6a 06		 push	 6
  00074	e8 00 00 00 00	 call	 ?initialise_screen_ui_object_functions@@YGXH@Z ; initialise_screen_ui_object_functions

; 119  : 	
; 120  : 	initialise_close_ui_object_functions (UI_TYPE_CLOSE_BOX);

  00079	6a 07		 push	 7
  0007b	e8 00 00 00 00	 call	 ?initialise_close_ui_object_functions@@YGXH@Z ; initialise_close_ui_object_functions

; 121  : 	
; 122  : 	initialise_list_ui_object_functions (UI_TYPE_LIST_BOX);

  00080	6a 0d		 push	 13			; 0000000dH
  00082	e8 00 00 00 00	 call	 ?initialise_list_ui_object_functions@@YGXH@Z ; initialise_list_ui_object_functions

; 123  : 	
; 124  : 	initialise_vslider_ui_object_functions (UI_TYPE_VSLIDER);

  00087	6a 08		 push	 8
  00089	e8 00 00 00 00	 call	 ?initialise_vslider_ui_object_functions@@YGXH@Z ; initialise_vslider_ui_object_functions

; 125  : 	
; 126  : 	initialise_mslider_ui_object_functions (UI_TYPE_MSLIDER);

  0008e	6a 0b		 push	 11			; 0000000bH
  00090	e8 00 00 00 00	 call	 ?initialise_mslider_ui_object_functions@@YGXH@Z ; initialise_mslider_ui_object_functions

; 127  : 	
; 128  : 	initialise_menu_ui_object_functions (UI_TYPE_MENU_STACK);

  00095	6a 0f		 push	 15			; 0000000fH
  00097	e8 00 00 00 00	 call	 ?initialise_menu_ui_object_functions@@YGXH@Z ; initialise_menu_ui_object_functions

; 129  : 	
; 130  : 	initialise_input_ui_object_functions (UI_TYPE_INPUT);

  0009c	6a 10		 push	 16			; 00000010H
  0009e	e8 00 00 00 00	 call	 ?initialise_input_ui_object_functions@@YGXH@Z ; initialise_input_ui_object_functions

; 131  : 	
; 132  : 	initialise_number_ui_object_functions (UI_TYPE_NUMBER);

  000a3	6a 11		 push	 17			; 00000011H
  000a5	e8 00 00 00 00	 call	 ?initialise_number_ui_object_functions@@YGXH@Z ; initialise_number_ui_object_functions

; 133  : }

  000aa	5f		 pop	 edi
  000ab	5e		 pop	 esi
  000ac	5b		 pop	 ebx
  000ad	8b e5		 mov	 esp, ebp
  000af	5d		 pop	 ebp
  000b0	c3		 ret	 0
?initialise_ui_global_functions@@YGXXZ ENDP		; initialise_ui_global_functions
_TEXT	ENDS
END
