; Listing generated by Microsoft (R) Optimizing Compiler Version 19.16.27045.0 

	TITLE	C:\Users\nhv90\Projects\eech\modules\userint2\ui_sys\ui_funcs\ui_flags.c
	.686P
	.XMM
	include listing.inc
	.model	flat

INCLUDELIB MSVCRTD
INCLUDELIB OLDNAMES

PUBLIC	?fn_set_ui_object_state@@3PAP6GXPAUUI_OBJECT@@H@ZA ; fn_set_ui_object_state
PUBLIC	?fn_get_ui_object_state@@3PAP6GHPAUUI_OBJECT@@@ZA ; fn_get_ui_object_state
PUBLIC	?fn_set_ui_object_drawable@@3PAP6GXPAUUI_OBJECT@@H@ZA ; fn_set_ui_object_drawable
PUBLIC	?fn_get_ui_object_drawable@@3PAP6GHPAUUI_OBJECT@@@ZA ; fn_get_ui_object_drawable
PUBLIC	?fn_set_ui_object_autosize@@3PAP6GXPAUUI_OBJECT@@H@ZA ; fn_set_ui_object_autosize
PUBLIC	?fn_get_ui_object_autosize@@3PAP6GHPAUUI_OBJECT@@@ZA ; fn_get_ui_object_autosize
PUBLIC	?fn_set_ui_object_redraw@@3PAP6GXPAUUI_OBJECT@@H@ZA ; fn_set_ui_object_redraw
PUBLIC	?fn_get_ui_object_redraw@@3PAP6GHPAUUI_OBJECT@@@ZA ; fn_get_ui_object_redraw
PUBLIC	?fn_set_ui_object_redraw_all@@3PAP6GXPAUUI_OBJECT@@H@ZA ; fn_set_ui_object_redraw_all
PUBLIC	?fn_set_ui_object_moveable@@3PAP6GXPAUUI_OBJECT@@H@ZA ; fn_set_ui_object_moveable
PUBLIC	?fn_get_ui_object_moveable@@3PAP6GHPAUUI_OBJECT@@@ZA ; fn_get_ui_object_moveable
PUBLIC	?fn_set_ui_object_resizeable@@3PAP6GXPAUUI_OBJECT@@H@ZA ; fn_set_ui_object_resizeable
PUBLIC	?fn_get_ui_object_resizeable@@3PAP6GHPAUUI_OBJECT@@@ZA ; fn_get_ui_object_resizeable
PUBLIC	?fn_set_ui_object_list_item@@3PAP6GXPAUUI_OBJECT@@H@ZA ; fn_set_ui_object_list_item
PUBLIC	?fn_get_ui_object_list_item@@3PAP6GHPAUUI_OBJECT@@@ZA ; fn_get_ui_object_list_item
PUBLIC	?fn_set_ui_object_item_number@@3PAP6GXPAUUI_OBJECT@@H@ZA ; fn_set_ui_object_item_number
PUBLIC	?fn_get_ui_object_item_number@@3PAP6GHPAUUI_OBJECT@@@ZA ; fn_get_ui_object_item_number
PUBLIC	?fn_set_ui_object_item_number2@@3PAP6GXPAUUI_OBJECT@@H@ZA ; fn_set_ui_object_item_number2
PUBLIC	?fn_get_ui_object_item_number2@@3PAP6GHPAUUI_OBJECT@@@ZA ; fn_get_ui_object_item_number2
PUBLIC	?fn_set_ui_object_clear@@3PAP6GXPAUUI_OBJECT@@H@ZA ; fn_set_ui_object_clear
PUBLIC	?fn_get_ui_object_clear@@3PAP6GHPAUUI_OBJECT@@@ZA ; fn_get_ui_object_clear
PUBLIC	?fn_set_ui_object_global@@3PAP6GXPAUUI_OBJECT@@H@ZA ; fn_set_ui_object_global
PUBLIC	?fn_get_ui_object_global@@3PAP6GHPAUUI_OBJECT@@@ZA ; fn_get_ui_object_global
PUBLIC	?fn_set_ui_object_user_flag1@@3PAP6GXPAUUI_OBJECT@@H@ZA ; fn_set_ui_object_user_flag1
PUBLIC	?fn_get_ui_object_user_flag1@@3PAP6GHPAUUI_OBJECT@@@ZA ; fn_get_ui_object_user_flag1
PUBLIC	?fn_set_ui_object_user_flag2@@3PAP6GXPAUUI_OBJECT@@H@ZA ; fn_set_ui_object_user_flag2
PUBLIC	?fn_get_ui_object_user_flag2@@3PAP6GHPAUUI_OBJECT@@@ZA ; fn_get_ui_object_user_flag2
PUBLIC	?fn_set_ui_object_user_flag3@@3PAP6GXPAUUI_OBJECT@@H@ZA ; fn_set_ui_object_user_flag3
PUBLIC	?fn_get_ui_object_user_flag3@@3PAP6GHPAUUI_OBJECT@@@ZA ; fn_get_ui_object_user_flag3
PUBLIC	?fn_set_ui_object_user_flag4@@3PAP6GXPAUUI_OBJECT@@H@ZA ; fn_set_ui_object_user_flag4
PUBLIC	?fn_get_ui_object_user_flag4@@3PAP6GHPAUUI_OBJECT@@@ZA ; fn_get_ui_object_user_flag4
PUBLIC	?fn_set_ui_object_list_box_y_space@@3PAP6GXPAUUI_OBJECT@@M@ZA ; fn_set_ui_object_list_box_y_space
PUBLIC	?fn_get_ui_object_list_box_y_space@@3PAP6GMPAUUI_OBJECT@@@ZA ; fn_get_ui_object_list_box_y_space
PUBLIC	?fn_set_ui_object_virtual_coords@@3PAP6GXPAUUI_OBJECT@@H@ZA ; fn_set_ui_object_virtual_coords
PUBLIC	?fn_get_ui_object_virtual_coords@@3PAP6GHPAUUI_OBJECT@@@ZA ; fn_get_ui_object_virtual_coords
PUBLIC	?fn_set_ui_object_tool_tips_timer@@3PAP6GXPAUUI_OBJECT@@H@ZA ; fn_set_ui_object_tool_tips_timer
PUBLIC	?fn_get_ui_object_tool_tips_timer@@3PAP6GHPAUUI_OBJECT@@@ZA ; fn_get_ui_object_tool_tips_timer
PUBLIC	?fn_set_ui_object_highlightable@@3PAP6GXPAUUI_OBJECT@@H@ZA ; fn_set_ui_object_highlightable
PUBLIC	?fn_get_ui_object_highlightable@@3PAP6GHPAUUI_OBJECT@@@ZA ; fn_get_ui_object_highlightable
PUBLIC	?fn_set_ui_object_highlighted@@3PAP6GXPAUUI_OBJECT@@H@ZA ; fn_set_ui_object_highlighted
PUBLIC	?fn_get_ui_object_highlighted@@3PAP6GHPAUUI_OBJECT@@@ZA ; fn_get_ui_object_highlighted
PUBLIC	?fn_set_ui_object_start_real_colour@@3PAP6GXPAUUI_OBJECT@@DDDE@ZA ; fn_set_ui_object_start_real_colour
PUBLIC	?fn_get_ui_object_start_real_colour@@3PAP6GXPAUUI_OBJECT@@PAD11PAE@ZA ; fn_get_ui_object_start_real_colour
PUBLIC	?fn_set_ui_object_end_real_colour@@3PAP6GXPAUUI_OBJECT@@DDDE@ZA ; fn_set_ui_object_end_real_colour
PUBLIC	?fn_get_ui_object_end_real_colour@@3PAP6GXPAUUI_OBJECT@@PAD11PAE@ZA ; fn_get_ui_object_end_real_colour
PUBLIC	?fn_set_ui_object_t_value@@3PAP6GXPAUUI_OBJECT@@M@ZA ; fn_set_ui_object_t_value
PUBLIC	?fn_get_ui_object_t_value@@3PAP6GMPAUUI_OBJECT@@@ZA ; fn_get_ui_object_t_value
PUBLIC	?fn_set_ui_object_time_length@@3PAP6GXPAUUI_OBJECT@@H@ZA ; fn_set_ui_object_time_length
PUBLIC	?fn_get_ui_object_time_length@@3PAP6GHPAUUI_OBJECT@@@ZA ; fn_get_ui_object_time_length
PUBLIC	?fn_set_ui_object_start_time@@3PAP6GXPAUUI_OBJECT@@H@ZA ; fn_set_ui_object_start_time
PUBLIC	?fn_get_ui_object_start_time@@3PAP6GHPAUUI_OBJECT@@@ZA ; fn_get_ui_object_start_time
PUBLIC	?fn_set_ui_object_offset_time@@3PAP6GXPAUUI_OBJECT@@H@ZA ; fn_set_ui_object_offset_time
PUBLIC	?fn_get_ui_object_offset_time@@3PAP6GHPAUUI_OBJECT@@@ZA ; fn_get_ui_object_offset_time
_BSS	SEGMENT
?fn_set_ui_object_state@@3PAP6GXPAUUI_OBJECT@@H@ZA DD 012H DUP (?) ; fn_set_ui_object_state
?fn_get_ui_object_state@@3PAP6GHPAUUI_OBJECT@@@ZA DD 012H DUP (?) ; fn_get_ui_object_state
?fn_set_ui_object_drawable@@3PAP6GXPAUUI_OBJECT@@H@ZA DD 012H DUP (?) ; fn_set_ui_object_drawable
?fn_get_ui_object_drawable@@3PAP6GHPAUUI_OBJECT@@@ZA DD 012H DUP (?) ; fn_get_ui_object_drawable
?fn_set_ui_object_autosize@@3PAP6GXPAUUI_OBJECT@@H@ZA DD 012H DUP (?) ; fn_set_ui_object_autosize
?fn_get_ui_object_autosize@@3PAP6GHPAUUI_OBJECT@@@ZA DD 012H DUP (?) ; fn_get_ui_object_autosize
?fn_set_ui_object_redraw@@3PAP6GXPAUUI_OBJECT@@H@ZA DD 012H DUP (?) ; fn_set_ui_object_redraw
?fn_get_ui_object_redraw@@3PAP6GHPAUUI_OBJECT@@@ZA DD 012H DUP (?) ; fn_get_ui_object_redraw
?fn_set_ui_object_redraw_all@@3PAP6GXPAUUI_OBJECT@@H@ZA DD 012H DUP (?) ; fn_set_ui_object_redraw_all
?fn_set_ui_object_moveable@@3PAP6GXPAUUI_OBJECT@@H@ZA DD 012H DUP (?) ; fn_set_ui_object_moveable
?fn_get_ui_object_moveable@@3PAP6GHPAUUI_OBJECT@@@ZA DD 012H DUP (?) ; fn_get_ui_object_moveable
?fn_set_ui_object_resizeable@@3PAP6GXPAUUI_OBJECT@@H@ZA DD 012H DUP (?) ; fn_set_ui_object_resizeable
?fn_get_ui_object_resizeable@@3PAP6GHPAUUI_OBJECT@@@ZA DD 012H DUP (?) ; fn_get_ui_object_resizeable
?fn_set_ui_object_list_item@@3PAP6GXPAUUI_OBJECT@@H@ZA DD 012H DUP (?) ; fn_set_ui_object_list_item
?fn_get_ui_object_list_item@@3PAP6GHPAUUI_OBJECT@@@ZA DD 012H DUP (?) ; fn_get_ui_object_list_item
?fn_set_ui_object_item_number@@3PAP6GXPAUUI_OBJECT@@H@ZA DD 012H DUP (?) ; fn_set_ui_object_item_number
?fn_get_ui_object_item_number@@3PAP6GHPAUUI_OBJECT@@@ZA DD 012H DUP (?) ; fn_get_ui_object_item_number
?fn_set_ui_object_item_number2@@3PAP6GXPAUUI_OBJECT@@H@ZA DD 012H DUP (?) ; fn_set_ui_object_item_number2
?fn_get_ui_object_item_number2@@3PAP6GHPAUUI_OBJECT@@@ZA DD 012H DUP (?) ; fn_get_ui_object_item_number2
?fn_set_ui_object_clear@@3PAP6GXPAUUI_OBJECT@@H@ZA DD 012H DUP (?) ; fn_set_ui_object_clear
?fn_get_ui_object_clear@@3PAP6GHPAUUI_OBJECT@@@ZA DD 012H DUP (?) ; fn_get_ui_object_clear
?fn_set_ui_object_global@@3PAP6GXPAUUI_OBJECT@@H@ZA DD 012H DUP (?) ; fn_set_ui_object_global
?fn_get_ui_object_global@@3PAP6GHPAUUI_OBJECT@@@ZA DD 012H DUP (?) ; fn_get_ui_object_global
?fn_set_ui_object_user_flag1@@3PAP6GXPAUUI_OBJECT@@H@ZA DD 012H DUP (?) ; fn_set_ui_object_user_flag1
?fn_get_ui_object_user_flag1@@3PAP6GHPAUUI_OBJECT@@@ZA DD 012H DUP (?) ; fn_get_ui_object_user_flag1
?fn_set_ui_object_user_flag2@@3PAP6GXPAUUI_OBJECT@@H@ZA DD 012H DUP (?) ; fn_set_ui_object_user_flag2
?fn_get_ui_object_user_flag2@@3PAP6GHPAUUI_OBJECT@@@ZA DD 012H DUP (?) ; fn_get_ui_object_user_flag2
?fn_set_ui_object_user_flag3@@3PAP6GXPAUUI_OBJECT@@H@ZA DD 012H DUP (?) ; fn_set_ui_object_user_flag3
?fn_get_ui_object_user_flag3@@3PAP6GHPAUUI_OBJECT@@@ZA DD 012H DUP (?) ; fn_get_ui_object_user_flag3
?fn_set_ui_object_user_flag4@@3PAP6GXPAUUI_OBJECT@@H@ZA DD 012H DUP (?) ; fn_set_ui_object_user_flag4
?fn_get_ui_object_user_flag4@@3PAP6GHPAUUI_OBJECT@@@ZA DD 012H DUP (?) ; fn_get_ui_object_user_flag4
?fn_set_ui_object_list_box_y_space@@3PAP6GXPAUUI_OBJECT@@M@ZA DD 012H DUP (?) ; fn_set_ui_object_list_box_y_space
?fn_get_ui_object_list_box_y_space@@3PAP6GMPAUUI_OBJECT@@@ZA DD 012H DUP (?) ; fn_get_ui_object_list_box_y_space
?fn_set_ui_object_virtual_coords@@3PAP6GXPAUUI_OBJECT@@H@ZA DD 012H DUP (?) ; fn_set_ui_object_virtual_coords
?fn_get_ui_object_virtual_coords@@3PAP6GHPAUUI_OBJECT@@@ZA DD 012H DUP (?) ; fn_get_ui_object_virtual_coords
?fn_set_ui_object_tool_tips_timer@@3PAP6GXPAUUI_OBJECT@@H@ZA DD 012H DUP (?) ; fn_set_ui_object_tool_tips_timer
?fn_get_ui_object_tool_tips_timer@@3PAP6GHPAUUI_OBJECT@@@ZA DD 012H DUP (?) ; fn_get_ui_object_tool_tips_timer
?fn_set_ui_object_highlightable@@3PAP6GXPAUUI_OBJECT@@H@ZA DD 012H DUP (?) ; fn_set_ui_object_highlightable
?fn_get_ui_object_highlightable@@3PAP6GHPAUUI_OBJECT@@@ZA DD 012H DUP (?) ; fn_get_ui_object_highlightable
?fn_set_ui_object_highlighted@@3PAP6GXPAUUI_OBJECT@@H@ZA DD 012H DUP (?) ; fn_set_ui_object_highlighted
?fn_get_ui_object_highlighted@@3PAP6GHPAUUI_OBJECT@@@ZA DD 012H DUP (?) ; fn_get_ui_object_highlighted
?fn_set_ui_object_start_real_colour@@3PAP6GXPAUUI_OBJECT@@DDDE@ZA DD 012H DUP (?) ; fn_set_ui_object_start_real_colour
?fn_get_ui_object_start_real_colour@@3PAP6GXPAUUI_OBJECT@@PAD11PAE@ZA DD 012H DUP (?) ; fn_get_ui_object_start_real_colour
?fn_set_ui_object_end_real_colour@@3PAP6GXPAUUI_OBJECT@@DDDE@ZA DD 012H DUP (?) ; fn_set_ui_object_end_real_colour
?fn_get_ui_object_end_real_colour@@3PAP6GXPAUUI_OBJECT@@PAD11PAE@ZA DD 012H DUP (?) ; fn_get_ui_object_end_real_colour
?fn_set_ui_object_t_value@@3PAP6GXPAUUI_OBJECT@@M@ZA DD 012H DUP (?) ; fn_set_ui_object_t_value
?fn_get_ui_object_t_value@@3PAP6GMPAUUI_OBJECT@@@ZA DD 012H DUP (?) ; fn_get_ui_object_t_value
?fn_set_ui_object_time_length@@3PAP6GXPAUUI_OBJECT@@H@ZA DD 012H DUP (?) ; fn_set_ui_object_time_length
?fn_get_ui_object_time_length@@3PAP6GHPAUUI_OBJECT@@@ZA DD 012H DUP (?) ; fn_get_ui_object_time_length
?fn_set_ui_object_start_time@@3PAP6GXPAUUI_OBJECT@@H@ZA DD 012H DUP (?) ; fn_set_ui_object_start_time
?fn_get_ui_object_start_time@@3PAP6GHPAUUI_OBJECT@@@ZA DD 012H DUP (?) ; fn_get_ui_object_start_time
?fn_set_ui_object_offset_time@@3PAP6GXPAUUI_OBJECT@@H@ZA DD 012H DUP (?) ; fn_set_ui_object_offset_time
?fn_get_ui_object_offset_time@@3PAP6GHPAUUI_OBJECT@@@ZA DD 012H DUP (?) ; fn_get_ui_object_offset_time
_BSS	ENDS
PUBLIC	?default_set_ui_object_flag@@YGXPAUUI_OBJECT@@H@Z ; default_set_ui_object_flag
PUBLIC	?default_get_ui_object_flag@@YGHPAUUI_OBJECT@@@Z ; default_get_ui_object_flag
PUBLIC	?default_set_ui_object_float_flag@@YGXPAUUI_OBJECT@@M@Z ; default_set_ui_object_float_flag
PUBLIC	?default_get_ui_object_float_flag@@YGMPAUUI_OBJECT@@@Z ; default_get_ui_object_float_flag
PUBLIC	?default_set_ui_object_real_colour@@YGXPAUUI_OBJECT@@DDDE@Z ; default_set_ui_object_real_colour
PUBLIC	?default_get_ui_object_real_colour@@YGXPAUUI_OBJECT@@PAD11PAE@Z ; default_get_ui_object_real_colour
PUBLIC	?set_ui_object_flags_default_functions@@YGXXZ	; set_ui_object_flags_default_functions
PUBLIC	__real@00000000
EXTRN	__fltused:DWORD
;	COMDAT __real@00000000
CONST	SEGMENT
__real@00000000 DD 000000000r			; 0
CONST	ENDS
; Function compile flags: /Odtp /ZI
; File c:\users\nhv90\projects\eech\modules\userint2\ui_sys\ui_funcs\ui_flags.c
;	COMDAT ?set_ui_object_flags_default_functions@@YGXXZ
_TEXT	SEGMENT
_i$ = -4						; size = 4
?set_ui_object_flags_default_functions@@YGXXZ PROC	; set_ui_object_flags_default_functions, COMDAT

; 278  : {

  00000	55		 push	 ebp
  00001	8b ec		 mov	 ebp, esp
  00003	83 ec 44	 sub	 esp, 68			; 00000044H
  00006	53		 push	 ebx
  00007	56		 push	 esi
  00008	57		 push	 edi

; 279  : 
; 280  :    int
; 281  :       i;
; 282  : 
; 283  :    for (i = 0; i < NUM_UI_TYPES; i ++)

  00009	c7 45 fc 00 00
	00 00		 mov	 DWORD PTR _i$[ebp], 0
  00010	eb 09		 jmp	 SHORT $LN4@set_ui_obj
$LN2@set_ui_obj:
  00012	8b 45 fc	 mov	 eax, DWORD PTR _i$[ebp]
  00015	83 c0 01	 add	 eax, 1
  00018	89 45 fc	 mov	 DWORD PTR _i$[ebp], eax
$LN4@set_ui_obj:
  0001b	83 7d fc 12	 cmp	 DWORD PTR _i$[ebp], 18	; 00000012H
  0001f	0f 8d eb 02 00
	00		 jge	 $LN1@set_ui_obj

; 284  :    {
; 285  : 
; 286  :       fn_set_ui_object_state [i]          = default_set_ui_object_flag;

  00025	8b 45 fc	 mov	 eax, DWORD PTR _i$[ebp]
  00028	c7 04 85 00 00
	00 00 00 00 00
	00		 mov	 DWORD PTR ?fn_set_ui_object_state@@3PAP6GXPAUUI_OBJECT@@H@ZA[eax*4], OFFSET ?default_set_ui_object_flag@@YGXPAUUI_OBJECT@@H@Z ; default_set_ui_object_flag

; 287  : 
; 288  :       fn_get_ui_object_state [i]          = default_get_ui_object_flag;

  00033	8b 45 fc	 mov	 eax, DWORD PTR _i$[ebp]
  00036	c7 04 85 00 00
	00 00 00 00 00
	00		 mov	 DWORD PTR ?fn_get_ui_object_state@@3PAP6GHPAUUI_OBJECT@@@ZA[eax*4], OFFSET ?default_get_ui_object_flag@@YGHPAUUI_OBJECT@@@Z ; default_get_ui_object_flag

; 289  : 
; 290  : 
; 291  :       fn_set_ui_object_drawable [i]       = default_set_ui_object_flag;

  00041	8b 45 fc	 mov	 eax, DWORD PTR _i$[ebp]
  00044	c7 04 85 00 00
	00 00 00 00 00
	00		 mov	 DWORD PTR ?fn_set_ui_object_drawable@@3PAP6GXPAUUI_OBJECT@@H@ZA[eax*4], OFFSET ?default_set_ui_object_flag@@YGXPAUUI_OBJECT@@H@Z ; default_set_ui_object_flag

; 292  : 
; 293  :       fn_get_ui_object_drawable [i]       = default_get_ui_object_flag;

  0004f	8b 45 fc	 mov	 eax, DWORD PTR _i$[ebp]
  00052	c7 04 85 00 00
	00 00 00 00 00
	00		 mov	 DWORD PTR ?fn_get_ui_object_drawable@@3PAP6GHPAUUI_OBJECT@@@ZA[eax*4], OFFSET ?default_get_ui_object_flag@@YGHPAUUI_OBJECT@@@Z ; default_get_ui_object_flag

; 294  : 
; 295  : 
; 296  :       fn_set_ui_object_autosize [i]       = default_set_ui_object_flag;

  0005d	8b 45 fc	 mov	 eax, DWORD PTR _i$[ebp]
  00060	c7 04 85 00 00
	00 00 00 00 00
	00		 mov	 DWORD PTR ?fn_set_ui_object_autosize@@3PAP6GXPAUUI_OBJECT@@H@ZA[eax*4], OFFSET ?default_set_ui_object_flag@@YGXPAUUI_OBJECT@@H@Z ; default_set_ui_object_flag

; 297  : 
; 298  :       fn_get_ui_object_autosize [i]       = default_get_ui_object_flag;

  0006b	8b 45 fc	 mov	 eax, DWORD PTR _i$[ebp]
  0006e	c7 04 85 00 00
	00 00 00 00 00
	00		 mov	 DWORD PTR ?fn_get_ui_object_autosize@@3PAP6GHPAUUI_OBJECT@@@ZA[eax*4], OFFSET ?default_get_ui_object_flag@@YGHPAUUI_OBJECT@@@Z ; default_get_ui_object_flag

; 299  : 
; 300  : 
; 301  :       fn_set_ui_object_redraw [i]         = default_set_ui_object_flag;

  00079	8b 45 fc	 mov	 eax, DWORD PTR _i$[ebp]
  0007c	c7 04 85 00 00
	00 00 00 00 00
	00		 mov	 DWORD PTR ?fn_set_ui_object_redraw@@3PAP6GXPAUUI_OBJECT@@H@ZA[eax*4], OFFSET ?default_set_ui_object_flag@@YGXPAUUI_OBJECT@@H@Z ; default_set_ui_object_flag

; 302  : 
; 303  :       fn_get_ui_object_redraw [i]         = default_get_ui_object_flag;

  00087	8b 45 fc	 mov	 eax, DWORD PTR _i$[ebp]
  0008a	c7 04 85 00 00
	00 00 00 00 00
	00		 mov	 DWORD PTR ?fn_get_ui_object_redraw@@3PAP6GHPAUUI_OBJECT@@@ZA[eax*4], OFFSET ?default_get_ui_object_flag@@YGHPAUUI_OBJECT@@@Z ; default_get_ui_object_flag

; 304  : 
; 305  : 
; 306  :       fn_set_ui_object_redraw_all [i]     = default_set_ui_object_flag;

  00095	8b 45 fc	 mov	 eax, DWORD PTR _i$[ebp]
  00098	c7 04 85 00 00
	00 00 00 00 00
	00		 mov	 DWORD PTR ?fn_set_ui_object_redraw_all@@3PAP6GXPAUUI_OBJECT@@H@ZA[eax*4], OFFSET ?default_set_ui_object_flag@@YGXPAUUI_OBJECT@@H@Z ; default_set_ui_object_flag

; 307  : 
; 308  : 
; 309  :       fn_set_ui_object_moveable [i]       = default_set_ui_object_flag;

  000a3	8b 45 fc	 mov	 eax, DWORD PTR _i$[ebp]
  000a6	c7 04 85 00 00
	00 00 00 00 00
	00		 mov	 DWORD PTR ?fn_set_ui_object_moveable@@3PAP6GXPAUUI_OBJECT@@H@ZA[eax*4], OFFSET ?default_set_ui_object_flag@@YGXPAUUI_OBJECT@@H@Z ; default_set_ui_object_flag

; 310  : 
; 311  :       fn_get_ui_object_moveable [i]       = default_get_ui_object_flag;

  000b1	8b 45 fc	 mov	 eax, DWORD PTR _i$[ebp]
  000b4	c7 04 85 00 00
	00 00 00 00 00
	00		 mov	 DWORD PTR ?fn_get_ui_object_moveable@@3PAP6GHPAUUI_OBJECT@@@ZA[eax*4], OFFSET ?default_get_ui_object_flag@@YGHPAUUI_OBJECT@@@Z ; default_get_ui_object_flag

; 312  : 
; 313  : 
; 314  :       fn_set_ui_object_resizeable [i]     = default_set_ui_object_flag;

  000bf	8b 45 fc	 mov	 eax, DWORD PTR _i$[ebp]
  000c2	c7 04 85 00 00
	00 00 00 00 00
	00		 mov	 DWORD PTR ?fn_set_ui_object_resizeable@@3PAP6GXPAUUI_OBJECT@@H@ZA[eax*4], OFFSET ?default_set_ui_object_flag@@YGXPAUUI_OBJECT@@H@Z ; default_set_ui_object_flag

; 315  :       
; 316  :       fn_get_ui_object_resizeable [i]     = default_get_ui_object_flag;

  000cd	8b 45 fc	 mov	 eax, DWORD PTR _i$[ebp]
  000d0	c7 04 85 00 00
	00 00 00 00 00
	00		 mov	 DWORD PTR ?fn_get_ui_object_resizeable@@3PAP6GHPAUUI_OBJECT@@@ZA[eax*4], OFFSET ?default_get_ui_object_flag@@YGHPAUUI_OBJECT@@@Z ; default_get_ui_object_flag

; 317  : 
; 318  : 
; 319  :       fn_set_ui_object_list_item [i]      = default_set_ui_object_flag;

  000db	8b 45 fc	 mov	 eax, DWORD PTR _i$[ebp]
  000de	c7 04 85 00 00
	00 00 00 00 00
	00		 mov	 DWORD PTR ?fn_set_ui_object_list_item@@3PAP6GXPAUUI_OBJECT@@H@ZA[eax*4], OFFSET ?default_set_ui_object_flag@@YGXPAUUI_OBJECT@@H@Z ; default_set_ui_object_flag

; 320  :       
; 321  :       fn_get_ui_object_list_item [i]      = default_get_ui_object_flag;

  000e9	8b 45 fc	 mov	 eax, DWORD PTR _i$[ebp]
  000ec	c7 04 85 00 00
	00 00 00 00 00
	00		 mov	 DWORD PTR ?fn_get_ui_object_list_item@@3PAP6GHPAUUI_OBJECT@@@ZA[eax*4], OFFSET ?default_get_ui_object_flag@@YGHPAUUI_OBJECT@@@Z ; default_get_ui_object_flag

; 322  : 
; 323  : 
; 324  :       fn_set_ui_object_item_number [i]    = default_set_ui_object_flag;

  000f7	8b 45 fc	 mov	 eax, DWORD PTR _i$[ebp]
  000fa	c7 04 85 00 00
	00 00 00 00 00
	00		 mov	 DWORD PTR ?fn_set_ui_object_item_number@@3PAP6GXPAUUI_OBJECT@@H@ZA[eax*4], OFFSET ?default_set_ui_object_flag@@YGXPAUUI_OBJECT@@H@Z ; default_set_ui_object_flag

; 325  :       
; 326  :       fn_get_ui_object_item_number [i]    = default_get_ui_object_flag;

  00105	8b 45 fc	 mov	 eax, DWORD PTR _i$[ebp]
  00108	c7 04 85 00 00
	00 00 00 00 00
	00		 mov	 DWORD PTR ?fn_get_ui_object_item_number@@3PAP6GHPAUUI_OBJECT@@@ZA[eax*4], OFFSET ?default_get_ui_object_flag@@YGHPAUUI_OBJECT@@@Z ; default_get_ui_object_flag

; 327  : 
; 328  : 
; 329  :       fn_set_ui_object_item_number2 [i]   = default_set_ui_object_flag;

  00113	8b 45 fc	 mov	 eax, DWORD PTR _i$[ebp]
  00116	c7 04 85 00 00
	00 00 00 00 00
	00		 mov	 DWORD PTR ?fn_set_ui_object_item_number2@@3PAP6GXPAUUI_OBJECT@@H@ZA[eax*4], OFFSET ?default_set_ui_object_flag@@YGXPAUUI_OBJECT@@H@Z ; default_set_ui_object_flag

; 330  :       
; 331  :       fn_get_ui_object_item_number2 [i]   = default_get_ui_object_flag;

  00121	8b 45 fc	 mov	 eax, DWORD PTR _i$[ebp]
  00124	c7 04 85 00 00
	00 00 00 00 00
	00		 mov	 DWORD PTR ?fn_get_ui_object_item_number2@@3PAP6GHPAUUI_OBJECT@@@ZA[eax*4], OFFSET ?default_get_ui_object_flag@@YGHPAUUI_OBJECT@@@Z ; default_get_ui_object_flag

; 332  : 
; 333  : 
; 334  :       fn_set_ui_object_clear [i]          = default_set_ui_object_flag;

  0012f	8b 45 fc	 mov	 eax, DWORD PTR _i$[ebp]
  00132	c7 04 85 00 00
	00 00 00 00 00
	00		 mov	 DWORD PTR ?fn_set_ui_object_clear@@3PAP6GXPAUUI_OBJECT@@H@ZA[eax*4], OFFSET ?default_set_ui_object_flag@@YGXPAUUI_OBJECT@@H@Z ; default_set_ui_object_flag

; 335  :       
; 336  :       fn_get_ui_object_clear [i]          = default_get_ui_object_flag;

  0013d	8b 45 fc	 mov	 eax, DWORD PTR _i$[ebp]
  00140	c7 04 85 00 00
	00 00 00 00 00
	00		 mov	 DWORD PTR ?fn_get_ui_object_clear@@3PAP6GHPAUUI_OBJECT@@@ZA[eax*4], OFFSET ?default_get_ui_object_flag@@YGHPAUUI_OBJECT@@@Z ; default_get_ui_object_flag

; 337  : 
; 338  : 
; 339  :       fn_set_ui_object_global [i]         = default_set_ui_object_flag;

  0014b	8b 45 fc	 mov	 eax, DWORD PTR _i$[ebp]
  0014e	c7 04 85 00 00
	00 00 00 00 00
	00		 mov	 DWORD PTR ?fn_set_ui_object_global@@3PAP6GXPAUUI_OBJECT@@H@ZA[eax*4], OFFSET ?default_set_ui_object_flag@@YGXPAUUI_OBJECT@@H@Z ; default_set_ui_object_flag

; 340  :       
; 341  :       fn_get_ui_object_global [i]         = default_get_ui_object_flag;

  00159	8b 45 fc	 mov	 eax, DWORD PTR _i$[ebp]
  0015c	c7 04 85 00 00
	00 00 00 00 00
	00		 mov	 DWORD PTR ?fn_get_ui_object_global@@3PAP6GHPAUUI_OBJECT@@@ZA[eax*4], OFFSET ?default_get_ui_object_flag@@YGHPAUUI_OBJECT@@@Z ; default_get_ui_object_flag

; 342  : 
; 343  : 
; 344  :       fn_set_ui_object_user_flag1 [i]     = default_set_ui_object_flag;

  00167	8b 45 fc	 mov	 eax, DWORD PTR _i$[ebp]
  0016a	c7 04 85 00 00
	00 00 00 00 00
	00		 mov	 DWORD PTR ?fn_set_ui_object_user_flag1@@3PAP6GXPAUUI_OBJECT@@H@ZA[eax*4], OFFSET ?default_set_ui_object_flag@@YGXPAUUI_OBJECT@@H@Z ; default_set_ui_object_flag

; 345  :       
; 346  :       fn_get_ui_object_user_flag1 [i]     = default_get_ui_object_flag;

  00175	8b 45 fc	 mov	 eax, DWORD PTR _i$[ebp]
  00178	c7 04 85 00 00
	00 00 00 00 00
	00		 mov	 DWORD PTR ?fn_get_ui_object_user_flag1@@3PAP6GHPAUUI_OBJECT@@@ZA[eax*4], OFFSET ?default_get_ui_object_flag@@YGHPAUUI_OBJECT@@@Z ; default_get_ui_object_flag

; 347  : 
; 348  : 
; 349  :       fn_set_ui_object_user_flag2 [i]     = default_set_ui_object_flag;

  00183	8b 45 fc	 mov	 eax, DWORD PTR _i$[ebp]
  00186	c7 04 85 00 00
	00 00 00 00 00
	00		 mov	 DWORD PTR ?fn_set_ui_object_user_flag2@@3PAP6GXPAUUI_OBJECT@@H@ZA[eax*4], OFFSET ?default_set_ui_object_flag@@YGXPAUUI_OBJECT@@H@Z ; default_set_ui_object_flag

; 350  :       
; 351  :       fn_get_ui_object_user_flag2 [i]     = default_get_ui_object_flag;

  00191	8b 45 fc	 mov	 eax, DWORD PTR _i$[ebp]
  00194	c7 04 85 00 00
	00 00 00 00 00
	00		 mov	 DWORD PTR ?fn_get_ui_object_user_flag2@@3PAP6GHPAUUI_OBJECT@@@ZA[eax*4], OFFSET ?default_get_ui_object_flag@@YGHPAUUI_OBJECT@@@Z ; default_get_ui_object_flag

; 352  : 		
; 353  : 
; 354  :       fn_set_ui_object_user_flag3 [i]     = default_set_ui_object_flag;

  0019f	8b 45 fc	 mov	 eax, DWORD PTR _i$[ebp]
  001a2	c7 04 85 00 00
	00 00 00 00 00
	00		 mov	 DWORD PTR ?fn_set_ui_object_user_flag3@@3PAP6GXPAUUI_OBJECT@@H@ZA[eax*4], OFFSET ?default_set_ui_object_flag@@YGXPAUUI_OBJECT@@H@Z ; default_set_ui_object_flag

; 355  :       
; 356  :       fn_get_ui_object_user_flag3 [i]     = default_get_ui_object_flag;

  001ad	8b 45 fc	 mov	 eax, DWORD PTR _i$[ebp]
  001b0	c7 04 85 00 00
	00 00 00 00 00
	00		 mov	 DWORD PTR ?fn_get_ui_object_user_flag3@@3PAP6GHPAUUI_OBJECT@@@ZA[eax*4], OFFSET ?default_get_ui_object_flag@@YGHPAUUI_OBJECT@@@Z ; default_get_ui_object_flag

; 357  : 
; 358  : 
; 359  :       fn_set_ui_object_user_flag4 [i]     = default_set_ui_object_flag;

  001bb	8b 45 fc	 mov	 eax, DWORD PTR _i$[ebp]
  001be	c7 04 85 00 00
	00 00 00 00 00
	00		 mov	 DWORD PTR ?fn_set_ui_object_user_flag4@@3PAP6GXPAUUI_OBJECT@@H@ZA[eax*4], OFFSET ?default_set_ui_object_flag@@YGXPAUUI_OBJECT@@H@Z ; default_set_ui_object_flag

; 360  :       
; 361  :       fn_get_ui_object_user_flag4 [i]     = default_get_ui_object_flag;

  001c9	8b 45 fc	 mov	 eax, DWORD PTR _i$[ebp]
  001cc	c7 04 85 00 00
	00 00 00 00 00
	00		 mov	 DWORD PTR ?fn_get_ui_object_user_flag4@@3PAP6GHPAUUI_OBJECT@@@ZA[eax*4], OFFSET ?default_get_ui_object_flag@@YGHPAUUI_OBJECT@@@Z ; default_get_ui_object_flag

; 362  : 
; 363  : 
; 364  :       fn_set_ui_object_list_box_y_space [i] = default_set_ui_object_float_flag;

  001d7	8b 45 fc	 mov	 eax, DWORD PTR _i$[ebp]
  001da	c7 04 85 00 00
	00 00 00 00 00
	00		 mov	 DWORD PTR ?fn_set_ui_object_list_box_y_space@@3PAP6GXPAUUI_OBJECT@@M@ZA[eax*4], OFFSET ?default_set_ui_object_float_flag@@YGXPAUUI_OBJECT@@M@Z ; default_set_ui_object_float_flag

; 365  :       
; 366  :       fn_get_ui_object_list_box_y_space [i] = default_get_ui_object_float_flag;

  001e5	8b 45 fc	 mov	 eax, DWORD PTR _i$[ebp]
  001e8	c7 04 85 00 00
	00 00 00 00 00
	00		 mov	 DWORD PTR ?fn_get_ui_object_list_box_y_space@@3PAP6GMPAUUI_OBJECT@@@ZA[eax*4], OFFSET ?default_get_ui_object_float_flag@@YGMPAUUI_OBJECT@@@Z ; default_get_ui_object_float_flag

; 367  : 
; 368  : 
; 369  :       fn_set_ui_object_virtual_coords [i]  = default_set_ui_object_flag;

  001f3	8b 45 fc	 mov	 eax, DWORD PTR _i$[ebp]
  001f6	c7 04 85 00 00
	00 00 00 00 00
	00		 mov	 DWORD PTR ?fn_set_ui_object_virtual_coords@@3PAP6GXPAUUI_OBJECT@@H@ZA[eax*4], OFFSET ?default_set_ui_object_flag@@YGXPAUUI_OBJECT@@H@Z ; default_set_ui_object_flag

; 370  :       
; 371  :       fn_get_ui_object_virtual_coords [i]  = default_get_ui_object_flag;

  00201	8b 45 fc	 mov	 eax, DWORD PTR _i$[ebp]
  00204	c7 04 85 00 00
	00 00 00 00 00
	00		 mov	 DWORD PTR ?fn_get_ui_object_virtual_coords@@3PAP6GHPAUUI_OBJECT@@@ZA[eax*4], OFFSET ?default_get_ui_object_flag@@YGHPAUUI_OBJECT@@@Z ; default_get_ui_object_flag

; 372  : 
; 373  : 
; 374  :       fn_set_ui_object_tool_tips_timer [i]  = default_set_ui_object_flag;

  0020f	8b 45 fc	 mov	 eax, DWORD PTR _i$[ebp]
  00212	c7 04 85 00 00
	00 00 00 00 00
	00		 mov	 DWORD PTR ?fn_set_ui_object_tool_tips_timer@@3PAP6GXPAUUI_OBJECT@@H@ZA[eax*4], OFFSET ?default_set_ui_object_flag@@YGXPAUUI_OBJECT@@H@Z ; default_set_ui_object_flag

; 375  :       
; 376  :       fn_get_ui_object_tool_tips_timer [i]  = default_get_ui_object_flag;

  0021d	8b 45 fc	 mov	 eax, DWORD PTR _i$[ebp]
  00220	c7 04 85 00 00
	00 00 00 00 00
	00		 mov	 DWORD PTR ?fn_get_ui_object_tool_tips_timer@@3PAP6GHPAUUI_OBJECT@@@ZA[eax*4], OFFSET ?default_get_ui_object_flag@@YGHPAUUI_OBJECT@@@Z ; default_get_ui_object_flag

; 377  : 
; 378  : 
; 379  :       fn_set_ui_object_highlightable [i]  = default_set_ui_object_flag;

  0022b	8b 45 fc	 mov	 eax, DWORD PTR _i$[ebp]
  0022e	c7 04 85 00 00
	00 00 00 00 00
	00		 mov	 DWORD PTR ?fn_set_ui_object_highlightable@@3PAP6GXPAUUI_OBJECT@@H@ZA[eax*4], OFFSET ?default_set_ui_object_flag@@YGXPAUUI_OBJECT@@H@Z ; default_set_ui_object_flag

; 380  :       
; 381  :       fn_get_ui_object_highlightable [i]  = default_get_ui_object_flag;

  00239	8b 45 fc	 mov	 eax, DWORD PTR _i$[ebp]
  0023c	c7 04 85 00 00
	00 00 00 00 00
	00		 mov	 DWORD PTR ?fn_get_ui_object_highlightable@@3PAP6GHPAUUI_OBJECT@@@ZA[eax*4], OFFSET ?default_get_ui_object_flag@@YGHPAUUI_OBJECT@@@Z ; default_get_ui_object_flag

; 382  : 
; 383  : 
; 384  :       fn_set_ui_object_highlighted [i]  = default_set_ui_object_flag;

  00247	8b 45 fc	 mov	 eax, DWORD PTR _i$[ebp]
  0024a	c7 04 85 00 00
	00 00 00 00 00
	00		 mov	 DWORD PTR ?fn_set_ui_object_highlighted@@3PAP6GXPAUUI_OBJECT@@H@ZA[eax*4], OFFSET ?default_set_ui_object_flag@@YGXPAUUI_OBJECT@@H@Z ; default_set_ui_object_flag

; 385  :       
; 386  :       fn_get_ui_object_highlighted [i]  = default_get_ui_object_flag;

  00255	8b 45 fc	 mov	 eax, DWORD PTR _i$[ebp]
  00258	c7 04 85 00 00
	00 00 00 00 00
	00		 mov	 DWORD PTR ?fn_get_ui_object_highlighted@@3PAP6GHPAUUI_OBJECT@@@ZA[eax*4], OFFSET ?default_get_ui_object_flag@@YGHPAUUI_OBJECT@@@Z ; default_get_ui_object_flag

; 387  : 
; 388  : 
; 389  : 		fn_set_ui_object_start_real_colour [i] = default_set_ui_object_real_colour;

  00263	8b 45 fc	 mov	 eax, DWORD PTR _i$[ebp]
  00266	c7 04 85 00 00
	00 00 00 00 00
	00		 mov	 DWORD PTR ?fn_set_ui_object_start_real_colour@@3PAP6GXPAUUI_OBJECT@@DDDE@ZA[eax*4], OFFSET ?default_set_ui_object_real_colour@@YGXPAUUI_OBJECT@@DDDE@Z ; default_set_ui_object_real_colour

; 390  : 
; 391  : 		fn_get_ui_object_start_real_colour [i] = default_get_ui_object_real_colour;

  00271	8b 45 fc	 mov	 eax, DWORD PTR _i$[ebp]
  00274	c7 04 85 00 00
	00 00 00 00 00
	00		 mov	 DWORD PTR ?fn_get_ui_object_start_real_colour@@3PAP6GXPAUUI_OBJECT@@PAD11PAE@ZA[eax*4], OFFSET ?default_get_ui_object_real_colour@@YGXPAUUI_OBJECT@@PAD11PAE@Z ; default_get_ui_object_real_colour

; 392  : 
; 393  : 
; 394  : 		fn_set_ui_object_end_real_colour [i] = default_set_ui_object_real_colour;

  0027f	8b 45 fc	 mov	 eax, DWORD PTR _i$[ebp]
  00282	c7 04 85 00 00
	00 00 00 00 00
	00		 mov	 DWORD PTR ?fn_set_ui_object_end_real_colour@@3PAP6GXPAUUI_OBJECT@@DDDE@ZA[eax*4], OFFSET ?default_set_ui_object_real_colour@@YGXPAUUI_OBJECT@@DDDE@Z ; default_set_ui_object_real_colour

; 395  : 
; 396  : 		fn_get_ui_object_end_real_colour [i] = default_get_ui_object_real_colour;

  0028d	8b 45 fc	 mov	 eax, DWORD PTR _i$[ebp]
  00290	c7 04 85 00 00
	00 00 00 00 00
	00		 mov	 DWORD PTR ?fn_get_ui_object_end_real_colour@@3PAP6GXPAUUI_OBJECT@@PAD11PAE@ZA[eax*4], OFFSET ?default_get_ui_object_real_colour@@YGXPAUUI_OBJECT@@PAD11PAE@Z ; default_get_ui_object_real_colour

; 397  : 
; 398  : 
; 399  : 		fn_set_ui_object_t_value [i] = default_set_ui_object_float_flag;

  0029b	8b 45 fc	 mov	 eax, DWORD PTR _i$[ebp]
  0029e	c7 04 85 00 00
	00 00 00 00 00
	00		 mov	 DWORD PTR ?fn_set_ui_object_t_value@@3PAP6GXPAUUI_OBJECT@@M@ZA[eax*4], OFFSET ?default_set_ui_object_float_flag@@YGXPAUUI_OBJECT@@M@Z ; default_set_ui_object_float_flag

; 400  : 
; 401  : 		fn_get_ui_object_t_value [i] = default_get_ui_object_float_flag;

  002a9	8b 45 fc	 mov	 eax, DWORD PTR _i$[ebp]
  002ac	c7 04 85 00 00
	00 00 00 00 00
	00		 mov	 DWORD PTR ?fn_get_ui_object_t_value@@3PAP6GMPAUUI_OBJECT@@@ZA[eax*4], OFFSET ?default_get_ui_object_float_flag@@YGMPAUUI_OBJECT@@@Z ; default_get_ui_object_float_flag

; 402  : 
; 403  : 
; 404  : 		fn_set_ui_object_time_length [i] = default_set_ui_object_flag;

  002b7	8b 45 fc	 mov	 eax, DWORD PTR _i$[ebp]
  002ba	c7 04 85 00 00
	00 00 00 00 00
	00		 mov	 DWORD PTR ?fn_set_ui_object_time_length@@3PAP6GXPAUUI_OBJECT@@H@ZA[eax*4], OFFSET ?default_set_ui_object_flag@@YGXPAUUI_OBJECT@@H@Z ; default_set_ui_object_flag

; 405  : 
; 406  : 		fn_get_ui_object_time_length [i] = default_get_ui_object_flag;

  002c5	8b 45 fc	 mov	 eax, DWORD PTR _i$[ebp]
  002c8	c7 04 85 00 00
	00 00 00 00 00
	00		 mov	 DWORD PTR ?fn_get_ui_object_time_length@@3PAP6GHPAUUI_OBJECT@@@ZA[eax*4], OFFSET ?default_get_ui_object_flag@@YGHPAUUI_OBJECT@@@Z ; default_get_ui_object_flag

; 407  : 
; 408  : 
; 409  : 		fn_set_ui_object_start_time [i] = default_set_ui_object_flag;

  002d3	8b 45 fc	 mov	 eax, DWORD PTR _i$[ebp]
  002d6	c7 04 85 00 00
	00 00 00 00 00
	00		 mov	 DWORD PTR ?fn_set_ui_object_start_time@@3PAP6GXPAUUI_OBJECT@@H@ZA[eax*4], OFFSET ?default_set_ui_object_flag@@YGXPAUUI_OBJECT@@H@Z ; default_set_ui_object_flag

; 410  : 
; 411  : 		fn_get_ui_object_start_time [i] = default_get_ui_object_flag;

  002e1	8b 45 fc	 mov	 eax, DWORD PTR _i$[ebp]
  002e4	c7 04 85 00 00
	00 00 00 00 00
	00		 mov	 DWORD PTR ?fn_get_ui_object_start_time@@3PAP6GHPAUUI_OBJECT@@@ZA[eax*4], OFFSET ?default_get_ui_object_flag@@YGHPAUUI_OBJECT@@@Z ; default_get_ui_object_flag

; 412  : 
; 413  : 
; 414  : 		fn_set_ui_object_offset_time [i] = default_set_ui_object_flag;

  002ef	8b 45 fc	 mov	 eax, DWORD PTR _i$[ebp]
  002f2	c7 04 85 00 00
	00 00 00 00 00
	00		 mov	 DWORD PTR ?fn_set_ui_object_offset_time@@3PAP6GXPAUUI_OBJECT@@H@ZA[eax*4], OFFSET ?default_set_ui_object_flag@@YGXPAUUI_OBJECT@@H@Z ; default_set_ui_object_flag

; 415  : 
; 416  : 		fn_get_ui_object_offset_time [i] = default_get_ui_object_flag;

  002fd	8b 45 fc	 mov	 eax, DWORD PTR _i$[ebp]
  00300	c7 04 85 00 00
	00 00 00 00 00
	00		 mov	 DWORD PTR ?fn_get_ui_object_offset_time@@3PAP6GHPAUUI_OBJECT@@@ZA[eax*4], OFFSET ?default_get_ui_object_flag@@YGHPAUUI_OBJECT@@@Z ; default_get_ui_object_flag

; 417  :    }

  0030b	e9 02 fd ff ff	 jmp	 $LN2@set_ui_obj
$LN1@set_ui_obj:

; 418  : }

  00310	5f		 pop	 edi
  00311	5e		 pop	 esi
  00312	5b		 pop	 ebx
  00313	8b e5		 mov	 esp, ebp
  00315	5d		 pop	 ebp
  00316	c3		 ret	 0
?set_ui_object_flags_default_functions@@YGXXZ ENDP	; set_ui_object_flags_default_functions
_TEXT	ENDS
; Function compile flags: /Odtp /ZI
; File c:\users\nhv90\projects\eech\modules\userint2\ui_sys\ui_funcs\ui_flags.c
;	COMDAT ?default_get_ui_object_real_colour@@YGXPAUUI_OBJECT@@PAD11PAE@Z
_TEXT	SEGMENT
_obj$ = 8						; size = 4
_blue$ = 12						; size = 4
_green$ = 16						; size = 4
_red$ = 20						; size = 4
_alpha$ = 24						; size = 4
?default_get_ui_object_real_colour@@YGXPAUUI_OBJECT@@PAD11PAE@Z PROC ; default_get_ui_object_real_colour, COMDAT

; 268  : {

  00000	55		 push	 ebp
  00001	8b ec		 mov	 ebp, esp
  00003	83 ec 40	 sub	 esp, 64			; 00000040H
  00006	53		 push	 ebx
  00007	56		 push	 esi
  00008	57		 push	 edi

; 269  : 
; 270  :    obj;
; 271  : }

  00009	5f		 pop	 edi
  0000a	5e		 pop	 esi
  0000b	5b		 pop	 ebx
  0000c	8b e5		 mov	 esp, ebp
  0000e	5d		 pop	 ebp
  0000f	c2 14 00	 ret	 20			; 00000014H
?default_get_ui_object_real_colour@@YGXPAUUI_OBJECT@@PAD11PAE@Z ENDP ; default_get_ui_object_real_colour
_TEXT	ENDS
; Function compile flags: /Odtp /ZI
; File c:\users\nhv90\projects\eech\modules\userint2\ui_sys\ui_funcs\ui_flags.c
;	COMDAT ?default_set_ui_object_real_colour@@YGXPAUUI_OBJECT@@DDDE@Z
_TEXT	SEGMENT
_obj$ = 8						; size = 4
_blue$ = 12						; size = 1
_green$ = 16						; size = 1
_red$ = 20						; size = 1
_alpha$ = 24						; size = 1
?default_set_ui_object_real_colour@@YGXPAUUI_OBJECT@@DDDE@Z PROC ; default_set_ui_object_real_colour, COMDAT

; 258  : {

  00000	55		 push	 ebp
  00001	8b ec		 mov	 ebp, esp
  00003	83 ec 40	 sub	 esp, 64			; 00000040H
  00006	53		 push	 ebx
  00007	56		 push	 esi
  00008	57		 push	 edi

; 259  : 
; 260  :    obj;
; 261  : }

  00009	5f		 pop	 edi
  0000a	5e		 pop	 esi
  0000b	5b		 pop	 ebx
  0000c	8b e5		 mov	 esp, ebp
  0000e	5d		 pop	 ebp
  0000f	c2 14 00	 ret	 20			; 00000014H
?default_set_ui_object_real_colour@@YGXPAUUI_OBJECT@@DDDE@Z ENDP ; default_set_ui_object_real_colour
_TEXT	ENDS
; Function compile flags: /Odtp /ZI
; File c:\users\nhv90\projects\eech\modules\userint2\ui_sys\ui_funcs\ui_flags.c
;	COMDAT ?default_get_ui_object_float_flag@@YGMPAUUI_OBJECT@@@Z
_TEXT	SEGMENT
_obj$ = 8						; size = 4
?default_get_ui_object_float_flag@@YGMPAUUI_OBJECT@@@Z PROC ; default_get_ui_object_float_flag, COMDAT

; 246  : {

  00000	55		 push	 ebp
  00001	8b ec		 mov	 ebp, esp
  00003	83 ec 40	 sub	 esp, 64			; 00000040H
  00006	53		 push	 ebx
  00007	56		 push	 esi
  00008	57		 push	 edi

; 247  : 
; 248  :    obj;
; 249  : 
; 250  :    return (0.0);

  00009	d9 ee		 fldz

; 251  : }

  0000b	5f		 pop	 edi
  0000c	5e		 pop	 esi
  0000d	5b		 pop	 ebx
  0000e	8b e5		 mov	 esp, ebp
  00010	5d		 pop	 ebp
  00011	c2 04 00	 ret	 4
?default_get_ui_object_float_flag@@YGMPAUUI_OBJECT@@@Z ENDP ; default_get_ui_object_float_flag
_TEXT	ENDS
; Function compile flags: /Odtp /ZI
; File c:\users\nhv90\projects\eech\modules\userint2\ui_sys\ui_funcs\ui_flags.c
;	COMDAT ?default_set_ui_object_float_flag@@YGXPAUUI_OBJECT@@M@Z
_TEXT	SEGMENT
_obj$ = 8						; size = 4
_flag$ = 12						; size = 4
?default_set_ui_object_float_flag@@YGXPAUUI_OBJECT@@M@Z PROC ; default_set_ui_object_float_flag, COMDAT

; 235  : {

  00000	55		 push	 ebp
  00001	8b ec		 mov	 ebp, esp
  00003	83 ec 40	 sub	 esp, 64			; 00000040H
  00006	53		 push	 ebx
  00007	56		 push	 esi
  00008	57		 push	 edi

; 236  : 
; 237  :    obj;
; 238  :    flag;
; 239  : }

  00009	5f		 pop	 edi
  0000a	5e		 pop	 esi
  0000b	5b		 pop	 ebx
  0000c	8b e5		 mov	 esp, ebp
  0000e	5d		 pop	 ebp
  0000f	c2 08 00	 ret	 8
?default_set_ui_object_float_flag@@YGXPAUUI_OBJECT@@M@Z ENDP ; default_set_ui_object_float_flag
_TEXT	ENDS
; Function compile flags: /Odtp /ZI
; File c:\users\nhv90\projects\eech\modules\userint2\ui_sys\ui_funcs\ui_flags.c
;	COMDAT ?default_get_ui_object_flag@@YGHPAUUI_OBJECT@@@Z
_TEXT	SEGMENT
_obj$ = 8						; size = 4
?default_get_ui_object_flag@@YGHPAUUI_OBJECT@@@Z PROC	; default_get_ui_object_flag, COMDAT

; 223  : {

  00000	55		 push	 ebp
  00001	8b ec		 mov	 ebp, esp
  00003	83 ec 40	 sub	 esp, 64			; 00000040H
  00006	53		 push	 ebx
  00007	56		 push	 esi
  00008	57		 push	 edi

; 224  : 
; 225  :    obj;
; 226  : 
; 227  :    return (0);

  00009	33 c0		 xor	 eax, eax

; 228  : }

  0000b	5f		 pop	 edi
  0000c	5e		 pop	 esi
  0000d	5b		 pop	 ebx
  0000e	8b e5		 mov	 esp, ebp
  00010	5d		 pop	 ebp
  00011	c2 04 00	 ret	 4
?default_get_ui_object_flag@@YGHPAUUI_OBJECT@@@Z ENDP	; default_get_ui_object_flag
_TEXT	ENDS
; Function compile flags: /Odtp /ZI
; File c:\users\nhv90\projects\eech\modules\userint2\ui_sys\ui_funcs\ui_flags.c
;	COMDAT ?default_set_ui_object_flag@@YGXPAUUI_OBJECT@@H@Z
_TEXT	SEGMENT
_obj$ = 8						; size = 4
_flag$ = 12						; size = 4
?default_set_ui_object_flag@@YGXPAUUI_OBJECT@@H@Z PROC	; default_set_ui_object_flag, COMDAT

; 212  : {

  00000	55		 push	 ebp
  00001	8b ec		 mov	 ebp, esp
  00003	83 ec 40	 sub	 esp, 64			; 00000040H
  00006	53		 push	 ebx
  00007	56		 push	 esi
  00008	57		 push	 edi

; 213  : 
; 214  :    obj;
; 215  :    flag;
; 216  : }

  00009	5f		 pop	 edi
  0000a	5e		 pop	 esi
  0000b	5b		 pop	 ebx
  0000c	8b e5		 mov	 esp, ebp
  0000e	5d		 pop	 ebp
  0000f	c2 08 00	 ret	 8
?default_set_ui_object_flag@@YGXPAUUI_OBJECT@@H@Z ENDP	; default_set_ui_object_flag
_TEXT	ENDS
END
