; Listing generated by Microsoft (R) Optimizing Compiler Version 19.16.27045.0 

	TITLE	C:\Users\nhv90\Projects\eech\modules\userint2\ui_sys\ui_funcs\ui_size.c
	.686P
	.XMM
	include listing.inc
	.model	flat

INCLUDELIB MSVCRTD
INCLUDELIB OLDNAMES

PUBLIC	?fn_set_ui_object_x_size@@3PAP6GXPAUUI_OBJECT@@M@ZA ; fn_set_ui_object_x_size
PUBLIC	?fn_get_ui_object_x_size@@3PAP6GMPAUUI_OBJECT@@@ZA ; fn_get_ui_object_x_size
PUBLIC	?fn_set_ui_object_y_size@@3PAP6GXPAUUI_OBJECT@@M@ZA ; fn_set_ui_object_y_size
PUBLIC	?fn_get_ui_object_y_size@@3PAP6GMPAUUI_OBJECT@@@ZA ; fn_get_ui_object_y_size
PUBLIC	?fn_set_ui_object_x_size_end@@3PAP6GXPAUUI_OBJECT@@M@ZA ; fn_set_ui_object_x_size_end
PUBLIC	?fn_get_ui_object_x_size_end@@3PAP6GMPAUUI_OBJECT@@@ZA ; fn_get_ui_object_x_size_end
PUBLIC	?fn_set_ui_object_y_size_end@@3PAP6GXPAUUI_OBJECT@@M@ZA ; fn_set_ui_object_y_size_end
PUBLIC	?fn_get_ui_object_y_size_end@@3PAP6GMPAUUI_OBJECT@@@ZA ; fn_get_ui_object_y_size_end
PUBLIC	?fn_set_ui_object_x_size_start@@3PAP6GXPAUUI_OBJECT@@M@ZA ; fn_set_ui_object_x_size_start
PUBLIC	?fn_get_ui_object_x_size_start@@3PAP6GMPAUUI_OBJECT@@@ZA ; fn_get_ui_object_x_size_start
PUBLIC	?fn_set_ui_object_y_size_start@@3PAP6GXPAUUI_OBJECT@@M@ZA ; fn_set_ui_object_y_size_start
PUBLIC	?fn_get_ui_object_y_size_start@@3PAP6GMPAUUI_OBJECT@@@ZA ; fn_get_ui_object_y_size_start
PUBLIC	?fn_set_ui_object_virtual_x_size@@3PAP6GXPAUUI_OBJECT@@M@ZA ; fn_set_ui_object_virtual_x_size
PUBLIC	?fn_get_ui_object_virtual_x_size@@3PAP6GMPAUUI_OBJECT@@@ZA ; fn_get_ui_object_virtual_x_size
PUBLIC	?fn_set_ui_object_virtual_y_size@@3PAP6GXPAUUI_OBJECT@@M@ZA ; fn_set_ui_object_virtual_y_size
PUBLIC	?fn_get_ui_object_virtual_y_size@@3PAP6GMPAUUI_OBJECT@@@ZA ; fn_get_ui_object_virtual_y_size
_BSS	SEGMENT
?fn_set_ui_object_x_size@@3PAP6GXPAUUI_OBJECT@@M@ZA DD 012H DUP (?) ; fn_set_ui_object_x_size
?fn_get_ui_object_x_size@@3PAP6GMPAUUI_OBJECT@@@ZA DD 012H DUP (?) ; fn_get_ui_object_x_size
?fn_set_ui_object_y_size@@3PAP6GXPAUUI_OBJECT@@M@ZA DD 012H DUP (?) ; fn_set_ui_object_y_size
?fn_get_ui_object_y_size@@3PAP6GMPAUUI_OBJECT@@@ZA DD 012H DUP (?) ; fn_get_ui_object_y_size
?fn_set_ui_object_x_size_end@@3PAP6GXPAUUI_OBJECT@@M@ZA DD 012H DUP (?) ; fn_set_ui_object_x_size_end
?fn_get_ui_object_x_size_end@@3PAP6GMPAUUI_OBJECT@@@ZA DD 012H DUP (?) ; fn_get_ui_object_x_size_end
?fn_set_ui_object_y_size_end@@3PAP6GXPAUUI_OBJECT@@M@ZA DD 012H DUP (?) ; fn_set_ui_object_y_size_end
?fn_get_ui_object_y_size_end@@3PAP6GMPAUUI_OBJECT@@@ZA DD 012H DUP (?) ; fn_get_ui_object_y_size_end
?fn_set_ui_object_x_size_start@@3PAP6GXPAUUI_OBJECT@@M@ZA DD 012H DUP (?) ; fn_set_ui_object_x_size_start
?fn_get_ui_object_x_size_start@@3PAP6GMPAUUI_OBJECT@@@ZA DD 012H DUP (?) ; fn_get_ui_object_x_size_start
?fn_set_ui_object_y_size_start@@3PAP6GXPAUUI_OBJECT@@M@ZA DD 012H DUP (?) ; fn_set_ui_object_y_size_start
?fn_get_ui_object_y_size_start@@3PAP6GMPAUUI_OBJECT@@@ZA DD 012H DUP (?) ; fn_get_ui_object_y_size_start
?fn_set_ui_object_virtual_x_size@@3PAP6GXPAUUI_OBJECT@@M@ZA DD 012H DUP (?) ; fn_set_ui_object_virtual_x_size
?fn_get_ui_object_virtual_x_size@@3PAP6GMPAUUI_OBJECT@@@ZA DD 012H DUP (?) ; fn_get_ui_object_virtual_x_size
?fn_set_ui_object_virtual_y_size@@3PAP6GXPAUUI_OBJECT@@M@ZA DD 012H DUP (?) ; fn_set_ui_object_virtual_y_size
?fn_get_ui_object_virtual_y_size@@3PAP6GMPAUUI_OBJECT@@@ZA DD 012H DUP (?) ; fn_get_ui_object_virtual_y_size
_BSS	ENDS
PUBLIC	?default_set_ui_object_size@@YGXPAUUI_OBJECT@@M@Z ; default_set_ui_object_size
PUBLIC	?default_get_ui_object_size@@YGMPAUUI_OBJECT@@@Z ; default_get_ui_object_size
PUBLIC	?set_ui_object_size_default_functions@@YGXXZ	; set_ui_object_size_default_functions
PUBLIC	__real@00000000
EXTRN	__fltused:DWORD
;	COMDAT __real@00000000
CONST	SEGMENT
__real@00000000 DD 000000000r			; 0
CONST	ENDS
; Function compile flags: /Odtp /ZI
; File c:\users\nhv90\projects\eech\modules\userint2\ui_sys\ui_funcs\ui_size.c
;	COMDAT ?set_ui_object_size_default_functions@@YGXXZ
_TEXT	SEGMENT
_i$ = -4						; size = 4
?set_ui_object_size_default_functions@@YGXXZ PROC	; set_ui_object_size_default_functions, COMDAT

; 136  : {

  00000	55		 push	 ebp
  00001	8b ec		 mov	 ebp, esp
  00003	83 ec 44	 sub	 esp, 68			; 00000044H
  00006	53		 push	 ebx
  00007	56		 push	 esi
  00008	57		 push	 edi

; 137  : 
; 138  : 	int
; 139  : 		i;
; 140  : 
; 141  : 	for (i = 0; i < NUM_UI_TYPES; i ++)

  00009	c7 45 fc 00 00
	00 00		 mov	 DWORD PTR _i$[ebp], 0
  00010	eb 09		 jmp	 SHORT $LN4@set_ui_obj
$LN2@set_ui_obj:
  00012	8b 45 fc	 mov	 eax, DWORD PTR _i$[ebp]
  00015	83 c0 01	 add	 eax, 1
  00018	89 45 fc	 mov	 DWORD PTR _i$[ebp], eax
$LN4@set_ui_obj:
  0001b	83 7d fc 12	 cmp	 DWORD PTR _i$[ebp], 18	; 00000012H
  0001f	0f 8d e5 00 00
	00		 jge	 $LN1@set_ui_obj

; 142  : 	{
; 143  : 
; 144  : 		fn_set_ui_object_x_size [i]	= default_set_ui_object_size;

  00025	8b 45 fc	 mov	 eax, DWORD PTR _i$[ebp]
  00028	c7 04 85 00 00
	00 00 00 00 00
	00		 mov	 DWORD PTR ?fn_set_ui_object_x_size@@3PAP6GXPAUUI_OBJECT@@M@ZA[eax*4], OFFSET ?default_set_ui_object_size@@YGXPAUUI_OBJECT@@M@Z ; default_set_ui_object_size

; 145  : 
; 146  : 		fn_get_ui_object_x_size [i]	= default_get_ui_object_size;

  00033	8b 45 fc	 mov	 eax, DWORD PTR _i$[ebp]
  00036	c7 04 85 00 00
	00 00 00 00 00
	00		 mov	 DWORD PTR ?fn_get_ui_object_x_size@@3PAP6GMPAUUI_OBJECT@@@ZA[eax*4], OFFSET ?default_get_ui_object_size@@YGMPAUUI_OBJECT@@@Z ; default_get_ui_object_size

; 147  : 
; 148  : 		fn_set_ui_object_y_size [i]	= default_set_ui_object_size;

  00041	8b 45 fc	 mov	 eax, DWORD PTR _i$[ebp]
  00044	c7 04 85 00 00
	00 00 00 00 00
	00		 mov	 DWORD PTR ?fn_set_ui_object_y_size@@3PAP6GXPAUUI_OBJECT@@M@ZA[eax*4], OFFSET ?default_set_ui_object_size@@YGXPAUUI_OBJECT@@M@Z ; default_set_ui_object_size

; 149  : 
; 150  : 		fn_get_ui_object_y_size [i]	= default_get_ui_object_size;

  0004f	8b 45 fc	 mov	 eax, DWORD PTR _i$[ebp]
  00052	c7 04 85 00 00
	00 00 00 00 00
	00		 mov	 DWORD PTR ?fn_get_ui_object_y_size@@3PAP6GMPAUUI_OBJECT@@@ZA[eax*4], OFFSET ?default_get_ui_object_size@@YGMPAUUI_OBJECT@@@Z ; default_get_ui_object_size

; 151  : 
; 152  : 
; 153  : 		fn_set_ui_object_x_size_end [i]	= default_set_ui_object_size;

  0005d	8b 45 fc	 mov	 eax, DWORD PTR _i$[ebp]
  00060	c7 04 85 00 00
	00 00 00 00 00
	00		 mov	 DWORD PTR ?fn_set_ui_object_x_size_end@@3PAP6GXPAUUI_OBJECT@@M@ZA[eax*4], OFFSET ?default_set_ui_object_size@@YGXPAUUI_OBJECT@@M@Z ; default_set_ui_object_size

; 154  : 
; 155  : 		fn_get_ui_object_x_size_end [i]	= default_get_ui_object_size;

  0006b	8b 45 fc	 mov	 eax, DWORD PTR _i$[ebp]
  0006e	c7 04 85 00 00
	00 00 00 00 00
	00		 mov	 DWORD PTR ?fn_get_ui_object_x_size_end@@3PAP6GMPAUUI_OBJECT@@@ZA[eax*4], OFFSET ?default_get_ui_object_size@@YGMPAUUI_OBJECT@@@Z ; default_get_ui_object_size

; 156  : 
; 157  : 		fn_set_ui_object_y_size_end [i]	= default_set_ui_object_size;

  00079	8b 45 fc	 mov	 eax, DWORD PTR _i$[ebp]
  0007c	c7 04 85 00 00
	00 00 00 00 00
	00		 mov	 DWORD PTR ?fn_set_ui_object_y_size_end@@3PAP6GXPAUUI_OBJECT@@M@ZA[eax*4], OFFSET ?default_set_ui_object_size@@YGXPAUUI_OBJECT@@M@Z ; default_set_ui_object_size

; 158  : 
; 159  : 		fn_get_ui_object_y_size_end [i]	= default_get_ui_object_size;

  00087	8b 45 fc	 mov	 eax, DWORD PTR _i$[ebp]
  0008a	c7 04 85 00 00
	00 00 00 00 00
	00		 mov	 DWORD PTR ?fn_get_ui_object_y_size_end@@3PAP6GMPAUUI_OBJECT@@@ZA[eax*4], OFFSET ?default_get_ui_object_size@@YGMPAUUI_OBJECT@@@Z ; default_get_ui_object_size

; 160  : 
; 161  : 
; 162  : 		fn_set_ui_object_x_size_start [i]	= default_set_ui_object_size;

  00095	8b 45 fc	 mov	 eax, DWORD PTR _i$[ebp]
  00098	c7 04 85 00 00
	00 00 00 00 00
	00		 mov	 DWORD PTR ?fn_set_ui_object_x_size_start@@3PAP6GXPAUUI_OBJECT@@M@ZA[eax*4], OFFSET ?default_set_ui_object_size@@YGXPAUUI_OBJECT@@M@Z ; default_set_ui_object_size

; 163  : 
; 164  : 		fn_get_ui_object_x_size_start [i]	= default_get_ui_object_size;

  000a3	8b 45 fc	 mov	 eax, DWORD PTR _i$[ebp]
  000a6	c7 04 85 00 00
	00 00 00 00 00
	00		 mov	 DWORD PTR ?fn_get_ui_object_x_size_start@@3PAP6GMPAUUI_OBJECT@@@ZA[eax*4], OFFSET ?default_get_ui_object_size@@YGMPAUUI_OBJECT@@@Z ; default_get_ui_object_size

; 165  : 
; 166  : 		fn_set_ui_object_y_size_start [i]	= default_set_ui_object_size;

  000b1	8b 45 fc	 mov	 eax, DWORD PTR _i$[ebp]
  000b4	c7 04 85 00 00
	00 00 00 00 00
	00		 mov	 DWORD PTR ?fn_set_ui_object_y_size_start@@3PAP6GXPAUUI_OBJECT@@M@ZA[eax*4], OFFSET ?default_set_ui_object_size@@YGXPAUUI_OBJECT@@M@Z ; default_set_ui_object_size

; 167  : 
; 168  : 		fn_get_ui_object_y_size_start [i]	= default_get_ui_object_size;

  000bf	8b 45 fc	 mov	 eax, DWORD PTR _i$[ebp]
  000c2	c7 04 85 00 00
	00 00 00 00 00
	00		 mov	 DWORD PTR ?fn_get_ui_object_y_size_start@@3PAP6GMPAUUI_OBJECT@@@ZA[eax*4], OFFSET ?default_get_ui_object_size@@YGMPAUUI_OBJECT@@@Z ; default_get_ui_object_size

; 169  : 
; 170  : 
; 171  : 		fn_set_ui_object_virtual_x_size [i]	= default_set_ui_object_size;

  000cd	8b 45 fc	 mov	 eax, DWORD PTR _i$[ebp]
  000d0	c7 04 85 00 00
	00 00 00 00 00
	00		 mov	 DWORD PTR ?fn_set_ui_object_virtual_x_size@@3PAP6GXPAUUI_OBJECT@@M@ZA[eax*4], OFFSET ?default_set_ui_object_size@@YGXPAUUI_OBJECT@@M@Z ; default_set_ui_object_size

; 172  : 
; 173  : 		fn_get_ui_object_virtual_x_size [i]	= default_get_ui_object_size;

  000db	8b 45 fc	 mov	 eax, DWORD PTR _i$[ebp]
  000de	c7 04 85 00 00
	00 00 00 00 00
	00		 mov	 DWORD PTR ?fn_get_ui_object_virtual_x_size@@3PAP6GMPAUUI_OBJECT@@@ZA[eax*4], OFFSET ?default_get_ui_object_size@@YGMPAUUI_OBJECT@@@Z ; default_get_ui_object_size

; 174  : 
; 175  : 		fn_set_ui_object_virtual_y_size [i]	= default_set_ui_object_size;

  000e9	8b 45 fc	 mov	 eax, DWORD PTR _i$[ebp]
  000ec	c7 04 85 00 00
	00 00 00 00 00
	00		 mov	 DWORD PTR ?fn_set_ui_object_virtual_y_size@@3PAP6GXPAUUI_OBJECT@@M@ZA[eax*4], OFFSET ?default_set_ui_object_size@@YGXPAUUI_OBJECT@@M@Z ; default_set_ui_object_size

; 176  : 
; 177  : 		fn_get_ui_object_virtual_y_size [i]	= default_get_ui_object_size;

  000f7	8b 45 fc	 mov	 eax, DWORD PTR _i$[ebp]
  000fa	c7 04 85 00 00
	00 00 00 00 00
	00		 mov	 DWORD PTR ?fn_get_ui_object_virtual_y_size@@3PAP6GMPAUUI_OBJECT@@@ZA[eax*4], OFFSET ?default_get_ui_object_size@@YGMPAUUI_OBJECT@@@Z ; default_get_ui_object_size

; 178  : 	}

  00105	e9 08 ff ff ff	 jmp	 $LN2@set_ui_obj
$LN1@set_ui_obj:

; 179  : }

  0010a	5f		 pop	 edi
  0010b	5e		 pop	 esi
  0010c	5b		 pop	 ebx
  0010d	8b e5		 mov	 esp, ebp
  0010f	5d		 pop	 ebp
  00110	c3		 ret	 0
?set_ui_object_size_default_functions@@YGXXZ ENDP	; set_ui_object_size_default_functions
_TEXT	ENDS
; Function compile flags: /Odtp /ZI
; File c:\users\nhv90\projects\eech\modules\userint2\ui_sys\ui_funcs\ui_size.c
;	COMDAT ?default_get_ui_object_size@@YGMPAUUI_OBJECT@@@Z
_TEXT	SEGMENT
_obj$ = 8						; size = 4
?default_get_ui_object_size@@YGMPAUUI_OBJECT@@@Z PROC	; default_get_ui_object_size, COMDAT

; 124  : {

  00000	55		 push	 ebp
  00001	8b ec		 mov	 ebp, esp
  00003	83 ec 40	 sub	 esp, 64			; 00000040H
  00006	53		 push	 ebx
  00007	56		 push	 esi
  00008	57		 push	 edi

; 125  : 
; 126  : 	obj;
; 127  : 
; 128  : 	return (0.0);

  00009	d9 ee		 fldz

; 129  : }

  0000b	5f		 pop	 edi
  0000c	5e		 pop	 esi
  0000d	5b		 pop	 ebx
  0000e	8b e5		 mov	 esp, ebp
  00010	5d		 pop	 ebp
  00011	c2 04 00	 ret	 4
?default_get_ui_object_size@@YGMPAUUI_OBJECT@@@Z ENDP	; default_get_ui_object_size
_TEXT	ENDS
; Function compile flags: /Odtp /ZI
; File c:\users\nhv90\projects\eech\modules\userint2\ui_sys\ui_funcs\ui_size.c
;	COMDAT ?default_set_ui_object_size@@YGXPAUUI_OBJECT@@M@Z
_TEXT	SEGMENT
_obj$ = 8						; size = 4
_size$ = 12						; size = 4
?default_set_ui_object_size@@YGXPAUUI_OBJECT@@M@Z PROC	; default_set_ui_object_size, COMDAT

; 113  : {

  00000	55		 push	 ebp
  00001	8b ec		 mov	 ebp, esp
  00003	83 ec 40	 sub	 esp, 64			; 00000040H
  00006	53		 push	 ebx
  00007	56		 push	 esi
  00008	57		 push	 edi

; 114  : 
; 115  : 	obj;
; 116  : 	size;
; 117  : }

  00009	5f		 pop	 edi
  0000a	5e		 pop	 esi
  0000b	5b		 pop	 ebx
  0000c	8b e5		 mov	 esp, ebp
  0000e	5d		 pop	 ebp
  0000f	c2 08 00	 ret	 8
?default_set_ui_object_size@@YGXPAUUI_OBJECT@@M@Z ENDP	; default_set_ui_object_size
_TEXT	ENDS
END
