; Listing generated by Microsoft (R) Optimizing Compiler Version 19.16.27045.0 

	TITLE	C:\Users\nhv90\Projects\eech\modules\userint2\ui_draw\uiclip.c
	.686P
	.XMM
	include listing.inc
	.model	flat

INCLUDELIB MSVCRTD
INCLUDELIB OLDNAMES

PUBLIC	?ui_clip_area@@YGHPAM000@Z			; ui_clip_area
PUBLIC	?ui_get_clip_area@@YGXPAM000@Z			; ui_get_clip_area
PUBLIC	?check_ui_object_clipped@@YGHPAUUI_OBJECT@@@Z	; check_ui_object_clipped
PUBLIC	?__LINE__Var@?0??check_ui_object_clipped@@YGHPAUUI_OBJECT@@@Z@4JA ; `check_ui_object_clipped'::`1'::__LINE__Var
PUBLIC	??_C@_0DP@EFGEJNMB@c?3?2users?2nhv90?2projects?2eech?2mo@ ; `string'
PUBLIC	??_C@_06MLKDMCBD@parent@			; `string'
EXTRN	?process_assert@@YGXPBD0H@Z:PROC		; process_assert
EXTRN	?set_viewport@@YGXMMMM@Z:PROC			; set_viewport
EXTRN	?get_screen_width@@YGHPAUSCREEN@@@Z:PROC	; get_screen_width
EXTRN	?get_screen_height@@YGHPAUSCREEN@@@Z:PROC	; get_screen_height
EXTRN	?active_viewport@@3UVIEWPORT@@A:BYTE		; active_viewport
EXTRN	?active_screen@@3PAUSCREEN@@A:DWORD		; active_screen
EXTRN	?fn_get_ui_object_x@@3PAP6GMPAUUI_OBJECT@@@ZA:BYTE ; fn_get_ui_object_x
EXTRN	?fn_get_ui_object_y@@3PAP6GMPAUUI_OBJECT@@@ZA:BYTE ; fn_get_ui_object_y
EXTRN	?fn_get_ui_object_x_size@@3PAP6GMPAUUI_OBJECT@@@ZA:BYTE ; fn_get_ui_object_x_size
EXTRN	?fn_get_ui_object_y_size@@3PAP6GMPAUUI_OBJECT@@@ZA:BYTE ; fn_get_ui_object_y_size
EXTRN	?fn_get_ui_object_parent@@3PAP6GPAUUI_OBJECT@@PAU1@@ZA:BYTE ; fn_get_ui_object_parent
EXTRN	?ui_x_origin@@3MA:DWORD				; ui_x_origin
EXTRN	?ui_y_origin@@3MA:DWORD				; ui_y_origin
EXTRN	__fltused:DWORD
;	COMDAT ??_C@_06MLKDMCBD@parent@
CONST	SEGMENT
??_C@_06MLKDMCBD@parent@ DB 'parent', 00H		; `string'
CONST	ENDS
;	COMDAT ??_C@_0DP@EFGEJNMB@c?3?2users?2nhv90?2projects?2eech?2mo@
CONST	SEGMENT
??_C@_0DP@EFGEJNMB@c?3?2users?2nhv90?2projects?2eech?2mo@ DB 'c:\users\nh'
	DB	'v90\projects\eech\modules\userint2\ui_draw\uiclip.c', 00H ; `string'
CONST	ENDS
;	COMDAT ?__LINE__Var@?0??check_ui_object_clipped@@YGHPAUUI_OBJECT@@@Z@4JA
_DATA	SEGMENT
?__LINE__Var@?0??check_ui_object_clipped@@YGHPAUUI_OBJECT@@@Z@4JA DD 0f1H ; `check_ui_object_clipped'::`1'::__LINE__Var
_DATA	ENDS
; Function compile flags: /Odtp /ZI
; File c:\users\nhv90\projects\eech\modules\userint2\ui_draw\uiclip.c
;	COMDAT ?check_ui_object_clipped@@YGHPAUUI_OBJECT@@@Z
_TEXT	SEGMENT
tv234 = -124						; size = 4
tv226 = -124						; size = 4
tv208 = -124						; size = 4
tv200 = -124						; size = 4
_old_vp_y2$ = -56					; size = 4
_old_vp_x2$ = -52					; size = 4
_old_vp_y1$ = -48					; size = 4
_old_vp_x1$ = -44					; size = 4
_y_max$ = -40						; size = 4
_x_max$ = -36						; size = 4
_y_min$ = -32						; size = 4
_x_min$ = -28						; size = 4
_y2$ = -24						; size = 4
_y1$ = -20						; size = 4
_x2$ = -16						; size = 4
_x1$ = -12						; size = 4
_parent$ = -8						; size = 4
_flag$ = -4						; size = 4
_obj$ = 8						; size = 4
?check_ui_object_clipped@@YGHPAUUI_OBJECT@@@Z PROC	; check_ui_object_clipped, COMDAT

; 241  : {

  00000	55		 push	 ebp
  00001	8b ec		 mov	 ebp, esp
  00003	83 ec 7c	 sub	 esp, 124		; 0000007cH
  00006	53		 push	 ebx
  00007	56		 push	 esi
  00008	57		 push	 edi

; 242  : 
; 243  : 	int
; 244  : 		flag;
; 245  : 
; 246  : 	ui_object
; 247  : 		*parent;
; 248  : 
; 249  : 	float
; 250  : 		x1,
; 251  : 		x2,
; 252  : 		y1,
; 253  : 		y2,
; 254  : 		x_min,
; 255  : 		y_min,
; 256  : 		x_max,
; 257  : 		y_max,
; 258  : 		old_vp_x1,
; 259  : 		old_vp_y1,
; 260  : 		old_vp_x2,
; 261  : 		old_vp_y2;
; 262  : 
; 263  : 	old_vp_x1 = active_viewport.x_min;

  00009	f3 0f 10 05 00
	00 00 00	 movss	 xmm0, DWORD PTR ?active_viewport@@3UVIEWPORT@@A
  00011	f3 0f 11 45 d4	 movss	 DWORD PTR _old_vp_x1$[ebp], xmm0

; 264  : 	old_vp_y1 = active_viewport.y_min;

  00016	f3 0f 10 05 04
	00 00 00	 movss	 xmm0, DWORD PTR ?active_viewport@@3UVIEWPORT@@A+4
  0001e	f3 0f 11 45 d0	 movss	 DWORD PTR _old_vp_y1$[ebp], xmm0

; 265  : 	old_vp_x2 = active_viewport.x_max;

  00023	f3 0f 10 05 08
	00 00 00	 movss	 xmm0, DWORD PTR ?active_viewport@@3UVIEWPORT@@A+8
  0002b	f3 0f 11 45 cc	 movss	 DWORD PTR _old_vp_x2$[ebp], xmm0

; 266  : 	old_vp_y2 = active_viewport.y_max;

  00030	f3 0f 10 05 0c
	00 00 00	 movss	 xmm0, DWORD PTR ?active_viewport@@3UVIEWPORT@@A+12
  00038	f3 0f 11 45 c8	 movss	 DWORD PTR _old_vp_y2$[ebp], xmm0

; 267  : 
; 268  : 	parent = get_ui_object_parent (obj);

  0003d	8b 45 08	 mov	 eax, DWORD PTR _obj$[ebp]
  00040	50		 push	 eax
  00041	8b 4d 08	 mov	 ecx, DWORD PTR _obj$[ebp]
  00044	8b 11		 mov	 edx, DWORD PTR [ecx]
  00046	8b 04 95 00 00
	00 00		 mov	 eax, DWORD PTR ?fn_get_ui_object_parent@@3PAP6GPAUUI_OBJECT@@PAU1@@ZA[edx*4]
  0004d	ff d0		 call	 eax
  0004f	89 45 f8	 mov	 DWORD PTR _parent$[ebp], eax

; 269  : 
; 270  : 	ASSERT (parent);

  00052	83 7d f8 00	 cmp	 DWORD PTR _parent$[ebp], 0
  00056	75 18		 jne	 SHORT $LN2@check_ui_o
  00058	a1 00 00 00 00	 mov	 eax, DWORD PTR ?__LINE__Var@?0??check_ui_object_clipped@@YGHPAUUI_OBJECT@@@Z@4JA
  0005d	83 c0 1d	 add	 eax, 29			; 0000001dH
  00060	50		 push	 eax
  00061	68 00 00 00 00	 push	 OFFSET ??_C@_0DP@EFGEJNMB@c?3?2users?2nhv90?2projects?2eech?2mo@
  00066	68 00 00 00 00	 push	 OFFSET ??_C@_06MLKDMCBD@parent@
  0006b	e8 00 00 00 00	 call	 ?process_assert@@YGXPBD0H@Z ; process_assert
$LN2@check_ui_o:

; 271  : 
; 272  : 	x1 = get_ui_object_x (parent);

  00070	8b 45 f8	 mov	 eax, DWORD PTR _parent$[ebp]
  00073	50		 push	 eax
  00074	8b 4d f8	 mov	 ecx, DWORD PTR _parent$[ebp]
  00077	8b 11		 mov	 edx, DWORD PTR [ecx]
  00079	8b 04 95 00 00
	00 00		 mov	 eax, DWORD PTR ?fn_get_ui_object_x@@3PAP6GMPAUUI_OBJECT@@@ZA[edx*4]
  00080	ff d0		 call	 eax
  00082	d9 5d f4	 fstp	 DWORD PTR _x1$[ebp]

; 273  : 	y1 = get_ui_object_y (parent);

  00085	8b 45 f8	 mov	 eax, DWORD PTR _parent$[ebp]
  00088	50		 push	 eax
  00089	8b 4d f8	 mov	 ecx, DWORD PTR _parent$[ebp]
  0008c	8b 11		 mov	 edx, DWORD PTR [ecx]
  0008e	8b 04 95 00 00
	00 00		 mov	 eax, DWORD PTR ?fn_get_ui_object_y@@3PAP6GMPAUUI_OBJECT@@@ZA[edx*4]
  00095	ff d0		 call	 eax
  00097	d9 5d ec	 fstp	 DWORD PTR _y1$[ebp]

; 274  : 	x2 = x1 + get_ui_object_x_size (parent);

  0009a	8b 45 f8	 mov	 eax, DWORD PTR _parent$[ebp]
  0009d	50		 push	 eax
  0009e	8b 4d f8	 mov	 ecx, DWORD PTR _parent$[ebp]
  000a1	8b 11		 mov	 edx, DWORD PTR [ecx]
  000a3	8b 04 95 00 00
	00 00		 mov	 eax, DWORD PTR ?fn_get_ui_object_x_size@@3PAP6GMPAUUI_OBJECT@@@ZA[edx*4]
  000aa	ff d0		 call	 eax
  000ac	d9 5d 84	 fstp	 DWORD PTR tv200[ebp]
  000af	f3 0f 10 45 84	 movss	 xmm0, DWORD PTR tv200[ebp]
  000b4	f3 0f 58 45 f4	 addss	 xmm0, DWORD PTR _x1$[ebp]
  000b9	f3 0f 11 45 f0	 movss	 DWORD PTR _x2$[ebp], xmm0

; 275  : 	y2 = y1 + get_ui_object_y_size (parent);

  000be	8b 45 f8	 mov	 eax, DWORD PTR _parent$[ebp]
  000c1	50		 push	 eax
  000c2	8b 4d f8	 mov	 ecx, DWORD PTR _parent$[ebp]
  000c5	8b 11		 mov	 edx, DWORD PTR [ecx]
  000c7	8b 04 95 00 00
	00 00		 mov	 eax, DWORD PTR ?fn_get_ui_object_y_size@@3PAP6GMPAUUI_OBJECT@@@ZA[edx*4]
  000ce	ff d0		 call	 eax
  000d0	d9 5d 84	 fstp	 DWORD PTR tv208[ebp]
  000d3	f3 0f 10 45 84	 movss	 xmm0, DWORD PTR tv208[ebp]
  000d8	f3 0f 58 45 ec	 addss	 xmm0, DWORD PTR _y1$[ebp]
  000dd	f3 0f 11 45 e8	 movss	 DWORD PTR _y2$[ebp], xmm0

; 276  : 
; 277  : 	x_min = get_ui_object_x (obj);

  000e2	8b 45 08	 mov	 eax, DWORD PTR _obj$[ebp]
  000e5	50		 push	 eax
  000e6	8b 4d 08	 mov	 ecx, DWORD PTR _obj$[ebp]
  000e9	8b 11		 mov	 edx, DWORD PTR [ecx]
  000eb	8b 04 95 00 00
	00 00		 mov	 eax, DWORD PTR ?fn_get_ui_object_x@@3PAP6GMPAUUI_OBJECT@@@ZA[edx*4]
  000f2	ff d0		 call	 eax
  000f4	d9 5d e4	 fstp	 DWORD PTR _x_min$[ebp]

; 278  : 	y_min = get_ui_object_y (obj);

  000f7	8b 45 08	 mov	 eax, DWORD PTR _obj$[ebp]
  000fa	50		 push	 eax
  000fb	8b 4d 08	 mov	 ecx, DWORD PTR _obj$[ebp]
  000fe	8b 11		 mov	 edx, DWORD PTR [ecx]
  00100	8b 04 95 00 00
	00 00		 mov	 eax, DWORD PTR ?fn_get_ui_object_y@@3PAP6GMPAUUI_OBJECT@@@ZA[edx*4]
  00107	ff d0		 call	 eax
  00109	d9 5d e0	 fstp	 DWORD PTR _y_min$[ebp]

; 279  : 	x_max = x_min + get_ui_object_x_size (obj);

  0010c	8b 45 08	 mov	 eax, DWORD PTR _obj$[ebp]
  0010f	50		 push	 eax
  00110	8b 4d 08	 mov	 ecx, DWORD PTR _obj$[ebp]
  00113	8b 11		 mov	 edx, DWORD PTR [ecx]
  00115	8b 04 95 00 00
	00 00		 mov	 eax, DWORD PTR ?fn_get_ui_object_x_size@@3PAP6GMPAUUI_OBJECT@@@ZA[edx*4]
  0011c	ff d0		 call	 eax
  0011e	d9 5d 84	 fstp	 DWORD PTR tv226[ebp]
  00121	f3 0f 10 45 84	 movss	 xmm0, DWORD PTR tv226[ebp]
  00126	f3 0f 58 45 e4	 addss	 xmm0, DWORD PTR _x_min$[ebp]
  0012b	f3 0f 11 45 dc	 movss	 DWORD PTR _x_max$[ebp], xmm0

; 280  : 	y_max = y_min + get_ui_object_y_size (obj);

  00130	8b 45 08	 mov	 eax, DWORD PTR _obj$[ebp]
  00133	50		 push	 eax
  00134	8b 4d 08	 mov	 ecx, DWORD PTR _obj$[ebp]
  00137	8b 11		 mov	 edx, DWORD PTR [ecx]
  00139	8b 04 95 00 00
	00 00		 mov	 eax, DWORD PTR ?fn_get_ui_object_y_size@@3PAP6GMPAUUI_OBJECT@@@ZA[edx*4]
  00140	ff d0		 call	 eax
  00142	d9 5d 84	 fstp	 DWORD PTR tv234[ebp]
  00145	f3 0f 10 45 84	 movss	 xmm0, DWORD PTR tv234[ebp]
  0014a	f3 0f 58 45 e0	 addss	 xmm0, DWORD PTR _y_min$[ebp]
  0014f	f3 0f 11 45 d8	 movss	 DWORD PTR _y_max$[ebp], xmm0

; 281  : 	
; 282  : 	set_viewport (x1, y1, x2, y2);

  00154	51		 push	 ecx
  00155	f3 0f 10 45 e8	 movss	 xmm0, DWORD PTR _y2$[ebp]
  0015a	f3 0f 11 04 24	 movss	 DWORD PTR [esp], xmm0
  0015f	51		 push	 ecx
  00160	f3 0f 10 45 f0	 movss	 xmm0, DWORD PTR _x2$[ebp]
  00165	f3 0f 11 04 24	 movss	 DWORD PTR [esp], xmm0
  0016a	51		 push	 ecx
  0016b	f3 0f 10 45 ec	 movss	 xmm0, DWORD PTR _y1$[ebp]
  00170	f3 0f 11 04 24	 movss	 DWORD PTR [esp], xmm0
  00175	51		 push	 ecx
  00176	f3 0f 10 45 f4	 movss	 xmm0, DWORD PTR _x1$[ebp]
  0017b	f3 0f 11 04 24	 movss	 DWORD PTR [esp], xmm0
  00180	e8 00 00 00 00	 call	 ?set_viewport@@YGXMMMM@Z ; set_viewport

; 283  : 
; 284  : 	flag = ui_clip_area (&x_min, &y_min, &x_max, &y_max);

  00185	8d 45 d8	 lea	 eax, DWORD PTR _y_max$[ebp]
  00188	50		 push	 eax
  00189	8d 4d dc	 lea	 ecx, DWORD PTR _x_max$[ebp]
  0018c	51		 push	 ecx
  0018d	8d 55 e0	 lea	 edx, DWORD PTR _y_min$[ebp]
  00190	52		 push	 edx
  00191	8d 45 e4	 lea	 eax, DWORD PTR _x_min$[ebp]
  00194	50		 push	 eax
  00195	e8 00 00 00 00	 call	 ?ui_clip_area@@YGHPAM000@Z ; ui_clip_area
  0019a	89 45 fc	 mov	 DWORD PTR _flag$[ebp], eax

; 285  : 
; 286  : 	set_viewport (old_vp_x1, old_vp_y1, old_vp_x2, old_vp_y2);

  0019d	51		 push	 ecx
  0019e	f3 0f 10 45 c8	 movss	 xmm0, DWORD PTR _old_vp_y2$[ebp]
  001a3	f3 0f 11 04 24	 movss	 DWORD PTR [esp], xmm0
  001a8	51		 push	 ecx
  001a9	f3 0f 10 45 cc	 movss	 xmm0, DWORD PTR _old_vp_x2$[ebp]
  001ae	f3 0f 11 04 24	 movss	 DWORD PTR [esp], xmm0
  001b3	51		 push	 ecx
  001b4	f3 0f 10 45 d0	 movss	 xmm0, DWORD PTR _old_vp_y1$[ebp]
  001b9	f3 0f 11 04 24	 movss	 DWORD PTR [esp], xmm0
  001be	51		 push	 ecx
  001bf	f3 0f 10 45 d4	 movss	 xmm0, DWORD PTR _old_vp_x1$[ebp]
  001c4	f3 0f 11 04 24	 movss	 DWORD PTR [esp], xmm0
  001c9	e8 00 00 00 00	 call	 ?set_viewport@@YGXMMMM@Z ; set_viewport

; 287  : 
; 288  : 	return flag;

  001ce	8b 45 fc	 mov	 eax, DWORD PTR _flag$[ebp]

; 289  : }

  001d1	5f		 pop	 edi
  001d2	5e		 pop	 esi
  001d3	5b		 pop	 ebx
  001d4	8b e5		 mov	 esp, ebp
  001d6	5d		 pop	 ebp
  001d7	c2 04 00	 ret	 4
?check_ui_object_clipped@@YGHPAUUI_OBJECT@@@Z ENDP	; check_ui_object_clipped
_TEXT	ENDS
; Function compile flags: /Odtp /ZI
; File c:\users\nhv90\projects\eech\modules\userint2\ui_draw\uiclip.c
;	COMDAT ?ui_get_clip_area@@YGXPAM000@Z
_TEXT	SEGMENT
_xmin$ = 8						; size = 4
_ymin$ = 12						; size = 4
_xmax$ = 16						; size = 4
_ymax$ = 20						; size = 4
?ui_get_clip_area@@YGXPAM000@Z PROC			; ui_get_clip_area, COMDAT

; 228  : {

  00000	55		 push	 ebp
  00001	8b ec		 mov	 ebp, esp
  00003	83 ec 40	 sub	 esp, 64			; 00000040H
  00006	53		 push	 ebx
  00007	56		 push	 esi
  00008	57		 push	 edi

; 229  : 
; 230  : 	*xmin = active_viewport.x_min - ui_x_origin;

  00009	f3 0f 10 05 00
	00 00 00	 movss	 xmm0, DWORD PTR ?active_viewport@@3UVIEWPORT@@A
  00011	f3 0f 5c 05 00
	00 00 00	 subss	 xmm0, DWORD PTR ?ui_x_origin@@3MA
  00019	8b 45 08	 mov	 eax, DWORD PTR _xmin$[ebp]
  0001c	f3 0f 11 00	 movss	 DWORD PTR [eax], xmm0

; 231  : 	*ymin = active_viewport.y_min - ui_y_origin;

  00020	f3 0f 10 05 04
	00 00 00	 movss	 xmm0, DWORD PTR ?active_viewport@@3UVIEWPORT@@A+4
  00028	f3 0f 5c 05 00
	00 00 00	 subss	 xmm0, DWORD PTR ?ui_y_origin@@3MA
  00030	8b 45 0c	 mov	 eax, DWORD PTR _ymin$[ebp]
  00033	f3 0f 11 00	 movss	 DWORD PTR [eax], xmm0

; 232  : 	*xmax = active_viewport.x_max - ui_x_origin;

  00037	f3 0f 10 05 08
	00 00 00	 movss	 xmm0, DWORD PTR ?active_viewport@@3UVIEWPORT@@A+8
  0003f	f3 0f 5c 05 00
	00 00 00	 subss	 xmm0, DWORD PTR ?ui_x_origin@@3MA
  00047	8b 45 10	 mov	 eax, DWORD PTR _xmax$[ebp]
  0004a	f3 0f 11 00	 movss	 DWORD PTR [eax], xmm0

; 233  : 	*ymax = active_viewport.y_max - ui_y_origin;

  0004e	f3 0f 10 05 0c
	00 00 00	 movss	 xmm0, DWORD PTR ?active_viewport@@3UVIEWPORT@@A+12
  00056	f3 0f 5c 05 00
	00 00 00	 subss	 xmm0, DWORD PTR ?ui_y_origin@@3MA
  0005e	8b 45 14	 mov	 eax, DWORD PTR _ymax$[ebp]
  00061	f3 0f 11 00	 movss	 DWORD PTR [eax], xmm0

; 234  : }

  00065	5f		 pop	 edi
  00066	5e		 pop	 esi
  00067	5b		 pop	 ebx
  00068	8b e5		 mov	 esp, ebp
  0006a	5d		 pop	 ebp
  0006b	c2 10 00	 ret	 16			; 00000010H
?ui_get_clip_area@@YGXPAM000@Z ENDP			; ui_get_clip_area
_TEXT	ENDS
; Function compile flags: /Odtp /ZI
; File c:\users\nhv90\projects\eech\modules\userint2\ui_draw\uiclip.c
;	COMDAT ?ui_clip_area@@YGHPAM000@Z
_TEXT	SEGMENT
_screen_max_y$ = -20					; size = 4
_screen_max_x$ = -16					; size = 4
_screen_min_y$ = -12					; size = 4
_screen_min_x$ = -8					; size = 4
_clipped_flag$ = -4					; size = 4
_x_min$ = 8						; size = 4
_y_min$ = 12						; size = 4
_x_max$ = 16						; size = 4
_y_max$ = 20						; size = 4
?ui_clip_area@@YGHPAM000@Z PROC				; ui_clip_area, COMDAT

; 76   : {

  00000	55		 push	 ebp
  00001	8b ec		 mov	 ebp, esp
  00003	83 ec 54	 sub	 esp, 84			; 00000054H
  00006	53		 push	 ebx
  00007	56		 push	 esi
  00008	57		 push	 edi

; 77   : 
; 78   : 	int
; 79   : 		clipped_flag = FALSE;

  00009	c7 45 fc 00 00
	00 00		 mov	 DWORD PTR _clipped_flag$[ebp], 0

; 80   : 
; 81   : 	float
; 82   : 		screen_min_x,
; 83   : 		screen_min_y,
; 84   : 		screen_max_x,
; 85   : 		screen_max_y;
; 86   : 
; 87   : 	screen_min_x = 0 - ui_x_origin;

  00010	0f 57 c0	 xorps	 xmm0, xmm0
  00013	f3 0f 5c 05 00
	00 00 00	 subss	 xmm0, DWORD PTR ?ui_x_origin@@3MA
  0001b	f3 0f 11 45 f8	 movss	 DWORD PTR _screen_min_x$[ebp], xmm0

; 88   : 	screen_min_y = 0 - ui_y_origin;

  00020	0f 57 c0	 xorps	 xmm0, xmm0
  00023	f3 0f 5c 05 00
	00 00 00	 subss	 xmm0, DWORD PTR ?ui_y_origin@@3MA
  0002b	f3 0f 11 45 f4	 movss	 DWORD PTR _screen_min_y$[ebp], xmm0

; 89   : 	screen_max_x = get_screen_width (active_screen) - ui_x_origin;

  00030	a1 00 00 00 00	 mov	 eax, DWORD PTR ?active_screen@@3PAUSCREEN@@A ; active_screen
  00035	50		 push	 eax
  00036	e8 00 00 00 00	 call	 ?get_screen_width@@YGHPAUSCREEN@@@Z ; get_screen_width
  0003b	f3 0f 2a c0	 cvtsi2ss xmm0, eax
  0003f	f3 0f 5c 05 00
	00 00 00	 subss	 xmm0, DWORD PTR ?ui_x_origin@@3MA
  00047	f3 0f 11 45 f0	 movss	 DWORD PTR _screen_max_x$[ebp], xmm0

; 90   : 	screen_max_y = get_screen_height (active_screen) - ui_y_origin;

  0004c	a1 00 00 00 00	 mov	 eax, DWORD PTR ?active_screen@@3PAUSCREEN@@A ; active_screen
  00051	50		 push	 eax
  00052	e8 00 00 00 00	 call	 ?get_screen_height@@YGHPAUSCREEN@@@Z ; get_screen_height
  00057	f3 0f 2a c0	 cvtsi2ss xmm0, eax
  0005b	f3 0f 5c 05 00
	00 00 00	 subss	 xmm0, DWORD PTR ?ui_y_origin@@3MA
  00063	f3 0f 11 45 ec	 movss	 DWORD PTR _screen_max_y$[ebp], xmm0

; 91   : 
; 92   : 	//
; 93   : 	// clip to left extent
; 94   : 	//
; 95   : 
; 96   : 	if (*x_min < active_viewport.x_min - ui_x_origin)

  00068	f3 0f 10 05 00
	00 00 00	 movss	 xmm0, DWORD PTR ?active_viewport@@3UVIEWPORT@@A
  00070	f3 0f 5c 05 00
	00 00 00	 subss	 xmm0, DWORD PTR ?ui_x_origin@@3MA
  00078	8b 45 08	 mov	 eax, DWORD PTR _x_min$[ebp]
  0007b	0f 2f 00	 comiss	 xmm0, DWORD PTR [eax]
  0007e	76 1e		 jbe	 SHORT $LN2@ui_clip_ar

; 97   : 	{
; 98   : 
; 99   : 		*x_min = active_viewport.x_min - ui_x_origin;

  00080	f3 0f 10 05 00
	00 00 00	 movss	 xmm0, DWORD PTR ?active_viewport@@3UVIEWPORT@@A
  00088	f3 0f 5c 05 00
	00 00 00	 subss	 xmm0, DWORD PTR ?ui_x_origin@@3MA
  00090	8b 45 08	 mov	 eax, DWORD PTR _x_min$[ebp]
  00093	f3 0f 11 00	 movss	 DWORD PTR [eax], xmm0

; 100  : 
; 101  : 		clipped_flag = TRUE;

  00097	c7 45 fc 01 00
	00 00		 mov	 DWORD PTR _clipped_flag$[ebp], 1
$LN2@ui_clip_ar:

; 102  : 	}
; 103  : 
; 104  : 	// clip to screen
; 105  : 
; 106  : 	if (*x_min < screen_min_x)

  0009e	8b 45 08	 mov	 eax, DWORD PTR _x_min$[ebp]
  000a1	f3 0f 10 45 f8	 movss	 xmm0, DWORD PTR _screen_min_x$[ebp]
  000a6	0f 2f 00	 comiss	 xmm0, DWORD PTR [eax]
  000a9	76 13		 jbe	 SHORT $LN3@ui_clip_ar

; 107  : 	{
; 108  : 
; 109  : 		*x_min = screen_min_x;

  000ab	8b 45 08	 mov	 eax, DWORD PTR _x_min$[ebp]
  000ae	f3 0f 10 45 f8	 movss	 xmm0, DWORD PTR _screen_min_x$[ebp]
  000b3	f3 0f 11 00	 movss	 DWORD PTR [eax], xmm0

; 110  : 
; 111  : 		clipped_flag = TRUE;

  000b7	c7 45 fc 01 00
	00 00		 mov	 DWORD PTR _clipped_flag$[ebp], 1
$LN3@ui_clip_ar:

; 112  : 	}
; 113  : 
; 114  : 	// guarentee valid area
; 115  : 
; 116  : 	if (*x_max < *x_min)

  000be	8b 45 08	 mov	 eax, DWORD PTR _x_min$[ebp]
  000c1	8b 4d 10	 mov	 ecx, DWORD PTR _x_max$[ebp]
  000c4	f3 0f 10 00	 movss	 xmm0, DWORD PTR [eax]
  000c8	0f 2f 01	 comiss	 xmm0, DWORD PTR [ecx]
  000cb	76 11		 jbe	 SHORT $LN4@ui_clip_ar

; 117  : 	{
; 118  : 
; 119  : 		*x_max = *x_min;

  000cd	8b 45 10	 mov	 eax, DWORD PTR _x_max$[ebp]
  000d0	8b 4d 08	 mov	 ecx, DWORD PTR _x_min$[ebp]
  000d3	8b 11		 mov	 edx, DWORD PTR [ecx]
  000d5	89 10		 mov	 DWORD PTR [eax], edx

; 120  : 
; 121  : 		clipped_flag = TRUE;

  000d7	c7 45 fc 01 00
	00 00		 mov	 DWORD PTR _clipped_flag$[ebp], 1
$LN4@ui_clip_ar:

; 122  : 	}
; 123  : 
; 124  : 	//
; 125  : 	// clip right
; 126  : 	//
; 127  : 
; 128  : 	if (*x_max > active_viewport.x_max - ui_x_origin)

  000de	f3 0f 10 05 08
	00 00 00	 movss	 xmm0, DWORD PTR ?active_viewport@@3UVIEWPORT@@A+8
  000e6	f3 0f 5c 05 00
	00 00 00	 subss	 xmm0, DWORD PTR ?ui_x_origin@@3MA
  000ee	8b 45 10	 mov	 eax, DWORD PTR _x_max$[ebp]
  000f1	f3 0f 10 08	 movss	 xmm1, DWORD PTR [eax]
  000f5	0f 2f c8	 comiss	 xmm1, xmm0
  000f8	76 1e		 jbe	 SHORT $LN5@ui_clip_ar

; 129  : 	{
; 130  : 
; 131  : 		*x_max = active_viewport.x_max - ui_x_origin;

  000fa	f3 0f 10 05 08
	00 00 00	 movss	 xmm0, DWORD PTR ?active_viewport@@3UVIEWPORT@@A+8
  00102	f3 0f 5c 05 00
	00 00 00	 subss	 xmm0, DWORD PTR ?ui_x_origin@@3MA
  0010a	8b 45 10	 mov	 eax, DWORD PTR _x_max$[ebp]
  0010d	f3 0f 11 00	 movss	 DWORD PTR [eax], xmm0

; 132  : 
; 133  : 		clipped_flag = TRUE;

  00111	c7 45 fc 01 00
	00 00		 mov	 DWORD PTR _clipped_flag$[ebp], 1
$LN5@ui_clip_ar:

; 134  : 	}
; 135  : 
; 136  : 	// clip to screen
; 137  : 
; 138  : 	if (*x_max > screen_max_x)

  00118	8b 45 10	 mov	 eax, DWORD PTR _x_max$[ebp]
  0011b	f3 0f 10 00	 movss	 xmm0, DWORD PTR [eax]
  0011f	0f 2f 45 f0	 comiss	 xmm0, DWORD PTR _screen_max_x$[ebp]
  00123	76 13		 jbe	 SHORT $LN6@ui_clip_ar

; 139  : 	{
; 140  : 
; 141  : 		*x_max = screen_max_x;

  00125	8b 45 10	 mov	 eax, DWORD PTR _x_max$[ebp]
  00128	f3 0f 10 45 f0	 movss	 xmm0, DWORD PTR _screen_max_x$[ebp]
  0012d	f3 0f 11 00	 movss	 DWORD PTR [eax], xmm0

; 142  : 
; 143  : 		clipped_flag = TRUE;

  00131	c7 45 fc 01 00
	00 00		 mov	 DWORD PTR _clipped_flag$[ebp], 1
$LN6@ui_clip_ar:

; 144  : 	}
; 145  : 
; 146  : 	// guarentee valid area
; 147  : 
; 148  : 	if (*x_min > *x_max)

  00138	8b 45 08	 mov	 eax, DWORD PTR _x_min$[ebp]
  0013b	8b 4d 10	 mov	 ecx, DWORD PTR _x_max$[ebp]
  0013e	f3 0f 10 00	 movss	 xmm0, DWORD PTR [eax]
  00142	0f 2f 01	 comiss	 xmm0, DWORD PTR [ecx]
  00145	76 11		 jbe	 SHORT $LN7@ui_clip_ar

; 149  : 	{
; 150  : 
; 151  : 		*x_min = *x_max;

  00147	8b 45 08	 mov	 eax, DWORD PTR _x_min$[ebp]
  0014a	8b 4d 10	 mov	 ecx, DWORD PTR _x_max$[ebp]
  0014d	8b 11		 mov	 edx, DWORD PTR [ecx]
  0014f	89 10		 mov	 DWORD PTR [eax], edx

; 152  : 
; 153  : 		clipped_flag = TRUE;

  00151	c7 45 fc 01 00
	00 00		 mov	 DWORD PTR _clipped_flag$[ebp], 1
$LN7@ui_clip_ar:

; 154  : 	}
; 155  : 
; 156  : 	//
; 157  : 	// clip top
; 158  : 	//
; 159  : 
; 160  : 	if (*y_min < active_viewport.y_min - ui_y_origin)

  00158	f3 0f 10 05 04
	00 00 00	 movss	 xmm0, DWORD PTR ?active_viewport@@3UVIEWPORT@@A+4
  00160	f3 0f 5c 05 00
	00 00 00	 subss	 xmm0, DWORD PTR ?ui_y_origin@@3MA
  00168	8b 45 0c	 mov	 eax, DWORD PTR _y_min$[ebp]
  0016b	0f 2f 00	 comiss	 xmm0, DWORD PTR [eax]
  0016e	76 1e		 jbe	 SHORT $LN8@ui_clip_ar

; 161  : 	{
; 162  : 
; 163  : 		*y_min = active_viewport.y_min - ui_y_origin;

  00170	f3 0f 10 05 04
	00 00 00	 movss	 xmm0, DWORD PTR ?active_viewport@@3UVIEWPORT@@A+4
  00178	f3 0f 5c 05 00
	00 00 00	 subss	 xmm0, DWORD PTR ?ui_y_origin@@3MA
  00180	8b 45 0c	 mov	 eax, DWORD PTR _y_min$[ebp]
  00183	f3 0f 11 00	 movss	 DWORD PTR [eax], xmm0

; 164  : 
; 165  : 		clipped_flag = TRUE;

  00187	c7 45 fc 01 00
	00 00		 mov	 DWORD PTR _clipped_flag$[ebp], 1
$LN8@ui_clip_ar:

; 166  : 	}
; 167  : 
; 168  : 	// clip to screen
; 169  : 
; 170  : 	if (*y_min < screen_min_y)

  0018e	8b 45 0c	 mov	 eax, DWORD PTR _y_min$[ebp]
  00191	f3 0f 10 45 f4	 movss	 xmm0, DWORD PTR _screen_min_y$[ebp]
  00196	0f 2f 00	 comiss	 xmm0, DWORD PTR [eax]
  00199	76 13		 jbe	 SHORT $LN9@ui_clip_ar

; 171  : 	{
; 172  : 
; 173  : 		*y_min = screen_min_y;

  0019b	8b 45 0c	 mov	 eax, DWORD PTR _y_min$[ebp]
  0019e	f3 0f 10 45 f4	 movss	 xmm0, DWORD PTR _screen_min_y$[ebp]
  001a3	f3 0f 11 00	 movss	 DWORD PTR [eax], xmm0

; 174  : 
; 175  : 		clipped_flag = TRUE;

  001a7	c7 45 fc 01 00
	00 00		 mov	 DWORD PTR _clipped_flag$[ebp], 1
$LN9@ui_clip_ar:

; 176  : 	}
; 177  : 
; 178  : 	// guarentee valid area
; 179  : 
; 180  : 	if (*y_max < *y_min)

  001ae	8b 45 0c	 mov	 eax, DWORD PTR _y_min$[ebp]
  001b1	8b 4d 14	 mov	 ecx, DWORD PTR _y_max$[ebp]
  001b4	f3 0f 10 00	 movss	 xmm0, DWORD PTR [eax]
  001b8	0f 2f 01	 comiss	 xmm0, DWORD PTR [ecx]
  001bb	76 11		 jbe	 SHORT $LN10@ui_clip_ar

; 181  : 	{
; 182  : 
; 183  : 		*y_max = *y_min;

  001bd	8b 45 14	 mov	 eax, DWORD PTR _y_max$[ebp]
  001c0	8b 4d 0c	 mov	 ecx, DWORD PTR _y_min$[ebp]
  001c3	8b 11		 mov	 edx, DWORD PTR [ecx]
  001c5	89 10		 mov	 DWORD PTR [eax], edx

; 184  : 
; 185  : 		clipped_flag = TRUE;

  001c7	c7 45 fc 01 00
	00 00		 mov	 DWORD PTR _clipped_flag$[ebp], 1
$LN10@ui_clip_ar:

; 186  : 	}
; 187  : 
; 188  : 	//
; 189  : 	// clip bottom
; 190  : 	//
; 191  : 
; 192  : 	if (*y_max > active_viewport.y_max - ui_y_origin)

  001ce	f3 0f 10 05 0c
	00 00 00	 movss	 xmm0, DWORD PTR ?active_viewport@@3UVIEWPORT@@A+12
  001d6	f3 0f 5c 05 00
	00 00 00	 subss	 xmm0, DWORD PTR ?ui_y_origin@@3MA
  001de	8b 45 14	 mov	 eax, DWORD PTR _y_max$[ebp]
  001e1	f3 0f 10 08	 movss	 xmm1, DWORD PTR [eax]
  001e5	0f 2f c8	 comiss	 xmm1, xmm0
  001e8	76 1e		 jbe	 SHORT $LN11@ui_clip_ar

; 193  : 	{
; 194  : 
; 195  : 		*y_max = active_viewport.y_max - ui_y_origin;

  001ea	f3 0f 10 05 0c
	00 00 00	 movss	 xmm0, DWORD PTR ?active_viewport@@3UVIEWPORT@@A+12
  001f2	f3 0f 5c 05 00
	00 00 00	 subss	 xmm0, DWORD PTR ?ui_y_origin@@3MA
  001fa	8b 45 14	 mov	 eax, DWORD PTR _y_max$[ebp]
  001fd	f3 0f 11 00	 movss	 DWORD PTR [eax], xmm0

; 196  : 
; 197  : 		clipped_flag = TRUE;

  00201	c7 45 fc 01 00
	00 00		 mov	 DWORD PTR _clipped_flag$[ebp], 1
$LN11@ui_clip_ar:

; 198  : 	}
; 199  : 
; 200  : 	// clip to screen
; 201  : 
; 202  : 	if (*y_max > screen_max_y)

  00208	8b 45 14	 mov	 eax, DWORD PTR _y_max$[ebp]
  0020b	f3 0f 10 00	 movss	 xmm0, DWORD PTR [eax]
  0020f	0f 2f 45 ec	 comiss	 xmm0, DWORD PTR _screen_max_y$[ebp]
  00213	76 13		 jbe	 SHORT $LN12@ui_clip_ar

; 203  : 	{
; 204  : 
; 205  : 		*y_max = screen_max_y;

  00215	8b 45 14	 mov	 eax, DWORD PTR _y_max$[ebp]
  00218	f3 0f 10 45 ec	 movss	 xmm0, DWORD PTR _screen_max_y$[ebp]
  0021d	f3 0f 11 00	 movss	 DWORD PTR [eax], xmm0

; 206  : 
; 207  : 		clipped_flag = TRUE;

  00221	c7 45 fc 01 00
	00 00		 mov	 DWORD PTR _clipped_flag$[ebp], 1
$LN12@ui_clip_ar:

; 208  : 	}
; 209  : 
; 210  : 	// guarentee valid area
; 211  : 
; 212  : 	if (*y_min > *y_max)

  00228	8b 45 0c	 mov	 eax, DWORD PTR _y_min$[ebp]
  0022b	8b 4d 14	 mov	 ecx, DWORD PTR _y_max$[ebp]
  0022e	f3 0f 10 00	 movss	 xmm0, DWORD PTR [eax]
  00232	0f 2f 01	 comiss	 xmm0, DWORD PTR [ecx]
  00235	76 11		 jbe	 SHORT $LN13@ui_clip_ar

; 213  : 	{
; 214  : 
; 215  : 		*y_min = *y_max;

  00237	8b 45 0c	 mov	 eax, DWORD PTR _y_min$[ebp]
  0023a	8b 4d 14	 mov	 ecx, DWORD PTR _y_max$[ebp]
  0023d	8b 11		 mov	 edx, DWORD PTR [ecx]
  0023f	89 10		 mov	 DWORD PTR [eax], edx

; 216  : 
; 217  : 		clipped_flag = TRUE;

  00241	c7 45 fc 01 00
	00 00		 mov	 DWORD PTR _clipped_flag$[ebp], 1
$LN13@ui_clip_ar:

; 218  : 	}
; 219  : 
; 220  : 	return clipped_flag;

  00248	8b 45 fc	 mov	 eax, DWORD PTR _clipped_flag$[ebp]

; 221  : }

  0024b	5f		 pop	 edi
  0024c	5e		 pop	 esi
  0024d	5b		 pop	 ebx
  0024e	8b e5		 mov	 esp, ebp
  00250	5d		 pop	 ebp
  00251	c2 10 00	 ret	 16			; 00000010H
?ui_clip_area@@YGHPAM000@Z ENDP				; ui_clip_area
_TEXT	ENDS
END
