; Listing generated by Microsoft (R) Optimizing Compiler Version 19.16.27045.0 

	TITLE	C:\Users\nhv90\Projects\eech\aphavoc\source\ui_menu\session\uisession.c
	.686P
	.XMM
	include listing.inc
	.model	flat

INCLUDELIB MSVCRTD
INCLUDELIB OLDNAMES

PUBLIC	?session_filter@@3PAW4SESSION_LIST_TYPES@@A	; session_filter
PUBLIC	?current_game_session@@3PAUSESSION_LIST_DATA_TYPE@@A ; current_game_session
PUBLIC	?session_child_head@@3PAUSESSION_LIST_DATA_TYPE@@A ; session_child_head
PUBLIC	?session_list_head@@3PAUSESSION_LIST_DATA_TYPE@@A ; session_list_head
PUBLIC	?session_info@@3PAUSESSION_INFO_TYPE@@A		; session_info
PUBLIC	?players_group@@3PAUENTITY@@A			; players_group
PUBLIC	?session_filter_value@@3PADA			; session_filter_value
_BSS	SEGMENT
?session_filter@@3PAW4SESSION_LIST_TYPES@@A DD 05H DUP (?) ; session_filter
?current_game_session@@3PAUSESSION_LIST_DATA_TYPE@@A DD 01H DUP (?) ; current_game_session
?session_child_head@@3PAUSESSION_LIST_DATA_TYPE@@A DD 01H DUP (?) ; session_child_head
?session_list_head@@3PAUSESSION_LIST_DATA_TYPE@@A DD 01H DUP (?) ; session_list_head
?session_info@@3PAUSESSION_INFO_TYPE@@A DB 0440H DUP (?) ; session_info
?players_group@@3PAUENTITY@@A DD 01H DUP (?)		; players_group
_BSS	ENDS
_DATA	SEGMENT
?session_filter_value@@3PADA DB 'root', 00H		; session_filter_value
	ORG $+251
_DATA	ENDS
PUBLIC	___local_stdio_printf_options
PUBLIC	__vsnprintf_l
PUBLIC	__vsprintf_l
PUBLIC	_sprintf
PUBLIC	?strrchr@@YAPADQADH@Z				; strrchr
PUBLIC	?strstr@@YAPADQADQBD@Z				; strstr
PUBLIC	?initialise_session_list@@YGXXZ			; initialise_session_list
PUBLIC	?deinitialise_session_list@@YGXXZ		; deinitialise_session_list
PUBLIC	?destroy_session_list@@YGXPAPAUSESSION_LIST_DATA_TYPE@@@Z ; destroy_session_list
PUBLIC	?compile_single_session_list@@YGXPAPAUSESSION_LIST_DATA_TYPE@@@Z ; compile_single_session_list
PUBLIC	?compile_multi_session_list@@YGXPAPAUSESSION_LIST_DATA_TYPE@@@Z ; compile_multi_session_list
PUBLIC	?compile_restore_session_list@@YGXPAPAUSESSION_LIST_DATA_TYPE@@@Z ; compile_restore_session_list
PUBLIC	?get_session_list@@YGPAUSESSION_LIST_DATA_TYPE@@XZ ; get_session_list
PUBLIC	?store_session@@YGHPAUSESSION_LIST_DATA_TYPE@@PBD@Z ; store_session
PUBLIC	?set_current_game_session@@YGXPAUSESSION_LIST_DATA_TYPE@@@Z ; set_current_game_session
PUBLIC	?start_campaign@@YGXXZ				; start_campaign
PUBLIC	??$fmod@MHX@@YGNMH@Z				; fmod<float,int,void>
PUBLIC	?_OptionsStorage@?1??__local_stdio_printf_options@@9@4_KA ; `__local_stdio_printf_options'::`2'::_OptionsStorage
PUBLIC	??_C@_02DKCKIIND@?$CFs@				; `string'
PUBLIC	??_C@_04NBFCGMPH@root@				; `string'
PUBLIC	??_C@_01KICIPPFI@?2@				; `string'
PUBLIC	??_C@_06LNFIIFPG@?2maps?2@			; `string'
PUBLIC	??_C@_0P@NGFFGAMI@?4?4?2common?2maps@		; `string'
PUBLIC	??_C@_0O@OLLFJHMI@?9Multiplayer?9@		; `string'
PUBLIC	??_C@_0O@NJDILOOA@?$CFs?5?$CI?$CFi?1?$CFi?$CJ?5?$CFs@ ; `string'
PUBLIC	?__LINE__Var@?0??store_session@@YGHPAUSESSION_LIST_DATA_TYPE@@PBD@Z@4JA ; `store_session'::`1'::__LINE__Var
PUBLIC	??_C@_08EFGGCJLD@?$CFs?2?$CFs?2?$CFs@		; `string'
PUBLIC	??_C@_04ONGOJJC@?4sav@				; `string'
PUBLIC	??_C@_09FJCKINDD@?$CFs?2?$CFs?2?$CFs?4@		; `string'
PUBLIC	??_C@_01NOFIACDB@w@				; `string'
PUBLIC	??_C@_0CA@NDGENNBK@SESSION?3?5failed?5to?5open?5file?5?$CFs@ ; `string'
PUBLIC	??_C@_0EI@MFEMPFPC@c?3?2users?2nhv90?2projects?2eech?2ap@ ; `string'
PUBLIC	??_C@_08HCIJDDOJ@file_ptr@			; `string'
PUBLIC	??_C@_0IC@NPHAIGMI@?1?1?1?1?1?1?1?1?1?1?1?1?1?1?1?1?1?1?1?1?1?1?1?1?1?1?1?1?1?1?1@ ; `string'
PUBLIC	??_C@_04IJMHDAOD@days@				; `string'
PUBLIC	??_C@_0N@OACKFMDA@Elapsed?5Time@		; `string'
PUBLIC	??_C@_0BJ@GPGFIJMO@?$CFs?5?$CFd?5?$CFs?0?5?$CF02d?4?$CF02d?4?$CF02d@ ; `string'
PUBLIC	??_C@_05BINPNAAL@force@				; `string'
PUBLIC	??_C@_02GMLFBBN@wb@				; `string'
PUBLIC	??_C@_0DD@PNPICBHO@SESSION?3?5mallocing?5store?5pack?5b@ ; `string'
PUBLIC	?__LINE__Var@?0??recursive_check_campaign_files@@YGXPBDPAPAUSESSION_LIST_DATA_TYPE@@0@Z@4JA ; `recursive_check_campaign_files'::`1'::__LINE__Var
PUBLIC	??_C@_07HMIPAPAI@?$CFs?2?$CK?4?$CFs@		; `string'
PUBLIC	??_C@_06FKCMOHNE@CAMP01@			; `string'
PUBLIC	??_C@_06PDMOFLEE@camp01@			; `string'
PUBLIC	??_C@_08OOHLHECJ@?$CFs?2?$CK?4chc@		; `string'
PUBLIC	??_C@_08EMMAHODI@?2common?2@			; `string'
PUBLIC	??_C@_05BMGBEOOC@?$CFs?2?$CFs@			; `string'
PUBLIC	??_C@_01KDCPPGHE@r@				; `string'
PUBLIC	??_C@_0BK@HMBNLIAL@get_current_player_log?5?$CI?$CJ@ ; `string'
PUBLIC	??_C@_0CC@KNCKNBBG@session?5filter?3?5campaign_title?5@ ; `string'
PUBLIC	??_C@_0DL@JMGNGKCN@SESSION?3?5Campaign?5?$CFs?5required?5A@ ; `string'
PUBLIC	??_C@_04EDLLLMBI@?$CFs?2?$CK@			; `string'
PUBLIC	??_C@_01LFCBOECM@?4@				; `string'
PUBLIC	??_C@_02DJGKEECL@?4?4@				; `string'
PUBLIC	?__LINE__Var@?0??start_campaign@@YGXXZ@4JA	; `start_campaign'::`1'::__LINE__Var
PUBLIC	??_C@_0BF@BGCJAHKO@current_game_session@	; `string'
PUBLIC	??_C@_0BL@NFMPLBKD@GUNS_SC?3?5unknown?5game?5type@ ; `string'
PUBLIC	__real@47a8c000
EXTRN	__imp__fclose:PROC
EXTRN	__imp__fopen:PROC
EXTRN	__imp__fwrite:PROC
EXTRN	__imp____stdio_common_vsprintf:PROC
EXTRN	_memset:PROC
EXTRN	_strrchr:PROC
EXTRN	_strstr:PROC
EXTRN	_strcat:PROC
EXTRN	_strcmp:PROC
EXTRN	_strcpy:PROC
EXTRN	_strlen:PROC
EXTRN	__imp__strncpy:PROC
EXTRN	__imp__isspace:PROC
EXTRN	__imp__toupper:PROC
EXTRN	__imp__tolower:PROC
EXTRN	_fmod:PROC
EXTRN	?process_assert@@YGXPBD0H@Z:PROC		; process_assert
EXTRN	?get_first_directory_file@@YGPAUDIRECTORY_FILE_LIST@@PBD@Z:PROC ; get_first_directory_file
EXTRN	?get_next_directory_file@@YGHPAUDIRECTORY_FILE_LIST@@@Z:PROC ; get_next_directory_file
EXTRN	?get_directory_file_filename@@YGPBDPAUDIRECTORY_FILE_LIST@@@Z:PROC ; get_directory_file_filename
EXTRN	?destroy_directory_file_list@@YGXPAUDIRECTORY_FILE_LIST@@@Z:PROC ; destroy_directory_file_list
EXTRN	?get_directory_file_type@@YG?AW4DIRECTORY_FILE_TYPES@@PAUDIRECTORY_FILE_LIST@@@Z:PROC ; get_directory_file_type
EXTRN	?convert_float_to_int@@YGXMPAH@Z:PROC		; convert_float_to_int
EXTRN	?debug_fatal@@YAXPBDZZ:PROC			; debug_fatal
EXTRN	?debug_log@@YAXPBDZZ:PROC			; debug_log
EXTRN	?safe_fopen@@YGPAU_iobuf@@PBD0@Z:PROC		; safe_fopen
EXTRN	?malloc_heap_memory@@YGPAXI@Z:PROC		; malloc_heap_memory
EXTRN	?free_mem@@YGXPAX@Z:PROC			; free_mem
EXTRN	?set_file_tag@@YGXPAU_iobuf@@QAPBDH@Z:PROC	; set_file_tag
EXTRN	?set_file_int@@YGXPAU_iobuf@@H@Z:PROC		; set_file_int
EXTRN	?set_file_string@@YGXPAU_iobuf@@PBD@Z:PROC	; set_file_string
EXTRN	?set_file_enum@@YGXPAU_iobuf@@QAPBDH@Z:PROC	; set_file_enum
EXTRN	?set_file_new_line@@YGXPAU_iobuf@@H@Z:PROC	; set_file_new_line
EXTRN	?set_file_comment@@YGXPAU_iobuf@@PBD@Z:PROC	; set_file_comment
EXTRN	?get_next_file_tag@@YGHPAU_iobuf@@QAPBDH@Z:PROC	; get_next_file_tag
EXTRN	?get_next_file_int@@YGHPAU_iobuf@@@Z:PROC	; get_next_file_int
EXTRN	?get_next_file_string@@YGHPAU_iobuf@@PADH@Z:PROC ; get_next_file_string
EXTRN	?get_next_file_word@@YGHPAU_iobuf@@PADH@Z:PROC	; get_next_file_word
EXTRN	?if_file_tag_variable@@YGHPBD0H@Z:PROC		; if_file_tag_variable
EXTRN	?direct_play_enumerate_sessions@@YGHXZ:PROC	; direct_play_enumerate_sessions
EXTRN	?direct_play_get_session_table@@YGPAUSESSION_TABLE_TYPE@@XZ:PROC ; direct_play_get_session_table
EXTRN	?direct_play_get_connection_data@@YGPAUCONNECTION_DATA_TYPE@@XZ:PROC ; direct_play_get_connection_data
EXTRN	?direct_play_refresh_modem_session@@YGHXZ:PROC	; direct_play_refresh_modem_session
EXTRN	?ui_set_user_function@@YGXP6GXXZ@Z:PROC		; ui_set_user_function
EXTRN	?net_getServerList@@YGXXZ:PROC			; net_getServerList
EXTRN	?pack_session@@YGHPAEPAHW4PACK_MODES@@@Z:PROC	; pack_session
EXTRN	?get_digital_clock_int_values@@YGXMPAH00@Z:PROC	; get_digital_clock_int_values
EXTRN	?get_trans@@YGPBDPBD@Z:PROC			; get_trans
EXTRN	?get_current_player_log@@YGPAUPLAYER_LOG_TYPE@@XZ:PROC ; get_current_player_log
EXTRN	?validate_modem_connection@@YGXXZ:PROC		; validate_modem_connection
EXTRN	?leave_mission@@YGXXZ:PROC			; leave_mission
EXTRN	?notify_session_parameters@@YGXXZ:PROC		; notify_session_parameters
EXTRN	?notify_clear_all_session_parameters@@YGXXZ:PROC ; notify_clear_all_session_parameters
EXTRN	?process_host_session_setup_options@@YGXXZ:PROC	; process_host_session_setup_options
EXTRN	?process_restore_session_setup_options@@YGXXZ:PROC ; process_restore_session_setup_options
EXTRN	?create_campaign@@YGXPAUSESSION_LIST_DATA_TYPE@@@Z:PROC ; create_campaign
EXTRN	?sys_colour_names@@3PAPBDA:BYTE			; sys_colour_names
EXTRN	?current_map_info@@3UCUSTOM_MAP_INFO@@A:BYTE	; current_map_info
EXTRN	?fn_set_ui_object_drawable@@3PAP6GXPAUUI_OBJECT@@H@ZA:BYTE ; fn_set_ui_object_drawable
EXTRN	?command_line_session_filter@@3HA:DWORD		; command_line_session_filter
EXTRN	?global_aphavoc_maps@@3HA:DWORD			; global_aphavoc_maps
EXTRN	?null_entity_pointer_message@@3PBDB:DWORD	; null_entity_pointer_message
EXTRN	?entity_side_names@@3PAPBDA:BYTE		; entity_side_names
EXTRN	?global_options@@3UGLOBAL_OPTIONS_DATA@@A:BYTE	; global_options
EXTRN	?system_comms_model@@3W4COMMS_MODEL_TYPES@@A:DWORD ; system_comms_model
EXTRN	?Servers@@3PAUServerData@@A:BYTE		; Servers
EXTRN	?numServers@@3HA:DWORD				; numServers
EXTRN	?world_map@@3UWORLD_MAP_DATA@@A:BYTE		; world_map
EXTRN	?overload_invalid_list_type_message@@3PBDB:DWORD ; overload_invalid_list_type_message
EXTRN	?fn_get_local_entity_first_child@@3PAY0CN@P6GPAUENTITY@@PAU1@W4LIST_TYPES@@@ZA:BYTE ; fn_get_local_entity_first_child
EXTRN	?fn_get_local_entity_child_succ@@3PAY0CN@P6GPAUENTITY@@PAU1@W4LIST_TYPES@@@ZA:BYTE ; fn_get_local_entity_child_succ
EXTRN	?fn_get_local_entity_child_pred@@3PAY0CN@P6GPAUENTITY@@PAU1@W4LIST_TYPES@@@ZA:BYTE ; fn_get_local_entity_child_pred
EXTRN	?overload_invalid_float_type_message@@3PBDB:DWORD ; overload_invalid_float_type_message
EXTRN	?fn_get_local_entity_float_value@@3PAY0KP@P6GMPAUENTITY@@W4FLOAT_TYPES@@@ZA:BYTE ; fn_get_local_entity_float_value
EXTRN	?overload_invalid_int_type_message@@3PBDB:DWORD	; overload_invalid_int_type_message
EXTRN	?fn_get_local_entity_int_value@@3PAY0BBH@P6GHPAUENTITY@@W4INT_TYPES@@@ZA:BYTE ; fn_get_local_entity_int_value
EXTRN	?session_entity@@3PAUENTITY@@A:DWORD		; session_entity
EXTRN	?application_tag_strings@@3PAPBDA:BYTE		; application_tag_strings
EXTRN	?game_type@@3W4GAME_TYPES@@A:DWORD		; game_type
EXTRN	?game_type_extensions@@3PAPBDA:BYTE		; game_type_extensions
EXTRN	?session_screen_next_bdrop@@3PAUUI_OBJECT@@A:DWORD ; session_screen_next_bdrop
EXTRN	?session_screen_next_button@@3PAUUI_OBJECT@@A:DWORD ; session_screen_next_button
EXTRN	?session_screen_continue_button@@3PAUUI_OBJECT@@A:DWORD ; session_screen_continue_button
EXTRN	?session_screen_continue_bdrop@@3PAUUI_OBJECT@@A:DWORD ; session_screen_continue_bdrop
EXTRN	?session_briefing_overlay@@3PAUUI_OBJECT@@A:DWORD ; session_briefing_overlay
EXTRN	?comanche_hokum_installation_path@@3PADA:BYTE	; comanche_hokum_installation_path
EXTRN	?campaign_population_filename@@3PADA:DWORD	; campaign_population_filename
EXTRN	?population_placement_filename@@3PADA:DWORD	; population_placement_filename
EXTRN	?side_data_filename@@3PADA:DWORD		; side_data_filename
EXTRN	__fltused:DWORD
;	COMDAT ?_OptionsStorage@?1??__local_stdio_printf_options@@9@4_KA
_BSS	SEGMENT
?_OptionsStorage@?1??__local_stdio_printf_options@@9@4_KA DQ 01H DUP (?) ; `__local_stdio_printf_options'::`2'::_OptionsStorage
_BSS	ENDS
_BSS	SEGMENT
?list_id@@3HA DD 01H DUP (?)				; list_id
?operator_@?1??recursive_check_campaign_files@@YGXPBDPAPAUSESSION_LIST_DATA_TYPE@@0@Z@4PADA DB 040H DUP (?) ; `recursive_check_campaign_files'::`2'::operator_
?variable@?1??recursive_check_campaign_files@@YGXPBDPAPAUSESSION_LIST_DATA_TYPE@@0@Z@4PADA DB 040H DUP (?) ; `recursive_check_campaign_files'::`2'::variable
?temp_warzone_name@?1??recursive_check_campaign_files@@YGXPBDPAPAUSESSION_LIST_DATA_TYPE@@0@Z@4PADA DB 080H DUP (?) ; `recursive_check_campaign_files'::`2'::temp_warzone_name
?warzone_name@?1??recursive_check_campaign_files@@YGXPBDPAPAUSESSION_LIST_DATA_TYPE@@0@Z@4PADA DD 01H DUP (?) ; `recursive_check_campaign_files'::`2'::warzone_name
?warzone_path@?1??recursive_check_campaign_files@@YGXPBDPAPAUSESSION_LIST_DATA_TYPE@@0@Z@4PADA DB 0400H DUP (?) ; `recursive_check_campaign_files'::`2'::warzone_path
?directory_search_path@?1??recursive_check_campaign_files@@YGXPBDPAPAUSESSION_LIST_DATA_TYPE@@0@Z@4PADA DB 0400H DUP (?) ; `recursive_check_campaign_files'::`2'::directory_search_path
?ptr@?BN@??recursive_check_campaign_files@@YGXPBDPAPAUSESSION_LIST_DATA_TYPE@@0@Z@4PADA DD 01H DUP (?) ; `recursive_check_campaign_files'::`29'::ptr
?last_ptr@?BN@??recursive_check_campaign_files@@YGXPBDPAPAUSESSION_LIST_DATA_TYPE@@0@Z@4PADA DD 01H DUP (?) ; `recursive_check_campaign_files'::`29'::last_ptr
?path@?BN@??recursive_check_campaign_files@@YGXPBDPAPAUSESSION_LIST_DATA_TYPE@@0@Z@4PADA DB 0400H DUP (?) ; `recursive_check_campaign_files'::`29'::path
?full_filename@?BN@??recursive_check_campaign_files@@YGXPBDPAPAUSESSION_LIST_DATA_TYPE@@0@Z@4PADA DB 0400H DUP (?) ; `recursive_check_campaign_files'::`29'::full_filename
?campaign_title@?BN@??recursive_check_campaign_files@@YGXPBDPAPAUSESSION_LIST_DATA_TYPE@@0@Z@4PADA DB 0400H DUP (?) ; `recursive_check_campaign_files'::`29'::campaign_title
?campaign_directory@?BN@??recursive_check_campaign_files@@YGXPBDPAPAUSESSION_LIST_DATA_TYPE@@0@Z@4PADA DB 020H DUP (?) ; `recursive_check_campaign_files'::`29'::campaign_directory
?campaign_filename@?BN@??recursive_check_campaign_files@@YGXPBDPAPAUSESSION_LIST_DATA_TYPE@@0@Z@4PADA DB 0400H DUP (?) ; `recursive_check_campaign_files'::`29'::campaign_filename
_BSS	ENDS
;	COMDAT __real@47a8c000
CONST	SEGMENT
__real@47a8c000 DD 047a8c000r			; 86400
CONST	ENDS
;	COMDAT ??_C@_0BL@NFMPLBKD@GUNS_SC?3?5unknown?5game?5type@
CONST	SEGMENT
??_C@_0BL@NFMPLBKD@GUNS_SC?3?5unknown?5game?5type@ DB 'GUNS_SC: unknown g'
	DB	'ame type', 00H				; `string'
CONST	ENDS
;	COMDAT ??_C@_0BF@BGCJAHKO@current_game_session@
CONST	SEGMENT
??_C@_0BF@BGCJAHKO@current_game_session@ DB 'current_game_session', 00H ; `string'
CONST	ENDS
;	COMDAT ?__LINE__Var@?0??start_campaign@@YGXXZ@4JA
_DATA	SEGMENT
?__LINE__Var@?0??start_campaign@@YGXXZ@4JA DD 0624H	; `start_campaign'::`1'::__LINE__Var
_DATA	ENDS
;	COMDAT ??_C@_02DJGKEECL@?4?4@
CONST	SEGMENT
??_C@_02DJGKEECL@?4?4@ DB '..', 00H			; `string'
CONST	ENDS
;	COMDAT ??_C@_01LFCBOECM@?4@
CONST	SEGMENT
??_C@_01LFCBOECM@?4@ DB '.', 00H			; `string'
CONST	ENDS
;	COMDAT ??_C@_04EDLLLMBI@?$CFs?2?$CK@
CONST	SEGMENT
??_C@_04EDLLLMBI@?$CFs?2?$CK@ DB '%s\*', 00H		; `string'
CONST	ENDS
;	COMDAT ??_C@_0DL@JMGNGKCN@SESSION?3?5Campaign?5?$CFs?5required?5A@
CONST	SEGMENT
??_C@_0DL@JMGNGKCN@SESSION?3?5Campaign?5?$CFs?5required?5A@ DB 'SESSION: '
	DB	'Campaign %s required Apache-Havoc to be installed', 00H ; `string'
CONST	ENDS
;	COMDAT ??_C@_0CC@KNCKNBBG@session?5filter?3?5campaign_title?5@
CONST	SEGMENT
??_C@_0CC@KNCKNBBG@session?5filter?3?5campaign_title?5@ DB 'session filte'
	DB	'r: campaign_title %s', 00H			; `string'
CONST	ENDS
;	COMDAT ??_C@_0BK@HMBNLIAL@get_current_player_log?5?$CI?$CJ@
CONST	SEGMENT
??_C@_0BK@HMBNLIAL@get_current_player_log?5?$CI?$CJ@ DB 'get_current_play'
	DB	'er_log ()', 00H				; `string'
CONST	ENDS
;	COMDAT ??_C@_01KDCPPGHE@r@
CONST	SEGMENT
??_C@_01KDCPPGHE@r@ DB 'r', 00H				; `string'
CONST	ENDS
;	COMDAT ??_C@_05BMGBEOOC@?$CFs?2?$CFs@
CONST	SEGMENT
??_C@_05BMGBEOOC@?$CFs?2?$CFs@ DB '%s\%s', 00H		; `string'
CONST	ENDS
;	COMDAT ??_C@_08EMMAHODI@?2common?2@
CONST	SEGMENT
??_C@_08EMMAHODI@?2common?2@ DB '\common\', 00H		; `string'
CONST	ENDS
;	COMDAT ??_C@_08OOHLHECJ@?$CFs?2?$CK?4chc@
CONST	SEGMENT
??_C@_08OOHLHECJ@?$CFs?2?$CK?4chc@ DB '%s\*.chc', 00H	; `string'
CONST	ENDS
;	COMDAT ??_C@_06PDMOFLEE@camp01@
CONST	SEGMENT
??_C@_06PDMOFLEE@camp01@ DB 'camp01', 00H		; `string'
CONST	ENDS
;	COMDAT ??_C@_06FKCMOHNE@CAMP01@
CONST	SEGMENT
??_C@_06FKCMOHNE@CAMP01@ DB 'CAMP01', 00H		; `string'
CONST	ENDS
;	COMDAT ??_C@_07HMIPAPAI@?$CFs?2?$CK?4?$CFs@
CONST	SEGMENT
??_C@_07HMIPAPAI@?$CFs?2?$CK?4?$CFs@ DB '%s\*.%s', 00H	; `string'
CONST	ENDS
;	COMDAT ?__LINE__Var@?0??recursive_check_campaign_files@@YGXPBDPAPAUSESSION_LIST_DATA_TYPE@@0@Z@4JA
_DATA	SEGMENT
?__LINE__Var@?0??recursive_check_campaign_files@@YGXPBDPAPAUSESSION_LIST_DATA_TYPE@@0@Z@4JA DD 0433H ; `recursive_check_campaign_files'::`1'::__LINE__Var
_DATA	ENDS
;	COMDAT ??_C@_0DD@PNPICBHO@SESSION?3?5mallocing?5store?5pack?5b@
CONST	SEGMENT
??_C@_0DD@PNPICBHO@SESSION?3?5mallocing?5store?5pack?5b@ DB 'SESSION: mal'
	DB	'locing store pack buffer from %d to %d', 00H ; `string'
CONST	ENDS
;	COMDAT ??_C@_02GMLFBBN@wb@
CONST	SEGMENT
??_C@_02GMLFBBN@wb@ DB 'wb', 00H			; `string'
CONST	ENDS
;	COMDAT ??_C@_05BINPNAAL@force@
CONST	SEGMENT
??_C@_05BINPNAAL@force@ DB 'force', 00H			; `string'
CONST	ENDS
;	COMDAT ??_C@_0BJ@GPGFIJMO@?$CFs?5?$CFd?5?$CFs?0?5?$CF02d?4?$CF02d?4?$CF02d@
CONST	SEGMENT
??_C@_0BJ@GPGFIJMO@?$CFs?5?$CFd?5?$CFs?0?5?$CF02d?4?$CF02d?4?$CF02d@ DB '%'
	DB	's %d %s, %02d.%02d.%02d', 00H		; `string'
CONST	ENDS
;	COMDAT ??_C@_0N@OACKFMDA@Elapsed?5Time@
CONST	SEGMENT
??_C@_0N@OACKFMDA@Elapsed?5Time@ DB 'Elapsed Time', 00H	; `string'
CONST	ENDS
;	COMDAT ??_C@_04IJMHDAOD@days@
CONST	SEGMENT
??_C@_04IJMHDAOD@days@ DB 'days', 00H			; `string'
CONST	ENDS
;	COMDAT ??_C@_0IC@NPHAIGMI@?1?1?1?1?1?1?1?1?1?1?1?1?1?1?1?1?1?1?1?1?1?1?1?1?1?1?1?1?1?1?1@
CONST	SEGMENT
??_C@_0IC@NPHAIGMI@?1?1?1?1?1?1?1?1?1?1?1?1?1?1?1?1?1?1?1?1?1?1?1?1?1?1?1?1?1?1?1@ DB '/'
	DB	'/////////////////////////////////////////////////////////////'
	DB	'/////////////////////////////////////////////////////////////'
	DB	'//////', 00H				; `string'
CONST	ENDS
;	COMDAT ??_C@_08HCIJDDOJ@file_ptr@
CONST	SEGMENT
??_C@_08HCIJDDOJ@file_ptr@ DB 'file_ptr', 00H		; `string'
CONST	ENDS
;	COMDAT ??_C@_0EI@MFEMPFPC@c?3?2users?2nhv90?2projects?2eech?2ap@
CONST	SEGMENT
??_C@_0EI@MFEMPFPC@c?3?2users?2nhv90?2projects?2eech?2ap@ DB 'c:\users\nh'
	DB	'v90\projects\eech\aphavoc\source\ui_menu\session\uisession.c', 00H ; `string'
CONST	ENDS
;	COMDAT ??_C@_0CA@NDGENNBK@SESSION?3?5failed?5to?5open?5file?5?$CFs@
CONST	SEGMENT
??_C@_0CA@NDGENNBK@SESSION?3?5failed?5to?5open?5file?5?$CFs@ DB 'SESSION:'
	DB	' failed to open file %s', 00H		; `string'
CONST	ENDS
;	COMDAT ??_C@_01NOFIACDB@w@
CONST	SEGMENT
??_C@_01NOFIACDB@w@ DB 'w', 00H				; `string'
CONST	ENDS
;	COMDAT ??_C@_09FJCKINDD@?$CFs?2?$CFs?2?$CFs?4@
CONST	SEGMENT
??_C@_09FJCKINDD@?$CFs?2?$CFs?2?$CFs?4@ DB '%s\%s\%s.', 00H ; `string'
CONST	ENDS
;	COMDAT ??_C@_04ONGOJJC@?4sav@
CONST	SEGMENT
??_C@_04ONGOJJC@?4sav@ DB '.sav', 00H			; `string'
CONST	ENDS
;	COMDAT ??_C@_08EFGGCJLD@?$CFs?2?$CFs?2?$CFs@
CONST	SEGMENT
??_C@_08EFGGCJLD@?$CFs?2?$CFs?2?$CFs@ DB '%s\%s\%s', 00H ; `string'
CONST	ENDS
;	COMDAT ?__LINE__Var@?0??store_session@@YGHPAUSESSION_LIST_DATA_TYPE@@PBD@Z@4JA
_DATA	SEGMENT
?__LINE__Var@?0??store_session@@YGHPAUSESSION_LIST_DATA_TYPE@@PBD@Z@4JA DD 02f0H ; `store_session'::`1'::__LINE__Var
_DATA	ENDS
;	COMDAT ??_C@_0O@NJDILOOA@?$CFs?5?$CI?$CFi?1?$CFi?$CJ?5?$CFs@
CONST	SEGMENT
??_C@_0O@NJDILOOA@?$CFs?5?$CI?$CFi?1?$CFi?$CJ?5?$CFs@ DB '%s (%i/%i) %s', 00H ; `string'
CONST	ENDS
;	COMDAT ??_C@_0O@OLLFJHMI@?9Multiplayer?9@
CONST	SEGMENT
??_C@_0O@OLLFJHMI@?9Multiplayer?9@ DB '-Multiplayer-', 00H ; `string'
CONST	ENDS
;	COMDAT ??_C@_0P@NGFFGAMI@?4?4?2common?2maps@
CONST	SEGMENT
??_C@_0P@NGFFGAMI@?4?4?2common?2maps@ DB '..\common\maps', 00H ; `string'
CONST	ENDS
;	COMDAT ??_C@_06LNFIIFPG@?2maps?2@
CONST	SEGMENT
??_C@_06LNFIIFPG@?2maps?2@ DB '\maps\', 00H		; `string'
CONST	ENDS
;	COMDAT ??_C@_01KICIPPFI@?2@
CONST	SEGMENT
??_C@_01KICIPPFI@?2@ DB '\', 00H			; `string'
CONST	ENDS
;	COMDAT ??_C@_04NBFCGMPH@root@
CONST	SEGMENT
??_C@_04NBFCGMPH@root@ DB 'root', 00H			; `string'
CONST	ENDS
;	COMDAT ??_C@_02DKCKIIND@?$CFs@
CONST	SEGMENT
??_C@_02DKCKIIND@?$CFs@ DB '%s', 00H			; `string'
CONST	ENDS
; Function compile flags: /Odtp /ZI
; File c:\program files (x86)\microsoft visual studio\2017\community\vc\tools\msvc\14.16.27023\include\xtgmath.h
;	COMDAT ??$fmod@MHX@@YGNMH@Z
_TEXT	SEGMENT
__Left$ = 8						; size = 4
__Right$ = 12						; size = 4
??$fmod@MHX@@YGNMH@Z PROC				; fmod<float,int,void>, COMDAT

; 88   : _GENERIC_MATH2(fmod, _CRTDEFAULT)

  00000	55		 push	 ebp
  00001	8b ec		 mov	 ebp, esp
  00003	83 ec 40	 sub	 esp, 64			; 00000040H
  00006	53		 push	 ebx
  00007	56		 push	 esi
  00008	57		 push	 edi
  00009	f2 0f 2a 45 0c	 cvtsi2sd xmm0, DWORD PTR __Right$[ebp]
  0000e	83 ec 08	 sub	 esp, 8
  00011	f2 0f 11 04 24	 movsd	 QWORD PTR [esp], xmm0
  00016	f3 0f 5a 45 08	 cvtss2sd xmm0, DWORD PTR __Left$[ebp]
  0001b	83 ec 08	 sub	 esp, 8
  0001e	f2 0f 11 04 24	 movsd	 QWORD PTR [esp], xmm0
  00023	e8 00 00 00 00	 call	 _fmod
  00028	83 c4 10	 add	 esp, 16			; 00000010H
  0002b	5f		 pop	 edi
  0002c	5e		 pop	 esi
  0002d	5b		 pop	 ebx
  0002e	8b e5		 mov	 esp, ebp
  00030	5d		 pop	 ebp
  00031	c2 08 00	 ret	 8
??$fmod@MHX@@YGNMH@Z ENDP				; fmod<float,int,void>
_TEXT	ENDS
; Function compile flags: /Odtp /ZI
; File c:\users\nhv90\projects\eech\aphavoc\source\ui_menu\session\uisession.c
;	COMDAT ?recursive_check_campaign_files@@YGXPBDPAPAUSESSION_LIST_DATA_TYPE@@0@Z
_TEXT	SEGMENT
tv329 = -3572						; size = 4
tv203 = -3572						; size = 4
_full_directory$1 = -3120				; size = 1024
_fn$2 = -2096						; size = 1024
_title$3 = -1072					; size = 4
_end_flag$4 = -1068					; size = 4
_tag$5 = -1064						; size = 4
_file_ptr$6 = -1060					; size = 4
_fn$7 = -1056						; size = 1024
_season$ = -32						; size = 4
_valid_file$ = -28					; size = 4
_value$ = -24						; size = 4
_upper$ = -20						; size = 4
_i$ = -16						; size = 4
_directory_listing$ = -12				; size = 4
_warzone_file$ = -8					; size = 4
_session_type$ = -4					; size = 4
_directory$ = 8						; size = 4
_list$ = 12						; size = 4
_extension$ = 16					; size = 4
?recursive_check_campaign_files@@YGXPBDPAPAUSESSION_LIST_DATA_TYPE@@0@Z PROC ; recursive_check_campaign_files, COMDAT

; 1075 : {

  00000	55		 push	 ebp
  00001	8b ec		 mov	 ebp, esp
  00003	81 ec f4 0d 00
	00		 sub	 esp, 3572		; 00000df4H
  00009	53		 push	 ebx
  0000a	56		 push	 esi
  0000b	57		 push	 edi

; 1076 : 
; 1077 : 	session_list_types
; 1078 : 		session_type;
; 1079 : 
; 1080 : 	directory_file_list
; 1081 : 		*warzone_file,
; 1082 : 		*directory_listing;
; 1083 : 
; 1084 : 	unsigned int
; 1085 : 		i,
; 1086 : 		upper;
; 1087 : 
; 1088 : 	int
; 1089 : 		value,
; 1090 : 		valid_file,
; 1091 : 		season;
; 1092 : 
; 1093 : 	static char
; 1094 : 		operator_ [64],
; 1095 : 		variable [64],
; 1096 : 		temp_warzone_name [128],
; 1097 : 		*warzone_name,
; 1098 : 		warzone_path [1024],
; 1099 : 		directory_search_path [1024];
; 1100 : 
; 1101 : 	//
; 1102 : 	// First, go through any files in this directory.
; 1103 : 	//
; 1104 : 
; 1105 : 	sprintf (directory_search_path, "%s\\*.%s", directory, extension);

  0000c	8b 45 10	 mov	 eax, DWORD PTR _extension$[ebp]
  0000f	50		 push	 eax
  00010	8b 4d 08	 mov	 ecx, DWORD PTR _directory$[ebp]
  00013	51		 push	 ecx
  00014	68 00 00 00 00	 push	 OFFSET ??_C@_07HMIPAPAI@?$CFs?2?$CK?4?$CFs@
  00019	68 00 00 00 00	 push	 OFFSET ?directory_search_path@?1??recursive_check_campaign_files@@YGXPBDPAPAUSESSION_LIST_DATA_TYPE@@0@Z@4PADA
  0001e	e8 00 00 00 00	 call	 _sprintf
  00023	83 c4 10	 add	 esp, 16			; 00000010H

; 1106 : 
; 1107 : 	// Jabberwock 0400201 Session filter revised
; 1108 : 
; 1109 : 	//VJ 050123 small bug fix: check for lowercase AND uppercase
; 1110 : 	if ((strstr(directory, "CAMP01") || strstr(directory, "camp01")) && command_line_session_filter)

  00026	68 00 00 00 00	 push	 OFFSET ??_C@_06FKCMOHNE@CAMP01@
  0002b	8b 45 08	 mov	 eax, DWORD PTR _directory$[ebp]
  0002e	50		 push	 eax
  0002f	e8 00 00 00 00	 call	 _strstr
  00034	83 c4 08	 add	 esp, 8
  00037	85 c0		 test	 eax, eax
  00039	75 19		 jne	 SHORT $LN27@recursive_
  0003b	68 00 00 00 00	 push	 OFFSET ??_C@_06PDMOFLEE@camp01@
  00040	8b 45 08	 mov	 eax, DWORD PTR _directory$[ebp]
  00043	50		 push	 eax
  00044	e8 00 00 00 00	 call	 _strstr
  00049	83 c4 08	 add	 esp, 8
  0004c	85 c0		 test	 eax, eax
  0004e	0f 84 5c 01 00
	00		 je	 $LN26@recursive_
$LN27@recursive_:
  00054	83 3d 00 00 00
	00 00		 cmp	 DWORD PTR ?command_line_session_filter@@3HA, 0 ; command_line_session_filter
  0005b	0f 84 4f 01 00
	00		 je	 $LN26@recursive_

; 1111 : 	{
; 1112 : 		sprintf(warzone_path, "%s\\*.chc", directory);

  00061	8b 45 08	 mov	 eax, DWORD PTR _directory$[ebp]
  00064	50		 push	 eax
  00065	68 00 00 00 00	 push	 OFFSET ??_C@_08OOHLHECJ@?$CFs?2?$CK?4chc@
  0006a	68 00 00 00 00	 push	 OFFSET ?warzone_path@?1??recursive_check_campaign_files@@YGXPBDPAPAUSESSION_LIST_DATA_TYPE@@0@Z@4PADA
  0006f	e8 00 00 00 00	 call	 _sprintf
  00074	83 c4 0c	 add	 esp, 12			; 0000000cH

; 1113 : 
; 1114 : 		warzone_file = get_first_directory_file(warzone_path);

  00077	68 00 00 00 00	 push	 OFFSET ?warzone_path@?1??recursive_check_campaign_files@@YGXPBDPAPAUSESSION_LIST_DATA_TYPE@@0@Z@4PADA
  0007c	e8 00 00 00 00	 call	 ?get_first_directory_file@@YGPAUDIRECTORY_FILE_LIST@@PBD@Z ; get_first_directory_file
  00081	89 45 f8	 mov	 DWORD PTR _warzone_file$[ebp], eax

; 1115 : 
; 1116 : 		sprintf(temp_warzone_name, "%s", get_directory_file_filename (warzone_file));

  00084	8b 45 f8	 mov	 eax, DWORD PTR _warzone_file$[ebp]
  00087	50		 push	 eax
  00088	e8 00 00 00 00	 call	 ?get_directory_file_filename@@YGPBDPAUDIRECTORY_FILE_LIST@@@Z ; get_directory_file_filename
  0008d	50		 push	 eax
  0008e	68 00 00 00 00	 push	 OFFSET ??_C@_02DKCKIIND@?$CFs@
  00093	68 00 00 00 00	 push	 OFFSET ?temp_warzone_name@?1??recursive_check_campaign_files@@YGXPBDPAPAUSESSION_LIST_DATA_TYPE@@0@Z@4PADA
  00098	e8 00 00 00 00	 call	 _sprintf
  0009d	83 c4 0c	 add	 esp, 12			; 0000000cH

; 1117 : 
; 1118 : 	//  Vadim 051120, if chc filename has spaces, capitalize every word
; 1119 : 
; 1120 : 		for (upper=1, i = 0; i < (strlen (temp_warzone_name) - 4); i++)

  000a0	c7 45 ec 01 00
	00 00		 mov	 DWORD PTR _upper$[ebp], 1
  000a7	c7 45 f0 00 00
	00 00		 mov	 DWORD PTR _i$[ebp], 0
  000ae	eb 09		 jmp	 SHORT $LN4@recursive_
$LN2@recursive_:
  000b0	8b 45 f0	 mov	 eax, DWORD PTR _i$[ebp]
  000b3	83 c0 01	 add	 eax, 1
  000b6	89 45 f0	 mov	 DWORD PTR _i$[ebp], eax
$LN4@recursive_:
  000b9	68 00 00 00 00	 push	 OFFSET ?temp_warzone_name@?1??recursive_check_campaign_files@@YGXPBDPAPAUSESSION_LIST_DATA_TYPE@@0@Z@4PADA
  000be	e8 00 00 00 00	 call	 _strlen
  000c3	83 c4 04	 add	 esp, 4
  000c6	83 e8 04	 sub	 eax, 4
  000c9	39 45 f0	 cmp	 DWORD PTR _i$[ebp], eax
  000cc	73 6f		 jae	 SHORT $LN3@recursive_

; 1121 : 		{
; 1122 : 			if (upper)

  000ce	83 7d ec 00	 cmp	 DWORD PTR _upper$[ebp], 0
  000d2	74 26		 je	 SHORT $LN28@recursive_

; 1123 : 			{
; 1124 : 				temp_warzone_name[i] = toupper (temp_warzone_name[i]);

  000d4	8b 45 f0	 mov	 eax, DWORD PTR _i$[ebp]
  000d7	0f b6 88 00 00
	00 00		 movzx	 ecx, BYTE PTR ?temp_warzone_name@?1??recursive_check_campaign_files@@YGXPBDPAPAUSESSION_LIST_DATA_TYPE@@0@Z@4PADA[eax]
  000de	51		 push	 ecx
  000df	ff 15 00 00 00
	00		 call	 DWORD PTR __imp__toupper
  000e5	83 c4 04	 add	 esp, 4
  000e8	8b 55 f0	 mov	 edx, DWORD PTR _i$[ebp]
  000eb	88 82 00 00 00
	00		 mov	 BYTE PTR ?temp_warzone_name@?1??recursive_check_campaign_files@@YGXPBDPAPAUSESSION_LIST_DATA_TYPE@@0@Z@4PADA[edx], al

; 1125 : 				upper=0;

  000f1	c7 45 ec 00 00
	00 00		 mov	 DWORD PTR _upper$[ebp], 0
  000f8	eb 3e		 jmp	 SHORT $LN29@recursive_
$LN28@recursive_:

; 1126 : 			}
; 1127 : 			else if (isspace(temp_warzone_name[i])) {

  000fa	8b 45 f0	 mov	 eax, DWORD PTR _i$[ebp]
  000fd	0f b6 88 00 00
	00 00		 movzx	 ecx, BYTE PTR ?temp_warzone_name@?1??recursive_check_campaign_files@@YGXPBDPAPAUSESSION_LIST_DATA_TYPE@@0@Z@4PADA[eax]
  00104	51		 push	 ecx
  00105	ff 15 00 00 00
	00		 call	 DWORD PTR __imp__isspace
  0010b	83 c4 04	 add	 esp, 4
  0010e	85 c0		 test	 eax, eax
  00110	74 09		 je	 SHORT $LN30@recursive_

; 1128 : 					upper=1;

  00112	c7 45 ec 01 00
	00 00		 mov	 DWORD PTR _upper$[ebp], 1

; 1129 : 			}
; 1130 : 			else

  00119	eb 1d		 jmp	 SHORT $LN29@recursive_
$LN30@recursive_:

; 1131 : 			{
; 1132 : 				temp_warzone_name[i] = tolower (temp_warzone_name[i]);

  0011b	8b 45 f0	 mov	 eax, DWORD PTR _i$[ebp]
  0011e	0f b6 88 00 00
	00 00		 movzx	 ecx, BYTE PTR ?temp_warzone_name@?1??recursive_check_campaign_files@@YGXPBDPAPAUSESSION_LIST_DATA_TYPE@@0@Z@4PADA[eax]
  00125	51		 push	 ecx
  00126	ff 15 00 00 00
	00		 call	 DWORD PTR __imp__tolower
  0012c	83 c4 04	 add	 esp, 4
  0012f	8b 55 f0	 mov	 edx, DWORD PTR _i$[ebp]
  00132	88 82 00 00 00
	00		 mov	 BYTE PTR ?temp_warzone_name@?1??recursive_check_campaign_files@@YGXPBDPAPAUSESSION_LIST_DATA_TYPE@@0@Z@4PADA[edx], al
$LN29@recursive_:

; 1133 : 			}
; 1134 : 		}

  00138	e9 73 ff ff ff	 jmp	 $LN2@recursive_
$LN3@recursive_:

; 1135 : 
; 1136 : 		temp_warzone_name[i] = '\0';

  0013d	8b 45 f0	 mov	 eax, DWORD PTR _i$[ebp]
  00140	c6 80 00 00 00
	00 00		 mov	 BYTE PTR ?temp_warzone_name@?1??recursive_check_campaign_files@@YGXPBDPAPAUSESSION_LIST_DATA_TYPE@@0@Z@4PADA[eax], 0

; 1137 : 
; 1138 : 		for (i = 0; i < (strlen (directory) - 7); i++)

  00147	c7 45 f0 00 00
	00 00		 mov	 DWORD PTR _i$[ebp], 0
  0014e	eb 09		 jmp	 SHORT $LN7@recursive_
$LN5@recursive_:
  00150	8b 45 f0	 mov	 eax, DWORD PTR _i$[ebp]
  00153	83 c0 01	 add	 eax, 1
  00156	89 45 f0	 mov	 DWORD PTR _i$[ebp], eax
$LN7@recursive_:
  00159	8b 45 08	 mov	 eax, DWORD PTR _directory$[ebp]
  0015c	50		 push	 eax
  0015d	e8 00 00 00 00	 call	 _strlen
  00162	83 c4 04	 add	 esp, 4
  00165	83 e8 07	 sub	 eax, 7
  00168	39 45 f0	 cmp	 DWORD PTR _i$[ebp], eax
  0016b	73 13		 jae	 SHORT $LN6@recursive_

; 1139 : 		{
; 1140 : 			warzone_path[i] = directory[i];

  0016d	8b 45 08	 mov	 eax, DWORD PTR _directory$[ebp]
  00170	03 45 f0	 add	 eax, DWORD PTR _i$[ebp]
  00173	8b 4d f0	 mov	 ecx, DWORD PTR _i$[ebp]
  00176	8a 10		 mov	 dl, BYTE PTR [eax]
  00178	88 91 00 00 00
	00		 mov	 BYTE PTR ?warzone_path@?1??recursive_check_campaign_files@@YGXPBDPAPAUSESSION_LIST_DATA_TYPE@@0@Z@4PADA[ecx], dl

; 1141 : 		}

  0017e	eb d0		 jmp	 SHORT $LN5@recursive_
$LN6@recursive_:

; 1142 : 
; 1143 : 		warzone_path[i] = '\0';

  00180	8b 45 f0	 mov	 eax, DWORD PTR _i$[ebp]
  00183	c6 80 00 00 00
	00 00		 mov	 BYTE PTR ?warzone_path@?1??recursive_check_campaign_files@@YGXPBDPAPAUSESSION_LIST_DATA_TYPE@@0@Z@4PADA[eax], 0

; 1144 : 
; 1145 : 
; 1146 : 		add_session (temp_warzone_name, SESSION_LIST_TYPE_FILTER, 1, NULL, warzone_path, NULL, NULL, temp_warzone_name, list, NULL, SESSION_SEASON_INVALID);

  0018a	6a 00		 push	 0
  0018c	6a 00		 push	 0
  0018e	8b 45 0c	 mov	 eax, DWORD PTR _list$[ebp]
  00191	50		 push	 eax
  00192	68 00 00 00 00	 push	 OFFSET ?temp_warzone_name@?1??recursive_check_campaign_files@@YGXPBDPAPAUSESSION_LIST_DATA_TYPE@@0@Z@4PADA
  00197	6a 00		 push	 0
  00199	6a 00		 push	 0
  0019b	68 00 00 00 00	 push	 OFFSET ?warzone_path@?1??recursive_check_campaign_files@@YGXPBDPAPAUSESSION_LIST_DATA_TYPE@@0@Z@4PADA
  001a0	6a 00		 push	 0
  001a2	6a 01		 push	 1
  001a4	6a 10		 push	 16			; 00000010H
  001a6	68 00 00 00 00	 push	 OFFSET ?temp_warzone_name@?1??recursive_check_campaign_files@@YGXPBDPAPAUSESSION_LIST_DATA_TYPE@@0@Z@4PADA
  001ab	e8 00 00 00 00	 call	 ?add_session@@YGPAUSESSION_LIST_DATA_TYPE@@PBDW4SESSION_LIST_TYPES@@HPAUSESSION_TABLE_TYPE@@PAD333PAPAU1@0H@Z ; add_session
$LN26@recursive_:

; 1147 : 	}
; 1148 : 
; 1149 : 
; 1150 : 	directory_listing = get_first_directory_file (directory_search_path);

  001b0	68 00 00 00 00	 push	 OFFSET ?directory_search_path@?1??recursive_check_campaign_files@@YGXPBDPAPAUSESSION_LIST_DATA_TYPE@@0@Z@4PADA
  001b5	e8 00 00 00 00	 call	 ?get_first_directory_file@@YGPAUDIRECTORY_FILE_LIST@@PBD@Z ; get_first_directory_file
  001ba	89 45 f4	 mov	 DWORD PTR _directory_listing$[ebp], eax

; 1151 : 
; 1152 : 	// JB 030313 Enable running out of separate directories
; 1153 : 	if (!directory_listing)

  001bd	83 7d f4 00	 cmp	 DWORD PTR _directory_listing$[ebp], 0
  001c1	75 5b		 jne	 SHORT $LN32@recursive_

; 1154 : 	{
; 1155 : 		char fn[1024];
; 1156 : 		fn[0] = 0;

  001c3	b8 01 00 00 00	 mov	 eax, 1
  001c8	6b c8 00	 imul	 ecx, eax, 0
  001cb	c6 84 0d e0 fb
	ff ff 00	 mov	 BYTE PTR _fn$7[ebp+ecx], 0

; 1157 : 		strcpy(fn, comanche_hokum_installation_path);

  001d3	68 00 00 00 00	 push	 OFFSET ?comanche_hokum_installation_path@@3PADA ; comanche_hokum_installation_path
  001d8	8d 85 e0 fb ff
	ff		 lea	 eax, DWORD PTR _fn$7[ebp]
  001de	50		 push	 eax
  001df	e8 00 00 00 00	 call	 _strcpy
  001e4	83 c4 08	 add	 esp, 8

; 1158 : 		strcat(fn, "\\common\\");

  001e7	68 00 00 00 00	 push	 OFFSET ??_C@_08EMMAHODI@?2common?2@
  001ec	8d 85 e0 fb ff
	ff		 lea	 eax, DWORD PTR _fn$7[ebp]
  001f2	50		 push	 eax
  001f3	e8 00 00 00 00	 call	 _strcat
  001f8	83 c4 08	 add	 esp, 8

; 1159 : 		strcat(fn, directory_search_path);

  001fb	68 00 00 00 00	 push	 OFFSET ?directory_search_path@?1??recursive_check_campaign_files@@YGXPBDPAPAUSESSION_LIST_DATA_TYPE@@0@Z@4PADA
  00200	8d 85 e0 fb ff
	ff		 lea	 eax, DWORD PTR _fn$7[ebp]
  00206	50		 push	 eax
  00207	e8 00 00 00 00	 call	 _strcat
  0020c	83 c4 08	 add	 esp, 8

; 1160 : 
; 1161 : 		directory_listing = get_first_directory_file ( fn );

  0020f	8d 85 e0 fb ff
	ff		 lea	 eax, DWORD PTR _fn$7[ebp]
  00215	50		 push	 eax
  00216	e8 00 00 00 00	 call	 ?get_first_directory_file@@YGPAUDIRECTORY_FILE_LIST@@PBD@Z ; get_first_directory_file
  0021b	89 45 f4	 mov	 DWORD PTR _directory_listing$[ebp], eax
$LN32@recursive_:

; 1162 : 	}
; 1163 : 
; 1164 : 	if (directory_listing)

  0021e	83 7d f4 00	 cmp	 DWORD PTR _directory_listing$[ebp], 0
  00222	0f 84 93 04 00
	00		 je	 $LN33@recursive_

; 1165 : 	{
; 1166 : 
; 1167 : 		valid_file = TRUE;

  00228	c7 45 e4 01 00
	00 00		 mov	 DWORD PTR _valid_file$[ebp], 1
$LN8@recursive_:

; 1168 : 
; 1169 : 		while (valid_file)

  0022f	83 7d e4 00	 cmp	 DWORD PTR _valid_file$[ebp], 0
  00233	0f 84 79 04 00
	00		 je	 $LN9@recursive_

; 1170 : 		{
; 1171 : 
; 1172 : 			session_type = SESSION_LIST_TYPE_HOST;

  00239	c7 45 fc 01 00
	00 00		 mov	 DWORD PTR _session_type$[ebp], 1

; 1173 : 
; 1174 : 			if (get_directory_file_type (directory_listing) == DIRECTORY_FILE_TYPE_FILE)

  00240	8b 45 f4	 mov	 eax, DWORD PTR _directory_listing$[ebp]
  00243	50		 push	 eax
  00244	e8 00 00 00 00	 call	 ?get_directory_file_type@@YG?AW4DIRECTORY_FILE_TYPES@@PAUDIRECTORY_FILE_LIST@@@Z ; get_directory_file_type
  00249	83 f8 02	 cmp	 eax, 2
  0024c	0f 85 4f 04 00
	00		 jne	 $LN34@recursive_

; 1175 : 			{
; 1176 : 
; 1177 : 				FILE
; 1178 : 					*file_ptr;
; 1179 : 
; 1180 : 				file_tags
; 1181 : 					tag;
; 1182 : 
; 1183 : 				int
; 1184 : 					end_flag;
; 1185 : 
; 1186 : 				static char
; 1187 : 					*ptr,
; 1188 : 					*last_ptr,
; 1189 : 					path [1024],
; 1190 : 					full_filename [1024],
; 1191 : 					campaign_title [1024],
; 1192 : 					campaign_directory [32],
; 1193 : 					campaign_filename [1024];
; 1194 : 
; 1195 : 				//
; 1196 : 				// Add campaign file to list
; 1197 : 				//
; 1198 : 
; 1199 : 				sprintf (full_filename, "%s\\%s", directory, get_directory_file_filename (directory_listing));

  00252	8b 45 f4	 mov	 eax, DWORD PTR _directory_listing$[ebp]
  00255	50		 push	 eax
  00256	e8 00 00 00 00	 call	 ?get_directory_file_filename@@YGPBDPAUDIRECTORY_FILE_LIST@@@Z ; get_directory_file_filename
  0025b	50		 push	 eax
  0025c	8b 4d 08	 mov	 ecx, DWORD PTR _directory$[ebp]
  0025f	51		 push	 ecx
  00260	68 00 00 00 00	 push	 OFFSET ??_C@_05BMGBEOOC@?$CFs?2?$CFs@
  00265	68 00 00 00 00	 push	 OFFSET ?full_filename@?BN@??recursive_check_campaign_files@@YGXPBDPAPAUSESSION_LIST_DATA_TYPE@@0@Z@4PADA
  0026a	e8 00 00 00 00	 call	 _sprintf
  0026f	83 c4 10	 add	 esp, 16			; 00000010H

; 1200 : 
; 1201 : 				file_ptr = safe_fopen (full_filename, "r");

  00272	68 00 00 00 00	 push	 OFFSET ??_C@_01KDCPPGHE@r@
  00277	68 00 00 00 00	 push	 OFFSET ?full_filename@?BN@??recursive_check_campaign_files@@YGXPBDPAPAUSESSION_LIST_DATA_TYPE@@0@Z@4PADA
  0027c	e8 00 00 00 00	 call	 ?safe_fopen@@YGPAU_iobuf@@PBD0@Z ; safe_fopen
  00281	89 85 dc fb ff
	ff		 mov	 DWORD PTR _file_ptr$6[ebp], eax

; 1202 : 
; 1203 : 				end_flag = FALSE;

  00287	c7 85 d4 fb ff
	ff 00 00 00 00	 mov	 DWORD PTR _end_flag$4[ebp], 0

; 1204 : 
; 1205 : 				warzone_name = NULL;

  00291	c7 05 00 00 00
	00 00 00 00 00	 mov	 DWORD PTR ?warzone_name@?1??recursive_check_campaign_files@@YGXPBDPAPAUSESSION_LIST_DATA_TYPE@@0@Z@4PADA, 0

; 1206 : 
; 1207 : 				season = SESSION_SEASON_INVALID;

  0029b	c7 45 e0 00 00
	00 00		 mov	 DWORD PTR _season$[ebp], 0
$LN10@recursive_:

; 1208 : 
; 1209 : 				while (!end_flag)

  002a2	83 bd d4 fb ff
	ff 00		 cmp	 DWORD PTR _end_flag$4[ebp], 0
  002a9	0f 85 e2 03 00
	00		 jne	 $LN11@recursive_

; 1210 : 				{
; 1211 : 
; 1212 : 					tag = (file_tags) get_next_file_tag (file_ptr, application_tag_strings, FILE_TAG_APPLICATION_LAST_TAG);

  002af	68 af 00 00 00	 push	 175			; 000000afH
  002b4	68 00 00 00 00	 push	 OFFSET ?application_tag_strings@@3PAPBDA ; application_tag_strings
  002b9	8b 85 dc fb ff
	ff		 mov	 eax, DWORD PTR _file_ptr$6[ebp]
  002bf	50		 push	 eax
  002c0	e8 00 00 00 00	 call	 ?get_next_file_tag@@YGHPAU_iobuf@@QAPBDH@Z ; get_next_file_tag
  002c5	89 85 d8 fb ff
	ff		 mov	 DWORD PTR _tag$5[ebp], eax

; 1213 : 
; 1214 : 					switch (tag)

  002cb	8b 85 d8 fb ff
	ff		 mov	 eax, DWORD PTR _tag$5[ebp]
  002d1	89 85 0c f2 ff
	ff		 mov	 DWORD PTR tv203[ebp], eax
  002d7	8b 8d 0c f2 ff
	ff		 mov	 ecx, DWORD PTR tv203[ebp]
  002dd	83 c1 1e	 add	 ecx, 30			; 0000001eH
  002e0	89 8d 0c f2 ff
	ff		 mov	 DWORD PTR tv203[ebp], ecx
  002e6	81 bd 0c f2 ff
	ff cc 00 00 00	 cmp	 DWORD PTR tv203[ebp], 204 ; 000000ccH
  002f0	0f 87 96 03 00
	00		 ja	 $LN12@recursive_
  002f6	8b 95 0c f2 ff
	ff		 mov	 edx, DWORD PTR tv203[ebp]
  002fc	0f b6 82 00 00
	00 00		 movzx	 eax, BYTE PTR $LN67@recursive_[edx]
  00303	ff 24 85 00 00
	00 00		 jmp	 DWORD PTR $LN68@recursive_[eax*4]
$LN35@recursive_:

; 1215 : 					{
; 1216 : 
; 1217 : 						case FILE_TAG_WARZONE_NAME:
; 1218 : 						{
; 1219 : 
; 1220 : 							get_next_file_string (file_ptr, temp_warzone_name, sizeof (temp_warzone_name));

  0030a	68 80 00 00 00	 push	 128			; 00000080H
  0030f	68 00 00 00 00	 push	 OFFSET ?temp_warzone_name@?1??recursive_check_campaign_files@@YGXPBDPAPAUSESSION_LIST_DATA_TYPE@@0@Z@4PADA
  00314	8b 85 dc fb ff
	ff		 mov	 eax, DWORD PTR _file_ptr$6[ebp]
  0031a	50		 push	 eax
  0031b	e8 00 00 00 00	 call	 ?get_next_file_string@@YGHPAU_iobuf@@PADH@Z ; get_next_file_string

; 1221 : 
; 1222 : 							warzone_name = temp_warzone_name;

  00320	c7 05 00 00 00
	00 00 00 00 00	 mov	 DWORD PTR ?warzone_name@?1??recursive_check_campaign_files@@YGXPBDPAPAUSESSION_LIST_DATA_TYPE@@0@Z@4PADA, OFFSET ?temp_warzone_name@?1??recursive_check_campaign_files@@YGXPBDPAPAUSESSION_LIST_DATA_TYPE@@0@Z@4PADA

; 1223 : 
; 1224 : 							break;

  0032a	e9 5d 03 00 00	 jmp	 $LN12@recursive_
$LN36@recursive_:

; 1225 : 						}
; 1226 : 
; 1227 : 						case FILE_TAG_TITLE:
; 1228 : 						{
; 1229 : 
; 1230 : 							get_next_file_string (file_ptr, campaign_title, sizeof (campaign_title));

  0032f	68 00 04 00 00	 push	 1024			; 00000400H
  00334	68 00 00 00 00	 push	 OFFSET ?campaign_title@?BN@??recursive_check_campaign_files@@YGXPBDPAPAUSESSION_LIST_DATA_TYPE@@0@Z@4PADA
  00339	8b 85 dc fb ff
	ff		 mov	 eax, DWORD PTR _file_ptr$6[ebp]
  0033f	50		 push	 eax
  00340	e8 00 00 00 00	 call	 ?get_next_file_string@@YGHPAU_iobuf@@PADH@Z ; get_next_file_string

; 1231 : 
; 1232 : 							//
; 1233 : 							// Create data path, ie strip off the last directory name
; 1234 : 							// N.B. valid data directories are in any directory below 'MAPS'.
; 1235 : 							//
; 1236 : 
; 1237 : 							strcpy (path, directory);

  00345	8b 45 08	 mov	 eax, DWORD PTR _directory$[ebp]
  00348	50		 push	 eax
  00349	68 00 00 00 00	 push	 OFFSET ?path@?BN@??recursive_check_campaign_files@@YGXPBDPAPAUSESSION_LIST_DATA_TYPE@@0@Z@4PADA
  0034e	e8 00 00 00 00	 call	 _strcpy
  00353	83 c4 08	 add	 esp, 8

; 1238 : 
; 1239 : 							ptr = strstr (path, "\\maps\\");

  00356	68 00 00 00 00	 push	 OFFSET ??_C@_06LNFIIFPG@?2maps?2@
  0035b	68 00 00 00 00	 push	 OFFSET ?path@?BN@??recursive_check_campaign_files@@YGXPBDPAPAUSESSION_LIST_DATA_TYPE@@0@Z@4PADA
  00360	e8 00 00 00 00	 call	 ?strstr@@YAPADQADQBD@Z	; strstr
  00365	83 c4 08	 add	 esp, 8
  00368	a3 00 00 00 00	 mov	 DWORD PTR ?ptr@?BN@??recursive_check_campaign_files@@YGXPBDPAPAUSESSION_LIST_DATA_TYPE@@0@Z@4PADA, eax

; 1240 : 
; 1241 : 							ptr += strlen ("\\maps\\");

  0036d	68 00 00 00 00	 push	 OFFSET ??_C@_06LNFIIFPG@?2maps?2@
  00372	e8 00 00 00 00	 call	 _strlen
  00377	83 c4 04	 add	 esp, 4
  0037a	03 05 00 00 00
	00		 add	 eax, DWORD PTR ?ptr@?BN@??recursive_check_campaign_files@@YGXPBDPAPAUSESSION_LIST_DATA_TYPE@@0@Z@4PADA
  00380	a3 00 00 00 00	 mov	 DWORD PTR ?ptr@?BN@??recursive_check_campaign_files@@YGXPBDPAPAUSESSION_LIST_DATA_TYPE@@0@Z@4PADA, eax
$LN14@recursive_:

; 1242 : 
; 1243 : 							while (ptr = strstr (ptr, "\\"))

  00385	68 00 00 00 00	 push	 OFFSET ??_C@_01KICIPPFI@?2@
  0038a	a1 00 00 00 00	 mov	 eax, DWORD PTR ?ptr@?BN@??recursive_check_campaign_files@@YGXPBDPAPAUSESSION_LIST_DATA_TYPE@@0@Z@4PADA
  0038f	50		 push	 eax
  00390	e8 00 00 00 00	 call	 ?strstr@@YAPADQADQBD@Z	; strstr
  00395	83 c4 08	 add	 esp, 8
  00398	a3 00 00 00 00	 mov	 DWORD PTR ?ptr@?BN@??recursive_check_campaign_files@@YGXPBDPAPAUSESSION_LIST_DATA_TYPE@@0@Z@4PADA, eax
  0039d	83 3d 00 00 00
	00 00		 cmp	 DWORD PTR ?ptr@?BN@??recursive_check_campaign_files@@YGXPBDPAPAUSESSION_LIST_DATA_TYPE@@0@Z@4PADA, 0
  003a4	74 24		 je	 SHORT $LN15@recursive_

; 1244 : 							{
; 1245 : 
; 1246 : 								ptr += strlen ("\\");

  003a6	68 00 00 00 00	 push	 OFFSET ??_C@_01KICIPPFI@?2@
  003ab	e8 00 00 00 00	 call	 _strlen
  003b0	83 c4 04	 add	 esp, 4
  003b3	03 05 00 00 00
	00		 add	 eax, DWORD PTR ?ptr@?BN@??recursive_check_campaign_files@@YGXPBDPAPAUSESSION_LIST_DATA_TYPE@@0@Z@4PADA
  003b9	a3 00 00 00 00	 mov	 DWORD PTR ?ptr@?BN@??recursive_check_campaign_files@@YGXPBDPAPAUSESSION_LIST_DATA_TYPE@@0@Z@4PADA, eax

; 1247 : 
; 1248 : 								last_ptr = ptr;

  003be	a1 00 00 00 00	 mov	 eax, DWORD PTR ?ptr@?BN@??recursive_check_campaign_files@@YGXPBDPAPAUSESSION_LIST_DATA_TYPE@@0@Z@4PADA
  003c3	a3 00 00 00 00	 mov	 DWORD PTR ?last_ptr@?BN@??recursive_check_campaign_files@@YGXPBDPAPAUSESSION_LIST_DATA_TYPE@@0@Z@4PADA, eax

; 1249 : 							}

  003c8	eb bb		 jmp	 SHORT $LN14@recursive_
$LN15@recursive_:

; 1250 : 
; 1251 : 							sprintf (campaign_directory, "%s", last_ptr);

  003ca	a1 00 00 00 00	 mov	 eax, DWORD PTR ?last_ptr@?BN@??recursive_check_campaign_files@@YGXPBDPAPAUSESSION_LIST_DATA_TYPE@@0@Z@4PADA
  003cf	50		 push	 eax
  003d0	68 00 00 00 00	 push	 OFFSET ??_C@_02DKCKIIND@?$CFs@
  003d5	68 00 00 00 00	 push	 OFFSET ?campaign_directory@?BN@??recursive_check_campaign_files@@YGXPBDPAPAUSESSION_LIST_DATA_TYPE@@0@Z@4PADA
  003da	e8 00 00 00 00	 call	 _sprintf
  003df	83 c4 0c	 add	 esp, 12			; 0000000cH

; 1252 : 
; 1253 : 							sprintf (campaign_filename, "%s", get_directory_file_filename (directory_listing));

  003e2	8b 45 f4	 mov	 eax, DWORD PTR _directory_listing$[ebp]
  003e5	50		 push	 eax
  003e6	e8 00 00 00 00	 call	 ?get_directory_file_filename@@YGPBDPAUDIRECTORY_FILE_LIST@@@Z ; get_directory_file_filename
  003eb	50		 push	 eax
  003ec	68 00 00 00 00	 push	 OFFSET ??_C@_02DKCKIIND@?$CFs@
  003f1	68 00 00 00 00	 push	 OFFSET ?campaign_filename@?BN@??recursive_check_campaign_files@@YGXPBDPAPAUSESSION_LIST_DATA_TYPE@@0@Z@4PADA
  003f6	e8 00 00 00 00	 call	 _sprintf
  003fb	83 c4 0c	 add	 esp, 12			; 0000000cH

; 1254 : 
; 1255 : 							last_ptr -= strlen ("\\");

  003fe	68 00 00 00 00	 push	 OFFSET ??_C@_01KICIPPFI@?2@
  00403	e8 00 00 00 00	 call	 _strlen
  00408	83 c4 04	 add	 esp, 4
  0040b	8b 0d 00 00 00
	00		 mov	 ecx, DWORD PTR ?last_ptr@?BN@??recursive_check_campaign_files@@YGXPBDPAPAUSESSION_LIST_DATA_TYPE@@0@Z@4PADA
  00411	2b c8		 sub	 ecx, eax
  00413	89 0d 00 00 00
	00		 mov	 DWORD PTR ?last_ptr@?BN@??recursive_check_campaign_files@@YGXPBDPAPAUSESSION_LIST_DATA_TYPE@@0@Z@4PADA, ecx

; 1256 : 
; 1257 : 							*last_ptr = '\0';

  00419	a1 00 00 00 00	 mov	 eax, DWORD PTR ?last_ptr@?BN@??recursive_check_campaign_files@@YGXPBDPAPAUSESSION_LIST_DATA_TYPE@@0@Z@4PADA
  0041e	c6 00 00	 mov	 BYTE PTR [eax], 0

; 1258 : 
; 1259 : 							break;

  00421	e9 66 02 00 00	 jmp	 $LN12@recursive_
$LN16@recursive_:

; 1260 : 						}
; 1261 : 
; 1262 : 						case FILE_TAG_LANGUAGE_TEXT_START:
; 1263 : 						{
; 1264 : 
; 1265 : 							// skip script till correct language
; 1266 : 
; 1267 : 							while (tag = (file_tags) get_next_file_tag (file_ptr, application_tag_strings, FILE_TAG_APPLICATION_LAST_TAG))

  00426	68 af 00 00 00	 push	 175			; 000000afH
  0042b	68 00 00 00 00	 push	 OFFSET ?application_tag_strings@@3PAPBDA ; application_tag_strings
  00430	8b 85 dc fb ff
	ff		 mov	 eax, DWORD PTR _file_ptr$6[ebp]
  00436	50		 push	 eax
  00437	e8 00 00 00 00	 call	 ?get_next_file_tag@@YGHPAU_iobuf@@QAPBDH@Z ; get_next_file_tag
  0043c	89 85 d8 fb ff
	ff		 mov	 DWORD PTR _tag$5[ebp], eax
  00442	83 bd d8 fb ff
	ff 00		 cmp	 DWORD PTR _tag$5[ebp], 0
  00449	74 18		 je	 SHORT $LN17@recursive_

; 1268 : 							{
; 1269 : 
; 1270 : 								#if (LANGUAGE == LANGUAGE_FRENCH)
; 1271 : 
; 1272 : 								if (tag == FILE_TAG_LANGUAGE_FRENCH)

  0044b	83 bd d8 fb ff
	ff 4e		 cmp	 DWORD PTR _tag$5[ebp], 78 ; 0000004eH
  00452	75 02		 jne	 SHORT $LN38@recursive_

; 1273 : 								{
; 1274 : 
; 1275 : 									break;

  00454	eb 0d		 jmp	 SHORT $LN17@recursive_
$LN38@recursive_:

; 1276 : 								}
; 1277 : 								#elif (LANGUAGE == LANGUAGE_GERMAN)
; 1278 : 
; 1279 : 								if (tag == FILE_TAG_LANGUAGE_GERMAN)
; 1280 : 								{
; 1281 : 
; 1282 : 									break;
; 1283 : 								}
; 1284 : 								#elif (LANGUAGE == LANGUAGE_ITALIAN)
; 1285 : 
; 1286 : 								if (tag == FILE_TAG_LANGUAGE_ITALIAN)
; 1287 : 								{
; 1288 : 
; 1289 : 									break;
; 1290 : 								}
; 1291 : 								#elif (LANGUAGE == LANGUAGE_SPANISH)
; 1292 : 
; 1293 : 								if (tag == FILE_TAG_LANGUAGE_SPANISH)
; 1294 : 								{
; 1295 : 
; 1296 : 									break;
; 1297 : 								}
; 1298 : 								#else //LANGUAGE_ENGLISH
; 1299 : 
; 1300 : 								if (tag == FILE_TAG_LANGUAGE_ENGLISH)
; 1301 : 								{
; 1302 : 
; 1303 : 									break;
; 1304 : 								}
; 1305 : 								#endif
; 1306 : 
; 1307 : 								if (tag == FILE_TAG_LANGUAGE_TEXT_STOP)

  00456	83 bd d8 fb ff
	ff 55		 cmp	 DWORD PTR _tag$5[ebp], 85 ; 00000055H
  0045d	75 02		 jne	 SHORT $LN39@recursive_

; 1308 : 								{
; 1309 : 
; 1310 : 									break;

  0045f	eb 02		 jmp	 SHORT $LN17@recursive_
$LN39@recursive_:

; 1311 : 								}
; 1312 : 							}

  00461	eb c3		 jmp	 SHORT $LN16@recursive_
$LN17@recursive_:

; 1313 : 
; 1314 : 							break;

  00463	e9 24 02 00 00	 jmp	 $LN12@recursive_
$LN18@recursive_:

; 1315 : 						}
; 1316 : 
; 1317 : 						case FILE_TAG_LANGUAGE_TEXT_END:
; 1318 : 						{
; 1319 : 
; 1320 : 							// skip script till end of languages
; 1321 : 
; 1322 : 							while (tag = (file_tags) get_next_file_tag (file_ptr, application_tag_strings, FILE_TAG_APPLICATION_LAST_TAG))

  00468	68 af 00 00 00	 push	 175			; 000000afH
  0046d	68 00 00 00 00	 push	 OFFSET ?application_tag_strings@@3PAPBDA ; application_tag_strings
  00472	8b 85 dc fb ff
	ff		 mov	 eax, DWORD PTR _file_ptr$6[ebp]
  00478	50		 push	 eax
  00479	e8 00 00 00 00	 call	 ?get_next_file_tag@@YGHPAU_iobuf@@QAPBDH@Z ; get_next_file_tag
  0047e	89 85 d8 fb ff
	ff		 mov	 DWORD PTR _tag$5[ebp], eax
  00484	83 bd d8 fb ff
	ff 00		 cmp	 DWORD PTR _tag$5[ebp], 0
  0048b	74 0d		 je	 SHORT $LN19@recursive_

; 1323 : 							{
; 1324 : 
; 1325 : 								if (tag == FILE_TAG_LANGUAGE_TEXT_STOP)

  0048d	83 bd d8 fb ff
	ff 55		 cmp	 DWORD PTR _tag$5[ebp], 85 ; 00000055H
  00494	75 02		 jne	 SHORT $LN41@recursive_

; 1326 : 								{
; 1327 : 
; 1328 : 									break;

  00496	eb 02		 jmp	 SHORT $LN19@recursive_
$LN41@recursive_:

; 1329 : 								}
; 1330 : 							}

  00498	eb ce		 jmp	 SHORT $LN18@recursive_
$LN19@recursive_:

; 1331 : 
; 1332 : 							break;

  0049a	e9 ed 01 00 00	 jmp	 $LN12@recursive_
$LN20@recursive_:

; 1333 : 						}
; 1334 : 
; 1335 : 						case FILE_TAG_CAMPAIGN_DATA:
; 1336 : 						{
; 1337 : 
; 1338 : 							while (tag = (file_tags) get_next_file_tag (file_ptr, application_tag_strings, FILE_TAG_APPLICATION_LAST_TAG))

  0049f	68 af 00 00 00	 push	 175			; 000000afH
  004a4	68 00 00 00 00	 push	 OFFSET ?application_tag_strings@@3PAPBDA ; application_tag_strings
  004a9	8b 85 dc fb ff
	ff		 mov	 eax, DWORD PTR _file_ptr$6[ebp]
  004af	50		 push	 eax
  004b0	e8 00 00 00 00	 call	 ?get_next_file_tag@@YGHPAU_iobuf@@QAPBDH@Z ; get_next_file_tag
  004b5	89 85 d8 fb ff
	ff		 mov	 DWORD PTR _tag$5[ebp], eax
  004bb	83 bd d8 fb ff
	ff 00		 cmp	 DWORD PTR _tag$5[ebp], 0
  004c2	74 0d		 je	 SHORT $LN21@recursive_

; 1339 : 							{
; 1340 : 
; 1341 : 								if (tag == FILE_TAG_END)

  004c4	83 bd d8 fb ff
	ff f6		 cmp	 DWORD PTR _tag$5[ebp], -10 ; fffffff6H
  004cb	75 02		 jne	 SHORT $LN43@recursive_

; 1342 : 								{
; 1343 : 
; 1344 : 									break;

  004cd	eb 02		 jmp	 SHORT $LN21@recursive_
$LN43@recursive_:

; 1345 : 								}
; 1346 : 							}

  004cf	eb ce		 jmp	 SHORT $LN20@recursive_
$LN21@recursive_:

; 1347 : 
; 1348 : 							break;

  004d1	e9 b6 01 00 00	 jmp	 $LN12@recursive_
$LN44@recursive_:

; 1349 : 						}
; 1350 : 
; 1351 : 						case FILE_TAG_SAVED_CAMPAIGN:
; 1352 : 						{
; 1353 : 
; 1354 : 							session_type = SESSION_LIST_TYPE_RESTORE;

  004d6	c7 45 fc 04 00
	00 00		 mov	 DWORD PTR _session_type$[ebp], 4

; 1355 : 
; 1356 : 							break;

  004dd	e9 aa 01 00 00	 jmp	 $LN12@recursive_
$LN45@recursive_:

; 1357 : 						}
; 1358 : 
; 1359 : 						case FILE_TAG_IF:
; 1360 : 						{
; 1361 : 
; 1362 : 							ASSERT (get_current_player_log ());

  004e2	e8 00 00 00 00	 call	 ?get_current_player_log@@YGPAUPLAYER_LOG_TYPE@@XZ ; get_current_player_log
  004e7	85 c0		 test	 eax, eax
  004e9	75 1a		 jne	 SHORT $LN46@recursive_
  004eb	a1 00 00 00 00	 mov	 eax, DWORD PTR ?__LINE__Var@?0??recursive_check_campaign_files@@YGXPBDPAPAUSESSION_LIST_DATA_TYPE@@0@Z@4JA
  004f0	05 1f 01 00 00	 add	 eax, 287		; 0000011fH
  004f5	50		 push	 eax
  004f6	68 00 00 00 00	 push	 OFFSET ??_C@_0EI@MFEMPFPC@c?3?2users?2nhv90?2projects?2eech?2ap@
  004fb	68 00 00 00 00	 push	 OFFSET ??_C@_0BK@HMBNLIAL@get_current_player_log?5?$CI?$CJ@
  00500	e8 00 00 00 00	 call	 ?process_assert@@YGXPBD0H@Z ; process_assert
$LN46@recursive_:

; 1363 : 
; 1364 : 							get_next_file_word (file_ptr, variable, sizeof (variable));

  00505	6a 40		 push	 64			; 00000040H
  00507	68 00 00 00 00	 push	 OFFSET ?variable@?1??recursive_check_campaign_files@@YGXPBDPAPAUSESSION_LIST_DATA_TYPE@@0@Z@4PADA
  0050c	8b 85 dc fb ff
	ff		 mov	 eax, DWORD PTR _file_ptr$6[ebp]
  00512	50		 push	 eax
  00513	e8 00 00 00 00	 call	 ?get_next_file_word@@YGHPAU_iobuf@@PADH@Z ; get_next_file_word

; 1365 : 
; 1366 : 							get_next_file_word (file_ptr, operator_, sizeof (operator_));

  00518	6a 40		 push	 64			; 00000040H
  0051a	68 00 00 00 00	 push	 OFFSET ?operator_@?1??recursive_check_campaign_files@@YGXPBDPAPAUSESSION_LIST_DATA_TYPE@@0@Z@4PADA
  0051f	8b 85 dc fb ff
	ff		 mov	 eax, DWORD PTR _file_ptr$6[ebp]
  00525	50		 push	 eax
  00526	e8 00 00 00 00	 call	 ?get_next_file_word@@YGHPAU_iobuf@@PADH@Z ; get_next_file_word

; 1367 : 
; 1368 : 							value = get_next_file_int (file_ptr);

  0052b	8b 85 dc fb ff
	ff		 mov	 eax, DWORD PTR _file_ptr$6[ebp]
  00531	50		 push	 eax
  00532	e8 00 00 00 00	 call	 ?get_next_file_int@@YGHPAU_iobuf@@@Z ; get_next_file_int
  00537	89 45 e8	 mov	 DWORD PTR _value$[ebp], eax

; 1369 : 
; 1370 : 							if (!if_file_tag_variable (variable, operator_, value))

  0053a	8b 45 e8	 mov	 eax, DWORD PTR _value$[ebp]
  0053d	50		 push	 eax
  0053e	68 00 00 00 00	 push	 OFFSET ?operator_@?1??recursive_check_campaign_files@@YGXPBDPAPAUSESSION_LIST_DATA_TYPE@@0@Z@4PADA
  00543	68 00 00 00 00	 push	 OFFSET ?variable@?1??recursive_check_campaign_files@@YGXPBDPAPAUSESSION_LIST_DATA_TYPE@@0@Z@4PADA
  00548	e8 00 00 00 00	 call	 ?if_file_tag_variable@@YGHPBD0H@Z ; if_file_tag_variable
  0054d	85 c0		 test	 eax, eax
  0054f	75 3b		 jne	 SHORT $LN47@recursive_
$LN22@recursive_:

; 1371 : 							{
; 1372 : 
; 1373 : 								// skip script till endif
; 1374 : 
; 1375 : 								while (tag = (file_tags) get_next_file_tag (file_ptr, application_tag_strings, FILE_TAG_APPLICATION_LAST_TAG))

  00551	68 af 00 00 00	 push	 175			; 000000afH
  00556	68 00 00 00 00	 push	 OFFSET ?application_tag_strings@@3PAPBDA ; application_tag_strings
  0055b	8b 85 dc fb ff
	ff		 mov	 eax, DWORD PTR _file_ptr$6[ebp]
  00561	50		 push	 eax
  00562	e8 00 00 00 00	 call	 ?get_next_file_tag@@YGHPAU_iobuf@@QAPBDH@Z ; get_next_file_tag
  00567	89 85 d8 fb ff
	ff		 mov	 DWORD PTR _tag$5[ebp], eax
  0056d	83 bd d8 fb ff
	ff 00		 cmp	 DWORD PTR _tag$5[ebp], 0
  00574	74 16		 je	 SHORT $LN47@recursive_

; 1376 : 								{
; 1377 : 
; 1378 : 									if ((tag == FILE_TAG_ENDIF) || (tag == FILE_TAG_END))

  00576	83 bd d8 fb ff
	ff f4		 cmp	 DWORD PTR _tag$5[ebp], -12 ; fffffff4H
  0057d	74 09		 je	 SHORT $LN49@recursive_
  0057f	83 bd d8 fb ff
	ff f6		 cmp	 DWORD PTR _tag$5[ebp], -10 ; fffffff6H
  00586	75 02		 jne	 SHORT $LN48@recursive_
$LN49@recursive_:

; 1379 : 									{
; 1380 : 
; 1381 : 										break;

  00588	eb 02		 jmp	 SHORT $LN47@recursive_
$LN48@recursive_:

; 1382 : 									}
; 1383 : 								}

  0058a	eb c5		 jmp	 SHORT $LN22@recursive_
$LN47@recursive_:

; 1384 : 							}
; 1385 : 
; 1386 : 							break;

  0058c	e9 fb 00 00 00	 jmp	 $LN12@recursive_

; 1387 : 						}
; 1388 : 
; 1389 : 						case FILE_TAG_ENDIF:
; 1390 : 						{
; 1391 : 
; 1392 : 							break;

  00591	e9 f6 00 00 00	 jmp	 $LN12@recursive_
$LN51@recursive_:

; 1393 : 						}
; 1394 : 
; 1395 : 						case FILE_TAG_SEASON:
; 1396 : 						{
; 1397 : 							// 15JUN09 Casm retrieving season earlier
; 1398 : 							season = get_next_file_int (file_ptr);

  00596	8b 85 dc fb ff
	ff		 mov	 eax, DWORD PTR _file_ptr$6[ebp]
  0059c	50		 push	 eax
  0059d	e8 00 00 00 00	 call	 ?get_next_file_int@@YGHPAU_iobuf@@@Z ; get_next_file_int
  005a2	89 45 e0	 mov	 DWORD PTR _season$[ebp], eax

; 1399 : 
; 1400 : 							break;

  005a5	e9 e2 00 00 00	 jmp	 $LN12@recursive_
$LN52@recursive_:

; 1401 : 						}
; 1402 : 
; 1403 : 						case FILE_TAG_CAMPAIGN_REQUIRES_APACHE_HAVOC:
; 1404 : 						{
; 1405 : 							debug_log("session filter: campaign_title %s", campaign_title);

  005aa	68 00 00 00 00	 push	 OFFSET ?campaign_title@?BN@??recursive_check_campaign_files@@YGXPBDPAPAUSESSION_LIST_DATA_TYPE@@0@Z@4PADA
  005af	68 00 00 00 00	 push	 OFFSET ??_C@_0CC@KNCKNBBG@session?5filter?3?5campaign_title?5@
  005b4	e8 00 00 00 00	 call	 ?debug_log@@YAXPBDZZ	; debug_log
  005b9	83 c4 08	 add	 esp, 8

; 1406 : 							// VJ 050123 aphavoc install hack, do not close map if it exists but EEAH is not offcially installed
; 1407 : 							if (!global_aphavoc_maps)

  005bc	83 3d 00 00 00
	00 00		 cmp	 DWORD PTR ?global_aphavoc_maps@@3HA, 0 ; global_aphavoc_maps
  005c3	75 2a		 jne	 SHORT $LN55@recursive_

; 1408 : 							{
; 1409 : 								if (!get_global_apache_havoc_installed ())

  005c5	83 3d 60 03 00
	00 00		 cmp	 DWORD PTR ?global_options@@3UGLOBAL_OPTIONS_DATA@@A+864, 0
  005cc	75 21		 jne	 SHORT $LN55@recursive_

; 1410 : 								{
; 1411 : 
; 1412 : 									end_flag = TRUE;

  005ce	c7 85 d4 fb ff
	ff 01 00 00 00	 mov	 DWORD PTR _end_flag$4[ebp], 1

; 1413 : 
; 1414 : 									debug_log ("SESSION: Campaign %s required Apache-Havoc to be installed", campaign_title);

  005d8	68 00 00 00 00	 push	 OFFSET ?campaign_title@?BN@??recursive_check_campaign_files@@YGXPBDPAPAUSESSION_LIST_DATA_TYPE@@0@Z@4PADA
  005dd	68 00 00 00 00	 push	 OFFSET ??_C@_0DL@JMGNGKCN@SESSION?3?5Campaign?5?$CFs?5required?5A@
  005e2	e8 00 00 00 00	 call	 ?debug_log@@YAXPBDZZ	; debug_log
  005e7	83 c4 08	 add	 esp, 8

; 1415 : 
; 1416 : 									break;

  005ea	e9 9d 00 00 00	 jmp	 $LN12@recursive_
$LN55@recursive_:

; 1417 : 								}
; 1418 : 							}
; 1419 : 						}
; 1420 : 
; 1421 : 						case FILE_TAG_END:
; 1422 : 						case FILE_TAG_UNKNOWN:
; 1423 : 						{
; 1424 : 
; 1425 : 							end_flag = TRUE;

  005ef	c7 85 d4 fb ff
	ff 01 00 00 00	 mov	 DWORD PTR _end_flag$4[ebp], 1

; 1426 : 
; 1427 : 							if ((!command_line_session_filter) || (strcmp(session_filter_value, "root") != 0))

  005f9	83 3d 00 00 00
	00 00		 cmp	 DWORD PTR ?command_line_session_filter@@3HA, 0 ; command_line_session_filter
  00600	74 16		 je	 SHORT $LN57@recursive_
  00602	68 00 00 00 00	 push	 OFFSET ??_C@_04NBFCGMPH@root@
  00607	68 00 00 00 00	 push	 OFFSET ?session_filter_value@@3PADA ; session_filter_value
  0060c	e8 00 00 00 00	 call	 _strcmp
  00611	83 c4 08	 add	 esp, 8
  00614	85 c0		 test	 eax, eax
  00616	74 74		 je	 SHORT $LN12@recursive_
$LN57@recursive_:

; 1428 : 							{
; 1429 : 								// 15JUN09 Casm retrieving season earlier
; 1430 : 								const char
; 1431 : 									*title;
; 1432 : 								// if host get the Translated campaign name
; 1433 : 								// not hosted game so just use the name
; 1434 : 								title = session_type == SESSION_LIST_TYPE_HOST ? get_trans (campaign_title) :  campaign_title;

  00618	83 7d fc 01	 cmp	 DWORD PTR _session_type$[ebp], 1
  0061c	75 12		 jne	 SHORT $LN65@recursive_
  0061e	68 00 00 00 00	 push	 OFFSET ?campaign_title@?BN@??recursive_check_campaign_files@@YGXPBDPAPAUSESSION_LIST_DATA_TYPE@@0@Z@4PADA
  00623	e8 00 00 00 00	 call	 ?get_trans@@YGPBDPBD@Z	; get_trans
  00628	89 85 0c f2 ff
	ff		 mov	 DWORD PTR tv329[ebp], eax
  0062e	eb 0a		 jmp	 SHORT $LN66@recursive_
$LN65@recursive_:
  00630	c7 85 0c f2 ff
	ff 00 00 00 00	 mov	 DWORD PTR tv329[ebp], OFFSET ?campaign_title@?BN@??recursive_check_campaign_files@@YGXPBDPAPAUSESSION_LIST_DATA_TYPE@@0@Z@4PADA
$LN66@recursive_:
  0063a	8b 85 0c f2 ff
	ff		 mov	 eax, DWORD PTR tv329[ebp]
  00640	89 85 d0 fb ff
	ff		 mov	 DWORD PTR _title$3[ebp], eax

; 1435 : 								if (session_type == SESSION_LIST_TYPE_HOST || (session_type == SESSION_LIST_TYPE_MASTER) || (session_type == SESSION_LIST_TYPE_RESTORE))

  00646	83 7d fc 01	 cmp	 DWORD PTR _session_type$[ebp], 1
  0064a	74 0c		 je	 SHORT $LN59@recursive_
  0064c	83 7d fc 08	 cmp	 DWORD PTR _session_type$[ebp], 8
  00650	74 06		 je	 SHORT $LN59@recursive_
  00652	83 7d fc 04	 cmp	 DWORD PTR _session_type$[ebp], 4
  00656	75 34		 jne	 SHORT $LN12@recursive_
$LN59@recursive_:

; 1436 : 								{
; 1437 : 									add_session (title, session_type, 1, NULL, path, campaign_directory, campaign_filename, warzone_name, list, NULL, season);

  00658	8b 45 e0	 mov	 eax, DWORD PTR _season$[ebp]
  0065b	50		 push	 eax
  0065c	6a 00		 push	 0
  0065e	8b 4d 0c	 mov	 ecx, DWORD PTR _list$[ebp]
  00661	51		 push	 ecx
  00662	8b 15 00 00 00
	00		 mov	 edx, DWORD PTR ?warzone_name@?1??recursive_check_campaign_files@@YGXPBDPAPAUSESSION_LIST_DATA_TYPE@@0@Z@4PADA
  00668	52		 push	 edx
  00669	68 00 00 00 00	 push	 OFFSET ?campaign_filename@?BN@??recursive_check_campaign_files@@YGXPBDPAPAUSESSION_LIST_DATA_TYPE@@0@Z@4PADA
  0066e	68 00 00 00 00	 push	 OFFSET ?campaign_directory@?BN@??recursive_check_campaign_files@@YGXPBDPAPAUSESSION_LIST_DATA_TYPE@@0@Z@4PADA
  00673	68 00 00 00 00	 push	 OFFSET ?path@?BN@??recursive_check_campaign_files@@YGXPBDPAPAUSESSION_LIST_DATA_TYPE@@0@Z@4PADA
  00678	6a 00		 push	 0
  0067a	6a 01		 push	 1
  0067c	8b 45 fc	 mov	 eax, DWORD PTR _session_type$[ebp]
  0067f	50		 push	 eax
  00680	8b 8d d0 fb ff
	ff		 mov	 ecx, DWORD PTR _title$3[ebp]
  00686	51		 push	 ecx
  00687	e8 00 00 00 00	 call	 ?add_session@@YGPAUSESSION_LIST_DATA_TYPE@@PBDW4SESSION_LIST_TYPES@@HPAUSESSION_TABLE_TYPE@@PAD333PAPAU1@0H@Z ; add_session
$LN12@recursive_:

; 1438 : 								}
; 1439 : 							}
; 1440 : 							// Jabberwock 0400201 ends
; 1441 : 
; 1442 : 							break;
; 1443 : 						}
; 1444 : 					}
; 1445 : 				}

  0068c	e9 11 fc ff ff	 jmp	 $LN10@recursive_
$LN11@recursive_:

; 1446 : 
; 1447 : 				fclose (file_ptr);

  00691	8b 85 dc fb ff
	ff		 mov	 eax, DWORD PTR _file_ptr$6[ebp]
  00697	50		 push	 eax
  00698	ff 15 00 00 00
	00		 call	 DWORD PTR __imp__fclose
  0069e	83 c4 04	 add	 esp, 4
$LN34@recursive_:

; 1448 : 			}
; 1449 : 
; 1450 : 			valid_file = get_next_directory_file (directory_listing);

  006a1	8b 45 f4	 mov	 eax, DWORD PTR _directory_listing$[ebp]
  006a4	50		 push	 eax
  006a5	e8 00 00 00 00	 call	 ?get_next_directory_file@@YGHPAUDIRECTORY_FILE_LIST@@@Z ; get_next_directory_file
  006aa	89 45 e4	 mov	 DWORD PTR _valid_file$[ebp], eax

; 1451 : 		}

  006ad	e9 7d fb ff ff	 jmp	 $LN8@recursive_
$LN9@recursive_:

; 1452 : 
; 1453 : 		destroy_directory_file_list (directory_listing);

  006b2	8b 45 f4	 mov	 eax, DWORD PTR _directory_listing$[ebp]
  006b5	50		 push	 eax
  006b6	e8 00 00 00 00	 call	 ?destroy_directory_file_list@@YGXPAUDIRECTORY_FILE_LIST@@@Z ; destroy_directory_file_list
$LN33@recursive_:

; 1454 : 	}
; 1455 : 
; 1456 : 	//
; 1457 : 	// Next, go through any directories, recursing into them.
; 1458 : 	//
; 1459 : 
; 1460 : 	sprintf (directory_search_path, "%s\\*", directory);

  006bb	8b 45 08	 mov	 eax, DWORD PTR _directory$[ebp]
  006be	50		 push	 eax
  006bf	68 00 00 00 00	 push	 OFFSET ??_C@_04EDLLLMBI@?$CFs?2?$CK@
  006c4	68 00 00 00 00	 push	 OFFSET ?directory_search_path@?1??recursive_check_campaign_files@@YGXPBDPAPAUSESSION_LIST_DATA_TYPE@@0@Z@4PADA
  006c9	e8 00 00 00 00	 call	 _sprintf
  006ce	83 c4 0c	 add	 esp, 12			; 0000000cH

; 1461 : 
; 1462 : 	directory_listing = get_first_directory_file (directory_search_path);

  006d1	68 00 00 00 00	 push	 OFFSET ?directory_search_path@?1??recursive_check_campaign_files@@YGXPBDPAPAUSESSION_LIST_DATA_TYPE@@0@Z@4PADA
  006d6	e8 00 00 00 00	 call	 ?get_first_directory_file@@YGPAUDIRECTORY_FILE_LIST@@PBD@Z ; get_first_directory_file
  006db	89 45 f4	 mov	 DWORD PTR _directory_listing$[ebp], eax

; 1463 : 
; 1464 : 	// JB 030313 Enable running out of separate directories
; 1465 : 	if (!directory_listing)

  006de	83 7d f4 00	 cmp	 DWORD PTR _directory_listing$[ebp], 0
  006e2	75 5b		 jne	 SHORT $LN60@recursive_

; 1466 : 	{
; 1467 : 		char fn[1024];
; 1468 : 		fn[0] = 0;

  006e4	b8 01 00 00 00	 mov	 eax, 1
  006e9	6b c8 00	 imul	 ecx, eax, 0
  006ec	c6 84 0d d0 f7
	ff ff 00	 mov	 BYTE PTR _fn$2[ebp+ecx], 0

; 1469 : 		strcpy(fn, comanche_hokum_installation_path);

  006f4	68 00 00 00 00	 push	 OFFSET ?comanche_hokum_installation_path@@3PADA ; comanche_hokum_installation_path
  006f9	8d 85 d0 f7 ff
	ff		 lea	 eax, DWORD PTR _fn$2[ebp]
  006ff	50		 push	 eax
  00700	e8 00 00 00 00	 call	 _strcpy
  00705	83 c4 08	 add	 esp, 8

; 1470 : 		strcat(fn, "\\common\\");

  00708	68 00 00 00 00	 push	 OFFSET ??_C@_08EMMAHODI@?2common?2@
  0070d	8d 85 d0 f7 ff
	ff		 lea	 eax, DWORD PTR _fn$2[ebp]
  00713	50		 push	 eax
  00714	e8 00 00 00 00	 call	 _strcat
  00719	83 c4 08	 add	 esp, 8

; 1471 : 		strcat(fn, directory_search_path);

  0071c	68 00 00 00 00	 push	 OFFSET ?directory_search_path@?1??recursive_check_campaign_files@@YGXPBDPAPAUSESSION_LIST_DATA_TYPE@@0@Z@4PADA
  00721	8d 85 d0 f7 ff
	ff		 lea	 eax, DWORD PTR _fn$2[ebp]
  00727	50		 push	 eax
  00728	e8 00 00 00 00	 call	 _strcat
  0072d	83 c4 08	 add	 esp, 8

; 1472 : 
; 1473 : 		directory_listing = get_first_directory_file ( fn );

  00730	8d 85 d0 f7 ff
	ff		 lea	 eax, DWORD PTR _fn$2[ebp]
  00736	50		 push	 eax
  00737	e8 00 00 00 00	 call	 ?get_first_directory_file@@YGPAUDIRECTORY_FILE_LIST@@PBD@Z ; get_first_directory_file
  0073c	89 45 f4	 mov	 DWORD PTR _directory_listing$[ebp], eax
$LN60@recursive_:

; 1474 : 	}
; 1475 : 
; 1476 : 	if (directory_listing)

  0073f	83 7d f4 00	 cmp	 DWORD PTR _directory_listing$[ebp], 0
  00743	0f 84 a5 00 00
	00		 je	 $LN1@recursive_

; 1477 : 	{
; 1478 : 
; 1479 : 		valid_file = TRUE;

  00749	c7 45 e4 01 00
	00 00		 mov	 DWORD PTR _valid_file$[ebp], 1
$LN24@recursive_:

; 1480 : 
; 1481 : 		while (valid_file)

  00750	83 7d e4 00	 cmp	 DWORD PTR _valid_file$[ebp], 0
  00754	0f 84 8b 00 00
	00		 je	 $LN25@recursive_

; 1482 : 		{
; 1483 : 
; 1484 : 			if (get_directory_file_type (directory_listing) == DIRECTORY_FILE_TYPE_DIRECTORY)

  0075a	8b 45 f4	 mov	 eax, DWORD PTR _directory_listing$[ebp]
  0075d	50		 push	 eax
  0075e	e8 00 00 00 00	 call	 ?get_directory_file_type@@YG?AW4DIRECTORY_FILE_TYPES@@PAUDIRECTORY_FILE_LIST@@@Z ; get_directory_file_type
  00763	83 f8 01	 cmp	 eax, 1
  00766	75 6c		 jne	 SHORT $LN62@recursive_

; 1485 : 			{
; 1486 : 
; 1487 : 				if ((strcmp (get_directory_file_filename (directory_listing), ".") != 0) &&

  00768	68 00 00 00 00	 push	 OFFSET ??_C@_01LFCBOECM@?4@
  0076d	8b 45 f4	 mov	 eax, DWORD PTR _directory_listing$[ebp]
  00770	50		 push	 eax
  00771	e8 00 00 00 00	 call	 ?get_directory_file_filename@@YGPBDPAUDIRECTORY_FILE_LIST@@@Z ; get_directory_file_filename
  00776	50		 push	 eax
  00777	e8 00 00 00 00	 call	 _strcmp
  0077c	83 c4 08	 add	 esp, 8
  0077f	85 c0		 test	 eax, eax
  00781	74 51		 je	 SHORT $LN62@recursive_
  00783	68 00 00 00 00	 push	 OFFSET ??_C@_02DJGKEECL@?4?4@
  00788	8b 45 f4	 mov	 eax, DWORD PTR _directory_listing$[ebp]
  0078b	50		 push	 eax
  0078c	e8 00 00 00 00	 call	 ?get_directory_file_filename@@YGPBDPAUDIRECTORY_FILE_LIST@@@Z ; get_directory_file_filename
  00791	50		 push	 eax
  00792	e8 00 00 00 00	 call	 _strcmp
  00797	83 c4 08	 add	 esp, 8
  0079a	85 c0		 test	 eax, eax
  0079c	74 36		 je	 SHORT $LN62@recursive_

; 1488 : 						(strcmp (get_directory_file_filename (directory_listing), "..") != 0))
; 1489 : 				{
; 1490 : 
; 1491 : 					char
; 1492 : 						full_directory [1024];
; 1493 : 
; 1494 : 					//
; 1495 : 					// Create the full directory name
; 1496 : 					//
; 1497 : 
; 1498 : 					sprintf (full_directory, "%s\\%s", directory, get_directory_file_filename (directory_listing));

  0079e	8b 45 f4	 mov	 eax, DWORD PTR _directory_listing$[ebp]
  007a1	50		 push	 eax
  007a2	e8 00 00 00 00	 call	 ?get_directory_file_filename@@YGPBDPAUDIRECTORY_FILE_LIST@@@Z ; get_directory_file_filename
  007a7	50		 push	 eax
  007a8	8b 4d 08	 mov	 ecx, DWORD PTR _directory$[ebp]
  007ab	51		 push	 ecx
  007ac	68 00 00 00 00	 push	 OFFSET ??_C@_05BMGBEOOC@?$CFs?2?$CFs@
  007b1	8d 95 d0 f3 ff
	ff		 lea	 edx, DWORD PTR _full_directory$1[ebp]
  007b7	52		 push	 edx
  007b8	e8 00 00 00 00	 call	 _sprintf
  007bd	83 c4 10	 add	 esp, 16			; 00000010H

; 1499 : 
; 1500 : 					//
; 1501 : 					// Recurse into this directory
; 1502 : 					//
; 1503 : 
; 1504 : 					recursive_check_campaign_files (full_directory, list, extension);

  007c0	8b 45 10	 mov	 eax, DWORD PTR _extension$[ebp]
  007c3	50		 push	 eax
  007c4	8b 4d 0c	 mov	 ecx, DWORD PTR _list$[ebp]
  007c7	51		 push	 ecx
  007c8	8d 95 d0 f3 ff
	ff		 lea	 edx, DWORD PTR _full_directory$1[ebp]
  007ce	52		 push	 edx
  007cf	e8 00 00 00 00	 call	 ?recursive_check_campaign_files@@YGXPBDPAPAUSESSION_LIST_DATA_TYPE@@0@Z ; recursive_check_campaign_files
$LN62@recursive_:

; 1505 : 				}
; 1506 : 			}
; 1507 : 
; 1508 : 			valid_file = get_next_directory_file (directory_listing);

  007d4	8b 45 f4	 mov	 eax, DWORD PTR _directory_listing$[ebp]
  007d7	50		 push	 eax
  007d8	e8 00 00 00 00	 call	 ?get_next_directory_file@@YGHPAUDIRECTORY_FILE_LIST@@@Z ; get_next_directory_file
  007dd	89 45 e4	 mov	 DWORD PTR _valid_file$[ebp], eax

; 1509 : 		}

  007e0	e9 6b ff ff ff	 jmp	 $LN24@recursive_
$LN25@recursive_:

; 1510 : 
; 1511 : 		destroy_directory_file_list (directory_listing);

  007e5	8b 45 f4	 mov	 eax, DWORD PTR _directory_listing$[ebp]
  007e8	50		 push	 eax
  007e9	e8 00 00 00 00	 call	 ?destroy_directory_file_list@@YGXPAUDIRECTORY_FILE_LIST@@@Z ; destroy_directory_file_list
$LN1@recursive_:

; 1512 : 	}
; 1513 : }

  007ee	5f		 pop	 edi
  007ef	5e		 pop	 esi
  007f0	5b		 pop	 ebx
  007f1	8b e5		 mov	 esp, ebp
  007f3	5d		 pop	 ebp
  007f4	c2 0c 00	 ret	 12			; 0000000cH
  007f7	90		 npad	 1
$LN68@recursive_:
  007f8	00 00 00 00	 DD	 $LN55@recursive_
  007fc	00 00 00 00	 DD	 $LN45@recursive_
  00800	00 00 00 00	 DD	 $LN20@recursive_
  00804	00 00 00 00	 DD	 $LN52@recursive_
  00808	00 00 00 00	 DD	 $LN18@recursive_
  0080c	00 00 00 00	 DD	 $LN16@recursive_
  00810	00 00 00 00	 DD	 $LN44@recursive_
  00814	00 00 00 00	 DD	 $LN36@recursive_
  00818	00 00 00 00	 DD	 $LN35@recursive_
  0081c	00 00 00 00	 DD	 $LN51@recursive_
  00820	00 00 00 00	 DD	 $LN12@recursive_
$LN67@recursive_:
  00824	00		 DB	 0
  00825	0a		 DB	 10			; 0000000aH
  00826	0a		 DB	 10			; 0000000aH
  00827	0a		 DB	 10			; 0000000aH
  00828	0a		 DB	 10			; 0000000aH
  00829	0a		 DB	 10			; 0000000aH
  0082a	0a		 DB	 10			; 0000000aH
  0082b	0a		 DB	 10			; 0000000aH
  0082c	0a		 DB	 10			; 0000000aH
  0082d	0a		 DB	 10			; 0000000aH
  0082e	0a		 DB	 10			; 0000000aH
  0082f	0a		 DB	 10			; 0000000aH
  00830	0a		 DB	 10			; 0000000aH
  00831	01		 DB	 1
  00832	0a		 DB	 10			; 0000000aH
  00833	0a		 DB	 10			; 0000000aH
  00834	0a		 DB	 10			; 0000000aH
  00835	0a		 DB	 10			; 0000000aH
  00836	0a		 DB	 10			; 0000000aH
  00837	0a		 DB	 10			; 0000000aH
  00838	00		 DB	 0
  00839	0a		 DB	 10			; 0000000aH
  0083a	0a		 DB	 10			; 0000000aH
  0083b	0a		 DB	 10			; 0000000aH
  0083c	0a		 DB	 10			; 0000000aH
  0083d	0a		 DB	 10			; 0000000aH
  0083e	0a		 DB	 10			; 0000000aH
  0083f	0a		 DB	 10			; 0000000aH
  00840	0a		 DB	 10			; 0000000aH
  00841	0a		 DB	 10			; 0000000aH
  00842	0a		 DB	 10			; 0000000aH
  00843	0a		 DB	 10			; 0000000aH
  00844	0a		 DB	 10			; 0000000aH
  00845	0a		 DB	 10			; 0000000aH
  00846	0a		 DB	 10			; 0000000aH
  00847	0a		 DB	 10			; 0000000aH
  00848	0a		 DB	 10			; 0000000aH
  00849	0a		 DB	 10			; 0000000aH
  0084a	0a		 DB	 10			; 0000000aH
  0084b	0a		 DB	 10			; 0000000aH
  0084c	0a		 DB	 10			; 0000000aH
  0084d	0a		 DB	 10			; 0000000aH
  0084e	0a		 DB	 10			; 0000000aH
  0084f	02		 DB	 2
  00850	03		 DB	 3
  00851	0a		 DB	 10			; 0000000aH
  00852	0a		 DB	 10			; 0000000aH
  00853	0a		 DB	 10			; 0000000aH
  00854	0a		 DB	 10			; 0000000aH
  00855	0a		 DB	 10			; 0000000aH
  00856	0a		 DB	 10			; 0000000aH
  00857	0a		 DB	 10			; 0000000aH
  00858	0a		 DB	 10			; 0000000aH
  00859	0a		 DB	 10			; 0000000aH
  0085a	0a		 DB	 10			; 0000000aH
  0085b	0a		 DB	 10			; 0000000aH
  0085c	0a		 DB	 10			; 0000000aH
  0085d	0a		 DB	 10			; 0000000aH
  0085e	0a		 DB	 10			; 0000000aH
  0085f	0a		 DB	 10			; 0000000aH
  00860	0a		 DB	 10			; 0000000aH
  00861	0a		 DB	 10			; 0000000aH
  00862	0a		 DB	 10			; 0000000aH
  00863	0a		 DB	 10			; 0000000aH
  00864	0a		 DB	 10			; 0000000aH
  00865	0a		 DB	 10			; 0000000aH
  00866	0a		 DB	 10			; 0000000aH
  00867	0a		 DB	 10			; 0000000aH
  00868	0a		 DB	 10			; 0000000aH
  00869	0a		 DB	 10			; 0000000aH
  0086a	0a		 DB	 10			; 0000000aH
  0086b	0a		 DB	 10			; 0000000aH
  0086c	0a		 DB	 10			; 0000000aH
  0086d	0a		 DB	 10			; 0000000aH
  0086e	0a		 DB	 10			; 0000000aH
  0086f	0a		 DB	 10			; 0000000aH
  00870	0a		 DB	 10			; 0000000aH
  00871	0a		 DB	 10			; 0000000aH
  00872	0a		 DB	 10			; 0000000aH
  00873	0a		 DB	 10			; 0000000aH
  00874	0a		 DB	 10			; 0000000aH
  00875	0a		 DB	 10			; 0000000aH
  00876	0a		 DB	 10			; 0000000aH
  00877	0a		 DB	 10			; 0000000aH
  00878	0a		 DB	 10			; 0000000aH
  00879	0a		 DB	 10			; 0000000aH
  0087a	0a		 DB	 10			; 0000000aH
  0087b	0a		 DB	 10			; 0000000aH
  0087c	0a		 DB	 10			; 0000000aH
  0087d	0a		 DB	 10			; 0000000aH
  0087e	0a		 DB	 10			; 0000000aH
  0087f	0a		 DB	 10			; 0000000aH
  00880	0a		 DB	 10			; 0000000aH
  00881	0a		 DB	 10			; 0000000aH
  00882	0a		 DB	 10			; 0000000aH
  00883	0a		 DB	 10			; 0000000aH
  00884	0a		 DB	 10			; 0000000aH
  00885	0a		 DB	 10			; 0000000aH
  00886	0a		 DB	 10			; 0000000aH
  00887	0a		 DB	 10			; 0000000aH
  00888	0a		 DB	 10			; 0000000aH
  00889	0a		 DB	 10			; 0000000aH
  0088a	0a		 DB	 10			; 0000000aH
  0088b	0a		 DB	 10			; 0000000aH
  0088c	0a		 DB	 10			; 0000000aH
  0088d	0a		 DB	 10			; 0000000aH
  0088e	0a		 DB	 10			; 0000000aH
  0088f	0a		 DB	 10			; 0000000aH
  00890	0a		 DB	 10			; 0000000aH
  00891	0a		 DB	 10			; 0000000aH
  00892	0a		 DB	 10			; 0000000aH
  00893	0a		 DB	 10			; 0000000aH
  00894	0a		 DB	 10			; 0000000aH
  00895	04		 DB	 4
  00896	05		 DB	 5
  00897	0a		 DB	 10			; 0000000aH
  00898	0a		 DB	 10			; 0000000aH
  00899	0a		 DB	 10			; 0000000aH
  0089a	0a		 DB	 10			; 0000000aH
  0089b	0a		 DB	 10			; 0000000aH
  0089c	0a		 DB	 10			; 0000000aH
  0089d	0a		 DB	 10			; 0000000aH
  0089e	0a		 DB	 10			; 0000000aH
  0089f	0a		 DB	 10			; 0000000aH
  008a0	0a		 DB	 10			; 0000000aH
  008a1	0a		 DB	 10			; 0000000aH
  008a2	0a		 DB	 10			; 0000000aH
  008a3	0a		 DB	 10			; 0000000aH
  008a4	0a		 DB	 10			; 0000000aH
  008a5	0a		 DB	 10			; 0000000aH
  008a6	0a		 DB	 10			; 0000000aH
  008a7	0a		 DB	 10			; 0000000aH
  008a8	0a		 DB	 10			; 0000000aH
  008a9	0a		 DB	 10			; 0000000aH
  008aa	0a		 DB	 10			; 0000000aH
  008ab	0a		 DB	 10			; 0000000aH
  008ac	0a		 DB	 10			; 0000000aH
  008ad	0a		 DB	 10			; 0000000aH
  008ae	0a		 DB	 10			; 0000000aH
  008af	0a		 DB	 10			; 0000000aH
  008b0	0a		 DB	 10			; 0000000aH
  008b1	0a		 DB	 10			; 0000000aH
  008b2	0a		 DB	 10			; 0000000aH
  008b3	0a		 DB	 10			; 0000000aH
  008b4	0a		 DB	 10			; 0000000aH
  008b5	0a		 DB	 10			; 0000000aH
  008b6	0a		 DB	 10			; 0000000aH
  008b7	0a		 DB	 10			; 0000000aH
  008b8	0a		 DB	 10			; 0000000aH
  008b9	0a		 DB	 10			; 0000000aH
  008ba	0a		 DB	 10			; 0000000aH
  008bb	0a		 DB	 10			; 0000000aH
  008bc	0a		 DB	 10			; 0000000aH
  008bd	0a		 DB	 10			; 0000000aH
  008be	0a		 DB	 10			; 0000000aH
  008bf	0a		 DB	 10			; 0000000aH
  008c0	0a		 DB	 10			; 0000000aH
  008c1	0a		 DB	 10			; 0000000aH
  008c2	0a		 DB	 10			; 0000000aH
  008c3	0a		 DB	 10			; 0000000aH
  008c4	0a		 DB	 10			; 0000000aH
  008c5	0a		 DB	 10			; 0000000aH
  008c6	0a		 DB	 10			; 0000000aH
  008c7	0a		 DB	 10			; 0000000aH
  008c8	06		 DB	 6
  008c9	0a		 DB	 10			; 0000000aH
  008ca	0a		 DB	 10			; 0000000aH
  008cb	0a		 DB	 10			; 0000000aH
  008cc	0a		 DB	 10			; 0000000aH
  008cd	0a		 DB	 10			; 0000000aH
  008ce	0a		 DB	 10			; 0000000aH
  008cf	0a		 DB	 10			; 0000000aH
  008d0	0a		 DB	 10			; 0000000aH
  008d1	0a		 DB	 10			; 0000000aH
  008d2	0a		 DB	 10			; 0000000aH
  008d3	0a		 DB	 10			; 0000000aH
  008d4	0a		 DB	 10			; 0000000aH
  008d5	0a		 DB	 10			; 0000000aH
  008d6	0a		 DB	 10			; 0000000aH
  008d7	0a		 DB	 10			; 0000000aH
  008d8	0a		 DB	 10			; 0000000aH
  008d9	0a		 DB	 10			; 0000000aH
  008da	0a		 DB	 10			; 0000000aH
  008db	0a		 DB	 10			; 0000000aH
  008dc	0a		 DB	 10			; 0000000aH
  008dd	0a		 DB	 10			; 0000000aH
  008de	0a		 DB	 10			; 0000000aH
  008df	0a		 DB	 10			; 0000000aH
  008e0	0a		 DB	 10			; 0000000aH
  008e1	0a		 DB	 10			; 0000000aH
  008e2	07		 DB	 7
  008e3	0a		 DB	 10			; 0000000aH
  008e4	0a		 DB	 10			; 0000000aH
  008e5	0a		 DB	 10			; 0000000aH
  008e6	0a		 DB	 10			; 0000000aH
  008e7	0a		 DB	 10			; 0000000aH
  008e8	0a		 DB	 10			; 0000000aH
  008e9	08		 DB	 8
  008ea	0a		 DB	 10			; 0000000aH
  008eb	0a		 DB	 10			; 0000000aH
  008ec	0a		 DB	 10			; 0000000aH
  008ed	0a		 DB	 10			; 0000000aH
  008ee	0a		 DB	 10			; 0000000aH
  008ef	0a		 DB	 10			; 0000000aH
  008f0	09		 DB	 9
?recursive_check_campaign_files@@YGXPBDPAPAUSESSION_LIST_DATA_TYPE@@0@Z ENDP ; recursive_check_campaign_files
_TEXT	ENDS
; Function compile flags: /Odtp /ZI
; File c:\users\nhv90\projects\eech\aphavoc\source\ui_menu\session\uisession.c
;	COMDAT ?add_session@@YGPAUSESSION_LIST_DATA_TYPE@@PBDW4SESSION_LIST_TYPES@@HPAUSESSION_TABLE_TYPE@@PAD333PAPAU1@0H@Z
_TEXT	SEGMENT
_path$1 = -548						; size = 512
_last_ptr$2 = -36					; size = 4
_ptr$3 = -32						; size = 4
_new_session$ = -28					; size = 4
_insert_position$ = -24					; size = 4
_session_item$ = -20					; size = 4
_child$ = -16						; size = 4
_unique_session$ = -12					; size = 4
_filename_ptr$ = -8					; size = 4
_ptr$ = -4						; size = 4
_title$ = 8						; size = 4
_type$ = 12						; size = 4
_type_id$ = 16						; size = 4
_join_session$ = 20					; size = 4
_path$ = 24						; size = 4
_directory$ = 28					; size = 4
_filename$ = 32						; size = 4
_warzone_name$ = 36					; size = 4
_list$ = 40						; size = 4
_address$ = 44						; size = 4
_season$ = 48						; size = 4
?add_session@@YGPAUSESSION_LIST_DATA_TYPE@@PBDW4SESSION_LIST_TYPES@@HPAUSESSION_TABLE_TYPE@@PAD333PAPAU1@0H@Z PROC ; add_session, COMDAT

; 228  : {

  00000	55		 push	 ebp
  00001	8b ec		 mov	 ebp, esp
  00003	81 ec a4 02 00
	00		 sub	 esp, 676		; 000002a4H
  00009	53		 push	 ebx
  0000a	56		 push	 esi
  0000b	57		 push	 edi

; 229  : 
; 230  : 	char
; 231  : 		*ptr,
; 232  : 		*filename_ptr;
; 233  : 
; 234  : 	int
; 235  : 		unique_session;
; 236  : 
; 237  : 	session_list_data_type
; 238  : 		*child,
; 239  : 		*session_item,
; 240  : 		*insert_position,
; 241  : 		*new_session;
; 242  : 
; 243  : 	new_session = (session_list_data_type *) malloc_heap_mem (sizeof (session_list_data_type));

  0000c	68 a8 02 00 00	 push	 680			; 000002a8H
  00011	e8 00 00 00 00	 call	 ?malloc_heap_memory@@YGPAXI@Z ; malloc_heap_memory
  00016	89 45 e4	 mov	 DWORD PTR _new_session$[ebp], eax

; 244  : 
; 245  : 	memset (new_session, 0, sizeof (session_list_data_type));

  00019	68 a8 02 00 00	 push	 680			; 000002a8H
  0001e	6a 00		 push	 0
  00020	8b 45 e4	 mov	 eax, DWORD PTR _new_session$[ebp]
  00023	50		 push	 eax
  00024	e8 00 00 00 00	 call	 _memset
  00029	83 c4 0c	 add	 esp, 12			; 0000000cH

; 246  : 
; 247  : 	new_session->title = (char *) malloc_heap_mem (strlen (title) + 1);

  0002c	8b 45 08	 mov	 eax, DWORD PTR _title$[ebp]
  0002f	50		 push	 eax
  00030	e8 00 00 00 00	 call	 _strlen
  00035	83 c4 04	 add	 esp, 4
  00038	83 c0 01	 add	 eax, 1
  0003b	50		 push	 eax
  0003c	e8 00 00 00 00	 call	 ?malloc_heap_memory@@YGPAXI@Z ; malloc_heap_memory
  00041	8b 4d e4	 mov	 ecx, DWORD PTR _new_session$[ebp]
  00044	89 41 04	 mov	 DWORD PTR [ecx+4], eax

; 248  : 	if (address)

  00047	83 7d 2c 00	 cmp	 DWORD PTR _address$[ebp], 0
  0004b	74 1b		 je	 SHORT $LN6@add_sessio

; 249  : 		sprintf (new_session->ip_address, "%s", address);

  0004d	8b 45 2c	 mov	 eax, DWORD PTR _address$[ebp]
  00050	50		 push	 eax
  00051	68 00 00 00 00	 push	 OFFSET ??_C@_02DKCKIIND@?$CFs@
  00056	8b 4d e4	 mov	 ecx, DWORD PTR _new_session$[ebp]
  00059	81 c1 9c 01 00
	00		 add	 ecx, 412		; 0000019cH
  0005f	51		 push	 ecx
  00060	e8 00 00 00 00	 call	 _sprintf
  00065	83 c4 0c	 add	 esp, 12			; 0000000cH
$LN6@add_sessio:

; 250  : 
; 251  : 	// 15JUN09 Casm retrieving season earlier
; 252  : 	new_session->season = season;

  00068	8b 45 e4	 mov	 eax, DWORD PTR _new_session$[ebp]
  0006b	8b 4d 30	 mov	 ecx, DWORD PTR _season$[ebp]
  0006e	89 88 9c 02 00
	00		 mov	 DWORD PTR [eax+668], ecx

; 253  : 
; 254  : 	// test
; 255  : 	if (type == SESSION_LIST_TYPE_RESTORE)

  00074	83 7d 0c 04	 cmp	 DWORD PTR _type$[ebp], 4
  00078	0f 85 c7 00 00
	00		 jne	 $LN7@add_sessio

; 256  : 	{
; 257  : 
; 258  : 		// strip off "campaign\" part of filename
; 259  : 		filename_ptr = strstr (filename, "\\");

  0007e	68 00 00 00 00	 push	 OFFSET ??_C@_01KICIPPFI@?2@
  00083	8b 45 20	 mov	 eax, DWORD PTR _filename$[ebp]
  00086	50		 push	 eax
  00087	e8 00 00 00 00	 call	 ?strstr@@YAPADQADQBD@Z	; strstr
  0008c	83 c4 08	 add	 esp, 8
  0008f	89 45 f8	 mov	 DWORD PTR _filename_ptr$[ebp], eax

; 260  : 
; 261  : 		if (filename_ptr)

  00092	83 7d f8 00	 cmp	 DWORD PTR _filename_ptr$[ebp], 0
  00096	74 5b		 je	 SHORT $LN9@add_sessio

; 262  : 		{
; 263  : 
; 264  : 			// advance ptr past '\'
; 265  : 
; 266  : 			filename_ptr ++;

  00098	8b 45 f8	 mov	 eax, DWORD PTR _filename_ptr$[ebp]
  0009b	83 c0 01	 add	 eax, 1
  0009e	89 45 f8	 mov	 DWORD PTR _filename_ptr$[ebp], eax

; 267  : 
; 268  : 			//new_session->displayed_title = (char *) malloc_heap_mem (strlen (title) + strlen (filename_ptr) + 4);
; 269  : 			//sprintf (new_session->displayed_title, "%s (%s)", title, filename_ptr);
; 270  : 
; 271  : 			new_session->displayed_title = (char *) malloc_heap_mem (strlen (filename_ptr) + 1);

  000a1	8b 45 f8	 mov	 eax, DWORD PTR _filename_ptr$[ebp]
  000a4	50		 push	 eax
  000a5	e8 00 00 00 00	 call	 _strlen
  000aa	83 c4 04	 add	 esp, 4
  000ad	83 c0 01	 add	 eax, 1
  000b0	50		 push	 eax
  000b1	e8 00 00 00 00	 call	 ?malloc_heap_memory@@YGPAXI@Z ; malloc_heap_memory
  000b6	8b 4d e4	 mov	 ecx, DWORD PTR _new_session$[ebp]
  000b9	89 01		 mov	 DWORD PTR [ecx], eax

; 272  : 
; 273  : 			sprintf (new_session->displayed_title, "%s", filename_ptr);

  000bb	8b 45 f8	 mov	 eax, DWORD PTR _filename_ptr$[ebp]
  000be	50		 push	 eax
  000bf	68 00 00 00 00	 push	 OFFSET ??_C@_02DKCKIIND@?$CFs@
  000c4	8b 4d e4	 mov	 ecx, DWORD PTR _new_session$[ebp]
  000c7	8b 11		 mov	 edx, DWORD PTR [ecx]
  000c9	52		 push	 edx
  000ca	e8 00 00 00 00	 call	 _sprintf
  000cf	83 c4 0c	 add	 esp, 12			; 0000000cH

; 274  : 
; 275  : 			ptr = strrchr (new_session->displayed_title, '.');

  000d2	6a 2e		 push	 46			; 0000002eH
  000d4	8b 45 e4	 mov	 eax, DWORD PTR _new_session$[ebp]
  000d7	8b 08		 mov	 ecx, DWORD PTR [eax]
  000d9	51		 push	 ecx
  000da	e8 00 00 00 00	 call	 ?strrchr@@YAPADQADH@Z	; strrchr
  000df	83 c4 08	 add	 esp, 8
  000e2	89 45 fc	 mov	 DWORD PTR _ptr$[ebp], eax

; 276  : 
; 277  : 			if (ptr)

  000e5	83 7d fc 00	 cmp	 DWORD PTR _ptr$[ebp], 0
  000e9	74 06		 je	 SHORT $LN11@add_sessio

; 278  : 			{
; 279  : 
; 280  : 				*ptr = '\0';

  000eb	8b 45 fc	 mov	 eax, DWORD PTR _ptr$[ebp]
  000ee	c6 00 00	 mov	 BYTE PTR [eax], 0
$LN11@add_sessio:

; 281  : 			}
; 282  : 		}
; 283  : 		else

  000f1	eb 50		 jmp	 SHORT $LN10@add_sessio
$LN9@add_sessio:

; 284  : 		{
; 285  : 
; 286  : 			//new_session->displayed_title = (char *) malloc_heap_mem (strlen (title) + strlen (filename) + 4);
; 287  : 			//sprintf (new_session->displayed_title, "%s (%s)", title, filename);
; 288  : 
; 289  : 			new_session->displayed_title = (char *) malloc_heap_mem (strlen (filename) + 1);

  000f3	8b 45 20	 mov	 eax, DWORD PTR _filename$[ebp]
  000f6	50		 push	 eax
  000f7	e8 00 00 00 00	 call	 _strlen
  000fc	83 c4 04	 add	 esp, 4
  000ff	83 c0 01	 add	 eax, 1
  00102	50		 push	 eax
  00103	e8 00 00 00 00	 call	 ?malloc_heap_memory@@YGPAXI@Z ; malloc_heap_memory
  00108	8b 4d e4	 mov	 ecx, DWORD PTR _new_session$[ebp]
  0010b	89 01		 mov	 DWORD PTR [ecx], eax

; 290  : 
; 291  : 			sprintf (new_session->displayed_title, "%s", filename);

  0010d	8b 45 20	 mov	 eax, DWORD PTR _filename$[ebp]
  00110	50		 push	 eax
  00111	68 00 00 00 00	 push	 OFFSET ??_C@_02DKCKIIND@?$CFs@
  00116	8b 4d e4	 mov	 ecx, DWORD PTR _new_session$[ebp]
  00119	8b 11		 mov	 edx, DWORD PTR [ecx]
  0011b	52		 push	 edx
  0011c	e8 00 00 00 00	 call	 _sprintf
  00121	83 c4 0c	 add	 esp, 12			; 0000000cH

; 292  : 
; 293  : 			ptr = strrchr (new_session->displayed_title, '.');

  00124	6a 2e		 push	 46			; 0000002eH
  00126	8b 45 e4	 mov	 eax, DWORD PTR _new_session$[ebp]
  00129	8b 08		 mov	 ecx, DWORD PTR [eax]
  0012b	51		 push	 ecx
  0012c	e8 00 00 00 00	 call	 ?strrchr@@YAPADQADH@Z	; strrchr
  00131	83 c4 08	 add	 esp, 8
  00134	89 45 fc	 mov	 DWORD PTR _ptr$[ebp], eax

; 294  : 
; 295  : 			if (ptr)

  00137	83 7d fc 00	 cmp	 DWORD PTR _ptr$[ebp], 0
  0013b	74 06		 je	 SHORT $LN10@add_sessio

; 296  : 			{
; 297  : 
; 298  : 				*ptr = '\0';

  0013d	8b 45 fc	 mov	 eax, DWORD PTR _ptr$[ebp]
  00140	c6 00 00	 mov	 BYTE PTR [eax], 0
$LN10@add_sessio:

; 299  : 			}
; 300  : 		}
; 301  : 	}
; 302  : 	else

  00143	eb 31		 jmp	 SHORT $LN8@add_sessio
$LN7@add_sessio:

; 303  : 	{
; 304  : 
; 305  : 		new_session->displayed_title = (char *) malloc_heap_mem (strlen (title) + 1);

  00145	8b 45 08	 mov	 eax, DWORD PTR _title$[ebp]
  00148	50		 push	 eax
  00149	e8 00 00 00 00	 call	 _strlen
  0014e	83 c4 04	 add	 esp, 4
  00151	83 c0 01	 add	 eax, 1
  00154	50		 push	 eax
  00155	e8 00 00 00 00	 call	 ?malloc_heap_memory@@YGPAXI@Z ; malloc_heap_memory
  0015a	8b 4d e4	 mov	 ecx, DWORD PTR _new_session$[ebp]
  0015d	89 01		 mov	 DWORD PTR [ecx], eax

; 306  : 
; 307  : 		sprintf (new_session->displayed_title, "%s", title);

  0015f	8b 45 08	 mov	 eax, DWORD PTR _title$[ebp]
  00162	50		 push	 eax
  00163	68 00 00 00 00	 push	 OFFSET ??_C@_02DKCKIIND@?$CFs@
  00168	8b 4d e4	 mov	 ecx, DWORD PTR _new_session$[ebp]
  0016b	8b 11		 mov	 edx, DWORD PTR [ecx]
  0016d	52		 push	 edx
  0016e	e8 00 00 00 00	 call	 _sprintf
  00173	83 c4 0c	 add	 esp, 12			; 0000000cH
$LN8@add_sessio:

; 308  : 	}
; 309  : 	// test
; 310  : 
; 311  : 	// work out where new item belongs in list (Alphabetically)
; 312  : 
; 313  : 	session_item = *list;

  00176	8b 45 28	 mov	 eax, DWORD PTR _list$[ebp]
  00179	8b 08		 mov	 ecx, DWORD PTR [eax]
  0017b	89 4d ec	 mov	 DWORD PTR _session_item$[ebp], ecx

; 314  : 
; 315  : 	insert_position = NULL;

  0017e	c7 45 e8 00 00
	00 00		 mov	 DWORD PTR _insert_position$[ebp], 0

; 316  : 
; 317  : 	unique_session = TRUE;

  00185	c7 45 f4 01 00
	00 00		 mov	 DWORD PTR _unique_session$[ebp], 1
$LN2@add_sessio:

; 318  : 
; 319  : 	while (session_item)

  0018c	83 7d ec 00	 cmp	 DWORD PTR _session_item$[ebp], 0
  00190	0f 84 98 00 00
	00		 je	 $LN3@add_sessio

; 320  : 	{
; 321  : 
; 322  : 		//
; 323  : 		// non-unique sessions
; 324  : 		//
; 325  : 
; 326  : 		if ((strcmp (new_session->displayed_title, session_item->displayed_title) == 0) && (type == session_item->type))

  00196	8b 45 ec	 mov	 eax, DWORD PTR _session_item$[ebp]
  00199	8b 08		 mov	 ecx, DWORD PTR [eax]
  0019b	51		 push	 ecx
  0019c	8b 55 e4	 mov	 edx, DWORD PTR _new_session$[ebp]
  0019f	8b 02		 mov	 eax, DWORD PTR [edx]
  001a1	50		 push	 eax
  001a2	e8 00 00 00 00	 call	 _strcmp
  001a7	83 c4 08	 add	 esp, 8
  001aa	85 c0		 test	 eax, eax
  001ac	75 1a		 jne	 SHORT $LN13@add_sessio
  001ae	8b 45 ec	 mov	 eax, DWORD PTR _session_item$[ebp]
  001b1	8b 4d 0c	 mov	 ecx, DWORD PTR _type$[ebp]
  001b4	3b 48 08	 cmp	 ecx, DWORD PTR [eax+8]
  001b7	75 0f		 jne	 SHORT $LN13@add_sessio

; 327  : 		{
; 328  : 
; 329  : 			unique_session = FALSE;

  001b9	c7 45 f4 00 00
	00 00		 mov	 DWORD PTR _unique_session$[ebp], 0

; 330  : 
; 331  : 			insert_position = session_item;

  001c0	8b 45 ec	 mov	 eax, DWORD PTR _session_item$[ebp]
  001c3	89 45 e8	 mov	 DWORD PTR _insert_position$[ebp], eax

; 332  : 
; 333  : 			break;

  001c6	eb 66		 jmp	 SHORT $LN3@add_sessio
$LN13@add_sessio:

; 334  : 		}
; 335  : 
; 336  : 		//
; 337  : 		// unique sessions
; 338  : 		//
; 339  : 
; 340  : // Jabberwock 040201 Session filter
; 341  : 		if (session_item->type == SESSION_LIST_TYPE_FILTER)

  001c8	8b 45 ec	 mov	 eax, DWORD PTR _session_item$[ebp]
  001cb	83 78 08 10	 cmp	 DWORD PTR [eax+8], 16	; 00000010H
  001cf	75 22		 jne	 SHORT $LN14@add_sessio

; 342  : 		{
; 343  : 			if (type == SESSION_LIST_TYPE_FILTER)

  001d1	83 7d 0c 10	 cmp	 DWORD PTR _type$[ebp], 16 ; 00000010H
  001d5	75 1a		 jne	 SHORT $LN16@add_sessio

; 344  : 			{
; 345  : 				if ((strcmp (new_session->displayed_title, session_item->displayed_title) < 0))

  001d7	8b 45 ec	 mov	 eax, DWORD PTR _session_item$[ebp]
  001da	8b 08		 mov	 ecx, DWORD PTR [eax]
  001dc	51		 push	 ecx
  001dd	8b 55 e4	 mov	 edx, DWORD PTR _new_session$[ebp]
  001e0	8b 02		 mov	 eax, DWORD PTR [edx]
  001e2	50		 push	 eax
  001e3	e8 00 00 00 00	 call	 _strcmp
  001e8	83 c4 08	 add	 esp, 8
  001eb	85 c0		 test	 eax, eax
  001ed	7d 02		 jge	 SHORT $LN16@add_sessio

; 346  : 				{
; 347  : 					break;

  001ef	eb 3d		 jmp	 SHORT $LN3@add_sessio
$LN16@add_sessio:

; 348  : 				}
; 349  : 			}
; 350  : 		}
; 351  : 		else

  001f1	eb 24		 jmp	 SHORT $LN15@add_sessio
$LN14@add_sessio:

; 352  : 		{
; 353  : 			if (type == SESSION_LIST_TYPE_FILTER)

  001f3	83 7d 0c 10	 cmp	 DWORD PTR _type$[ebp], 16 ; 00000010H
  001f7	75 04		 jne	 SHORT $LN18@add_sessio

; 354  : 			{
; 355  : 				break;

  001f9	eb 33		 jmp	 SHORT $LN3@add_sessio

; 356  : 			}
; 357  : 			else

  001fb	eb 1a		 jmp	 SHORT $LN15@add_sessio
$LN18@add_sessio:

; 358  : 			{
; 359  : 				if ((strcmp (new_session->displayed_title, session_item->displayed_title) < 0))

  001fd	8b 45 ec	 mov	 eax, DWORD PTR _session_item$[ebp]
  00200	8b 08		 mov	 ecx, DWORD PTR [eax]
  00202	51		 push	 ecx
  00203	8b 55 e4	 mov	 edx, DWORD PTR _new_session$[ebp]
  00206	8b 02		 mov	 eax, DWORD PTR [edx]
  00208	50		 push	 eax
  00209	e8 00 00 00 00	 call	 _strcmp
  0020e	83 c4 08	 add	 esp, 8
  00211	85 c0		 test	 eax, eax
  00213	7d 02		 jge	 SHORT $LN15@add_sessio

; 360  : 				{
; 361  : 					break;

  00215	eb 17		 jmp	 SHORT $LN3@add_sessio
$LN15@add_sessio:

; 362  : 				}
; 363  : 			}
; 364  : 		}
; 365  : 
; 366  : // Jabberwock ends
; 367  : 		insert_position = session_item;

  00217	8b 45 ec	 mov	 eax, DWORD PTR _session_item$[ebp]
  0021a	89 45 e8	 mov	 DWORD PTR _insert_position$[ebp], eax

; 368  : 
; 369  : 		session_item = session_item->next;

  0021d	8b 45 ec	 mov	 eax, DWORD PTR _session_item$[ebp]
  00220	8b 88 a4 02 00
	00		 mov	 ecx, DWORD PTR [eax+676]
  00226	89 4d ec	 mov	 DWORD PTR _session_item$[ebp], ecx

; 370  : 	}

  00229	e9 5e ff ff ff	 jmp	 $LN2@add_sessio
$LN3@add_sessio:

; 371  : 
; 372  : 	//
; 373  : 	// create new list item
; 374  : 	//
; 375  : 
; 376  : 	list_id ++;

  0022e	a1 00 00 00 00	 mov	 eax, DWORD PTR ?list_id@@3HA
  00233	83 c0 01	 add	 eax, 1
  00236	a3 00 00 00 00	 mov	 DWORD PTR ?list_id@@3HA, eax

; 377  : 
; 378  : 	sprintf (new_session->data_path, "%s", path);

  0023b	8b 45 18	 mov	 eax, DWORD PTR _path$[ebp]
  0023e	50		 push	 eax
  0023f	68 00 00 00 00	 push	 OFFSET ??_C@_02DKCKIIND@?$CFs@
  00244	8b 4d e4	 mov	 ecx, DWORD PTR _new_session$[ebp]
  00247	83 c1 1c	 add	 ecx, 28			; 0000001cH
  0024a	51		 push	 ecx
  0024b	e8 00 00 00 00	 call	 _sprintf
  00250	83 c4 0c	 add	 esp, 12			; 0000000cH

; 379  : 
; 380  : 	if (filename)

  00253	83 7d 20 00	 cmp	 DWORD PTR _filename$[ebp], 0
  00257	74 36		 je	 SHORT $LN21@add_sessio

; 381  : 	{
; 382  : 
; 383  : 			sprintf (new_session->campaign_directory, "%s", directory);

  00259	8b 45 1c	 mov	 eax, DWORD PTR _directory$[ebp]
  0025c	50		 push	 eax
  0025d	68 00 00 00 00	 push	 OFFSET ??_C@_02DKCKIIND@?$CFs@
  00262	8b 4d e4	 mov	 ecx, DWORD PTR _new_session$[ebp]
  00265	81 c1 1c 01 00
	00		 add	 ecx, 284		; 0000011cH
  0026b	51		 push	 ecx
  0026c	e8 00 00 00 00	 call	 _sprintf
  00271	83 c4 0c	 add	 esp, 12			; 0000000cH

; 384  : 
; 385  : 		sprintf (new_session->campaign_filename, "%s", filename);

  00274	8b 45 20	 mov	 eax, DWORD PTR _filename$[ebp]
  00277	50		 push	 eax
  00278	68 00 00 00 00	 push	 OFFSET ??_C@_02DKCKIIND@?$CFs@
  0027d	8b 4d e4	 mov	 ecx, DWORD PTR _new_session$[ebp]
  00280	81 c1 5c 01 00
	00		 add	 ecx, 348		; 0000015cH
  00286	51		 push	 ecx
  00287	e8 00 00 00 00	 call	 _sprintf
  0028c	83 c4 0c	 add	 esp, 12			; 0000000cH
$LN21@add_sessio:

; 386  : 	}
; 387  : 
; 388  : 	if (warzone_name)

  0028f	83 7d 24 00	 cmp	 DWORD PTR _warzone_name$[ebp], 0
  00293	74 38		 je	 SHORT $LN22@add_sessio

; 389  : 	{
; 390  : 
; 391  : 	new_session->warzone_name = (char *) malloc_heap_mem (strlen (warzone_name) + 1);

  00295	8b 45 24	 mov	 eax, DWORD PTR _warzone_name$[ebp]
  00298	50		 push	 eax
  00299	e8 00 00 00 00	 call	 _strlen
  0029e	83 c4 04	 add	 esp, 4
  002a1	83 c0 01	 add	 eax, 1
  002a4	50		 push	 eax
  002a5	e8 00 00 00 00	 call	 ?malloc_heap_memory@@YGPAXI@Z ; malloc_heap_memory
  002aa	8b 4d e4	 mov	 ecx, DWORD PTR _new_session$[ebp]
  002ad	89 41 18	 mov	 DWORD PTR [ecx+24], eax

; 392  : 
; 393  : 	sprintf (new_session->warzone_name, "%s", warzone_name);

  002b0	8b 45 24	 mov	 eax, DWORD PTR _warzone_name$[ebp]
  002b3	50		 push	 eax
  002b4	68 00 00 00 00	 push	 OFFSET ??_C@_02DKCKIIND@?$CFs@
  002b9	8b 4d e4	 mov	 ecx, DWORD PTR _new_session$[ebp]
  002bc	8b 51 18	 mov	 edx, DWORD PTR [ecx+24]
  002bf	52		 push	 edx
  002c0	e8 00 00 00 00	 call	 _sprintf
  002c5	83 c4 0c	 add	 esp, 12			; 0000000cH

; 394  : 	}
; 395  : 	else

  002c8	e9 e7 00 00 00	 jmp	 $LN23@add_sessio
$LN22@add_sessio:

; 396  : 	{
; 397  : 
; 398  : 		char
; 399  : 			*ptr,
; 400  : 			*last_ptr,
; 401  : 			path [512];
; 402  : 
; 403  : 		strcpy (path, new_session->data_path);

  002cd	8b 45 e4	 mov	 eax, DWORD PTR _new_session$[ebp]
  002d0	83 c0 1c	 add	 eax, 28			; 0000001cH
  002d3	50		 push	 eax
  002d4	8d 8d dc fd ff
	ff		 lea	 ecx, DWORD PTR _path$1[ebp]
  002da	51		 push	 ecx
  002db	e8 00 00 00 00	 call	 _strcpy
  002e0	83 c4 08	 add	 esp, 8

; 404  : 
; 405  : 		ptr = strstr (path, "\\maps\\");

  002e3	68 00 00 00 00	 push	 OFFSET ??_C@_06LNFIIFPG@?2maps?2@
  002e8	8d 85 dc fd ff
	ff		 lea	 eax, DWORD PTR _path$1[ebp]
  002ee	50		 push	 eax
  002ef	e8 00 00 00 00	 call	 ?strstr@@YAPADQADQBD@Z	; strstr
  002f4	83 c4 08	 add	 esp, 8
  002f7	89 45 e0	 mov	 DWORD PTR _ptr$3[ebp], eax

; 406  : 
; 407  : 		ptr += strlen ("\\maps\\");

  002fa	68 00 00 00 00	 push	 OFFSET ??_C@_06LNFIIFPG@?2maps?2@
  002ff	e8 00 00 00 00	 call	 _strlen
  00304	83 c4 04	 add	 esp, 4
  00307	03 45 e0	 add	 eax, DWORD PTR _ptr$3[ebp]
  0030a	89 45 e0	 mov	 DWORD PTR _ptr$3[ebp], eax

; 408  : 
; 409  : 		last_ptr = ptr;

  0030d	8b 45 e0	 mov	 eax, DWORD PTR _ptr$3[ebp]
  00310	89 45 dc	 mov	 DWORD PTR _last_ptr$2[ebp], eax

; 410  : 
; 411  : 		if (strstr (ptr, "\\"))

  00313	68 00 00 00 00	 push	 OFFSET ??_C@_01KICIPPFI@?2@
  00318	8b 45 e0	 mov	 eax, DWORD PTR _ptr$3[ebp]
  0031b	50		 push	 eax
  0031c	e8 00 00 00 00	 call	 ?strstr@@YAPADQADQBD@Z	; strstr
  00321	83 c4 08	 add	 esp, 8
  00324	85 c0		 test	 eax, eax
  00326	74 59		 je	 SHORT $LN24@add_sessio
$LN4@add_sessio:

; 412  : 		{
; 413  : 
; 414  : 			while (strstr (ptr, "\\"))

  00328	68 00 00 00 00	 push	 OFFSET ??_C@_01KICIPPFI@?2@
  0032d	8b 45 e0	 mov	 eax, DWORD PTR _ptr$3[ebp]
  00330	50		 push	 eax
  00331	e8 00 00 00 00	 call	 ?strstr@@YAPADQADQBD@Z	; strstr
  00336	83 c4 08	 add	 esp, 8
  00339	85 c0		 test	 eax, eax
  0033b	74 29		 je	 SHORT $LN5@add_sessio

; 415  : 			{
; 416  : 
; 417  : 				ptr = strstr (ptr, "\\");

  0033d	68 00 00 00 00	 push	 OFFSET ??_C@_01KICIPPFI@?2@
  00342	8b 45 e0	 mov	 eax, DWORD PTR _ptr$3[ebp]
  00345	50		 push	 eax
  00346	e8 00 00 00 00	 call	 ?strstr@@YAPADQADQBD@Z	; strstr
  0034b	83 c4 08	 add	 esp, 8
  0034e	89 45 e0	 mov	 DWORD PTR _ptr$3[ebp], eax

; 418  : 
; 419  : 				ptr += strlen ("\\");

  00351	68 00 00 00 00	 push	 OFFSET ??_C@_01KICIPPFI@?2@
  00356	e8 00 00 00 00	 call	 _strlen
  0035b	83 c4 04	 add	 esp, 4
  0035e	03 45 e0	 add	 eax, DWORD PTR _ptr$3[ebp]
  00361	89 45 e0	 mov	 DWORD PTR _ptr$3[ebp], eax

; 420  : 			}

  00364	eb c2		 jmp	 SHORT $LN4@add_sessio
$LN5@add_sessio:

; 421  : 
; 422  : 			ptr -= strlen ("\\");

  00366	68 00 00 00 00	 push	 OFFSET ??_C@_01KICIPPFI@?2@
  0036b	e8 00 00 00 00	 call	 _strlen
  00370	83 c4 04	 add	 esp, 4
  00373	8b 4d e0	 mov	 ecx, DWORD PTR _ptr$3[ebp]
  00376	2b c8		 sub	 ecx, eax
  00378	89 4d e0	 mov	 DWORD PTR _ptr$3[ebp], ecx

; 423  : 
; 424  : 			*ptr = '\0';

  0037b	8b 45 e0	 mov	 eax, DWORD PTR _ptr$3[ebp]
  0037e	c6 00 00	 mov	 BYTE PTR [eax], 0
$LN24@add_sessio:

; 425  : 		}
; 426  : 
; 427  : 		new_session->warzone_name = (char *) malloc_heap_mem (strlen (last_ptr) + 1);

  00381	8b 45 dc	 mov	 eax, DWORD PTR _last_ptr$2[ebp]
  00384	50		 push	 eax
  00385	e8 00 00 00 00	 call	 _strlen
  0038a	83 c4 04	 add	 esp, 4
  0038d	83 c0 01	 add	 eax, 1
  00390	50		 push	 eax
  00391	e8 00 00 00 00	 call	 ?malloc_heap_memory@@YGPAXI@Z ; malloc_heap_memory
  00396	8b 4d e4	 mov	 ecx, DWORD PTR _new_session$[ebp]
  00399	89 41 18	 mov	 DWORD PTR [ecx+24], eax

; 428  : 
; 429  : 		sprintf (new_session->warzone_name, "%s", last_ptr);

  0039c	8b 45 dc	 mov	 eax, DWORD PTR _last_ptr$2[ebp]
  0039f	50		 push	 eax
  003a0	68 00 00 00 00	 push	 OFFSET ??_C@_02DKCKIIND@?$CFs@
  003a5	8b 4d e4	 mov	 ecx, DWORD PTR _new_session$[ebp]
  003a8	8b 51 18	 mov	 edx, DWORD PTR [ecx+24]
  003ab	52		 push	 edx
  003ac	e8 00 00 00 00	 call	 _sprintf
  003b1	83 c4 0c	 add	 esp, 12			; 0000000cH
$LN23@add_sessio:

; 430  : 	}
; 431  : 
; 432  : 	sprintf (new_session->title, "%s", title);

  003b4	8b 45 08	 mov	 eax, DWORD PTR _title$[ebp]
  003b7	50		 push	 eax
  003b8	68 00 00 00 00	 push	 OFFSET ??_C@_02DKCKIIND@?$CFs@
  003bd	8b 4d e4	 mov	 ecx, DWORD PTR _new_session$[ebp]
  003c0	8b 51 04	 mov	 edx, DWORD PTR [ecx+4]
  003c3	52		 push	 edx
  003c4	e8 00 00 00 00	 call	 _sprintf
  003c9	83 c4 0c	 add	 esp, 12			; 0000000cH

; 433  : 
; 434  : 	new_session->type_id = type_id;

  003cc	8b 45 e4	 mov	 eax, DWORD PTR _new_session$[ebp]
  003cf	8b 4d 10	 mov	 ecx, DWORD PTR _type_id$[ebp]
  003d2	89 48 10	 mov	 DWORD PTR [eax+16], ecx

; 435  : 
; 436  : 	new_session->list_id = list_id;

  003d5	8b 45 e4	 mov	 eax, DWORD PTR _new_session$[ebp]
  003d8	8b 0d 00 00 00
	00		 mov	 ecx, DWORD PTR ?list_id@@3HA
  003de	89 48 0c	 mov	 DWORD PTR [eax+12], ecx

; 437  : 
; 438  : 	new_session->type = type;

  003e1	8b 45 e4	 mov	 eax, DWORD PTR _new_session$[ebp]
  003e4	8b 4d 0c	 mov	 ecx, DWORD PTR _type$[ebp]
  003e7	89 48 08	 mov	 DWORD PTR [eax+8], ecx

; 439  : 
; 440  : 	new_session->join_session = join_session;

  003ea	8b 45 e4	 mov	 eax, DWORD PTR _new_session$[ebp]
  003ed	8b 4d 14	 mov	 ecx, DWORD PTR _join_session$[ebp]
  003f0	89 48 14	 mov	 DWORD PTR [eax+20], ecx

; 441  : 
; 442  : 	//
; 443  : 	// add to session list
; 444  : 	//
; 445  : 
; 446  : 	// Casm 18AUG05 Allow to show different saved games with the same name
; 447  : 	if (unique_session || type == SESSION_LIST_TYPE_RESTORE)

  003f3	83 7d f4 00	 cmp	 DWORD PTR _unique_session$[ebp], 0
  003f7	75 06		 jne	 SHORT $LN27@add_sessio
  003f9	83 7d 0c 04	 cmp	 DWORD PTR _type$[ebp], 4
  003fd	75 3e		 jne	 SHORT $LN25@add_sessio
$LN27@add_sessio:

; 448  : 	{
; 449  : 
; 450  : 		if (insert_position)

  003ff	83 7d e8 00	 cmp	 DWORD PTR _insert_position$[ebp], 0
  00403	74 20		 je	 SHORT $LN28@add_sessio

; 451  : 		{
; 452  : 
; 453  : 			new_session->next = insert_position->next;

  00405	8b 45 e4	 mov	 eax, DWORD PTR _new_session$[ebp]
  00408	8b 4d e8	 mov	 ecx, DWORD PTR _insert_position$[ebp]
  0040b	8b 91 a4 02 00
	00		 mov	 edx, DWORD PTR [ecx+676]
  00411	89 90 a4 02 00
	00		 mov	 DWORD PTR [eax+676], edx

; 454  : 
; 455  : 			insert_position->next = new_session;

  00417	8b 45 e8	 mov	 eax, DWORD PTR _insert_position$[ebp]
  0041a	8b 4d e4	 mov	 ecx, DWORD PTR _new_session$[ebp]
  0041d	89 88 a4 02 00
	00		 mov	 DWORD PTR [eax+676], ecx

; 456  : 		}
; 457  : 		else

  00423	eb 16		 jmp	 SHORT $LN29@add_sessio
$LN28@add_sessio:

; 458  : 		{
; 459  : 
; 460  : 			// first session
; 461  : 
; 462  : 			new_session->next = *list;

  00425	8b 45 e4	 mov	 eax, DWORD PTR _new_session$[ebp]
  00428	8b 4d 28	 mov	 ecx, DWORD PTR _list$[ebp]
  0042b	8b 11		 mov	 edx, DWORD PTR [ecx]
  0042d	89 90 a4 02 00
	00		 mov	 DWORD PTR [eax+676], edx

; 463  : 
; 464  : 			*list = new_session;

  00433	8b 45 28	 mov	 eax, DWORD PTR _list$[ebp]
  00436	8b 4d e4	 mov	 ecx, DWORD PTR _new_session$[ebp]
  00439	89 08		 mov	 DWORD PTR [eax], ecx
$LN29@add_sessio:

; 465  : 		}
; 466  : 	}
; 467  : 	else

  0043b	eb 24		 jmp	 SHORT $LN26@add_sessio
$LN25@add_sessio:

; 468  : 	{
; 469  : 
; 470  : 		child = insert_position->child;

  0043d	8b 45 e8	 mov	 eax, DWORD PTR _insert_position$[ebp]
  00440	8b 88 a0 02 00
	00		 mov	 ecx, DWORD PTR [eax+672]
  00446	89 4d f0	 mov	 DWORD PTR _child$[ebp], ecx

; 471  : 
; 472  : 		insert_position->child = new_session;

  00449	8b 45 e8	 mov	 eax, DWORD PTR _insert_position$[ebp]
  0044c	8b 4d e4	 mov	 ecx, DWORD PTR _new_session$[ebp]
  0044f	89 88 a0 02 00
	00		 mov	 DWORD PTR [eax+672], ecx

; 473  : 
; 474  : 		new_session->child = child;

  00455	8b 45 e4	 mov	 eax, DWORD PTR _new_session$[ebp]
  00458	8b 4d f0	 mov	 ecx, DWORD PTR _child$[ebp]
  0045b	89 88 a0 02 00
	00		 mov	 DWORD PTR [eax+672], ecx
$LN26@add_sessio:

; 475  : 	}
; 476  : 
; 477  : 	return new_session;

  00461	8b 45 e4	 mov	 eax, DWORD PTR _new_session$[ebp]

; 478  : }

  00464	5f		 pop	 edi
  00465	5e		 pop	 esi
  00466	5b		 pop	 ebx
  00467	8b e5		 mov	 esp, ebp
  00469	5d		 pop	 ebp
  0046a	c2 2c 00	 ret	 44			; 0000002cH
?add_session@@YGPAUSESSION_LIST_DATA_TYPE@@PBDW4SESSION_LIST_TYPES@@HPAUSESSION_TABLE_TYPE@@PAD333PAPAU1@0H@Z ENDP ; add_session
_TEXT	ENDS
; Function compile flags: /Odtp /ZI
; File c:\users\nhv90\projects\eech\aphavoc\source\ui_menu\session\uisession.c
;	COMDAT ?start_campaign@@YGXXZ
_TEXT	SEGMENT
tv81 = -68						; size = 4
tv70 = -68						; size = 4
?start_campaign@@YGXXZ PROC				; start_campaign, COMDAT

; 1572 : {

  00000	55		 push	 ebp
  00001	8b ec		 mov	 ebp, esp
  00003	83 ec 44	 sub	 esp, 68			; 00000044H
  00006	53		 push	 ebx
  00007	56		 push	 esi
  00008	57		 push	 edi

; 1573 : 
; 1574 : 	//
; 1575 : 	// Check mission data has arrived...
; 1576 : 	//
; 1577 : 
; 1578 : 	ASSERT (current_game_session);

  00009	83 3d 00 00 00
	00 00		 cmp	 DWORD PTR ?current_game_session@@3PAUSESSION_LIST_DATA_TYPE@@A, 0 ; current_game_session
  00010	75 18		 jne	 SHORT $LN6@start_camp
  00012	a1 00 00 00 00	 mov	 eax, DWORD PTR ?__LINE__Var@?0??start_campaign@@YGXXZ@4JA
  00017	83 c0 06	 add	 eax, 6
  0001a	50		 push	 eax
  0001b	68 00 00 00 00	 push	 OFFSET ??_C@_0EI@MFEMPFPC@c?3?2users?2nhv90?2projects?2eech?2ap@
  00020	68 00 00 00 00	 push	 OFFSET ??_C@_0BF@BGCJAHKO@current_game_session@
  00025	e8 00 00 00 00	 call	 ?process_assert@@YGXPBD0H@Z ; process_assert
$LN6@start_camp:

; 1579 : 
; 1580 : 	switch (current_game_session->type)

  0002a	a1 00 00 00 00	 mov	 eax, DWORD PTR ?current_game_session@@3PAUSESSION_LIST_DATA_TYPE@@A ; current_game_session
  0002f	8b 48 08	 mov	 ecx, DWORD PTR [eax+8]
  00032	89 4d bc	 mov	 DWORD PTR tv70[ebp], ecx
  00035	8b 55 bc	 mov	 edx, DWORD PTR tv70[ebp]
  00038	83 ea 01	 sub	 edx, 1
  0003b	89 55 bc	 mov	 DWORD PTR tv70[ebp], edx
  0003e	83 7d bc 0f	 cmp	 DWORD PTR tv70[ebp], 15	; 0000000fH
  00042	77 68		 ja	 SHORT $LN15@start_camp
  00044	8b 45 bc	 mov	 eax, DWORD PTR tv70[ebp]
  00047	0f b6 88 00 00
	00 00		 movzx	 ecx, BYTE PTR $LN19@start_camp[eax]
  0004e	ff 24 8d 00 00
	00 00		 jmp	 DWORD PTR $LN20@start_camp[ecx*4]
$LN7@start_camp:

; 1581 : 	{
; 1582 : 
; 1583 : 		case SESSION_LIST_TYPE_RESTORE:
; 1584 : 		{
; 1585 : 
; 1586 : 			create_campaign (get_current_game_session ());

  00055	a1 00 00 00 00	 mov	 eax, DWORD PTR ?current_game_session@@3PAUSESSION_LIST_DATA_TYPE@@A ; current_game_session
  0005a	50		 push	 eax
  0005b	e8 00 00 00 00	 call	 ?create_campaign@@YGXPAUSESSION_LIST_DATA_TYPE@@@Z ; create_campaign

; 1587 : 
; 1588 : 			process_restore_session_setup_options ();

  00060	e8 00 00 00 00	 call	 ?process_restore_session_setup_options@@YGXXZ ; process_restore_session_setup_options

; 1589 : 
; 1590 : 			break;

  00065	eb 52		 jmp	 SHORT $LN2@start_camp
$LN8@start_camp:

; 1591 : 		}
; 1592 : 		case SESSION_LIST_TYPE_HOST:
; 1593 : 		{
; 1594 : 
; 1595 : 			create_campaign (get_current_game_session ());

  00067	a1 00 00 00 00	 mov	 eax, DWORD PTR ?current_game_session@@3PAUSESSION_LIST_DATA_TYPE@@A ; current_game_session
  0006c	50		 push	 eax
  0006d	e8 00 00 00 00	 call	 ?create_campaign@@YGXPAUSESSION_LIST_DATA_TYPE@@@Z ; create_campaign

; 1596 : 
; 1597 : 			process_host_session_setup_options ();

  00072	e8 00 00 00 00	 call	 ?process_host_session_setup_options@@YGXXZ ; process_host_session_setup_options

; 1598 : 
; 1599 : 			break;

  00077	eb 40		 jmp	 SHORT $LN2@start_camp
$LN9@start_camp:

; 1600 : 		}
; 1601 : 		case SESSION_LIST_TYPE_JOIN:
; 1602 : 		{
; 1603 : 
; 1604 : 			if (!get_session_entity ())

  00079	83 3d 00 00 00
	00 00		 cmp	 DWORD PTR ?session_entity@@3PAUENTITY@@A, 0 ; session_entity
  00080	75 02		 jne	 SHORT $LN10@start_camp

; 1605 : 			{
; 1606 : 
; 1607 : 				return;

  00082	eb 44		 jmp	 SHORT $LN1@start_camp
$LN10@start_camp:

; 1608 : 			}
; 1609 : 
; 1610 : 			break;

  00084	eb 33		 jmp	 SHORT $LN2@start_camp
$LN11@start_camp:

; 1611 : 		}
; 1612 : 		case SESSION_LIST_TYPE_MASTER:
; 1613 : 		{
; 1614 : 			current_game_session->type = SESSION_LIST_TYPE_JOIN;

  00086	a1 00 00 00 00	 mov	 eax, DWORD PTR ?current_game_session@@3PAUSESSION_LIST_DATA_TYPE@@A ; current_game_session
  0008b	c7 40 08 02 00
	00 00		 mov	 DWORD PTR [eax+8], 2

; 1615 : 
; 1616 : 			//TODO: Setup dplay connection, then get first active session.
; 1617 : 
; 1618 : 			if (!get_session_entity ())

  00092	83 3d 00 00 00
	00 00		 cmp	 DWORD PTR ?session_entity@@3PAUENTITY@@A, 0 ; session_entity
  00099	75 02		 jne	 SHORT $LN12@start_camp

; 1619 : 			{
; 1620 : 
; 1621 : 				return;

  0009b	eb 2b		 jmp	 SHORT $LN1@start_camp
$LN12@start_camp:

; 1622 : 			}
; 1623 : 
; 1624 : 			break;

  0009d	eb 1a		 jmp	 SHORT $LN2@start_camp
$LN13@start_camp:

; 1625 : 		}
; 1626 : 		// Jabberwock 031210 Session filter
; 1627 : 		case SESSION_LIST_TYPE_FILTER:
; 1628 : 		{
; 1629 : 			if (!get_session_entity ())

  0009f	83 3d 00 00 00
	00 00		 cmp	 DWORD PTR ?session_entity@@3PAUENTITY@@A, 0 ; session_entity
  000a6	75 02		 jne	 SHORT $LN14@start_camp

; 1630 : 			{
; 1631 : 
; 1632 : 				return;

  000a8	eb 1e		 jmp	 SHORT $LN1@start_camp
$LN14@start_camp:

; 1633 : 			}
; 1634 : 
; 1635 : 			break;

  000aa	eb 0d		 jmp	 SHORT $LN2@start_camp
$LN15@start_camp:

; 1636 : 		}
; 1637 : 		// Jabberwock 031210 ends
; 1638 : 		case SESSION_LIST_TYPE_INVALID:
; 1639 : 		default:
; 1640 : 		{
; 1641 : 
; 1642 : 			debug_fatal ("GUNS_SC: unknown game type");

  000ac	68 00 00 00 00	 push	 OFFSET ??_C@_0BL@NFMPLBKD@GUNS_SC?3?5unknown?5game?5type@
  000b1	e8 00 00 00 00	 call	 ?debug_fatal@@YAXPBDZZ	; debug_fatal
  000b6	83 c4 04	 add	 esp, 4
$LN2@start_camp:

; 1643 : 		}
; 1644 : 	}
; 1645 : 
; 1646 : 	ui_set_user_function (NULL);

  000b9	6a 00		 push	 0
  000bb	e8 00 00 00 00	 call	 ?ui_set_user_function@@YGXP6GXXZ@Z ; ui_set_user_function

; 1647 : 
; 1648 : 	switch ( get_global_gunship_type () )

  000c0	a1 0c 00 00 00	 mov	 eax, DWORD PTR ?global_options@@3UGLOBAL_OPTIONS_DATA@@A+12
  000c5	89 45 bc	 mov	 DWORD PTR tv81[ebp], eax
$LN1@start_camp:

; 1649 : 	{
; 1650 : 
; 1651 : 		case GUNSHIP_TYPE_APACHE:
; 1652 : 		case GUNSHIP_TYPE_COMANCHE:
; 1653 : 		{
; 1654 : 
; 1655 : 			//play_cd_music ( CD_MUSIC_TRACK_INGAME );
; 1656 : 
; 1657 : 			break;
; 1658 : 		}
; 1659 : 		case GUNSHIP_TYPE_HAVOC:
; 1660 : 		case GUNSHIP_TYPE_HOKUM:
; 1661 : 		{
; 1662 : 
; 1663 : 			//play_cd_music ( CD_MUSIC_TRACK_INGAME );
; 1664 : 
; 1665 : 			break;
; 1666 : 		}
; 1667 : 	}
; 1668 : }

  000c8	5f		 pop	 edi
  000c9	5e		 pop	 esi
  000ca	5b		 pop	 ebx
  000cb	8b e5		 mov	 esp, ebp
  000cd	5d		 pop	 ebp
  000ce	c3		 ret	 0
  000cf	90		 npad	 1
$LN20@start_camp:
  000d0	00 00 00 00	 DD	 $LN8@start_camp
  000d4	00 00 00 00	 DD	 $LN9@start_camp
  000d8	00 00 00 00	 DD	 $LN7@start_camp
  000dc	00 00 00 00	 DD	 $LN11@start_camp
  000e0	00 00 00 00	 DD	 $LN13@start_camp
  000e4	00 00 00 00	 DD	 $LN15@start_camp
$LN19@start_camp:
  000e8	00		 DB	 0
  000e9	01		 DB	 1
  000ea	05		 DB	 5
  000eb	02		 DB	 2
  000ec	05		 DB	 5
  000ed	05		 DB	 5
  000ee	05		 DB	 5
  000ef	03		 DB	 3
  000f0	05		 DB	 5
  000f1	05		 DB	 5
  000f2	05		 DB	 5
  000f3	05		 DB	 5
  000f4	05		 DB	 5
  000f5	05		 DB	 5
  000f6	05		 DB	 5
  000f7	04		 DB	 4
?start_campaign@@YGXXZ ENDP				; start_campaign
_TEXT	ENDS
; Function compile flags: /Odtp /ZI
; File c:\users\nhv90\projects\eech\aphavoc\source\ui_menu\session\uisession.c
;	COMDAT ?set_current_game_session@@YGXPAUSESSION_LIST_DATA_TYPE@@@Z
_TEXT	SEGMENT
_game_session$ = 8					; size = 4
?set_current_game_session@@YGXPAUSESSION_LIST_DATA_TYPE@@@Z PROC ; set_current_game_session, COMDAT

; 1520 : {

  00000	55		 push	 ebp
  00001	8b ec		 mov	 ebp, esp
  00003	83 ec 40	 sub	 esp, 64			; 00000040H
  00006	53		 push	 ebx
  00007	56		 push	 esi
  00008	57		 push	 edi

; 1521 : 
; 1522 : 	current_game_session = game_session;

  00009	8b 45 08	 mov	 eax, DWORD PTR _game_session$[ebp]
  0000c	a3 00 00 00 00	 mov	 DWORD PTR ?current_game_session@@3PAUSESSION_LIST_DATA_TYPE@@A, eax ; current_game_session

; 1523 : 
; 1524 : 	if (game_session)

  00011	83 7d 08 00	 cmp	 DWORD PTR _game_session$[ebp], 0
  00015	0f 84 8b 00 00
	00		 je	 $LN2@set_curren

; 1525 : 	{
; 1526 : 
; 1527 : 		if (get_comms_model () == COMMS_MODEL_SERVER)

  0001b	83 3d 00 00 00
	00 00		 cmp	 DWORD PTR ?system_comms_model@@3W4COMMS_MODEL_TYPES@@A, 0 ; system_comms_model
  00022	75 5b		 jne	 SHORT $LN4@set_curren

; 1528 : 		{
; 1529 : 
; 1530 : 			//set_ui_object_drawable (session_screen_next_button_mask, FALSE);
; 1531 : 
; 1532 : 			set_ui_object_drawable (session_screen_next_bdrop, TRUE);

  00024	6a 01		 push	 1
  00026	a1 00 00 00 00	 mov	 eax, DWORD PTR ?session_screen_next_bdrop@@3PAUUI_OBJECT@@A ; session_screen_next_bdrop
  0002b	50		 push	 eax
  0002c	8b 0d 00 00 00
	00		 mov	 ecx, DWORD PTR ?session_screen_next_bdrop@@3PAUUI_OBJECT@@A ; session_screen_next_bdrop
  00032	8b 11		 mov	 edx, DWORD PTR [ecx]
  00034	8b 04 95 00 00
	00 00		 mov	 eax, DWORD PTR ?fn_set_ui_object_drawable@@3PAP6GXPAUUI_OBJECT@@H@ZA[edx*4]
  0003b	ff d0		 call	 eax

; 1533 : 
; 1534 : 			set_ui_object_drawable (session_screen_next_button, TRUE);

  0003d	6a 01		 push	 1
  0003f	a1 00 00 00 00	 mov	 eax, DWORD PTR ?session_screen_next_button@@3PAUUI_OBJECT@@A ; session_screen_next_button
  00044	50		 push	 eax
  00045	8b 0d 00 00 00
	00		 mov	 ecx, DWORD PTR ?session_screen_next_button@@3PAUUI_OBJECT@@A ; session_screen_next_button
  0004b	8b 11		 mov	 edx, DWORD PTR [ecx]
  0004d	8b 04 95 00 00
	00 00		 mov	 eax, DWORD PTR ?fn_set_ui_object_drawable@@3PAP6GXPAUUI_OBJECT@@H@ZA[edx*4]
  00054	ff d0		 call	 eax

; 1535 : 
; 1536 : 			// 15JUN09 Casm setting map information for saved games
; 1537 : 			notify_session_parameters ();

  00056	e8 00 00 00 00	 call	 ?notify_session_parameters@@YGXXZ ; notify_session_parameters

; 1538 : 			if (game_session->type == SESSION_LIST_TYPE_RESTORE)

  0005b	8b 45 08	 mov	 eax, DWORD PTR _game_session$[ebp]
  0005e	83 78 08 04	 cmp	 DWORD PTR [eax+8], 4
  00062	75 19		 jne	 SHORT $LN6@set_curren

; 1539 : 			{
; 1540 : 				set_ui_object_drawable (session_briefing_overlay, TRUE);

  00064	6a 01		 push	 1
  00066	a1 00 00 00 00	 mov	 eax, DWORD PTR ?session_briefing_overlay@@3PAUUI_OBJECT@@A ; session_briefing_overlay
  0006b	50		 push	 eax
  0006c	8b 0d 00 00 00
	00		 mov	 ecx, DWORD PTR ?session_briefing_overlay@@3PAUUI_OBJECT@@A ; session_briefing_overlay
  00072	8b 11		 mov	 edx, DWORD PTR [ecx]
  00074	8b 04 95 00 00
	00 00		 mov	 eax, DWORD PTR ?fn_set_ui_object_drawable@@3PAP6GXPAUUI_OBJECT@@H@ZA[edx*4]
  0007b	ff d0		 call	 eax
$LN6@set_curren:

; 1541 : 			}
; 1542 : 		}

  0007d	eb 22		 jmp	 SHORT $LN5@set_curren
$LN4@set_curren:

; 1543 : 		else if (get_comms_model () == COMMS_MODEL_CLIENT)

  0007f	83 3d 00 00 00
	00 01		 cmp	 DWORD PTR ?system_comms_model@@3W4COMMS_MODEL_TYPES@@A, 1 ; system_comms_model
  00086	75 19		 jne	 SHORT $LN5@set_curren

; 1544 : 		{
; 1545 : 			set_ui_object_drawable (session_briefing_overlay, TRUE);

  00088	6a 01		 push	 1
  0008a	a1 00 00 00 00	 mov	 eax, DWORD PTR ?session_briefing_overlay@@3PAUUI_OBJECT@@A ; session_briefing_overlay
  0008f	50		 push	 eax
  00090	8b 0d 00 00 00
	00		 mov	 ecx, DWORD PTR ?session_briefing_overlay@@3PAUUI_OBJECT@@A ; session_briefing_overlay
  00096	8b 11		 mov	 edx, DWORD PTR [ecx]
  00098	8b 04 95 00 00
	00 00		 mov	 eax, DWORD PTR ?fn_set_ui_object_drawable@@3PAP6GXPAUUI_OBJECT@@H@ZA[edx*4]
  0009f	ff d0		 call	 eax
$LN5@set_curren:

; 1546 : 		}
; 1547 : 	}
; 1548 : 	else

  000a1	e9 82 00 00 00	 jmp	 $LN1@set_curren
$LN2@set_curren:

; 1549 : 	{
; 1550 : 
; 1551 : 		//set_ui_object_drawable (session_screen_next_button_mask, TRUE);
; 1552 : 
; 1553 : 		notify_clear_all_session_parameters ();

  000a6	e8 00 00 00 00	 call	 ?notify_clear_all_session_parameters@@YGXXZ ; notify_clear_all_session_parameters

; 1554 : 
; 1555 : 		set_ui_object_drawable (session_screen_next_bdrop, FALSE);

  000ab	6a 00		 push	 0
  000ad	a1 00 00 00 00	 mov	 eax, DWORD PTR ?session_screen_next_bdrop@@3PAUUI_OBJECT@@A ; session_screen_next_bdrop
  000b2	50		 push	 eax
  000b3	8b 0d 00 00 00
	00		 mov	 ecx, DWORD PTR ?session_screen_next_bdrop@@3PAUUI_OBJECT@@A ; session_screen_next_bdrop
  000b9	8b 11		 mov	 edx, DWORD PTR [ecx]
  000bb	8b 04 95 00 00
	00 00		 mov	 eax, DWORD PTR ?fn_set_ui_object_drawable@@3PAP6GXPAUUI_OBJECT@@H@ZA[edx*4]
  000c2	ff d0		 call	 eax

; 1556 : 
; 1557 : 		set_ui_object_drawable (session_screen_next_button, FALSE);

  000c4	6a 00		 push	 0
  000c6	a1 00 00 00 00	 mov	 eax, DWORD PTR ?session_screen_next_button@@3PAUUI_OBJECT@@A ; session_screen_next_button
  000cb	50		 push	 eax
  000cc	8b 0d 00 00 00
	00		 mov	 ecx, DWORD PTR ?session_screen_next_button@@3PAUUI_OBJECT@@A ; session_screen_next_button
  000d2	8b 11		 mov	 edx, DWORD PTR [ecx]
  000d4	8b 04 95 00 00
	00 00		 mov	 eax, DWORD PTR ?fn_set_ui_object_drawable@@3PAP6GXPAUUI_OBJECT@@H@ZA[edx*4]
  000db	ff d0		 call	 eax

; 1558 : 
; 1559 : 		set_ui_object_drawable (session_screen_continue_button, FALSE); // Jabberwock 031118 Server side settings

  000dd	6a 00		 push	 0
  000df	a1 00 00 00 00	 mov	 eax, DWORD PTR ?session_screen_continue_button@@3PAUUI_OBJECT@@A ; session_screen_continue_button
  000e4	50		 push	 eax
  000e5	8b 0d 00 00 00
	00		 mov	 ecx, DWORD PTR ?session_screen_continue_button@@3PAUUI_OBJECT@@A ; session_screen_continue_button
  000eb	8b 11		 mov	 edx, DWORD PTR [ecx]
  000ed	8b 04 95 00 00
	00 00		 mov	 eax, DWORD PTR ?fn_set_ui_object_drawable@@3PAP6GXPAUUI_OBJECT@@H@ZA[edx*4]
  000f4	ff d0		 call	 eax

; 1560 : 
; 1561 : 		set_ui_object_drawable (session_screen_continue_bdrop, FALSE);

  000f6	6a 00		 push	 0
  000f8	a1 00 00 00 00	 mov	 eax, DWORD PTR ?session_screen_continue_bdrop@@3PAUUI_OBJECT@@A ; session_screen_continue_bdrop
  000fd	50		 push	 eax
  000fe	8b 0d 00 00 00
	00		 mov	 ecx, DWORD PTR ?session_screen_continue_bdrop@@3PAUUI_OBJECT@@A ; session_screen_continue_bdrop
  00104	8b 11		 mov	 edx, DWORD PTR [ecx]
  00106	8b 04 95 00 00
	00 00		 mov	 eax, DWORD PTR ?fn_set_ui_object_drawable@@3PAP6GXPAUUI_OBJECT@@H@ZA[edx*4]
  0010d	ff d0		 call	 eax

; 1562 : 
; 1563 : 		set_ui_object_drawable (session_briefing_overlay, FALSE);

  0010f	6a 00		 push	 0
  00111	a1 00 00 00 00	 mov	 eax, DWORD PTR ?session_briefing_overlay@@3PAUUI_OBJECT@@A ; session_briefing_overlay
  00116	50		 push	 eax
  00117	8b 0d 00 00 00
	00		 mov	 ecx, DWORD PTR ?session_briefing_overlay@@3PAUUI_OBJECT@@A ; session_briefing_overlay
  0011d	8b 11		 mov	 edx, DWORD PTR [ecx]
  0011f	8b 04 95 00 00
	00 00		 mov	 eax, DWORD PTR ?fn_set_ui_object_drawable@@3PAP6GXPAUUI_OBJECT@@H@ZA[edx*4]
  00126	ff d0		 call	 eax
$LN1@set_curren:

; 1564 : 	}
; 1565 : }

  00128	5f		 pop	 edi
  00129	5e		 pop	 esi
  0012a	5b		 pop	 ebx
  0012b	8b e5		 mov	 esp, ebp
  0012d	5d		 pop	 ebp
  0012e	c2 04 00	 ret	 4
?set_current_game_session@@YGXPAUSESSION_LIST_DATA_TYPE@@@Z ENDP ; set_current_game_session
_TEXT	ENDS
; Function compile flags: /Odtp /ZI
; File c:\users\nhv90\projects\eech\aphavoc\source\ui_menu\session\uisession.c
;	COMDAT ?store_session@@YGHPAUSESSION_LIST_DATA_TYPE@@PBD@Z
_TEXT	SEGMENT
tv578 = -872						; size = 4
tv541 = -872						; size = 4
tv494 = -872						; size = 4
tv437 = -872						; size = 4
tv414 = -872						; size = 4
tv388 = -872						; size = 4
tv361 = -872						; size = 4
tv308 = -872						; size = 4
tv283 = -872						; size = 4
tv193 = -872						; size = 4
tv570 = -868						; size = 4
tv533 = -868						; size = 4
tv486 = -868						; size = 4
tv429 = -868						; size = 4
tv406 = -868						; size = 4
tv380 = -868						; size = 4
tv353 = -868						; size = 4
tv300 = -868						; size = 4
tv275 = -868						; size = 4
tv185 = -868						; size = 4
_buffer_size$1 = -736					; size = 4
_server_version_number$2 = -732				; size = 4
_extra_data$3 = -728					; size = 4
_buffer$4 = -724					; size = 4
_save_ptr$5 = -720					; size = 4
_value$6 = -716						; size = 4
_elapsed_days$7 = -712					; size = 4
_seconds$8 = -708					; size = 4
_minutes$9 = -704					; size = 4
_hours$10 = -700					; size = 4
_elapsed_time$11 = -696					; size = 4
_file_ptr$ = -692					; size = 4
_script_filename$ = -688				; size = 256
_data_filename$ = -432					; size = 256
_extension$ = -176					; size = 5
_title$ = -168						; size = 128
_limited_filename$ = -40				; size = 32
_count$ = -8						; size = 4
_force$ = -4						; size = 4
_game_session$ = 8					; size = 4
_filename$ = 12						; size = 4
?store_session@@YGHPAUSESSION_LIST_DATA_TYPE@@PBD@Z PROC ; store_session, COMDAT

; 752  : {

  00000	55		 push	 ebp
  00001	8b ec		 mov	 ebp, esp
  00003	81 ec 68 03 00
	00		 sub	 esp, 872		; 00000368H
  00009	53		 push	 ebx
  0000a	56		 push	 esi
  0000b	57		 push	 edi

; 753  : 	#if !DEMO_VERSION
; 754  : 
; 755  : 	entity
; 756  : 		*force;
; 757  : 
; 758  : 	int
; 759  : 		count;
; 760  : 
; 761  : 	char
; 762  : 		limited_filename [32],
; 763  : 		title [128],
; 764  : 		extension [5],
; 765  : 		data_filename [256],
; 766  : 		script_filename [256];
; 767  : 
; 768  : 	FILE
; 769  : 		*file_ptr;
; 770  : 
; 771  : 	count = 0;

  0000c	c7 45 f8 00 00
	00 00		 mov	 DWORD PTR _count$[ebp], 0

; 772  : 
; 773  : 	strncpy (limited_filename, filename, sizeof (limited_filename) - 2);

  00013	6a 1e		 push	 30			; 0000001eH
  00015	8b 45 0c	 mov	 eax, DWORD PTR _filename$[ebp]
  00018	50		 push	 eax
  00019	8d 4d d8	 lea	 ecx, DWORD PTR _limited_filename$[ebp]
  0001c	51		 push	 ecx
  0001d	ff 15 00 00 00
	00		 call	 DWORD PTR __imp__strncpy
  00023	83 c4 0c	 add	 esp, 12			; 0000000cH

; 774  : 	limited_filename [31] = '\0';

  00026	b8 01 00 00 00	 mov	 eax, 1
  0002b	6b c8 1f	 imul	 ecx, eax, 31
  0002e	c6 44 0d d8 00	 mov	 BYTE PTR _limited_filename$[ebp+ecx], 0

; 775  : 
; 776  : 	sprintf (data_filename, "%s\\%s\\%s", game_session->data_path, game_session->campaign_directory, limited_filename);

  00033	8d 45 d8	 lea	 eax, DWORD PTR _limited_filename$[ebp]
  00036	50		 push	 eax
  00037	8b 4d 08	 mov	 ecx, DWORD PTR _game_session$[ebp]
  0003a	81 c1 1c 01 00
	00		 add	 ecx, 284		; 0000011cH
  00040	51		 push	 ecx
  00041	8b 55 08	 mov	 edx, DWORD PTR _game_session$[ebp]
  00044	83 c2 1c	 add	 edx, 28			; 0000001cH
  00047	52		 push	 edx
  00048	68 00 00 00 00	 push	 OFFSET ??_C@_08EFGGCJLD@?$CFs?2?$CFs?2?$CFs@
  0004d	8d 85 50 fe ff
	ff		 lea	 eax, DWORD PTR _data_filename$[ebp]
  00053	50		 push	 eax
  00054	e8 00 00 00 00	 call	 _sprintf
  00059	83 c4 14	 add	 esp, 20			; 00000014H

; 777  : 
; 778  : 	strcat (data_filename, ".sav");

  0005c	68 00 00 00 00	 push	 OFFSET ??_C@_04ONGOJJC@?4sav@
  00061	8d 85 50 fe ff
	ff		 lea	 eax, DWORD PTR _data_filename$[ebp]
  00067	50		 push	 eax
  00068	e8 00 00 00 00	 call	 _strcat
  0006d	83 c4 08	 add	 esp, 8

; 779  : 
; 780  : 	sprintf (script_filename, "%s\\%s\\%s.", game_session->data_path, game_session->campaign_directory, limited_filename);

  00070	8d 45 d8	 lea	 eax, DWORD PTR _limited_filename$[ebp]
  00073	50		 push	 eax
  00074	8b 4d 08	 mov	 ecx, DWORD PTR _game_session$[ebp]
  00077	81 c1 1c 01 00
	00		 add	 ecx, 284		; 0000011cH
  0007d	51		 push	 ecx
  0007e	8b 55 08	 mov	 edx, DWORD PTR _game_session$[ebp]
  00081	83 c2 1c	 add	 edx, 28			; 0000001cH
  00084	52		 push	 edx
  00085	68 00 00 00 00	 push	 OFFSET ??_C@_09FJCKINDD@?$CFs?2?$CFs?2?$CFs?4@
  0008a	8d 85 50 fd ff
	ff		 lea	 eax, DWORD PTR _script_filename$[ebp]
  00090	50		 push	 eax
  00091	e8 00 00 00 00	 call	 _sprintf
  00096	83 c4 14	 add	 esp, 20			; 00000014H

; 781  : 
; 782  : 	sprintf (extension, "%s", game_type_extensions [get_game_type ()]);

  00099	a1 00 00 00 00	 mov	 eax, DWORD PTR ?game_type@@3W4GAME_TYPES@@A ; game_type
  0009e	8b 0c 85 00 00
	00 00		 mov	 ecx, DWORD PTR ?game_type_extensions@@3PAPBDA[eax*4]
  000a5	51		 push	 ecx
  000a6	68 00 00 00 00	 push	 OFFSET ??_C@_02DKCKIIND@?$CFs@
  000ab	8d 95 50 ff ff
	ff		 lea	 edx, DWORD PTR _extension$[ebp]
  000b1	52		 push	 edx
  000b2	e8 00 00 00 00	 call	 _sprintf
  000b7	83 c4 0c	 add	 esp, 12			; 0000000cH

; 783  : 	extension [2] = extension [1];

  000ba	b8 01 00 00 00	 mov	 eax, 1
  000bf	c1 e0 00	 shl	 eax, 0
  000c2	b9 01 00 00 00	 mov	 ecx, 1
  000c7	d1 e1		 shl	 ecx, 1
  000c9	8a 94 05 50 ff
	ff ff		 mov	 dl, BYTE PTR _extension$[ebp+eax]
  000d0	88 94 0d 50 ff
	ff ff		 mov	 BYTE PTR _extension$[ebp+ecx], dl

; 784  : 	extension [1] = extension [0];

  000d7	b8 01 00 00 00	 mov	 eax, 1
  000dc	6b c8 00	 imul	 ecx, eax, 0
  000df	ba 01 00 00 00	 mov	 edx, 1
  000e4	c1 e2 00	 shl	 edx, 0
  000e7	8a 84 0d 50 ff
	ff ff		 mov	 al, BYTE PTR _extension$[ebp+ecx]
  000ee	88 84 15 50 ff
	ff ff		 mov	 BYTE PTR _extension$[ebp+edx], al

; 785  : 	extension [0] = 'S';

  000f5	b8 01 00 00 00	 mov	 eax, 1
  000fa	6b c8 00	 imul	 ecx, eax, 0
  000fd	c6 84 0d 50 ff
	ff ff 53	 mov	 BYTE PTR _extension$[ebp+ecx], 83 ; 00000053H

; 786  : 
; 787  : 	strcat(script_filename, extension);

  00105	8d 85 50 ff ff
	ff		 lea	 eax, DWORD PTR _extension$[ebp]
  0010b	50		 push	 eax
  0010c	8d 8d 50 fd ff
	ff		 lea	 ecx, DWORD PTR _script_filename$[ebp]
  00112	51		 push	 ecx
  00113	e8 00 00 00 00	 call	 _strcat
  00118	83 c4 08	 add	 esp, 8

; 788  : 
; 789  : 	//
; 790  : 	// Create scripting file
; 791  : 	//
; 792  : 
; 793  : 	file_ptr = fopen (script_filename, "w");

  0011b	68 00 00 00 00	 push	 OFFSET ??_C@_01NOFIACDB@w@
  00120	8d 85 50 fd ff
	ff		 lea	 eax, DWORD PTR _script_filename$[ebp]
  00126	50		 push	 eax
  00127	ff 15 00 00 00
	00		 call	 DWORD PTR __imp__fopen
  0012d	83 c4 08	 add	 esp, 8
  00130	89 85 4c fd ff
	ff		 mov	 DWORD PTR _file_ptr$[ebp], eax

; 794  : 
; 795  : 	if (!file_ptr)

  00136	83 bd 4c fd ff
	ff 00		 cmp	 DWORD PTR _file_ptr$[ebp], 0
  0013d	75 1b		 jne	 SHORT $LN8@store_sess

; 796  : 	{
; 797  : 
; 798  : 		debug_log ("SESSION: failed to open file %s", script_filename);

  0013f	8d 85 50 fd ff
	ff		 lea	 eax, DWORD PTR _script_filename$[ebp]
  00145	50		 push	 eax
  00146	68 00 00 00 00	 push	 OFFSET ??_C@_0CA@NDGENNBK@SESSION?3?5failed?5to?5open?5file?5?$CFs@
  0014b	e8 00 00 00 00	 call	 ?debug_log@@YAXPBDZZ	; debug_log
  00150	83 c4 08	 add	 esp, 8

; 799  : 
; 800  : 		return FALSE;

  00153	33 c0		 xor	 eax, eax
  00155	e9 25 0d 00 00	 jmp	 $LN1@store_sess
$LN8@store_sess:

; 801  : 	}
; 802  : 
; 803  : 	ASSERT (file_ptr);

  0015a	83 bd 4c fd ff
	ff 00		 cmp	 DWORD PTR _file_ptr$[ebp], 0
  00161	75 18		 jne	 SHORT $LN9@store_sess
  00163	a1 00 00 00 00	 mov	 eax, DWORD PTR ?__LINE__Var@?0??store_session@@YGHPAUSESSION_LIST_DATA_TYPE@@PBD@Z@4JA
  00168	83 c0 33	 add	 eax, 51			; 00000033H
  0016b	50		 push	 eax
  0016c	68 00 00 00 00	 push	 OFFSET ??_C@_0EI@MFEMPFPC@c?3?2users?2nhv90?2projects?2eech?2ap@
  00171	68 00 00 00 00	 push	 OFFSET ??_C@_08HCIJDDOJ@file_ptr@
  00176	e8 00 00 00 00	 call	 ?process_assert@@YGXPBD0H@Z ; process_assert
$LN9@store_sess:

; 804  : 
; 805  : 	// Start
; 806  : 
; 807  : 	set_file_comment (file_ptr, "/////////////////////////////////////////////////////////////////////////////////////////////////////////////////////////////////");

  0017b	68 00 00 00 00	 push	 OFFSET ??_C@_0IC@NPHAIGMI@?1?1?1?1?1?1?1?1?1?1?1?1?1?1?1?1?1?1?1?1?1?1?1?1?1?1?1?1?1?1?1@
  00180	8b 85 4c fd ff
	ff		 mov	 eax, DWORD PTR _file_ptr$[ebp]
  00186	50		 push	 eax
  00187	e8 00 00 00 00	 call	 ?set_file_comment@@YGXPAU_iobuf@@PBD@Z ; set_file_comment

; 808  : 	set_file_tag (file_ptr, application_tag_strings, FILE_TAG_START);

  0018c	6a e7		 push	 -25			; ffffffe7H
  0018e	68 00 00 00 00	 push	 OFFSET ?application_tag_strings@@3PAPBDA ; application_tag_strings
  00193	8b 85 4c fd ff
	ff		 mov	 eax, DWORD PTR _file_ptr$[ebp]
  00199	50		 push	 eax
  0019a	e8 00 00 00 00	 call	 ?set_file_tag@@YGXPAU_iobuf@@QAPBDH@Z ; set_file_tag

; 809  : 	set_file_comment (file_ptr, "/////////////////////////////////////////////////////////////////////////////////////////////////////////////////////////////////");

  0019f	68 00 00 00 00	 push	 OFFSET ??_C@_0IC@NPHAIGMI@?1?1?1?1?1?1?1?1?1?1?1?1?1?1?1?1?1?1?1?1?1?1?1?1?1?1?1?1?1?1?1@
  001a4	8b 85 4c fd ff
	ff		 mov	 eax, DWORD PTR _file_ptr$[ebp]
  001aa	50		 push	 eax
  001ab	e8 00 00 00 00	 call	 ?set_file_comment@@YGXPAU_iobuf@@PBD@Z ; set_file_comment

; 810  : 
; 811  : 	// Campaign title
; 812  : 
; 813  : 	set_file_new_line (file_ptr, 1);

  001b0	6a 01		 push	 1
  001b2	8b 85 4c fd ff
	ff		 mov	 eax, DWORD PTR _file_ptr$[ebp]
  001b8	50		 push	 eax
  001b9	e8 00 00 00 00	 call	 ?set_file_new_line@@YGXPAU_iobuf@@H@Z ; set_file_new_line

; 814  : 
; 815  : 	sprintf (title, "%s", game_session->title);

  001be	8b 45 08	 mov	 eax, DWORD PTR _game_session$[ebp]
  001c1	8b 48 04	 mov	 ecx, DWORD PTR [eax+4]
  001c4	51		 push	 ecx
  001c5	68 00 00 00 00	 push	 OFFSET ??_C@_02DKCKIIND@?$CFs@
  001ca	8d 95 58 ff ff
	ff		 lea	 edx, DWORD PTR _title$[ebp]
  001d0	52		 push	 edx
  001d1	e8 00 00 00 00	 call	 _sprintf
  001d6	83 c4 0c	 add	 esp, 12			; 0000000cH

; 816  : 
; 817  : 	set_file_comment (file_ptr, "/////////////////////////////////////////////////////////////////////////////////////////////////////////////////////////////////");

  001d9	68 00 00 00 00	 push	 OFFSET ??_C@_0IC@NPHAIGMI@?1?1?1?1?1?1?1?1?1?1?1?1?1?1?1?1?1?1?1?1?1?1?1?1?1?1?1?1?1?1?1@
  001de	8b 85 4c fd ff
	ff		 mov	 eax, DWORD PTR _file_ptr$[ebp]
  001e4	50		 push	 eax
  001e5	e8 00 00 00 00	 call	 ?set_file_comment@@YGXPAU_iobuf@@PBD@Z ; set_file_comment

; 818  : 	set_file_tag (file_ptr, application_tag_strings, FILE_TAG_TITLE);

  001ea	68 a0 00 00 00	 push	 160			; 000000a0H
  001ef	68 00 00 00 00	 push	 OFFSET ?application_tag_strings@@3PAPBDA ; application_tag_strings
  001f4	8b 85 4c fd ff
	ff		 mov	 eax, DWORD PTR _file_ptr$[ebp]
  001fa	50		 push	 eax
  001fb	e8 00 00 00 00	 call	 ?set_file_tag@@YGXPAU_iobuf@@QAPBDH@Z ; set_file_tag

; 819  : 	set_file_string (file_ptr, title);

  00200	8d 85 58 ff ff
	ff		 lea	 eax, DWORD PTR _title$[ebp]
  00206	50		 push	 eax
  00207	8b 8d 4c fd ff
	ff		 mov	 ecx, DWORD PTR _file_ptr$[ebp]
  0020d	51		 push	 ecx
  0020e	e8 00 00 00 00	 call	 ?set_file_string@@YGXPAU_iobuf@@PBD@Z ; set_file_string

; 820  : 	set_file_comment (file_ptr, "/////////////////////////////////////////////////////////////////////////////////////////////////////////////////////////////////");

  00213	68 00 00 00 00	 push	 OFFSET ??_C@_0IC@NPHAIGMI@?1?1?1?1?1?1?1?1?1?1?1?1?1?1?1?1?1?1?1?1?1?1?1?1?1?1?1?1?1?1?1@
  00218	8b 85 4c fd ff
	ff		 mov	 eax, DWORD PTR _file_ptr$[ebp]
  0021e	50		 push	 eax
  0021f	e8 00 00 00 00	 call	 ?set_file_comment@@YGXPAU_iobuf@@PBD@Z ; set_file_comment

; 821  : 
; 822  : 	set_file_new_line (file_ptr, 1);

  00224	6a 01		 push	 1
  00226	8b 85 4c fd ff
	ff		 mov	 eax, DWORD PTR _file_ptr$[ebp]
  0022c	50		 push	 eax
  0022d	e8 00 00 00 00	 call	 ?set_file_new_line@@YGXPAU_iobuf@@H@Z ; set_file_new_line

; 823  : 
; 824  : 	set_file_comment (file_ptr, "/////////////////////////////////////////////////////////////////////////////////////////////////////////////////////////////////");

  00232	68 00 00 00 00	 push	 OFFSET ??_C@_0IC@NPHAIGMI@?1?1?1?1?1?1?1?1?1?1?1?1?1?1?1?1?1?1?1?1?1?1?1?1?1?1?1?1?1?1?1@
  00237	8b 85 4c fd ff
	ff		 mov	 eax, DWORD PTR _file_ptr$[ebp]
  0023d	50		 push	 eax
  0023e	e8 00 00 00 00	 call	 ?set_file_comment@@YGXPAU_iobuf@@PBD@Z ; set_file_comment

; 825  : 	set_file_tag (file_ptr, application_tag_strings, FILE_TAG_SHORT_TEXT_START);

  00243	68 93 00 00 00	 push	 147			; 00000093H
  00248	68 00 00 00 00	 push	 OFFSET ?application_tag_strings@@3PAPBDA ; application_tag_strings
  0024d	8b 85 4c fd ff
	ff		 mov	 eax, DWORD PTR _file_ptr$[ebp]
  00253	50		 push	 eax
  00254	e8 00 00 00 00	 call	 ?set_file_tag@@YGXPAU_iobuf@@QAPBDH@Z ; set_file_tag

; 826  : 
; 827  : 	// campaign title
; 828  : 
; 829  : 	set_file_string (file_ptr, game_session->title);

  00259	8b 45 08	 mov	 eax, DWORD PTR _game_session$[ebp]
  0025c	8b 48 04	 mov	 ecx, DWORD PTR [eax+4]
  0025f	51		 push	 ecx
  00260	8b 95 4c fd ff
	ff		 mov	 edx, DWORD PTR _file_ptr$[ebp]
  00266	52		 push	 edx
  00267	e8 00 00 00 00	 call	 ?set_file_string@@YGXPAU_iobuf@@PBD@Z ; set_file_string

; 830  : 
; 831  : 	set_file_new_line (file_ptr, 2);

  0026c	6a 02		 push	 2
  0026e	8b 85 4c fd ff
	ff		 mov	 eax, DWORD PTR _file_ptr$[ebp]
  00274	50		 push	 eax
  00275	e8 00 00 00 00	 call	 ?set_file_new_line@@YGXPAU_iobuf@@H@Z ; set_file_new_line

; 832  : 
; 833  : 	// elapsed campaign time
; 834  : 	{
; 835  : 		float
; 836  : 			elapsed_time;
; 837  : 
; 838  : 		int
; 839  : 			hours,
; 840  : 			minutes,
; 841  : 			seconds,
; 842  : 			elapsed_days;
; 843  : 
; 844  : 		elapsed_time = get_local_entity_float_value (get_session_entity (), FLOAT_TYPE_ELAPSED_TIME);

  0027a	83 3d 00 00 00
	00 00		 cmp	 DWORD PTR ?session_entity@@3PAUENTITY@@A, 0 ; session_entity
  00281	74 0f		 je	 SHORT $LN16@store_sess
  00283	a1 00 00 00 00	 mov	 eax, DWORD PTR ?session_entity@@3PAUENTITY@@A ; session_entity
  00288	8b 08		 mov	 ecx, DWORD PTR [eax]
  0028a	89 8d 9c fc ff
	ff		 mov	 DWORD PTR tv185[ebp], ecx
  00290	eb 24		 jmp	 SHORT $LN17@store_sess
$LN16@store_sess:
  00292	8b 15 00 00 00
	00		 mov	 edx, DWORD PTR ?__LINE__Var@?0??store_session@@YGHPAUSESSION_LIST_DATA_TYPE@@PBD@Z@4JA
  00298	83 c2 5c	 add	 edx, 92			; 0000005cH
  0029b	52		 push	 edx
  0029c	68 00 00 00 00	 push	 OFFSET ??_C@_0EI@MFEMPFPC@c?3?2users?2nhv90?2projects?2eech?2ap@
  002a1	a1 00 00 00 00	 mov	 eax, DWORD PTR ?null_entity_pointer_message@@3PBDB ; null_entity_pointer_message
  002a6	50		 push	 eax
  002a7	e8 00 00 00 00	 call	 ?process_assert@@YGXPBD0H@Z ; process_assert
  002ac	c7 85 9c fc ff
	ff 00 00 00 00	 mov	 DWORD PTR tv185[ebp], 0
$LN17@store_sess:
  002b6	b9 01 00 00 00	 mov	 ecx, 1
  002bb	85 c9		 test	 ecx, ecx
  002bd	74 0c		 je	 SHORT $LN18@store_sess
  002bf	c7 85 98 fc ff
	ff 23 00 00 00	 mov	 DWORD PTR tv193[ebp], 35 ; 00000023H
  002c9	eb 24		 jmp	 SHORT $LN19@store_sess
$LN18@store_sess:
  002cb	8b 15 00 00 00
	00		 mov	 edx, DWORD PTR ?__LINE__Var@?0??store_session@@YGHPAUSESSION_LIST_DATA_TYPE@@PBD@Z@4JA
  002d1	83 c2 5c	 add	 edx, 92			; 0000005cH
  002d4	52		 push	 edx
  002d5	68 00 00 00 00	 push	 OFFSET ??_C@_0EI@MFEMPFPC@c?3?2users?2nhv90?2projects?2eech?2ap@
  002da	a1 00 00 00 00	 mov	 eax, DWORD PTR ?overload_invalid_float_type_message@@3PBDB ; overload_invalid_float_type_message
  002df	50		 push	 eax
  002e0	e8 00 00 00 00	 call	 ?process_assert@@YGXPBD0H@Z ; process_assert
  002e5	c7 85 98 fc ff
	ff 00 00 00 00	 mov	 DWORD PTR tv193[ebp], 0
$LN19@store_sess:
  002ef	6a 23		 push	 35			; 00000023H
  002f1	8b 0d 00 00 00
	00		 mov	 ecx, DWORD PTR ?session_entity@@3PAUENTITY@@A ; session_entity
  002f7	51		 push	 ecx
  002f8	69 95 9c fc ff
	ff bc 02 00 00	 imul	 edx, DWORD PTR tv185[ebp], 700
  00302	8b 85 98 fc ff
	ff		 mov	 eax, DWORD PTR tv193[ebp]
  00308	8b 8c 82 00 00
	00 00		 mov	 ecx, DWORD PTR ?fn_get_local_entity_float_value@@3PAY0KP@P6GMPAUENTITY@@W4FLOAT_TYPES@@@ZA[edx+eax*4]
  0030f	ff d1		 call	 ecx
  00311	d9 9d 48 fd ff
	ff		 fstp	 DWORD PTR _elapsed_time$11[ebp]

; 845  : 
; 846  : 		convert_float_to_int (elapsed_time / ONE_DAY, &elapsed_days);

  00317	8d 85 38 fd ff
	ff		 lea	 eax, DWORD PTR _elapsed_days$7[ebp]
  0031d	50		 push	 eax
  0031e	f3 0f 10 85 48
	fd ff ff	 movss	 xmm0, DWORD PTR _elapsed_time$11[ebp]
  00326	f3 0f 5e 05 00
	00 00 00	 divss	 xmm0, DWORD PTR __real@47a8c000
  0032e	51		 push	 ecx
  0032f	f3 0f 11 04 24	 movss	 DWORD PTR [esp], xmm0
  00334	e8 00 00 00 00	 call	 ?convert_float_to_int@@YGXMPAH@Z ; convert_float_to_int

; 847  : 
; 848  : 		elapsed_time = fmod (elapsed_time, ONE_DAY);

  00339	68 80 51 01 00	 push	 86400			; 00015180H
  0033e	51		 push	 ecx
  0033f	f3 0f 10 85 48
	fd ff ff	 movss	 xmm0, DWORD PTR _elapsed_time$11[ebp]
  00347	f3 0f 11 04 24	 movss	 DWORD PTR [esp], xmm0
  0034c	e8 00 00 00 00	 call	 ??$fmod@MHX@@YGNMH@Z	; fmod<float,int,void>
  00351	d9 9d 48 fd ff
	ff		 fstp	 DWORD PTR _elapsed_time$11[ebp]

; 849  : 
; 850  : 		get_digital_clock_int_values (elapsed_time, &hours, &minutes, &seconds);

  00357	8d 85 3c fd ff
	ff		 lea	 eax, DWORD PTR _seconds$8[ebp]
  0035d	50		 push	 eax
  0035e	8d 8d 40 fd ff
	ff		 lea	 ecx, DWORD PTR _minutes$9[ebp]
  00364	51		 push	 ecx
  00365	8d 95 44 fd ff
	ff		 lea	 edx, DWORD PTR _hours$10[ebp]
  0036b	52		 push	 edx
  0036c	51		 push	 ecx
  0036d	f3 0f 10 85 48
	fd ff ff	 movss	 xmm0, DWORD PTR _elapsed_time$11[ebp]
  00375	f3 0f 11 04 24	 movss	 DWORD PTR [esp], xmm0
  0037a	e8 00 00 00 00	 call	 ?get_digital_clock_int_values@@YGXMPAH00@Z ; get_digital_clock_int_values

; 851  : 
; 852  : 		sprintf (script_filename, "%s %d %s, %02d.%02d.%02d",

  0037f	8b 85 3c fd ff
	ff		 mov	 eax, DWORD PTR _seconds$8[ebp]
  00385	50		 push	 eax
  00386	8b 8d 40 fd ff
	ff		 mov	 ecx, DWORD PTR _minutes$9[ebp]
  0038c	51		 push	 ecx
  0038d	8b 95 44 fd ff
	ff		 mov	 edx, DWORD PTR _hours$10[ebp]
  00393	52		 push	 edx
  00394	68 00 00 00 00	 push	 OFFSET ??_C@_04IJMHDAOD@days@
  00399	e8 00 00 00 00	 call	 ?get_trans@@YGPBDPBD@Z	; get_trans
  0039e	50		 push	 eax
  0039f	8b 85 38 fd ff
	ff		 mov	 eax, DWORD PTR _elapsed_days$7[ebp]
  003a5	50		 push	 eax
  003a6	68 00 00 00 00	 push	 OFFSET ??_C@_0N@OACKFMDA@Elapsed?5Time@
  003ab	e8 00 00 00 00	 call	 ?get_trans@@YGPBDPBD@Z	; get_trans
  003b0	50		 push	 eax
  003b1	68 00 00 00 00	 push	 OFFSET ??_C@_0BJ@GPGFIJMO@?$CFs?5?$CFd?5?$CFs?0?5?$CF02d?4?$CF02d?4?$CF02d@
  003b6	8d 8d 50 fd ff
	ff		 lea	 ecx, DWORD PTR _script_filename$[ebp]
  003bc	51		 push	 ecx
  003bd	e8 00 00 00 00	 call	 _sprintf
  003c2	83 c4 20	 add	 esp, 32			; 00000020H

; 853  : 						get_trans ("Elapsed Time"),
; 854  : 						elapsed_days,
; 855  : 						get_trans ("days"),
; 856  : 						hours, minutes, seconds);
; 857  : 
; 858  : 
; 859  : 
; 860  : 		set_file_string (file_ptr, script_filename);

  003c5	8d 85 50 fd ff
	ff		 lea	 eax, DWORD PTR _script_filename$[ebp]
  003cb	50		 push	 eax
  003cc	8b 8d 4c fd ff
	ff		 mov	 ecx, DWORD PTR _file_ptr$[ebp]
  003d2	51		 push	 ecx
  003d3	e8 00 00 00 00	 call	 ?set_file_string@@YGXPAU_iobuf@@PBD@Z ; set_file_string

; 861  : 
; 862  : 		set_file_new_line (file_ptr, 1);

  003d8	6a 01		 push	 1
  003da	8b 85 4c fd ff
	ff		 mov	 eax, DWORD PTR _file_ptr$[ebp]
  003e0	50		 push	 eax
  003e1	e8 00 00 00 00	 call	 ?set_file_new_line@@YGXPAU_iobuf@@H@Z ; set_file_new_line

; 863  : 	}
; 864  : 	set_file_tag (file_ptr, application_tag_strings, FILE_TAG_TEXT_END);

  003e6	68 9f 00 00 00	 push	 159			; 0000009fH
  003eb	68 00 00 00 00	 push	 OFFSET ?application_tag_strings@@3PAPBDA ; application_tag_strings
  003f0	8b 85 4c fd ff
	ff		 mov	 eax, DWORD PTR _file_ptr$[ebp]
  003f6	50		 push	 eax
  003f7	e8 00 00 00 00	 call	 ?set_file_tag@@YGXPAU_iobuf@@QAPBDH@Z ; set_file_tag

; 865  : 	set_file_comment (file_ptr, "/////////////////////////////////////////////////////////////////////////////////////////////////////////////////////////////////");

  003fc	68 00 00 00 00	 push	 OFFSET ??_C@_0IC@NPHAIGMI@?1?1?1?1?1?1?1?1?1?1?1?1?1?1?1?1?1?1?1?1?1?1?1?1?1?1?1?1?1?1?1@
  00401	8b 85 4c fd ff
	ff		 mov	 eax, DWORD PTR _file_ptr$[ebp]
  00407	50		 push	 eax
  00408	e8 00 00 00 00	 call	 ?set_file_comment@@YGXPAU_iobuf@@PBD@Z ; set_file_comment

; 866  : 	set_file_new_line (file_ptr, 1);

  0040d	6a 01		 push	 1
  0040f	8b 85 4c fd ff
	ff		 mov	 eax, DWORD PTR _file_ptr$[ebp]
  00415	50		 push	 eax
  00416	e8 00 00 00 00	 call	 ?set_file_new_line@@YGXPAU_iobuf@@H@Z ; set_file_new_line

; 867  : 
; 868  : 	set_file_tag (file_ptr, application_tag_strings, FILE_TAG_CAMPAIGN_DATA);

  0041b	6a 0d		 push	 13			; 0000000dH
  0041d	68 00 00 00 00	 push	 OFFSET ?application_tag_strings@@3PAPBDA ; application_tag_strings
  00422	8b 85 4c fd ff
	ff		 mov	 eax, DWORD PTR _file_ptr$[ebp]
  00428	50		 push	 eax
  00429	e8 00 00 00 00	 call	 ?set_file_tag@@YGXPAU_iobuf@@QAPBDH@Z ; set_file_tag

; 869  : 
; 870  : 	if (side_data_filename)

  0042e	83 3d 00 00 00
	00 00		 cmp	 DWORD PTR ?side_data_filename@@3PADA, 0 ; side_data_filename
  00435	74 25		 je	 SHORT $LN10@store_sess

; 871  : 	{
; 872  : 
; 873  : 		// side data
; 874  : 		set_file_tag (file_ptr, application_tag_strings, FILE_TAG_FILENAME);

  00437	6a f1		 push	 -15			; fffffff1H
  00439	68 00 00 00 00	 push	 OFFSET ?application_tag_strings@@3PAPBDA ; application_tag_strings
  0043e	8b 85 4c fd ff
	ff		 mov	 eax, DWORD PTR _file_ptr$[ebp]
  00444	50		 push	 eax
  00445	e8 00 00 00 00	 call	 ?set_file_tag@@YGXPAU_iobuf@@QAPBDH@Z ; set_file_tag

; 875  : 		set_file_string (file_ptr, side_data_filename);

  0044a	a1 00 00 00 00	 mov	 eax, DWORD PTR ?side_data_filename@@3PADA ; side_data_filename
  0044f	50		 push	 eax
  00450	8b 8d 4c fd ff
	ff		 mov	 ecx, DWORD PTR _file_ptr$[ebp]
  00456	51		 push	 ecx
  00457	e8 00 00 00 00	 call	 ?set_file_string@@YGXPAU_iobuf@@PBD@Z ; set_file_string
$LN10@store_sess:

; 876  : 	}
; 877  : 
; 878  : 	if (population_placement_filename)

  0045c	83 3d 00 00 00
	00 00		 cmp	 DWORD PTR ?population_placement_filename@@3PADA, 0 ; population_placement_filename
  00463	74 25		 je	 SHORT $LN11@store_sess

; 879  : 	{
; 880  : 
; 881  : 		// population data
; 882  : 		set_file_tag (file_ptr, application_tag_strings, FILE_TAG_FILENAME);

  00465	6a f1		 push	 -15			; fffffff1H
  00467	68 00 00 00 00	 push	 OFFSET ?application_tag_strings@@3PAPBDA ; application_tag_strings
  0046c	8b 85 4c fd ff
	ff		 mov	 eax, DWORD PTR _file_ptr$[ebp]
  00472	50		 push	 eax
  00473	e8 00 00 00 00	 call	 ?set_file_tag@@YGXPAU_iobuf@@QAPBDH@Z ; set_file_tag

; 883  : 		set_file_string (file_ptr, population_placement_filename);

  00478	a1 00 00 00 00	 mov	 eax, DWORD PTR ?population_placement_filename@@3PADA ; population_placement_filename
  0047d	50		 push	 eax
  0047e	8b 8d 4c fd ff
	ff		 mov	 ecx, DWORD PTR _file_ptr$[ebp]
  00484	51		 push	 ecx
  00485	e8 00 00 00 00	 call	 ?set_file_string@@YGXPAU_iobuf@@PBD@Z ; set_file_string
$LN11@store_sess:

; 884  : 	}
; 885  : 
; 886  : 	set_file_tag (file_ptr, application_tag_strings, FILE_TAG_MAP_X_SIZE);

  0048a	6a 5c		 push	 92			; 0000005cH
  0048c	68 00 00 00 00	 push	 OFFSET ?application_tag_strings@@3PAPBDA ; application_tag_strings
  00491	8b 85 4c fd ff
	ff		 mov	 eax, DWORD PTR _file_ptr$[ebp]
  00497	50		 push	 eax
  00498	e8 00 00 00 00	 call	 ?set_file_tag@@YGXPAU_iobuf@@QAPBDH@Z ; set_file_tag

; 887  : 	set_file_int (file_ptr, world_map.num_map_x_sectors);

  0049d	a1 08 00 00 00	 mov	 eax, DWORD PTR ?world_map@@3UWORLD_MAP_DATA@@A+8
  004a2	50		 push	 eax
  004a3	8b 8d 4c fd ff
	ff		 mov	 ecx, DWORD PTR _file_ptr$[ebp]
  004a9	51		 push	 ecx
  004aa	e8 00 00 00 00	 call	 ?set_file_int@@YGXPAU_iobuf@@H@Z ; set_file_int

; 888  : 	set_file_tag (file_ptr, application_tag_strings, FILE_TAG_MAP_Z_SIZE);

  004af	6a 5f		 push	 95			; 0000005fH
  004b1	68 00 00 00 00	 push	 OFFSET ?application_tag_strings@@3PAPBDA ; application_tag_strings
  004b6	8b 85 4c fd ff
	ff		 mov	 eax, DWORD PTR _file_ptr$[ebp]
  004bc	50		 push	 eax
  004bd	e8 00 00 00 00	 call	 ?set_file_tag@@YGXPAU_iobuf@@QAPBDH@Z ; set_file_tag

; 889  : 	set_file_int (file_ptr, world_map.num_map_z_sectors);

  004c2	a1 0c 00 00 00	 mov	 eax, DWORD PTR ?world_map@@3UWORLD_MAP_DATA@@A+12
  004c7	50		 push	 eax
  004c8	8b 8d 4c fd ff
	ff		 mov	 ecx, DWORD PTR _file_ptr$[ebp]
  004ce	51		 push	 ecx
  004cf	e8 00 00 00 00	 call	 ?set_file_int@@YGXPAU_iobuf@@H@Z ; set_file_int

; 890  : 	set_file_tag (file_ptr, application_tag_strings, FILE_TAG_MAP_SECTOR_SIZE);

  004d4	6a 59		 push	 89			; 00000059H
  004d6	68 00 00 00 00	 push	 OFFSET ?application_tag_strings@@3PAPBDA ; application_tag_strings
  004db	8b 85 4c fd ff
	ff		 mov	 eax, DWORD PTR _file_ptr$[ebp]
  004e1	50		 push	 eax
  004e2	e8 00 00 00 00	 call	 ?set_file_tag@@YGXPAU_iobuf@@QAPBDH@Z ; set_file_tag

; 891  : 	set_file_int (file_ptr, world_map.sector_side_length);

  004e7	a1 00 00 00 00	 mov	 eax, DWORD PTR ?world_map@@3UWORLD_MAP_DATA@@A
  004ec	50		 push	 eax
  004ed	8b 8d 4c fd ff
	ff		 mov	 ecx, DWORD PTR _file_ptr$[ebp]
  004f3	51		 push	 ecx
  004f4	e8 00 00 00 00	 call	 ?set_file_int@@YGXPAU_iobuf@@H@Z ; set_file_int

; 892  : 
; 893  : 	if (campaign_population_filename)

  004f9	83 3d 00 00 00
	00 00		 cmp	 DWORD PTR ?campaign_population_filename@@3PADA, 0 ; campaign_population_filename
  00500	74 25		 je	 SHORT $LN12@store_sess

; 894  : 	{
; 895  : 
; 896  : 		// population data
; 897  : 		set_file_tag (file_ptr, application_tag_strings, FILE_TAG_FILENAME);

  00502	6a f1		 push	 -15			; fffffff1H
  00504	68 00 00 00 00	 push	 OFFSET ?application_tag_strings@@3PAPBDA ; application_tag_strings
  00509	8b 85 4c fd ff
	ff		 mov	 eax, DWORD PTR _file_ptr$[ebp]
  0050f	50		 push	 eax
  00510	e8 00 00 00 00	 call	 ?set_file_tag@@YGXPAU_iobuf@@QAPBDH@Z ; set_file_tag

; 898  : 		set_file_string (file_ptr, campaign_population_filename);

  00515	a1 00 00 00 00	 mov	 eax, DWORD PTR ?campaign_population_filename@@3PADA ; campaign_population_filename
  0051a	50		 push	 eax
  0051b	8b 8d 4c fd ff
	ff		 mov	 ecx, DWORD PTR _file_ptr$[ebp]
  00521	51		 push	 ecx
  00522	e8 00 00 00 00	 call	 ?set_file_string@@YGXPAU_iobuf@@PBD@Z ; set_file_string
$LN12@store_sess:

; 899  : 	}
; 900  : 
; 901  : 	//
; 902  : 	// save force in reverse order to list (so that they are read_in in the correct order)
; 903  : 	//
; 904  : 
; 905  : 	force = get_local_entity_first_child (get_session_entity (), LIST_TYPE_FORCE);

  00527	83 3d 00 00 00
	00 00		 cmp	 DWORD PTR ?session_entity@@3PAUENTITY@@A, 0 ; session_entity
  0052e	74 0f		 je	 SHORT $LN20@store_sess
  00530	a1 00 00 00 00	 mov	 eax, DWORD PTR ?session_entity@@3PAUENTITY@@A ; session_entity
  00535	8b 08		 mov	 ecx, DWORD PTR [eax]
  00537	89 8d 9c fc ff
	ff		 mov	 DWORD PTR tv275[ebp], ecx
  0053d	eb 27		 jmp	 SHORT $LN21@store_sess
$LN20@store_sess:
  0053f	8b 15 00 00 00
	00		 mov	 edx, DWORD PTR ?__LINE__Var@?0??store_session@@YGHPAUSESSION_LIST_DATA_TYPE@@PBD@Z@4JA
  00545	81 c2 99 00 00
	00		 add	 edx, 153		; 00000099H
  0054b	52		 push	 edx
  0054c	68 00 00 00 00	 push	 OFFSET ??_C@_0EI@MFEMPFPC@c?3?2users?2nhv90?2projects?2eech?2ap@
  00551	a1 00 00 00 00	 mov	 eax, DWORD PTR ?null_entity_pointer_message@@3PBDB ; null_entity_pointer_message
  00556	50		 push	 eax
  00557	e8 00 00 00 00	 call	 ?process_assert@@YGXPBD0H@Z ; process_assert
  0055c	c7 85 9c fc ff
	ff 00 00 00 00	 mov	 DWORD PTR tv275[ebp], 0
$LN21@store_sess:
  00566	b9 01 00 00 00	 mov	 ecx, 1
  0056b	85 c9		 test	 ecx, ecx
  0056d	74 0c		 je	 SHORT $LN22@store_sess
  0056f	c7 85 98 fc ff
	ff 0e 00 00 00	 mov	 DWORD PTR tv283[ebp], 14 ; 0000000eH
  00579	eb 27		 jmp	 SHORT $LN23@store_sess
$LN22@store_sess:
  0057b	8b 15 00 00 00
	00		 mov	 edx, DWORD PTR ?__LINE__Var@?0??store_session@@YGHPAUSESSION_LIST_DATA_TYPE@@PBD@Z@4JA
  00581	81 c2 99 00 00
	00		 add	 edx, 153		; 00000099H
  00587	52		 push	 edx
  00588	68 00 00 00 00	 push	 OFFSET ??_C@_0EI@MFEMPFPC@c?3?2users?2nhv90?2projects?2eech?2ap@
  0058d	a1 00 00 00 00	 mov	 eax, DWORD PTR ?overload_invalid_list_type_message@@3PBDB ; overload_invalid_list_type_message
  00592	50		 push	 eax
  00593	e8 00 00 00 00	 call	 ?process_assert@@YGXPBD0H@Z ; process_assert
  00598	c7 85 98 fc ff
	ff 00 00 00 00	 mov	 DWORD PTR tv283[ebp], 0
$LN23@store_sess:
  005a2	6a 0e		 push	 14			; 0000000eH
  005a4	8b 0d 00 00 00
	00		 mov	 ecx, DWORD PTR ?session_entity@@3PAUENTITY@@A ; session_entity
  005aa	51		 push	 ecx
  005ab	69 95 9c fc ff
	ff b4 00 00 00	 imul	 edx, DWORD PTR tv275[ebp], 180
  005b5	8b 85 98 fc ff
	ff		 mov	 eax, DWORD PTR tv283[ebp]
  005bb	8b 8c 82 00 00
	00 00		 mov	 ecx, DWORD PTR ?fn_get_local_entity_first_child@@3PAY0CN@P6GPAUENTITY@@PAU1@W4LIST_TYPES@@@ZA[edx+eax*4]
  005c2	ff d1		 call	 ecx
  005c4	89 45 fc	 mov	 DWORD PTR _force$[ebp], eax

; 906  : 
; 907  : 	ASSERT (force);

  005c7	83 7d fc 00	 cmp	 DWORD PTR _force$[ebp], 0
  005cb	75 1a		 jne	 SHORT $LN13@store_sess
  005cd	a1 00 00 00 00	 mov	 eax, DWORD PTR ?__LINE__Var@?0??store_session@@YGHPAUSESSION_LIST_DATA_TYPE@@PBD@Z@4JA
  005d2	05 9b 00 00 00	 add	 eax, 155		; 0000009bH
  005d7	50		 push	 eax
  005d8	68 00 00 00 00	 push	 OFFSET ??_C@_0EI@MFEMPFPC@c?3?2users?2nhv90?2projects?2eech?2ap@
  005dd	68 00 00 00 00	 push	 OFFSET ??_C@_05BINPNAAL@force@
  005e2	e8 00 00 00 00	 call	 ?process_assert@@YGXPBD0H@Z ; process_assert
$LN13@store_sess:

; 908  : 
; 909  : 	while (get_local_entity_child_succ (force, LIST_TYPE_FORCE))

  005e7	83 7d fc 00	 cmp	 DWORD PTR _force$[ebp], 0
  005eb	74 0d		 je	 SHORT $LN24@store_sess
  005ed	8b 45 fc	 mov	 eax, DWORD PTR _force$[ebp]
  005f0	8b 08		 mov	 ecx, DWORD PTR [eax]
  005f2	89 8d 9c fc ff
	ff		 mov	 DWORD PTR tv300[ebp], ecx
  005f8	eb 27		 jmp	 SHORT $LN25@store_sess
$LN24@store_sess:
  005fa	8b 15 00 00 00
	00		 mov	 edx, DWORD PTR ?__LINE__Var@?0??store_session@@YGHPAUSESSION_LIST_DATA_TYPE@@PBD@Z@4JA
  00600	81 c2 9d 00 00
	00		 add	 edx, 157		; 0000009dH
  00606	52		 push	 edx
  00607	68 00 00 00 00	 push	 OFFSET ??_C@_0EI@MFEMPFPC@c?3?2users?2nhv90?2projects?2eech?2ap@
  0060c	a1 00 00 00 00	 mov	 eax, DWORD PTR ?null_entity_pointer_message@@3PBDB ; null_entity_pointer_message
  00611	50		 push	 eax
  00612	e8 00 00 00 00	 call	 ?process_assert@@YGXPBD0H@Z ; process_assert
  00617	c7 85 9c fc ff
	ff 00 00 00 00	 mov	 DWORD PTR tv300[ebp], 0
$LN25@store_sess:
  00621	b9 01 00 00 00	 mov	 ecx, 1
  00626	85 c9		 test	 ecx, ecx
  00628	74 0c		 je	 SHORT $LN26@store_sess
  0062a	c7 85 98 fc ff
	ff 0e 00 00 00	 mov	 DWORD PTR tv308[ebp], 14 ; 0000000eH
  00634	eb 27		 jmp	 SHORT $LN27@store_sess
$LN26@store_sess:
  00636	8b 15 00 00 00
	00		 mov	 edx, DWORD PTR ?__LINE__Var@?0??store_session@@YGHPAUSESSION_LIST_DATA_TYPE@@PBD@Z@4JA
  0063c	81 c2 9d 00 00
	00		 add	 edx, 157		; 0000009dH
  00642	52		 push	 edx
  00643	68 00 00 00 00	 push	 OFFSET ??_C@_0EI@MFEMPFPC@c?3?2users?2nhv90?2projects?2eech?2ap@
  00648	a1 00 00 00 00	 mov	 eax, DWORD PTR ?overload_invalid_list_type_message@@3PBDB ; overload_invalid_list_type_message
  0064d	50		 push	 eax
  0064e	e8 00 00 00 00	 call	 ?process_assert@@YGXPBD0H@Z ; process_assert
  00653	c7 85 98 fc ff
	ff 00 00 00 00	 mov	 DWORD PTR tv308[ebp], 0
$LN27@store_sess:
  0065d	6a 0e		 push	 14			; 0000000eH
  0065f	8b 4d fc	 mov	 ecx, DWORD PTR _force$[ebp]
  00662	51		 push	 ecx
  00663	69 95 9c fc ff
	ff b4 00 00 00	 imul	 edx, DWORD PTR tv300[ebp], 180
  0066d	8b 85 98 fc ff
	ff		 mov	 eax, DWORD PTR tv308[ebp]
  00673	8b 8c 82 00 00
	00 00		 mov	 ecx, DWORD PTR ?fn_get_local_entity_child_succ@@3PAY0CN@P6GPAUENTITY@@PAU1@W4LIST_TYPES@@@ZA[edx+eax*4]
  0067a	ff d1		 call	 ecx
  0067c	85 c0		 test	 eax, eax
  0067e	0f 84 9d 00 00
	00		 je	 $LN3@store_sess

; 910  : 	{
; 911  : 
; 912  : 		force = get_local_entity_child_succ (force, LIST_TYPE_FORCE);

  00684	83 7d fc 00	 cmp	 DWORD PTR _force$[ebp], 0
  00688	74 0d		 je	 SHORT $LN28@store_sess
  0068a	8b 45 fc	 mov	 eax, DWORD PTR _force$[ebp]
  0068d	8b 08		 mov	 ecx, DWORD PTR [eax]
  0068f	89 8d 9c fc ff
	ff		 mov	 DWORD PTR tv353[ebp], ecx
  00695	eb 27		 jmp	 SHORT $LN29@store_sess
$LN28@store_sess:
  00697	8b 15 00 00 00
	00		 mov	 edx, DWORD PTR ?__LINE__Var@?0??store_session@@YGHPAUSESSION_LIST_DATA_TYPE@@PBD@Z@4JA
  0069d	81 c2 a0 00 00
	00		 add	 edx, 160		; 000000a0H
  006a3	52		 push	 edx
  006a4	68 00 00 00 00	 push	 OFFSET ??_C@_0EI@MFEMPFPC@c?3?2users?2nhv90?2projects?2eech?2ap@
  006a9	a1 00 00 00 00	 mov	 eax, DWORD PTR ?null_entity_pointer_message@@3PBDB ; null_entity_pointer_message
  006ae	50		 push	 eax
  006af	e8 00 00 00 00	 call	 ?process_assert@@YGXPBD0H@Z ; process_assert
  006b4	c7 85 9c fc ff
	ff 00 00 00 00	 mov	 DWORD PTR tv353[ebp], 0
$LN29@store_sess:
  006be	b9 01 00 00 00	 mov	 ecx, 1
  006c3	85 c9		 test	 ecx, ecx
  006c5	74 0c		 je	 SHORT $LN30@store_sess
  006c7	c7 85 98 fc ff
	ff 0e 00 00 00	 mov	 DWORD PTR tv361[ebp], 14 ; 0000000eH
  006d1	eb 27		 jmp	 SHORT $LN31@store_sess
$LN30@store_sess:
  006d3	8b 15 00 00 00
	00		 mov	 edx, DWORD PTR ?__LINE__Var@?0??store_session@@YGHPAUSESSION_LIST_DATA_TYPE@@PBD@Z@4JA
  006d9	81 c2 a0 00 00
	00		 add	 edx, 160		; 000000a0H
  006df	52		 push	 edx
  006e0	68 00 00 00 00	 push	 OFFSET ??_C@_0EI@MFEMPFPC@c?3?2users?2nhv90?2projects?2eech?2ap@
  006e5	a1 00 00 00 00	 mov	 eax, DWORD PTR ?overload_invalid_list_type_message@@3PBDB ; overload_invalid_list_type_message
  006ea	50		 push	 eax
  006eb	e8 00 00 00 00	 call	 ?process_assert@@YGXPBD0H@Z ; process_assert
  006f0	c7 85 98 fc ff
	ff 00 00 00 00	 mov	 DWORD PTR tv361[ebp], 0
$LN31@store_sess:
  006fa	6a 0e		 push	 14			; 0000000eH
  006fc	8b 4d fc	 mov	 ecx, DWORD PTR _force$[ebp]
  006ff	51		 push	 ecx
  00700	69 95 9c fc ff
	ff b4 00 00 00	 imul	 edx, DWORD PTR tv353[ebp], 180
  0070a	8b 85 98 fc ff
	ff		 mov	 eax, DWORD PTR tv361[ebp]
  00710	8b 8c 82 00 00
	00 00		 mov	 ecx, DWORD PTR ?fn_get_local_entity_child_succ@@3PAY0CN@P6GPAUENTITY@@PAU1@W4LIST_TYPES@@@ZA[edx+eax*4]
  00717	ff d1		 call	 ecx
  00719	89 45 fc	 mov	 DWORD PTR _force$[ebp], eax

; 913  : 	}

  0071c	e9 c6 fe ff ff	 jmp	 $LN13@store_sess
$LN3@store_sess:

; 914  : 
; 915  : 	while (force)

  00721	83 7d fc 00	 cmp	 DWORD PTR _force$[ebp], 0
  00725	0f 84 2a 02 00
	00		 je	 $LN5@store_sess

; 916  : 	{
; 917  : 
; 918  : 		set_file_tag (file_ptr, application_tag_strings, FILE_TAG_FACTION);

  0072b	6a 21		 push	 33			; 00000021H
  0072d	68 00 00 00 00	 push	 OFFSET ?application_tag_strings@@3PAPBDA ; application_tag_strings
  00732	8b 85 4c fd ff
	ff		 mov	 eax, DWORD PTR _file_ptr$[ebp]
  00738	50		 push	 eax
  00739	e8 00 00 00 00	 call	 ?set_file_tag@@YGXPAU_iobuf@@QAPBDH@Z ; set_file_tag

; 919  : 		set_file_tag (file_ptr, application_tag_strings, FILE_TAG_SIDE);

  0073e	68 94 00 00 00	 push	 148			; 00000094H
  00743	68 00 00 00 00	 push	 OFFSET ?application_tag_strings@@3PAPBDA ; application_tag_strings
  00748	8b 85 4c fd ff
	ff		 mov	 eax, DWORD PTR _file_ptr$[ebp]
  0074e	50		 push	 eax
  0074f	e8 00 00 00 00	 call	 ?set_file_tag@@YGXPAU_iobuf@@QAPBDH@Z ; set_file_tag

; 920  : 		set_file_enum (file_ptr, entity_side_names, get_local_entity_int_value (force, INT_TYPE_SIDE));

  00754	83 7d fc 00	 cmp	 DWORD PTR _force$[ebp], 0
  00758	74 0d		 je	 SHORT $LN32@store_sess
  0075a	8b 45 fc	 mov	 eax, DWORD PTR _force$[ebp]
  0075d	8b 08		 mov	 ecx, DWORD PTR [eax]
  0075f	89 8d 9c fc ff
	ff		 mov	 DWORD PTR tv380[ebp], ecx
  00765	eb 27		 jmp	 SHORT $LN33@store_sess
$LN32@store_sess:
  00767	8b 15 00 00 00
	00		 mov	 edx, DWORD PTR ?__LINE__Var@?0??store_session@@YGHPAUSESSION_LIST_DATA_TYPE@@PBD@Z@4JA
  0076d	81 c2 a8 00 00
	00		 add	 edx, 168		; 000000a8H
  00773	52		 push	 edx
  00774	68 00 00 00 00	 push	 OFFSET ??_C@_0EI@MFEMPFPC@c?3?2users?2nhv90?2projects?2eech?2ap@
  00779	a1 00 00 00 00	 mov	 eax, DWORD PTR ?null_entity_pointer_message@@3PBDB ; null_entity_pointer_message
  0077e	50		 push	 eax
  0077f	e8 00 00 00 00	 call	 ?process_assert@@YGXPBD0H@Z ; process_assert
  00784	c7 85 9c fc ff
	ff 00 00 00 00	 mov	 DWORD PTR tv380[ebp], 0
$LN33@store_sess:
  0078e	b9 01 00 00 00	 mov	 ecx, 1
  00793	85 c9		 test	 ecx, ecx
  00795	74 0c		 je	 SHORT $LN34@store_sess
  00797	c7 85 98 fc ff
	ff bb 00 00 00	 mov	 DWORD PTR tv388[ebp], 187 ; 000000bbH
  007a1	eb 27		 jmp	 SHORT $LN35@store_sess
$LN34@store_sess:
  007a3	8b 15 00 00 00
	00		 mov	 edx, DWORD PTR ?__LINE__Var@?0??store_session@@YGHPAUSESSION_LIST_DATA_TYPE@@PBD@Z@4JA
  007a9	81 c2 a8 00 00
	00		 add	 edx, 168		; 000000a8H
  007af	52		 push	 edx
  007b0	68 00 00 00 00	 push	 OFFSET ??_C@_0EI@MFEMPFPC@c?3?2users?2nhv90?2projects?2eech?2ap@
  007b5	a1 00 00 00 00	 mov	 eax, DWORD PTR ?overload_invalid_int_type_message@@3PBDB ; overload_invalid_int_type_message
  007ba	50		 push	 eax
  007bb	e8 00 00 00 00	 call	 ?process_assert@@YGXPBD0H@Z ; process_assert
  007c0	c7 85 98 fc ff
	ff 00 00 00 00	 mov	 DWORD PTR tv388[ebp], 0
$LN35@store_sess:
  007ca	68 bb 00 00 00	 push	 187			; 000000bbH
  007cf	8b 4d fc	 mov	 ecx, DWORD PTR _force$[ebp]
  007d2	51		 push	 ecx
  007d3	69 95 9c fc ff
	ff 5c 04 00 00	 imul	 edx, DWORD PTR tv380[ebp], 1116
  007dd	8b 85 98 fc ff
	ff		 mov	 eax, DWORD PTR tv388[ebp]
  007e3	8b 8c 82 00 00
	00 00		 mov	 ecx, DWORD PTR ?fn_get_local_entity_int_value@@3PAY0BBH@P6GHPAUENTITY@@W4INT_TYPES@@@ZA[edx+eax*4]
  007ea	ff d1		 call	 ecx
  007ec	50		 push	 eax
  007ed	68 00 00 00 00	 push	 OFFSET ?entity_side_names@@3PAPBDA ; entity_side_names
  007f2	8b 95 4c fd ff
	ff		 mov	 edx, DWORD PTR _file_ptr$[ebp]
  007f8	52		 push	 edx
  007f9	e8 00 00 00 00	 call	 ?set_file_enum@@YGXPAU_iobuf@@QAPBDH@Z ; set_file_enum

; 921  : 
; 922  : 		set_file_tag (file_ptr, application_tag_strings, FILE_TAG_COLOUR);

  007fe	6a 11		 push	 17			; 00000011H
  00800	68 00 00 00 00	 push	 OFFSET ?application_tag_strings@@3PAPBDA ; application_tag_strings
  00805	8b 85 4c fd ff
	ff		 mov	 eax, DWORD PTR _file_ptr$[ebp]
  0080b	50		 push	 eax
  0080c	e8 00 00 00 00	 call	 ?set_file_tag@@YGXPAU_iobuf@@QAPBDH@Z ; set_file_tag

; 923  : 		set_file_enum (file_ptr, sys_colour_names, get_local_entity_int_value (force, INT_TYPE_COLOUR));

  00811	83 7d fc 00	 cmp	 DWORD PTR _force$[ebp], 0
  00815	74 0d		 je	 SHORT $LN36@store_sess
  00817	8b 45 fc	 mov	 eax, DWORD PTR _force$[ebp]
  0081a	8b 08		 mov	 ecx, DWORD PTR [eax]
  0081c	89 8d 9c fc ff
	ff		 mov	 DWORD PTR tv406[ebp], ecx
  00822	eb 27		 jmp	 SHORT $LN37@store_sess
$LN36@store_sess:
  00824	8b 15 00 00 00
	00		 mov	 edx, DWORD PTR ?__LINE__Var@?0??store_session@@YGHPAUSESSION_LIST_DATA_TYPE@@PBD@Z@4JA
  0082a	81 c2 ab 00 00
	00		 add	 edx, 171		; 000000abH
  00830	52		 push	 edx
  00831	68 00 00 00 00	 push	 OFFSET ??_C@_0EI@MFEMPFPC@c?3?2users?2nhv90?2projects?2eech?2ap@
  00836	a1 00 00 00 00	 mov	 eax, DWORD PTR ?null_entity_pointer_message@@3PBDB ; null_entity_pointer_message
  0083b	50		 push	 eax
  0083c	e8 00 00 00 00	 call	 ?process_assert@@YGXPBD0H@Z ; process_assert
  00841	c7 85 9c fc ff
	ff 00 00 00 00	 mov	 DWORD PTR tv406[ebp], 0
$LN37@store_sess:
  0084b	b9 01 00 00 00	 mov	 ecx, 1
  00850	85 c9		 test	 ecx, ecx
  00852	74 0c		 je	 SHORT $LN38@store_sess
  00854	c7 85 98 fc ff
	ff 1c 00 00 00	 mov	 DWORD PTR tv414[ebp], 28 ; 0000001cH
  0085e	eb 27		 jmp	 SHORT $LN39@store_sess
$LN38@store_sess:
  00860	8b 15 00 00 00
	00		 mov	 edx, DWORD PTR ?__LINE__Var@?0??store_session@@YGHPAUSESSION_LIST_DATA_TYPE@@PBD@Z@4JA
  00866	81 c2 ab 00 00
	00		 add	 edx, 171		; 000000abH
  0086c	52		 push	 edx
  0086d	68 00 00 00 00	 push	 OFFSET ??_C@_0EI@MFEMPFPC@c?3?2users?2nhv90?2projects?2eech?2ap@
  00872	a1 00 00 00 00	 mov	 eax, DWORD PTR ?overload_invalid_int_type_message@@3PBDB ; overload_invalid_int_type_message
  00877	50		 push	 eax
  00878	e8 00 00 00 00	 call	 ?process_assert@@YGXPBD0H@Z ; process_assert
  0087d	c7 85 98 fc ff
	ff 00 00 00 00	 mov	 DWORD PTR tv414[ebp], 0
$LN39@store_sess:
  00887	6a 1c		 push	 28			; 0000001cH
  00889	8b 4d fc	 mov	 ecx, DWORD PTR _force$[ebp]
  0088c	51		 push	 ecx
  0088d	69 95 9c fc ff
	ff 5c 04 00 00	 imul	 edx, DWORD PTR tv406[ebp], 1116
  00897	8b 85 98 fc ff
	ff		 mov	 eax, DWORD PTR tv414[ebp]
  0089d	8b 8c 82 00 00
	00 00		 mov	 ecx, DWORD PTR ?fn_get_local_entity_int_value@@3PAY0BBH@P6GHPAUENTITY@@W4INT_TYPES@@@ZA[edx+eax*4]
  008a4	ff d1		 call	 ecx
  008a6	50		 push	 eax
  008a7	68 00 00 00 00	 push	 OFFSET ?sys_colour_names@@3PAPBDA ; sys_colour_names
  008ac	8b 95 4c fd ff
	ff		 mov	 edx, DWORD PTR _file_ptr$[ebp]
  008b2	52		 push	 edx
  008b3	e8 00 00 00 00	 call	 ?set_file_enum@@YGXPAU_iobuf@@QAPBDH@Z ; set_file_enum

; 924  : 
; 925  : 		force = get_local_entity_child_pred (force, LIST_TYPE_FORCE);

  008b8	83 7d fc 00	 cmp	 DWORD PTR _force$[ebp], 0
  008bc	74 0d		 je	 SHORT $LN40@store_sess
  008be	8b 45 fc	 mov	 eax, DWORD PTR _force$[ebp]
  008c1	8b 08		 mov	 ecx, DWORD PTR [eax]
  008c3	89 8d 9c fc ff
	ff		 mov	 DWORD PTR tv429[ebp], ecx
  008c9	eb 27		 jmp	 SHORT $LN41@store_sess
$LN40@store_sess:
  008cb	8b 15 00 00 00
	00		 mov	 edx, DWORD PTR ?__LINE__Var@?0??store_session@@YGHPAUSESSION_LIST_DATA_TYPE@@PBD@Z@4JA
  008d1	81 c2 ad 00 00
	00		 add	 edx, 173		; 000000adH
  008d7	52		 push	 edx
  008d8	68 00 00 00 00	 push	 OFFSET ??_C@_0EI@MFEMPFPC@c?3?2users?2nhv90?2projects?2eech?2ap@
  008dd	a1 00 00 00 00	 mov	 eax, DWORD PTR ?null_entity_pointer_message@@3PBDB ; null_entity_pointer_message
  008e2	50		 push	 eax
  008e3	e8 00 00 00 00	 call	 ?process_assert@@YGXPBD0H@Z ; process_assert
  008e8	c7 85 9c fc ff
	ff 00 00 00 00	 mov	 DWORD PTR tv429[ebp], 0
$LN41@store_sess:
  008f2	b9 01 00 00 00	 mov	 ecx, 1
  008f7	85 c9		 test	 ecx, ecx
  008f9	74 0c		 je	 SHORT $LN42@store_sess
  008fb	c7 85 98 fc ff
	ff 0e 00 00 00	 mov	 DWORD PTR tv437[ebp], 14 ; 0000000eH
  00905	eb 27		 jmp	 SHORT $LN43@store_sess
$LN42@store_sess:
  00907	8b 15 00 00 00
	00		 mov	 edx, DWORD PTR ?__LINE__Var@?0??store_session@@YGHPAUSESSION_LIST_DATA_TYPE@@PBD@Z@4JA
  0090d	81 c2 ad 00 00
	00		 add	 edx, 173		; 000000adH
  00913	52		 push	 edx
  00914	68 00 00 00 00	 push	 OFFSET ??_C@_0EI@MFEMPFPC@c?3?2users?2nhv90?2projects?2eech?2ap@
  00919	a1 00 00 00 00	 mov	 eax, DWORD PTR ?overload_invalid_list_type_message@@3PBDB ; overload_invalid_list_type_message
  0091e	50		 push	 eax
  0091f	e8 00 00 00 00	 call	 ?process_assert@@YGXPBD0H@Z ; process_assert
  00924	c7 85 98 fc ff
	ff 00 00 00 00	 mov	 DWORD PTR tv437[ebp], 0
$LN43@store_sess:
  0092e	6a 0e		 push	 14			; 0000000eH
  00930	8b 4d fc	 mov	 ecx, DWORD PTR _force$[ebp]
  00933	51		 push	 ecx
  00934	69 95 9c fc ff
	ff b4 00 00 00	 imul	 edx, DWORD PTR tv429[ebp], 180
  0093e	8b 85 98 fc ff
	ff		 mov	 eax, DWORD PTR tv437[ebp]
  00944	8b 8c 82 00 00
	00 00		 mov	 ecx, DWORD PTR ?fn_get_local_entity_child_pred@@3PAY0CN@P6GPAUENTITY@@PAU1@W4LIST_TYPES@@@ZA[edx+eax*4]
  0094b	ff d1		 call	 ecx
  0094d	89 45 fc	 mov	 DWORD PTR _force$[ebp], eax

; 926  : 	}

  00950	e9 cc fd ff ff	 jmp	 $LN3@store_sess
$LN5@store_sess:

; 927  : 
; 928  : 	set_file_tag (file_ptr, application_tag_strings, FILE_TAG_END);

  00955	6a f6		 push	 -10			; fffffff6H
  00957	68 00 00 00 00	 push	 OFFSET ?application_tag_strings@@3PAPBDA ; application_tag_strings
  0095c	8b 85 4c fd ff
	ff		 mov	 eax, DWORD PTR _file_ptr$[ebp]
  00962	50		 push	 eax
  00963	e8 00 00 00 00	 call	 ?set_file_tag@@YGXPAU_iobuf@@QAPBDH@Z ; set_file_tag

; 929  : 
; 930  : 	// Campaign saved filename
; 931  : 
; 932  : 	set_file_new_line (file_ptr, 1);

  00968	6a 01		 push	 1
  0096a	8b 85 4c fd ff
	ff		 mov	 eax, DWORD PTR _file_ptr$[ebp]
  00970	50		 push	 eax
  00971	e8 00 00 00 00	 call	 ?set_file_new_line@@YGXPAU_iobuf@@H@Z ; set_file_new_line

; 933  : 
; 934  : 	set_file_comment (file_ptr, "/////////////////////////////////////////////////////////////////////////////////////////////////////////////////////////////////");

  00976	68 00 00 00 00	 push	 OFFSET ??_C@_0IC@NPHAIGMI@?1?1?1?1?1?1?1?1?1?1?1?1?1?1?1?1?1?1?1?1?1?1?1?1?1?1?1?1?1?1?1@
  0097b	8b 85 4c fd ff
	ff		 mov	 eax, DWORD PTR _file_ptr$[ebp]
  00981	50		 push	 eax
  00982	e8 00 00 00 00	 call	 ?set_file_comment@@YGXPAU_iobuf@@PBD@Z ; set_file_comment

; 935  : 	set_file_tag (file_ptr, application_tag_strings, FILE_TAG_SAVED_CAMPAIGN);

  00987	68 86 00 00 00	 push	 134			; 00000086H
  0098c	68 00 00 00 00	 push	 OFFSET ?application_tag_strings@@3PAPBDA ; application_tag_strings
  00991	8b 85 4c fd ff
	ff		 mov	 eax, DWORD PTR _file_ptr$[ebp]
  00997	50		 push	 eax
  00998	e8 00 00 00 00	 call	 ?set_file_tag@@YGXPAU_iobuf@@QAPBDH@Z ; set_file_tag

; 936  : 
; 937  : 	set_file_tag (file_ptr, application_tag_strings, FILE_TAG_PATH);

  0099d	6a e9		 push	 -23			; ffffffe9H
  0099f	68 00 00 00 00	 push	 OFFSET ?application_tag_strings@@3PAPBDA ; application_tag_strings
  009a4	8b 85 4c fd ff
	ff		 mov	 eax, DWORD PTR _file_ptr$[ebp]
  009aa	50		 push	 eax
  009ab	e8 00 00 00 00	 call	 ?set_file_tag@@YGXPAU_iobuf@@QAPBDH@Z ; set_file_tag

; 938  : 	set_file_string (file_ptr, game_session->data_path);

  009b0	8b 45 08	 mov	 eax, DWORD PTR _game_session$[ebp]
  009b3	83 c0 1c	 add	 eax, 28			; 0000001cH
  009b6	50		 push	 eax
  009b7	8b 8d 4c fd ff
	ff		 mov	 ecx, DWORD PTR _file_ptr$[ebp]
  009bd	51		 push	 ecx
  009be	e8 00 00 00 00	 call	 ?set_file_string@@YGXPAU_iobuf@@PBD@Z ; set_file_string

; 939  : 
; 940  : 	set_file_tag (file_ptr, application_tag_strings, FILE_TAG_PATH);

  009c3	6a e9		 push	 -23			; ffffffe9H
  009c5	68 00 00 00 00	 push	 OFFSET ?application_tag_strings@@3PAPBDA ; application_tag_strings
  009ca	8b 85 4c fd ff
	ff		 mov	 eax, DWORD PTR _file_ptr$[ebp]
  009d0	50		 push	 eax
  009d1	e8 00 00 00 00	 call	 ?set_file_tag@@YGXPAU_iobuf@@QAPBDH@Z ; set_file_tag

; 941  : 	set_file_string (file_ptr, game_session->campaign_directory);

  009d6	8b 45 08	 mov	 eax, DWORD PTR _game_session$[ebp]
  009d9	05 1c 01 00 00	 add	 eax, 284		; 0000011cH
  009de	50		 push	 eax
  009df	8b 8d 4c fd ff
	ff		 mov	 ecx, DWORD PTR _file_ptr$[ebp]
  009e5	51		 push	 ecx
  009e6	e8 00 00 00 00	 call	 ?set_file_string@@YGXPAU_iobuf@@PBD@Z ; set_file_string

; 942  : 
; 943  : 	set_file_tag (file_ptr, application_tag_strings, FILE_TAG_FILENAME);

  009eb	6a f1		 push	 -15			; fffffff1H
  009ed	68 00 00 00 00	 push	 OFFSET ?application_tag_strings@@3PAPBDA ; application_tag_strings
  009f2	8b 85 4c fd ff
	ff		 mov	 eax, DWORD PTR _file_ptr$[ebp]
  009f8	50		 push	 eax
  009f9	e8 00 00 00 00	 call	 ?set_file_tag@@YGXPAU_iobuf@@QAPBDH@Z ; set_file_tag

; 944  : 	set_file_string (file_ptr, game_session->campaign_filename);

  009fe	8b 45 08	 mov	 eax, DWORD PTR _game_session$[ebp]
  00a01	05 5c 01 00 00	 add	 eax, 348		; 0000015cH
  00a06	50		 push	 eax
  00a07	8b 8d 4c fd ff
	ff		 mov	 ecx, DWORD PTR _file_ptr$[ebp]
  00a0d	51		 push	 ecx
  00a0e	e8 00 00 00 00	 call	 ?set_file_string@@YGXPAU_iobuf@@PBD@Z ; set_file_string

; 945  : 
; 946  : 	set_file_comment (file_ptr, "/////////////////////////////////////////////////////////////////////////////////////////////////////////////////////////////////");

  00a13	68 00 00 00 00	 push	 OFFSET ??_C@_0IC@NPHAIGMI@?1?1?1?1?1?1?1?1?1?1?1?1?1?1?1?1?1?1?1?1?1?1?1?1?1?1?1?1?1?1?1@
  00a18	8b 85 4c fd ff
	ff		 mov	 eax, DWORD PTR _file_ptr$[ebp]
  00a1e	50		 push	 eax
  00a1f	e8 00 00 00 00	 call	 ?set_file_comment@@YGXPAU_iobuf@@PBD@Z ; set_file_comment

; 947  : 
; 948  : 	set_file_new_line (file_ptr, 1);

  00a24	6a 01		 push	 1
  00a26	8b 85 4c fd ff
	ff		 mov	 eax, DWORD PTR _file_ptr$[ebp]
  00a2c	50		 push	 eax
  00a2d	e8 00 00 00 00	 call	 ?set_file_new_line@@YGXPAU_iobuf@@H@Z ; set_file_new_line

; 949  : 
; 950  : 	//
; 951  : 	// Version number
; 952  : 	//
; 953  : 
; 954  : 	{
; 955  : 
; 956  : 		int
; 957  : 			value;
; 958  : 		set_file_comment (file_ptr, "/////////////////////////////////////////////////////////////////////////////////////////////////////////////////////////////////");

  00a32	68 00 00 00 00	 push	 OFFSET ??_C@_0IC@NPHAIGMI@?1?1?1?1?1?1?1?1?1?1?1?1?1?1?1?1?1?1?1?1?1?1?1?1?1?1?1?1?1?1?1@
  00a37	8b 85 4c fd ff
	ff		 mov	 eax, DWORD PTR _file_ptr$[ebp]
  00a3d	50		 push	 eax
  00a3e	e8 00 00 00 00	 call	 ?set_file_comment@@YGXPAU_iobuf@@PBD@Z ; set_file_comment

; 959  : 
; 960  : 		set_file_tag (file_ptr, application_tag_strings, FILE_TAG_VERSION_NUMBER);

  00a43	68 a6 00 00 00	 push	 166			; 000000a6H
  00a48	68 00 00 00 00	 push	 OFFSET ?application_tag_strings@@3PAPBDA ; application_tag_strings
  00a4d	8b 85 4c fd ff
	ff		 mov	 eax, DWORD PTR _file_ptr$[ebp]
  00a53	50		 push	 eax
  00a54	e8 00 00 00 00	 call	 ?set_file_tag@@YGXPAU_iobuf@@QAPBDH@Z ; set_file_tag

; 961  : 		value = get_local_entity_int_value ( get_session_entity (), INT_TYPE_VERSION_NUMBER );

  00a59	83 3d 00 00 00
	00 00		 cmp	 DWORD PTR ?session_entity@@3PAUENTITY@@A, 0 ; session_entity
  00a60	74 0f		 je	 SHORT $LN44@store_sess
  00a62	a1 00 00 00 00	 mov	 eax, DWORD PTR ?session_entity@@3PAUENTITY@@A ; session_entity
  00a67	8b 08		 mov	 ecx, DWORD PTR [eax]
  00a69	89 8d 9c fc ff
	ff		 mov	 DWORD PTR tv486[ebp], ecx
  00a6f	eb 27		 jmp	 SHORT $LN45@store_sess
$LN44@store_sess:
  00a71	8b 15 00 00 00
	00		 mov	 edx, DWORD PTR ?__LINE__Var@?0??store_session@@YGHPAUSESSION_LIST_DATA_TYPE@@PBD@Z@4JA
  00a77	81 c2 d1 00 00
	00		 add	 edx, 209		; 000000d1H
  00a7d	52		 push	 edx
  00a7e	68 00 00 00 00	 push	 OFFSET ??_C@_0EI@MFEMPFPC@c?3?2users?2nhv90?2projects?2eech?2ap@
  00a83	a1 00 00 00 00	 mov	 eax, DWORD PTR ?null_entity_pointer_message@@3PBDB ; null_entity_pointer_message
  00a88	50		 push	 eax
  00a89	e8 00 00 00 00	 call	 ?process_assert@@YGXPBD0H@Z ; process_assert
  00a8e	c7 85 9c fc ff
	ff 00 00 00 00	 mov	 DWORD PTR tv486[ebp], 0
$LN45@store_sess:
  00a98	b9 01 00 00 00	 mov	 ecx, 1
  00a9d	85 c9		 test	 ecx, ecx
  00a9f	74 0c		 je	 SHORT $LN46@store_sess
  00aa1	c7 85 98 fc ff
	ff f5 00 00 00	 mov	 DWORD PTR tv494[ebp], 245 ; 000000f5H
  00aab	eb 27		 jmp	 SHORT $LN47@store_sess
$LN46@store_sess:
  00aad	8b 15 00 00 00
	00		 mov	 edx, DWORD PTR ?__LINE__Var@?0??store_session@@YGHPAUSESSION_LIST_DATA_TYPE@@PBD@Z@4JA
  00ab3	81 c2 d1 00 00
	00		 add	 edx, 209		; 000000d1H
  00ab9	52		 push	 edx
  00aba	68 00 00 00 00	 push	 OFFSET ??_C@_0EI@MFEMPFPC@c?3?2users?2nhv90?2projects?2eech?2ap@
  00abf	a1 00 00 00 00	 mov	 eax, DWORD PTR ?overload_invalid_int_type_message@@3PBDB ; overload_invalid_int_type_message
  00ac4	50		 push	 eax
  00ac5	e8 00 00 00 00	 call	 ?process_assert@@YGXPBD0H@Z ; process_assert
  00aca	c7 85 98 fc ff
	ff 00 00 00 00	 mov	 DWORD PTR tv494[ebp], 0
$LN47@store_sess:
  00ad4	68 f5 00 00 00	 push	 245			; 000000f5H
  00ad9	8b 0d 00 00 00
	00		 mov	 ecx, DWORD PTR ?session_entity@@3PAUENTITY@@A ; session_entity
  00adf	51		 push	 ecx
  00ae0	69 95 9c fc ff
	ff 5c 04 00 00	 imul	 edx, DWORD PTR tv486[ebp], 1116
  00aea	8b 85 98 fc ff
	ff		 mov	 eax, DWORD PTR tv494[ebp]
  00af0	8b 8c 82 00 00
	00 00		 mov	 ecx, DWORD PTR ?fn_get_local_entity_int_value@@3PAY0BBH@P6GHPAUENTITY@@W4INT_TYPES@@@ZA[edx+eax*4]
  00af7	ff d1		 call	 ecx
  00af9	89 85 34 fd ff
	ff		 mov	 DWORD PTR _value$6[ebp], eax

; 962  : 		set_file_int (file_ptr, value);

  00aff	8b 85 34 fd ff
	ff		 mov	 eax, DWORD PTR _value$6[ebp]
  00b05	50		 push	 eax
  00b06	8b 8d 4c fd ff
	ff		 mov	 ecx, DWORD PTR _file_ptr$[ebp]
  00b0c	51		 push	 ecx
  00b0d	e8 00 00 00 00	 call	 ?set_file_int@@YGXPAU_iobuf@@H@Z ; set_file_int

; 963  : 
; 964  : 		set_file_comment (file_ptr, "/////////////////////////////////////////////////////////////////////////////////////////////////////////////////////////////////");

  00b12	68 00 00 00 00	 push	 OFFSET ??_C@_0IC@NPHAIGMI@?1?1?1?1?1?1?1?1?1?1?1?1?1?1?1?1?1?1?1?1?1?1?1?1?1?1?1?1?1?1?1@
  00b17	8b 85 4c fd ff
	ff		 mov	 eax, DWORD PTR _file_ptr$[ebp]
  00b1d	50		 push	 eax
  00b1e	e8 00 00 00 00	 call	 ?set_file_comment@@YGXPAU_iobuf@@PBD@Z ; set_file_comment

; 965  : 	}
; 966  : 
; 967  : 	// End
; 968  : 
; 969  : 	//VJ 051202 add season (camo) info to file description
; 970  : 	//use set and get_global_season
; 971  : 	set_file_comment (file_ptr, "/////////////////////////////////////////////////////////////////////////////////////////////////////////////////////////////////");

  00b23	68 00 00 00 00	 push	 OFFSET ??_C@_0IC@NPHAIGMI@?1?1?1?1?1?1?1?1?1?1?1?1?1?1?1?1?1?1?1?1?1?1?1?1?1?1?1?1?1?1?1@
  00b28	8b 85 4c fd ff
	ff		 mov	 eax, DWORD PTR _file_ptr$[ebp]
  00b2e	50		 push	 eax
  00b2f	e8 00 00 00 00	 call	 ?set_file_comment@@YGXPAU_iobuf@@PBD@Z ; set_file_comment

; 972  : 	set_file_tag (file_ptr, application_tag_strings, FILE_TAG_SEASON);

  00b34	68 ae 00 00 00	 push	 174			; 000000aeH
  00b39	68 00 00 00 00	 push	 OFFSET ?application_tag_strings@@3PAPBDA ; application_tag_strings
  00b3e	8b 85 4c fd ff
	ff		 mov	 eax, DWORD PTR _file_ptr$[ebp]
  00b44	50		 push	 eax
  00b45	e8 00 00 00 00	 call	 ?set_file_tag@@YGXPAU_iobuf@@QAPBDH@Z ; set_file_tag

; 973  : 	set_file_int (file_ptr, (int) get_global_season() );

  00b4a	a1 14 04 00 00	 mov	 eax, DWORD PTR ?current_map_info@@3UCUSTOM_MAP_INFO@@A+1044
  00b4f	50		 push	 eax
  00b50	8b 8d 4c fd ff
	ff		 mov	 ecx, DWORD PTR _file_ptr$[ebp]
  00b56	51		 push	 ecx
  00b57	e8 00 00 00 00	 call	 ?set_file_int@@YGXPAU_iobuf@@H@Z ; set_file_int

; 974  : 	set_file_comment (file_ptr, "/////////////////////////////////////////////////////////////////////////////////////////////////////////////////////////////////");

  00b5c	68 00 00 00 00	 push	 OFFSET ??_C@_0IC@NPHAIGMI@?1?1?1?1?1?1?1?1?1?1?1?1?1?1?1?1?1?1?1?1?1?1?1?1?1?1?1?1?1?1?1@
  00b61	8b 85 4c fd ff
	ff		 mov	 eax, DWORD PTR _file_ptr$[ebp]
  00b67	50		 push	 eax
  00b68	e8 00 00 00 00	 call	 ?set_file_comment@@YGXPAU_iobuf@@PBD@Z ; set_file_comment

; 975  : 
; 976  : 	set_file_comment (file_ptr, "/////////////////////////////////////////////////////////////////////////////////////////////////////////////////////////////////");

  00b6d	68 00 00 00 00	 push	 OFFSET ??_C@_0IC@NPHAIGMI@?1?1?1?1?1?1?1?1?1?1?1?1?1?1?1?1?1?1?1?1?1?1?1?1?1?1?1?1?1?1?1@
  00b72	8b 85 4c fd ff
	ff		 mov	 eax, DWORD PTR _file_ptr$[ebp]
  00b78	50		 push	 eax
  00b79	e8 00 00 00 00	 call	 ?set_file_comment@@YGXPAU_iobuf@@PBD@Z ; set_file_comment

; 977  : 	set_file_tag (file_ptr, application_tag_strings, FILE_TAG_END);

  00b7e	6a f6		 push	 -10			; fffffff6H
  00b80	68 00 00 00 00	 push	 OFFSET ?application_tag_strings@@3PAPBDA ; application_tag_strings
  00b85	8b 85 4c fd ff
	ff		 mov	 eax, DWORD PTR _file_ptr$[ebp]
  00b8b	50		 push	 eax
  00b8c	e8 00 00 00 00	 call	 ?set_file_tag@@YGXPAU_iobuf@@QAPBDH@Z ; set_file_tag

; 978  : 	set_file_comment (file_ptr, "/////////////////////////////////////////////////////////////////////////////////////////////////////////////////////////////////");

  00b91	68 00 00 00 00	 push	 OFFSET ??_C@_0IC@NPHAIGMI@?1?1?1?1?1?1?1?1?1?1?1?1?1?1?1?1?1?1?1?1?1?1?1?1?1?1?1?1?1?1?1@
  00b96	8b 85 4c fd ff
	ff		 mov	 eax, DWORD PTR _file_ptr$[ebp]
  00b9c	50		 push	 eax
  00b9d	e8 00 00 00 00	 call	 ?set_file_comment@@YGXPAU_iobuf@@PBD@Z ; set_file_comment

; 979  : 
; 980  : 	fclose (file_ptr);

  00ba2	8b 85 4c fd ff
	ff		 mov	 eax, DWORD PTR _file_ptr$[ebp]
  00ba8	50		 push	 eax
  00ba9	ff 15 00 00 00
	00		 call	 DWORD PTR __imp__fclose
  00baf	83 c4 04	 add	 esp, 4

; 981  : 
; 982  : 	//
; 983  : 	// Save entity data
; 984  : 	//
; 985  : 
; 986  : 	file_ptr = fopen (data_filename, "wb");

  00bb2	68 00 00 00 00	 push	 OFFSET ??_C@_02GMLFBBN@wb@
  00bb7	8d 85 50 fe ff
	ff		 lea	 eax, DWORD PTR _data_filename$[ebp]
  00bbd	50		 push	 eax
  00bbe	ff 15 00 00 00
	00		 call	 DWORD PTR __imp__fopen
  00bc4	83 c4 08	 add	 esp, 8
  00bc7	89 85 4c fd ff
	ff		 mov	 DWORD PTR _file_ptr$[ebp], eax

; 987  : 
; 988  : 	if (file_ptr)

  00bcd	83 bd 4c fd ff
	ff 00		 cmp	 DWORD PTR _file_ptr$[ebp], 0
  00bd4	0f 84 90 02 00
	00		 je	 $LN14@store_sess

; 989  : 	{
; 990  : 
; 991  : 		unsigned char
; 992  : 			*save_ptr,
; 993  : 			*buffer;
; 994  : 
; 995  : 		int
; 996  : 			extra_data,
; 997  : 			server_version_number,
; 998  : 			buffer_size;
; 999  : 
; 1000 : 		buffer_size = 1024 * 1024;

  00bda	c7 85 20 fd ff
	ff 00 00 10 00	 mov	 DWORD PTR _buffer_size$1[ebp], 1048576 ; 00100000H

; 1001 : 
; 1002 : 		buffer = (unsigned char *) malloc_heap_mem (buffer_size);

  00be4	8b 85 20 fd ff
	ff		 mov	 eax, DWORD PTR _buffer_size$1[ebp]
  00bea	50		 push	 eax
  00beb	e8 00 00 00 00	 call	 ?malloc_heap_memory@@YGPAXI@Z ; malloc_heap_memory
  00bf0	89 85 2c fd ff
	ff		 mov	 DWORD PTR _buffer$4[ebp], eax

; 1003 : 
; 1004 : 		save_ptr = buffer;

  00bf6	8b 85 2c fd ff
	ff		 mov	 eax, DWORD PTR _buffer$4[ebp]
  00bfc	89 85 30 fd ff
	ff		 mov	 DWORD PTR _save_ptr$5[ebp], eax

; 1005 : 
; 1006 : 		extra_data = 0;

  00c02	c7 85 28 fd ff
	ff 00 00 00 00	 mov	 DWORD PTR _extra_data$3[ebp], 0

; 1007 : 
; 1008 : 		/////////////////////////////////////////////////////////////////////////////////////////////////////////////////////////////////
; 1009 : 		// write out version number
; 1010 : 		server_version_number = get_local_entity_int_value (get_session_entity (), INT_TYPE_VERSION_NUMBER);

  00c0c	83 3d 00 00 00
	00 00		 cmp	 DWORD PTR ?session_entity@@3PAUENTITY@@A, 0 ; session_entity
  00c13	74 0f		 je	 SHORT $LN48@store_sess
  00c15	a1 00 00 00 00	 mov	 eax, DWORD PTR ?session_entity@@3PAUENTITY@@A ; session_entity
  00c1a	8b 08		 mov	 ecx, DWORD PTR [eax]
  00c1c	89 8d 9c fc ff
	ff		 mov	 DWORD PTR tv533[ebp], ecx
  00c22	eb 27		 jmp	 SHORT $LN49@store_sess
$LN48@store_sess:
  00c24	8b 15 00 00 00
	00		 mov	 edx, DWORD PTR ?__LINE__Var@?0??store_session@@YGHPAUSESSION_LIST_DATA_TYPE@@PBD@Z@4JA
  00c2a	81 c2 02 01 00
	00		 add	 edx, 258		; 00000102H
  00c30	52		 push	 edx
  00c31	68 00 00 00 00	 push	 OFFSET ??_C@_0EI@MFEMPFPC@c?3?2users?2nhv90?2projects?2eech?2ap@
  00c36	a1 00 00 00 00	 mov	 eax, DWORD PTR ?null_entity_pointer_message@@3PBDB ; null_entity_pointer_message
  00c3b	50		 push	 eax
  00c3c	e8 00 00 00 00	 call	 ?process_assert@@YGXPBD0H@Z ; process_assert
  00c41	c7 85 9c fc ff
	ff 00 00 00 00	 mov	 DWORD PTR tv533[ebp], 0
$LN49@store_sess:
  00c4b	b9 01 00 00 00	 mov	 ecx, 1
  00c50	85 c9		 test	 ecx, ecx
  00c52	74 0c		 je	 SHORT $LN50@store_sess
  00c54	c7 85 98 fc ff
	ff f5 00 00 00	 mov	 DWORD PTR tv541[ebp], 245 ; 000000f5H
  00c5e	eb 27		 jmp	 SHORT $LN51@store_sess
$LN50@store_sess:
  00c60	8b 15 00 00 00
	00		 mov	 edx, DWORD PTR ?__LINE__Var@?0??store_session@@YGHPAUSESSION_LIST_DATA_TYPE@@PBD@Z@4JA
  00c66	81 c2 02 01 00
	00		 add	 edx, 258		; 00000102H
  00c6c	52		 push	 edx
  00c6d	68 00 00 00 00	 push	 OFFSET ??_C@_0EI@MFEMPFPC@c?3?2users?2nhv90?2projects?2eech?2ap@
  00c72	a1 00 00 00 00	 mov	 eax, DWORD PTR ?overload_invalid_int_type_message@@3PBDB ; overload_invalid_int_type_message
  00c77	50		 push	 eax
  00c78	e8 00 00 00 00	 call	 ?process_assert@@YGXPBD0H@Z ; process_assert
  00c7d	c7 85 98 fc ff
	ff 00 00 00 00	 mov	 DWORD PTR tv541[ebp], 0
$LN51@store_sess:
  00c87	68 f5 00 00 00	 push	 245			; 000000f5H
  00c8c	8b 0d 00 00 00
	00		 mov	 ecx, DWORD PTR ?session_entity@@3PAUENTITY@@A ; session_entity
  00c92	51		 push	 ecx
  00c93	69 95 9c fc ff
	ff 5c 04 00 00	 imul	 edx, DWORD PTR tv533[ebp], 1116
  00c9d	8b 85 98 fc ff
	ff		 mov	 eax, DWORD PTR tv541[ebp]
  00ca3	8b 8c 82 00 00
	00 00		 mov	 ecx, DWORD PTR ?fn_get_local_entity_int_value@@3PAY0BBH@P6GHPAUENTITY@@W4INT_TYPES@@@ZA[edx+eax*4]
  00caa	ff d1		 call	 ecx
  00cac	89 85 24 fd ff
	ff		 mov	 DWORD PTR _server_version_number$2[ebp], eax

; 1011 : 
; 1012 : 		quick_set_list_item (save_ptr, int, server_version_number);

  00cb2	8b 85 30 fd ff
	ff		 mov	 eax, DWORD PTR _save_ptr$5[ebp]
  00cb8	83 c0 04	 add	 eax, 4
  00cbb	89 85 30 fd ff
	ff		 mov	 DWORD PTR _save_ptr$5[ebp], eax
  00cc1	8b 8d 30 fd ff
	ff		 mov	 ecx, DWORD PTR _save_ptr$5[ebp]
  00cc7	8b 95 24 fd ff
	ff		 mov	 edx, DWORD PTR _server_version_number$2[ebp]
  00ccd	89 51 fc	 mov	 DWORD PTR [ecx-4], edx

; 1013 : 
; 1014 : 		buffer_size -= sizeof (int);

  00cd0	8b 85 20 fd ff
	ff		 mov	 eax, DWORD PTR _buffer_size$1[ebp]
  00cd6	83 e8 04	 sub	 eax, 4
  00cd9	89 85 20 fd ff
	ff		 mov	 DWORD PTR _buffer_size$1[ebp], eax

; 1015 : 		extra_data += sizeof (int);

  00cdf	8b 85 28 fd ff
	ff		 mov	 eax, DWORD PTR _extra_data$3[ebp]
  00ce5	83 c0 04	 add	 eax, 4
  00ce8	89 85 28 fd ff
	ff		 mov	 DWORD PTR _extra_data$3[ebp], eax
$LN6@store_sess:

; 1016 : 		//
; 1017 : 		/////////////////////////////////////////////////////////////////////////////////////////////////////////////////////////////////
; 1018 : 
; 1019 : 		/////////////////////////////////////////////////////////////////////////////////////////////////////////////////////////////////
; 1020 : 		// write out session
; 1021 : 		/////////////////////////////////////////////////////////////////////////////////////////////////////////////////////////////////
; 1022 : 
; 1023 : 		while (pack_session (save_ptr, &buffer_size, PACK_MODE_SERVER_SESSION))

  00cee	6a 00		 push	 0
  00cf0	8d 85 20 fd ff
	ff		 lea	 eax, DWORD PTR _buffer_size$1[ebp]
  00cf6	50		 push	 eax
  00cf7	8b 8d 30 fd ff
	ff		 mov	 ecx, DWORD PTR _save_ptr$5[ebp]
  00cfd	51		 push	 ecx
  00cfe	e8 00 00 00 00	 call	 ?pack_session@@YGHPAEPAHW4PACK_MODES@@@Z ; pack_session
  00d03	85 c0		 test	 eax, eax
  00d05	0f 84 2d 01 00
	00		 je	 $LN7@store_sess

; 1024 : 		{
; 1025 : 
; 1026 : 			debug_log ("SESSION: mallocing store pack buffer from %d to %d", buffer_size, buffer_size * 2);

  00d0b	8b 85 20 fd ff
	ff		 mov	 eax, DWORD PTR _buffer_size$1[ebp]
  00d11	d1 e0		 shl	 eax, 1
  00d13	50		 push	 eax
  00d14	8b 8d 20 fd ff
	ff		 mov	 ecx, DWORD PTR _buffer_size$1[ebp]
  00d1a	51		 push	 ecx
  00d1b	68 00 00 00 00	 push	 OFFSET ??_C@_0DD@PNPICBHO@SESSION?3?5mallocing?5store?5pack?5b@
  00d20	e8 00 00 00 00	 call	 ?debug_log@@YAXPBDZZ	; debug_log
  00d25	83 c4 0c	 add	 esp, 12			; 0000000cH

; 1027 : 
; 1028 : 			free_mem (buffer);

  00d28	8b 85 2c fd ff
	ff		 mov	 eax, DWORD PTR _buffer$4[ebp]
  00d2e	50		 push	 eax
  00d2f	e8 00 00 00 00	 call	 ?free_mem@@YGXPAX@Z	; free_mem

; 1029 : 
; 1030 : 			buffer_size *= 2;

  00d34	8b 85 20 fd ff
	ff		 mov	 eax, DWORD PTR _buffer_size$1[ebp]
  00d3a	d1 e0		 shl	 eax, 1
  00d3c	89 85 20 fd ff
	ff		 mov	 DWORD PTR _buffer_size$1[ebp], eax

; 1031 : 
; 1032 : 			buffer = (unsigned char *) malloc_heap_mem (buffer_size);

  00d42	8b 85 20 fd ff
	ff		 mov	 eax, DWORD PTR _buffer_size$1[ebp]
  00d48	50		 push	 eax
  00d49	e8 00 00 00 00	 call	 ?malloc_heap_memory@@YGPAXI@Z ; malloc_heap_memory
  00d4e	89 85 2c fd ff
	ff		 mov	 DWORD PTR _buffer$4[ebp], eax

; 1033 : 
; 1034 : 			save_ptr = buffer;

  00d54	8b 85 2c fd ff
	ff		 mov	 eax, DWORD PTR _buffer$4[ebp]
  00d5a	89 85 30 fd ff
	ff		 mov	 DWORD PTR _save_ptr$5[ebp], eax

; 1035 : 
; 1036 : 			/////////////////////////////////////////////////////////////////////////////////////////////////////////////////////////////////
; 1037 : 			// write out version number
; 1038 : 			server_version_number = get_local_entity_int_value (get_session_entity (), INT_TYPE_VERSION_NUMBER);

  00d60	83 3d 00 00 00
	00 00		 cmp	 DWORD PTR ?session_entity@@3PAUENTITY@@A, 0 ; session_entity
  00d67	74 0f		 je	 SHORT $LN52@store_sess
  00d69	a1 00 00 00 00	 mov	 eax, DWORD PTR ?session_entity@@3PAUENTITY@@A ; session_entity
  00d6e	8b 08		 mov	 ecx, DWORD PTR [eax]
  00d70	89 8d 9c fc ff
	ff		 mov	 DWORD PTR tv570[ebp], ecx
  00d76	eb 27		 jmp	 SHORT $LN53@store_sess
$LN52@store_sess:
  00d78	8b 15 00 00 00
	00		 mov	 edx, DWORD PTR ?__LINE__Var@?0??store_session@@YGHPAUSESSION_LIST_DATA_TYPE@@PBD@Z@4JA
  00d7e	81 c2 1e 01 00
	00		 add	 edx, 286		; 0000011eH
  00d84	52		 push	 edx
  00d85	68 00 00 00 00	 push	 OFFSET ??_C@_0EI@MFEMPFPC@c?3?2users?2nhv90?2projects?2eech?2ap@
  00d8a	a1 00 00 00 00	 mov	 eax, DWORD PTR ?null_entity_pointer_message@@3PBDB ; null_entity_pointer_message
  00d8f	50		 push	 eax
  00d90	e8 00 00 00 00	 call	 ?process_assert@@YGXPBD0H@Z ; process_assert
  00d95	c7 85 9c fc ff
	ff 00 00 00 00	 mov	 DWORD PTR tv570[ebp], 0
$LN53@store_sess:
  00d9f	b9 01 00 00 00	 mov	 ecx, 1
  00da4	85 c9		 test	 ecx, ecx
  00da6	74 0c		 je	 SHORT $LN54@store_sess
  00da8	c7 85 98 fc ff
	ff f5 00 00 00	 mov	 DWORD PTR tv578[ebp], 245 ; 000000f5H
  00db2	eb 27		 jmp	 SHORT $LN55@store_sess
$LN54@store_sess:
  00db4	8b 15 00 00 00
	00		 mov	 edx, DWORD PTR ?__LINE__Var@?0??store_session@@YGHPAUSESSION_LIST_DATA_TYPE@@PBD@Z@4JA
  00dba	81 c2 1e 01 00
	00		 add	 edx, 286		; 0000011eH
  00dc0	52		 push	 edx
  00dc1	68 00 00 00 00	 push	 OFFSET ??_C@_0EI@MFEMPFPC@c?3?2users?2nhv90?2projects?2eech?2ap@
  00dc6	a1 00 00 00 00	 mov	 eax, DWORD PTR ?overload_invalid_int_type_message@@3PBDB ; overload_invalid_int_type_message
  00dcb	50		 push	 eax
  00dcc	e8 00 00 00 00	 call	 ?process_assert@@YGXPBD0H@Z ; process_assert
  00dd1	c7 85 98 fc ff
	ff 00 00 00 00	 mov	 DWORD PTR tv578[ebp], 0
$LN55@store_sess:
  00ddb	68 f5 00 00 00	 push	 245			; 000000f5H
  00de0	8b 0d 00 00 00
	00		 mov	 ecx, DWORD PTR ?session_entity@@3PAUENTITY@@A ; session_entity
  00de6	51		 push	 ecx
  00de7	69 95 9c fc ff
	ff 5c 04 00 00	 imul	 edx, DWORD PTR tv570[ebp], 1116
  00df1	8b 85 98 fc ff
	ff		 mov	 eax, DWORD PTR tv578[ebp]
  00df7	8b 8c 82 00 00
	00 00		 mov	 ecx, DWORD PTR ?fn_get_local_entity_int_value@@3PAY0BBH@P6GHPAUENTITY@@W4INT_TYPES@@@ZA[edx+eax*4]
  00dfe	ff d1		 call	 ecx
  00e00	89 85 24 fd ff
	ff		 mov	 DWORD PTR _server_version_number$2[ebp], eax

; 1039 : 
; 1040 : 			quick_set_list_item (save_ptr, int, server_version_number);

  00e06	8b 85 30 fd ff
	ff		 mov	 eax, DWORD PTR _save_ptr$5[ebp]
  00e0c	83 c0 04	 add	 eax, 4
  00e0f	89 85 30 fd ff
	ff		 mov	 DWORD PTR _save_ptr$5[ebp], eax
  00e15	8b 8d 30 fd ff
	ff		 mov	 ecx, DWORD PTR _save_ptr$5[ebp]
  00e1b	8b 95 24 fd ff
	ff		 mov	 edx, DWORD PTR _server_version_number$2[ebp]
  00e21	89 51 fc	 mov	 DWORD PTR [ecx-4], edx

; 1041 : 
; 1042 : 			buffer_size -= sizeof (int);

  00e24	8b 85 20 fd ff
	ff		 mov	 eax, DWORD PTR _buffer_size$1[ebp]
  00e2a	83 e8 04	 sub	 eax, 4
  00e2d	89 85 20 fd ff
	ff		 mov	 DWORD PTR _buffer_size$1[ebp], eax

; 1043 : 			//
; 1044 : 			/////////////////////////////////////////////////////////////////////////////////////////////////////////////////////////////////
; 1045 : 		}

  00e33	e9 b6 fe ff ff	 jmp	 $LN6@store_sess
$LN7@store_sess:

; 1046 : 
; 1047 : 		fwrite (buffer, buffer_size + extra_data, 1, file_ptr);

  00e38	8b 85 4c fd ff
	ff		 mov	 eax, DWORD PTR _file_ptr$[ebp]
  00e3e	50		 push	 eax
  00e3f	6a 01		 push	 1
  00e41	8b 8d 20 fd ff
	ff		 mov	 ecx, DWORD PTR _buffer_size$1[ebp]
  00e47	03 8d 28 fd ff
	ff		 add	 ecx, DWORD PTR _extra_data$3[ebp]
  00e4d	51		 push	 ecx
  00e4e	8b 95 2c fd ff
	ff		 mov	 edx, DWORD PTR _buffer$4[ebp]
  00e54	52		 push	 edx
  00e55	ff 15 00 00 00
	00		 call	 DWORD PTR __imp__fwrite
  00e5b	83 c4 10	 add	 esp, 16			; 00000010H

; 1048 : 
; 1049 : 		/////////////////////////////////////////////////////////////////////////////////////////////////////////////////////////////////
; 1050 : 		//
; 1051 : 		/////////////////////////////////////////////////////////////////////////////////////////////////////////////////////////////////
; 1052 : 
; 1053 : 		free_mem (buffer);

  00e5e	8b 85 2c fd ff
	ff		 mov	 eax, DWORD PTR _buffer$4[ebp]
  00e64	50		 push	 eax
  00e65	e8 00 00 00 00	 call	 ?free_mem@@YGXPAX@Z	; free_mem
$LN14@store_sess:

; 1054 : 	}
; 1055 : 
; 1056 : 	fclose (file_ptr);

  00e6a	8b 85 4c fd ff
	ff		 mov	 eax, DWORD PTR _file_ptr$[ebp]
  00e70	50		 push	 eax
  00e71	ff 15 00 00 00
	00		 call	 DWORD PTR __imp__fclose
  00e77	83 c4 04	 add	 esp, 4

; 1057 : 
; 1058 : 	//
; 1059 : 	//
; 1060 : 	//
; 1061 : 
; 1062 : 	// arneh feb 2009 - this call shouldn't be necessary, and it will double initialise things which confuses EECH
; 1063 : 	//	set_current_game_session (game_session);
; 1064 : 
; 1065 : 	#endif
; 1066 : 
; 1067 : 	return TRUE;

  00e7a	b8 01 00 00 00	 mov	 eax, 1
$LN1@store_sess:

; 1068 : }

  00e7f	5f		 pop	 edi
  00e80	5e		 pop	 esi
  00e81	5b		 pop	 ebx
  00e82	8b e5		 mov	 esp, ebp
  00e84	5d		 pop	 ebp
  00e85	c2 08 00	 ret	 8
?store_session@@YGHPAUSESSION_LIST_DATA_TYPE@@PBD@Z ENDP ; store_session
_TEXT	ENDS
; Function compile flags: /Odtp /ZI
; File c:\users\nhv90\projects\eech\aphavoc\source\ui_menu\session\uisession.c
;	COMDAT ?get_session_list@@YGPAUSESSION_LIST_DATA_TYPE@@XZ
_TEXT	SEGMENT
?get_session_list@@YGPAUSESSION_LIST_DATA_TYPE@@XZ PROC	; get_session_list, COMDAT

; 742  : {

  00000	55		 push	 ebp
  00001	8b ec		 mov	 ebp, esp
  00003	83 ec 40	 sub	 esp, 64			; 00000040H
  00006	53		 push	 ebx
  00007	56		 push	 esi
  00008	57		 push	 edi

; 743  : 
; 744  : 	return session_list_head;

  00009	a1 00 00 00 00	 mov	 eax, DWORD PTR ?session_list_head@@3PAUSESSION_LIST_DATA_TYPE@@A ; session_list_head

; 745  : }

  0000e	5f		 pop	 edi
  0000f	5e		 pop	 esi
  00010	5b		 pop	 ebx
  00011	8b e5		 mov	 esp, ebp
  00013	5d		 pop	 ebp
  00014	c3		 ret	 0
?get_session_list@@YGPAUSESSION_LIST_DATA_TYPE@@XZ ENDP	; get_session_list
_TEXT	ENDS
; Function compile flags: /Odtp /ZI
; File c:\users\nhv90\projects\eech\aphavoc\source\ui_menu\session\uisession.c
;	COMDAT ?compile_restore_session_list@@YGXPAPAUSESSION_LIST_DATA_TYPE@@@Z
_TEXT	SEGMENT
_this_connection$ = -12					; size = 4
_extension$ = -8					; size = 5
_list$ = 8						; size = 4
?compile_restore_session_list@@YGXPAPAUSESSION_LIST_DATA_TYPE@@@Z PROC ; compile_restore_session_list, COMDAT

; 696  : {

  00000	55		 push	 ebp
  00001	8b ec		 mov	 ebp, esp
  00003	83 ec 4c	 sub	 esp, 76			; 0000004cH
  00006	53		 push	 ebx
  00007	56		 push	 esi
  00008	57		 push	 edi

; 697  : 
; 698  : 	char
; 699  : 		extension [5];
; 700  : 
; 701  : 	connection_data_type
; 702  : 		*this_connection;
; 703  : 
; 704  : 	this_connection = direct_play_get_connection_data ();

  00009	e8 00 00 00 00	 call	 ?direct_play_get_connection_data@@YGPAUCONNECTION_DATA_TYPE@@XZ ; direct_play_get_connection_data
  0000e	89 45 f4	 mov	 DWORD PTR _this_connection$[ebp], eax

; 705  : 
; 706  : 	if ( ( this_connection ) && ( this_connection->is_initialised ) )

  00011	83 7d f4 00	 cmp	 DWORD PTR _this_connection$[ebp], 0
  00015	74 26		 je	 SHORT $LN2@compile_re
  00017	8b 45 f4	 mov	 eax, DWORD PTR _this_connection$[ebp]
  0001a	8b 48 3c	 mov	 ecx, DWORD PTR [eax+60]
  0001d	83 e1 01	 and	 ecx, 1
  00020	74 1b		 je	 SHORT $LN2@compile_re

; 707  : 	{
; 708  : 
; 709  : 		if ( ( this_connection->one_way_hosting_setup ) && ( !this_connection->is_hosting ) )

  00022	8b 45 f4	 mov	 eax, DWORD PTR _this_connection$[ebp]
  00025	83 78 38 00	 cmp	 DWORD PTR [eax+56], 0
  00029	74 12		 je	 SHORT $LN2@compile_re
  0002b	8b 45 f4	 mov	 eax, DWORD PTR _this_connection$[ebp]
  0002e	8b 48 3c	 mov	 ecx, DWORD PTR [eax+60]
  00031	d1 e9		 shr	 ecx, 1
  00033	83 e1 01	 and	 ecx, 1
  00036	75 05		 jne	 SHORT $LN2@compile_re

; 710  : 		{
; 711  : 
; 712  : 			return;

  00038	e9 b5 00 00 00	 jmp	 $LN1@compile_re
$LN2@compile_re:

; 713  : 		}
; 714  : 	}
; 715  : 
; 716  : 	sprintf (extension, "%s", game_type_extensions [get_game_type ()]);

  0003d	a1 00 00 00 00	 mov	 eax, DWORD PTR ?game_type@@3W4GAME_TYPES@@A ; game_type
  00042	8b 0c 85 00 00
	00 00		 mov	 ecx, DWORD PTR ?game_type_extensions@@3PAPBDA[eax*4]
  00049	51		 push	 ecx
  0004a	68 00 00 00 00	 push	 OFFSET ??_C@_02DKCKIIND@?$CFs@
  0004f	8d 55 f8	 lea	 edx, DWORD PTR _extension$[ebp]
  00052	52		 push	 edx
  00053	e8 00 00 00 00	 call	 _sprintf
  00058	83 c4 0c	 add	 esp, 12			; 0000000cH

; 717  : 
; 718  : 	extension [2] = extension [1];

  0005b	b8 01 00 00 00	 mov	 eax, 1
  00060	c1 e0 00	 shl	 eax, 0
  00063	b9 01 00 00 00	 mov	 ecx, 1
  00068	d1 e1		 shl	 ecx, 1
  0006a	8a 54 05 f8	 mov	 dl, BYTE PTR _extension$[ebp+eax]
  0006e	88 54 0d f8	 mov	 BYTE PTR _extension$[ebp+ecx], dl

; 719  : 	extension [1] = extension [0];

  00072	b8 01 00 00 00	 mov	 eax, 1
  00077	6b c8 00	 imul	 ecx, eax, 0
  0007a	ba 01 00 00 00	 mov	 edx, 1
  0007f	c1 e2 00	 shl	 edx, 0
  00082	8a 44 0d f8	 mov	 al, BYTE PTR _extension$[ebp+ecx]
  00086	88 44 15 f8	 mov	 BYTE PTR _extension$[ebp+edx], al

; 720  : 	extension [0] = 'S';

  0008a	b8 01 00 00 00	 mov	 eax, 1
  0008f	6b c8 00	 imul	 ecx, eax, 0
  00092	c6 44 0d f8 53	 mov	 BYTE PTR _extension$[ebp+ecx], 83 ; 00000053H

; 721  : 
; 722  : // Jabberwock 040201 Session filter
; 723  : 	if (!command_line_session_filter || (strcmp (session_filter_value, "root") == 0))

  00097	83 3d 00 00 00
	00 00		 cmp	 DWORD PTR ?command_line_session_filter@@3HA, 0 ; command_line_session_filter
  0009e	74 16		 je	 SHORT $LN6@compile_re
  000a0	68 00 00 00 00	 push	 OFFSET ??_C@_04NBFCGMPH@root@
  000a5	68 00 00 00 00	 push	 OFFSET ?session_filter_value@@3PADA ; session_filter_value
  000aa	e8 00 00 00 00	 call	 _strcmp
  000af	83 c4 08	 add	 esp, 8
  000b2	85 c0		 test	 eax, eax
  000b4	75 14		 jne	 SHORT $LN4@compile_re
$LN6@compile_re:

; 724  : 	{
; 725  : 		recursive_check_campaign_files ("..\\common\\maps", list, extension);

  000b6	8d 45 f8	 lea	 eax, DWORD PTR _extension$[ebp]
  000b9	50		 push	 eax
  000ba	8b 4d 08	 mov	 ecx, DWORD PTR _list$[ebp]
  000bd	51		 push	 ecx
  000be	68 00 00 00 00	 push	 OFFSET ??_C@_0P@NGFFGAMI@?4?4?2common?2maps@
  000c3	e8 00 00 00 00	 call	 ?recursive_check_campaign_files@@YGXPBDPAPAUSESSION_LIST_DATA_TYPE@@0@Z ; recursive_check_campaign_files

; 726  : 	}
; 727  : 	else

  000c8	eb 28		 jmp	 SHORT $LN1@compile_re
$LN4@compile_re:

; 728  : 	{
; 729  : 		if ((strcmp (session_filter_value, "-Multiplayer-") != 0))

  000ca	68 00 00 00 00	 push	 OFFSET ??_C@_0O@OLLFJHMI@?9Multiplayer?9@
  000cf	68 00 00 00 00	 push	 OFFSET ?session_filter_value@@3PADA ; session_filter_value
  000d4	e8 00 00 00 00	 call	 _strcmp
  000d9	83 c4 08	 add	 esp, 8
  000dc	85 c0		 test	 eax, eax
  000de	74 12		 je	 SHORT $LN1@compile_re

; 730  : 		{
; 731  : 			recursive_check_campaign_files (session_filter_value, list, extension);

  000e0	8d 45 f8	 lea	 eax, DWORD PTR _extension$[ebp]
  000e3	50		 push	 eax
  000e4	8b 4d 08	 mov	 ecx, DWORD PTR _list$[ebp]
  000e7	51		 push	 ecx
  000e8	68 00 00 00 00	 push	 OFFSET ?session_filter_value@@3PADA ; session_filter_value
  000ed	e8 00 00 00 00	 call	 ?recursive_check_campaign_files@@YGXPBDPAPAUSESSION_LIST_DATA_TYPE@@0@Z ; recursive_check_campaign_files
$LN1@compile_re:

; 732  : 		}
; 733  : 	}
; 734  : }

  000f2	5f		 pop	 edi
  000f3	5e		 pop	 esi
  000f4	5b		 pop	 ebx
  000f5	8b e5		 mov	 esp, ebp
  000f7	5d		 pop	 ebp
  000f8	c2 04 00	 ret	 4
?compile_restore_session_list@@YGXPAPAUSESSION_LIST_DATA_TYPE@@@Z ENDP ; compile_restore_session_list
_TEXT	ENDS
; Function compile flags: /Odtp /ZI
; File c:\users\nhv90\projects\eech\aphavoc\source\ui_menu\session\uisession.c
;	COMDAT ?compile_multi_session_list@@YGXPAPAUSESSION_LIST_DATA_TYPE@@@Z
_TEXT	SEGMENT
_currentServer$1 = -148					; size = 4
_number_of_sessions$2 = -144				; size = 4
_text$ = -140						; size = 128
_this_connection$ = -12					; size = 4
_this_session$ = -8					; size = 4
_session_number$ = -4					; size = 4
_list$ = 8						; size = 4
?compile_multi_session_list@@YGXPAPAUSESSION_LIST_DATA_TYPE@@@Z PROC ; compile_multi_session_list, COMDAT

; 522  : {

  00000	55		 push	 ebp
  00001	8b ec		 mov	 ebp, esp
  00003	81 ec d4 00 00
	00		 sub	 esp, 212		; 000000d4H
  00009	53		 push	 ebx
  0000a	56		 push	 esi
  0000b	57		 push	 edi

; 523  : 	#if !DEMO_VERSION
; 524  : 
; 525  : 	int
; 526  : 		session_number = 0;

  0000c	c7 45 fc 00 00
	00 00		 mov	 DWORD PTR _session_number$[ebp], 0

; 527  : 
; 528  : 	session_table_type
; 529  : 		*this_session;
; 530  : 
; 531  : 	connection_data_type
; 532  : 		*this_connection;
; 533  : 
; 534  : 	char
; 535  : 		text [128];
; 536  : 
; 537  : 	this_connection = direct_play_get_connection_data ();

  00013	e8 00 00 00 00	 call	 ?direct_play_get_connection_data@@YGPAUCONNECTION_DATA_TYPE@@XZ ; direct_play_get_connection_data
  00018	89 45 f4	 mov	 DWORD PTR _this_connection$[ebp], eax

; 538  : 
; 539  : 	if ( ( this_connection ) && ( this_connection->is_initialised ) )

  0001b	83 7d f4 00	 cmp	 DWORD PTR _this_connection$[ebp], 0
  0001f	0f 84 1f 02 00
	00		 je	 $LN1@compile_mu
  00025	8b 45 f4	 mov	 eax, DWORD PTR _this_connection$[ebp]
  00028	8b 48 3c	 mov	 ecx, DWORD PTR [eax+60]
  0002b	83 e1 01	 and	 ecx, 1
  0002e	0f 84 10 02 00
	00		 je	 $LN1@compile_mu

; 540  : 	{
; 541  : 
; 542  : 		int number_of_sessions;
; 543  : 		int currentServer;
; 544  : 
; 545  : 		// Jabberwock 040201 Session filter
; 546  : 		if (command_line_session_filter)

  00034	83 3d 00 00 00
	00 00		 cmp	 DWORD PTR ?command_line_session_filter@@3HA, 0 ; command_line_session_filter
  0003b	74 52		 je	 SHORT $LN8@compile_mu

; 547  : 		{
; 548  : 			if ((strcmp(session_filter_value, "root") == 0) || (strcmp(session_filter_value, "-Multiplayer-") == 0))

  0003d	68 00 00 00 00	 push	 OFFSET ??_C@_04NBFCGMPH@root@
  00042	68 00 00 00 00	 push	 OFFSET ?session_filter_value@@3PADA ; session_filter_value
  00047	e8 00 00 00 00	 call	 _strcmp
  0004c	83 c4 08	 add	 esp, 8
  0004f	85 c0		 test	 eax, eax
  00051	74 16		 je	 SHORT $LN10@compile_mu
  00053	68 00 00 00 00	 push	 OFFSET ??_C@_0O@OLLFJHMI@?9Multiplayer?9@
  00058	68 00 00 00 00	 push	 OFFSET ?session_filter_value@@3PADA ; session_filter_value
  0005d	e8 00 00 00 00	 call	 _strcmp
  00062	83 c4 08	 add	 esp, 8
  00065	85 c0		 test	 eax, eax
  00067	75 26		 jne	 SHORT $LN8@compile_mu
$LN10@compile_mu:

; 549  : 			{
; 550  : 				add_session ("-Multiplayer-", SESSION_LIST_TYPE_FILTER, 1, NULL, "-Multiplayer-", NULL, NULL, "-Multiplayer-", list, NULL, SESSION_SEASON_INVALID);

  00069	6a 00		 push	 0
  0006b	6a 00		 push	 0
  0006d	8b 45 08	 mov	 eax, DWORD PTR _list$[ebp]
  00070	50		 push	 eax
  00071	68 00 00 00 00	 push	 OFFSET ??_C@_0O@OLLFJHMI@?9Multiplayer?9@
  00076	6a 00		 push	 0
  00078	6a 00		 push	 0
  0007a	68 00 00 00 00	 push	 OFFSET ??_C@_0O@OLLFJHMI@?9Multiplayer?9@
  0007f	6a 00		 push	 0
  00081	6a 01		 push	 1
  00083	6a 10		 push	 16			; 00000010H
  00085	68 00 00 00 00	 push	 OFFSET ??_C@_0O@OLLFJHMI@?9Multiplayer?9@
  0008a	e8 00 00 00 00	 call	 ?add_session@@YGPAUSESSION_LIST_DATA_TYPE@@PBDW4SESSION_LIST_TYPES@@HPAUSESSION_TABLE_TYPE@@PAD333PAPAU1@0H@Z ; add_session
$LN8@compile_mu:

; 551  : 			}
; 552  : 		}
; 553  : 
; 554  : 		if ( !this_connection->one_way_hosting_setup )

  0008f	8b 45 f4	 mov	 eax, DWORD PTR _this_connection$[ebp]
  00092	83 78 38 00	 cmp	 DWORD PTR [eax+56], 0
  00096	75 0d		 jne	 SHORT $LN11@compile_mu

; 555  : 		{
; 556  : 
; 557  : 			number_of_sessions =  direct_play_enumerate_sessions ();

  00098	e8 00 00 00 00	 call	 ?direct_play_enumerate_sessions@@YGHXZ ; direct_play_enumerate_sessions
  0009d	89 85 70 ff ff
	ff		 mov	 DWORD PTR _number_of_sessions$2[ebp], eax

; 558  : 		}
; 559  : 		else

  000a3	eb 1b		 jmp	 SHORT $LN12@compile_mu
$LN11@compile_mu:

; 560  : 		{
; 561  : 
; 562  : 			validate_modem_connection ();

  000a5	e8 00 00 00 00	 call	 ?validate_modem_connection@@YGXXZ ; validate_modem_connection

; 563  : 
; 564  : 			if ( this_connection->is_initialised )

  000aa	8b 45 f4	 mov	 eax, DWORD PTR _this_connection$[ebp]
  000ad	8b 48 3c	 mov	 ecx, DWORD PTR [eax+60]
  000b0	83 e1 01	 and	 ecx, 1
  000b3	74 0b		 je	 SHORT $LN12@compile_mu

; 565  : 			{
; 566  : 
; 567  : 				number_of_sessions = direct_play_refresh_modem_session ();

  000b5	e8 00 00 00 00	 call	 ?direct_play_refresh_modem_session@@YGHXZ ; direct_play_refresh_modem_session
  000ba	89 85 70 ff ff
	ff		 mov	 DWORD PTR _number_of_sessions$2[ebp], eax
$LN12@compile_mu:

; 568  : 			}
; 569  : 		}
; 570  : 
; 571  : 		if ( number_of_sessions )

  000c0	83 bd 70 ff ff
	ff 00		 cmp	 DWORD PTR _number_of_sessions$2[ebp], 0
  000c7	0f 84 88 00 00
	00		 je	 $LN14@compile_mu

; 572  : 		{
; 573  : 
; 574  : 			this_session = direct_play_get_session_table ();

  000cd	e8 00 00 00 00	 call	 ?direct_play_get_session_table@@YGPAUSESSION_TABLE_TYPE@@XZ ; direct_play_get_session_table
  000d2	89 45 f8	 mov	 DWORD PTR _this_session$[ebp], eax
$LN2@compile_mu:

; 575  : 
; 576  : 			while (this_session)

  000d5	83 7d f8 00	 cmp	 DWORD PTR _this_session$[ebp], 0
  000d9	74 7a		 je	 SHORT $LN14@compile_mu

; 577  : 			{
; 578  : 
; 579  : 				//if (this_session->session->dwUser1 == get_game_type ()) // Jabberwock 031118 MP - campaigns shows in skirmishes and vice versa
; 580  : 				{
; 581  : 
; 582  : 					if ((!command_line_session_filter) || (strcmp ("-Multiplayer-", session_filter_value) == 0)) // Jabberwock 031210 Session filter

  000db	83 3d 00 00 00
	00 00		 cmp	 DWORD PTR ?command_line_session_filter@@3HA, 0 ; command_line_session_filter
  000e2	74 16		 je	 SHORT $LN16@compile_mu
  000e4	68 00 00 00 00	 push	 OFFSET ?session_filter_value@@3PADA ; session_filter_value
  000e9	68 00 00 00 00	 push	 OFFSET ??_C@_0O@OLLFJHMI@?9Multiplayer?9@
  000ee	e8 00 00 00 00	 call	 _strcmp
  000f3	83 c4 08	 add	 esp, 8
  000f6	85 c0		 test	 eax, eax
  000f8	75 50		 jne	 SHORT $LN15@compile_mu
$LN16@compile_mu:

; 583  : 					{
; 584  : 						sprintf (text, "%s", this_session->session->lpszSessionNameA);

  000fa	8b 45 f8	 mov	 eax, DWORD PTR _this_session$[ebp]
  000fd	8b 48 04	 mov	 ecx, DWORD PTR [eax+4]
  00100	8b 51 30	 mov	 edx, DWORD PTR [ecx+48]
  00103	52		 push	 edx
  00104	68 00 00 00 00	 push	 OFFSET ??_C@_02DKCKIIND@?$CFs@
  00109	8d 85 74 ff ff
	ff		 lea	 eax, DWORD PTR _text$[ebp]
  0010f	50		 push	 eax
  00110	e8 00 00 00 00	 call	 _sprintf
  00115	83 c4 0c	 add	 esp, 12			; 0000000cH

; 585  : 
; 586  : 						session_number ++;

  00118	8b 45 fc	 mov	 eax, DWORD PTR _session_number$[ebp]
  0011b	83 c0 01	 add	 eax, 1
  0011e	89 45 fc	 mov	 DWORD PTR _session_number$[ebp], eax

; 587  : 
; 588  : 						add_session (text, SESSION_LIST_TYPE_JOIN, session_number, this_session, NULL, NULL, NULL, "-Multiplayer-", list, NULL, SESSION_SEASON_INVALID); // Jabberwock 031210 Session filter

  00121	6a 00		 push	 0
  00123	6a 00		 push	 0
  00125	8b 45 08	 mov	 eax, DWORD PTR _list$[ebp]
  00128	50		 push	 eax
  00129	68 00 00 00 00	 push	 OFFSET ??_C@_0O@OLLFJHMI@?9Multiplayer?9@
  0012e	6a 00		 push	 0
  00130	6a 00		 push	 0
  00132	6a 00		 push	 0
  00134	8b 4d f8	 mov	 ecx, DWORD PTR _this_session$[ebp]
  00137	51		 push	 ecx
  00138	8b 55 fc	 mov	 edx, DWORD PTR _session_number$[ebp]
  0013b	52		 push	 edx
  0013c	6a 02		 push	 2
  0013e	8d 85 74 ff ff
	ff		 lea	 eax, DWORD PTR _text$[ebp]
  00144	50		 push	 eax
  00145	e8 00 00 00 00	 call	 ?add_session@@YGPAUSESSION_LIST_DATA_TYPE@@PBDW4SESSION_LIST_TYPES@@HPAUSESSION_TABLE_TYPE@@PAD333PAPAU1@0H@Z ; add_session
$LN15@compile_mu:

; 589  : 					}
; 590  : 				}
; 591  : 
; 592  : 				this_session = this_session->next_session;

  0014a	8b 45 f8	 mov	 eax, DWORD PTR _this_session$[ebp]
  0014d	8b 48 08	 mov	 ecx, DWORD PTR [eax+8]
  00150	89 4d f8	 mov	 DWORD PTR _this_session$[ebp], ecx

; 593  : 			}

  00153	eb 80		 jmp	 SHORT $LN2@compile_mu
$LN14@compile_mu:

; 594  : 		}
; 595  : 
; 596  : 		//Werewolf 14 May 2003
; 597  : 		//Fetch active servers from masterserver
; 598  : 		net_getServerList();

  00155	e8 00 00 00 00	 call	 ?net_getServerList@@YGXXZ ; net_getServerList

; 599  : 		for (currentServer=0; currentServer<numServers; currentServer++)

  0015a	c7 85 6c ff ff
	ff 00 00 00 00	 mov	 DWORD PTR _currentServer$1[ebp], 0
  00164	eb 0f		 jmp	 SHORT $LN6@compile_mu
$LN4@compile_mu:
  00166	8b 85 6c ff ff
	ff		 mov	 eax, DWORD PTR _currentServer$1[ebp]
  0016c	83 c0 01	 add	 eax, 1
  0016f	89 85 6c ff ff
	ff		 mov	 DWORD PTR _currentServer$1[ebp], eax
$LN6@compile_mu:
  00175	8b 85 6c ff ff
	ff		 mov	 eax, DWORD PTR _currentServer$1[ebp]
  0017b	3b 05 00 00 00
	00		 cmp	 eax, DWORD PTR ?numServers@@3HA ; numServers
  00181	0f 8d bd 00 00
	00		 jge	 $LN1@compile_mu

; 600  : 		{
; 601  : 			if ((!command_line_session_filter) || (strcmp ("-Multiplayer-", session_filter_value) == 0)) // Jabberwock 031210 Session filter

  00187	83 3d 00 00 00
	00 00		 cmp	 DWORD PTR ?command_line_session_filter@@3HA, 0 ; command_line_session_filter
  0018e	74 1a		 je	 SHORT $LN18@compile_mu
  00190	68 00 00 00 00	 push	 OFFSET ?session_filter_value@@3PADA ; session_filter_value
  00195	68 00 00 00 00	 push	 OFFSET ??_C@_0O@OLLFJHMI@?9Multiplayer?9@
  0019a	e8 00 00 00 00	 call	 _strcmp
  0019f	83 c4 08	 add	 esp, 8
  001a2	85 c0		 test	 eax, eax
  001a4	0f 85 95 00 00
	00		 jne	 $LN17@compile_mu
$LN18@compile_mu:

; 602  : 			{
; 603  : 				sprintf (text, "%s (%i/%i) %s", Servers[currentServer].Name, Servers[currentServer].CurClients, Servers[currentServer].MaxClients, Servers[currentServer].Version);

  001aa	69 85 6c ff ff
	ff 78 02 00 00	 imul	 eax, DWORD PTR _currentServer$1[ebp], 632
  001b4	05 6c 01 00 00	 add	 eax, OFFSET ?Servers@@3PAUServerData@@A+364
  001b9	50		 push	 eax
  001ba	69 8d 6c ff ff
	ff 78 02 00 00	 imul	 ecx, DWORD PTR _currentServer$1[ebp], 632
  001c4	8b 91 64 01 00
	00		 mov	 edx, DWORD PTR ?Servers@@3PAUServerData@@A[ecx+356]
  001ca	52		 push	 edx
  001cb	69 85 6c ff ff
	ff 78 02 00 00	 imul	 eax, DWORD PTR _currentServer$1[ebp], 632
  001d5	8b 88 68 01 00
	00		 mov	 ecx, DWORD PTR ?Servers@@3PAUServerData@@A[eax+360]
  001db	51		 push	 ecx
  001dc	69 95 6c ff ff
	ff 78 02 00 00	 imul	 edx, DWORD PTR _currentServer$1[ebp], 632
  001e6	81 c2 64 00 00
	00		 add	 edx, OFFSET ?Servers@@3PAUServerData@@A+100
  001ec	52		 push	 edx
  001ed	68 00 00 00 00	 push	 OFFSET ??_C@_0O@NJDILOOA@?$CFs?5?$CI?$CFi?1?$CFi?$CJ?5?$CFs@
  001f2	8d 85 74 ff ff
	ff		 lea	 eax, DWORD PTR _text$[ebp]
  001f8	50		 push	 eax
  001f9	e8 00 00 00 00	 call	 _sprintf
  001fe	83 c4 18	 add	 esp, 24			; 00000018H

; 604  : 
; 605  : 				session_number ++;

  00201	8b 45 fc	 mov	 eax, DWORD PTR _session_number$[ebp]
  00204	83 c0 01	 add	 eax, 1
  00207	89 45 fc	 mov	 DWORD PTR _session_number$[ebp], eax

; 606  : 
; 607  : 				add_session (text, SESSION_LIST_TYPE_MASTER, session_number, NULL, NULL, NULL, NULL, "-Multiplayer-", list, Servers[currentServer].Adress, SESSION_SEASON_INVALID); // Jabberwock 031210 Session filter

  0020a	6a 00		 push	 0
  0020c	69 85 6c ff ff
	ff 78 02 00 00	 imul	 eax, DWORD PTR _currentServer$1[ebp], 632
  00216	05 00 00 00 00	 add	 eax, OFFSET ?Servers@@3PAUServerData@@A ; Servers
  0021b	50		 push	 eax
  0021c	8b 4d 08	 mov	 ecx, DWORD PTR _list$[ebp]
  0021f	51		 push	 ecx
  00220	68 00 00 00 00	 push	 OFFSET ??_C@_0O@OLLFJHMI@?9Multiplayer?9@
  00225	6a 00		 push	 0
  00227	6a 00		 push	 0
  00229	6a 00		 push	 0
  0022b	6a 00		 push	 0
  0022d	8b 55 fc	 mov	 edx, DWORD PTR _session_number$[ebp]
  00230	52		 push	 edx
  00231	6a 08		 push	 8
  00233	8d 85 74 ff ff
	ff		 lea	 eax, DWORD PTR _text$[ebp]
  00239	50		 push	 eax
  0023a	e8 00 00 00 00	 call	 ?add_session@@YGPAUSESSION_LIST_DATA_TYPE@@PBDW4SESSION_LIST_TYPES@@HPAUSESSION_TABLE_TYPE@@PAD333PAPAU1@0H@Z ; add_session
$LN17@compile_mu:

; 608  : 			}
; 609  : 		}

  0023f	e9 22 ff ff ff	 jmp	 $LN4@compile_mu
$LN1@compile_mu:

; 610  : 	}
; 611  : 
; 612  : 	#endif
; 613  : }

  00244	5f		 pop	 edi
  00245	5e		 pop	 esi
  00246	5b		 pop	 ebx
  00247	8b e5		 mov	 esp, ebp
  00249	5d		 pop	 ebp
  0024a	c2 04 00	 ret	 4
?compile_multi_session_list@@YGXPAPAUSESSION_LIST_DATA_TYPE@@@Z ENDP ; compile_multi_session_list
_TEXT	ENDS
; Function compile flags: /Odtp /ZI
; File c:\users\nhv90\projects\eech\aphavoc\source\ui_menu\session\uisession.c
;	COMDAT ?compile_single_session_list@@YGXPAPAUSESSION_LIST_DATA_TYPE@@@Z
_TEXT	SEGMENT
_this_connection$ = -4					; size = 4
_list$ = 8						; size = 4
?compile_single_session_list@@YGXPAPAUSESSION_LIST_DATA_TYPE@@@Z PROC ; compile_single_session_list, COMDAT

; 485  : {

  00000	55		 push	 ebp
  00001	8b ec		 mov	 ebp, esp
  00003	83 ec 44	 sub	 esp, 68			; 00000044H
  00006	53		 push	 ebx
  00007	56		 push	 esi
  00008	57		 push	 edi

; 486  : 
; 487  : 	connection_data_type
; 488  : 		*this_connection;
; 489  : 
; 490  : 	this_connection = direct_play_get_connection_data ();

  00009	e8 00 00 00 00	 call	 ?direct_play_get_connection_data@@YGPAUCONNECTION_DATA_TYPE@@XZ ; direct_play_get_connection_data
  0000e	89 45 fc	 mov	 DWORD PTR _this_connection$[ebp], eax

; 491  : 
; 492  : 	if ( ( this_connection ) && ( this_connection->is_initialised ) )

  00011	83 7d fc 00	 cmp	 DWORD PTR _this_connection$[ebp], 0
  00015	74 23		 je	 SHORT $LN2@compile_si
  00017	8b 45 fc	 mov	 eax, DWORD PTR _this_connection$[ebp]
  0001a	8b 48 3c	 mov	 ecx, DWORD PTR [eax+60]
  0001d	83 e1 01	 and	 ecx, 1
  00020	74 18		 je	 SHORT $LN2@compile_si

; 493  : 	{
; 494  : 
; 495  : 		if ( ( this_connection->one_way_hosting_setup ) && ( !this_connection->is_hosting ) )

  00022	8b 45 fc	 mov	 eax, DWORD PTR _this_connection$[ebp]
  00025	83 78 38 00	 cmp	 DWORD PTR [eax+56], 0
  00029	74 0f		 je	 SHORT $LN2@compile_si
  0002b	8b 45 fc	 mov	 eax, DWORD PTR _this_connection$[ebp]
  0002e	8b 48 3c	 mov	 ecx, DWORD PTR [eax+60]
  00031	d1 e9		 shr	 ecx, 1
  00033	83 e1 01	 and	 ecx, 1
  00036	75 02		 jne	 SHORT $LN2@compile_si

; 496  : 		{
; 497  : 
; 498  : 			return;

  00038	eb 6d		 jmp	 SHORT $LN1@compile_si
$LN2@compile_si:

; 499  : 		}
; 500  : 	}
; 501  : 
; 502  : // Jabberwock 040201 Session filter
; 503  : 	if (!command_line_session_filter || (strcmp (session_filter_value, "root") == 0))

  0003a	83 3d 00 00 00
	00 00		 cmp	 DWORD PTR ?command_line_session_filter@@3HA, 0 ; command_line_session_filter
  00041	74 16		 je	 SHORT $LN6@compile_si
  00043	68 00 00 00 00	 push	 OFFSET ??_C@_04NBFCGMPH@root@
  00048	68 00 00 00 00	 push	 OFFSET ?session_filter_value@@3PADA ; session_filter_value
  0004d	e8 00 00 00 00	 call	 _strcmp
  00052	83 c4 08	 add	 esp, 8
  00055	85 c0		 test	 eax, eax
  00057	75 1d		 jne	 SHORT $LN4@compile_si
$LN6@compile_si:

; 504  : 	{
; 505  : 		recursive_check_campaign_files ("..\\common\\maps", list, game_type_extensions [get_game_type ()]);

  00059	a1 00 00 00 00	 mov	 eax, DWORD PTR ?game_type@@3W4GAME_TYPES@@A ; game_type
  0005e	8b 0c 85 00 00
	00 00		 mov	 ecx, DWORD PTR ?game_type_extensions@@3PAPBDA[eax*4]
  00065	51		 push	 ecx
  00066	8b 55 08	 mov	 edx, DWORD PTR _list$[ebp]
  00069	52		 push	 edx
  0006a	68 00 00 00 00	 push	 OFFSET ??_C@_0P@NGFFGAMI@?4?4?2common?2maps@
  0006f	e8 00 00 00 00	 call	 ?recursive_check_campaign_files@@YGXPBDPAPAUSESSION_LIST_DATA_TYPE@@0@Z ; recursive_check_campaign_files

; 506  : 	}
; 507  : 	else

  00074	eb 31		 jmp	 SHORT $LN1@compile_si
$LN4@compile_si:

; 508  : 	{
; 509  : 		if ((strcmp (session_filter_value, "-Multiplayer-") != 0))

  00076	68 00 00 00 00	 push	 OFFSET ??_C@_0O@OLLFJHMI@?9Multiplayer?9@
  0007b	68 00 00 00 00	 push	 OFFSET ?session_filter_value@@3PADA ; session_filter_value
  00080	e8 00 00 00 00	 call	 _strcmp
  00085	83 c4 08	 add	 esp, 8
  00088	85 c0		 test	 eax, eax
  0008a	74 1b		 je	 SHORT $LN1@compile_si

; 510  : 		{
; 511  : 			recursive_check_campaign_files (session_filter_value, list, game_type_extensions [get_game_type ()]);

  0008c	a1 00 00 00 00	 mov	 eax, DWORD PTR ?game_type@@3W4GAME_TYPES@@A ; game_type
  00091	8b 0c 85 00 00
	00 00		 mov	 ecx, DWORD PTR ?game_type_extensions@@3PAPBDA[eax*4]
  00098	51		 push	 ecx
  00099	8b 55 08	 mov	 edx, DWORD PTR _list$[ebp]
  0009c	52		 push	 edx
  0009d	68 00 00 00 00	 push	 OFFSET ?session_filter_value@@3PADA ; session_filter_value
  000a2	e8 00 00 00 00	 call	 ?recursive_check_campaign_files@@YGXPBDPAPAUSESSION_LIST_DATA_TYPE@@0@Z ; recursive_check_campaign_files
$LN1@compile_si:

; 512  : 		}
; 513  : 	}
; 514  : }

  000a7	5f		 pop	 edi
  000a8	5e		 pop	 esi
  000a9	5b		 pop	 ebx
  000aa	8b e5		 mov	 esp, ebp
  000ac	5d		 pop	 ebp
  000ad	c2 04 00	 ret	 4
?compile_single_session_list@@YGXPAPAUSESSION_LIST_DATA_TYPE@@@Z ENDP ; compile_single_session_list
_TEXT	ENDS
; Function compile flags: /Odtp /ZI
; File c:\users\nhv90\projects\eech\aphavoc\source\ui_menu\session\uisession.c
;	COMDAT ?destroy_session_list@@YGXPAPAUSESSION_LIST_DATA_TYPE@@@Z
_TEXT	SEGMENT
_destroy_session$ = -12					; size = 4
_destroy_child$ = -8					; size = 4
_child$ = -4						; size = 4
_list$ = 8						; size = 4
?destroy_session_list@@YGXPAPAUSESSION_LIST_DATA_TYPE@@@Z PROC ; destroy_session_list, COMDAT

; 145  : {

  00000	55		 push	 ebp
  00001	8b ec		 mov	 ebp, esp
  00003	83 ec 4c	 sub	 esp, 76			; 0000004cH
  00006	53		 push	 ebx
  00007	56		 push	 esi
  00008	57		 push	 edi
$LN2@destroy_se:

; 146  : 
; 147  : 	session_list_data_type
; 148  : 		*child,
; 149  : 		*destroy_child,
; 150  : 		*destroy_session;
; 151  : 
; 152  : 	while (*list)

  00009	8b 45 08	 mov	 eax, DWORD PTR _list$[ebp]
  0000c	83 38 00	 cmp	 DWORD PTR [eax], 0
  0000f	0f 84 ce 00 00
	00		 je	 $LN3@destroy_se

; 153  : 	{
; 154  : 
; 155  : 		destroy_session = *list;

  00015	8b 45 08	 mov	 eax, DWORD PTR _list$[ebp]
  00018	8b 08		 mov	 ecx, DWORD PTR [eax]
  0001a	89 4d f4	 mov	 DWORD PTR _destroy_session$[ebp], ecx

; 156  : 
; 157  : 		*list = (*list)->next;

  0001d	8b 45 08	 mov	 eax, DWORD PTR _list$[ebp]
  00020	8b 08		 mov	 ecx, DWORD PTR [eax]
  00022	8b 55 08	 mov	 edx, DWORD PTR _list$[ebp]
  00025	8b 81 a4 02 00
	00		 mov	 eax, DWORD PTR [ecx+676]
  0002b	89 02		 mov	 DWORD PTR [edx], eax

; 158  : 
; 159  : 		if (destroy_session->title)

  0002d	8b 45 f4	 mov	 eax, DWORD PTR _destroy_session$[ebp]
  00030	83 78 04 00	 cmp	 DWORD PTR [eax+4], 0
  00034	74 0c		 je	 SHORT $LN6@destroy_se

; 160  : 		{
; 161  : 
; 162  : 			free_mem (destroy_session->title);

  00036	8b 45 f4	 mov	 eax, DWORD PTR _destroy_session$[ebp]
  00039	8b 48 04	 mov	 ecx, DWORD PTR [eax+4]
  0003c	51		 push	 ecx
  0003d	e8 00 00 00 00	 call	 ?free_mem@@YGXPAX@Z	; free_mem
$LN6@destroy_se:

; 163  : 		}
; 164  : 
; 165  : 		if (destroy_session->displayed_title)

  00042	8b 45 f4	 mov	 eax, DWORD PTR _destroy_session$[ebp]
  00045	83 38 00	 cmp	 DWORD PTR [eax], 0
  00048	74 0b		 je	 SHORT $LN7@destroy_se

; 166  : 		{
; 167  : 
; 168  : 			free_mem (destroy_session->displayed_title);

  0004a	8b 45 f4	 mov	 eax, DWORD PTR _destroy_session$[ebp]
  0004d	8b 08		 mov	 ecx, DWORD PTR [eax]
  0004f	51		 push	 ecx
  00050	e8 00 00 00 00	 call	 ?free_mem@@YGXPAX@Z	; free_mem
$LN7@destroy_se:

; 169  : 		}
; 170  : 
; 171  : 		if (destroy_session->warzone_name)

  00055	8b 45 f4	 mov	 eax, DWORD PTR _destroy_session$[ebp]
  00058	83 78 18 00	 cmp	 DWORD PTR [eax+24], 0
  0005c	74 0c		 je	 SHORT $LN8@destroy_se

; 172  : 		{
; 173  : 
; 174  : 			free_mem (destroy_session->warzone_name);

  0005e	8b 45 f4	 mov	 eax, DWORD PTR _destroy_session$[ebp]
  00061	8b 48 18	 mov	 ecx, DWORD PTR [eax+24]
  00064	51		 push	 ecx
  00065	e8 00 00 00 00	 call	 ?free_mem@@YGXPAX@Z	; free_mem
$LN8@destroy_se:

; 175  : 		}
; 176  : 
; 177  : 		//
; 178  : 		// destroy child sessions
; 179  : 		//
; 180  : 
; 181  : 		child = destroy_session->child;

  0006a	8b 45 f4	 mov	 eax, DWORD PTR _destroy_session$[ebp]
  0006d	8b 88 a0 02 00
	00		 mov	 ecx, DWORD PTR [eax+672]
  00073	89 4d fc	 mov	 DWORD PTR _child$[ebp], ecx
$LN4@destroy_se:

; 182  : 
; 183  : 		while (child)

  00076	83 7d fc 00	 cmp	 DWORD PTR _child$[ebp], 0
  0007a	74 47		 je	 SHORT $LN5@destroy_se

; 184  : 		{
; 185  : 
; 186  : 			destroy_child = child;

  0007c	8b 45 fc	 mov	 eax, DWORD PTR _child$[ebp]
  0007f	89 45 f8	 mov	 DWORD PTR _destroy_child$[ebp], eax

; 187  : 
; 188  : 			child = child->child;

  00082	8b 45 fc	 mov	 eax, DWORD PTR _child$[ebp]
  00085	8b 88 a0 02 00
	00		 mov	 ecx, DWORD PTR [eax+672]
  0008b	89 4d fc	 mov	 DWORD PTR _child$[ebp], ecx

; 189  : 
; 190  : 			if (destroy_child->title)

  0008e	8b 45 f8	 mov	 eax, DWORD PTR _destroy_child$[ebp]
  00091	83 78 04 00	 cmp	 DWORD PTR [eax+4], 0
  00095	74 0c		 je	 SHORT $LN9@destroy_se

; 191  : 			{
; 192  : 
; 193  : 				free_mem (destroy_child->title);

  00097	8b 45 f8	 mov	 eax, DWORD PTR _destroy_child$[ebp]
  0009a	8b 48 04	 mov	 ecx, DWORD PTR [eax+4]
  0009d	51		 push	 ecx
  0009e	e8 00 00 00 00	 call	 ?free_mem@@YGXPAX@Z	; free_mem
$LN9@destroy_se:

; 194  : 			}
; 195  : 
; 196  : 			if (destroy_child->warzone_name)

  000a3	8b 45 f8	 mov	 eax, DWORD PTR _destroy_child$[ebp]
  000a6	83 78 18 00	 cmp	 DWORD PTR [eax+24], 0
  000aa	74 0c		 je	 SHORT $LN10@destroy_se

; 197  : 			{
; 198  : 
; 199  : 				free_mem (destroy_child->warzone_name);

  000ac	8b 45 f8	 mov	 eax, DWORD PTR _destroy_child$[ebp]
  000af	8b 48 18	 mov	 ecx, DWORD PTR [eax+24]
  000b2	51		 push	 ecx
  000b3	e8 00 00 00 00	 call	 ?free_mem@@YGXPAX@Z	; free_mem
$LN10@destroy_se:

; 200  : 			}
; 201  : 
; 202  : 			free_mem (destroy_child);

  000b8	8b 45 f8	 mov	 eax, DWORD PTR _destroy_child$[ebp]
  000bb	50		 push	 eax
  000bc	e8 00 00 00 00	 call	 ?free_mem@@YGXPAX@Z	; free_mem

; 203  : 		}

  000c1	eb b3		 jmp	 SHORT $LN4@destroy_se
$LN5@destroy_se:

; 204  : 
; 205  : 		//
; 206  : 		//
; 207  : 		//
; 208  : 
; 209  : 		if (destroy_session == current_game_session)

  000c3	8b 45 f4	 mov	 eax, DWORD PTR _destroy_session$[ebp]
  000c6	3b 05 00 00 00
	00		 cmp	 eax, DWORD PTR ?current_game_session@@3PAUSESSION_LIST_DATA_TYPE@@A ; current_game_session
  000cc	75 07		 jne	 SHORT $LN11@destroy_se

; 210  : 		{
; 211  : 
; 212  : 			set_current_game_session_invalid ();

  000ce	6a 00		 push	 0
  000d0	e8 00 00 00 00	 call	 ?set_current_game_session@@YGXPAUSESSION_LIST_DATA_TYPE@@@Z ; set_current_game_session
$LN11@destroy_se:

; 213  : 		}
; 214  : 
; 215  : 		free_mem (destroy_session);

  000d5	8b 45 f4	 mov	 eax, DWORD PTR _destroy_session$[ebp]
  000d8	50		 push	 eax
  000d9	e8 00 00 00 00	 call	 ?free_mem@@YGXPAX@Z	; free_mem

; 216  : 	}

  000de	e9 26 ff ff ff	 jmp	 $LN2@destroy_se
$LN3@destroy_se:

; 217  : 
; 218  : 	*list = NULL;

  000e3	8b 45 08	 mov	 eax, DWORD PTR _list$[ebp]
  000e6	c7 00 00 00 00
	00		 mov	 DWORD PTR [eax], 0

; 219  : 
; 220  : 	list_id = 0;

  000ec	c7 05 00 00 00
	00 00 00 00 00	 mov	 DWORD PTR ?list_id@@3HA, 0

; 221  : }

  000f6	5f		 pop	 edi
  000f7	5e		 pop	 esi
  000f8	5b		 pop	 ebx
  000f9	8b e5		 mov	 esp, ebp
  000fb	5d		 pop	 ebp
  000fc	c2 04 00	 ret	 4
?destroy_session_list@@YGXPAPAUSESSION_LIST_DATA_TYPE@@@Z ENDP ; destroy_session_list
_TEXT	ENDS
; Function compile flags: /Odtp /ZI
; File c:\users\nhv90\projects\eech\aphavoc\source\ui_menu\session\uisession.c
;	COMDAT ?deinitialise_session_list@@YGXXZ
_TEXT	SEGMENT
?deinitialise_session_list@@YGXXZ PROC			; deinitialise_session_list, COMDAT

; 133  : {

  00000	55		 push	 ebp
  00001	8b ec		 mov	 ebp, esp
  00003	83 ec 40	 sub	 esp, 64			; 00000040H
  00006	53		 push	 ebx
  00007	56		 push	 esi
  00008	57		 push	 edi

; 134  : 
; 135  : 	leave_mission ();

  00009	e8 00 00 00 00	 call	 ?leave_mission@@YGXXZ	; leave_mission

; 136  : 
; 137  : 	destroy_session_list (&session_list_head);

  0000e	68 00 00 00 00	 push	 OFFSET ?session_list_head@@3PAUSESSION_LIST_DATA_TYPE@@A ; session_list_head
  00013	e8 00 00 00 00	 call	 ?destroy_session_list@@YGXPAPAUSESSION_LIST_DATA_TYPE@@@Z ; destroy_session_list

; 138  : }

  00018	5f		 pop	 edi
  00019	5e		 pop	 esi
  0001a	5b		 pop	 ebx
  0001b	8b e5		 mov	 esp, ebp
  0001d	5d		 pop	 ebp
  0001e	c3		 ret	 0
?deinitialise_session_list@@YGXXZ ENDP			; deinitialise_session_list
_TEXT	ENDS
; Function compile flags: /Odtp /ZI
; File c:\users\nhv90\projects\eech\aphavoc\source\ui_menu\session\uisession.c
;	COMDAT ?initialise_session_list@@YGXXZ
_TEXT	SEGMENT
?initialise_session_list@@YGXXZ PROC			; initialise_session_list, COMDAT

; 113  : {

  00000	55		 push	 ebp
  00001	8b ec		 mov	 ebp, esp
  00003	83 ec 40	 sub	 esp, 64			; 00000040H
  00006	53		 push	 ebx
  00007	56		 push	 esi
  00008	57		 push	 edi

; 114  : 
; 115  : 	session_filter [GAME_TYPE_INVALID] = SESSION_LIST_TYPE_INVALID;

  00009	b8 04 00 00 00	 mov	 eax, 4
  0000e	6b c8 00	 imul	 ecx, eax, 0
  00011	c7 81 00 00 00
	00 00 00 00 00	 mov	 DWORD PTR ?session_filter@@3PAW4SESSION_LIST_TYPES@@A[ecx], 0

; 116  : 	session_filter [GAME_TYPE_FREE_FLIGHT] = SESSION_LIST_TYPE_HOST;

  0001b	b8 04 00 00 00	 mov	 eax, 4
  00020	c1 e0 00	 shl	 eax, 0
  00023	c7 80 00 00 00
	00 01 00 00 00	 mov	 DWORD PTR ?session_filter@@3PAW4SESSION_LIST_TYPES@@A[eax], 1

; 117  : 	// Jabberwock 031210 Session filter
; 118  : 	session_filter [GAME_TYPE_CAMPAIGN] = (session_list_types) (SESSION_LIST_TYPE_HOST | SESSION_LIST_TYPE_JOIN | SESSION_LIST_TYPE_RESTORE | SESSION_LIST_TYPE_MASTER | SESSION_LIST_TYPE_FILTER);

  0002d	b8 04 00 00 00	 mov	 eax, 4
  00032	d1 e0		 shl	 eax, 1
  00034	c7 80 00 00 00
	00 1f 00 00 00	 mov	 DWORD PTR ?session_filter@@3PAW4SESSION_LIST_TYPES@@A[eax], 31 ; 0000001fH

; 119  : 	session_filter [GAME_TYPE_SKIRMISH] = (session_list_types) (SESSION_LIST_TYPE_HOST | SESSION_LIST_TYPE_JOIN | SESSION_LIST_TYPE_RESTORE | SESSION_LIST_TYPE_MASTER | SESSION_LIST_TYPE_FILTER);

  0003e	b8 04 00 00 00	 mov	 eax, 4
  00043	6b c8 03	 imul	 ecx, eax, 3
  00046	c7 81 00 00 00
	00 1f 00 00 00	 mov	 DWORD PTR ?session_filter@@3PAW4SESSION_LIST_TYPES@@A[ecx], 31 ; 0000001fH

; 120  : 	// Jabberwock 031210 ends
; 121  : 	session_filter [GAME_TYPE_DEMO] = SESSION_LIST_TYPE_HOST;

  00050	b8 04 00 00 00	 mov	 eax, 4
  00055	c1 e0 02	 shl	 eax, 2
  00058	c7 80 00 00 00
	00 01 00 00 00	 mov	 DWORD PTR ?session_filter@@3PAW4SESSION_LIST_TYPES@@A[eax], 1

; 122  : 
; 123  : 	sprintf (session_filter_value, "%s", "root"); // Jabberwock 040201 Session filter

  00062	68 00 00 00 00	 push	 OFFSET ??_C@_04NBFCGMPH@root@
  00067	68 00 00 00 00	 push	 OFFSET ??_C@_02DKCKIIND@?$CFs@
  0006c	68 00 00 00 00	 push	 OFFSET ?session_filter_value@@3PADA ; session_filter_value
  00071	e8 00 00 00 00	 call	 _sprintf
  00076	83 c4 0c	 add	 esp, 12			; 0000000cH

; 124  : 
; 125  : 	destroy_session_list (&session_list_head);

  00079	68 00 00 00 00	 push	 OFFSET ?session_list_head@@3PAUSESSION_LIST_DATA_TYPE@@A ; session_list_head
  0007e	e8 00 00 00 00	 call	 ?destroy_session_list@@YGXPAPAUSESSION_LIST_DATA_TYPE@@@Z ; destroy_session_list

; 126  : }

  00083	5f		 pop	 edi
  00084	5e		 pop	 esi
  00085	5b		 pop	 ebx
  00086	8b e5		 mov	 esp, ebp
  00088	5d		 pop	 ebp
  00089	c3		 ret	 0
?initialise_session_list@@YGXXZ ENDP			; initialise_session_list
_TEXT	ENDS
; Function compile flags: /Odtp /ZI
; File c:\program files (x86)\windows kits\10\include\10.0.18362.0\ucrt\string.h
;	COMDAT ?strstr@@YAPADQADQBD@Z
_TEXT	SEGMENT
__String$ = 8						; size = 4
__SubString$ = 12					; size = 4
?strstr@@YAPADQADQBD@Z PROC				; strstr, COMDAT

; 523  :     {

  00000	55		 push	 ebp
  00001	8b ec		 mov	 ebp, esp
  00003	83 ec 40	 sub	 esp, 64			; 00000040H
  00006	53		 push	 ebx
  00007	56		 push	 esi
  00008	57		 push	 edi

; 524  :         return const_cast<char*>(strstr(static_cast<char const*>(_String), _SubString));

  00009	8b 45 0c	 mov	 eax, DWORD PTR __SubString$[ebp]
  0000c	50		 push	 eax
  0000d	8b 4d 08	 mov	 ecx, DWORD PTR __String$[ebp]
  00010	51		 push	 ecx
  00011	e8 00 00 00 00	 call	 _strstr
  00016	83 c4 08	 add	 esp, 8

; 525  :     }

  00019	5f		 pop	 edi
  0001a	5e		 pop	 esi
  0001b	5b		 pop	 ebx
  0001c	8b e5		 mov	 esp, ebp
  0001e	5d		 pop	 ebp
  0001f	c3		 ret	 0
?strstr@@YAPADQADQBD@Z ENDP				; strstr
_TEXT	ENDS
; Function compile flags: /Odtp /ZI
; File c:\program files (x86)\windows kits\10\include\10.0.18362.0\ucrt\string.h
;	COMDAT ?strrchr@@YAPADQADH@Z
_TEXT	SEGMENT
__String$ = 8						; size = 4
__Ch$ = 12						; size = 4
?strrchr@@YAPADQADH@Z PROC				; strrchr, COMDAT

; 517  :     {

  00000	55		 push	 ebp
  00001	8b ec		 mov	 ebp, esp
  00003	83 ec 40	 sub	 esp, 64			; 00000040H
  00006	53		 push	 ebx
  00007	56		 push	 esi
  00008	57		 push	 edi

; 518  :         return const_cast<char*>(strrchr(static_cast<char const*>(_String), _Ch));

  00009	8b 45 0c	 mov	 eax, DWORD PTR __Ch$[ebp]
  0000c	50		 push	 eax
  0000d	8b 4d 08	 mov	 ecx, DWORD PTR __String$[ebp]
  00010	51		 push	 ecx
  00011	e8 00 00 00 00	 call	 _strrchr
  00016	83 c4 08	 add	 esp, 8

; 519  :     }

  00019	5f		 pop	 edi
  0001a	5e		 pop	 esi
  0001b	5b		 pop	 ebx
  0001c	8b e5		 mov	 esp, ebp
  0001e	5d		 pop	 ebp
  0001f	c3		 ret	 0
?strrchr@@YAPADQADH@Z ENDP				; strrchr
_TEXT	ENDS
; Function compile flags: /Odtp /ZI
; File c:\program files (x86)\windows kits\10\include\10.0.18362.0\ucrt\stdio.h
;	COMDAT _sprintf
_TEXT	SEGMENT
__ArgList$ = -8						; size = 4
__Result$ = -4						; size = 4
__Buffer$ = 8						; size = 4
__Format$ = 12						; size = 4
_sprintf PROC						; COMDAT

; 1781 :     {

  00000	55		 push	 ebp
  00001	8b ec		 mov	 ebp, esp
  00003	83 ec 4c	 sub	 esp, 76			; 0000004cH
  00006	53		 push	 ebx
  00007	56		 push	 esi
  00008	57		 push	 edi

; 1782 :         int _Result;
; 1783 :         va_list _ArgList;
; 1784 :         __crt_va_start(_ArgList, _Format);

  00009	8d 45 10	 lea	 eax, DWORD PTR __Format$[ebp+4]
  0000c	89 45 f8	 mov	 DWORD PTR __ArgList$[ebp], eax

; 1785 : 
; 1786 :         #pragma warning(push)
; 1787 :         #pragma warning(disable: 4996) // Deprecation
; 1788 :         _Result = _vsprintf_l(_Buffer, _Format, NULL, _ArgList);

  0000f	8b 45 f8	 mov	 eax, DWORD PTR __ArgList$[ebp]
  00012	50		 push	 eax
  00013	6a 00		 push	 0
  00015	8b 4d 0c	 mov	 ecx, DWORD PTR __Format$[ebp]
  00018	51		 push	 ecx
  00019	8b 55 08	 mov	 edx, DWORD PTR __Buffer$[ebp]
  0001c	52		 push	 edx
  0001d	e8 00 00 00 00	 call	 __vsprintf_l
  00022	83 c4 10	 add	 esp, 16			; 00000010H
  00025	89 45 fc	 mov	 DWORD PTR __Result$[ebp], eax

; 1789 :         #pragma warning(pop)
; 1790 : 
; 1791 :         __crt_va_end(_ArgList);

  00028	c7 45 f8 00 00
	00 00		 mov	 DWORD PTR __ArgList$[ebp], 0

; 1792 :         return _Result;

  0002f	8b 45 fc	 mov	 eax, DWORD PTR __Result$[ebp]

; 1793 :     }

  00032	5f		 pop	 edi
  00033	5e		 pop	 esi
  00034	5b		 pop	 ebx
  00035	8b e5		 mov	 esp, ebp
  00037	5d		 pop	 ebp
  00038	c3		 ret	 0
_sprintf ENDP
_TEXT	ENDS
; Function compile flags: /Odtp /ZI
; File c:\program files (x86)\windows kits\10\include\10.0.18362.0\ucrt\stdio.h
;	COMDAT __vsprintf_l
_TEXT	SEGMENT
__Buffer$ = 8						; size = 4
__Format$ = 12						; size = 4
__Locale$ = 16						; size = 4
__ArgList$ = 20						; size = 4
__vsprintf_l PROC					; COMDAT

; 1459 :     {

  00000	55		 push	 ebp
  00001	8b ec		 mov	 ebp, esp
  00003	83 ec 40	 sub	 esp, 64			; 00000040H
  00006	53		 push	 ebx
  00007	56		 push	 esi
  00008	57		 push	 edi

; 1460 :         #pragma warning(push)
; 1461 :         #pragma warning(disable: 4996) // Deprecation
; 1462 :         return _vsnprintf_l(_Buffer, (size_t)-1, _Format, _Locale, _ArgList);

  00009	8b 45 14	 mov	 eax, DWORD PTR __ArgList$[ebp]
  0000c	50		 push	 eax
  0000d	8b 4d 10	 mov	 ecx, DWORD PTR __Locale$[ebp]
  00010	51		 push	 ecx
  00011	8b 55 0c	 mov	 edx, DWORD PTR __Format$[ebp]
  00014	52		 push	 edx
  00015	6a ff		 push	 -1
  00017	8b 45 08	 mov	 eax, DWORD PTR __Buffer$[ebp]
  0001a	50		 push	 eax
  0001b	e8 00 00 00 00	 call	 __vsnprintf_l
  00020	83 c4 14	 add	 esp, 20			; 00000014H

; 1463 :         #pragma warning(pop)
; 1464 :     }

  00023	5f		 pop	 edi
  00024	5e		 pop	 esi
  00025	5b		 pop	 ebx
  00026	8b e5		 mov	 esp, ebp
  00028	5d		 pop	 ebp
  00029	c3		 ret	 0
__vsprintf_l ENDP
_TEXT	ENDS
; Function compile flags: /Odtp /ZI
; File c:\program files (x86)\windows kits\10\include\10.0.18362.0\ucrt\stdio.h
;	COMDAT __vsnprintf_l
_TEXT	SEGMENT
tv74 = -72						; size = 4
__Result$ = -4						; size = 4
__Buffer$ = 8						; size = 4
__BufferCount$ = 12					; size = 4
__Format$ = 16						; size = 4
__Locale$ = 20						; size = 4
__ArgList$ = 24						; size = 4
__vsnprintf_l PROC					; COMDAT

; 1389 :     {

  00000	55		 push	 ebp
  00001	8b ec		 mov	 ebp, esp
  00003	83 ec 48	 sub	 esp, 72			; 00000048H
  00006	53		 push	 ebx
  00007	56		 push	 esi
  00008	57		 push	 edi

; 1390 :         int const _Result = __stdio_common_vsprintf(

  00009	8b 45 18	 mov	 eax, DWORD PTR __ArgList$[ebp]
  0000c	50		 push	 eax
  0000d	8b 4d 14	 mov	 ecx, DWORD PTR __Locale$[ebp]
  00010	51		 push	 ecx
  00011	8b 55 10	 mov	 edx, DWORD PTR __Format$[ebp]
  00014	52		 push	 edx
  00015	8b 45 0c	 mov	 eax, DWORD PTR __BufferCount$[ebp]
  00018	50		 push	 eax
  00019	8b 4d 08	 mov	 ecx, DWORD PTR __Buffer$[ebp]
  0001c	51		 push	 ecx
  0001d	e8 00 00 00 00	 call	 ___local_stdio_printf_options
  00022	8b 10		 mov	 edx, DWORD PTR [eax]
  00024	83 ca 01	 or	 edx, 1
  00027	8b 40 04	 mov	 eax, DWORD PTR [eax+4]
  0002a	50		 push	 eax
  0002b	52		 push	 edx
  0002c	ff 15 00 00 00
	00		 call	 DWORD PTR __imp____stdio_common_vsprintf
  00032	83 c4 1c	 add	 esp, 28			; 0000001cH
  00035	89 45 fc	 mov	 DWORD PTR __Result$[ebp], eax

; 1391 :             _CRT_INTERNAL_LOCAL_PRINTF_OPTIONS | _CRT_INTERNAL_PRINTF_LEGACY_VSPRINTF_NULL_TERMINATION,
; 1392 :             _Buffer, _BufferCount, _Format, _Locale, _ArgList);
; 1393 : 
; 1394 :         return _Result < 0 ? -1 : _Result;

  00038	83 7d fc 00	 cmp	 DWORD PTR __Result$[ebp], 0
  0003c	7d 09		 jge	 SHORT $LN3@vsnprintf_
  0003e	c7 45 b8 ff ff
	ff ff		 mov	 DWORD PTR tv74[ebp], -1
  00045	eb 06		 jmp	 SHORT $LN4@vsnprintf_
$LN3@vsnprintf_:
  00047	8b 45 fc	 mov	 eax, DWORD PTR __Result$[ebp]
  0004a	89 45 b8	 mov	 DWORD PTR tv74[ebp], eax
$LN4@vsnprintf_:
  0004d	8b 45 b8	 mov	 eax, DWORD PTR tv74[ebp]

; 1395 :     }

  00050	5f		 pop	 edi
  00051	5e		 pop	 esi
  00052	5b		 pop	 ebx
  00053	8b e5		 mov	 esp, ebp
  00055	5d		 pop	 ebp
  00056	c3		 ret	 0
__vsnprintf_l ENDP
_TEXT	ENDS
; Function compile flags: /Odtp /ZI
; File c:\program files (x86)\windows kits\10\include\10.0.18362.0\ucrt\corecrt_stdio_config.h
;	COMDAT ___local_stdio_printf_options
_TEXT	SEGMENT
___local_stdio_printf_options PROC			; COMDAT

; 86   :     {

  00000	55		 push	 ebp
  00001	8b ec		 mov	 ebp, esp
  00003	83 ec 40	 sub	 esp, 64			; 00000040H
  00006	53		 push	 ebx
  00007	56		 push	 esi
  00008	57		 push	 edi

; 87   :         static unsigned __int64 _OptionsStorage;
; 88   :         return &_OptionsStorage;

  00009	b8 00 00 00 00	 mov	 eax, OFFSET ?_OptionsStorage@?1??__local_stdio_printf_options@@9@4_KA ; `__local_stdio_printf_options'::`2'::_OptionsStorage

; 89   :     }

  0000e	5f		 pop	 edi
  0000f	5e		 pop	 esi
  00010	5b		 pop	 ebx
  00011	8b e5		 mov	 esp, ebp
  00013	5d		 pop	 ebp
  00014	c3		 ret	 0
___local_stdio_printf_options ENDP
_TEXT	ENDS
END
