; Listing generated by Microsoft (R) Optimizing Compiler Version 19.16.27045.0 

	TITLE	C:\Users\nhv90\Projects\eech\aphavoc\source\ui_menu\session\uisess_fn.c
	.686P
	.XMM
	include listing.inc
	.model	flat

INCLUDELIB MSVCRTD
INCLUDELIB OLDNAMES

PUBLIC	?campaign_selection@@3HA			; campaign_selection
_BSS	SEGMENT
?campaign_selection@@3HA DD 01H DUP (?)			; campaign_selection
_BSS	ENDS
PUBLIC	___local_stdio_printf_options
PUBLIC	__vsnprintf_l
PUBLIC	__vsprintf_l
PUBLIC	_sprintf
PUBLIC	?strrchr@@YAPADQADH@Z				; strrchr
PUBLIC	?notify_session_screen@@YGXPAUUI_OBJECT@@PAX@Z	; notify_session_screen
PUBLIC	?notify_session_next_button@@YGXPAUUI_OBJECT@@PAX@Z ; notify_session_next_button
PUBLIC	?notify_session_continue_button@@YGXPAUUI_OBJECT@@PAX@Z ; notify_session_continue_button
PUBLIC	?notify_session_back_button@@YGXPAUUI_OBJECT@@PAX@Z ; notify_session_back_button
PUBLIC	?session_list_function@@YGXPAUUI_OBJECT@@PAX@Z	; session_list_function
PUBLIC	?session_update_session_list@@YGXXZ		; session_update_session_list
PUBLIC	?session_list_rescan_function@@YGXPAUUI_OBJECT@@PAX@Z ; session_list_rescan_function
PUBLIC	?session_name_input_function@@YGXPAUUI_OBJECT@@PAX@Z ; session_name_input_function
PUBLIC	?notify_session_rename_button@@YGXPAUUI_OBJECT@@PAX@Z ; notify_session_rename_button
PUBLIC	?notify_session_delete_button@@YGXPAUUI_OBJECT@@PAX@Z ; notify_session_delete_button
PUBLIC	?notify_session_apache_briefing_button@@YGXPAUUI_OBJECT@@PAX@Z ; notify_session_apache_briefing_button
PUBLIC	?notify_session_havoc_briefing_button@@YGXPAUUI_OBJECT@@PAX@Z ; notify_session_havoc_briefing_button
PUBLIC	?_OptionsStorage@?1??__local_stdio_printf_options@@9@4_KA ; `__local_stdio_printf_options'::`2'::_OptionsStorage
PUBLIC	??_C@_02DKCKIIND@?$CFs@				; `string'
PUBLIC	??_C@_0BP@LILAKEF@graphics?2ui?2cohokum?2combat?4psd@ ; `string'
PUBLIC	??_C@_0BA@GEAIGGEE@session?5invalid@		; `string'
PUBLIC	??_C@_0BP@CBMNLOOE@JOININET?3?5Setting?5ip?5to?5?$CFs?5?4?4?4@ ; `string'
PUBLIC	??_C@_04NBFCGMPH@root@				; `string'
PUBLIC	??_C@_0DG@IOFKECEF@ERROR?3?5session_list_function?0?5u@ ; `string'
PUBLIC	??_C@_0CC@EBOHEHIN@SESS_FN?3?5session?5on?5longer?5exis@ ; `string'
PUBLIC	??_C@_08PMJNNAEG@No?5Games@			; `string'
PUBLIC	?__LINE__Var@?0??rename_session@@YGXXZ@4JA	; `rename_session'::`1'::__LINE__Var
PUBLIC	??_C@_0EI@BKHPHDDD@c?3?2users?2nhv90?2projects?2eech?2ap@ ; `string'
PUBLIC	??_C@_09OHOKCDH@list_item@			; `string'
PUBLIC	??_C@_08EFGGCJLD@?$CFs?2?$CFs?2?$CFs@		; `string'
PUBLIC	??_C@_01LFCBOECM@?4@				; `string'
PUBLIC	??_C@_03PLHFFLIH@ptr@				; `string'
PUBLIC	?__LINE__Var@?0??notify_session_rename_button@@YGXPAUUI_OBJECT@@PAX@Z@4JA ; `notify_session_rename_button'::`1'::__LINE__Var
PUBLIC	?__LINE__Var@?0??notify_session_delete_button@@YGXPAUUI_OBJECT@@PAX@Z@4JA ; `notify_session_delete_button'::`1'::__LINE__Var
PUBLIC	??_C@_0BB@KANMHKPO@Deleting?5game?5?$CFs@	; `string'
PUBLIC	??_C@_0BC@BLHIEPIG@Deleting?5game2?5?$CFs@	; `string'
PUBLIC	__real@be4ccccd
EXTRN	__imp__rename:PROC
EXTRN	__imp___unlink:PROC
EXTRN	__imp____stdio_common_vsprintf:PROC
EXTRN	_strrchr:PROC
EXTRN	_strcat:PROC
EXTRN	_strcmp:PROC
EXTRN	_strcpy:PROC
EXTRN	_strlen:PROC
EXTRN	__imp__strncmp:PROC
EXTRN	__imp__strncpy:PROC
EXTRN	?process_assert@@YGXPBD0H@Z:PROC		; process_assert
EXTRN	?debug_fatal@@YAXPBDZZ:PROC			; debug_fatal
EXTRN	?debug_log@@YAXPBDZZ:PROC			; debug_log
EXTRN	?set_mouse_graphic_on@@YGXXZ:PROC		; set_mouse_graphic_on
EXTRN	?set_mouse_graphic_off@@YGXXZ:PROC		; set_mouse_graphic_off
EXTRN	?set_delta_time@@YGXXZ:PROC			; set_delta_time
EXTRN	?get_system_time@@YGIXZ:PROC			; get_system_time
EXTRN	?file_exist@@YGHPBD@Z:PROC			; file_exist
EXTRN	?malloc_fast_memory@@YGPAXI@Z:PROC		; malloc_fast_memory
EXTRN	?free_mem@@YGXPAX@Z:PROC			; free_mem
EXTRN	?set_random_number_seed@@YGXH@Z:PROC		; set_random_number_seed
EXTRN	?blit_front_buffer_to_render_buffer@@YGXXZ:PROC	; blit_front_buffer_to_render_buffer
EXTRN	?update_mouse_pointer@@YGXXZ:PROC		; update_mouse_pointer
EXTRN	?create_texture_graphic@@YGPAUTEXTURE_GRAPHIC@@PBD@Z:PROC ; create_texture_graphic
EXTRN	?destroy_texture_graphic@@YGXPAUTEXTURE_GRAPHIC@@@Z:PROC ; destroy_texture_graphic
EXTRN	?set_direct_play_inet_address@@YGXPBD@Z:PROC	; set_direct_play_inet_address
EXTRN	?ui_set_user_function@@YGXP6GXXZ@Z:PROC		; ui_set_user_function
EXTRN	?reset_time_values@@YGXPAUUI_OBJECT@@@Z:PROC	; reset_time_values
EXTRN	?push_ui_screen@@YGXPAUUI_OBJECT@@@Z:PROC	; push_ui_screen
EXTRN	?pop_ui_screen@@YGXW4SCREEN_POP_TYPES@@@Z:PROC	; pop_ui_screen
EXTRN	?ui_object_destroy_list_items@@YGXPAUUI_OBJECT@@@Z:PROC ; ui_object_destroy_list_items
EXTRN	?add_to_pop_up_list@@YGPAUUI_OBJECT@@PBDPAU1@1HHUREAL_COLOUR@@@Z:PROC ; add_to_pop_up_list
EXTRN	?get_ui_object_vslider@@YGPAUUI_OBJECT@@PAU1@@Z:PROC ; get_ui_object_vslider
EXTRN	?set_ui_object_vslider_virtual_position@@YGXPAUUI_OBJECT@@M@Z:PROC ; set_ui_object_vslider_virtual_position
EXTRN	?save_global_options_data@@YGXXZ:PROC		; save_global_options_data
EXTRN	?set_comms_model@@YGXW4COMMS_MODEL_TYPES@@@Z:PROC ; set_comms_model
EXTRN	?send_packet@@YGXKW4PACKET_TYPES@@PAEHW4SEND_TYPES@@@Z:PROC ; send_packet
EXTRN	?data_exchange@@YGXXZ:PROC			; data_exchange
EXTRN	?update_ui_comms@@YGXXZ:PROC			; update_ui_comms
EXTRN	?open_pack_buffer@@YGXPAEH@Z:PROC		; open_pack_buffer
EXTRN	?process_game_initialisation_phases@@YGXXZ:PROC	; process_game_initialisation_phases
EXTRN	?get_trans@@YGPBDPBD@Z:PROC			; get_trans
EXTRN	?set_ui_list_spacing_proportional_to_font@@YGXPAUUI_OBJECT@@M@Z:PROC ; set_ui_list_spacing_proportional_to_font
EXTRN	?game_type_hilight_selection@@YGXPAUUI_OBJECT@@@Z:PROC ; game_type_hilight_selection
EXTRN	?leave_mission@@YGXXZ:PROC			; leave_mission
EXTRN	?initialise_session_list@@YGXXZ:PROC		; initialise_session_list
EXTRN	?destroy_session_list@@YGXPAPAUSESSION_LIST_DATA_TYPE@@@Z:PROC ; destroy_session_list
EXTRN	?compile_single_session_list@@YGXPAPAUSESSION_LIST_DATA_TYPE@@@Z:PROC ; compile_single_session_list
EXTRN	?compile_multi_session_list@@YGXPAPAUSESSION_LIST_DATA_TYPE@@@Z:PROC ; compile_multi_session_list
EXTRN	?compile_restore_session_list@@YGXPAPAUSESSION_LIST_DATA_TYPE@@@Z:PROC ; compile_restore_session_list
EXTRN	?get_session_list@@YGPAUSESSION_LIST_DATA_TYPE@@XZ:PROC ; get_session_list
EXTRN	?set_current_game_session@@YGXPAUSESSION_LIST_DATA_TYPE@@@Z:PROC ; set_current_game_session
EXTRN	?set_briefing_side@@YGXH@Z:PROC			; set_briefing_side
EXTRN	?notify_clear_all_session_parameters@@YGXXZ:PROC ; notify_clear_all_session_parameters
EXTRN	?parse_filename@@YGXPADH@Z:PROC			; parse_filename
EXTRN	?set_ui_frontend_list_object_highlightable@@YGXPAUUI_OBJECT@@@Z:PROC ; set_ui_frontend_list_object_highlightable
EXTRN	?fn_set_ui_object_virtual_x@@3PAP6GXPAUUI_OBJECT@@M@ZA:BYTE ; fn_set_ui_object_virtual_x
EXTRN	?fn_get_ui_object_virtual_x@@3PAP6GMPAUUI_OBJECT@@@ZA:BYTE ; fn_get_ui_object_virtual_x
EXTRN	?fn_set_ui_object_virtual_y@@3PAP6GXPAUUI_OBJECT@@M@ZA:BYTE ; fn_set_ui_object_virtual_y
EXTRN	?fn_get_ui_object_virtual_y@@3PAP6GMPAUUI_OBJECT@@@ZA:BYTE ; fn_get_ui_object_virtual_y
EXTRN	?fn_set_ui_object_state@@3PAP6GXPAUUI_OBJECT@@H@ZA:BYTE ; fn_set_ui_object_state
EXTRN	?fn_get_ui_object_state@@3PAP6GHPAUUI_OBJECT@@@ZA:BYTE ; fn_get_ui_object_state
EXTRN	?fn_set_ui_object_drawable@@3PAP6GXPAUUI_OBJECT@@H@ZA:BYTE ; fn_set_ui_object_drawable
EXTRN	?fn_get_ui_object_drawable@@3PAP6GHPAUUI_OBJECT@@@ZA:BYTE ; fn_get_ui_object_drawable
EXTRN	?fn_set_ui_object_redraw@@3PAP6GXPAUUI_OBJECT@@H@ZA:BYTE ; fn_set_ui_object_redraw
EXTRN	?fn_set_ui_object_item_number@@3PAP6GXPAUUI_OBJECT@@H@ZA:BYTE ; fn_set_ui_object_item_number
EXTRN	?fn_get_ui_object_item_number@@3PAP6GHPAUUI_OBJECT@@@ZA:BYTE ; fn_get_ui_object_item_number
EXTRN	?fn_get_ui_object_child@@3PAP6GPAUUI_OBJECT@@PAU1@@ZA:BYTE ; fn_get_ui_object_child
EXTRN	?fn_get_ui_object_next@@3PAP6GPAUUI_OBJECT@@PAU1@@ZA:BYTE ; fn_get_ui_object_next
EXTRN	?fn_set_ui_object_text@@3PAP6GXPAUUI_OBJECT@@PBD@ZA:BYTE ; fn_set_ui_object_text
EXTRN	?fn_get_ui_object_text@@3PAP6GPBDPAUUI_OBJECT@@@ZA:BYTE ; fn_get_ui_object_text
EXTRN	?fn_set_ui_object_graphic@@3PAP6GXPAUUI_OBJECT@@PAG@ZA:BYTE ; fn_set_ui_object_graphic
EXTRN	?fn_set_ui_object_texture_graphic@@3PAP6GXPAUUI_OBJECT@@PAUTEXTURE_GRAPHIC@@@ZA:BYTE ; fn_set_ui_object_texture_graphic
EXTRN	?fn_set_ui_object_graphic_type@@3PAP6GXPAUUI_OBJECT@@H@ZA:BYTE ; fn_set_ui_object_graphic_type
EXTRN	?ui_colour_red@@3UREAL_COLOUR@@A:DWORD		; ui_colour_red
EXTRN	?ui_list_text_default_colour@@3UREAL_COLOUR@@A:DWORD ; ui_list_text_default_colour
EXTRN	?command_line_comms_pack_buffer_size@@3HA:DWORD	; command_line_comms_pack_buffer_size
EXTRN	?graphics_files@@3PAUFILE_DATA@@A:BYTE		; graphics_files
EXTRN	?global_options@@3UGLOBAL_OPTIONS_DATA@@A:BYTE	; global_options
EXTRN	?system_comms_model@@3W4COMMS_MODEL_TYPES@@A:DWORD ; system_comms_model
EXTRN	?system_server_id@@3KA:DWORD			; system_server_id
EXTRN	?tx_pack_buffer@@3PAEA:DWORD			; tx_pack_buffer
EXTRN	?num_multiplayer_refreshes@@3HA:DWORD		; num_multiplayer_refreshes
EXTRN	?current_pack_buffer@@3PAUPACK_BUFFER@@A:DWORD	; current_pack_buffer
EXTRN	?game_initialisation_phase@@3W4GAME_INITIALISATION_PHASES@@A:DWORD ; game_initialisation_phase
EXTRN	?game_type@@3W4GAME_TYPES@@A:DWORD		; game_type
EXTRN	?game_type_extensions@@3PAPBDA:BYTE		; game_type_extensions
EXTRN	?session_screen_delete_button@@3PAUUI_OBJECT@@A:DWORD ; session_screen_delete_button
EXTRN	?session_screen_rename_button@@3PAUUI_OBJECT@@A:DWORD ; session_screen_rename_button
EXTRN	?session_info_list@@3PAUUI_OBJECT@@A:DWORD	; session_info_list
EXTRN	?session_list_area@@3PAUUI_OBJECT@@A:DWORD	; session_list_area
EXTRN	?session_list@@3PAUUI_OBJECT@@A:DWORD		; session_list
EXTRN	?session_name_entry_area@@3PAUUI_OBJECT@@A:DWORD ; session_name_entry_area
EXTRN	?session_name_input@@3PAUUI_OBJECT@@A:DWORD	; session_name_input
EXTRN	?session_screen@@3PAUUI_OBJECT@@A:DWORD		; session_screen
EXTRN	?session_screen_graphic@@3PAUTEXTURE_GRAPHIC@@A:DWORD ; session_screen_graphic
EXTRN	?session_filter@@3PAW4SESSION_LIST_TYPES@@A:BYTE ; session_filter
EXTRN	?current_game_session@@3PAUSESSION_LIST_DATA_TYPE@@A:DWORD ; current_game_session
EXTRN	?session_child_head@@3PAUSESSION_LIST_DATA_TYPE@@A:DWORD ; session_child_head
EXTRN	?session_list_head@@3PAUSESSION_LIST_DATA_TYPE@@A:DWORD ; session_list_head
EXTRN	?gunships_screen@@3PAUUI_OBJECT@@A:DWORD	; gunships_screen
EXTRN	?combat_zone_screen@@3PAUUI_OBJECT@@A:DWORD	; combat_zone_screen
EXTRN	?loading_screen@@3PAUUI_OBJECT@@A:DWORD		; loading_screen
EXTRN	?session_filter_value@@3PADA:BYTE		; session_filter_value
EXTRN	__fltused:DWORD
;	COMDAT ?_OptionsStorage@?1??__local_stdio_printf_options@@9@4_KA
_BSS	SEGMENT
?_OptionsStorage@?1??__local_stdio_printf_options@@9@4_KA DQ 01H DUP (?) ; `__local_stdio_printf_options'::`2'::_OptionsStorage
_BSS	ENDS
_BSS	SEGMENT
?update_ticks@?1??session_update_session_list@@YGXXZ@4IA DD 01H DUP (?) ; `session_update_session_list'::`2'::update_ticks
_BSS	ENDS
;	COMDAT __real@be4ccccd
CONST	SEGMENT
__real@be4ccccd DD 0be4ccccdr			; -0.2
CONST	ENDS
;	COMDAT ??_C@_0BC@BLHIEPIG@Deleting?5game2?5?$CFs@
CONST	SEGMENT
??_C@_0BC@BLHIEPIG@Deleting?5game2?5?$CFs@ DB 'Deleting game2 %s', 00H ; `string'
CONST	ENDS
;	COMDAT ??_C@_0BB@KANMHKPO@Deleting?5game?5?$CFs@
CONST	SEGMENT
??_C@_0BB@KANMHKPO@Deleting?5game?5?$CFs@ DB 'Deleting game %s', 00H ; `string'
CONST	ENDS
;	COMDAT ?__LINE__Var@?0??notify_session_delete_button@@YGXPAUUI_OBJECT@@PAX@Z@4JA
_DATA	SEGMENT
?__LINE__Var@?0??notify_session_delete_button@@YGXPAUUI_OBJECT@@PAX@Z@4JA DD 0474H ; `notify_session_delete_button'::`1'::__LINE__Var
_DATA	ENDS
;	COMDAT ?__LINE__Var@?0??notify_session_rename_button@@YGXPAUUI_OBJECT@@PAX@Z@4JA
_DATA	SEGMENT
?__LINE__Var@?0??notify_session_rename_button@@YGXPAUUI_OBJECT@@PAX@Z@4JA DD 043cH ; `notify_session_rename_button'::`1'::__LINE__Var
_DATA	ENDS
;	COMDAT ??_C@_03PLHFFLIH@ptr@
CONST	SEGMENT
??_C@_03PLHFFLIH@ptr@ DB 'ptr', 00H			; `string'
CONST	ENDS
;	COMDAT ??_C@_01LFCBOECM@?4@
CONST	SEGMENT
??_C@_01LFCBOECM@?4@ DB '.', 00H			; `string'
CONST	ENDS
;	COMDAT ??_C@_08EFGGCJLD@?$CFs?2?$CFs?2?$CFs@
CONST	SEGMENT
??_C@_08EFGGCJLD@?$CFs?2?$CFs?2?$CFs@ DB '%s\%s\%s', 00H ; `string'
CONST	ENDS
;	COMDAT ??_C@_09OHOKCDH@list_item@
CONST	SEGMENT
??_C@_09OHOKCDH@list_item@ DB 'list_item', 00H		; `string'
CONST	ENDS
;	COMDAT ??_C@_0EI@BKHPHDDD@c?3?2users?2nhv90?2projects?2eech?2ap@
CONST	SEGMENT
??_C@_0EI@BKHPHDDD@c?3?2users?2nhv90?2projects?2eech?2ap@ DB 'c:\users\nh'
	DB	'v90\projects\eech\aphavoc\source\ui_menu\session\uisess_fn.c', 00H ; `string'
CONST	ENDS
;	COMDAT ?__LINE__Var@?0??rename_session@@YGXXZ@4JA
_DATA	SEGMENT
?__LINE__Var@?0??rename_session@@YGXXZ@4JA DD 03bcH	; `rename_session'::`1'::__LINE__Var
_DATA	ENDS
;	COMDAT ??_C@_08PMJNNAEG@No?5Games@
CONST	SEGMENT
??_C@_08PMJNNAEG@No?5Games@ DB 'No Games', 00H		; `string'
CONST	ENDS
;	COMDAT ??_C@_0CC@EBOHEHIN@SESS_FN?3?5session?5on?5longer?5exis@
CONST	SEGMENT
??_C@_0CC@EBOHEHIN@SESS_FN?3?5session?5on?5longer?5exis@ DB 'SESS_FN: ses'
	DB	'sion on longer exists', 00H			; `string'
CONST	ENDS
;	COMDAT ??_C@_0DG@IOFKECEF@ERROR?3?5session_list_function?0?5u@
CONST	SEGMENT
??_C@_0DG@IOFKECEF@ERROR?3?5session_list_function?0?5u@ DB 'ERROR: sessio'
	DB	'n_list_function, unknown session_type %d', 00H ; `string'
CONST	ENDS
;	COMDAT ??_C@_04NBFCGMPH@root@
CONST	SEGMENT
??_C@_04NBFCGMPH@root@ DB 'root', 00H			; `string'
CONST	ENDS
;	COMDAT ??_C@_0BP@CBMNLOOE@JOININET?3?5Setting?5ip?5to?5?$CFs?5?4?4?4@
CONST	SEGMENT
??_C@_0BP@CBMNLOOE@JOININET?3?5Setting?5ip?5to?5?$CFs?5?4?4?4@ DB 'JOININ'
	DB	'ET: Setting ip to %s ...', 00H		; `string'
CONST	ENDS
;	COMDAT ??_C@_0BA@GEAIGGEE@session?5invalid@
CONST	SEGMENT
??_C@_0BA@GEAIGGEE@session?5invalid@ DB 'session invalid', 00H ; `string'
CONST	ENDS
;	COMDAT ??_C@_0BP@LILAKEF@graphics?2ui?2cohokum?2combat?4psd@
CONST	SEGMENT
??_C@_0BP@LILAKEF@graphics?2ui?2cohokum?2combat?4psd@ DB 'graphics\ui\coh'
	DB	'okum\combat.psd', 00H			; `string'
CONST	ENDS
;	COMDAT ??_C@_02DKCKIIND@?$CFs@
CONST	SEGMENT
??_C@_02DKCKIIND@?$CFs@ DB '%s', 00H			; `string'
CONST	ENDS
; Function compile flags: /Odtp /ZI
; File c:\users\nhv90\projects\eech\aphavoc\source\ui_menu\session\uisess_fn.c
;	COMDAT ?rename_session@@YGXXZ
_TEXT	SEGMENT
_session$ = -3084					; size = 4
_list_item$ = -3080					; size = 4
_new_name$ = -3076					; size = 1024
_filename$ = -2052					; size = 1024
_old_name$ = -1028					; size = 1024
_ptr$ = -4						; size = 4
?rename_session@@YGXXZ PROC				; rename_session, COMDAT

; 956  : {

  00000	55		 push	 ebp
  00001	8b ec		 mov	 ebp, esp
  00003	81 ec cc 0d 00
	00		 sub	 esp, 3532		; 00000dccH
  00009	53		 push	 ebx
  0000a	56		 push	 esi
  0000b	57		 push	 edi

; 957  : 	char
; 958  : 		*ptr,
; 959  : 		old_name [1024],
; 960  : 		filename [1024],
; 961  : 		new_name [1024];
; 962  : 
; 963  : 	ui_object
; 964  : 		*list_item;
; 965  : 
; 966  : 	session_list_data_type
; 967  : 		*session;
; 968  : 
; 969  : 	session = get_current_game_session ();

  0000c	a1 00 00 00 00	 mov	 eax, DWORD PTR ?current_game_session@@3PAUSESSION_LIST_DATA_TYPE@@A ; current_game_session
  00011	89 85 f4 f3 ff
	ff		 mov	 DWORD PTR _session$[ebp], eax

; 970  : 
; 971  : 	list_item = get_ui_object_child (session_list);

  00017	a1 00 00 00 00	 mov	 eax, DWORD PTR ?session_list@@3PAUUI_OBJECT@@A ; session_list
  0001c	50		 push	 eax
  0001d	8b 0d 00 00 00
	00		 mov	 ecx, DWORD PTR ?session_list@@3PAUUI_OBJECT@@A ; session_list
  00023	8b 11		 mov	 edx, DWORD PTR [ecx]
  00025	8b 04 95 00 00
	00 00		 mov	 eax, DWORD PTR ?fn_get_ui_object_child@@3PAP6GPAUUI_OBJECT@@PAU1@@ZA[edx*4]
  0002c	ff d0		 call	 eax
  0002e	89 85 f8 f3 ff
	ff		 mov	 DWORD PTR _list_item$[ebp], eax
$LN2@rename_ses:

; 972  : 
; 973  : 	while ((list_item) && (get_ui_object_state (list_item) != UI_OBJECT_STATE_ON))

  00034	83 bd f8 f3 ff
	ff 00		 cmp	 DWORD PTR _list_item$[ebp], 0
  0003b	74 3d		 je	 SHORT $LN3@rename_ses
  0003d	8b 85 f8 f3 ff
	ff		 mov	 eax, DWORD PTR _list_item$[ebp]
  00043	50		 push	 eax
  00044	8b 8d f8 f3 ff
	ff		 mov	 ecx, DWORD PTR _list_item$[ebp]
  0004a	8b 11		 mov	 edx, DWORD PTR [ecx]
  0004c	8b 04 95 00 00
	00 00		 mov	 eax, DWORD PTR ?fn_get_ui_object_state@@3PAP6GHPAUUI_OBJECT@@@ZA[edx*4]
  00053	ff d0		 call	 eax
  00055	83 f8 01	 cmp	 eax, 1
  00058	74 20		 je	 SHORT $LN3@rename_ses

; 974  : 	{
; 975  : 		list_item = get_ui_object_next (list_item);

  0005a	8b 85 f8 f3 ff
	ff		 mov	 eax, DWORD PTR _list_item$[ebp]
  00060	50		 push	 eax
  00061	8b 8d f8 f3 ff
	ff		 mov	 ecx, DWORD PTR _list_item$[ebp]
  00067	8b 11		 mov	 edx, DWORD PTR [ecx]
  00069	8b 04 95 00 00
	00 00		 mov	 eax, DWORD PTR ?fn_get_ui_object_next@@3PAP6GPAUUI_OBJECT@@PAU1@@ZA[edx*4]
  00070	ff d0		 call	 eax
  00072	89 85 f8 f3 ff
	ff		 mov	 DWORD PTR _list_item$[ebp], eax

; 976  : 	}

  00078	eb ba		 jmp	 SHORT $LN2@rename_ses
$LN3@rename_ses:

; 977  : 
; 978  : 	ASSERT (list_item);

  0007a	83 bd f8 f3 ff
	ff 00		 cmp	 DWORD PTR _list_item$[ebp], 0
  00081	75 18		 jne	 SHORT $LN4@rename_ses
  00083	a1 00 00 00 00	 mov	 eax, DWORD PTR ?__LINE__Var@?0??rename_session@@YGXXZ@4JA
  00088	83 c0 16	 add	 eax, 22			; 00000016H
  0008b	50		 push	 eax
  0008c	68 00 00 00 00	 push	 OFFSET ??_C@_0EI@BKHPHDDD@c?3?2users?2nhv90?2projects?2eech?2ap@
  00091	68 00 00 00 00	 push	 OFFSET ??_C@_09OHOKCDH@list_item@
  00096	e8 00 00 00 00	 call	 ?process_assert@@YGXPBD0H@Z ; process_assert
$LN4@rename_ses:

; 979  : 
; 980  : 	//
; 981  : 	// rename the 'sav' file
; 982  : 	//
; 983  : 
; 984  : 	sprintf (filename, "%s\\%s\\%s", session->data_path, session->campaign_directory, session->campaign_filename);

  0009b	8b 85 f4 f3 ff
	ff		 mov	 eax, DWORD PTR _session$[ebp]
  000a1	05 5c 01 00 00	 add	 eax, 348		; 0000015cH
  000a6	50		 push	 eax
  000a7	8b 8d f4 f3 ff
	ff		 mov	 ecx, DWORD PTR _session$[ebp]
  000ad	81 c1 1c 01 00
	00		 add	 ecx, 284		; 0000011cH
  000b3	51		 push	 ecx
  000b4	8b 95 f4 f3 ff
	ff		 mov	 edx, DWORD PTR _session$[ebp]
  000ba	83 c2 1c	 add	 edx, 28			; 0000001cH
  000bd	52		 push	 edx
  000be	68 00 00 00 00	 push	 OFFSET ??_C@_08EFGGCJLD@?$CFs?2?$CFs?2?$CFs@
  000c3	8d 85 fc f7 ff
	ff		 lea	 eax, DWORD PTR _filename$[ebp]
  000c9	50		 push	 eax
  000ca	e8 00 00 00 00	 call	 _sprintf
  000cf	83 c4 14	 add	 esp, 20			; 00000014H

; 985  : 
; 986  : 	strcpy (old_name, filename);

  000d2	8d 85 fc f7 ff
	ff		 lea	 eax, DWORD PTR _filename$[ebp]
  000d8	50		 push	 eax
  000d9	8d 8d fc fb ff
	ff		 lea	 ecx, DWORD PTR _old_name$[ebp]
  000df	51		 push	 ecx
  000e0	e8 00 00 00 00	 call	 _strcpy
  000e5	83 c4 08	 add	 esp, 8

; 987  : 
; 988  : 	strcpy (new_name, get_ui_object_text (list_item));

  000e8	8b 85 f8 f3 ff
	ff		 mov	 eax, DWORD PTR _list_item$[ebp]
  000ee	50		 push	 eax
  000ef	8b 8d f8 f3 ff
	ff		 mov	 ecx, DWORD PTR _list_item$[ebp]
  000f5	8b 11		 mov	 edx, DWORD PTR [ecx]
  000f7	8b 04 95 00 00
	00 00		 mov	 eax, DWORD PTR ?fn_get_ui_object_text@@3PAP6GPBDPAUUI_OBJECT@@@ZA[edx*4]
  000fe	ff d0		 call	 eax
  00100	50		 push	 eax
  00101	8d 8d fc f3 ff
	ff		 lea	 ecx, DWORD PTR _new_name$[ebp]
  00107	51		 push	 ecx
  00108	e8 00 00 00 00	 call	 _strcpy
  0010d	83 c4 08	 add	 esp, 8

; 989  : 
; 990  : 	strcat (new_name, ".");

  00110	68 00 00 00 00	 push	 OFFSET ??_C@_01LFCBOECM@?4@
  00115	8d 85 fc f3 ff
	ff		 lea	 eax, DWORD PTR _new_name$[ebp]
  0011b	50		 push	 eax
  0011c	e8 00 00 00 00	 call	 _strcat
  00121	83 c4 08	 add	 esp, 8

; 991  : 
; 992  : 	strcat (new_name, game_type_extensions [get_game_type ()]);

  00124	a1 00 00 00 00	 mov	 eax, DWORD PTR ?game_type@@3W4GAME_TYPES@@A ; game_type
  00129	8b 0c 85 00 00
	00 00		 mov	 ecx, DWORD PTR ?game_type_extensions@@3PAPBDA[eax*4]
  00130	51		 push	 ecx
  00131	8d 95 fc f3 ff
	ff		 lea	 edx, DWORD PTR _new_name$[ebp]
  00137	52		 push	 edx
  00138	e8 00 00 00 00	 call	 _strcat
  0013d	83 c4 08	 add	 esp, 8

; 993  : 
; 994  : 	strcpy (session->campaign_filename, new_name);

  00140	8d 85 fc f3 ff
	ff		 lea	 eax, DWORD PTR _new_name$[ebp]
  00146	50		 push	 eax
  00147	8b 8d f4 f3 ff
	ff		 mov	 ecx, DWORD PTR _session$[ebp]
  0014d	81 c1 5c 01 00
	00		 add	 ecx, 348		; 0000015cH
  00153	51		 push	 ecx
  00154	e8 00 00 00 00	 call	 _strcpy
  00159	83 c4 08	 add	 esp, 8

; 995  : 
; 996  : 	sprintf (new_name, "%s\\%s\\%s", session->data_path, session->campaign_directory, session->campaign_filename);

  0015c	8b 85 f4 f3 ff
	ff		 mov	 eax, DWORD PTR _session$[ebp]
  00162	05 5c 01 00 00	 add	 eax, 348		; 0000015cH
  00167	50		 push	 eax
  00168	8b 8d f4 f3 ff
	ff		 mov	 ecx, DWORD PTR _session$[ebp]
  0016e	81 c1 1c 01 00
	00		 add	 ecx, 284		; 0000011cH
  00174	51		 push	 ecx
  00175	8b 95 f4 f3 ff
	ff		 mov	 edx, DWORD PTR _session$[ebp]
  0017b	83 c2 1c	 add	 edx, 28			; 0000001cH
  0017e	52		 push	 edx
  0017f	68 00 00 00 00	 push	 OFFSET ??_C@_08EFGGCJLD@?$CFs?2?$CFs?2?$CFs@
  00184	8d 85 fc f3 ff
	ff		 lea	 eax, DWORD PTR _new_name$[ebp]
  0018a	50		 push	 eax
  0018b	e8 00 00 00 00	 call	 _sprintf
  00190	83 c4 14	 add	 esp, 20			; 00000014H

; 997  : 
; 998  : 	#if DEBUG_MODULE
; 999  : 
; 1000 : 	debug_log ( "Renaming game %s to %s", filename, new_name);
; 1001 : 
; 1002 : 	#endif
; 1003 : 
; 1004 : 	rename (filename, new_name);

  00193	8d 85 fc f3 ff
	ff		 lea	 eax, DWORD PTR _new_name$[ebp]
  00199	50		 push	 eax
  0019a	8d 8d fc f7 ff
	ff		 lea	 ecx, DWORD PTR _filename$[ebp]
  001a0	51		 push	 ecx
  001a1	ff 15 00 00 00
	00		 call	 DWORD PTR __imp__rename
  001a7	83 c4 08	 add	 esp, 8

; 1005 : 
; 1006 : 	// find last occurance of '.' in the old filename
; 1007 : 	ptr = strrchr (old_name, '.');

  001aa	6a 2e		 push	 46			; 0000002eH
  001ac	8d 85 fc fb ff
	ff		 lea	 eax, DWORD PTR _old_name$[ebp]
  001b2	50		 push	 eax
  001b3	e8 00 00 00 00	 call	 ?strrchr@@YAPADQADH@Z	; strrchr
  001b8	83 c4 08	 add	 esp, 8
  001bb	89 45 fc	 mov	 DWORD PTR _ptr$[ebp], eax

; 1008 : 
; 1009 : 	ASSERT (ptr);

  001be	83 7d fc 00	 cmp	 DWORD PTR _ptr$[ebp], 0
  001c2	75 18		 jne	 SHORT $LN5@rename_ses
  001c4	a1 00 00 00 00	 mov	 eax, DWORD PTR ?__LINE__Var@?0??rename_session@@YGXXZ@4JA
  001c9	83 c0 35	 add	 eax, 53			; 00000035H
  001cc	50		 push	 eax
  001cd	68 00 00 00 00	 push	 OFFSET ??_C@_0EI@BKHPHDDD@c?3?2users?2nhv90?2projects?2eech?2ap@
  001d2	68 00 00 00 00	 push	 OFFSET ??_C@_03PLHFFLIH@ptr@
  001d7	e8 00 00 00 00	 call	 ?process_assert@@YGXPBD0H@Z ; process_assert
$LN5@rename_ses:

; 1010 : 
; 1011 : 	if (ptr)

  001dc	83 7d fc 00	 cmp	 DWORD PTR _ptr$[ebp], 0
  001e0	0f 84 b3 00 00
	00		 je	 $LN1@rename_ses

; 1012 : 	{
; 1013 : 		*ptr++ = '.';

  001e6	8b 45 fc	 mov	 eax, DWORD PTR _ptr$[ebp]
  001e9	c6 00 2e	 mov	 BYTE PTR [eax], 46	; 0000002eH
  001ec	8b 4d fc	 mov	 ecx, DWORD PTR _ptr$[ebp]
  001ef	83 c1 01	 add	 ecx, 1
  001f2	89 4d fc	 mov	 DWORD PTR _ptr$[ebp], ecx

; 1014 : 		*ptr++ = 'S';

  001f5	8b 45 fc	 mov	 eax, DWORD PTR _ptr$[ebp]
  001f8	c6 00 53	 mov	 BYTE PTR [eax], 83	; 00000053H
  001fb	8b 4d fc	 mov	 ecx, DWORD PTR _ptr$[ebp]
  001fe	83 c1 01	 add	 ecx, 1
  00201	89 4d fc	 mov	 DWORD PTR _ptr$[ebp], ecx

; 1015 : 		*ptr++ = 'A';

  00204	8b 45 fc	 mov	 eax, DWORD PTR _ptr$[ebp]
  00207	c6 00 41	 mov	 BYTE PTR [eax], 65	; 00000041H
  0020a	8b 4d fc	 mov	 ecx, DWORD PTR _ptr$[ebp]
  0020d	83 c1 01	 add	 ecx, 1
  00210	89 4d fc	 mov	 DWORD PTR _ptr$[ebp], ecx

; 1016 : 		*ptr++ = 'V';

  00213	8b 45 fc	 mov	 eax, DWORD PTR _ptr$[ebp]
  00216	c6 00 56	 mov	 BYTE PTR [eax], 86	; 00000056H
  00219	8b 4d fc	 mov	 ecx, DWORD PTR _ptr$[ebp]
  0021c	83 c1 01	 add	 ecx, 1
  0021f	89 4d fc	 mov	 DWORD PTR _ptr$[ebp], ecx

; 1017 : 
; 1018 : 		if (file_exist (old_name))

  00222	8d 85 fc fb ff
	ff		 lea	 eax, DWORD PTR _old_name$[ebp]
  00228	50		 push	 eax
  00229	e8 00 00 00 00	 call	 ?file_exist@@YGHPBD@Z	; file_exist
  0022e	85 c0		 test	 eax, eax
  00230	74 67		 je	 SHORT $LN1@rename_ses

; 1019 : 		{
; 1020 : 			ptr = strrchr (new_name, '.');

  00232	6a 2e		 push	 46			; 0000002eH
  00234	8d 85 fc f3 ff
	ff		 lea	 eax, DWORD PTR _new_name$[ebp]
  0023a	50		 push	 eax
  0023b	e8 00 00 00 00	 call	 ?strrchr@@YAPADQADH@Z	; strrchr
  00240	83 c4 08	 add	 esp, 8
  00243	89 45 fc	 mov	 DWORD PTR _ptr$[ebp], eax

; 1021 : 
; 1022 : 			*ptr++ = '.';

  00246	8b 45 fc	 mov	 eax, DWORD PTR _ptr$[ebp]
  00249	c6 00 2e	 mov	 BYTE PTR [eax], 46	; 0000002eH
  0024c	8b 4d fc	 mov	 ecx, DWORD PTR _ptr$[ebp]
  0024f	83 c1 01	 add	 ecx, 1
  00252	89 4d fc	 mov	 DWORD PTR _ptr$[ebp], ecx

; 1023 : 			*ptr++ = 'S';

  00255	8b 45 fc	 mov	 eax, DWORD PTR _ptr$[ebp]
  00258	c6 00 53	 mov	 BYTE PTR [eax], 83	; 00000053H
  0025b	8b 4d fc	 mov	 ecx, DWORD PTR _ptr$[ebp]
  0025e	83 c1 01	 add	 ecx, 1
  00261	89 4d fc	 mov	 DWORD PTR _ptr$[ebp], ecx

; 1024 : 			*ptr++ = 'A';

  00264	8b 45 fc	 mov	 eax, DWORD PTR _ptr$[ebp]
  00267	c6 00 41	 mov	 BYTE PTR [eax], 65	; 00000041H
  0026a	8b 4d fc	 mov	 ecx, DWORD PTR _ptr$[ebp]
  0026d	83 c1 01	 add	 ecx, 1
  00270	89 4d fc	 mov	 DWORD PTR _ptr$[ebp], ecx

; 1025 : 			*ptr++ = 'V';

  00273	8b 45 fc	 mov	 eax, DWORD PTR _ptr$[ebp]
  00276	c6 00 56	 mov	 BYTE PTR [eax], 86	; 00000056H
  00279	8b 4d fc	 mov	 ecx, DWORD PTR _ptr$[ebp]
  0027c	83 c1 01	 add	 ecx, 1
  0027f	89 4d fc	 mov	 DWORD PTR _ptr$[ebp], ecx

; 1026 : 
; 1027 : 			#if DEBUG_MODULE
; 1028 : 
; 1029 : 			debug_log ( "Renaming game2 %s to %s", old_name, new_name);
; 1030 : 
; 1031 : 			#endif
; 1032 : 
; 1033 : 			rename (old_name, new_name);

  00282	8d 85 fc f3 ff
	ff		 lea	 eax, DWORD PTR _new_name$[ebp]
  00288	50		 push	 eax
  00289	8d 8d fc fb ff
	ff		 lea	 ecx, DWORD PTR _old_name$[ebp]
  0028f	51		 push	 ecx
  00290	ff 15 00 00 00
	00		 call	 DWORD PTR __imp__rename
  00296	83 c4 08	 add	 esp, 8
$LN1@rename_ses:

; 1034 : 		}
; 1035 : 	}
; 1036 : }

  00299	5f		 pop	 edi
  0029a	5e		 pop	 esi
  0029b	5b		 pop	 ebx
  0029c	8b e5		 mov	 esp, ebp
  0029e	5d		 pop	 ebp
  0029f	c3		 ret	 0
?rename_session@@YGXXZ ENDP				; rename_session
_TEXT	ENDS
; Function compile flags: /Odtp /ZI
; File c:\users\nhv90\projects\eech\aphavoc\source\ui_menu\session\uisess_fn.c
;	COMDAT ?build_session_list@@YGXXZ
_TEXT	SEGMENT
_list$ = -12						; size = 4
_list_item$ = -8					; size = 4
_col$ = -4						; size = 4
?build_session_list@@YGXXZ PROC				; build_session_list, COMDAT

; 850  : {

  00000	55		 push	 ebp
  00001	8b ec		 mov	 ebp, esp
  00003	83 ec 4c	 sub	 esp, 76			; 0000004cH
  00006	53		 push	 ebx
  00007	56		 push	 esi
  00008	57		 push	 edi

; 851  : 	rgb_colour
; 852  : 		col;
; 853  : 
; 854  : 	ui_object
; 855  : 		*list_item;
; 856  : 
; 857  : 	session_list_data_type
; 858  : 		*list;
; 859  : 
; 860  : 	ui_object_destroy_list_items (session_list);

  00009	a1 00 00 00 00	 mov	 eax, DWORD PTR ?session_list@@3PAUUI_OBJECT@@A ; session_list
  0000e	50		 push	 eax
  0000f	e8 00 00 00 00	 call	 ?ui_object_destroy_list_items@@YGXPAUUI_OBJECT@@@Z ; ui_object_destroy_list_items

; 861  : 
; 862  : 	list = get_session_list ();

  00014	e8 00 00 00 00	 call	 ?get_session_list@@YGPAUSESSION_LIST_DATA_TYPE@@XZ ; get_session_list
  00019	89 45 f4	 mov	 DWORD PTR _list$[ebp], eax

; 863  : 
; 864  : 	if (list)

  0001c	83 7d f4 00	 cmp	 DWORD PTR _list$[ebp], 0
  00020	0f 84 79 01 00
	00		 je	 $LN4@build_sess
$LN2@build_sess:

; 865  : 	{
; 866  : 	
; 867  : 		while (list)

  00026	83 7d f4 00	 cmp	 DWORD PTR _list$[ebp], 0
  0002a	0f 84 6d 01 00
	00		 je	 $LN3@build_sess

; 868  : 		{
; 869  : 	
; 870  : 			#if DEBUG_MODULE
; 871  : 	
; 872  : 			debug_log ("SESSION: list item %s", list->title);
; 873  : 	
; 874  : 			#endif
; 875  : 
; 876  : 			if (list->type == SESSION_LIST_TYPE_HOST)

  00030	8b 45 f4	 mov	 eax, DWORD PTR _list$[ebp]
  00033	83 78 08 01	 cmp	 DWORD PTR [eax+8], 1
  00037	75 33		 jne	 SHORT $LN6@build_sess

; 877  : 			{
; 878  : 				list_item = add_to_pop_up_list (list->displayed_title, session_list, NULL, list->list_id, UI_FONT_ARIAL_16, ui_list_text_default_colour);

  00039	a1 00 00 00 00	 mov	 eax, DWORD PTR ?ui_list_text_default_colour@@3UREAL_COLOUR@@A ; ui_list_text_default_colour
  0003e	50		 push	 eax
  0003f	6a 03		 push	 3
  00041	8b 4d f4	 mov	 ecx, DWORD PTR _list$[ebp]
  00044	8b 51 0c	 mov	 edx, DWORD PTR [ecx+12]
  00047	52		 push	 edx
  00048	6a 00		 push	 0
  0004a	a1 00 00 00 00	 mov	 eax, DWORD PTR ?session_list@@3PAUUI_OBJECT@@A ; session_list
  0004f	50		 push	 eax
  00050	8b 4d f4	 mov	 ecx, DWORD PTR _list$[ebp]
  00053	8b 11		 mov	 edx, DWORD PTR [ecx]
  00055	52		 push	 edx
  00056	e8 00 00 00 00	 call	 ?add_to_pop_up_list@@YGPAUUI_OBJECT@@PBDPAU1@1HHUREAL_COLOUR@@@Z ; add_to_pop_up_list
  0005b	89 45 f8	 mov	 DWORD PTR _list_item$[ebp], eax

; 879  : 
; 880  : 				set_ui_frontend_list_object_highlightable (list_item);

  0005e	8b 45 f8	 mov	 eax, DWORD PTR _list_item$[ebp]
  00061	50		 push	 eax
  00062	e8 00 00 00 00	 call	 ?set_ui_frontend_list_object_highlightable@@YGXPAUUI_OBJECT@@@Z ; set_ui_frontend_list_object_highlightable
  00067	e9 20 01 00 00	 jmp	 $LN7@build_sess
$LN6@build_sess:

; 881  : 			}
; 882  : 			else if (list->type == SESSION_LIST_TYPE_MASTER)

  0006c	8b 45 f4	 mov	 eax, DWORD PTR _list$[ebp]
  0006f	83 78 08 08	 cmp	 DWORD PTR [eax+8], 8
  00073	75 41		 jne	 SHORT $LN8@build_sess

; 883  : 			{
; 884  : 				col.r = 240;

  00075	c6 45 fe f0	 mov	 BYTE PTR _col$[ebp+2], 240 ; 000000f0H

; 885  : 				col.g = 73;

  00079	c6 45 fd 49	 mov	 BYTE PTR _col$[ebp+1], 73 ; 00000049H

; 886  : 				col.b = 89;

  0007d	c6 45 fc 59	 mov	 BYTE PTR _col$[ebp], 89	; 00000059H

; 887  : 				col.a = 255;

  00081	c6 45 ff ff	 mov	 BYTE PTR _col$[ebp+3], 255 ; 000000ffH

; 888  : 
; 889  : 				list_item = add_to_pop_up_list (list->displayed_title, session_list, NULL, list->list_id, UI_FONT_ARIAL_16, col);

  00085	8b 45 fc	 mov	 eax, DWORD PTR _col$[ebp]
  00088	50		 push	 eax
  00089	6a 03		 push	 3
  0008b	8b 4d f4	 mov	 ecx, DWORD PTR _list$[ebp]
  0008e	8b 51 0c	 mov	 edx, DWORD PTR [ecx+12]
  00091	52		 push	 edx
  00092	6a 00		 push	 0
  00094	a1 00 00 00 00	 mov	 eax, DWORD PTR ?session_list@@3PAUUI_OBJECT@@A ; session_list
  00099	50		 push	 eax
  0009a	8b 4d f4	 mov	 ecx, DWORD PTR _list$[ebp]
  0009d	8b 11		 mov	 edx, DWORD PTR [ecx]
  0009f	52		 push	 edx
  000a0	e8 00 00 00 00	 call	 ?add_to_pop_up_list@@YGPAUUI_OBJECT@@PBDPAU1@1HHUREAL_COLOUR@@@Z ; add_to_pop_up_list
  000a5	89 45 f8	 mov	 DWORD PTR _list_item$[ebp], eax

; 890  : 
; 891  : 				set_ui_frontend_list_object_highlightable (list_item);

  000a8	8b 45 f8	 mov	 eax, DWORD PTR _list_item$[ebp]
  000ab	50		 push	 eax
  000ac	e8 00 00 00 00	 call	 ?set_ui_frontend_list_object_highlightable@@YGXPAUUI_OBJECT@@@Z ; set_ui_frontend_list_object_highlightable
  000b1	e9 d6 00 00 00	 jmp	 $LN7@build_sess
$LN8@build_sess:

; 892  : 			}
; 893  : 			else if (list->type == SESSION_LIST_TYPE_JOIN)

  000b6	8b 45 f4	 mov	 eax, DWORD PTR _list$[ebp]
  000b9	83 78 08 02	 cmp	 DWORD PTR [eax+8], 2
  000bd	75 41		 jne	 SHORT $LN10@build_sess

; 894  : 			{
; 895  : 				col.r = 73;

  000bf	c6 45 fe 49	 mov	 BYTE PTR _col$[ebp+2], 73 ; 00000049H

; 896  : 				col.g = 240;

  000c3	c6 45 fd f0	 mov	 BYTE PTR _col$[ebp+1], 240 ; 000000f0H

; 897  : 				col.b = 89;

  000c7	c6 45 fc 59	 mov	 BYTE PTR _col$[ebp], 89	; 00000059H

; 898  : 				col.a = 255;

  000cb	c6 45 ff ff	 mov	 BYTE PTR _col$[ebp+3], 255 ; 000000ffH

; 899  : 
; 900  : 				list_item = add_to_pop_up_list (list->displayed_title, session_list, NULL, list->list_id, UI_FONT_ARIAL_16, col);

  000cf	8b 45 fc	 mov	 eax, DWORD PTR _col$[ebp]
  000d2	50		 push	 eax
  000d3	6a 03		 push	 3
  000d5	8b 4d f4	 mov	 ecx, DWORD PTR _list$[ebp]
  000d8	8b 51 0c	 mov	 edx, DWORD PTR [ecx+12]
  000db	52		 push	 edx
  000dc	6a 00		 push	 0
  000de	a1 00 00 00 00	 mov	 eax, DWORD PTR ?session_list@@3PAUUI_OBJECT@@A ; session_list
  000e3	50		 push	 eax
  000e4	8b 4d f4	 mov	 ecx, DWORD PTR _list$[ebp]
  000e7	8b 11		 mov	 edx, DWORD PTR [ecx]
  000e9	52		 push	 edx
  000ea	e8 00 00 00 00	 call	 ?add_to_pop_up_list@@YGPAUUI_OBJECT@@PBDPAU1@1HHUREAL_COLOUR@@@Z ; add_to_pop_up_list
  000ef	89 45 f8	 mov	 DWORD PTR _list_item$[ebp], eax

; 901  : 
; 902  : 				set_ui_frontend_list_object_highlightable (list_item);

  000f2	8b 45 f8	 mov	 eax, DWORD PTR _list_item$[ebp]
  000f5	50		 push	 eax
  000f6	e8 00 00 00 00	 call	 ?set_ui_frontend_list_object_highlightable@@YGXPAUUI_OBJECT@@@Z ; set_ui_frontend_list_object_highlightable
  000fb	e9 8c 00 00 00	 jmp	 $LN7@build_sess
$LN10@build_sess:

; 903  : 			}
; 904  : 			else if (list->type == SESSION_LIST_TYPE_RESTORE)

  00100	8b 45 f4	 mov	 eax, DWORD PTR _list$[ebp]
  00103	83 78 08 04	 cmp	 DWORD PTR [eax+8], 4
  00107	75 3e		 jne	 SHORT $LN12@build_sess

; 905  : 			{
; 906  : 				col.r = 112;

  00109	c6 45 fe 70	 mov	 BYTE PTR _col$[ebp+2], 112 ; 00000070H

; 907  : 				col.g = 210;

  0010d	c6 45 fd d2	 mov	 BYTE PTR _col$[ebp+1], 210 ; 000000d2H

; 908  : 				col.b = 255;

  00111	c6 45 fc ff	 mov	 BYTE PTR _col$[ebp], 255 ; 000000ffH

; 909  : 				col.a = 255;

  00115	c6 45 ff ff	 mov	 BYTE PTR _col$[ebp+3], 255 ; 000000ffH

; 910  : 
; 911  : 				list_item = add_to_pop_up_list (list->displayed_title, session_list, NULL, list->list_id, UI_FONT_ARIAL_16, col);

  00119	8b 45 fc	 mov	 eax, DWORD PTR _col$[ebp]
  0011c	50		 push	 eax
  0011d	6a 03		 push	 3
  0011f	8b 4d f4	 mov	 ecx, DWORD PTR _list$[ebp]
  00122	8b 51 0c	 mov	 edx, DWORD PTR [ecx+12]
  00125	52		 push	 edx
  00126	6a 00		 push	 0
  00128	a1 00 00 00 00	 mov	 eax, DWORD PTR ?session_list@@3PAUUI_OBJECT@@A ; session_list
  0012d	50		 push	 eax
  0012e	8b 4d f4	 mov	 ecx, DWORD PTR _list$[ebp]
  00131	8b 11		 mov	 edx, DWORD PTR [ecx]
  00133	52		 push	 edx
  00134	e8 00 00 00 00	 call	 ?add_to_pop_up_list@@YGPAUUI_OBJECT@@PBDPAU1@1HHUREAL_COLOUR@@@Z ; add_to_pop_up_list
  00139	89 45 f8	 mov	 DWORD PTR _list_item$[ebp], eax

; 912  : 
; 913  : 				set_ui_frontend_list_object_highlightable (list_item);

  0013c	8b 45 f8	 mov	 eax, DWORD PTR _list_item$[ebp]
  0013f	50		 push	 eax
  00140	e8 00 00 00 00	 call	 ?set_ui_frontend_list_object_highlightable@@YGXPAUUI_OBJECT@@@Z ; set_ui_frontend_list_object_highlightable
  00145	eb 45		 jmp	 SHORT $LN7@build_sess
$LN12@build_sess:

; 914  : 			}
; 915  : 			// Jabberwock 031210 Session filter
; 916  : 			else if (list->type == SESSION_LIST_TYPE_FILTER)

  00147	8b 45 f4	 mov	 eax, DWORD PTR _list$[ebp]
  0014a	83 78 08 10	 cmp	 DWORD PTR [eax+8], 16	; 00000010H
  0014e	75 3c		 jne	 SHORT $LN7@build_sess

; 917  : 			{
; 918  : 				col.r = 220;

  00150	c6 45 fe dc	 mov	 BYTE PTR _col$[ebp+2], 220 ; 000000dcH

; 919  : 				col.g = 220;

  00154	c6 45 fd dc	 mov	 BYTE PTR _col$[ebp+1], 220 ; 000000dcH

; 920  : 				col.b = 220;

  00158	c6 45 fc dc	 mov	 BYTE PTR _col$[ebp], 220 ; 000000dcH

; 921  : 				col.a = 255;

  0015c	c6 45 ff ff	 mov	 BYTE PTR _col$[ebp+3], 255 ; 000000ffH

; 922  : 					
; 923  : 				list_item = add_to_pop_up_list (list->displayed_title, session_list, NULL, list->list_id, UI_FONT_ARIAL_16, col);

  00160	8b 45 fc	 mov	 eax, DWORD PTR _col$[ebp]
  00163	50		 push	 eax
  00164	6a 03		 push	 3
  00166	8b 4d f4	 mov	 ecx, DWORD PTR _list$[ebp]
  00169	8b 51 0c	 mov	 edx, DWORD PTR [ecx+12]
  0016c	52		 push	 edx
  0016d	6a 00		 push	 0
  0016f	a1 00 00 00 00	 mov	 eax, DWORD PTR ?session_list@@3PAUUI_OBJECT@@A ; session_list
  00174	50		 push	 eax
  00175	8b 4d f4	 mov	 ecx, DWORD PTR _list$[ebp]
  00178	8b 11		 mov	 edx, DWORD PTR [ecx]
  0017a	52		 push	 edx
  0017b	e8 00 00 00 00	 call	 ?add_to_pop_up_list@@YGPAUUI_OBJECT@@PBDPAU1@1HHUREAL_COLOUR@@@Z ; add_to_pop_up_list
  00180	89 45 f8	 mov	 DWORD PTR _list_item$[ebp], eax

; 924  : 
; 925  : 				set_ui_frontend_list_object_highlightable (list_item);

  00183	8b 45 f8	 mov	 eax, DWORD PTR _list_item$[ebp]
  00186	50		 push	 eax
  00187	e8 00 00 00 00	 call	 ?set_ui_frontend_list_object_highlightable@@YGXPAUUI_OBJECT@@@Z ; set_ui_frontend_list_object_highlightable
$LN7@build_sess:

; 926  : 			}			
; 927  : 			// Jabberwock 031210 ends
; 928  : 
; 929  : 
; 930  : 			list = list->next;

  0018c	8b 45 f4	 mov	 eax, DWORD PTR _list$[ebp]
  0018f	8b 88 a4 02 00
	00		 mov	 ecx, DWORD PTR [eax+676]
  00195	89 4d f4	 mov	 DWORD PTR _list$[ebp], ecx

; 931  : 		}

  00198	e9 89 fe ff ff	 jmp	 $LN2@build_sess
$LN3@build_sess:

; 932  : 	}
; 933  : 	else

  0019d	eb 23		 jmp	 SHORT $LN1@build_sess
$LN4@build_sess:

; 934  : 	{
; 935  : 	
; 936  : 		add_to_pop_up_list ( get_trans ("No Games"), session_list, NULL, 0, UI_FONT_ARIAL_16, ui_colour_red );

  0019f	a1 00 00 00 00	 mov	 eax, DWORD PTR ?ui_colour_red@@3UREAL_COLOUR@@A ; ui_colour_red
  001a4	50		 push	 eax
  001a5	6a 03		 push	 3
  001a7	6a 00		 push	 0
  001a9	6a 00		 push	 0
  001ab	8b 0d 00 00 00
	00		 mov	 ecx, DWORD PTR ?session_list@@3PAUUI_OBJECT@@A ; session_list
  001b1	51		 push	 ecx
  001b2	68 00 00 00 00	 push	 OFFSET ??_C@_08PMJNNAEG@No?5Games@
  001b7	e8 00 00 00 00	 call	 ?get_trans@@YGPBDPBD@Z	; get_trans
  001bc	50		 push	 eax
  001bd	e8 00 00 00 00	 call	 ?add_to_pop_up_list@@YGPAUUI_OBJECT@@PBDPAU1@1HHUREAL_COLOUR@@@Z ; add_to_pop_up_list
$LN1@build_sess:

; 937  : 	}
; 938  : 	/*
; 939  : 	{
; 940  : 
; 941  : 		ui_object
; 942  : 			*slider;
; 943  : 
; 944  : 		slider = get_ui_object_vslider (session_list_area);
; 945  : 
; 946  : 		recalculate_slider_size (slider);
; 947  : 	}
; 948  : 	*/
; 949  : }

  001c2	5f		 pop	 edi
  001c3	5e		 pop	 esi
  001c4	5b		 pop	 ebx
  001c5	8b e5		 mov	 esp, ebp
  001c7	5d		 pop	 ebp
  001c8	c3		 ret	 0
?build_session_list@@YGXXZ ENDP				; build_session_list
_TEXT	ENDS
; Function compile flags: /Odtp /ZI
; File c:\users\nhv90\projects\eech\aphavoc\source\ui_menu\session\uisess_fn.c
;	COMDAT ?notify_session_havoc_briefing_button@@YGXPAUUI_OBJECT@@PAX@Z
_TEXT	SEGMENT
_obj$ = 8						; size = 4
_arg$ = 12						; size = 4
?notify_session_havoc_briefing_button@@YGXPAUUI_OBJECT@@PAX@Z PROC ; notify_session_havoc_briefing_button, COMDAT

; 1220 : {

  00000	55		 push	 ebp
  00001	8b ec		 mov	 ebp, esp
  00003	83 ec 40	 sub	 esp, 64			; 00000040H
  00006	53		 push	 ebx
  00007	56		 push	 esi
  00008	57		 push	 edi

; 1221 : 
; 1222 : 	set_briefing_side ( TRUE );

  00009	6a 01		 push	 1
  0000b	e8 00 00 00 00	 call	 ?set_briefing_side@@YGXH@Z ; set_briefing_side

; 1223 : 
; 1224 : 	push_ui_screen ( combat_zone_screen );

  00010	a1 00 00 00 00	 mov	 eax, DWORD PTR ?combat_zone_screen@@3PAUUI_OBJECT@@A ; combat_zone_screen
  00015	50		 push	 eax
  00016	e8 00 00 00 00	 call	 ?push_ui_screen@@YGXPAUUI_OBJECT@@@Z ; push_ui_screen

; 1225 : }

  0001b	5f		 pop	 edi
  0001c	5e		 pop	 esi
  0001d	5b		 pop	 ebx
  0001e	8b e5		 mov	 esp, ebp
  00020	5d		 pop	 ebp
  00021	c2 08 00	 ret	 8
?notify_session_havoc_briefing_button@@YGXPAUUI_OBJECT@@PAX@Z ENDP ; notify_session_havoc_briefing_button
_TEXT	ENDS
; Function compile flags: /Odtp /ZI
; File c:\users\nhv90\projects\eech\aphavoc\source\ui_menu\session\uisess_fn.c
;	COMDAT ?notify_session_apache_briefing_button@@YGXPAUUI_OBJECT@@PAX@Z
_TEXT	SEGMENT
_obj$ = 8						; size = 4
_arg$ = 12						; size = 4
?notify_session_apache_briefing_button@@YGXPAUUI_OBJECT@@PAX@Z PROC ; notify_session_apache_briefing_button, COMDAT

; 1208 : {

  00000	55		 push	 ebp
  00001	8b ec		 mov	 ebp, esp
  00003	83 ec 40	 sub	 esp, 64			; 00000040H
  00006	53		 push	 ebx
  00007	56		 push	 esi
  00008	57		 push	 edi

; 1209 : 
; 1210 : 	set_briefing_side ( FALSE );

  00009	6a 00		 push	 0
  0000b	e8 00 00 00 00	 call	 ?set_briefing_side@@YGXH@Z ; set_briefing_side

; 1211 : 
; 1212 : 	push_ui_screen ( combat_zone_screen );

  00010	a1 00 00 00 00	 mov	 eax, DWORD PTR ?combat_zone_screen@@3PAUUI_OBJECT@@A ; combat_zone_screen
  00015	50		 push	 eax
  00016	e8 00 00 00 00	 call	 ?push_ui_screen@@YGXPAUUI_OBJECT@@@Z ; push_ui_screen

; 1213 : }

  0001b	5f		 pop	 edi
  0001c	5e		 pop	 esi
  0001d	5b		 pop	 ebx
  0001e	8b e5		 mov	 esp, ebp
  00020	5d		 pop	 ebp
  00021	c2 08 00	 ret	 8
?notify_session_apache_briefing_button@@YGXPAUUI_OBJECT@@PAX@Z ENDP ; notify_session_apache_briefing_button
_TEXT	ENDS
; Function compile flags: /Odtp /ZI
; File c:\users\nhv90\projects\eech\aphavoc\source\ui_menu\session\uisess_fn.c
;	COMDAT ?notify_session_delete_button@@YGXPAUUI_OBJECT@@PAX@Z
_TEXT	SEGMENT
_ptr$1 = -1032						; size = 4
_filename$ = -1028					; size = 1024
_session$ = -4						; size = 4
_obj$ = 8						; size = 4
_arg$ = 12						; size = 4
?notify_session_delete_button@@YGXPAUUI_OBJECT@@PAX@Z PROC ; notify_session_delete_button, COMDAT

; 1140 : {

  00000	55		 push	 ebp
  00001	8b ec		 mov	 ebp, esp
  00003	81 ec c8 04 00
	00		 sub	 esp, 1224		; 000004c8H
  00009	53		 push	 ebx
  0000a	56		 push	 esi
  0000b	57		 push	 edi

; 1141 : 
; 1142 : 	session_list_data_type
; 1143 : 		*session;
; 1144 : 
; 1145 : 	char
; 1146 : 		filename[1024];
; 1147 : 
; 1148 : 	session = get_current_game_session ();

  0000c	a1 00 00 00 00	 mov	 eax, DWORD PTR ?current_game_session@@3PAUSESSION_LIST_DATA_TYPE@@A ; current_game_session
  00011	89 45 fc	 mov	 DWORD PTR _session$[ebp], eax

; 1149 : 
; 1150 : 	if ( session )

  00014	83 7d fc 00	 cmp	 DWORD PTR _session$[ebp], 0
  00018	0f 84 4c 01 00
	00		 je	 $LN2@notify_ses

; 1151 : 	{
; 1152 : 
; 1153 : 		if ( session->type == SESSION_LIST_TYPE_RESTORE )

  0001e	8b 45 fc	 mov	 eax, DWORD PTR _session$[ebp]
  00021	83 78 08 04	 cmp	 DWORD PTR [eax+8], 4
  00025	0f 85 3f 01 00
	00		 jne	 $LN2@notify_ses

; 1154 : 		{
; 1155 : 
; 1156 : 			char
; 1157 : 				*ptr;
; 1158 : 
; 1159 : 			sprintf ( filename, "%s\\%s\\%s", session->data_path, session->campaign_directory, session->campaign_filename );

  0002b	8b 45 fc	 mov	 eax, DWORD PTR _session$[ebp]
  0002e	05 5c 01 00 00	 add	 eax, 348		; 0000015cH
  00033	50		 push	 eax
  00034	8b 4d fc	 mov	 ecx, DWORD PTR _session$[ebp]
  00037	81 c1 1c 01 00
	00		 add	 ecx, 284		; 0000011cH
  0003d	51		 push	 ecx
  0003e	8b 55 fc	 mov	 edx, DWORD PTR _session$[ebp]
  00041	83 c2 1c	 add	 edx, 28			; 0000001cH
  00044	52		 push	 edx
  00045	68 00 00 00 00	 push	 OFFSET ??_C@_08EFGGCJLD@?$CFs?2?$CFs?2?$CFs@
  0004a	8d 85 fc fb ff
	ff		 lea	 eax, DWORD PTR _filename$[ebp]
  00050	50		 push	 eax
  00051	e8 00 00 00 00	 call	 _sprintf
  00056	83 c4 14	 add	 esp, 20			; 00000014H

; 1160 : 
; 1161 : 			unlink ( filename );

  00059	8d 85 fc fb ff
	ff		 lea	 eax, DWORD PTR _filename$[ebp]
  0005f	50		 push	 eax
  00060	ff 15 00 00 00
	00		 call	 DWORD PTR __imp___unlink
  00066	83 c4 04	 add	 esp, 4

; 1162 : 
; 1163 : 			//
; 1164 : 			// Delete the 'sav' file as well
; 1165 : 			//
; 1166 : 
; 1167 : 			debug_log ( "Deleting game %s", filename );

  00069	8d 85 fc fb ff
	ff		 lea	 eax, DWORD PTR _filename$[ebp]
  0006f	50		 push	 eax
  00070	68 00 00 00 00	 push	 OFFSET ??_C@_0BB@KANMHKPO@Deleting?5game?5?$CFs@
  00075	e8 00 00 00 00	 call	 ?debug_log@@YAXPBDZZ	; debug_log
  0007a	83 c4 08	 add	 esp, 8

; 1168 : 
; 1169 : 			// find last occurance of '.' in the filename
; 1170 : 			ptr = strrchr (filename, '.');

  0007d	6a 2e		 push	 46			; 0000002eH
  0007f	8d 85 fc fb ff
	ff		 lea	 eax, DWORD PTR _filename$[ebp]
  00085	50		 push	 eax
  00086	e8 00 00 00 00	 call	 ?strrchr@@YAPADQADH@Z	; strrchr
  0008b	83 c4 08	 add	 esp, 8
  0008e	89 85 f8 fb ff
	ff		 mov	 DWORD PTR _ptr$1[ebp], eax

; 1171 : 
; 1172 : 			ASSERT (ptr);

  00094	83 bd f8 fb ff
	ff 00		 cmp	 DWORD PTR _ptr$1[ebp], 0
  0009b	75 18		 jne	 SHORT $LN4@notify_ses
  0009d	a1 00 00 00 00	 mov	 eax, DWORD PTR ?__LINE__Var@?0??notify_session_delete_button@@YGXPAUUI_OBJECT@@PAX@Z@4JA
  000a2	83 c0 20	 add	 eax, 32			; 00000020H
  000a5	50		 push	 eax
  000a6	68 00 00 00 00	 push	 OFFSET ??_C@_0EI@BKHPHDDD@c?3?2users?2nhv90?2projects?2eech?2ap@
  000ab	68 00 00 00 00	 push	 OFFSET ??_C@_03PLHFFLIH@ptr@
  000b0	e8 00 00 00 00	 call	 ?process_assert@@YGXPBD0H@Z ; process_assert
$LN4@notify_ses:

; 1173 : 
; 1174 : 			if (ptr)

  000b5	83 bd f8 fb ff
	ff 00		 cmp	 DWORD PTR _ptr$1[ebp], 0
  000bc	0f 84 94 00 00
	00		 je	 $LN5@notify_ses

; 1175 : 			{
; 1176 : 				*ptr++ = '.';

  000c2	8b 85 f8 fb ff
	ff		 mov	 eax, DWORD PTR _ptr$1[ebp]
  000c8	c6 00 2e	 mov	 BYTE PTR [eax], 46	; 0000002eH
  000cb	8b 8d f8 fb ff
	ff		 mov	 ecx, DWORD PTR _ptr$1[ebp]
  000d1	83 c1 01	 add	 ecx, 1
  000d4	89 8d f8 fb ff
	ff		 mov	 DWORD PTR _ptr$1[ebp], ecx

; 1177 : 				*ptr++ = 'S';

  000da	8b 85 f8 fb ff
	ff		 mov	 eax, DWORD PTR _ptr$1[ebp]
  000e0	c6 00 53	 mov	 BYTE PTR [eax], 83	; 00000053H
  000e3	8b 8d f8 fb ff
	ff		 mov	 ecx, DWORD PTR _ptr$1[ebp]
  000e9	83 c1 01	 add	 ecx, 1
  000ec	89 8d f8 fb ff
	ff		 mov	 DWORD PTR _ptr$1[ebp], ecx

; 1178 : 				*ptr++ = 'A';

  000f2	8b 85 f8 fb ff
	ff		 mov	 eax, DWORD PTR _ptr$1[ebp]
  000f8	c6 00 41	 mov	 BYTE PTR [eax], 65	; 00000041H
  000fb	8b 8d f8 fb ff
	ff		 mov	 ecx, DWORD PTR _ptr$1[ebp]
  00101	83 c1 01	 add	 ecx, 1
  00104	89 8d f8 fb ff
	ff		 mov	 DWORD PTR _ptr$1[ebp], ecx

; 1179 : 				*ptr++ = 'V';

  0010a	8b 85 f8 fb ff
	ff		 mov	 eax, DWORD PTR _ptr$1[ebp]
  00110	c6 00 56	 mov	 BYTE PTR [eax], 86	; 00000056H
  00113	8b 8d f8 fb ff
	ff		 mov	 ecx, DWORD PTR _ptr$1[ebp]
  00119	83 c1 01	 add	 ecx, 1
  0011c	89 8d f8 fb ff
	ff		 mov	 DWORD PTR _ptr$1[ebp], ecx

; 1180 : 	
; 1181 : 				if ( file_exist ( filename ) )

  00122	8d 85 fc fb ff
	ff		 lea	 eax, DWORD PTR _filename$[ebp]
  00128	50		 push	 eax
  00129	e8 00 00 00 00	 call	 ?file_exist@@YGHPBD@Z	; file_exist
  0012e	85 c0		 test	 eax, eax
  00130	74 24		 je	 SHORT $LN5@notify_ses

; 1182 : 				{
; 1183 : 					debug_log ( "Deleting game2 %s", filename );

  00132	8d 85 fc fb ff
	ff		 lea	 eax, DWORD PTR _filename$[ebp]
  00138	50		 push	 eax
  00139	68 00 00 00 00	 push	 OFFSET ??_C@_0BC@BLHIEPIG@Deleting?5game2?5?$CFs@
  0013e	e8 00 00 00 00	 call	 ?debug_log@@YAXPBDZZ	; debug_log
  00143	83 c4 08	 add	 esp, 8

; 1184 : 	
; 1185 : 					unlink ( filename );

  00146	8d 85 fc fb ff
	ff		 lea	 eax, DWORD PTR _filename$[ebp]
  0014c	50		 push	 eax
  0014d	ff 15 00 00 00
	00		 call	 DWORD PTR __imp___unlink
  00153	83 c4 04	 add	 esp, 4
$LN5@notify_ses:

; 1186 : 				}
; 1187 : 			}
; 1188 : 			
; 1189 : 			ui_object_destroy_list_items (session_info_list);

  00156	a1 00 00 00 00	 mov	 eax, DWORD PTR ?session_info_list@@3PAUUI_OBJECT@@A ; session_info_list
  0015b	50		 push	 eax
  0015c	e8 00 00 00 00	 call	 ?ui_object_destroy_list_items@@YGXPAUUI_OBJECT@@@Z ; ui_object_destroy_list_items

; 1190 : 
; 1191 : 			session_list_rescan_function ( NULL, NULL );

  00161	6a 00		 push	 0
  00163	6a 00		 push	 0
  00165	e8 00 00 00 00	 call	 ?session_list_rescan_function@@YGXPAUUI_OBJECT@@PAX@Z ; session_list_rescan_function
$LN2@notify_ses:

; 1192 : 		}
; 1193 : 	}
; 1194 : 	// turn off delete and rename buttons as nothing is left selected
; 1195 : 
; 1196 : 	set_ui_object_drawable (session_screen_delete_button, FALSE);

  0016a	6a 00		 push	 0
  0016c	a1 00 00 00 00	 mov	 eax, DWORD PTR ?session_screen_delete_button@@3PAUUI_OBJECT@@A ; session_screen_delete_button
  00171	50		 push	 eax
  00172	8b 0d 00 00 00
	00		 mov	 ecx, DWORD PTR ?session_screen_delete_button@@3PAUUI_OBJECT@@A ; session_screen_delete_button
  00178	8b 11		 mov	 edx, DWORD PTR [ecx]
  0017a	8b 04 95 00 00
	00 00		 mov	 eax, DWORD PTR ?fn_set_ui_object_drawable@@3PAP6GXPAUUI_OBJECT@@H@ZA[edx*4]
  00181	ff d0		 call	 eax

; 1197 : 
; 1198 : 	set_ui_object_drawable (session_screen_rename_button, FALSE);

  00183	6a 00		 push	 0
  00185	a1 00 00 00 00	 mov	 eax, DWORD PTR ?session_screen_rename_button@@3PAUUI_OBJECT@@A ; session_screen_rename_button
  0018a	50		 push	 eax
  0018b	8b 0d 00 00 00
	00		 mov	 ecx, DWORD PTR ?session_screen_rename_button@@3PAUUI_OBJECT@@A ; session_screen_rename_button
  00191	8b 11		 mov	 edx, DWORD PTR [ecx]
  00193	8b 04 95 00 00
	00 00		 mov	 eax, DWORD PTR ?fn_set_ui_object_drawable@@3PAP6GXPAUUI_OBJECT@@H@ZA[edx*4]
  0019a	ff d0		 call	 eax

; 1199 : 
; 1200 : 	set_current_game_session (NULL);

  0019c	6a 00		 push	 0
  0019e	e8 00 00 00 00	 call	 ?set_current_game_session@@YGXPAUSESSION_LIST_DATA_TYPE@@@Z ; set_current_game_session

; 1201 : }

  001a3	5f		 pop	 edi
  001a4	5e		 pop	 esi
  001a5	5b		 pop	 ebx
  001a6	8b e5		 mov	 esp, ebp
  001a8	5d		 pop	 ebp
  001a9	c2 08 00	 ret	 8
?notify_session_delete_button@@YGXPAUUI_OBJECT@@PAX@Z ENDP ; notify_session_delete_button
_TEXT	ENDS
; Function compile flags: /Odtp /ZI
; File c:\users\nhv90\projects\eech\aphavoc\source\ui_menu\session\uisess_fn.c
;	COMDAT ?notify_session_rename_button@@YGXPAUUI_OBJECT@@PAX@Z
_TEXT	SEGMENT
_session$ = -16						; size = 4
_list_item$ = -12					; size = 4
_y$ = -8						; size = 4
_x$ = -4						; size = 4
_obj$ = 8						; size = 4
_arg$ = 12						; size = 4
?notify_session_rename_button@@YGXPAUUI_OBJECT@@PAX@Z PROC ; notify_session_rename_button, COMDAT

; 1084 : {

  00000	55		 push	 ebp
  00001	8b ec		 mov	 ebp, esp
  00003	83 ec 50	 sub	 esp, 80			; 00000050H
  00006	53		 push	 ebx
  00007	56		 push	 esi
  00008	57		 push	 edi

; 1085 : 	float
; 1086 : 		x,
; 1087 : 		y;
; 1088 : 
; 1089 : 	ui_object
; 1090 : 		*list_item;
; 1091 : 
; 1092 : 	session_list_data_type
; 1093 : 		*session;
; 1094 : 
; 1095 : 	session = get_current_game_session ();

  00009	a1 00 00 00 00	 mov	 eax, DWORD PTR ?current_game_session@@3PAUSESSION_LIST_DATA_TYPE@@A ; current_game_session
  0000e	89 45 f0	 mov	 DWORD PTR _session$[ebp], eax

; 1096 : 
; 1097 : 	if (session)

  00011	83 7d f0 00	 cmp	 DWORD PTR _session$[ebp], 0
  00015	0f 84 49 01 00
	00		 je	 $LN5@notify_ses

; 1098 : 	{
; 1099 : 		if (session->type == SESSION_LIST_TYPE_RESTORE)

  0001b	8b 45 f0	 mov	 eax, DWORD PTR _session$[ebp]
  0001e	83 78 08 04	 cmp	 DWORD PTR [eax+8], 4
  00022	0f 85 3c 01 00
	00		 jne	 $LN5@notify_ses

; 1100 : 		{
; 1101 : 			// get correct session ui object in list
; 1102 : 
; 1103 : 			list_item = get_ui_object_child (session_list);

  00028	a1 00 00 00 00	 mov	 eax, DWORD PTR ?session_list@@3PAUUI_OBJECT@@A ; session_list
  0002d	50		 push	 eax
  0002e	8b 0d 00 00 00
	00		 mov	 ecx, DWORD PTR ?session_list@@3PAUUI_OBJECT@@A ; session_list
  00034	8b 11		 mov	 edx, DWORD PTR [ecx]
  00036	8b 04 95 00 00
	00 00		 mov	 eax, DWORD PTR ?fn_get_ui_object_child@@3PAP6GPAUUI_OBJECT@@PAU1@@ZA[edx*4]
  0003d	ff d0		 call	 eax
  0003f	89 45 f4	 mov	 DWORD PTR _list_item$[ebp], eax
$LN2@notify_ses:

; 1104 : 
; 1105 : 			while ((list_item) && (get_ui_object_state (list_item) != UI_OBJECT_STATE_ON))

  00042	83 7d f4 00	 cmp	 DWORD PTR _list_item$[ebp], 0
  00046	74 2e		 je	 SHORT $LN3@notify_ses
  00048	8b 45 f4	 mov	 eax, DWORD PTR _list_item$[ebp]
  0004b	50		 push	 eax
  0004c	8b 4d f4	 mov	 ecx, DWORD PTR _list_item$[ebp]
  0004f	8b 11		 mov	 edx, DWORD PTR [ecx]
  00051	8b 04 95 00 00
	00 00		 mov	 eax, DWORD PTR ?fn_get_ui_object_state@@3PAP6GHPAUUI_OBJECT@@@ZA[edx*4]
  00058	ff d0		 call	 eax
  0005a	83 f8 01	 cmp	 eax, 1
  0005d	74 17		 je	 SHORT $LN3@notify_ses

; 1106 : 			{
; 1107 : 				list_item = get_ui_object_next (list_item);

  0005f	8b 45 f4	 mov	 eax, DWORD PTR _list_item$[ebp]
  00062	50		 push	 eax
  00063	8b 4d f4	 mov	 ecx, DWORD PTR _list_item$[ebp]
  00066	8b 11		 mov	 edx, DWORD PTR [ecx]
  00068	8b 04 95 00 00
	00 00		 mov	 eax, DWORD PTR ?fn_get_ui_object_next@@3PAP6GPAUUI_OBJECT@@PAU1@@ZA[edx*4]
  0006f	ff d0		 call	 eax
  00071	89 45 f4	 mov	 DWORD PTR _list_item$[ebp], eax

; 1108 : 			}

  00074	eb cc		 jmp	 SHORT $LN2@notify_ses
$LN3@notify_ses:

; 1109 : 
; 1110 : 			ASSERT (list_item);

  00076	83 7d f4 00	 cmp	 DWORD PTR _list_item$[ebp], 0
  0007a	75 18		 jne	 SHORT $LN6@notify_ses
  0007c	a1 00 00 00 00	 mov	 eax, DWORD PTR ?__LINE__Var@?0??notify_session_rename_button@@YGXPAUUI_OBJECT@@PAX@Z@4JA
  00081	83 c0 1a	 add	 eax, 26			; 0000001aH
  00084	50		 push	 eax
  00085	68 00 00 00 00	 push	 OFFSET ??_C@_0EI@BKHPHDDD@c?3?2users?2nhv90?2projects?2eech?2ap@
  0008a	68 00 00 00 00	 push	 OFFSET ??_C@_09OHOKCDH@list_item@
  0008f	e8 00 00 00 00	 call	 ?process_assert@@YGXPBD0H@Z ; process_assert
$LN6@notify_ses:

; 1111 : 
; 1112 : 			// move input object to correct position
; 1113 : 		
; 1114 : 			x = get_ui_object_virtual_x (list_item);

  00094	8b 45 f4	 mov	 eax, DWORD PTR _list_item$[ebp]
  00097	50		 push	 eax
  00098	8b 4d f4	 mov	 ecx, DWORD PTR _list_item$[ebp]
  0009b	8b 11		 mov	 edx, DWORD PTR [ecx]
  0009d	8b 04 95 00 00
	00 00		 mov	 eax, DWORD PTR ?fn_get_ui_object_virtual_x@@3PAP6GMPAUUI_OBJECT@@@ZA[edx*4]
  000a4	ff d0		 call	 eax
  000a6	d9 5d fc	 fstp	 DWORD PTR _x$[ebp]

; 1115 : 
; 1116 : 			y = get_ui_object_virtual_y (list_item);

  000a9	8b 45 f4	 mov	 eax, DWORD PTR _list_item$[ebp]
  000ac	50		 push	 eax
  000ad	8b 4d f4	 mov	 ecx, DWORD PTR _list_item$[ebp]
  000b0	8b 11		 mov	 edx, DWORD PTR [ecx]
  000b2	8b 04 95 00 00
	00 00		 mov	 eax, DWORD PTR ?fn_get_ui_object_virtual_y@@3PAP6GMPAUUI_OBJECT@@@ZA[edx*4]
  000b9	ff d0		 call	 eax
  000bb	d9 5d f8	 fstp	 DWORD PTR _y$[ebp]

; 1117 : 
; 1118 : 			set_ui_object_virtual_x (session_name_input, x);

  000be	51		 push	 ecx
  000bf	f3 0f 10 45 fc	 movss	 xmm0, DWORD PTR _x$[ebp]
  000c4	f3 0f 11 04 24	 movss	 DWORD PTR [esp], xmm0
  000c9	a1 00 00 00 00	 mov	 eax, DWORD PTR ?session_name_input@@3PAUUI_OBJECT@@A ; session_name_input
  000ce	50		 push	 eax
  000cf	8b 0d 00 00 00
	00		 mov	 ecx, DWORD PTR ?session_name_input@@3PAUUI_OBJECT@@A ; session_name_input
  000d5	8b 11		 mov	 edx, DWORD PTR [ecx]
  000d7	8b 04 95 00 00
	00 00		 mov	 eax, DWORD PTR ?fn_set_ui_object_virtual_x@@3PAP6GXPAUUI_OBJECT@@M@ZA[edx*4]
  000de	ff d0		 call	 eax

; 1119 : 	
; 1120 : 			set_ui_object_virtual_y (session_name_input, y);

  000e0	51		 push	 ecx
  000e1	f3 0f 10 45 f8	 movss	 xmm0, DWORD PTR _y$[ebp]
  000e6	f3 0f 11 04 24	 movss	 DWORD PTR [esp], xmm0
  000eb	a1 00 00 00 00	 mov	 eax, DWORD PTR ?session_name_input@@3PAUUI_OBJECT@@A ; session_name_input
  000f0	50		 push	 eax
  000f1	8b 0d 00 00 00
	00		 mov	 ecx, DWORD PTR ?session_name_input@@3PAUUI_OBJECT@@A ; session_name_input
  000f7	8b 11		 mov	 edx, DWORD PTR [ecx]
  000f9	8b 04 95 00 00
	00 00		 mov	 eax, DWORD PTR ?fn_set_ui_object_virtual_y@@3PAP6GXPAUUI_OBJECT@@M@ZA[edx*4]
  00100	ff d0		 call	 eax

; 1121 : 
; 1122 : 			// switch input on
; 1123 : 	
; 1124 : 			set_ui_object_item_number (session_name_input, (int) list_item);

  00102	8b 45 f4	 mov	 eax, DWORD PTR _list_item$[ebp]
  00105	50		 push	 eax
  00106	8b 0d 00 00 00
	00		 mov	 ecx, DWORD PTR ?session_name_input@@3PAUUI_OBJECT@@A ; session_name_input
  0010c	51		 push	 ecx
  0010d	8b 15 00 00 00
	00		 mov	 edx, DWORD PTR ?session_name_input@@3PAUUI_OBJECT@@A ; session_name_input
  00113	8b 02		 mov	 eax, DWORD PTR [edx]
  00115	8b 0c 85 00 00
	00 00		 mov	 ecx, DWORD PTR ?fn_set_ui_object_item_number@@3PAP6GXPAUUI_OBJECT@@H@ZA[eax*4]
  0011c	ff d1		 call	 ecx

; 1125 : 	
; 1126 : 			set_ui_object_drawable (list_item, FALSE);

  0011e	6a 00		 push	 0
  00120	8b 45 f4	 mov	 eax, DWORD PTR _list_item$[ebp]
  00123	50		 push	 eax
  00124	8b 4d f4	 mov	 ecx, DWORD PTR _list_item$[ebp]
  00127	8b 11		 mov	 edx, DWORD PTR [ecx]
  00129	8b 04 95 00 00
	00 00		 mov	 eax, DWORD PTR ?fn_set_ui_object_drawable@@3PAP6GXPAUUI_OBJECT@@H@ZA[edx*4]
  00130	ff d0		 call	 eax

; 1127 : 	
; 1128 : 			set_ui_object_drawable (session_name_entry_area, TRUE);

  00132	6a 01		 push	 1
  00134	a1 00 00 00 00	 mov	 eax, DWORD PTR ?session_name_entry_area@@3PAUUI_OBJECT@@A ; session_name_entry_area
  00139	50		 push	 eax
  0013a	8b 0d 00 00 00
	00		 mov	 ecx, DWORD PTR ?session_name_entry_area@@3PAUUI_OBJECT@@A ; session_name_entry_area
  00140	8b 11		 mov	 edx, DWORD PTR [ecx]
  00142	8b 04 95 00 00
	00 00		 mov	 eax, DWORD PTR ?fn_set_ui_object_drawable@@3PAP6GXPAUUI_OBJECT@@H@ZA[edx*4]
  00149	ff d0		 call	 eax

; 1129 : 	
; 1130 : 			set_ui_object_state (session_name_input, UI_OBJECT_STATE_ON);

  0014b	6a 01		 push	 1
  0014d	a1 00 00 00 00	 mov	 eax, DWORD PTR ?session_name_input@@3PAUUI_OBJECT@@A ; session_name_input
  00152	50		 push	 eax
  00153	8b 0d 00 00 00
	00		 mov	 ecx, DWORD PTR ?session_name_input@@3PAUUI_OBJECT@@A ; session_name_input
  00159	8b 11		 mov	 edx, DWORD PTR [ecx]
  0015b	8b 04 95 00 00
	00 00		 mov	 eax, DWORD PTR ?fn_set_ui_object_state@@3PAP6GXPAUUI_OBJECT@@H@ZA[edx*4]
  00162	ff d0		 call	 eax
$LN5@notify_ses:

; 1131 : 		}
; 1132 : 	}	
; 1133 : }

  00164	5f		 pop	 edi
  00165	5e		 pop	 esi
  00166	5b		 pop	 ebx
  00167	8b e5		 mov	 esp, ebp
  00169	5d		 pop	 ebp
  0016a	c2 08 00	 ret	 8
?notify_session_rename_button@@YGXPAUUI_OBJECT@@PAX@Z ENDP ; notify_session_rename_button
_TEXT	ENDS
; Function compile flags: /Odtp /ZI
; File c:\users\nhv90\projects\eech\aphavoc\source\ui_menu\session\uisess_fn.c
;	COMDAT ?session_name_input_function@@YGXPAUUI_OBJECT@@PAX@Z
_TEXT	SEGMENT
_object$ = -48						; size = 4
_copy$ = -44						; size = 4
_text$ = -40						; size = 4
_limited_name$ = -36					; size = 34
_obj$ = 8						; size = 4
_arg$ = 12						; size = 4
?session_name_input_function@@YGXPAUUI_OBJECT@@PAX@Z PROC ; session_name_input_function, COMDAT

; 1043 : {

  00000	55		 push	 ebp
  00001	8b ec		 mov	 ebp, esp
  00003	83 ec 70	 sub	 esp, 112		; 00000070H
  00006	53		 push	 ebx
  00007	56		 push	 esi
  00008	57		 push	 edi

; 1044 :   	char
; 1045 : 		limited_name [34];
; 1046 :   	const char
; 1047 : 		*text;
; 1048 : 	char *
; 1049 : 		copy;
; 1050 : 
; 1051 : 	ui_object
; 1052 : 		*object;
; 1053 : 
; 1054 : 	text = get_ui_object_text (obj);

  00009	8b 45 08	 mov	 eax, DWORD PTR _obj$[ebp]
  0000c	50		 push	 eax
  0000d	8b 4d 08	 mov	 ecx, DWORD PTR _obj$[ebp]
  00010	8b 11		 mov	 edx, DWORD PTR [ecx]
  00012	8b 04 95 00 00
	00 00		 mov	 eax, DWORD PTR ?fn_get_ui_object_text@@3PAP6GPBDPAUUI_OBJECT@@@ZA[edx*4]
  00019	ff d0		 call	 eax
  0001b	89 45 d8	 mov	 DWORD PTR _text$[ebp], eax

; 1055 : 
; 1056 : 	object = (ui_object *) get_ui_object_item_number (obj);

  0001e	8b 45 08	 mov	 eax, DWORD PTR _obj$[ebp]
  00021	50		 push	 eax
  00022	8b 4d 08	 mov	 ecx, DWORD PTR _obj$[ebp]
  00025	8b 11		 mov	 edx, DWORD PTR [ecx]
  00027	8b 04 95 00 00
	00 00		 mov	 eax, DWORD PTR ?fn_get_ui_object_item_number@@3PAP6GHPAUUI_OBJECT@@@ZA[edx*4]
  0002e	ff d0		 call	 eax
  00030	89 45 d0	 mov	 DWORD PTR _object$[ebp], eax

; 1057 : 
; 1058 : 	if ((text) && (strlen (text) > 0))

  00033	83 7d d8 00	 cmp	 DWORD PTR _text$[ebp], 0
  00037	0f 84 86 00 00
	00		 je	 $LN2@session_na
  0003d	8b 45 d8	 mov	 eax, DWORD PTR _text$[ebp]
  00040	50		 push	 eax
  00041	e8 00 00 00 00	 call	 _strlen
  00046	83 c4 04	 add	 esp, 4
  00049	85 c0		 test	 eax, eax
  0004b	76 76		 jbe	 SHORT $LN2@session_na

; 1059 : 	{
; 1060 : 		copy = ( char * ) malloc_fast_memory ( strlen ( text ) + 30 );

  0004d	8b 45 d8	 mov	 eax, DWORD PTR _text$[ebp]
  00050	50		 push	 eax
  00051	e8 00 00 00 00	 call	 _strlen
  00056	83 c4 04	 add	 esp, 4
  00059	83 c0 1e	 add	 eax, 30			; 0000001eH
  0005c	50		 push	 eax
  0005d	e8 00 00 00 00	 call	 ?malloc_fast_memory@@YGPAXI@Z ; malloc_fast_memory
  00062	89 45 d4	 mov	 DWORD PTR _copy$[ebp], eax

; 1061 : 		strcpy ( copy, text );

  00065	8b 45 d8	 mov	 eax, DWORD PTR _text$[ebp]
  00068	50		 push	 eax
  00069	8b 4d d4	 mov	 ecx, DWORD PTR _copy$[ebp]
  0006c	51		 push	 ecx
  0006d	e8 00 00 00 00	 call	 _strcpy
  00072	83 c4 08	 add	 esp, 8

; 1062 : 
; 1063 : 		parse_filename (copy, 30);

  00075	6a 1e		 push	 30			; 0000001eH
  00077	8b 45 d4	 mov	 eax, DWORD PTR _copy$[ebp]
  0007a	50		 push	 eax
  0007b	e8 00 00 00 00	 call	 ?parse_filename@@YGXPADH@Z ; parse_filename

; 1064 : 
; 1065 : 		strcpy (limited_name, copy);

  00080	8b 45 d4	 mov	 eax, DWORD PTR _copy$[ebp]
  00083	50		 push	 eax
  00084	8d 4d dc	 lea	 ecx, DWORD PTR _limited_name$[ebp]
  00087	51		 push	 ecx
  00088	e8 00 00 00 00	 call	 _strcpy
  0008d	83 c4 08	 add	 esp, 8

; 1066 : 
; 1067 : 		set_ui_object_text (object, limited_name);

  00090	8d 45 dc	 lea	 eax, DWORD PTR _limited_name$[ebp]
  00093	50		 push	 eax
  00094	8b 4d d0	 mov	 ecx, DWORD PTR _object$[ebp]
  00097	51		 push	 ecx
  00098	8b 55 d0	 mov	 edx, DWORD PTR _object$[ebp]
  0009b	8b 02		 mov	 eax, DWORD PTR [edx]
  0009d	8b 0c 85 00 00
	00 00		 mov	 ecx, DWORD PTR ?fn_set_ui_object_text@@3PAP6GXPAUUI_OBJECT@@PBD@ZA[eax*4]
  000a4	ff d1		 call	 ecx

; 1068 : 	
; 1069 : 		set_ui_object_drawable (object, TRUE);

  000a6	6a 01		 push	 1
  000a8	8b 45 d0	 mov	 eax, DWORD PTR _object$[ebp]
  000ab	50		 push	 eax
  000ac	8b 4d d0	 mov	 ecx, DWORD PTR _object$[ebp]
  000af	8b 11		 mov	 edx, DWORD PTR [ecx]
  000b1	8b 04 95 00 00
	00 00		 mov	 eax, DWORD PTR ?fn_set_ui_object_drawable@@3PAP6GXPAUUI_OBJECT@@H@ZA[edx*4]
  000b8	ff d0		 call	 eax

; 1070 : 
; 1071 : 		free_mem ( copy );

  000ba	8b 45 d4	 mov	 eax, DWORD PTR _copy$[ebp]
  000bd	50		 push	 eax
  000be	e8 00 00 00 00	 call	 ?free_mem@@YGXPAX@Z	; free_mem
$LN2@session_na:

; 1072 : 	}
; 1073 : 
; 1074 : 	set_ui_object_drawable (session_name_entry_area, FALSE);

  000c3	6a 00		 push	 0
  000c5	a1 00 00 00 00	 mov	 eax, DWORD PTR ?session_name_entry_area@@3PAUUI_OBJECT@@A ; session_name_entry_area
  000ca	50		 push	 eax
  000cb	8b 0d 00 00 00
	00		 mov	 ecx, DWORD PTR ?session_name_entry_area@@3PAUUI_OBJECT@@A ; session_name_entry_area
  000d1	8b 11		 mov	 edx, DWORD PTR [ecx]
  000d3	8b 04 95 00 00
	00 00		 mov	 eax, DWORD PTR ?fn_set_ui_object_drawable@@3PAP6GXPAUUI_OBJECT@@H@ZA[edx*4]
  000da	ff d0		 call	 eax

; 1075 : 
; 1076 : 	rename_session ();

  000dc	e8 00 00 00 00	 call	 ?rename_session@@YGXXZ	; rename_session

; 1077 : }

  000e1	5f		 pop	 edi
  000e2	5e		 pop	 esi
  000e3	5b		 pop	 ebx
  000e4	8b e5		 mov	 esp, ebp
  000e6	5d		 pop	 ebp
  000e7	c2 08 00	 ret	 8
?session_name_input_function@@YGXPAUUI_OBJECT@@PAX@Z ENDP ; session_name_input_function
_TEXT	ENDS
; Function compile flags: /Odtp /ZI
; File c:\users\nhv90\projects\eech\aphavoc\source\ui_menu\session\uisess_fn.c
;	COMDAT ?session_list_rescan_function@@YGXPAUUI_OBJECT@@PAX@Z
_TEXT	SEGMENT
_text$ = -80						; size = 64
_re_highlight_flag$ = -16				; size = 4
_selected_obj$ = -12					; size = 4
_new_session_list$ = -8					; size = 4
_new_session$ = -4					; size = 4
_obj$ = 8						; size = 4
_arg$ = 12						; size = 4
?session_list_rescan_function@@YGXPAUUI_OBJECT@@PAX@Z PROC ; session_list_rescan_function, COMDAT

; 656  : {

  00000	55		 push	 ebp
  00001	8b ec		 mov	 ebp, esp
  00003	81 ec 90 00 00
	00		 sub	 esp, 144		; 00000090H
  00009	53		 push	 ebx
  0000a	56		 push	 esi
  0000b	57		 push	 edi

; 657  : 
; 658  : 	session_list_data_type
; 659  : 		*new_session,
; 660  : 		*new_session_list;
; 661  : 
; 662  : 	ui_object
; 663  : 		*selected_obj;
; 664  : 
; 665  : 	int
; 666  : 		re_highlight_flag;
; 667  : 
; 668  : 	char
; 669  : 		text [64];
; 670  : 
; 671  : 	//
; 672  : 	// store title of current selected session to allow us to re-highlight after build
; 673  : 	//
; 674  : 
; 675  : 	re_highlight_flag = FALSE;

  0000c	c7 45 f0 00 00
	00 00		 mov	 DWORD PTR _re_highlight_flag$[ebp], 0

; 676  : 
; 677  : 	selected_obj = get_ui_object_child (session_list);

  00013	a1 00 00 00 00	 mov	 eax, DWORD PTR ?session_list@@3PAUUI_OBJECT@@A ; session_list
  00018	50		 push	 eax
  00019	8b 0d 00 00 00
	00		 mov	 ecx, DWORD PTR ?session_list@@3PAUUI_OBJECT@@A ; session_list
  0001f	8b 11		 mov	 edx, DWORD PTR [ecx]
  00021	8b 04 95 00 00
	00 00		 mov	 eax, DWORD PTR ?fn_get_ui_object_child@@3PAP6GPAUUI_OBJECT@@PAU1@@ZA[edx*4]
  00028	ff d0		 call	 eax
  0002a	89 45 f4	 mov	 DWORD PTR _selected_obj$[ebp], eax
$LN2@session_li:

; 678  : 
; 679  : 	while (selected_obj)

  0002d	83 7d f4 00	 cmp	 DWORD PTR _selected_obj$[ebp], 0
  00031	74 59		 je	 SHORT $LN3@session_li

; 680  : 	{
; 681  : 
; 682  : 		if (get_ui_object_state (selected_obj) == UI_OBJECT_STATE_ON)

  00033	8b 45 f4	 mov	 eax, DWORD PTR _selected_obj$[ebp]
  00036	50		 push	 eax
  00037	8b 4d f4	 mov	 ecx, DWORD PTR _selected_obj$[ebp]
  0003a	8b 11		 mov	 edx, DWORD PTR [ecx]
  0003c	8b 04 95 00 00
	00 00		 mov	 eax, DWORD PTR ?fn_get_ui_object_state@@3PAP6GHPAUUI_OBJECT@@@ZA[edx*4]
  00043	ff d0		 call	 eax
  00045	83 f8 01	 cmp	 eax, 1
  00048	75 2b		 jne	 SHORT $LN8@session_li

; 683  : 		{
; 684  : 
; 685  : 			re_highlight_flag = TRUE;

  0004a	c7 45 f0 01 00
	00 00		 mov	 DWORD PTR _re_highlight_flag$[ebp], 1

; 686  : 
; 687  : 			strncpy (text, get_ui_object_text (selected_obj), 63);

  00051	6a 3f		 push	 63			; 0000003fH
  00053	8b 45 f4	 mov	 eax, DWORD PTR _selected_obj$[ebp]
  00056	50		 push	 eax
  00057	8b 4d f4	 mov	 ecx, DWORD PTR _selected_obj$[ebp]
  0005a	8b 11		 mov	 edx, DWORD PTR [ecx]
  0005c	8b 04 95 00 00
	00 00		 mov	 eax, DWORD PTR ?fn_get_ui_object_text@@3PAP6GPBDPAUUI_OBJECT@@@ZA[edx*4]
  00063	ff d0		 call	 eax
  00065	50		 push	 eax
  00066	8d 4d b0	 lea	 ecx, DWORD PTR _text$[ebp]
  00069	51		 push	 ecx
  0006a	ff 15 00 00 00
	00		 call	 DWORD PTR __imp__strncpy
  00070	83 c4 0c	 add	 esp, 12			; 0000000cH

; 688  : 
; 689  : 			break;

  00073	eb 17		 jmp	 SHORT $LN3@session_li
$LN8@session_li:

; 690  : 		}
; 691  : 
; 692  : 		selected_obj = get_ui_object_next (selected_obj);

  00075	8b 45 f4	 mov	 eax, DWORD PTR _selected_obj$[ebp]
  00078	50		 push	 eax
  00079	8b 4d f4	 mov	 ecx, DWORD PTR _selected_obj$[ebp]
  0007c	8b 11		 mov	 edx, DWORD PTR [ecx]
  0007e	8b 04 95 00 00
	00 00		 mov	 eax, DWORD PTR ?fn_get_ui_object_next@@3PAP6GPAUUI_OBJECT@@PAU1@@ZA[edx*4]
  00085	ff d0		 call	 eax
  00087	89 45 f4	 mov	 DWORD PTR _selected_obj$[ebp], eax

; 693  : 	}

  0008a	eb a1		 jmp	 SHORT $LN2@session_li
$LN3@session_li:

; 694  : 
; 695  : 	//
; 696  : 	// list all sessions
; 697  : 	// Generate new session list, find current_game_session, set current_game_session ptr up
; 698  : 	// destory old list.
; 699  : 	//
; 700  : 
; 701  : 	new_session_list = NULL;

  0008c	c7 45 f8 00 00
	00 00		 mov	 DWORD PTR _new_session_list$[ebp], 0

; 702  : 
; 703  : 	if (session_filter [get_game_type ()] & SESSION_LIST_TYPE_HOST)

  00093	a1 00 00 00 00	 mov	 eax, DWORD PTR ?game_type@@3W4GAME_TYPES@@A ; game_type
  00098	8b 0c 85 00 00
	00 00		 mov	 ecx, DWORD PTR ?session_filter@@3PAW4SESSION_LIST_TYPES@@A[eax*4]
  0009f	83 e1 01	 and	 ecx, 1
  000a2	74 0e		 je	 SHORT $LN9@session_li

; 704  : 	{
; 705  : 
; 706  : 		update_mouse_pointer ();

  000a4	e8 00 00 00 00	 call	 ?update_mouse_pointer@@YGXXZ ; update_mouse_pointer

; 707  : 
; 708  : 		compile_single_session_list (&new_session_list);

  000a9	8d 45 f8	 lea	 eax, DWORD PTR _new_session_list$[ebp]
  000ac	50		 push	 eax
  000ad	e8 00 00 00 00	 call	 ?compile_single_session_list@@YGXPAPAUSESSION_LIST_DATA_TYPE@@@Z ; compile_single_session_list
$LN9@session_li:

; 709  : 	}
; 710  : 	
; 711  : 	if (session_filter [get_game_type ()] & SESSION_LIST_TYPE_JOIN)

  000b2	a1 00 00 00 00	 mov	 eax, DWORD PTR ?game_type@@3W4GAME_TYPES@@A ; game_type
  000b7	8b 0c 85 00 00
	00 00		 mov	 ecx, DWORD PTR ?session_filter@@3PAW4SESSION_LIST_TYPES@@A[eax*4]
  000be	83 e1 02	 and	 ecx, 2
  000c1	74 18		 je	 SHORT $LN10@session_li

; 712  : 	{
; 713  : 
; 714  : 		update_mouse_pointer ();

  000c3	e8 00 00 00 00	 call	 ?update_mouse_pointer@@YGXXZ ; update_mouse_pointer

; 715  : 
; 716  : 		set_mouse_graphic_off ();

  000c8	e8 00 00 00 00	 call	 ?set_mouse_graphic_off@@YGXXZ ; set_mouse_graphic_off

; 717  : 
; 718  : 		compile_multi_session_list (&new_session_list);

  000cd	8d 45 f8	 lea	 eax, DWORD PTR _new_session_list$[ebp]
  000d0	50		 push	 eax
  000d1	e8 00 00 00 00	 call	 ?compile_multi_session_list@@YGXPAPAUSESSION_LIST_DATA_TYPE@@@Z ; compile_multi_session_list

; 719  : 
; 720  : 		set_mouse_graphic_on ();

  000d6	e8 00 00 00 00	 call	 ?set_mouse_graphic_on@@YGXXZ ; set_mouse_graphic_on
$LN10@session_li:

; 721  : 	}
; 722  : 
; 723  : // Jabberwock 031118 MP bug - "No Games" bug
; 724  : 	
; 725  : 	if (session_filter [get_game_type ()] & SESSION_LIST_TYPE_MASTER)

  000db	a1 00 00 00 00	 mov	 eax, DWORD PTR ?game_type@@3W4GAME_TYPES@@A ; game_type
  000e0	8b 0c 85 00 00
	00 00		 mov	 ecx, DWORD PTR ?session_filter@@3PAW4SESSION_LIST_TYPES@@A[eax*4]
  000e7	83 e1 08	 and	 ecx, 8
  000ea	74 18		 je	 SHORT $LN11@session_li

; 726  : 	{
; 727  : 
; 728  : 		update_mouse_pointer ();

  000ec	e8 00 00 00 00	 call	 ?update_mouse_pointer@@YGXXZ ; update_mouse_pointer

; 729  : 
; 730  : 		set_mouse_graphic_off ();

  000f1	e8 00 00 00 00	 call	 ?set_mouse_graphic_off@@YGXXZ ; set_mouse_graphic_off

; 731  : 
; 732  : 		compile_multi_session_list (&new_session_list);

  000f6	8d 45 f8	 lea	 eax, DWORD PTR _new_session_list$[ebp]
  000f9	50		 push	 eax
  000fa	e8 00 00 00 00	 call	 ?compile_multi_session_list@@YGXPAPAUSESSION_LIST_DATA_TYPE@@@Z ; compile_multi_session_list

; 733  : 
; 734  : 		set_mouse_graphic_on ();

  000ff	e8 00 00 00 00	 call	 ?set_mouse_graphic_on@@YGXXZ ; set_mouse_graphic_on
$LN11@session_li:

; 735  : 	}
; 736  : 	
; 737  : // Jabberwock 031118 MP bug ends
; 738  : /*
; 739  : // Jabberwock 031210 Session filter 
; 740  : 
; 741  : 	if (session_filter [get_game_type ()] & SESSION_LIST_TYPE_FILTER)
; 742  : 	{
; 743  : 
; 744  : 		update_mouse_pointer ();
; 745  : 
; 746  : 		set_mouse_graphic_off ();
; 747  : 
; 748  : 		compile_single_session_list (&new_session_list);
; 749  : 
; 750  : 		set_mouse_graphic_on ();
; 751  : 	}*/
; 752  : 
; 753  : // Jabberwock 031210 ends
; 754  : 
; 755  : 	if (session_filter [get_game_type ()] & SESSION_LIST_TYPE_RESTORE)

  00104	a1 00 00 00 00	 mov	 eax, DWORD PTR ?game_type@@3W4GAME_TYPES@@A ; game_type
  00109	8b 0c 85 00 00
	00 00		 mov	 ecx, DWORD PTR ?session_filter@@3PAW4SESSION_LIST_TYPES@@A[eax*4]
  00110	83 e1 04	 and	 ecx, 4
  00113	74 0e		 je	 SHORT $LN12@session_li

; 756  : 	{
; 757  : 
; 758  : 		update_mouse_pointer ();

  00115	e8 00 00 00 00	 call	 ?update_mouse_pointer@@YGXXZ ; update_mouse_pointer

; 759  : 
; 760  : 		compile_restore_session_list (&new_session_list);

  0011a	8d 45 f8	 lea	 eax, DWORD PTR _new_session_list$[ebp]
  0011d	50		 push	 eax
  0011e	e8 00 00 00 00	 call	 ?compile_restore_session_list@@YGXPAPAUSESSION_LIST_DATA_TYPE@@@Z ; compile_restore_session_list
$LN12@session_li:

; 761  : 	}
; 762  : 
; 763  : 	if (get_valid_current_game_session ())

  00123	83 3d 00 00 00
	00 00		 cmp	 DWORD PTR ?current_game_session@@3PAUSESSION_LIST_DATA_TYPE@@A, 0 ; current_game_session
  0012a	74 5f		 je	 SHORT $LN13@session_li

; 764  : 	{
; 765  : 
; 766  : 		// find new current_game_session
; 767  : 	
; 768  : 		new_session = new_session_list;

  0012c	8b 45 f8	 mov	 eax, DWORD PTR _new_session_list$[ebp]
  0012f	89 45 fc	 mov	 DWORD PTR _new_session$[ebp], eax
$LN4@session_li:

; 769  : 	
; 770  : 		while (new_session)

  00132	83 7d fc 00	 cmp	 DWORD PTR _new_session$[ebp], 0
  00136	74 3d		 je	 SHORT $LN5@session_li

; 771  : 		{
; 772  : 	
; 773  : 			if (strcmp (new_session->title, current_game_session->title) == 0)

  00138	a1 00 00 00 00	 mov	 eax, DWORD PTR ?current_game_session@@3PAUSESSION_LIST_DATA_TYPE@@A ; current_game_session
  0013d	8b 48 04	 mov	 ecx, DWORD PTR [eax+4]
  00140	51		 push	 ecx
  00141	8b 55 fc	 mov	 edx, DWORD PTR _new_session$[ebp]
  00144	8b 42 04	 mov	 eax, DWORD PTR [edx+4]
  00147	50		 push	 eax
  00148	e8 00 00 00 00	 call	 _strcmp
  0014d	83 c4 08	 add	 esp, 8
  00150	85 c0		 test	 eax, eax
  00152	75 13		 jne	 SHORT $LN14@session_li

; 774  : 			{
; 775  : 	
; 776  : 				set_current_game_session (new_session);

  00154	8b 45 fc	 mov	 eax, DWORD PTR _new_session$[ebp]
  00157	50		 push	 eax
  00158	e8 00 00 00 00	 call	 ?set_current_game_session@@YGXPAUSESSION_LIST_DATA_TYPE@@@Z ; set_current_game_session

; 777  : 
; 778  : 				session_child_head = new_session;

  0015d	8b 45 fc	 mov	 eax, DWORD PTR _new_session$[ebp]
  00160	a3 00 00 00 00	 mov	 DWORD PTR ?session_child_head@@3PAUSESSION_LIST_DATA_TYPE@@A, eax ; session_child_head

; 779  : 	
; 780  : 				break;

  00165	eb 0e		 jmp	 SHORT $LN5@session_li
$LN14@session_li:

; 781  : 			}
; 782  : 	
; 783  : 			new_session = new_session->next;

  00167	8b 45 fc	 mov	 eax, DWORD PTR _new_session$[ebp]
  0016a	8b 88 a4 02 00
	00		 mov	 ecx, DWORD PTR [eax+676]
  00170	89 4d fc	 mov	 DWORD PTR _new_session$[ebp], ecx

; 784  : 		}

  00173	eb bd		 jmp	 SHORT $LN4@session_li
$LN5@session_li:

; 785  : 
; 786  : 		if (!get_current_game_session ())

  00175	83 3d 00 00 00
	00 00		 cmp	 DWORD PTR ?current_game_session@@3PAUSESSION_LIST_DATA_TYPE@@A, 0 ; current_game_session
  0017c	75 0d		 jne	 SHORT $LN13@session_li

; 787  : 		{
; 788  : 	
; 789  : 			debug_log ("SESS_FN: session on longer exists");

  0017e	68 00 00 00 00	 push	 OFFSET ??_C@_0CC@EBOHEHIN@SESS_FN?3?5session?5on?5longer?5exis@
  00183	e8 00 00 00 00	 call	 ?debug_log@@YAXPBDZZ	; debug_log
  00188	83 c4 04	 add	 esp, 4
$LN13@session_li:

; 790  : 		}
; 791  : 	}
; 792  : 
; 793  : 	// destroy old list
; 794  : 
; 795  : 	destroy_session_list (&session_list_head);

  0018b	68 00 00 00 00	 push	 OFFSET ?session_list_head@@3PAUSESSION_LIST_DATA_TYPE@@A ; session_list_head
  00190	e8 00 00 00 00	 call	 ?destroy_session_list@@YGXPAPAUSESSION_LIST_DATA_TYPE@@@Z ; destroy_session_list

; 796  : 
; 797  : 	// reassign list
; 798  : 
; 799  : 	session_list_head = new_session_list;

  00195	8b 45 f8	 mov	 eax, DWORD PTR _new_session_list$[ebp]
  00198	a3 00 00 00 00	 mov	 DWORD PTR ?session_list_head@@3PAUSESSION_LIST_DATA_TYPE@@A, eax ; session_list_head

; 800  : 
; 801  : 	//
; 802  : 	// Re-highlight selected object
; 803  : 	//
; 804  : 
; 805  : 	build_session_list ();

  0019d	e8 00 00 00 00	 call	 ?build_session_list@@YGXXZ ; build_session_list

; 806  : 
; 807  : 	if (re_highlight_flag)

  001a2	83 7d f0 00	 cmp	 DWORD PTR _re_highlight_flag$[ebp], 0
  001a6	74 73		 je	 SHORT $LN1@session_li

; 808  : 	{
; 809  : 
; 810  : 		selected_obj = get_ui_object_child (session_list);

  001a8	a1 00 00 00 00	 mov	 eax, DWORD PTR ?session_list@@3PAUUI_OBJECT@@A ; session_list
  001ad	50		 push	 eax
  001ae	8b 0d 00 00 00
	00		 mov	 ecx, DWORD PTR ?session_list@@3PAUUI_OBJECT@@A ; session_list
  001b4	8b 11		 mov	 edx, DWORD PTR [ecx]
  001b6	8b 04 95 00 00
	00 00		 mov	 eax, DWORD PTR ?fn_get_ui_object_child@@3PAP6GPAUUI_OBJECT@@PAU1@@ZA[edx*4]
  001bd	ff d0		 call	 eax
  001bf	89 45 f4	 mov	 DWORD PTR _selected_obj$[ebp], eax
$LN6@session_li:

; 811  : 
; 812  : 		while (selected_obj)

  001c2	83 7d f4 00	 cmp	 DWORD PTR _selected_obj$[ebp], 0
  001c6	74 53		 je	 SHORT $LN1@session_li

; 813  : 		{
; 814  : 
; 815  : 			if (strncmp (text, get_ui_object_text (selected_obj), 63) == 0)

  001c8	6a 3f		 push	 63			; 0000003fH
  001ca	8b 45 f4	 mov	 eax, DWORD PTR _selected_obj$[ebp]
  001cd	50		 push	 eax
  001ce	8b 4d f4	 mov	 ecx, DWORD PTR _selected_obj$[ebp]
  001d1	8b 11		 mov	 edx, DWORD PTR [ecx]
  001d3	8b 04 95 00 00
	00 00		 mov	 eax, DWORD PTR ?fn_get_ui_object_text@@3PAP6GPBDPAUUI_OBJECT@@@ZA[edx*4]
  001da	ff d0		 call	 eax
  001dc	50		 push	 eax
  001dd	8d 4d b0	 lea	 ecx, DWORD PTR _text$[ebp]
  001e0	51		 push	 ecx
  001e1	ff 15 00 00 00
	00		 call	 DWORD PTR __imp__strncmp
  001e7	83 c4 0c	 add	 esp, 12			; 0000000cH
  001ea	85 c0		 test	 eax, eax
  001ec	75 16		 jne	 SHORT $LN17@session_li

; 816  : 			{
; 817  : 
; 818  : 				set_ui_object_state (selected_obj, UI_OBJECT_STATE_ON);

  001ee	6a 01		 push	 1
  001f0	8b 45 f4	 mov	 eax, DWORD PTR _selected_obj$[ebp]
  001f3	50		 push	 eax
  001f4	8b 4d f4	 mov	 ecx, DWORD PTR _selected_obj$[ebp]
  001f7	8b 11		 mov	 edx, DWORD PTR [ecx]
  001f9	8b 04 95 00 00
	00 00		 mov	 eax, DWORD PTR ?fn_set_ui_object_state@@3PAP6GXPAUUI_OBJECT@@H@ZA[edx*4]
  00200	ff d0		 call	 eax

; 819  : 
; 820  : 				break;

  00202	eb 17		 jmp	 SHORT $LN1@session_li
$LN17@session_li:

; 821  : 			}
; 822  : 			
; 823  : 			selected_obj = get_ui_object_next (selected_obj);

  00204	8b 45 f4	 mov	 eax, DWORD PTR _selected_obj$[ebp]
  00207	50		 push	 eax
  00208	8b 4d f4	 mov	 ecx, DWORD PTR _selected_obj$[ebp]
  0020b	8b 11		 mov	 edx, DWORD PTR [ecx]
  0020d	8b 04 95 00 00
	00 00		 mov	 eax, DWORD PTR ?fn_get_ui_object_next@@3PAP6GPAUUI_OBJECT@@PAU1@@ZA[edx*4]
  00214	ff d0		 call	 eax
  00216	89 45 f4	 mov	 DWORD PTR _selected_obj$[ebp], eax

; 824  : 		}

  00219	eb a7		 jmp	 SHORT $LN6@session_li
$LN1@session_li:

; 825  : 	}
; 826  : 
; 827  : 	// debug
; 828  : 	/*
; 829  : 	{
; 830  : 
; 831  : 		static int
; 832  : 			count = 0;
; 833  : 
; 834  : 		char
; 835  : 			buffer [32];
; 836  : 
; 837  : 		sprintf (buffer, "test %d", count ++);
; 838  : 
; 839  : 		add_to_pop_up_list (buffer, slider_test_list, NULL, 0, UI_FONT_ARIAL_18, &ui_colour_white);
; 840  : 	}
; 841  : 	*/
; 842  : 	// debug
; 843  : }

  0021b	5f		 pop	 edi
  0021c	5e		 pop	 esi
  0021d	5b		 pop	 ebx
  0021e	8b e5		 mov	 esp, ebp
  00220	5d		 pop	 ebp
  00221	c2 08 00	 ret	 8
?session_list_rescan_function@@YGXPAUUI_OBJECT@@PAX@Z ENDP ; session_list_rescan_function
_TEXT	ENDS
; Function compile flags: /Odtp /ZI
; File c:\users\nhv90\projects\eech\aphavoc\source\ui_menu\session\uisess_fn.c
;	COMDAT ?session_update_session_list@@YGXXZ
_TEXT	SEGMENT
_game_update_time$ = -4					; size = 4
?session_update_session_list@@YGXXZ PROC		; session_update_session_list, COMDAT

; 612  : {

  00000	55		 push	 ebp
  00001	8b ec		 mov	 ebp, esp
  00003	83 ec 44	 sub	 esp, 68			; 00000044H
  00006	53		 push	 ebx
  00007	56		 push	 esi
  00008	57		 push	 edi

; 613  : 
; 614  : 	int
; 615  : 		game_update_time;
; 616  : 
; 617  : 	static unsigned int
; 618  : 		update_ticks = 0;
; 619  : 
; 620  : 	if (!get_pack_buffer ())

  00009	83 3d 00 00 00
	00 00		 cmp	 DWORD PTR ?current_pack_buffer@@3PAUPACK_BUFFER@@A, 0 ; current_pack_buffer
  00010	75 12		 jne	 SHORT $LN2@session_up

; 621  : 	{
; 622  : 
; 623  : 		open_pack_buffer (tx_pack_buffer, command_line_comms_pack_buffer_size);

  00012	a1 00 00 00 00	 mov	 eax, DWORD PTR ?command_line_comms_pack_buffer_size@@3HA ; command_line_comms_pack_buffer_size
  00017	50		 push	 eax
  00018	8b 0d 00 00 00
	00		 mov	 ecx, DWORD PTR ?tx_pack_buffer@@3PAEA ; tx_pack_buffer
  0001e	51		 push	 ecx
  0001f	e8 00 00 00 00	 call	 ?open_pack_buffer@@YGXPAEH@Z ; open_pack_buffer
$LN2@session_up:

; 624  : 	}
; 625  : 
; 626  : 	game_update_time = TIME_2_SECOND;

  00024	c7 45 fc d0 07
	00 00		 mov	 DWORD PTR _game_update_time$[ebp], 2000 ; 000007d0H

; 627  : 
; 628  : 	if (update_ticks < get_system_time ())

  0002b	e8 00 00 00 00	 call	 ?get_system_time@@YGIXZ	; get_system_time
  00030	39 05 00 00 00
	00		 cmp	 DWORD PTR ?update_ticks@?1??session_update_session_list@@YGXXZ@4IA, eax
  00036	73 46		 jae	 SHORT $LN1@session_up

; 629  : 	{
; 630  : 
; 631  : 		#if DEBUG_MODULE
; 632  : 
; 633  : 		debug_log ("SESSION: update session list");
; 634  : 
; 635  : 		#endif
; 636  : 
; 637  : 		data_exchange ();

  00038	e8 00 00 00 00	 call	 ?data_exchange@@YGXXZ	; data_exchange

; 638  : 
; 639  : 		session_list_rescan_function (NULL, NULL);

  0003d	6a 00		 push	 0
  0003f	6a 00		 push	 0
  00041	e8 00 00 00 00	 call	 ?session_list_rescan_function@@YGXPAUUI_OBJECT@@PAX@Z ; session_list_rescan_function

; 640  : 
; 641  : 		num_multiplayer_refreshes++;

  00046	a1 00 00 00 00	 mov	 eax, DWORD PTR ?num_multiplayer_refreshes@@3HA ; num_multiplayer_refreshes
  0004b	83 c0 01	 add	 eax, 1
  0004e	a3 00 00 00 00	 mov	 DWORD PTR ?num_multiplayer_refreshes@@3HA, eax ; num_multiplayer_refreshes

; 642  : 
; 643  : 		update_ticks = get_system_time () + game_update_time;

  00053	e8 00 00 00 00	 call	 ?get_system_time@@YGIXZ	; get_system_time
  00058	03 45 fc	 add	 eax, DWORD PTR _game_update_time$[ebp]
  0005b	a3 00 00 00 00	 mov	 DWORD PTR ?update_ticks@?1??session_update_session_list@@YGXXZ@4IA, eax

; 644  : 
; 645  : 		set_delta_time ();

  00060	e8 00 00 00 00	 call	 ?set_delta_time@@YGXXZ	; set_delta_time

; 646  : 
; 647  : 		set_ui_object_redraw (session_screen, TRUE);

  00065	6a 01		 push	 1
  00067	a1 00 00 00 00	 mov	 eax, DWORD PTR ?session_screen@@3PAUUI_OBJECT@@A ; session_screen
  0006c	50		 push	 eax
  0006d	8b 0d 00 00 00
	00		 mov	 ecx, DWORD PTR ?session_screen@@3PAUUI_OBJECT@@A ; session_screen
  00073	8b 11		 mov	 edx, DWORD PTR [ecx]
  00075	8b 04 95 00 00
	00 00		 mov	 eax, DWORD PTR ?fn_set_ui_object_redraw@@3PAP6GXPAUUI_OBJECT@@H@ZA[edx*4]
  0007c	ff d0		 call	 eax
$LN1@session_up:

; 648  : 	}
; 649  : }

  0007e	5f		 pop	 edi
  0007f	5e		 pop	 esi
  00080	5b		 pop	 ebx
  00081	8b e5		 mov	 esp, ebp
  00083	5d		 pop	 ebp
  00084	c3		 ret	 0
?session_update_session_list@@YGXXZ ENDP		; session_update_session_list
_TEXT	ENDS
; Function compile flags: /Odtp /ZI
; File c:\users\nhv90\projects\eech\aphavoc\source\ui_menu\session\uisess_fn.c
;	COMDAT ?session_list_function@@YGXPAUUI_OBJECT@@PAX@Z
_TEXT	SEGMENT
tv89 = -80						; size = 4
_slider$1 = -12						; size = 4
_selection$ = -8					; size = 4
_current_session_list$ = -4				; size = 4
_obj$ = 8						; size = 4
_arg$ = 12						; size = 4
?session_list_function@@YGXPAUUI_OBJECT@@PAX@Z PROC	; session_list_function, COMDAT

; 343  : {

  00000	55		 push	 ebp
  00001	8b ec		 mov	 ebp, esp
  00003	83 ec 50	 sub	 esp, 80			; 00000050H
  00006	53		 push	 ebx
  00007	56		 push	 esi
  00008	57		 push	 edi

; 344  : 
; 345  :    session_list_data_type
; 346  :       *current_session_list;
; 347  : 
; 348  : 	int selection;
; 349  : 	//int num_sessions; // Jabberwock 031210 Session filter
; 350  : 
; 351  : 	if (obj->type == UI_TYPE_LIST_BOX)

  00009	8b 45 08	 mov	 eax, DWORD PTR _obj$[ebp]
  0000c	83 38 0d	 cmp	 DWORD PTR [eax], 13	; 0000000dH
  0000f	75 05		 jne	 SHORT $LN6@session_li

; 352  : 	{
; 353  : 
; 354  : 		return;

  00011	e9 69 02 00 00	 jmp	 $LN1@session_li
$LN6@session_li:

; 355  : 	}
; 356  : 
; 357  : 	//
; 358  : 	// destroy session list ready for next time.
; 359  : 	// Otherwise one item will be selected if you pop to this screen
; 360  : 	//
; 361  : 
; 362  : 	set_ui_object_redraw (session_screen, TRUE);

  00016	6a 01		 push	 1
  00018	a1 00 00 00 00	 mov	 eax, DWORD PTR ?session_screen@@3PAUUI_OBJECT@@A ; session_screen
  0001d	50		 push	 eax
  0001e	8b 0d 00 00 00
	00		 mov	 ecx, DWORD PTR ?session_screen@@3PAUUI_OBJECT@@A ; session_screen
  00024	8b 11		 mov	 edx, DWORD PTR [ecx]
  00026	8b 04 95 00 00
	00 00		 mov	 eax, DWORD PTR ?fn_set_ui_object_redraw@@3PAP6GXPAUUI_OBJECT@@H@ZA[edx*4]
  0002d	ff d0		 call	 eax

; 363  : 
; 364  : 	//
; 365  :    // release the current session
; 366  : 	//
; 367  : 
; 368  :    leave_mission ();

  0002f	e8 00 00 00 00	 call	 ?leave_mission@@YGXXZ	; leave_mission

; 369  : 
; 370  : 	//
; 371  :    // find the session selected
; 372  : 	//
; 373  : 
; 374  :    campaign_selection = (int) arg;

  00034	8b 45 0c	 mov	 eax, DWORD PTR _arg$[ebp]
  00037	a3 00 00 00 00	 mov	 DWORD PTR ?campaign_selection@@3HA, eax ; campaign_selection

; 375  : 
; 376  :    current_session_list = get_session_list ();

  0003c	e8 00 00 00 00	 call	 ?get_session_list@@YGPAUSESSION_LIST_DATA_TYPE@@XZ ; get_session_list
  00041	89 45 fc	 mov	 DWORD PTR _current_session_list$[ebp], eax

; 377  : 
; 378  : 	if (!current_session_list)

  00044	83 7d fc 00	 cmp	 DWORD PTR _current_session_list$[ebp], 0
  00048	75 05		 jne	 SHORT $LN7@session_li

; 379  : 	{
; 380  : 
; 381  : 		return;

  0004a	e9 30 02 00 00	 jmp	 $LN1@session_li
$LN7@session_li:

; 382  : 	}
; 383  : 
; 384  :    selection = campaign_selection;

  0004f	a1 00 00 00 00	 mov	 eax, DWORD PTR ?campaign_selection@@3HA ; campaign_selection
  00054	89 45 f8	 mov	 DWORD PTR _selection$[ebp], eax
$LN2@session_li:

; 385  : 
; 386  :    while (selection > 1)

  00057	83 7d f8 01	 cmp	 DWORD PTR _selection$[ebp], 1
  0005b	7e 22		 jle	 SHORT $LN3@session_li

; 387  :    {
; 388  : 
; 389  : 		if (!current_session_list)

  0005d	83 7d fc 00	 cmp	 DWORD PTR _current_session_list$[ebp], 0
  00061	75 05		 jne	 SHORT $LN8@session_li

; 390  : 		{
; 391  : 
; 392  : 			return;

  00063	e9 17 02 00 00	 jmp	 $LN1@session_li
$LN8@session_li:

; 393  : 		}
; 394  : 
; 395  : 		selection --;

  00068	8b 45 f8	 mov	 eax, DWORD PTR _selection$[ebp]
  0006b	83 e8 01	 sub	 eax, 1
  0006e	89 45 f8	 mov	 DWORD PTR _selection$[ebp], eax

; 396  : 
; 397  :       current_session_list = current_session_list->next;

  00071	8b 45 fc	 mov	 eax, DWORD PTR _current_session_list$[ebp]
  00074	8b 88 a4 02 00
	00		 mov	 ecx, DWORD PTR [eax+676]
  0007a	89 4d fc	 mov	 DWORD PTR _current_session_list$[ebp], ecx

; 398  :    }

  0007d	eb d8		 jmp	 SHORT $LN2@session_li
$LN3@session_li:

; 399  : 
; 400  : 	session_child_head = current_session_list;

  0007f	8b 45 fc	 mov	 eax, DWORD PTR _current_session_list$[ebp]
  00082	a3 00 00 00 00	 mov	 DWORD PTR ?session_child_head@@3PAUSESSION_LIST_DATA_TYPE@@A, eax ; session_child_head

; 401  : 
; 402  : 	set_random_number_seed (campaign_selection);

  00087	a1 00 00 00 00	 mov	 eax, DWORD PTR ?campaign_selection@@3HA ; campaign_selection
  0008c	50		 push	 eax
  0008d	e8 00 00 00 00	 call	 ?set_random_number_seed@@YGXH@Z ; set_random_number_seed

; 403  : 
; 404  : 	//
; 405  :    // process session selected
; 406  : 	//
; 407  : 
; 408  : 	// set session restore function buttons to off
; 409  : 
; 410  : 	set_ui_object_drawable (session_screen_delete_button, FALSE);

  00092	6a 00		 push	 0
  00094	a1 00 00 00 00	 mov	 eax, DWORD PTR ?session_screen_delete_button@@3PAUUI_OBJECT@@A ; session_screen_delete_button
  00099	50		 push	 eax
  0009a	8b 0d 00 00 00
	00		 mov	 ecx, DWORD PTR ?session_screen_delete_button@@3PAUUI_OBJECT@@A ; session_screen_delete_button
  000a0	8b 11		 mov	 edx, DWORD PTR [ecx]
  000a2	8b 04 95 00 00
	00 00		 mov	 eax, DWORD PTR ?fn_set_ui_object_drawable@@3PAP6GXPAUUI_OBJECT@@H@ZA[edx*4]
  000a9	ff d0		 call	 eax

; 411  : 
; 412  : 	set_ui_object_drawable (session_screen_rename_button, FALSE);

  000ab	6a 00		 push	 0
  000ad	a1 00 00 00 00	 mov	 eax, DWORD PTR ?session_screen_rename_button@@3PAUUI_OBJECT@@A ; session_screen_rename_button
  000b2	50		 push	 eax
  000b3	8b 0d 00 00 00
	00		 mov	 ecx, DWORD PTR ?session_screen_rename_button@@3PAUUI_OBJECT@@A ; session_screen_rename_button
  000b9	8b 11		 mov	 edx, DWORD PTR [ecx]
  000bb	8b 04 95 00 00
	00 00		 mov	 eax, DWORD PTR ?fn_set_ui_object_drawable@@3PAP6GXPAUUI_OBJECT@@H@ZA[edx*4]
  000c2	ff d0		 call	 eax

; 413  : 
; 414  :    switch (current_session_list->type)

  000c4	8b 45 fc	 mov	 eax, DWORD PTR _current_session_list$[ebp]
  000c7	8b 48 08	 mov	 ecx, DWORD PTR [eax+8]
  000ca	89 4d b0	 mov	 DWORD PTR tv89[ebp], ecx
  000cd	83 7d b0 10	 cmp	 DWORD PTR tv89[ebp], 16	; 00000010H
  000d1	0f 87 94 01 00
	00		 ja	 $LN17@session_li
  000d7	8b 55 b0	 mov	 edx, DWORD PTR tv89[ebp]
  000da	0f b6 82 00 00
	00 00		 movzx	 eax, BYTE PTR $LN19@session_li[edx]
  000e1	ff 24 85 00 00
	00 00		 jmp	 DWORD PTR $LN20@session_li[eax*4]
$LN9@session_li:

; 415  :    {
; 416  : 
; 417  :       case SESSION_LIST_TYPE_INVALID:
; 418  : 		{
; 419  : 
; 420  : 			debug_fatal ("session invalid");

  000e8	68 00 00 00 00	 push	 OFFSET ??_C@_0BA@GEAIGGEE@session?5invalid@
  000ed	e8 00 00 00 00	 call	 ?debug_fatal@@YAXPBDZZ	; debug_fatal
  000f2	83 c4 04	 add	 esp, 4

; 421  : 
; 422  : 			break;

  000f5	e9 85 01 00 00	 jmp	 $LN4@session_li
$LN10@session_li:

; 423  : 		}
; 424  : 
; 425  :       case SESSION_LIST_TYPE_RESTORE:
; 426  :       {
; 427  : 			#if DEBUG_MODULE
; 428  : 
; 429  : 			debug_log ("session restore");
; 430  : 
; 431  : 			#endif
; 432  : 
; 433  : 			// show delete & rename buttons, hide session parameters
; 434  : 
; 435  : 			set_ui_object_drawable (session_screen_delete_button, TRUE);

  000fa	6a 01		 push	 1
  000fc	a1 00 00 00 00	 mov	 eax, DWORD PTR ?session_screen_delete_button@@3PAUUI_OBJECT@@A ; session_screen_delete_button
  00101	50		 push	 eax
  00102	8b 0d 00 00 00
	00		 mov	 ecx, DWORD PTR ?session_screen_delete_button@@3PAUUI_OBJECT@@A ; session_screen_delete_button
  00108	8b 11		 mov	 edx, DWORD PTR [ecx]
  0010a	8b 04 95 00 00
	00 00		 mov	 eax, DWORD PTR ?fn_set_ui_object_drawable@@3PAP6GXPAUUI_OBJECT@@H@ZA[edx*4]
  00111	ff d0		 call	 eax

; 436  : 
; 437  : 			set_ui_object_drawable (session_screen_rename_button, TRUE);

  00113	6a 01		 push	 1
  00115	a1 00 00 00 00	 mov	 eax, DWORD PTR ?session_screen_rename_button@@3PAUUI_OBJECT@@A ; session_screen_rename_button
  0011a	50		 push	 eax
  0011b	8b 0d 00 00 00
	00		 mov	 ecx, DWORD PTR ?session_screen_rename_button@@3PAUUI_OBJECT@@A ; session_screen_rename_button
  00121	8b 11		 mov	 edx, DWORD PTR [ecx]
  00123	8b 04 95 00 00
	00 00		 mov	 eax, DWORD PTR ?fn_set_ui_object_drawable@@3PAP6GXPAUUI_OBJECT@@H@ZA[edx*4]
  0012a	ff d0		 call	 eax
$LN11@session_li:

; 438  : 
; 439  : 			//
; 440  :          // load session
; 441  :          // intentional follow through..
; 442  : 			//
; 443  :       }
; 444  : 
; 445  :       case SESSION_LIST_TYPE_HOST:
; 446  :       {
; 447  : 
; 448  : 			//
; 449  :          // host a session
; 450  : 			//
; 451  : 
; 452  : 			#if DEBUG_MODULE
; 453  : 
; 454  : 			debug_log ("SESSION: hosting");
; 455  : 
; 456  : 			#endif
; 457  : 
; 458  :             set_comms_model (COMMS_MODEL_SERVER);

  0012c	6a 00		 push	 0
  0012e	e8 00 00 00 00	 call	 ?set_comms_model@@YGXW4COMMS_MODEL_TYPES@@@Z ; set_comms_model

; 459  : 				
; 460  : 			set_current_game_session (current_session_list);

  00133	8b 45 fc	 mov	 eax, DWORD PTR _current_session_list$[ebp]
  00136	50		 push	 eax
  00137	e8 00 00 00 00	 call	 ?set_current_game_session@@YGXPAUSESSION_LIST_DATA_TYPE@@@Z ; set_current_game_session

; 461  : 
; 462  : 			ui_object_destroy_list_items (session_info_list);

  0013c	a1 00 00 00 00	 mov	 eax, DWORD PTR ?session_info_list@@3PAUUI_OBJECT@@A ; session_info_list
  00141	50		 push	 eax
  00142	e8 00 00 00 00	 call	 ?ui_object_destroy_list_items@@YGXPAUUI_OBJECT@@@Z ; ui_object_destroy_list_items

; 463  : 
; 464  : 			set_game_initialisation_phase (GAME_INITIALISATION_PHASE_SCENARIO);

  00147	c7 05 00 00 00
	00 02 00 00 00	 mov	 DWORD PTR ?game_initialisation_phase@@3W4GAME_INITIALISATION_PHASES@@A, 2 ; game_initialisation_phase

; 465  : 
; 466  : 			process_game_initialisation_phases ();

  00151	e8 00 00 00 00	 call	 ?process_game_initialisation_phases@@YGXXZ ; process_game_initialisation_phases

; 467  : 
; 468  : 			//set_game_initialisation_phase (GAME_INITIALISATION_PHASE_SETUP);
; 469  : 
; 470  : 			//process_game_initialisation_phases ();
; 471  : 			
; 472  : 			break;

  00156	e9 24 01 00 00	 jmp	 $LN4@session_li
$LN12@session_li:

; 473  : 		}
; 474  : 
; 475  :       case SESSION_LIST_TYPE_JOIN:
; 476  :       {
; 477  : 
; 478  : 			#if DEBUG_MODULE
; 479  : 
; 480  : 			debug_log ("SESSION: joining");
; 481  : 
; 482  : 			#endif
; 483  : 
; 484  : 			set_comms_model (COMMS_MODEL_CLIENT);

  0015b	6a 01		 push	 1
  0015d	e8 00 00 00 00	 call	 ?set_comms_model@@YGXW4COMMS_MODEL_TYPES@@@Z ; set_comms_model

; 485  : 
; 486  : 			set_current_game_session (current_session_list); // debug, should join actual session..

  00162	8b 45 fc	 mov	 eax, DWORD PTR _current_session_list$[ebp]
  00165	50		 push	 eax
  00166	e8 00 00 00 00	 call	 ?set_current_game_session@@YGXPAUSESSION_LIST_DATA_TYPE@@@Z ; set_current_game_session

; 487  : 
; 488  : 			ui_set_user_function (update_ui_comms);

  0016b	68 00 00 00 00	 push	 OFFSET ?update_ui_comms@@YGXXZ ; update_ui_comms
  00170	e8 00 00 00 00	 call	 ?ui_set_user_function@@YGXP6GXXZ@Z ; ui_set_user_function

; 489  : 
; 490  : 			ui_object_destroy_list_items (session_info_list); // Jabberwock 031118 MP bug - reload list

  00175	a1 00 00 00 00	 mov	 eax, DWORD PTR ?session_info_list@@3PAUUI_OBJECT@@A ; session_info_list
  0017a	50		 push	 eax
  0017b	e8 00 00 00 00	 call	 ?ui_object_destroy_list_items@@YGXPAUUI_OBJECT@@@Z ; ui_object_destroy_list_items

; 491  : 
; 492  : 			set_game_initialisation_phase (GAME_INITIALISATION_PHASE_SCENARIO); // Jabberwock 031118 MP bug - reload list

  00180	c7 05 00 00 00
	00 02 00 00 00	 mov	 DWORD PTR ?game_initialisation_phase@@3W4GAME_INITIALISATION_PHASES@@A, 2 ; game_initialisation_phase

; 493  : 
; 494  : 			process_game_initialisation_phases ();

  0018a	e8 00 00 00 00	 call	 ?process_game_initialisation_phases@@YGXXZ ; process_game_initialisation_phases

; 495  : 
; 496  :          break;

  0018f	e9 eb 00 00 00	 jmp	 $LN4@session_li
$LN13@session_li:

; 497  :       }
; 498  : 
; 499  :       case SESSION_LIST_TYPE_MASTER:
; 500  :       {
; 501  : 			debug_log ("JOININET: Setting ip to %s ...", current_session_list->ip_address);

  00194	8b 45 fc	 mov	 eax, DWORD PTR _current_session_list$[ebp]
  00197	05 9c 01 00 00	 add	 eax, 412		; 0000019cH
  0019c	50		 push	 eax
  0019d	68 00 00 00 00	 push	 OFFSET ??_C@_0BP@CBMNLOOE@JOININET?3?5Setting?5ip?5to?5?$CFs?5?4?4?4@
  001a2	e8 00 00 00 00	 call	 ?debug_log@@YAXPBDZZ	; debug_log
  001a7	83 c4 08	 add	 esp, 8

; 502  : 			//Set the IP, as if we would enter it in the options screen
; 503  : 			sprintf(global_options.ip_address, current_session_list->ip_address);

  001aa	8b 45 fc	 mov	 eax, DWORD PTR _current_session_list$[ebp]
  001ad	05 9c 01 00 00	 add	 eax, 412		; 0000019cH
  001b2	50		 push	 eax
  001b3	68 94 00 00 00	 push	 OFFSET ?global_options@@3UGLOBAL_OPTIONS_DATA@@A+148
  001b8	e8 00 00 00 00	 call	 _sprintf
  001bd	83 c4 08	 add	 esp, 8

; 504  : 
; 505  : // Jabberwock 031126 - Empty box fix
; 506  : 
; 507  : 			set_direct_play_inet_address (current_session_list->ip_address);

  001c0	8b 45 fc	 mov	 eax, DWORD PTR _current_session_list$[ebp]
  001c3	05 9c 01 00 00	 add	 eax, 412		; 0000019cH
  001c8	50		 push	 eax
  001c9	e8 00 00 00 00	 call	 ?set_direct_play_inet_address@@YGXPBD@Z ; set_direct_play_inet_address

; 508  : 			
; 509  : 			set_comms_model (COMMS_MODEL_CLIENT);

  001ce	6a 01		 push	 1
  001d0	e8 00 00 00 00	 call	 ?set_comms_model@@YGXW4COMMS_MODEL_TYPES@@@Z ; set_comms_model

; 510  : 			
; 511  : 			session_list_rescan_function (NULL, NULL); //Jabberwock

  001d5	6a 00		 push	 0
  001d7	6a 00		 push	 0
  001d9	e8 00 00 00 00	 call	 ?session_list_rescan_function@@YGXPAUUI_OBJECT@@PAX@Z ; session_list_rescan_function

; 512  : 			
; 513  : 			ui_set_user_function (session_update_session_list);

  001de	68 00 00 00 00	 push	 OFFSET ?session_update_session_list@@YGXXZ ; session_update_session_list
  001e3	e8 00 00 00 00	 call	 ?ui_set_user_function@@YGXP6GXXZ@Z ; ui_set_user_function

; 514  : 
; 515  : 			break;

  001e8	e9 92 00 00 00	 jmp	 $LN4@session_li
$LN14@session_li:

; 516  : 
; 517  : /*
; 518  : 
; 519  : 			global_options.ip_address[127] = '\0';
; 520  : 
; 521  : 			debug_log ("JOININET: reinitializing dplay...");
; 522  : 
; 523  : 			//Re-Activate DirectPlay
; 524  : 			if (!get_current_game_session ())
; 525  : 			{
; 526  : 				initialise_service_provider_connection ();
; 527  : 			}
; 528  : 
; 529  : 			debug_log ("JOININET: flushing session list...");
; 530  : //			initialise_session_list();
; 531  : 			current_session_list = NULL;
; 532  : 			
; 533  : 			//bail out if we don't find any sessions
; 534  : 			num_sessions = direct_play_enumerate_sessions();
; 535  : 			debug_log ("JOININET: Sessions found: %i", num_sessions);
; 536  : 
; 537  : 			if (num_sessions <= 0)
; 538  : 			  break;
; 539  : 			
; 540  : 			debug_log ("JOININET: getting first session on server...");
; 541  : 			get_first_multi_session(&current_session_list);
; 542  : 
; 543  : 			if (!current_session_list)
; 544  : 			{
; 545  : 			  debug_log ("JOININET: current_session_list is still NULL!");
; 546  : 			  break;
; 547  : 			}
; 548  : 			
; 549  : //			debug_log ("JOININET: resetting current session type...");
; 550  : //			current_session_list->type = SESSION_LIST_TYPE_JOIN;
; 551  : 
; 552  : //			debug_log ("JOININET: setting list = list->next ...");
; 553  : //			current_session_list = current_session_list->next;
; 554  : 
; 555  : 			debug_log ("JOININET: setting head = current ...");
; 556  : 			session_child_head = current_session_list;
; 557  : 
; 558  : 			debug_log ("JOININET: setting comms model...");
; 559  : 			set_comms_model (COMMS_MODEL_CLIENT);
; 560  : 
; 561  : 			debug_log ("JOININET: setting current session...");
; 562  : 			set_current_game_session (current_session_list); // debug, should join actual session..
; 563  : 
; 564  : 			debug_log ("JOININET: update ui comms...");
; 565  : 			ui_set_user_function (update_ui_comms);
; 566  : 
; 567  : 			debug_log ("JOININET: processing game initialisation phases...");
; 568  : 			process_game_initialisation_phases ();
; 569  : 
; 570  : 			debug_log ("JOININET: Done!");
; 571  : 			
; 572  :          break;*/
; 573  :       }
; 574  :       
; 575  :       case SESSION_LIST_TYPE_FILTER:
; 576  : 	  {
; 577  : 	  		if (strcmp(session_filter_value, "root") == 0)

  001ed	68 00 00 00 00	 push	 OFFSET ??_C@_04NBFCGMPH@root@
  001f2	68 00 00 00 00	 push	 OFFSET ?session_filter_value@@3PADA ; session_filter_value
  001f7	e8 00 00 00 00	 call	 _strcmp
  001fc	83 c4 08	 add	 esp, 8
  001ff	85 c0		 test	 eax, eax
  00201	75 1b		 jne	 SHORT $LN15@session_li

; 578  : 			{
; 579  : 				sprintf (session_filter_value, "%s", current_session_list->data_path);

  00203	8b 45 fc	 mov	 eax, DWORD PTR _current_session_list$[ebp]
  00206	83 c0 1c	 add	 eax, 28			; 0000001cH
  00209	50		 push	 eax
  0020a	68 00 00 00 00	 push	 OFFSET ??_C@_02DKCKIIND@?$CFs@
  0020f	68 00 00 00 00	 push	 OFFSET ?session_filter_value@@3PADA ; session_filter_value
  00214	e8 00 00 00 00	 call	 _sprintf
  00219	83 c4 0c	 add	 esp, 12			; 0000000cH

; 580  : 			}
; 581  : 			else

  0021c	eb 17		 jmp	 SHORT $LN16@session_li
$LN15@session_li:

; 582  : 			{
; 583  : 				sprintf (session_filter_value, "%s", "root");

  0021e	68 00 00 00 00	 push	 OFFSET ??_C@_04NBFCGMPH@root@
  00223	68 00 00 00 00	 push	 OFFSET ??_C@_02DKCKIIND@?$CFs@
  00228	68 00 00 00 00	 push	 OFFSET ?session_filter_value@@3PADA ; session_filter_value
  0022d	e8 00 00 00 00	 call	 _sprintf
  00232	83 c4 0c	 add	 esp, 12			; 0000000cH
$LN16@session_li:

; 584  : 			}
; 585  : 	  		
; 586  : 	  		ui_object_destroy_list_items (session_info_list);

  00235	a1 00 00 00 00	 mov	 eax, DWORD PTR ?session_info_list@@3PAUUI_OBJECT@@A ; session_info_list
  0023a	50		 push	 eax
  0023b	e8 00 00 00 00	 call	 ?ui_object_destroy_list_items@@YGXPAUUI_OBJECT@@@Z ; ui_object_destroy_list_items

; 587  : 	  		
; 588  : 	  		session_list_rescan_function (NULL, NULL); //Jabberwock

  00240	6a 00		 push	 0
  00242	6a 00		 push	 0
  00244	e8 00 00 00 00	 call	 ?session_list_rescan_function@@YGXPAUUI_OBJECT@@PAX@Z ; session_list_rescan_function

; 589  : 
; 590  : 			{
; 591  : 				ui_object
; 592  : 					*slider;
; 593  : 				slider = get_ui_object_vslider (session_list_area);

  00249	a1 00 00 00 00	 mov	 eax, DWORD PTR ?session_list_area@@3PAUUI_OBJECT@@A ; session_list_area
  0024e	50		 push	 eax
  0024f	e8 00 00 00 00	 call	 ?get_ui_object_vslider@@YGPAUUI_OBJECT@@PAU1@@Z ; get_ui_object_vslider
  00254	89 45 f4	 mov	 DWORD PTR _slider$1[ebp], eax

; 594  : 				set_ui_object_vslider_virtual_position (slider, 0.0);

  00257	51		 push	 ecx
  00258	0f 57 c0	 xorps	 xmm0, xmm0
  0025b	f3 0f 11 04 24	 movss	 DWORD PTR [esp], xmm0
  00260	8b 45 f4	 mov	 eax, DWORD PTR _slider$1[ebp]
  00263	50		 push	 eax
  00264	e8 00 00 00 00	 call	 ?set_ui_object_vslider_virtual_position@@YGXPAUUI_OBJECT@@M@Z ; set_ui_object_vslider_virtual_position

; 595  : 			}
; 596  : 	  		break;

  00269	eb 14		 jmp	 SHORT $LN4@session_li
$LN17@session_li:

; 597  : 	  }
; 598  : 
; 599  :       default:
; 600  :       {
; 601  : 
; 602  :          debug_fatal ("ERROR: session_list_function, unknown session_type %d", current_session_list->type);

  0026b	8b 45 fc	 mov	 eax, DWORD PTR _current_session_list$[ebp]
  0026e	8b 48 08	 mov	 ecx, DWORD PTR [eax+8]
  00271	51		 push	 ecx
  00272	68 00 00 00 00	 push	 OFFSET ??_C@_0DG@IOFKECEF@ERROR?3?5session_list_function?0?5u@
  00277	e8 00 00 00 00	 call	 ?debug_fatal@@YAXPBDZZ	; debug_fatal
  0027c	83 c4 08	 add	 esp, 8
$LN4@session_li:
$LN1@session_li:

; 603  :       }
; 604  :    }
; 605  : }

  0027f	5f		 pop	 edi
  00280	5e		 pop	 esi
  00281	5b		 pop	 ebx
  00282	8b e5		 mov	 esp, ebp
  00284	5d		 pop	 ebp
  00285	c2 08 00	 ret	 8
$LN20@session_li:
  00288	00 00 00 00	 DD	 $LN9@session_li
  0028c	00 00 00 00	 DD	 $LN11@session_li
  00290	00 00 00 00	 DD	 $LN12@session_li
  00294	00 00 00 00	 DD	 $LN10@session_li
  00298	00 00 00 00	 DD	 $LN13@session_li
  0029c	00 00 00 00	 DD	 $LN14@session_li
  002a0	00 00 00 00	 DD	 $LN17@session_li
$LN19@session_li:
  002a4	00		 DB	 0
  002a5	01		 DB	 1
  002a6	02		 DB	 2
  002a7	06		 DB	 6
  002a8	03		 DB	 3
  002a9	06		 DB	 6
  002aa	06		 DB	 6
  002ab	06		 DB	 6
  002ac	04		 DB	 4
  002ad	06		 DB	 6
  002ae	06		 DB	 6
  002af	06		 DB	 6
  002b0	06		 DB	 6
  002b1	06		 DB	 6
  002b2	06		 DB	 6
  002b3	06		 DB	 6
  002b4	05		 DB	 5
?session_list_function@@YGXPAUUI_OBJECT@@PAX@Z ENDP	; session_list_function
_TEXT	ENDS
; Function compile flags: /Odtp /ZI
; File c:\users\nhv90\projects\eech\aphavoc\source\ui_menu\session\uisess_fn.c
;	COMDAT ?notify_session_back_button@@YGXPAUUI_OBJECT@@PAX@Z
_TEXT	SEGMENT
_obj$ = 8						; size = 4
_arg$ = 12						; size = 4
?notify_session_back_button@@YGXPAUUI_OBJECT@@PAX@Z PROC ; notify_session_back_button, COMDAT

; 190  : {

  00000	55		 push	 ebp
  00001	8b ec		 mov	 ebp, esp
  00003	83 ec 40	 sub	 esp, 64			; 00000040H
  00006	53		 push	 ebx
  00007	56		 push	 esi
  00008	57		 push	 edi

; 191  : 
; 192  : 	if ((int) arg == BUTTON_STATE_DOWN)

  00009	83 7d 0c 02	 cmp	 DWORD PTR _arg$[ebp], 2
  0000d	75 42		 jne	 SHORT $LN2@notify_ses

; 193  : 	{
; 194  : 
; 195  : 		set_ui_object_graphic (obj, (unsigned short int *) get_graphics_file_data (GRAPHICS_UI_APACHE_PLANNER_BACK_BUTTON_SELECTED));

  0000f	b8 28 00 00 00	 mov	 eax, 40			; 00000028H
  00014	69 c8 60 01 00
	00		 imul	 ecx, eax, 352
  0001a	8b 91 1c 00 00
	00		 mov	 edx, DWORD PTR ?graphics_files@@3PAUFILE_DATA@@A[ecx+28]
  00020	52		 push	 edx
  00021	8b 45 08	 mov	 eax, DWORD PTR _obj$[ebp]
  00024	50		 push	 eax
  00025	8b 4d 08	 mov	 ecx, DWORD PTR _obj$[ebp]
  00028	8b 11		 mov	 edx, DWORD PTR [ecx]
  0002a	8b 04 95 00 00
	00 00		 mov	 eax, DWORD PTR ?fn_set_ui_object_graphic@@3PAP6GXPAUUI_OBJECT@@PAG@ZA[edx*4]
  00031	ff d0		 call	 eax

; 196  : 
; 197  : 		set_ui_object_redraw (session_screen, TRUE);

  00033	6a 01		 push	 1
  00035	a1 00 00 00 00	 mov	 eax, DWORD PTR ?session_screen@@3PAUUI_OBJECT@@A ; session_screen
  0003a	50		 push	 eax
  0003b	8b 0d 00 00 00
	00		 mov	 ecx, DWORD PTR ?session_screen@@3PAUUI_OBJECT@@A ; session_screen
  00041	8b 11		 mov	 edx, DWORD PTR [ecx]
  00043	8b 04 95 00 00
	00 00		 mov	 eax, DWORD PTR ?fn_set_ui_object_redraw@@3PAP6GXPAUUI_OBJECT@@H@ZA[edx*4]
  0004a	ff d0		 call	 eax
  0004c	e9 8d 00 00 00	 jmp	 $LN3@notify_ses
$LN2@notify_ses:

; 198  : 	}
; 199  : 	else if ((int) arg == BUTTON_STATE_UP)

  00051	83 7d 0c 01	 cmp	 DWORD PTR _arg$[ebp], 1
  00055	75 4a		 jne	 SHORT $LN4@notify_ses

; 200  : 	{
; 201  : 	
; 202  : 		set_ui_object_graphic (obj, (unsigned short int *) get_graphics_file_data (GRAPHICS_UI_APACHE_PLANNER_BACK_BUTTON_UNSELECTED));

  00057	b8 28 00 00 00	 mov	 eax, 40			; 00000028H
  0005c	69 c8 5f 01 00
	00		 imul	 ecx, eax, 351
  00062	8b 91 1c 00 00
	00		 mov	 edx, DWORD PTR ?graphics_files@@3PAUFILE_DATA@@A[ecx+28]
  00068	52		 push	 edx
  00069	8b 45 08	 mov	 eax, DWORD PTR _obj$[ebp]
  0006c	50		 push	 eax
  0006d	8b 4d 08	 mov	 ecx, DWORD PTR _obj$[ebp]
  00070	8b 11		 mov	 edx, DWORD PTR [ecx]
  00072	8b 04 95 00 00
	00 00		 mov	 eax, DWORD PTR ?fn_set_ui_object_graphic@@3PAP6GXPAUUI_OBJECT@@PAG@ZA[edx*4]
  00079	ff d0		 call	 eax

; 203  : 
; 204  : 		leave_mission ();

  0007b	e8 00 00 00 00	 call	 ?leave_mission@@YGXXZ	; leave_mission

; 205  : 	
; 206  : 		ui_set_user_function (NULL);

  00080	6a 00		 push	 0
  00082	e8 00 00 00 00	 call	 ?ui_set_user_function@@YGXP6GXXZ@Z ; ui_set_user_function

; 207  : 	
; 208  : 		#if DEBUG_MODULE
; 209  : 	
; 210  : 		debug_log ("SESS_FN: closing pack buffer");
; 211  : 		
; 212  : 		#endif
; 213  : 	
; 214  : 		set_game_initialisation_phase (GAME_INITIALISATION_PHASE_GAME_TYPE);

  00087	c7 05 00 00 00
	00 01 00 00 00	 mov	 DWORD PTR ?game_initialisation_phase@@3W4GAME_INITIALISATION_PHASES@@A, 1 ; game_initialisation_phase

; 215  : 		
; 216  : 		game_type_hilight_selection (NULL);

  00091	6a 00		 push	 0
  00093	e8 00 00 00 00	 call	 ?game_type_hilight_selection@@YGXPAUUI_OBJECT@@@Z ; game_type_hilight_selection

; 217  : 	
; 218  : 		pop_ui_screen (SCREEN_POP_ACTUAL);

  00098	6a 00		 push	 0
  0009a	e8 00 00 00 00	 call	 ?pop_ui_screen@@YGXW4SCREEN_POP_TYPES@@@Z ; pop_ui_screen

; 219  : 	}
; 220  : 	else

  0009f	eb 3d		 jmp	 SHORT $LN3@notify_ses
$LN4@notify_ses:

; 221  : 	{
; 222  : 
; 223  : 		set_ui_object_graphic (obj, (unsigned short int *) get_graphics_file_data (GRAPHICS_UI_APACHE_PLANNER_BACK_BUTTON_UNSELECTED));

  000a1	b8 28 00 00 00	 mov	 eax, 40			; 00000028H
  000a6	69 c8 5f 01 00
	00		 imul	 ecx, eax, 351
  000ac	8b 91 1c 00 00
	00		 mov	 edx, DWORD PTR ?graphics_files@@3PAUFILE_DATA@@A[ecx+28]
  000b2	52		 push	 edx
  000b3	8b 45 08	 mov	 eax, DWORD PTR _obj$[ebp]
  000b6	50		 push	 eax
  000b7	8b 4d 08	 mov	 ecx, DWORD PTR _obj$[ebp]
  000ba	8b 11		 mov	 edx, DWORD PTR [ecx]
  000bc	8b 04 95 00 00
	00 00		 mov	 eax, DWORD PTR ?fn_set_ui_object_graphic@@3PAP6GXPAUUI_OBJECT@@PAG@ZA[edx*4]
  000c3	ff d0		 call	 eax

; 224  : 	
; 225  : 		set_ui_object_redraw (session_screen, TRUE);

  000c5	6a 01		 push	 1
  000c7	a1 00 00 00 00	 mov	 eax, DWORD PTR ?session_screen@@3PAUUI_OBJECT@@A ; session_screen
  000cc	50		 push	 eax
  000cd	8b 0d 00 00 00
	00		 mov	 ecx, DWORD PTR ?session_screen@@3PAUUI_OBJECT@@A ; session_screen
  000d3	8b 11		 mov	 edx, DWORD PTR [ecx]
  000d5	8b 04 95 00 00
	00 00		 mov	 eax, DWORD PTR ?fn_set_ui_object_redraw@@3PAP6GXPAUUI_OBJECT@@H@ZA[edx*4]
  000dc	ff d0		 call	 eax
$LN3@notify_ses:

; 226  : 	}
; 227  : 	
; 228  : 	set_ui_object_graphic_type (obj, UI_OBJECT_ALPHA_GRAPHIC);

  000de	6a 03		 push	 3
  000e0	8b 45 08	 mov	 eax, DWORD PTR _obj$[ebp]
  000e3	50		 push	 eax
  000e4	8b 4d 08	 mov	 ecx, DWORD PTR _obj$[ebp]
  000e7	8b 11		 mov	 edx, DWORD PTR [ecx]
  000e9	8b 04 95 00 00
	00 00		 mov	 eax, DWORD PTR ?fn_set_ui_object_graphic_type@@3PAP6GXPAUUI_OBJECT@@H@ZA[edx*4]
  000f0	ff d0		 call	 eax

; 229  : }

  000f2	5f		 pop	 edi
  000f3	5e		 pop	 esi
  000f4	5b		 pop	 ebx
  000f5	8b e5		 mov	 esp, ebp
  000f7	5d		 pop	 ebp
  000f8	c2 08 00	 ret	 8
?notify_session_back_button@@YGXPAUUI_OBJECT@@PAX@Z ENDP ; notify_session_back_button
_TEXT	ENDS
; Function compile flags: /Odtp /ZI
; File c:\users\nhv90\projects\eech\aphavoc\source\ui_menu\session\uisess_fn.c
;	COMDAT ?notify_session_continue_button@@YGXPAUUI_OBJECT@@PAX@Z
_TEXT	SEGMENT
_obj$ = 8						; size = 4
_arg$ = 12						; size = 4
?notify_session_continue_button@@YGXPAUUI_OBJECT@@PAX@Z PROC ; notify_session_continue_button, COMDAT

; 303  : {

  00000	55		 push	 ebp
  00001	8b ec		 mov	 ebp, esp
  00003	83 ec 40	 sub	 esp, 64			; 00000040H
  00006	53		 push	 ebx
  00007	56		 push	 esi
  00008	57		 push	 edi

; 304  : 	if ((int) arg == BUTTON_STATE_DOWN)

  00009	83 7d 0c 02	 cmp	 DWORD PTR _arg$[ebp], 2
  0000d	75 42		 jne	 SHORT $LN2@notify_ses

; 305  : 	{
; 306  : 
; 307  : 		set_ui_object_graphic (obj, (unsigned short int *) get_graphics_file_data (GRAPHICS_UI_APACHE_PLANNER_FORWARD_BUTTON_SELECTED));

  0000f	b8 28 00 00 00	 mov	 eax, 40			; 00000028H
  00014	69 c8 62 01 00
	00		 imul	 ecx, eax, 354
  0001a	8b 91 1c 00 00
	00		 mov	 edx, DWORD PTR ?graphics_files@@3PAUFILE_DATA@@A[ecx+28]
  00020	52		 push	 edx
  00021	8b 45 08	 mov	 eax, DWORD PTR _obj$[ebp]
  00024	50		 push	 eax
  00025	8b 4d 08	 mov	 ecx, DWORD PTR _obj$[ebp]
  00028	8b 11		 mov	 edx, DWORD PTR [ecx]
  0002a	8b 04 95 00 00
	00 00		 mov	 eax, DWORD PTR ?fn_set_ui_object_graphic@@3PAP6GXPAUUI_OBJECT@@PAG@ZA[edx*4]
  00031	ff d0		 call	 eax

; 308  : 
; 309  : 		set_ui_object_redraw (session_screen, TRUE);

  00033	6a 01		 push	 1
  00035	a1 00 00 00 00	 mov	 eax, DWORD PTR ?session_screen@@3PAUUI_OBJECT@@A ; session_screen
  0003a	50		 push	 eax
  0003b	8b 0d 00 00 00
	00		 mov	 ecx, DWORD PTR ?session_screen@@3PAUUI_OBJECT@@A ; session_screen
  00041	8b 11		 mov	 edx, DWORD PTR [ecx]
  00043	8b 04 95 00 00
	00 00		 mov	 eax, DWORD PTR ?fn_set_ui_object_redraw@@3PAP6GXPAUUI_OBJECT@@H@ZA[edx*4]
  0004a	ff d0		 call	 eax
  0004c	e9 85 00 00 00	 jmp	 $LN3@notify_ses
$LN2@notify_ses:

; 310  : 	}
; 311  : 	else if ((int) arg == BUTTON_STATE_UP)

  00051	83 7d 0c 01	 cmp	 DWORD PTR _arg$[ebp], 1
  00055	75 42		 jne	 SHORT $LN4@notify_ses

; 312  : 	{
; 313  : 
; 314  : 		set_ui_object_graphic (obj, (unsigned short int *) get_graphics_file_data (GRAPHICS_UI_APACHE_PLANNER_FORWARD_BUTTON_UNSELECTED));

  00057	b8 28 00 00 00	 mov	 eax, 40			; 00000028H
  0005c	69 c8 61 01 00
	00		 imul	 ecx, eax, 353
  00062	8b 91 1c 00 00
	00		 mov	 edx, DWORD PTR ?graphics_files@@3PAUFILE_DATA@@A[ecx+28]
  00068	52		 push	 edx
  00069	8b 45 08	 mov	 eax, DWORD PTR _obj$[ebp]
  0006c	50		 push	 eax
  0006d	8b 4d 08	 mov	 ecx, DWORD PTR _obj$[ebp]
  00070	8b 11		 mov	 edx, DWORD PTR [ecx]
  00072	8b 04 95 00 00
	00 00		 mov	 eax, DWORD PTR ?fn_set_ui_object_graphic@@3PAP6GXPAUUI_OBJECT@@PAG@ZA[edx*4]
  00079	ff d0		 call	 eax

; 315  : 
; 316  : 		//if (get_valid_current_game_session ())
; 317  : 		{
; 318  : 			if (get_comms_model () == COMMS_MODEL_CLIENT)

  0007b	83 3d 00 00 00
	00 01		 cmp	 DWORD PTR ?system_comms_model@@3W4COMMS_MODEL_TYPES@@A, 1 ; system_comms_model
  00082	75 13		 jne	 SHORT $LN6@notify_ses

; 319  : 			{
; 320  : 				send_packet (get_server_id (), PACKET_TYPE_SETTINGS_REQUEST, NULL, 0, SEND_TYPE_PERSONAL);

  00084	6a 00		 push	 0
  00086	6a 00		 push	 0
  00088	6a 00		 push	 0
  0008a	6a 11		 push	 17			; 00000011H
  0008c	a1 00 00 00 00	 mov	 eax, DWORD PTR ?system_server_id@@3KA ; system_server_id
  00091	50		 push	 eax
  00092	e8 00 00 00 00	 call	 ?send_packet@@YGXKW4PACKET_TYPES@@PAEHW4SEND_TYPES@@@Z ; send_packet
$LN6@notify_ses:

; 321  : 				
; 322  : 			}
; 323  : 		}
; 324  : 	}
; 325  : 	else 

  00097	eb 3d		 jmp	 SHORT $LN3@notify_ses
$LN4@notify_ses:

; 326  : 	{
; 327  : 
; 328  : 		set_ui_object_graphic (obj, (unsigned short int *) get_graphics_file_data (GRAPHICS_UI_APACHE_PLANNER_FORWARD_BUTTON_UNSELECTED));

  00099	b8 28 00 00 00	 mov	 eax, 40			; 00000028H
  0009e	69 c8 61 01 00
	00		 imul	 ecx, eax, 353
  000a4	8b 91 1c 00 00
	00		 mov	 edx, DWORD PTR ?graphics_files@@3PAUFILE_DATA@@A[ecx+28]
  000aa	52		 push	 edx
  000ab	8b 45 08	 mov	 eax, DWORD PTR _obj$[ebp]
  000ae	50		 push	 eax
  000af	8b 4d 08	 mov	 ecx, DWORD PTR _obj$[ebp]
  000b2	8b 11		 mov	 edx, DWORD PTR [ecx]
  000b4	8b 04 95 00 00
	00 00		 mov	 eax, DWORD PTR ?fn_set_ui_object_graphic@@3PAP6GXPAUUI_OBJECT@@PAG@ZA[edx*4]
  000bb	ff d0		 call	 eax

; 329  : 
; 330  : 		set_ui_object_redraw (session_screen, TRUE);

  000bd	6a 01		 push	 1
  000bf	a1 00 00 00 00	 mov	 eax, DWORD PTR ?session_screen@@3PAUUI_OBJECT@@A ; session_screen
  000c4	50		 push	 eax
  000c5	8b 0d 00 00 00
	00		 mov	 ecx, DWORD PTR ?session_screen@@3PAUUI_OBJECT@@A ; session_screen
  000cb	8b 11		 mov	 edx, DWORD PTR [ecx]
  000cd	8b 04 95 00 00
	00 00		 mov	 eax, DWORD PTR ?fn_set_ui_object_redraw@@3PAP6GXPAUUI_OBJECT@@H@ZA[edx*4]
  000d4	ff d0		 call	 eax
$LN3@notify_ses:

; 331  : 	}
; 332  : 
; 333  : 	set_ui_object_graphic_type (obj, UI_OBJECT_ALPHA_GRAPHIC);

  000d6	6a 03		 push	 3
  000d8	8b 45 08	 mov	 eax, DWORD PTR _obj$[ebp]
  000db	50		 push	 eax
  000dc	8b 4d 08	 mov	 ecx, DWORD PTR _obj$[ebp]
  000df	8b 11		 mov	 edx, DWORD PTR [ecx]
  000e1	8b 04 95 00 00
	00 00		 mov	 eax, DWORD PTR ?fn_set_ui_object_graphic_type@@3PAP6GXPAUUI_OBJECT@@H@ZA[edx*4]
  000e8	ff d0		 call	 eax

; 334  : }

  000ea	5f		 pop	 edi
  000eb	5e		 pop	 esi
  000ec	5b		 pop	 ebx
  000ed	8b e5		 mov	 esp, ebp
  000ef	5d		 pop	 ebp
  000f0	c2 08 00	 ret	 8
?notify_session_continue_button@@YGXPAUUI_OBJECT@@PAX@Z ENDP ; notify_session_continue_button
_TEXT	ENDS
; Function compile flags: /Odtp /ZI
; File c:\users\nhv90\projects\eech\aphavoc\source\ui_menu\session\uisess_fn.c
;	COMDAT ?notify_session_next_button@@YGXPAUUI_OBJECT@@PAX@Z
_TEXT	SEGMENT
tv89 = -68						; size = 4
_obj$ = 8						; size = 4
_arg$ = 12						; size = 4
?notify_session_next_button@@YGXPAUUI_OBJECT@@PAX@Z PROC ; notify_session_next_button, COMDAT

; 236  : {

  00000	55		 push	 ebp
  00001	8b ec		 mov	 ebp, esp
  00003	83 ec 44	 sub	 esp, 68			; 00000044H
  00006	53		 push	 ebx
  00007	56		 push	 esi
  00008	57		 push	 edi

; 237  : 
; 238  : 	if ((int) arg == BUTTON_STATE_DOWN)

  00009	83 7d 0c 02	 cmp	 DWORD PTR _arg$[ebp], 2
  0000d	75 42		 jne	 SHORT $LN4@notify_ses

; 239  : 	{
; 240  : 
; 241  : 		set_ui_object_graphic (obj, (unsigned short int *) get_graphics_file_data (GRAPHICS_UI_APACHE_PLANNER_FORWARD_BUTTON_SELECTED));

  0000f	b8 28 00 00 00	 mov	 eax, 40			; 00000028H
  00014	69 c8 62 01 00
	00		 imul	 ecx, eax, 354
  0001a	8b 91 1c 00 00
	00		 mov	 edx, DWORD PTR ?graphics_files@@3PAUFILE_DATA@@A[ecx+28]
  00020	52		 push	 edx
  00021	8b 45 08	 mov	 eax, DWORD PTR _obj$[ebp]
  00024	50		 push	 eax
  00025	8b 4d 08	 mov	 ecx, DWORD PTR _obj$[ebp]
  00028	8b 11		 mov	 edx, DWORD PTR [ecx]
  0002a	8b 04 95 00 00
	00 00		 mov	 eax, DWORD PTR ?fn_set_ui_object_graphic@@3PAP6GXPAUUI_OBJECT@@PAG@ZA[edx*4]
  00031	ff d0		 call	 eax

; 242  : 
; 243  : 		set_ui_object_redraw (session_screen, TRUE);

  00033	6a 01		 push	 1
  00035	a1 00 00 00 00	 mov	 eax, DWORD PTR ?session_screen@@3PAUUI_OBJECT@@A ; session_screen
  0003a	50		 push	 eax
  0003b	8b 0d 00 00 00
	00		 mov	 ecx, DWORD PTR ?session_screen@@3PAUUI_OBJECT@@A ; session_screen
  00041	8b 11		 mov	 edx, DWORD PTR [ecx]
  00043	8b 04 95 00 00
	00 00		 mov	 eax, DWORD PTR ?fn_set_ui_object_redraw@@3PAP6GXPAUUI_OBJECT@@H@ZA[edx*4]
  0004a	ff d0		 call	 eax
  0004c	e9 be 00 00 00	 jmp	 $LN5@notify_ses
$LN4@notify_ses:

; 244  : 	}
; 245  : 	else if ((int) arg == BUTTON_STATE_UP)

  00051	83 7d 0c 01	 cmp	 DWORD PTR _arg$[ebp], 1
  00055	75 7b		 jne	 SHORT $LN6@notify_ses

; 246  : 	{
; 247  : 
; 248  : 		set_ui_object_graphic (obj, (unsigned short int *) get_graphics_file_data (GRAPHICS_UI_APACHE_PLANNER_FORWARD_BUTTON_UNSELECTED));

  00057	b8 28 00 00 00	 mov	 eax, 40			; 00000028H
  0005c	69 c8 61 01 00
	00		 imul	 ecx, eax, 353
  00062	8b 91 1c 00 00
	00		 mov	 edx, DWORD PTR ?graphics_files@@3PAUFILE_DATA@@A[ecx+28]
  00068	52		 push	 edx
  00069	8b 45 08	 mov	 eax, DWORD PTR _obj$[ebp]
  0006c	50		 push	 eax
  0006d	8b 4d 08	 mov	 ecx, DWORD PTR _obj$[ebp]
  00070	8b 11		 mov	 edx, DWORD PTR [ecx]
  00072	8b 04 95 00 00
	00 00		 mov	 eax, DWORD PTR ?fn_set_ui_object_graphic@@3PAP6GXPAUUI_OBJECT@@PAG@ZA[edx*4]
  00079	ff d0		 call	 eax

; 249  : 
; 250  : 		if (get_valid_current_game_session ())

  0007b	83 3d 00 00 00
	00 00		 cmp	 DWORD PTR ?current_game_session@@3PAUSESSION_LIST_DATA_TYPE@@A, 0 ; current_game_session
  00082	74 4c		 je	 SHORT $LN8@notify_ses

; 251  : 		{
; 252  : 	
; 253  : 			//
; 254  : 			// reset delta time to keep mobile creation happy in faction.c (and everything else)
; 255  : 			//
; 256  : 	
; 257  : 			if (get_comms_model () == COMMS_MODEL_CLIENT)

  00084	83 3d 00 00 00
	00 01		 cmp	 DWORD PTR ?system_comms_model@@3W4COMMS_MODEL_TYPES@@A, 1 ; system_comms_model
  0008b	75 0a		 jne	 SHORT $LN9@notify_ses

; 258  : 			{
; 259  : 
; 260  : 				game_initialisation_phase = GAME_INITIALISATION_PHASE_SETUP;

  0008d	c7 05 00 00 00
	00 03 00 00 00	 mov	 DWORD PTR ?game_initialisation_phase@@3W4GAME_INITIALISATION_PHASES@@A, 3 ; game_initialisation_phase
$LN9@notify_ses:

; 261  : 			}
; 262  : 
; 263  : 			switch (get_game_type ())

  00097	a1 00 00 00 00	 mov	 eax, DWORD PTR ?game_type@@3W4GAME_TYPES@@A ; game_type
  0009c	89 45 bc	 mov	 DWORD PTR tv89[ebp], eax
  0009f	83 7d bc 00	 cmp	 DWORD PTR tv89[ebp], 0
  000a3	7e 2b		 jle	 SHORT $LN8@notify_ses
  000a5	83 7d bc 03	 cmp	 DWORD PTR tv89[ebp], 3
  000a9	7e 08		 jle	 SHORT $LN10@notify_ses
  000ab	83 7d bc 04	 cmp	 DWORD PTR tv89[ebp], 4
  000af	74 14		 je	 SHORT $LN11@notify_ses
  000b1	eb 1d		 jmp	 SHORT $LN8@notify_ses
$LN10@notify_ses:

; 264  : 			{
; 265  : 				case GAME_TYPE_SKIRMISH:
; 266  : 				case GAME_TYPE_CAMPAIGN:
; 267  : 				case GAME_TYPE_FREE_FLIGHT:
; 268  : 				{
; 269  : 				
; 270  : 					save_global_options_data ();

  000b3	e8 00 00 00 00	 call	 ?save_global_options_data@@YGXXZ ; save_global_options_data

; 271  : 	
; 272  : 					push_ui_screen (gunships_screen);

  000b8	a1 00 00 00 00	 mov	 eax, DWORD PTR ?gunships_screen@@3PAUUI_OBJECT@@A ; gunships_screen
  000bd	50		 push	 eax
  000be	e8 00 00 00 00	 call	 ?push_ui_screen@@YGXPAUUI_OBJECT@@@Z ; push_ui_screen

; 273  : 
; 274  : 					break;

  000c3	eb 0b		 jmp	 SHORT $LN8@notify_ses
$LN11@notify_ses:

; 275  : 				}
; 276  : 				case GAME_TYPE_DEMO:
; 277  : 				{
; 278  : 
; 279  : 					// dont think demo gets here... check.
; 280  : 
; 281  : 					push_ui_screen (loading_screen);

  000c5	a1 00 00 00 00	 mov	 eax, DWORD PTR ?loading_screen@@3PAUUI_OBJECT@@A ; loading_screen
  000ca	50		 push	 eax
  000cb	e8 00 00 00 00	 call	 ?push_ui_screen@@YGXPAUUI_OBJECT@@@Z ; push_ui_screen
$LN8@notify_ses:

; 282  : 
; 283  : 					break;
; 284  : 				}
; 285  : 			}
; 286  : 		}
; 287  : 	}
; 288  : 	else 

  000d0	eb 3d		 jmp	 SHORT $LN5@notify_ses
$LN6@notify_ses:

; 289  : 	{
; 290  : 
; 291  : 		set_ui_object_graphic (obj, (unsigned short int *) get_graphics_file_data (GRAPHICS_UI_APACHE_PLANNER_FORWARD_BUTTON_UNSELECTED));

  000d2	b8 28 00 00 00	 mov	 eax, 40			; 00000028H
  000d7	69 c8 61 01 00
	00		 imul	 ecx, eax, 353
  000dd	8b 91 1c 00 00
	00		 mov	 edx, DWORD PTR ?graphics_files@@3PAUFILE_DATA@@A[ecx+28]
  000e3	52		 push	 edx
  000e4	8b 45 08	 mov	 eax, DWORD PTR _obj$[ebp]
  000e7	50		 push	 eax
  000e8	8b 4d 08	 mov	 ecx, DWORD PTR _obj$[ebp]
  000eb	8b 11		 mov	 edx, DWORD PTR [ecx]
  000ed	8b 04 95 00 00
	00 00		 mov	 eax, DWORD PTR ?fn_set_ui_object_graphic@@3PAP6GXPAUUI_OBJECT@@PAG@ZA[edx*4]
  000f4	ff d0		 call	 eax

; 292  : 
; 293  : 		set_ui_object_redraw (session_screen, TRUE);

  000f6	6a 01		 push	 1
  000f8	a1 00 00 00 00	 mov	 eax, DWORD PTR ?session_screen@@3PAUUI_OBJECT@@A ; session_screen
  000fd	50		 push	 eax
  000fe	8b 0d 00 00 00
	00		 mov	 ecx, DWORD PTR ?session_screen@@3PAUUI_OBJECT@@A ; session_screen
  00104	8b 11		 mov	 edx, DWORD PTR [ecx]
  00106	8b 04 95 00 00
	00 00		 mov	 eax, DWORD PTR ?fn_set_ui_object_redraw@@3PAP6GXPAUUI_OBJECT@@H@ZA[edx*4]
  0010d	ff d0		 call	 eax
$LN5@notify_ses:

; 294  : 	}
; 295  : 
; 296  : 	set_ui_object_graphic_type (obj, UI_OBJECT_ALPHA_GRAPHIC);

  0010f	6a 03		 push	 3
  00111	8b 45 08	 mov	 eax, DWORD PTR _obj$[ebp]
  00114	50		 push	 eax
  00115	8b 4d 08	 mov	 ecx, DWORD PTR _obj$[ebp]
  00118	8b 11		 mov	 edx, DWORD PTR [ecx]
  0011a	8b 04 95 00 00
	00 00		 mov	 eax, DWORD PTR ?fn_set_ui_object_graphic_type@@3PAP6GXPAUUI_OBJECT@@H@ZA[edx*4]
  00121	ff d0		 call	 eax

; 297  : }

  00123	5f		 pop	 edi
  00124	5e		 pop	 esi
  00125	5b		 pop	 ebx
  00126	8b e5		 mov	 esp, ebp
  00128	5d		 pop	 ebp
  00129	c2 08 00	 ret	 8
?notify_session_next_button@@YGXPAUUI_OBJECT@@PAX@Z ENDP ; notify_session_next_button
_TEXT	ENDS
; Function compile flags: /Odtp /ZI
; File c:\users\nhv90\projects\eech\aphavoc\source\ui_menu\session\uisess_fn.c
;	COMDAT ?notify_session_screen@@YGXPAUUI_OBJECT@@PAX@Z
_TEXT	SEGMENT
_slider$1 = -4						; size = 4
_obj$ = 8						; size = 4
_arg$ = 12						; size = 4
?notify_session_screen@@YGXPAUUI_OBJECT@@PAX@Z PROC	; notify_session_screen, COMDAT

; 97   : {

  00000	55		 push	 ebp
  00001	8b ec		 mov	 ebp, esp
  00003	83 ec 44	 sub	 esp, 68			; 00000044H
  00006	53		 push	 ebx
  00007	56		 push	 esi
  00008	57		 push	 edi

; 98   : 
; 99   : 	if ( get_ui_object_drawable ( obj ) )

  00009	8b 45 08	 mov	 eax, DWORD PTR _obj$[ebp]
  0000c	50		 push	 eax
  0000d	8b 4d 08	 mov	 ecx, DWORD PTR _obj$[ebp]
  00010	8b 11		 mov	 edx, DWORD PTR [ecx]
  00012	8b 04 95 00 00
	00 00		 mov	 eax, DWORD PTR ?fn_get_ui_object_drawable@@3PAP6GHPAUUI_OBJECT@@@ZA[edx*4]
  00019	ff d0		 call	 eax
  0001b	85 c0		 test	 eax, eax
  0001d	0f 84 ac 00 00
	00		 je	 $LN2@notify_ses

; 100  : 	{
; 101  : 
; 102  : 		//session_filter = SESSION_LIST_TYPE_HOST | SESSION_LIST_TYPE_JOIN | SESSION_LIST_TYPE_RESTORE;
; 103  : 	
; 104  : 		initialise_session_list ();

  00023	e8 00 00 00 00	 call	 ?initialise_session_list@@YGXXZ ; initialise_session_list

; 105  : 	
; 106  : 		//
; 107  : 		// destroy session info list
; 108  : 		//
; 109  : 	
; 110  : 		ui_object_destroy_list_items (session_list);

  00028	a1 00 00 00 00	 mov	 eax, DWORD PTR ?session_list@@3PAUUI_OBJECT@@A ; session_list
  0002d	50		 push	 eax
  0002e	e8 00 00 00 00	 call	 ?ui_object_destroy_list_items@@YGXPAUUI_OBJECT@@@Z ; ui_object_destroy_list_items

; 111  : 
; 112  : 		ui_object_destroy_list_items (session_info_list);

  00033	a1 00 00 00 00	 mov	 eax, DWORD PTR ?session_info_list@@3PAUUI_OBJECT@@A ; session_info_list
  00038	50		 push	 eax
  00039	e8 00 00 00 00	 call	 ?ui_object_destroy_list_items@@YGXPAUUI_OBJECT@@@Z ; ui_object_destroy_list_items

; 113  : 
; 114  : 		set_ui_list_spacing_proportional_to_font (session_info_list, -0.2);

  0003e	51		 push	 ecx
  0003f	f3 0f 10 05 00
	00 00 00	 movss	 xmm0, DWORD PTR __real@be4ccccd
  00047	f3 0f 11 04 24	 movss	 DWORD PTR [esp], xmm0
  0004c	a1 00 00 00 00	 mov	 eax, DWORD PTR ?session_info_list@@3PAUUI_OBJECT@@A ; session_info_list
  00051	50		 push	 eax
  00052	e8 00 00 00 00	 call	 ?set_ui_list_spacing_proportional_to_font@@YGXPAUUI_OBJECT@@M@Z ; set_ui_list_spacing_proportional_to_font

; 115  : 
; 116  : 		#if DEBUG_MODULE
; 117  : 	
; 118  : 		debug_log ("SESS_FN: opening pack buffer");
; 119  : 	
; 120  : 		#endif
; 121  : 		
; 122  : 		set_current_game_session_invalid ();

  00057	6a 00		 push	 0
  00059	e8 00 00 00 00	 call	 ?set_current_game_session@@YGXPAUSESSION_LIST_DATA_TYPE@@@Z ; set_current_game_session

; 123  : 	
; 124  : 		//
; 125  : 		// We're not in demo mode - set the session list
; 126  : 		//
; 127  : 	
; 128  : 		process_game_initialisation_phases ();

  0005e	e8 00 00 00 00	 call	 ?process_game_initialisation_phases@@YGXXZ ; process_game_initialisation_phases

; 129  : 
; 130  : 		ui_set_user_function (session_update_session_list);

  00063	68 00 00 00 00	 push	 OFFSET ?session_update_session_list@@YGXXZ ; session_update_session_list
  00068	e8 00 00 00 00	 call	 ?ui_set_user_function@@YGXP6GXXZ@Z ; ui_set_user_function

; 131  : 	
; 132  : //		set_ui_object_drawable ( session_game_delete_button, FALSE );
; 133  : 	
; 134  : //		set_ui_object_drawable ( session_screen_session_parameters_button, FALSE );
; 135  : 
; 136  : 		//
; 137  : 		// Setup the screen
; 138  : 		//
; 139  : 
; 140  : 		blit_front_buffer_to_render_buffer ();

  0006d	e8 00 00 00 00	 call	 ?blit_front_buffer_to_render_buffer@@YGXXZ ; blit_front_buffer_to_render_buffer

; 141  : 	
; 142  : 		if ( session_screen_graphic )

  00072	83 3d 00 00 00
	00 00		 cmp	 DWORD PTR ?session_screen_graphic@@3PAUTEXTURE_GRAPHIC@@A, 0 ; session_screen_graphic
  00079	74 15		 je	 SHORT $LN4@notify_ses

; 143  : 		{
; 144  : 	
; 145  : 			destroy_texture_graphic ( session_screen_graphic );

  0007b	a1 00 00 00 00	 mov	 eax, DWORD PTR ?session_screen_graphic@@3PAUTEXTURE_GRAPHIC@@A ; session_screen_graphic
  00080	50		 push	 eax
  00081	e8 00 00 00 00	 call	 ?destroy_texture_graphic@@YGXPAUTEXTURE_GRAPHIC@@@Z ; destroy_texture_graphic

; 146  : 
; 147  : 			session_screen_graphic = NULL;

  00086	c7 05 00 00 00
	00 00 00 00 00	 mov	 DWORD PTR ?session_screen_graphic@@3PAUTEXTURE_GRAPHIC@@A, 0 ; session_screen_graphic
$LN4@notify_ses:

; 148  : 		}
; 149  : 	
; 150  : 		session_screen_graphic = create_texture_graphic ( "graphics\\ui\\cohokum\\combat.psd" );

  00090	68 00 00 00 00	 push	 OFFSET ??_C@_0BP@LILAKEF@graphics?2ui?2cohokum?2combat?4psd@
  00095	e8 00 00 00 00	 call	 ?create_texture_graphic@@YGPAUTEXTURE_GRAPHIC@@PBD@Z ; create_texture_graphic
  0009a	a3 00 00 00 00	 mov	 DWORD PTR ?session_screen_graphic@@3PAUTEXTURE_GRAPHIC@@A, eax ; session_screen_graphic

; 151  : 	
; 152  : 		set_ui_object_texture_graphic ( session_screen, session_screen_graphic );

  0009f	a1 00 00 00 00	 mov	 eax, DWORD PTR ?session_screen_graphic@@3PAUTEXTURE_GRAPHIC@@A ; session_screen_graphic
  000a4	50		 push	 eax
  000a5	8b 0d 00 00 00
	00		 mov	 ecx, DWORD PTR ?session_screen@@3PAUUI_OBJECT@@A ; session_screen
  000ab	51		 push	 ecx
  000ac	8b 15 00 00 00
	00		 mov	 edx, DWORD PTR ?session_screen@@3PAUUI_OBJECT@@A ; session_screen
  000b2	8b 02		 mov	 eax, DWORD PTR [edx]
  000b4	8b 0c 85 00 00
	00 00		 mov	 ecx, DWORD PTR ?fn_set_ui_object_texture_graphic@@3PAP6GXPAUUI_OBJECT@@PAUTEXTURE_GRAPHIC@@@ZA[eax*4]
  000bb	ff d1		 call	 ecx

; 153  : 	
; 154  : 		reset_time_values ( session_screen );

  000bd	a1 00 00 00 00	 mov	 eax, DWORD PTR ?session_screen@@3PAUUI_OBJECT@@A ; session_screen
  000c2	50		 push	 eax
  000c3	e8 00 00 00 00	 call	 ?reset_time_values@@YGXPAUUI_OBJECT@@@Z ; reset_time_values

; 155  : 
; 156  : 		notify_clear_all_session_parameters ();

  000c8	e8 00 00 00 00	 call	 ?notify_clear_all_session_parameters@@YGXXZ ; notify_clear_all_session_parameters

; 157  : 	}
; 158  : 	else

  000cd	eb 1e		 jmp	 SHORT $LN5@notify_ses
$LN2@notify_ses:

; 159  : 	{
; 160  : 
; 161  : 		if ( session_screen_graphic )

  000cf	83 3d 00 00 00
	00 00		 cmp	 DWORD PTR ?session_screen_graphic@@3PAUTEXTURE_GRAPHIC@@A, 0 ; session_screen_graphic
  000d6	74 15		 je	 SHORT $LN5@notify_ses

; 162  : 		{
; 163  : 	
; 164  : 			destroy_texture_graphic ( session_screen_graphic );

  000d8	a1 00 00 00 00	 mov	 eax, DWORD PTR ?session_screen_graphic@@3PAUTEXTURE_GRAPHIC@@A ; session_screen_graphic
  000dd	50		 push	 eax
  000de	e8 00 00 00 00	 call	 ?destroy_texture_graphic@@YGXPAUTEXTURE_GRAPHIC@@@Z ; destroy_texture_graphic

; 165  : 
; 166  : 			session_screen_graphic = NULL;

  000e3	c7 05 00 00 00
	00 00 00 00 00	 mov	 DWORD PTR ?session_screen_graphic@@3PAUTEXTURE_GRAPHIC@@A, 0 ; session_screen_graphic
$LN5@notify_ses:

; 167  : 		}
; 168  : 	}
; 169  : 
; 170  : 	set_ui_object_drawable (session_screen_delete_button, FALSE);

  000ed	6a 00		 push	 0
  000ef	a1 00 00 00 00	 mov	 eax, DWORD PTR ?session_screen_delete_button@@3PAUUI_OBJECT@@A ; session_screen_delete_button
  000f4	50		 push	 eax
  000f5	8b 0d 00 00 00
	00		 mov	 ecx, DWORD PTR ?session_screen_delete_button@@3PAUUI_OBJECT@@A ; session_screen_delete_button
  000fb	8b 11		 mov	 edx, DWORD PTR [ecx]
  000fd	8b 04 95 00 00
	00 00		 mov	 eax, DWORD PTR ?fn_set_ui_object_drawable@@3PAP6GXPAUUI_OBJECT@@H@ZA[edx*4]
  00104	ff d0		 call	 eax

; 171  : 
; 172  : 	set_ui_object_drawable (session_screen_rename_button, FALSE);

  00106	6a 00		 push	 0
  00108	a1 00 00 00 00	 mov	 eax, DWORD PTR ?session_screen_rename_button@@3PAUUI_OBJECT@@A ; session_screen_rename_button
  0010d	50		 push	 eax
  0010e	8b 0d 00 00 00
	00		 mov	 ecx, DWORD PTR ?session_screen_rename_button@@3PAUUI_OBJECT@@A ; session_screen_rename_button
  00114	8b 11		 mov	 edx, DWORD PTR [ecx]
  00116	8b 04 95 00 00
	00 00		 mov	 eax, DWORD PTR ?fn_set_ui_object_drawable@@3PAP6GXPAUUI_OBJECT@@H@ZA[edx*4]
  0011d	ff d0		 call	 eax

; 173  : 	
; 174  : 	{
; 175  : 
; 176  : 		ui_object
; 177  : 			*slider;
; 178  : 
; 179  : 		slider = get_ui_object_vslider (session_list_area);

  0011f	a1 00 00 00 00	 mov	 eax, DWORD PTR ?session_list_area@@3PAUUI_OBJECT@@A ; session_list_area
  00124	50		 push	 eax
  00125	e8 00 00 00 00	 call	 ?get_ui_object_vslider@@YGPAUUI_OBJECT@@PAU1@@Z ; get_ui_object_vslider
  0012a	89 45 fc	 mov	 DWORD PTR _slider$1[ebp], eax

; 180  : 
; 181  : 		set_ui_object_vslider_virtual_position (slider, 0.0);

  0012d	51		 push	 ecx
  0012e	0f 57 c0	 xorps	 xmm0, xmm0
  00131	f3 0f 11 04 24	 movss	 DWORD PTR [esp], xmm0
  00136	8b 45 fc	 mov	 eax, DWORD PTR _slider$1[ebp]
  00139	50		 push	 eax
  0013a	e8 00 00 00 00	 call	 ?set_ui_object_vslider_virtual_position@@YGXPAUUI_OBJECT@@M@Z ; set_ui_object_vslider_virtual_position

; 182  : 	}
; 183  : }

  0013f	5f		 pop	 edi
  00140	5e		 pop	 esi
  00141	5b		 pop	 ebx
  00142	8b e5		 mov	 esp, ebp
  00144	5d		 pop	 ebp
  00145	c2 08 00	 ret	 8
?notify_session_screen@@YGXPAUUI_OBJECT@@PAX@Z ENDP	; notify_session_screen
_TEXT	ENDS
; Function compile flags: /Odtp /ZI
; File c:\program files (x86)\windows kits\10\include\10.0.18362.0\ucrt\string.h
;	COMDAT ?strrchr@@YAPADQADH@Z
_TEXT	SEGMENT
__String$ = 8						; size = 4
__Ch$ = 12						; size = 4
?strrchr@@YAPADQADH@Z PROC				; strrchr, COMDAT

; 517  :     {

  00000	55		 push	 ebp
  00001	8b ec		 mov	 ebp, esp
  00003	83 ec 40	 sub	 esp, 64			; 00000040H
  00006	53		 push	 ebx
  00007	56		 push	 esi
  00008	57		 push	 edi

; 518  :         return const_cast<char*>(strrchr(static_cast<char const*>(_String), _Ch));

  00009	8b 45 0c	 mov	 eax, DWORD PTR __Ch$[ebp]
  0000c	50		 push	 eax
  0000d	8b 4d 08	 mov	 ecx, DWORD PTR __String$[ebp]
  00010	51		 push	 ecx
  00011	e8 00 00 00 00	 call	 _strrchr
  00016	83 c4 08	 add	 esp, 8

; 519  :     }

  00019	5f		 pop	 edi
  0001a	5e		 pop	 esi
  0001b	5b		 pop	 ebx
  0001c	8b e5		 mov	 esp, ebp
  0001e	5d		 pop	 ebp
  0001f	c3		 ret	 0
?strrchr@@YAPADQADH@Z ENDP				; strrchr
_TEXT	ENDS
; Function compile flags: /Odtp /ZI
; File c:\program files (x86)\windows kits\10\include\10.0.18362.0\ucrt\stdio.h
;	COMDAT _sprintf
_TEXT	SEGMENT
__ArgList$ = -8						; size = 4
__Result$ = -4						; size = 4
__Buffer$ = 8						; size = 4
__Format$ = 12						; size = 4
_sprintf PROC						; COMDAT

; 1781 :     {

  00000	55		 push	 ebp
  00001	8b ec		 mov	 ebp, esp
  00003	83 ec 4c	 sub	 esp, 76			; 0000004cH
  00006	53		 push	 ebx
  00007	56		 push	 esi
  00008	57		 push	 edi

; 1782 :         int _Result;
; 1783 :         va_list _ArgList;
; 1784 :         __crt_va_start(_ArgList, _Format);

  00009	8d 45 10	 lea	 eax, DWORD PTR __Format$[ebp+4]
  0000c	89 45 f8	 mov	 DWORD PTR __ArgList$[ebp], eax

; 1785 : 
; 1786 :         #pragma warning(push)
; 1787 :         #pragma warning(disable: 4996) // Deprecation
; 1788 :         _Result = _vsprintf_l(_Buffer, _Format, NULL, _ArgList);

  0000f	8b 45 f8	 mov	 eax, DWORD PTR __ArgList$[ebp]
  00012	50		 push	 eax
  00013	6a 00		 push	 0
  00015	8b 4d 0c	 mov	 ecx, DWORD PTR __Format$[ebp]
  00018	51		 push	 ecx
  00019	8b 55 08	 mov	 edx, DWORD PTR __Buffer$[ebp]
  0001c	52		 push	 edx
  0001d	e8 00 00 00 00	 call	 __vsprintf_l
  00022	83 c4 10	 add	 esp, 16			; 00000010H
  00025	89 45 fc	 mov	 DWORD PTR __Result$[ebp], eax

; 1789 :         #pragma warning(pop)
; 1790 : 
; 1791 :         __crt_va_end(_ArgList);

  00028	c7 45 f8 00 00
	00 00		 mov	 DWORD PTR __ArgList$[ebp], 0

; 1792 :         return _Result;

  0002f	8b 45 fc	 mov	 eax, DWORD PTR __Result$[ebp]

; 1793 :     }

  00032	5f		 pop	 edi
  00033	5e		 pop	 esi
  00034	5b		 pop	 ebx
  00035	8b e5		 mov	 esp, ebp
  00037	5d		 pop	 ebp
  00038	c3		 ret	 0
_sprintf ENDP
_TEXT	ENDS
; Function compile flags: /Odtp /ZI
; File c:\program files (x86)\windows kits\10\include\10.0.18362.0\ucrt\stdio.h
;	COMDAT __vsprintf_l
_TEXT	SEGMENT
__Buffer$ = 8						; size = 4
__Format$ = 12						; size = 4
__Locale$ = 16						; size = 4
__ArgList$ = 20						; size = 4
__vsprintf_l PROC					; COMDAT

; 1459 :     {

  00000	55		 push	 ebp
  00001	8b ec		 mov	 ebp, esp
  00003	83 ec 40	 sub	 esp, 64			; 00000040H
  00006	53		 push	 ebx
  00007	56		 push	 esi
  00008	57		 push	 edi

; 1460 :         #pragma warning(push)
; 1461 :         #pragma warning(disable: 4996) // Deprecation
; 1462 :         return _vsnprintf_l(_Buffer, (size_t)-1, _Format, _Locale, _ArgList);

  00009	8b 45 14	 mov	 eax, DWORD PTR __ArgList$[ebp]
  0000c	50		 push	 eax
  0000d	8b 4d 10	 mov	 ecx, DWORD PTR __Locale$[ebp]
  00010	51		 push	 ecx
  00011	8b 55 0c	 mov	 edx, DWORD PTR __Format$[ebp]
  00014	52		 push	 edx
  00015	6a ff		 push	 -1
  00017	8b 45 08	 mov	 eax, DWORD PTR __Buffer$[ebp]
  0001a	50		 push	 eax
  0001b	e8 00 00 00 00	 call	 __vsnprintf_l
  00020	83 c4 14	 add	 esp, 20			; 00000014H

; 1463 :         #pragma warning(pop)
; 1464 :     }

  00023	5f		 pop	 edi
  00024	5e		 pop	 esi
  00025	5b		 pop	 ebx
  00026	8b e5		 mov	 esp, ebp
  00028	5d		 pop	 ebp
  00029	c3		 ret	 0
__vsprintf_l ENDP
_TEXT	ENDS
; Function compile flags: /Odtp /ZI
; File c:\program files (x86)\windows kits\10\include\10.0.18362.0\ucrt\stdio.h
;	COMDAT __vsnprintf_l
_TEXT	SEGMENT
tv74 = -72						; size = 4
__Result$ = -4						; size = 4
__Buffer$ = 8						; size = 4
__BufferCount$ = 12					; size = 4
__Format$ = 16						; size = 4
__Locale$ = 20						; size = 4
__ArgList$ = 24						; size = 4
__vsnprintf_l PROC					; COMDAT

; 1389 :     {

  00000	55		 push	 ebp
  00001	8b ec		 mov	 ebp, esp
  00003	83 ec 48	 sub	 esp, 72			; 00000048H
  00006	53		 push	 ebx
  00007	56		 push	 esi
  00008	57		 push	 edi

; 1390 :         int const _Result = __stdio_common_vsprintf(

  00009	8b 45 18	 mov	 eax, DWORD PTR __ArgList$[ebp]
  0000c	50		 push	 eax
  0000d	8b 4d 14	 mov	 ecx, DWORD PTR __Locale$[ebp]
  00010	51		 push	 ecx
  00011	8b 55 10	 mov	 edx, DWORD PTR __Format$[ebp]
  00014	52		 push	 edx
  00015	8b 45 0c	 mov	 eax, DWORD PTR __BufferCount$[ebp]
  00018	50		 push	 eax
  00019	8b 4d 08	 mov	 ecx, DWORD PTR __Buffer$[ebp]
  0001c	51		 push	 ecx
  0001d	e8 00 00 00 00	 call	 ___local_stdio_printf_options
  00022	8b 10		 mov	 edx, DWORD PTR [eax]
  00024	83 ca 01	 or	 edx, 1
  00027	8b 40 04	 mov	 eax, DWORD PTR [eax+4]
  0002a	50		 push	 eax
  0002b	52		 push	 edx
  0002c	ff 15 00 00 00
	00		 call	 DWORD PTR __imp____stdio_common_vsprintf
  00032	83 c4 1c	 add	 esp, 28			; 0000001cH
  00035	89 45 fc	 mov	 DWORD PTR __Result$[ebp], eax

; 1391 :             _CRT_INTERNAL_LOCAL_PRINTF_OPTIONS | _CRT_INTERNAL_PRINTF_LEGACY_VSPRINTF_NULL_TERMINATION,
; 1392 :             _Buffer, _BufferCount, _Format, _Locale, _ArgList);
; 1393 : 
; 1394 :         return _Result < 0 ? -1 : _Result;

  00038	83 7d fc 00	 cmp	 DWORD PTR __Result$[ebp], 0
  0003c	7d 09		 jge	 SHORT $LN3@vsnprintf_
  0003e	c7 45 b8 ff ff
	ff ff		 mov	 DWORD PTR tv74[ebp], -1
  00045	eb 06		 jmp	 SHORT $LN4@vsnprintf_
$LN3@vsnprintf_:
  00047	8b 45 fc	 mov	 eax, DWORD PTR __Result$[ebp]
  0004a	89 45 b8	 mov	 DWORD PTR tv74[ebp], eax
$LN4@vsnprintf_:
  0004d	8b 45 b8	 mov	 eax, DWORD PTR tv74[ebp]

; 1395 :     }

  00050	5f		 pop	 edi
  00051	5e		 pop	 esi
  00052	5b		 pop	 ebx
  00053	8b e5		 mov	 esp, ebp
  00055	5d		 pop	 ebp
  00056	c3		 ret	 0
__vsnprintf_l ENDP
_TEXT	ENDS
; Function compile flags: /Odtp /ZI
; File c:\program files (x86)\windows kits\10\include\10.0.18362.0\ucrt\corecrt_stdio_config.h
;	COMDAT ___local_stdio_printf_options
_TEXT	SEGMENT
___local_stdio_printf_options PROC			; COMDAT

; 86   :     {

  00000	55		 push	 ebp
  00001	8b ec		 mov	 ebp, esp
  00003	83 ec 40	 sub	 esp, 64			; 00000040H
  00006	53		 push	 ebx
  00007	56		 push	 esi
  00008	57		 push	 edi

; 87   :         static unsigned __int64 _OptionsStorage;
; 88   :         return &_OptionsStorage;

  00009	b8 00 00 00 00	 mov	 eax, OFFSET ?_OptionsStorage@?1??__local_stdio_printf_options@@9@4_KA ; `__local_stdio_printf_options'::`2'::_OptionsStorage

; 89   :     }

  0000e	5f		 pop	 edi
  0000f	5e		 pop	 esi
  00010	5b		 pop	 ebx
  00011	8b e5		 mov	 esp, ebp
  00013	5d		 pop	 ebp
  00014	c3		 ret	 0
___local_stdio_printf_options ENDP
_TEXT	ENDS
END
