; Listing generated by Microsoft (R) Optimizing Compiler Version 19.16.27045.0 

	TITLE	C:\Users\nhv90\Projects\eech\modules\userint2\ui_draw\uiwindow.c
	.686P
	.XMM
	include listing.inc
	.model	flat

INCLUDELIB MSVCRTD
INCLUDELIB OLDNAMES

PUBLIC	?ui_create_window@@YGXMMMM@Z			; ui_create_window
PUBLIC	__real@3f800000
EXTRN	?set_viewport@@YGXMMMM@Z:PROC			; set_viewport
EXTRN	?ui_set_origin@@YGXMM@Z:PROC			; ui_set_origin
EXTRN	__fltused:DWORD
;	COMDAT __real@3f800000
CONST	SEGMENT
__real@3f800000 DD 03f800000r			; 1
CONST	ENDS
; Function compile flags: /Odtp /ZI
; File c:\users\nhv90\projects\eech\modules\userint2\ui_draw\uiwindow.c
;	COMDAT ?ui_create_window@@YGXMMMM@Z
_TEXT	SEGMENT
_x1$ = 8						; size = 4
_y1$ = 12						; size = 4
_x2$ = 16						; size = 4
_y2$ = 20						; size = 4
?ui_create_window@@YGXMMMM@Z PROC			; ui_create_window, COMDAT

; 82   : {

  00000	55		 push	 ebp
  00001	8b ec		 mov	 ebp, esp
  00003	83 ec 40	 sub	 esp, 64			; 00000040H
  00006	53		 push	 ebx
  00007	56		 push	 esi
  00008	57		 push	 edi

; 83   : 
; 84   : 	set_viewport (x1, y1, x2, y2);

  00009	51		 push	 ecx
  0000a	f3 0f 10 45 14	 movss	 xmm0, DWORD PTR _y2$[ebp]
  0000f	f3 0f 11 04 24	 movss	 DWORD PTR [esp], xmm0
  00014	51		 push	 ecx
  00015	f3 0f 10 45 10	 movss	 xmm0, DWORD PTR _x2$[ebp]
  0001a	f3 0f 11 04 24	 movss	 DWORD PTR [esp], xmm0
  0001f	51		 push	 ecx
  00020	f3 0f 10 45 0c	 movss	 xmm0, DWORD PTR _y1$[ebp]
  00025	f3 0f 11 04 24	 movss	 DWORD PTR [esp], xmm0
  0002a	51		 push	 ecx
  0002b	f3 0f 10 45 08	 movss	 xmm0, DWORD PTR _x1$[ebp]
  00030	f3 0f 11 04 24	 movss	 DWORD PTR [esp], xmm0
  00035	e8 00 00 00 00	 call	 ?set_viewport@@YGXMMMM@Z ; set_viewport

; 85   : 
; 86   : 	ui_set_origin (x1, y1);

  0003a	51		 push	 ecx
  0003b	f3 0f 10 45 0c	 movss	 xmm0, DWORD PTR _y1$[ebp]
  00040	f3 0f 11 04 24	 movss	 DWORD PTR [esp], xmm0
  00045	51		 push	 ecx
  00046	f3 0f 10 45 08	 movss	 xmm0, DWORD PTR _x1$[ebp]
  0004b	f3 0f 11 04 24	 movss	 DWORD PTR [esp], xmm0
  00050	e8 00 00 00 00	 call	 ?ui_set_origin@@YGXMM@Z	; ui_set_origin

; 87   : 
; 88   : 	//ui_draw_area (0, 0, x2 - x1, y2 - y1, UI_OBJECT_STATE_OFF);
; 89   : 
; 90   : 	set_viewport (x1 + 1, y1 + 1, x2 - 1, y2 - 1);

  00055	f3 0f 10 45 14	 movss	 xmm0, DWORD PTR _y2$[ebp]
  0005a	f3 0f 5c 05 00
	00 00 00	 subss	 xmm0, DWORD PTR __real@3f800000
  00062	51		 push	 ecx
  00063	f3 0f 11 04 24	 movss	 DWORD PTR [esp], xmm0
  00068	f3 0f 10 45 10	 movss	 xmm0, DWORD PTR _x2$[ebp]
  0006d	f3 0f 5c 05 00
	00 00 00	 subss	 xmm0, DWORD PTR __real@3f800000
  00075	51		 push	 ecx
  00076	f3 0f 11 04 24	 movss	 DWORD PTR [esp], xmm0
  0007b	f3 0f 10 45 0c	 movss	 xmm0, DWORD PTR _y1$[ebp]
  00080	f3 0f 58 05 00
	00 00 00	 addss	 xmm0, DWORD PTR __real@3f800000
  00088	51		 push	 ecx
  00089	f3 0f 11 04 24	 movss	 DWORD PTR [esp], xmm0
  0008e	f3 0f 10 45 08	 movss	 xmm0, DWORD PTR _x1$[ebp]
  00093	f3 0f 58 05 00
	00 00 00	 addss	 xmm0, DWORD PTR __real@3f800000
  0009b	51		 push	 ecx
  0009c	f3 0f 11 04 24	 movss	 DWORD PTR [esp], xmm0
  000a1	e8 00 00 00 00	 call	 ?set_viewport@@YGXMMMM@Z ; set_viewport

; 91   : 
; 92   : 	ui_set_origin (x1 + 1, y1 + 1);

  000a6	f3 0f 10 45 0c	 movss	 xmm0, DWORD PTR _y1$[ebp]
  000ab	f3 0f 58 05 00
	00 00 00	 addss	 xmm0, DWORD PTR __real@3f800000
  000b3	51		 push	 ecx
  000b4	f3 0f 11 04 24	 movss	 DWORD PTR [esp], xmm0
  000b9	f3 0f 10 45 08	 movss	 xmm0, DWORD PTR _x1$[ebp]
  000be	f3 0f 58 05 00
	00 00 00	 addss	 xmm0, DWORD PTR __real@3f800000
  000c6	51		 push	 ecx
  000c7	f3 0f 11 04 24	 movss	 DWORD PTR [esp], xmm0
  000cc	e8 00 00 00 00	 call	 ?ui_set_origin@@YGXMM@Z	; ui_set_origin

; 93   : }

  000d1	5f		 pop	 edi
  000d2	5e		 pop	 esi
  000d3	5b		 pop	 ebx
  000d4	8b e5		 mov	 esp, ebp
  000d6	5d		 pop	 ebp
  000d7	c2 10 00	 ret	 16			; 00000010H
?ui_create_window@@YGXMMMM@Z ENDP			; ui_create_window
_TEXT	ENDS
END
