; Listing generated by Microsoft (R) Optimizing Compiler Version 19.16.27045.0 

	TITLE	C:\Users\nhv90\Projects\eech\aphavoc\source\entity\special\update\up_creat.c
	.686P
	.XMM
	include listing.inc
	.model	flat

INCLUDELIB MSVCRTD
INCLUDELIB OLDNAMES

PUBLIC	?create_local_update_entity@@YGXXZ		; create_local_update_entity
PUBLIC	?overload_update_create_functions@@YGXXZ	; overload_update_create_functions
PUBLIC	?__LINE__Var@?0??create_local@@YGPAUENTITY@@W4ENTITY_TYPES@@HPAD@Z@4JA ; `create_local'::`1'::__LINE__Var
PUBLIC	??_C@_0EN@PLKMKBFC@c?3?2users?2nhv90?2projects?2eech?2ap@ ; `string'
PUBLIC	??_C@_0CL@OOPHFNJI@assert_local_create_entity_inde@ ; `string'
PUBLIC	??_C@_0BG@KBMAEAMA@?$CBget_update_entity?5?$CI?$CJ@ ; `string'
EXTRN	_memset:PROC
EXTRN	?process_assert@@YGXPBD0H@Z:PROC		; process_assert
EXTRN	?malloc_fast_memory@@YGPAXI@Z:PROC		; malloc_fast_memory
EXTRN	?set_local_entity_attributes@@YGXPAUENTITY@@PAD@Z:PROC ; set_local_entity_attributes
EXTRN	?create_local_entity@@YAPAUENTITY@@W4ENTITY_TYPES@@HZZ:PROC ; create_local_entity
EXTRN	?assert_local_create_entity_index@@YGHH@Z:PROC	; assert_local_create_entity_index
EXTRN	?get_free_entity@@YGPAUENTITY@@H@Z:PROC		; get_free_entity
EXTRN	?set_update_entity@@YGXPAUENTITY@@@Z:PROC	; set_update_entity
EXTRN	?fn_create_local_entity@@3PAP6GPAUENTITY@@W4ENTITY_TYPES@@HPAD@ZA:BYTE ; fn_create_local_entity
EXTRN	?update_entity@@3PAUENTITY@@A:DWORD		; update_entity
EXTRN	?update_succ@@3PAUENTITY@@A:DWORD		; update_succ
;	COMDAT ??_C@_0BG@KBMAEAMA@?$CBget_update_entity?5?$CI?$CJ@
CONST	SEGMENT
??_C@_0BG@KBMAEAMA@?$CBget_update_entity?5?$CI?$CJ@ DB '!get_update_entit'
	DB	'y ()', 00H					; `string'
CONST	ENDS
;	COMDAT ??_C@_0CL@OOPHFNJI@assert_local_create_entity_inde@
CONST	SEGMENT
??_C@_0CL@OOPHFNJI@assert_local_create_entity_inde@ DB 'assert_local_crea'
	DB	'te_entity_index ((index))', 00H		; `string'
CONST	ENDS
;	COMDAT ??_C@_0EN@PLKMKBFC@c?3?2users?2nhv90?2projects?2eech?2ap@
CONST	SEGMENT
??_C@_0EN@PLKMKBFC@c?3?2users?2nhv90?2projects?2eech?2ap@ DB 'c:\users\nh'
	DB	'v90\projects\eech\aphavoc\source\entity\special\update\up_cre'
	DB	'at.c', 00H					; `string'
CONST	ENDS
;	COMDAT ?__LINE__Var@?0??create_local@@YGPAUENTITY@@W4ENTITY_TYPES@@HPAD@Z@4JA
_DATA	SEGMENT
?__LINE__Var@?0??create_local@@YGPAUENTITY@@W4ENTITY_TYPES@@HPAD@Z@4JA DD 061H ; `create_local'::`1'::__LINE__Var
_DATA	ENDS
; Function compile flags: /Odtp /ZI
; File c:\users\nhv90\projects\eech\aphavoc\source\entity\special\update\up_creat.c
;	COMDAT ?create_local@@YGPAUENTITY@@W4ENTITY_TYPES@@HPAD@Z
_TEXT	SEGMENT
_raw$ = -8						; size = 4
_en$ = -4						; size = 4
_type$ = 8						; size = 4
_index$ = 12						; size = 4
_pargs$ = 16						; size = 4
?create_local@@YGPAUENTITY@@W4ENTITY_TYPES@@HPAD@Z PROC	; create_local, COMDAT

; 97   : {

  00000	55		 push	 ebp
  00001	8b ec		 mov	 ebp, esp
  00003	83 ec 48	 sub	 esp, 72			; 00000048H
  00006	53		 push	 ebx
  00007	56		 push	 esi
  00008	57		 push	 edi

; 98   : 	entity
; 99   : 		*en;
; 100  : 
; 101  : 	update
; 102  : 		*raw;
; 103  : 
; 104  : 	////////////////////////////////////////
; 105  :   	//
; 106  :   	// VALIDATE
; 107  :   	//
; 108  : 	////////////////////////////////////////
; 109  : 
; 110  : 	validate_local_create_entity_index (index);

  00009	8b 45 0c	 mov	 eax, DWORD PTR _index$[ebp]
  0000c	50		 push	 eax
  0000d	e8 00 00 00 00	 call	 ?assert_local_create_entity_index@@YGHH@Z ; assert_local_create_entity_index
  00012	85 c0		 test	 eax, eax
  00014	75 18		 jne	 SHORT $LN2@create_loc
  00016	a1 00 00 00 00	 mov	 eax, DWORD PTR ?__LINE__Var@?0??create_local@@YGPAUENTITY@@W4ENTITY_TYPES@@HPAD@Z@4JA
  0001b	83 c0 0d	 add	 eax, 13			; 0000000dH
  0001e	50		 push	 eax
  0001f	68 00 00 00 00	 push	 OFFSET ??_C@_0EN@PLKMKBFC@c?3?2users?2nhv90?2projects?2eech?2ap@
  00024	68 00 00 00 00	 push	 OFFSET ??_C@_0CL@OOPHFNJI@assert_local_create_entity_inde@
  00029	e8 00 00 00 00	 call	 ?process_assert@@YGXPBD0H@Z ; process_assert
$LN2@create_loc:

; 111  : 
; 112  : 	#if DEBUG_MODULE
; 113  : 
; 114  : 	debug_log_entity_args (ENTITY_DEBUG_LOCAL, ENTITY_DEBUG_CREATE, NULL, type, index);
; 115  : 
; 116  : 	#endif
; 117  : 
; 118  : 	en = get_free_entity (index);

  0002e	8b 45 0c	 mov	 eax, DWORD PTR _index$[ebp]
  00031	50		 push	 eax
  00032	e8 00 00 00 00	 call	 ?get_free_entity@@YGPAUENTITY@@H@Z ; get_free_entity
  00037	89 45 fc	 mov	 DWORD PTR _en$[ebp], eax

; 119  : 
; 120  : 	ASSERT (!get_update_entity ());

  0003a	83 3d 00 00 00
	00 00		 cmp	 DWORD PTR ?update_entity@@3PAUENTITY@@A, 0 ; update_entity
  00041	74 18		 je	 SHORT $LN3@create_loc
  00043	a1 00 00 00 00	 mov	 eax, DWORD PTR ?__LINE__Var@?0??create_local@@YGPAUENTITY@@W4ENTITY_TYPES@@HPAD@Z@4JA
  00048	83 c0 17	 add	 eax, 23			; 00000017H
  0004b	50		 push	 eax
  0004c	68 00 00 00 00	 push	 OFFSET ??_C@_0EN@PLKMKBFC@c?3?2users?2nhv90?2projects?2eech?2ap@
  00051	68 00 00 00 00	 push	 OFFSET ??_C@_0BG@KBMAEAMA@?$CBget_update_entity?5?$CI?$CJ@
  00056	e8 00 00 00 00	 call	 ?process_assert@@YGXPBD0H@Z ; process_assert
$LN3@create_loc:

; 121  : 
; 122  : 	if (en)

  0005b	83 7d fc 00	 cmp	 DWORD PTR _en$[ebp], 0
  0005f	74 4b		 je	 SHORT $LN4@create_loc

; 123  : 	{
; 124  : 		////////////////////////////////////////
; 125  :    	//
; 126  :    	// MALLOC ENTITY DATA
; 127  :    	//
; 128  : 		////////////////////////////////////////
; 129  : 
; 130  : 		set_local_entity_type (en, type);

  00061	8b 45 fc	 mov	 eax, DWORD PTR _en$[ebp]
  00064	8b 4d 08	 mov	 ecx, DWORD PTR _type$[ebp]
  00067	89 08		 mov	 DWORD PTR [eax], ecx

; 131  : 
; 132  : 		raw = (update *) malloc_fast_mem (sizeof (update));

  00069	6a 04		 push	 4
  0006b	e8 00 00 00 00	 call	 ?malloc_fast_memory@@YGPAXI@Z ; malloc_fast_memory
  00070	89 45 f8	 mov	 DWORD PTR _raw$[ebp], eax

; 133  : 
; 134  : 		set_local_entity_data (en, raw);

  00073	8b 45 fc	 mov	 eax, DWORD PTR _en$[ebp]
  00076	8b 4d f8	 mov	 ecx, DWORD PTR _raw$[ebp]
  00079	89 48 04	 mov	 DWORD PTR [eax+4], ecx

; 135  : 
; 136  : 		////////////////////////////////////////
; 137  :    	//
; 138  :    	// INITIALISE ALL ENTITY DATA TO 'WORKING' DEFAULT VALUES
; 139  : 		//
; 140  : 		// DO NOT USE ACCESS FUNCTIONS
; 141  : 		//
; 142  : 		// DO NOT USE RANDOM VALUES
; 143  : 		//
; 144  : 		////////////////////////////////////////
; 145  : 
; 146  : 		memset (raw, 0, sizeof (update));

  0007c	6a 04		 push	 4
  0007e	6a 00		 push	 0
  00080	8b 45 f8	 mov	 eax, DWORD PTR _raw$[ebp]
  00083	50		 push	 eax
  00084	e8 00 00 00 00	 call	 _memset
  00089	83 c4 0c	 add	 esp, 12			; 0000000cH

; 147  : 
; 148  : 		////////////////////////////////////////
; 149  : 		//
; 150  : 		// OVERWRITE DEFAULT VALUES WITH GIVEN ATTRIBUTES
; 151  : 		//
; 152  : 		////////////////////////////////////////
; 153  : 
; 154  : 		set_local_entity_attributes (en, pargs);

  0008c	8b 45 10	 mov	 eax, DWORD PTR _pargs$[ebp]
  0008f	50		 push	 eax
  00090	8b 4d fc	 mov	 ecx, DWORD PTR _en$[ebp]
  00093	51		 push	 ecx
  00094	e8 00 00 00 00	 call	 ?set_local_entity_attributes@@YGXPAUENTITY@@PAD@Z ; set_local_entity_attributes

; 155  : 
; 156  : 		////////////////////////////////////////
; 157  : 		//
; 158  : 		// CHECK MANDATORY ATTRIBUTES HAVE BEEN GIVEN
; 159  : 		//
; 160  : 		////////////////////////////////////////
; 161  : 
; 162  : 		////////////////////////////////////////
; 163  : 		//
; 164  : 		// RESOLVE DEFAULT VALUES
; 165  : 		//
; 166  : 		////////////////////////////////////////
; 167  : 
; 168  : 		////////////////////////////////////////
; 169  : 		//
; 170  : 		// LINK INTO SYSTEM
; 171  : 		//
; 172  : 		////////////////////////////////////////
; 173  : 
; 174  : 		set_update_entity (en);

  00099	8b 45 fc	 mov	 eax, DWORD PTR _en$[ebp]
  0009c	50		 push	 eax
  0009d	e8 00 00 00 00	 call	 ?set_update_entity@@YGXPAUENTITY@@@Z ; set_update_entity

; 175  : 
; 176  : 		set_update_succ (NULL);

  000a2	c7 05 00 00 00
	00 00 00 00 00	 mov	 DWORD PTR ?update_succ@@3PAUENTITY@@A, 0 ; update_succ
$LN4@create_loc:

; 177  : 	}
; 178  : 
; 179  : 	return (en);

  000ac	8b 45 fc	 mov	 eax, DWORD PTR _en$[ebp]

; 180  : }

  000af	5f		 pop	 edi
  000b0	5e		 pop	 esi
  000b1	5b		 pop	 ebx
  000b2	8b e5		 mov	 esp, ebp
  000b4	5d		 pop	 ebp
  000b5	c2 0c 00	 ret	 12			; 0000000cH
?create_local@@YGPAUENTITY@@W4ENTITY_TYPES@@HPAD@Z ENDP	; create_local
_TEXT	ENDS
; Function compile flags: /Odtp /ZI
; File c:\users\nhv90\projects\eech\aphavoc\source\entity\special\update\up_creat.c
;	COMDAT ?overload_update_create_functions@@YGXXZ
_TEXT	SEGMENT
?overload_update_create_functions@@YGXXZ PROC		; overload_update_create_functions, COMDAT

; 187  : {

  00000	55		 push	 ebp
  00001	8b ec		 mov	 ebp, esp
  00003	83 ec 40	 sub	 esp, 64			; 00000040H
  00006	53		 push	 ebx
  00007	56		 push	 esi
  00008	57		 push	 edi

; 188  : 	fn_create_local_entity[ENTITY_TYPE_UPDATE] = create_local;

  00009	b8 04 00 00 00	 mov	 eax, 4
  0000e	6b c8 23	 imul	 ecx, eax, 35
  00011	c7 81 00 00 00
	00 00 00 00 00	 mov	 DWORD PTR ?fn_create_local_entity@@3PAP6GPAUENTITY@@W4ENTITY_TYPES@@HPAD@ZA[ecx], OFFSET ?create_local@@YGPAUENTITY@@W4ENTITY_TYPES@@HPAD@Z ; create_local

; 189  : }

  0001b	5f		 pop	 edi
  0001c	5e		 pop	 esi
  0001d	5b		 pop	 ebx
  0001e	8b e5		 mov	 esp, ebp
  00020	5d		 pop	 ebp
  00021	c3		 ret	 0
?overload_update_create_functions@@YGXXZ ENDP		; overload_update_create_functions
_TEXT	ENDS
; Function compile flags: /Odtp /ZI
; File c:\users\nhv90\projects\eech\aphavoc\source\entity\special\update\up_creat.c
;	COMDAT ?create_local_update_entity@@YGXXZ
_TEXT	SEGMENT
?create_local_update_entity@@YGXXZ PROC			; create_local_update_entity, COMDAT

; 88   : {

  00000	55		 push	 ebp
  00001	8b ec		 mov	 ebp, esp
  00003	83 ec 40	 sub	 esp, 64			; 00000040H
  00006	53		 push	 ebx
  00007	56		 push	 esi
  00008	57		 push	 edi

; 89   : 	create_local_entity (ENTITY_TYPE_UPDATE, ENTITY_INDEX_DONT_CARE, ENTITY_ATTR_END);

  00009	6a 00		 push	 0
  0000b	6a ff		 push	 -1
  0000d	6a 23		 push	 35			; 00000023H
  0000f	e8 00 00 00 00	 call	 ?create_local_entity@@YAPAUENTITY@@W4ENTITY_TYPES@@HZZ ; create_local_entity
  00014	83 c4 0c	 add	 esp, 12			; 0000000cH

; 90   : }

  00017	5f		 pop	 edi
  00018	5e		 pop	 esi
  00019	5b		 pop	 ebx
  0001a	8b e5		 mov	 esp, ebp
  0001c	5d		 pop	 ebp
  0001d	c3		 ret	 0
?create_local_update_entity@@YGXXZ ENDP			; create_local_update_entity
_TEXT	ENDS
END
