; Listing generated by Microsoft (R) Optimizing Compiler Version 19.16.27045.0 

	TITLE	C:\Users\nhv90\Projects\eech\aphavoc\source\entity\special\update\up_list.c
	.686P
	.XMM
	include listing.inc
	.model	flat

INCLUDELIB MSVCRTD
INCLUDELIB OLDNAMES

PUBLIC	?overload_update_list_functions@@YGXXZ		; overload_update_list_functions
PUBLIC	?__LINE__Var@?0??set_local_first_child@@YGXPAUENTITY@@W4LIST_TYPES@@0@Z@4JA ; `set_local_first_child'::`1'::__LINE__Var
PUBLIC	??_C@_0FG@COHJJNDJ@c?3?2users?2nhv90?2projects?2eech?2ap@ ; `string'
PUBLIC	??_C@_0BC@CLPEHPEO@en?5?$CB?$DN?5first_child@	; `string'
PUBLIC	?__LINE__Var@?0??get_local_first_child@@YGPAUENTITY@@PAU2@W4LIST_TYPES@@@Z@4JA ; `get_local_first_child'::`1'::__LINE__Var
PUBLIC	??_C@_0FG@DAFGCKHA@c?3?2users?2nhv90?2projects?2eech?2ap@ ; `string'
EXTRN	?process_assert@@YGXPBD0H@Z:PROC		; process_assert
EXTRN	?debug_fatal@@YAXPBDZZ:PROC			; debug_fatal
EXTRN	?null_entity_pointer_message@@3PBDB:DWORD	; null_entity_pointer_message
EXTRN	?entity_type_database@@3PAUENTITY_TYPE_DATA@@A:BYTE ; entity_type_database
EXTRN	?list_type_database@@3PAULIST_TYPE_DATA@@A:BYTE	; list_type_database
EXTRN	?debug_fatal_invalid_list_type_message@@3PBDB:DWORD ; debug_fatal_invalid_list_type_message
EXTRN	?fn_set_local_entity_first_child@@3PAY0CN@P6GXPAUENTITY@@W4LIST_TYPES@@0@ZA:BYTE ; fn_set_local_entity_first_child
EXTRN	?fn_get_local_entity_first_child@@3PAY0CN@P6GPAUENTITY@@PAU1@W4LIST_TYPES@@@ZA:BYTE ; fn_get_local_entity_first_child
EXTRN	?entities@@3PAUENTITY@@A:DWORD			; entities
;	COMDAT ??_C@_0FG@DAFGCKHA@c?3?2users?2nhv90?2projects?2eech?2ap@
CONST	SEGMENT
??_C@_0FG@DAFGCKHA@c?3?2users?2nhv90?2projects?2eech?2ap@ DB 'c:\users\nh'
	DB	'v90\projects\eech\aphavoc\source\entity\system\en_funcs\en_li'
	DB	'st\get_frst.h', 00H				; `string'
CONST	ENDS
;	COMDAT ?__LINE__Var@?0??get_local_first_child@@YGPAUENTITY@@PAU2@W4LIST_TYPES@@@Z@4JA
_DATA	SEGMENT
?__LINE__Var@?0??get_local_first_child@@YGPAUENTITY@@PAU2@W4LIST_TYPES@@@Z@4JA DD 07aH ; `get_local_first_child'::`1'::__LINE__Var
_DATA	ENDS
;	COMDAT ??_C@_0BC@CLPEHPEO@en?5?$CB?$DN?5first_child@
CONST	SEGMENT
??_C@_0BC@CLPEHPEO@en?5?$CB?$DN?5first_child@ DB 'en != first_child', 00H ; `string'
CONST	ENDS
;	COMDAT ??_C@_0FG@COHJJNDJ@c?3?2users?2nhv90?2projects?2eech?2ap@
CONST	SEGMENT
??_C@_0FG@COHJJNDJ@c?3?2users?2nhv90?2projects?2eech?2ap@ DB 'c:\users\nh'
	DB	'v90\projects\eech\aphavoc\source\entity\system\en_funcs\en_li'
	DB	'st\set_frst.h', 00H				; `string'
CONST	ENDS
;	COMDAT ?__LINE__Var@?0??set_local_first_child@@YGXPAUENTITY@@W4LIST_TYPES@@0@Z@4JA
_DATA	SEGMENT
?__LINE__Var@?0??set_local_first_child@@YGXPAUENTITY@@W4LIST_TYPES@@0@Z@4JA DD 068H ; `set_local_first_child'::`1'::__LINE__Var
_DATA	ENDS
; Function compile flags: /Odtp /ZI
; File c:\users\nhv90\projects\eech\aphavoc\source\entity\special\update\up_list.c
; File c:\users\nhv90\projects\eech\aphavoc\source\entity\system\en_funcs\en_list\get_frst.h
; File c:\users\nhv90\projects\eech\aphavoc\source\entity\special\update\up_list.c
;	COMDAT ?get_local_first_child@@YGPAUENTITY@@PAU1@W4LIST_TYPES@@@Z
_TEXT	SEGMENT
tv84 = -76						; size = 4
tv65 = -76						; size = 4
_first_child$ = -8					; size = 4
_raw$ = -4						; size = 4
_en$ = 8						; size = 4
_type$ = 12						; size = 4
?get_local_first_child@@YGPAUENTITY@@PAU1@W4LIST_TYPES@@@Z PROC ; get_local_first_child, COMDAT

; 122  : {

  00000	55		 push	 ebp
  00001	8b ec		 mov	 ebp, esp
  00003	83 ec 4c	 sub	 esp, 76			; 0000004cH
  00006	53		 push	 ebx
  00007	56		 push	 esi
  00008	57		 push	 edi

; 123  : 	update
; 124  : 		*raw;
; 125  : 
; 126  : 	entity
; 127  : 		*first_child;
; 128  : 
; 129  : 	raw = (update *) get_local_entity_data (en);

  00009	8b 45 08	 mov	 eax, DWORD PTR _en$[ebp]
  0000c	8b 48 04	 mov	 ecx, DWORD PTR [eax+4]
  0000f	89 4d fc	 mov	 DWORD PTR _raw$[ebp], ecx
; File c:\users\nhv90\projects\eech\aphavoc\source\entity\system\en_funcs\en_list\get_frst.h

; 67   : switch (type)

  00012	8b 45 0c	 mov	 eax, DWORD PTR _type$[ebp]
  00015	89 45 b4	 mov	 DWORD PTR tv65[ebp], eax
  00018	83 7d b4 29	 cmp	 DWORD PTR tv65[ebp], 41	; 00000029H
  0001c	74 02		 je	 SHORT $LN4@get_local_
  0001e	eb 0a		 jmp	 SHORT $LN5@get_local_
$LN4@get_local_:

; 68   : {
; 69   : 	////////////////////////////////////////
; 70   : 
; 71   : 	#ifdef LIST_TYPE_AIRCREW_ROOT
; 72   : 
; 73   : 	case LIST_TYPE_AIRCREW:
; 74   : 	{
; 75   : 		first_child = raw->aircrew_root.first_child;
; 76   : 
; 77   : 		break;
; 78   : 	}
; 79   : 
; 80   : 	#endif
; 81   : 
; 82   : 	////////////////////////////////////////
; 83   : 
; 84   : 	#ifdef LIST_TYPE_AIR_REGISTRY_ROOT
; 85   : 
; 86   : 	case LIST_TYPE_AIR_REGISTRY:
; 87   : 	{
; 88   : 		first_child = raw->air_registry_root.first_child;
; 89   : 
; 90   : 		break;
; 91   : 	}
; 92   : 
; 93   : 	#endif
; 94   : 
; 95   : 	////////////////////////////////////////
; 96   : 
; 97   : 	#ifdef LIST_TYPE_ASSIGNED_TASK_ROOT
; 98   : 
; 99   : 	case LIST_TYPE_ASSIGNED_TASK:
; 100  : 	{
; 101  : 		first_child = raw->assigned_task_root.first_child;
; 102  : 
; 103  : 		break;
; 104  : 	}
; 105  : 
; 106  : 	#endif
; 107  : 
; 108  : 	////////////////////////////////////////
; 109  : 
; 110  : 	#ifdef LIST_TYPE_BUILDING_GROUP_ROOT
; 111  : 
; 112  : 	case LIST_TYPE_BUILDING_GROUP:
; 113  : 	{
; 114  : 		first_child = raw->building_group_root.first_child;
; 115  : 
; 116  : 		break;
; 117  : 	}
; 118  : 
; 119  : 	#endif
; 120  : 
; 121  : 	////////////////////////////////////////
; 122  : 
; 123  : 	#ifdef LIST_TYPE_CAMPAIGN_OBJECTIVE_ROOT
; 124  : 
; 125  : 	case LIST_TYPE_CAMPAIGN_OBJECTIVE:
; 126  : 	{
; 127  : 		first_child = raw->campaign_objective_root.first_child;
; 128  : 
; 129  : 		break;
; 130  : 	}
; 131  : 
; 132  : 	#endif
; 133  : 
; 134  : 	////////////////////////////////////////
; 135  : 
; 136  : 	#ifdef LIST_TYPE_CARGO_ROOT
; 137  : 
; 138  : 	case LIST_TYPE_CARGO:
; 139  : 	{
; 140  : 		first_child = raw->cargo_root.first_child;
; 141  : 
; 142  : 		break;
; 143  : 	}
; 144  : 
; 145  : 	#endif
; 146  : 
; 147  : 	////////////////////////////////////////
; 148  : 
; 149  : 	#ifdef LIST_TYPE_CITY_BUILDING_ROOT
; 150  : 
; 151  : 	case LIST_TYPE_CITY_BUILDING:
; 152  : 	{
; 153  : 		first_child = raw->city_building_root.first_child;
; 154  : 
; 155  : 		break;
; 156  : 	}
; 157  : 
; 158  : 	#endif
; 159  : 
; 160  : 	////////////////////////////////////////
; 161  : 
; 162  : 	#ifdef LIST_TYPE_COMPLETED_TASK_ROOT
; 163  : 
; 164  : 	case LIST_TYPE_COMPLETED_TASK:
; 165  : 	{
; 166  : 		first_child = raw->completed_task_root.first_child;
; 167  : 
; 168  : 		break;
; 169  : 	}
; 170  : 
; 171  : 	#endif
; 172  : 
; 173  : 	////////////////////////////////////////
; 174  : 
; 175  : 	#ifdef LIST_TYPE_CURRENT_WAYPOINT_ROOT
; 176  : 
; 177  : 	case LIST_TYPE_CURRENT_WAYPOINT:
; 178  : 	{
; 179  : 		first_child = raw->current_waypoint_root.first_child;
; 180  : 
; 181  : 		break;
; 182  : 	}
; 183  : 
; 184  : 	#endif
; 185  : 
; 186  : // Jabbewock 031107 Designated targets
; 187  : 
; 188  : 	#ifdef LIST_TYPE_DESIGNATED_TARGET_ROOT
; 189  : 
; 190  : 	case LIST_TYPE_DESIGNATED_TARGET:
; 191  : 	{
; 192  : 		first_child = raw->designated_target_root.first_child;
; 193  : 
; 194  : 		break;
; 195  : 	}
; 196  : 
; 197  : 	#endif
; 198  : // Jabbewock 031107 ends
; 199  : 
; 200  : 	////////////////////////////////////////
; 201  : 
; 202  : 	#ifdef LIST_TYPE_DIVISION_ROOT
; 203  : 
; 204  : 	case LIST_TYPE_DIVISION:
; 205  : 	{
; 206  : 		first_child = raw->division_root.first_child;
; 207  : 
; 208  : 		break;
; 209  : 	}
; 210  : 
; 211  : 	#endif
; 212  : 
; 213  : 	////////////////////////////////////////
; 214  : 
; 215  : 	#ifdef LIST_TYPE_DIVISION_HEADQUARTERS_ROOT
; 216  : 
; 217  : 	case LIST_TYPE_DIVISION_HEADQUARTERS:
; 218  : 	{
; 219  : 		first_child = raw->division_headquarters_root.first_child;
; 220  : 
; 221  : 		break;
; 222  : 	}
; 223  : 
; 224  : 	#endif
; 225  : 
; 226  : 	////////////////////////////////////////
; 227  : 
; 228  : 	#ifdef LIST_TYPE_FOLLOWER_ROOT
; 229  : 
; 230  : 	case LIST_TYPE_FOLLOWER:
; 231  : 	{
; 232  : 		first_child = raw->follower_root.first_child;
; 233  : 
; 234  : 		break;
; 235  : 	}
; 236  : 
; 237  : 	#endif
; 238  : 
; 239  : 	////////////////////////////////////////
; 240  : 
; 241  : 	#ifdef LIST_TYPE_FORCE_ROOT
; 242  : 
; 243  : 	case LIST_TYPE_FORCE:
; 244  : 	{
; 245  : 		first_child = raw->force_root.first_child;
; 246  : 
; 247  : 		break;
; 248  : 	}
; 249  : 
; 250  : 	#endif
; 251  : 
; 252  : 	////////////////////////////////////////
; 253  : 
; 254  : 	#ifdef LIST_TYPE_GROUND_REGISTRY_ROOT
; 255  : 
; 256  : 	case LIST_TYPE_GROUND_REGISTRY:
; 257  : 	{
; 258  : 		first_child = raw->ground_registry_root.first_child;
; 259  : 
; 260  : 		break;
; 261  : 	}
; 262  : 
; 263  : 	#endif
; 264  : 
; 265  : 	////////////////////////////////////////
; 266  : 
; 267  : 	#ifdef LIST_TYPE_GUIDE_ROOT
; 268  : 
; 269  : 	case LIST_TYPE_GUIDE:
; 270  : 	{
; 271  : 		first_child = raw->guide_root.first_child;
; 272  : 
; 273  : 		break;
; 274  : 	}
; 275  : 
; 276  : 	#endif
; 277  : 
; 278  : 	////////////////////////////////////////
; 279  : 
; 280  : 	#ifdef LIST_TYPE_GUIDE_STACK_ROOT
; 281  : 
; 282  : 	case LIST_TYPE_GUIDE_STACK:
; 283  : 	{
; 284  : 		first_child = raw->guide_stack_root.first_child;
; 285  : 
; 286  : 		break;
; 287  : 	}
; 288  : 
; 289  : 	#endif
; 290  : 
; 291  : 	////////////////////////////////////////
; 292  : 
; 293  : 	#ifdef LIST_TYPE_GUNSHIP_TARGET_ROOT
; 294  : 
; 295  : 	case LIST_TYPE_GUNSHIP_TARGET:
; 296  : 	{
; 297  : 		first_child = raw->gunship_target_root.first_child;
; 298  : 
; 299  : 		break;
; 300  : 	}
; 301  : 
; 302  : 	#endif
; 303  : 
; 304  : 	////////////////////////////////////////
; 305  : 
; 306  : 	#ifdef LIST_TYPE_INDEPENDENT_GROUP_ROOT
; 307  : 
; 308  : 	case LIST_TYPE_INDEPENDENT_GROUP:
; 309  : 	{
; 310  : 		first_child = raw->independent_group_root.first_child;
; 311  : 
; 312  : 		break;
; 313  : 	}
; 314  : 
; 315  : 	#endif
; 316  : 
; 317  : 	////////////////////////////////////////
; 318  : 
; 319  : 	#ifdef LIST_TYPE_HIERARCHY_ROOT
; 320  : 
; 321  : 	case LIST_TYPE_HIERARCHY:
; 322  : 	{
; 323  : 		first_child = raw->hierarchy_root.first_child;
; 324  : 
; 325  : 		break;
; 326  : 	}
; 327  : 
; 328  : 	#endif
; 329  : 
; 330  : 	////////////////////////////////////////
; 331  : 
; 332  : 	#ifdef LIST_TYPE_KEYSITE_FORCE_ROOT
; 333  : 
; 334  : 	case LIST_TYPE_KEYSITE_FORCE:
; 335  : 	{
; 336  : 		first_child = raw->keysite_force_root.first_child;
; 337  : 
; 338  : 		break;
; 339  : 	}
; 340  : 
; 341  : 	#endif
; 342  : 
; 343  : 	////////////////////////////////////////
; 344  : 
; 345  : 	#ifdef LIST_TYPE_KEYSITE_GROUP_ROOT
; 346  : 
; 347  : 	case LIST_TYPE_KEYSITE_GROUP:
; 348  : 	{
; 349  : 		first_child = raw->keysite_group_root.first_child;
; 350  : 
; 351  : 		break;
; 352  : 	}
; 353  : 
; 354  : 	#endif
; 355  : 
; 356  : 	////////////////////////////////////////
; 357  : 
; 358  : 	#ifdef LIST_TYPE_LAUNCHED_WEAPON_ROOT
; 359  : 
; 360  : 	case LIST_TYPE_LAUNCHED_WEAPON:
; 361  : 	{
; 362  : 		first_child = raw->launched_weapon_root.first_child;
; 363  : 
; 364  : 		break;
; 365  : 	}
; 366  : 
; 367  : 	#endif
; 368  : 
; 369  : 	////////////////////////////////////////
; 370  : 
; 371  : 	#ifdef LIST_TYPE_LANDING_SITE_ROOT
; 372  : 
; 373  : 	case LIST_TYPE_LANDING_SITE:
; 374  : 	{
; 375  : 		first_child = raw->landing_site_root.first_child;
; 376  : 
; 377  : 		break;
; 378  : 	}
; 379  : 
; 380  : 	#endif
; 381  : 
; 382  : 	////////////////////////////////////////
; 383  : 
; 384  : 	#ifdef LIST_TYPE_MEMBER_ROOT
; 385  : 
; 386  : 	case LIST_TYPE_MEMBER:
; 387  : 	{
; 388  : 		first_child = raw->member_root.first_child;
; 389  : 
; 390  : 		break;
; 391  : 	}
; 392  : 
; 393  : 	#endif
; 394  : 
; 395  : 	////////////////////////////////////////
; 396  : 
; 397  : 	#ifdef LIST_TYPE_MOVEMENT_DEPENDENT_ROOT
; 398  : 
; 399  : 	case LIST_TYPE_MOVEMENT_DEPENDENT:
; 400  : 	{
; 401  : 		first_child = raw->movement_dependent_root.first_child;
; 402  : 
; 403  : 		break;
; 404  : 	}
; 405  : 
; 406  : 	#endif
; 407  : 
; 408  : 	////////////////////////////////////////
; 409  : 
; 410  : 	#ifdef LIST_TYPE_PADLOCK_ROOT
; 411  : 
; 412  : 	case LIST_TYPE_PADLOCK:
; 413  : 	{
; 414  : 		first_child = raw->padlock_root.first_child;
; 415  : 
; 416  : 		break;
; 417  : 	}
; 418  : 
; 419  : 	#endif
; 420  : 
; 421  : 	////////////////////////////////////////
; 422  : 
; 423  : 	#ifdef LIST_TYPE_PILOT_ROOT
; 424  : 
; 425  : 	case LIST_TYPE_PILOT:
; 426  : 	{
; 427  : 		first_child = raw->pilot_root.first_child;
; 428  : 
; 429  : 		break;
; 430  : 	}
; 431  : 
; 432  : 	#endif
; 433  : 
; 434  : 	////////////////////////////////////////
; 435  : 
; 436  : 	#ifdef LIST_TYPE_PILOT_LOCK_ROOT
; 437  : 
; 438  : 	case LIST_TYPE_PILOT_LOCK:
; 439  : 	{
; 440  : 		first_child = raw->pilot_lock_root.first_child;
; 441  : 
; 442  : 		break;
; 443  : 	}
; 444  : 
; 445  : 	#endif
; 446  : 
; 447  : 	////////////////////////////////////////
; 448  : 
; 449  : 	#ifdef LIST_TYPE_PLAYER_TASK_ROOT
; 450  : 
; 451  : 	case LIST_TYPE_PLAYER_TASK:
; 452  : 	{
; 453  : 		first_child = raw->player_task_root.first_child;
; 454  : 
; 455  : 		break;
; 456  : 	}
; 457  : 
; 458  : 	#endif
; 459  : 
; 460  : 	////////////////////////////////////////
; 461  : 
; 462  : 	#ifdef LIST_TYPE_REGEN_ROOT
; 463  : 
; 464  : 	case LIST_TYPE_REGEN:
; 465  : 	{
; 466  : 		first_child = raw->regen_root.first_child;
; 467  : 
; 468  : 		break;
; 469  : 	}
; 470  : 
; 471  : 	#endif
; 472  : 
; 473  : 	////////////////////////////////////////
; 474  : 
; 475  : 	#ifdef LIST_TYPE_SEA_REGISTRY_ROOT
; 476  : 
; 477  : 	case LIST_TYPE_SEA_REGISTRY:
; 478  : 	{
; 479  : 		first_child = raw->sea_registry_root.first_child;
; 480  : 
; 481  : 		break;
; 482  : 	}
; 483  : 
; 484  : 	#endif
; 485  : 
; 486  : 	////////////////////////////////////////
; 487  : 
; 488  : 	#ifdef LIST_TYPE_SECTOR_ROOT
; 489  : 
; 490  : 	case LIST_TYPE_SECTOR:
; 491  : 	{
; 492  : 		first_child = raw->sector_root.first_child;
; 493  : 
; 494  : 		break;
; 495  : 	}
; 496  : 
; 497  : 	#endif
; 498  : 
; 499  : 	////////////////////////////////////////
; 500  : 
; 501  : 	#ifdef LIST_TYPE_SECTOR_TASK_ROOT
; 502  : 
; 503  : 	case LIST_TYPE_SECTOR_TASK:
; 504  : 	{
; 505  : 		first_child = raw->sector_task_root.first_child;
; 506  : 
; 507  : 		break;
; 508  : 	}
; 509  : 
; 510  : 	#endif
; 511  : 
; 512  : 	////////////////////////////////////////
; 513  : 
; 514  : 	#ifdef LIST_TYPE_SEGMENT_ROOT
; 515  : 
; 516  : 	case LIST_TYPE_SEGMENT:
; 517  : 	{
; 518  : 		first_child = raw->segment_root.first_child;
; 519  : 
; 520  : 		break;
; 521  : 	}
; 522  : 
; 523  : 	#endif
; 524  : 
; 525  : 	////////////////////////////////////////
; 526  : 
; 527  : 	#ifdef LIST_TYPE_SPECIAL_EFFECT_ROOT
; 528  : 
; 529  : 	case LIST_TYPE_SPECIAL_EFFECT:
; 530  : 	{
; 531  : 		first_child = raw->special_effect_root.first_child;
; 532  : 
; 533  : 		break;
; 534  : 	}
; 535  : 
; 536  : 	#endif
; 537  : 
; 538  : 	////////////////////////////////////////
; 539  : 
; 540  : 	#ifdef LIST_TYPE_TAKEOFF_QUEUE_ROOT
; 541  : 
; 542  : 	case LIST_TYPE_TAKEOFF_QUEUE:
; 543  : 	{
; 544  : 		first_child = raw->takeoff_queue_root.first_child;
; 545  : 
; 546  : 		break;
; 547  : 	}
; 548  : 
; 549  : 	#endif
; 550  : 
; 551  : 	////////////////////////////////////////
; 552  : 
; 553  : 	#ifdef LIST_TYPE_TARGET_ROOT
; 554  : 
; 555  : 	case LIST_TYPE_TARGET:
; 556  : 	{
; 557  : 		first_child = raw->target_root.first_child;
; 558  : 
; 559  : 		break;
; 560  : 	}
; 561  : 
; 562  : 	#endif
; 563  : 
; 564  : 	////////////////////////////////////////
; 565  : 
; 566  : 	#ifdef LIST_TYPE_TASK_DEPENDENT_ROOT
; 567  : 
; 568  : 	case LIST_TYPE_TASK_DEPENDENT:
; 569  : 	{
; 570  : 		first_child = raw->task_dependent_root.first_child;
; 571  : 
; 572  : 		break;
; 573  : 	}
; 574  : 
; 575  : 	#endif
; 576  : 
; 577  : 	////////////////////////////////////////
; 578  : 
; 579  : 	#ifdef LIST_TYPE_UNASSIGNED_TASK_ROOT
; 580  : 
; 581  : 	case LIST_TYPE_UNASSIGNED_TASK:
; 582  : 	{
; 583  : 		first_child = raw->unassigned_task_root.first_child;
; 584  : 
; 585  : 		break;
; 586  : 	}
; 587  : 
; 588  : 	#endif
; 589  : 
; 590  : 	////////////////////////////////////////
; 591  : 
; 592  : 	#ifdef LIST_TYPE_UPDATE_ROOT
; 593  : 
; 594  : 	case LIST_TYPE_UPDATE:
; 595  : 	{
; 596  : 		first_child = raw->update_root.first_child;

  00020	8b 45 fc	 mov	 eax, DWORD PTR _raw$[ebp]
  00023	8b 08		 mov	 ecx, DWORD PTR [eax]
  00025	89 4d f8	 mov	 DWORD PTR _first_child$[ebp], ecx

; 597  : 
; 598  : 		break;

  00028	eb 7f		 jmp	 SHORT $LN2@get_local_
$LN5@get_local_:

; 599  : 	}
; 600  : 
; 601  : 	#endif
; 602  : 
; 603  : 	////////////////////////////////////////
; 604  : 
; 605  : 	#ifdef LIST_TYPE_VIEW_ROOT
; 606  : 
; 607  : 	case LIST_TYPE_VIEW:
; 608  : 	{
; 609  : 		first_child = raw->view_root.first_child;
; 610  : 
; 611  : 		break;
; 612  : 	}
; 613  : 
; 614  : 	#endif
; 615  : 
; 616  : 	////////////////////////////////////////
; 617  : 
; 618  : 	#ifdef LIST_TYPE_VIEW_WEAPON_ROOT
; 619  : 
; 620  : 	case LIST_TYPE_VIEW_WEAPON:
; 621  : 	{
; 622  : 		first_child = raw->view_weapon_root.first_child;
; 623  : 
; 624  : 		break;
; 625  : 	}
; 626  : 
; 627  : 	#endif
; 628  : 
; 629  : 	////////////////////////////////////////
; 630  : 
; 631  : 	#ifdef LIST_TYPE_WAYPOINT_ROOT
; 632  : 
; 633  : 	case LIST_TYPE_WAYPOINT:
; 634  : 	{
; 635  : 		first_child = raw->waypoint_root.first_child;
; 636  : 
; 637  : 		break;
; 638  : 	}
; 639  : 
; 640  : 	#endif
; 641  : 
; 642  : 	////////////////////////////////////////
; 643  : 
; 644  : 	default:
; 645  : 	{
; 646  : 		debug_fatal_invalid_list_type (en, type);

  0002a	83 7d 08 00	 cmp	 DWORD PTR _en$[ebp], 0
  0002e	74 0a		 je	 SHORT $LN8@get_local_
  00030	8b 45 08	 mov	 eax, DWORD PTR _en$[ebp]
  00033	8b 08		 mov	 ecx, DWORD PTR [eax]
  00035	89 4d b4	 mov	 DWORD PTR tv84[ebp], ecx
  00038	eb 24		 jmp	 SHORT $LN9@get_local_
$LN8@get_local_:
  0003a	8b 15 00 00 00
	00		 mov	 edx, DWORD PTR ?__LINE__Var@?0??get_local_first_child@@YGPAUENTITY@@PAU2@W4LIST_TYPES@@@Z@4JA
  00040	81 c2 0c 02 00
	00		 add	 edx, 524		; 0000020cH
  00046	52		 push	 edx
  00047	68 00 00 00 00	 push	 OFFSET ??_C@_0FG@DAFGCKHA@c?3?2users?2nhv90?2projects?2eech?2ap@
  0004c	a1 00 00 00 00	 mov	 eax, DWORD PTR ?null_entity_pointer_message@@3PBDB ; null_entity_pointer_message
  00051	50		 push	 eax
  00052	e8 00 00 00 00	 call	 ?process_assert@@YGXPBD0H@Z ; process_assert
  00057	c7 45 b4 00 00
	00 00		 mov	 DWORD PTR tv84[ebp], 0
$LN9@get_local_:
  0005e	8b 0d 00 00 00
	00		 mov	 ecx, DWORD PTR ?__LINE__Var@?0??get_local_first_child@@YGPAUENTITY@@PAU2@W4LIST_TYPES@@@Z@4JA
  00064	81 c1 0c 02 00
	00		 add	 ecx, 524		; 0000020cH
  0006a	51		 push	 ecx
  0006b	68 00 00 00 00	 push	 OFFSET ??_C@_0FG@DAFGCKHA@c?3?2users?2nhv90?2projects?2eech?2ap@
  00070	8b 55 0c	 mov	 edx, DWORD PTR _type$[ebp]
  00073	8b 04 d5 00 00
	00 00		 mov	 eax, DWORD PTR ?list_type_database@@3PAULIST_TYPE_DATA@@A[edx*8]
  0007a	50		 push	 eax
  0007b	8b 4d 08	 mov	 ecx, DWORD PTR _en$[ebp]
  0007e	2b 0d 00 00 00
	00		 sub	 ecx, DWORD PTR ?entities@@3PAUENTITY@@A ; entities
  00084	c1 f9 04	 sar	 ecx, 4
  00087	51		 push	 ecx
  00088	6b 55 b4 0c	 imul	 edx, DWORD PTR tv84[ebp], 12
  0008c	8b 82 00 00 00
	00		 mov	 eax, DWORD PTR ?entity_type_database@@3PAUENTITY_TYPE_DATA@@A[edx]
  00092	50		 push	 eax
  00093	8b 0d 00 00 00
	00		 mov	 ecx, DWORD PTR ?debug_fatal_invalid_list_type_message@@3PBDB ; debug_fatal_invalid_list_type_message
  00099	51		 push	 ecx
  0009a	e8 00 00 00 00	 call	 ?debug_fatal@@YAXPBDZZ	; debug_fatal
  0009f	83 c4 18	 add	 esp, 24			; 00000018H

; 647  : 
; 648  : 		first_child = NULL;

  000a2	c7 45 f8 00 00
	00 00		 mov	 DWORD PTR _first_child$[ebp], 0
$LN2@get_local_:

; 649  : 
; 650  : 		break;
; 651  : 	}
; 652  : 
; 653  : 	////////////////////////////////////////
; 654  : }
; 655  : 
; 656  : //
; 657  : // check list integrity
; 658  : //
; 659  : 
; 660  : ASSERT (en != first_child);

  000a9	8b 45 08	 mov	 eax, DWORD PTR _en$[ebp]
  000ac	3b 45 f8	 cmp	 eax, DWORD PTR _first_child$[ebp]
  000af	75 1a		 jne	 SHORT $LN6@get_local_
  000b1	a1 00 00 00 00	 mov	 eax, DWORD PTR ?__LINE__Var@?0??get_local_first_child@@YGPAUENTITY@@PAU2@W4LIST_TYPES@@@Z@4JA
  000b6	05 1a 02 00 00	 add	 eax, 538		; 0000021aH
  000bb	50		 push	 eax
  000bc	68 00 00 00 00	 push	 OFFSET ??_C@_0FG@DAFGCKHA@c?3?2users?2nhv90?2projects?2eech?2ap@
  000c1	68 00 00 00 00	 push	 OFFSET ??_C@_0BC@CLPEHPEO@en?5?$CB?$DN?5first_child@
  000c6	e8 00 00 00 00	 call	 ?process_assert@@YGXPBD0H@Z ; process_assert
$LN6@get_local_:
; File c:\users\nhv90\projects\eech\aphavoc\source\entity\special\update\up_list.c

; 133  : 	return (first_child);

  000cb	8b 45 f8	 mov	 eax, DWORD PTR _first_child$[ebp]

; 134  : }

  000ce	5f		 pop	 edi
  000cf	5e		 pop	 esi
  000d0	5b		 pop	 ebx
  000d1	8b e5		 mov	 esp, ebp
  000d3	5d		 pop	 ebp
  000d4	c2 08 00	 ret	 8
?get_local_first_child@@YGPAUENTITY@@PAU1@W4LIST_TYPES@@@Z ENDP ; get_local_first_child
_TEXT	ENDS
; Function compile flags: /Odtp /ZI
; File c:\users\nhv90\projects\eech\aphavoc\source\entity\special\update\up_list.c
; File c:\users\nhv90\projects\eech\aphavoc\source\entity\system\en_funcs\en_list\set_frst.h
; File c:\users\nhv90\projects\eech\aphavoc\source\entity\special\update\up_list.c
;	COMDAT ?set_local_first_child@@YGXPAUENTITY@@W4LIST_TYPES@@0@Z
_TEXT	SEGMENT
tv89 = -72						; size = 4
tv70 = -72						; size = 4
_raw$ = -4						; size = 4
_en$ = 8						; size = 4
_type$ = 12						; size = 4
_first_child$ = 16					; size = 4
?set_local_first_child@@YGXPAUENTITY@@W4LIST_TYPES@@0@Z PROC ; set_local_first_child, COMDAT

; 104  : {

  00000	55		 push	 ebp
  00001	8b ec		 mov	 ebp, esp
  00003	83 ec 48	 sub	 esp, 72			; 00000048H
  00006	53		 push	 ebx
  00007	56		 push	 esi
  00008	57		 push	 edi

; 105  : 	update
; 106  : 		*raw;
; 107  : 
; 108  : 	raw = (update *) get_local_entity_data (en);

  00009	8b 45 08	 mov	 eax, DWORD PTR _en$[ebp]
  0000c	8b 48 04	 mov	 ecx, DWORD PTR [eax+4]
  0000f	89 4d fc	 mov	 DWORD PTR _raw$[ebp], ecx
; File c:\users\nhv90\projects\eech\aphavoc\source\entity\system\en_funcs\en_list\set_frst.h

; 71   : ASSERT (en != first_child);

  00012	8b 45 08	 mov	 eax, DWORD PTR _en$[ebp]
  00015	3b 45 10	 cmp	 eax, DWORD PTR _first_child$[ebp]
  00018	75 18		 jne	 SHORT $LN4@set_local_
  0001a	a1 00 00 00 00	 mov	 eax, DWORD PTR ?__LINE__Var@?0??set_local_first_child@@YGXPAUENTITY@@W4LIST_TYPES@@0@Z@4JA
  0001f	83 e8 21	 sub	 eax, 33			; 00000021H
  00022	50		 push	 eax
  00023	68 00 00 00 00	 push	 OFFSET ??_C@_0FG@COHJJNDJ@c?3?2users?2nhv90?2projects?2eech?2ap@
  00028	68 00 00 00 00	 push	 OFFSET ??_C@_0BC@CLPEHPEO@en?5?$CB?$DN?5first_child@
  0002d	e8 00 00 00 00	 call	 ?process_assert@@YGXPBD0H@Z ; process_assert
$LN4@set_local_:

; 72   : 
; 73   : switch (type)

  00032	8b 45 0c	 mov	 eax, DWORD PTR _type$[ebp]
  00035	89 45 b8	 mov	 DWORD PTR tv70[ebp], eax
  00038	83 7d b8 29	 cmp	 DWORD PTR tv70[ebp], 41	; 00000029H
  0003c	74 02		 je	 SHORT $LN5@set_local_
  0003e	eb 0a		 jmp	 SHORT $LN6@set_local_
$LN5@set_local_:

; 74   : {
; 75   : 	////////////////////////////////////////
; 76   : 
; 77   : 	#ifdef LIST_TYPE_AIRCREW_ROOT
; 78   : 
; 79   : 	case LIST_TYPE_AIRCREW:
; 80   : 	{
; 81   : 		raw->aircrew_root.first_child = first_child;
; 82   : 
; 83   : 		break;
; 84   : 	}
; 85   : 
; 86   : 	#endif
; 87   : 
; 88   : 	////////////////////////////////////////
; 89   : 
; 90   : 	#ifdef LIST_TYPE_AIR_REGISTRY_ROOT
; 91   : 
; 92   : 	case LIST_TYPE_AIR_REGISTRY:
; 93   : 	{
; 94   : 		raw->air_registry_root.first_child = first_child;
; 95   : 
; 96   : 		break;
; 97   : 	}
; 98   : 
; 99   : 	#endif
; 100  : 
; 101  : 	////////////////////////////////////////
; 102  : 
; 103  : 	#ifdef LIST_TYPE_ASSIGNED_TASK_ROOT
; 104  : 
; 105  : 	case LIST_TYPE_ASSIGNED_TASK:
; 106  : 	{
; 107  : 		raw->assigned_task_root.first_child = first_child;
; 108  : 
; 109  : 		break;
; 110  : 	}
; 111  : 
; 112  : 	#endif
; 113  : 
; 114  : 	////////////////////////////////////////
; 115  : 
; 116  : 	#ifdef LIST_TYPE_BUILDING_GROUP_ROOT
; 117  : 
; 118  : 	case LIST_TYPE_BUILDING_GROUP:
; 119  : 	{
; 120  : 		raw->building_group_root.first_child = first_child;
; 121  : 
; 122  : 		break;
; 123  : 	}
; 124  : 
; 125  : 	#endif
; 126  : 
; 127  : 	////////////////////////////////////////
; 128  : 
; 129  : 	#ifdef LIST_TYPE_CAMPAIGN_OBJECTIVE_ROOT
; 130  : 
; 131  : 	case LIST_TYPE_CAMPAIGN_OBJECTIVE:
; 132  : 	{
; 133  : 		raw->campaign_objective_root.first_child = first_child;
; 134  : 
; 135  : 		break;
; 136  : 	}
; 137  : 
; 138  : 	#endif
; 139  : 
; 140  : 	////////////////////////////////////////
; 141  : 
; 142  : 	#ifdef LIST_TYPE_CARGO_ROOT
; 143  : 
; 144  : 	case LIST_TYPE_CARGO:
; 145  : 	{
; 146  : 		raw->cargo_root.first_child = first_child;
; 147  : 
; 148  : 		break;
; 149  : 	}
; 150  : 
; 151  : 	#endif
; 152  : 
; 153  : 	////////////////////////////////////////
; 154  : 
; 155  : 	#ifdef LIST_TYPE_CITY_BUILDING_ROOT
; 156  : 
; 157  : 	case LIST_TYPE_CITY_BUILDING:
; 158  : 	{
; 159  : 		raw->city_building_root.first_child = first_child;
; 160  : 
; 161  : 		break;
; 162  : 	}
; 163  : 
; 164  : 	#endif
; 165  : 
; 166  : 	////////////////////////////////////////
; 167  : 
; 168  : 	#ifdef LIST_TYPE_COMPLETED_TASK_ROOT
; 169  : 
; 170  : 	case LIST_TYPE_COMPLETED_TASK:
; 171  : 	{
; 172  : 		raw->completed_task_root.first_child = first_child;
; 173  : 
; 174  : 		break;
; 175  : 	}
; 176  : 
; 177  : 	#endif
; 178  : 
; 179  : 	////////////////////////////////////////
; 180  : 
; 181  : 	#ifdef LIST_TYPE_CURRENT_WAYPOINT_ROOT
; 182  : 
; 183  : 	case LIST_TYPE_CURRENT_WAYPOINT:
; 184  : 	{
; 185  : 		raw->current_waypoint_root.first_child = first_child;
; 186  : 
; 187  : 		break;
; 188  : 	}
; 189  : 
; 190  : 	#endif
; 191  : 
; 192  : 	////////////////////////////////////////
; 193  : 
; 194  : 	// Jabbewock 031107 Designated targets
; 195  : 		
; 196  : 	#ifdef LIST_TYPE_DESIGNATED_TARGET_ROOT
; 197  : 
; 198  : 	case LIST_TYPE_DESIGNATED_TARGET:
; 199  : 	{
; 200  : 		raw->designated_target_root.first_child = first_child;
; 201  : 
; 202  : 		break;
; 203  : 	}
; 204  : 
; 205  : 	#endif
; 206  : 	
; 207  : 	// Jabbewock 031107 ends
; 208  : 
; 209  : 	#ifdef LIST_TYPE_DIVISION_ROOT
; 210  : 
; 211  : 	case LIST_TYPE_DIVISION:
; 212  : 	{
; 213  : 		raw->division_root.first_child = first_child;
; 214  : 
; 215  : 		break;
; 216  : 	}
; 217  : 
; 218  : 	#endif
; 219  : 
; 220  : 	////////////////////////////////////////
; 221  : 
; 222  : 	#ifdef LIST_TYPE_DIVISION_HEADQUARTERS_ROOT
; 223  : 
; 224  : 	case LIST_TYPE_DIVISION_HEADQUARTERS:
; 225  : 	{
; 226  : 		raw->division_headquarters_root.first_child = first_child;
; 227  : 
; 228  : 		break;
; 229  : 	}
; 230  : 
; 231  : 	#endif
; 232  : 
; 233  : 	////////////////////////////////////////
; 234  : 
; 235  : 	#ifdef LIST_TYPE_FOLLOWER_ROOT
; 236  : 
; 237  : 	case LIST_TYPE_FOLLOWER:
; 238  : 	{
; 239  : 		raw->follower_root.first_child = first_child;
; 240  : 
; 241  : 		break;
; 242  : 	}
; 243  : 
; 244  : 	#endif
; 245  : 
; 246  : 	////////////////////////////////////////
; 247  : 
; 248  : 	#ifdef LIST_TYPE_FORCE_ROOT
; 249  : 
; 250  : 	case LIST_TYPE_FORCE:
; 251  : 	{
; 252  : 		raw->force_root.first_child = first_child;
; 253  : 
; 254  : 		break;
; 255  : 	}
; 256  : 
; 257  : 	#endif
; 258  : 
; 259  : 	////////////////////////////////////////
; 260  : 
; 261  : 	#ifdef LIST_TYPE_GROUND_REGISTRY_ROOT
; 262  : 
; 263  : 	case LIST_TYPE_GROUND_REGISTRY:
; 264  : 	{
; 265  : 		raw->ground_registry_root.first_child = first_child;
; 266  : 
; 267  : 		break;
; 268  : 	}
; 269  : 
; 270  : 	#endif
; 271  : 
; 272  : 	////////////////////////////////////////
; 273  : 
; 274  : 	#ifdef LIST_TYPE_GUIDE_ROOT
; 275  : 
; 276  : 	case LIST_TYPE_GUIDE:
; 277  : 	{
; 278  : 		raw->guide_root.first_child = first_child;
; 279  : 
; 280  : 		break;
; 281  : 	}
; 282  : 
; 283  : 	#endif
; 284  : 
; 285  : 	////////////////////////////////////////
; 286  : 
; 287  : 	#ifdef LIST_TYPE_GUIDE_STACK_ROOT
; 288  : 
; 289  : 	case LIST_TYPE_GUIDE_STACK:
; 290  : 	{
; 291  : 		raw->guide_stack_root.first_child = first_child;
; 292  : 
; 293  : 		break;
; 294  : 	}
; 295  : 
; 296  : 	#endif
; 297  : 
; 298  : 	////////////////////////////////////////
; 299  : 
; 300  : 	#ifdef LIST_TYPE_GUNSHIP_TARGET_ROOT
; 301  : 
; 302  : 	case LIST_TYPE_GUNSHIP_TARGET:
; 303  : 	{
; 304  : 		raw->gunship_target_root.first_child = first_child;
; 305  : 
; 306  : 		break;
; 307  : 	}
; 308  : 
; 309  : 	#endif
; 310  : 	
; 311  : 	////////////////////////////////////////
; 312  : 
; 313  : 	#ifdef LIST_TYPE_INDEPENDENT_GROUP_ROOT
; 314  : 
; 315  : 	case LIST_TYPE_INDEPENDENT_GROUP:
; 316  : 	{
; 317  : 		raw->independent_group_root.first_child = first_child;
; 318  : 
; 319  : 		break;
; 320  : 	}
; 321  : 
; 322  : 	#endif
; 323  : 
; 324  : 	////////////////////////////////////////
; 325  : 
; 326  : 	#ifdef LIST_TYPE_HIERARCHY_ROOT
; 327  : 
; 328  : 	case LIST_TYPE_HIERARCHY:
; 329  : 	{
; 330  : 		raw->hierarchy_root.first_child = first_child;
; 331  : 
; 332  : 		break;
; 333  : 	}
; 334  : 
; 335  : 	#endif
; 336  : 
; 337  : 	////////////////////////////////////////
; 338  : 
; 339  : 	#ifdef LIST_TYPE_KEYSITE_FORCE_ROOT
; 340  : 
; 341  : 	case LIST_TYPE_KEYSITE_FORCE:
; 342  : 	{
; 343  : 		raw->keysite_force_root.first_child = first_child;
; 344  : 
; 345  : 		break;
; 346  : 	}
; 347  : 
; 348  : 	#endif
; 349  : 
; 350  : 	////////////////////////////////////////
; 351  : 
; 352  : 	#ifdef LIST_TYPE_KEYSITE_GROUP_ROOT
; 353  : 
; 354  : 	case LIST_TYPE_KEYSITE_GROUP:
; 355  : 	{
; 356  : 		raw->keysite_group_root.first_child = first_child;
; 357  : 
; 358  : 		break;
; 359  : 	}
; 360  : 
; 361  : 	#endif
; 362  : 
; 363  : 	////////////////////////////////////////
; 364  : 
; 365  : 	#ifdef LIST_TYPE_LAUNCHED_WEAPON_ROOT
; 366  : 
; 367  : 	case LIST_TYPE_LAUNCHED_WEAPON:
; 368  : 	{
; 369  : 		raw->launched_weapon_root.first_child = first_child;
; 370  : 
; 371  : 		break;
; 372  : 	}
; 373  : 
; 374  : 	#endif
; 375  : 
; 376  : 	////////////////////////////////////////
; 377  : 
; 378  : 	#ifdef LIST_TYPE_LANDING_SITE_ROOT
; 379  : 
; 380  : 	case LIST_TYPE_LANDING_SITE:
; 381  : 	{
; 382  : 		raw->landing_site_root.first_child = first_child;
; 383  : 
; 384  : 		break;
; 385  : 	}
; 386  : 
; 387  : 	#endif
; 388  : 
; 389  : 	////////////////////////////////////////
; 390  : 
; 391  : 	#ifdef LIST_TYPE_MEMBER_ROOT
; 392  : 
; 393  : 	case LIST_TYPE_MEMBER:
; 394  : 	{
; 395  : 		raw->member_root.first_child = first_child;
; 396  : 
; 397  : 		break;
; 398  : 	}
; 399  : 
; 400  : 	#endif
; 401  : 
; 402  : 	////////////////////////////////////////
; 403  : 
; 404  : 	#ifdef LIST_TYPE_MOVEMENT_DEPENDENT_ROOT
; 405  : 
; 406  : 	case LIST_TYPE_MOVEMENT_DEPENDENT:
; 407  : 	{
; 408  : 		raw->movement_dependent_root.first_child = first_child;
; 409  : 
; 410  : 		break;
; 411  : 	}
; 412  : 
; 413  : 	#endif
; 414  : 
; 415  : 	////////////////////////////////////////
; 416  : 
; 417  : 	#ifdef LIST_TYPE_PADLOCK_ROOT
; 418  : 
; 419  : 	case LIST_TYPE_PADLOCK:
; 420  : 	{
; 421  : 		raw->padlock_root.first_child = first_child;
; 422  : 
; 423  : 		break;
; 424  : 	}
; 425  : 
; 426  : 	#endif
; 427  : 
; 428  : 	////////////////////////////////////////
; 429  : 
; 430  : 	#ifdef LIST_TYPE_PILOT_ROOT
; 431  : 
; 432  : 	case LIST_TYPE_PILOT:
; 433  : 	{
; 434  : 		raw->pilot_root.first_child = first_child;
; 435  : 
; 436  : 		break;
; 437  : 	}
; 438  : 
; 439  : 	#endif
; 440  : 
; 441  : 	////////////////////////////////////////
; 442  : 
; 443  : 	#ifdef LIST_TYPE_PILOT_LOCK_ROOT
; 444  : 
; 445  : 	case LIST_TYPE_PILOT_LOCK:
; 446  : 	{
; 447  : 		raw->pilot_lock_root.first_child = first_child;
; 448  : 
; 449  : 		break;
; 450  : 	}
; 451  : 
; 452  : 	#endif
; 453  : 
; 454  : 	////////////////////////////////////////
; 455  : 
; 456  : 	#ifdef LIST_TYPE_PLAYER_TASK_ROOT
; 457  : 
; 458  : 	case LIST_TYPE_PLAYER_TASK:
; 459  : 	{
; 460  : 		raw->player_task_root.first_child = first_child;
; 461  : 
; 462  : 		break;
; 463  : 	}
; 464  : 
; 465  : 	#endif
; 466  : 
; 467  : 	////////////////////////////////////////
; 468  : 
; 469  : 	#ifdef LIST_TYPE_REGEN_ROOT
; 470  : 
; 471  : 	case LIST_TYPE_REGEN:
; 472  : 	{
; 473  : 		raw->regen_root.first_child = first_child;
; 474  : 
; 475  : 		break;
; 476  : 	}
; 477  : 
; 478  : 	#endif
; 479  : 
; 480  : 	////////////////////////////////////////
; 481  : 
; 482  : 	#ifdef LIST_TYPE_SEA_REGISTRY_ROOT
; 483  : 
; 484  : 	case LIST_TYPE_SEA_REGISTRY:
; 485  : 	{
; 486  : 		raw->sea_registry_root.first_child = first_child;
; 487  : 
; 488  : 		break;
; 489  : 	}
; 490  : 
; 491  : 	#endif
; 492  : 
; 493  : 	////////////////////////////////////////
; 494  : 
; 495  : 	#ifdef LIST_TYPE_SECTOR_ROOT
; 496  : 
; 497  : 	case LIST_TYPE_SECTOR:
; 498  : 	{
; 499  : 		raw->sector_root.first_child = first_child;
; 500  : 
; 501  : 		break;
; 502  : 	}
; 503  : 
; 504  : 	#endif
; 505  : 
; 506  : 	////////////////////////////////////////
; 507  : 
; 508  : 	#ifdef LIST_TYPE_SECTOR_TASK_ROOT
; 509  : 
; 510  : 	case LIST_TYPE_SECTOR_TASK:
; 511  : 	{
; 512  : 		raw->sector_task_root.first_child = first_child;
; 513  : 
; 514  : 		break;
; 515  : 	}
; 516  : 
; 517  : 	#endif
; 518  : 
; 519  : 	////////////////////////////////////////
; 520  : 
; 521  : 	#ifdef LIST_TYPE_SEGMENT_ROOT
; 522  : 
; 523  : 	case LIST_TYPE_SEGMENT:
; 524  : 	{
; 525  : 		raw->segment_root.first_child = first_child;
; 526  : 
; 527  : 		break;
; 528  : 	}
; 529  : 
; 530  : 	#endif
; 531  : 
; 532  : 	////////////////////////////////////////
; 533  : 
; 534  : 	#ifdef LIST_TYPE_SPECIAL_EFFECT_ROOT
; 535  : 
; 536  : 	case LIST_TYPE_SPECIAL_EFFECT:
; 537  : 	{
; 538  : 		raw->special_effect_root.first_child = first_child;
; 539  : 
; 540  : 		break;
; 541  : 	}
; 542  : 
; 543  : 	#endif
; 544  : 
; 545  : 	////////////////////////////////////////
; 546  : 
; 547  : 	#ifdef LIST_TYPE_TAKEOFF_QUEUE_ROOT
; 548  : 
; 549  : 	case LIST_TYPE_TAKEOFF_QUEUE:
; 550  : 	{
; 551  : 		raw->takeoff_queue_root.first_child = first_child;
; 552  : 
; 553  : 		break;
; 554  : 	}
; 555  : 
; 556  : 	#endif
; 557  : 
; 558  : 	////////////////////////////////////////
; 559  : 
; 560  : 	#ifdef LIST_TYPE_TARGET_ROOT
; 561  : 
; 562  : 	case LIST_TYPE_TARGET:
; 563  : 	{
; 564  : 		raw->target_root.first_child = first_child;
; 565  : 
; 566  : 		break;
; 567  : 	}
; 568  : 
; 569  : 	#endif
; 570  : 
; 571  : 	////////////////////////////////////////
; 572  : 
; 573  : 	#ifdef LIST_TYPE_TASK_DEPENDENT_ROOT
; 574  : 
; 575  : 	case LIST_TYPE_TASK_DEPENDENT:
; 576  : 	{
; 577  : 		raw->task_dependent_root.first_child = first_child;
; 578  : 
; 579  : 		break;
; 580  : 	}
; 581  : 
; 582  : 	#endif
; 583  : 
; 584  : 	////////////////////////////////////////
; 585  : 
; 586  : 	#ifdef LIST_TYPE_UNASSIGNED_TASK_ROOT
; 587  : 
; 588  : 	case LIST_TYPE_UNASSIGNED_TASK:
; 589  : 	{
; 590  : 		raw->unassigned_task_root.first_child = first_child;
; 591  : 
; 592  : 		break;
; 593  : 	}
; 594  : 
; 595  : 	#endif
; 596  : 
; 597  : 	////////////////////////////////////////
; 598  : 
; 599  : 	#ifdef LIST_TYPE_UPDATE_ROOT
; 600  : 
; 601  : 	case LIST_TYPE_UPDATE:
; 602  : 	{
; 603  : 		raw->update_root.first_child = first_child;

  00040	8b 45 fc	 mov	 eax, DWORD PTR _raw$[ebp]
  00043	8b 4d 10	 mov	 ecx, DWORD PTR _first_child$[ebp]
  00046	89 08		 mov	 DWORD PTR [eax], ecx

; 604  : 
; 605  : 		break;

  00048	eb 78		 jmp	 SHORT $LN1@set_local_
$LN6@set_local_:

; 606  : 	}
; 607  : 
; 608  : 	#endif
; 609  : 
; 610  : 	////////////////////////////////////////
; 611  : 
; 612  : 	#ifdef LIST_TYPE_VIEW_ROOT
; 613  : 
; 614  : 	case LIST_TYPE_VIEW:
; 615  : 	{
; 616  : 		raw->view_root.first_child = first_child;
; 617  : 
; 618  : 		break;
; 619  : 	}
; 620  : 
; 621  : 	#endif
; 622  : 
; 623  : 	////////////////////////////////////////
; 624  : 
; 625  : 	#ifdef LIST_TYPE_VIEW_WEAPON_ROOT
; 626  : 
; 627  : 	case LIST_TYPE_VIEW_WEAPON:
; 628  : 	{
; 629  : 		raw->view_weapon_root.first_child = first_child;
; 630  : 
; 631  : 		break;
; 632  : 	}
; 633  : 
; 634  : 	#endif
; 635  : 
; 636  : 	////////////////////////////////////////
; 637  : 
; 638  : 	#ifdef LIST_TYPE_WAYPOINT_ROOT
; 639  : 
; 640  : 	case LIST_TYPE_WAYPOINT:
; 641  : 	{
; 642  : 		raw->waypoint_root.first_child = first_child;
; 643  : 
; 644  : 		break;
; 645  : 	}
; 646  : 
; 647  : 	#endif
; 648  : 
; 649  : 	////////////////////////////////////////
; 650  : 
; 651  : 	default:
; 652  : 	{
; 653  : 		debug_fatal_invalid_list_type (en, type);

  0004a	83 7d 08 00	 cmp	 DWORD PTR _en$[ebp], 0
  0004e	74 0a		 je	 SHORT $LN8@set_local_
  00050	8b 45 08	 mov	 eax, DWORD PTR _en$[ebp]
  00053	8b 08		 mov	 ecx, DWORD PTR [eax]
  00055	89 4d b8	 mov	 DWORD PTR tv89[ebp], ecx
  00058	eb 24		 jmp	 SHORT $LN9@set_local_
$LN8@set_local_:
  0005a	8b 15 00 00 00
	00		 mov	 edx, DWORD PTR ?__LINE__Var@?0??set_local_first_child@@YGXPAUENTITY@@W4LIST_TYPES@@0@Z@4JA
  00060	81 c2 25 02 00
	00		 add	 edx, 549		; 00000225H
  00066	52		 push	 edx
  00067	68 00 00 00 00	 push	 OFFSET ??_C@_0FG@COHJJNDJ@c?3?2users?2nhv90?2projects?2eech?2ap@
  0006c	a1 00 00 00 00	 mov	 eax, DWORD PTR ?null_entity_pointer_message@@3PBDB ; null_entity_pointer_message
  00071	50		 push	 eax
  00072	e8 00 00 00 00	 call	 ?process_assert@@YGXPBD0H@Z ; process_assert
  00077	c7 45 b8 00 00
	00 00		 mov	 DWORD PTR tv89[ebp], 0
$LN9@set_local_:
  0007e	8b 0d 00 00 00
	00		 mov	 ecx, DWORD PTR ?__LINE__Var@?0??set_local_first_child@@YGXPAUENTITY@@W4LIST_TYPES@@0@Z@4JA
  00084	81 c1 25 02 00
	00		 add	 ecx, 549		; 00000225H
  0008a	51		 push	 ecx
  0008b	68 00 00 00 00	 push	 OFFSET ??_C@_0FG@COHJJNDJ@c?3?2users?2nhv90?2projects?2eech?2ap@
  00090	8b 55 0c	 mov	 edx, DWORD PTR _type$[ebp]
  00093	8b 04 d5 00 00
	00 00		 mov	 eax, DWORD PTR ?list_type_database@@3PAULIST_TYPE_DATA@@A[edx*8]
  0009a	50		 push	 eax
  0009b	8b 4d 08	 mov	 ecx, DWORD PTR _en$[ebp]
  0009e	2b 0d 00 00 00
	00		 sub	 ecx, DWORD PTR ?entities@@3PAUENTITY@@A ; entities
  000a4	c1 f9 04	 sar	 ecx, 4
  000a7	51		 push	 ecx
  000a8	6b 55 b8 0c	 imul	 edx, DWORD PTR tv89[ebp], 12
  000ac	8b 82 00 00 00
	00		 mov	 eax, DWORD PTR ?entity_type_database@@3PAUENTITY_TYPE_DATA@@A[edx]
  000b2	50		 push	 eax
  000b3	8b 0d 00 00 00
	00		 mov	 ecx, DWORD PTR ?debug_fatal_invalid_list_type_message@@3PBDB ; debug_fatal_invalid_list_type_message
  000b9	51		 push	 ecx
  000ba	e8 00 00 00 00	 call	 ?debug_fatal@@YAXPBDZZ	; debug_fatal
  000bf	83 c4 18	 add	 esp, 24			; 00000018H
$LN1@set_local_:
; File c:\users\nhv90\projects\eech\aphavoc\source\entity\special\update\up_list.c

; 111  : }

  000c2	5f		 pop	 edi
  000c3	5e		 pop	 esi
  000c4	5b		 pop	 ebx
  000c5	8b e5		 mov	 esp, ebp
  000c7	5d		 pop	 ebp
  000c8	c2 0c 00	 ret	 12			; 0000000cH
?set_local_first_child@@YGXPAUENTITY@@W4LIST_TYPES@@0@Z ENDP ; set_local_first_child
_TEXT	ENDS
; Function compile flags: /Odtp /ZI
; File c:\users\nhv90\projects\eech\aphavoc\source\entity\special\update\up_list.c
; File c:\users\nhv90\projects\eech\aphavoc\source\entity\system\en_funcs\en_list\fn_list.h
; File c:\users\nhv90\projects\eech\aphavoc\source\entity\special\update\up_list.c
;	COMDAT ?overload_update_list_functions@@YGXXZ
_TEXT	SEGMENT
?overload_update_list_functions@@YGXXZ PROC		; overload_update_list_functions, COMDAT

; 266  : {

  00000	55		 push	 ebp
  00001	8b ec		 mov	 ebp, esp
  00003	83 ec 40	 sub	 esp, 64			; 00000040H
  00006	53		 push	 ebx
  00007	56		 push	 esi
  00008	57		 push	 edi
; File c:\users\nhv90\projects\eech\aphavoc\source\entity\system\en_funcs\en_list\fn_list.h

; 1274 : 	fn_set_local_entity_first_child	[(TYPE)][LIST_TYPE_UPDATE]	= set_local_first_child;

  00009	b8 b4 00 00 00	 mov	 eax, 180		; 000000b4H
  0000e	6b c8 23	 imul	 ecx, eax, 35
  00011	ba 04 00 00 00	 mov	 edx, 4
  00016	6b c2 29	 imul	 eax, edx, 41
  00019	c7 84 01 00 00
	00 00 00 00 00
	00		 mov	 DWORD PTR ?fn_set_local_entity_first_child@@3PAY0CN@P6GXPAUENTITY@@W4LIST_TYPES@@0@ZA[ecx+eax], OFFSET ?set_local_first_child@@YGXPAUENTITY@@W4LIST_TYPES@@0@Z ; set_local_first_child

; 1275 : 
; 1276 : 	fn_get_local_entity_first_child	[(TYPE)][LIST_TYPE_UPDATE]	= get_local_first_child;

  00024	b8 b4 00 00 00	 mov	 eax, 180		; 000000b4H
  00029	6b c8 23	 imul	 ecx, eax, 35
  0002c	ba 04 00 00 00	 mov	 edx, 4
  00031	6b c2 29	 imul	 eax, edx, 41
  00034	c7 84 01 00 00
	00 00 00 00 00
	00		 mov	 DWORD PTR ?fn_get_local_entity_first_child@@3PAY0CN@P6GPAUENTITY@@PAU1@W4LIST_TYPES@@@ZA[ecx+eax], OFFSET ?get_local_first_child@@YGPAUENTITY@@PAU1@W4LIST_TYPES@@@Z ; get_local_first_child
; File c:\users\nhv90\projects\eech\aphavoc\source\entity\special\update\up_list.c

; 270  : }

  0003f	5f		 pop	 edi
  00040	5e		 pop	 esi
  00041	5b		 pop	 ebx
  00042	8b e5		 mov	 esp, ebp
  00044	5d		 pop	 ebp
  00045	c3		 ret	 0
?overload_update_list_functions@@YGXXZ ENDP		; overload_update_list_functions
_TEXT	ENDS
END
