; Listing generated by Microsoft (R) Optimizing Compiler Version 19.16.27045.0 

	TITLE	C:\Users\nhv90\Projects\eech\aphavoc\source\entity\special\update\up_update.c
	.686P
	.XMM
	include listing.inc
	.model	flat

INCLUDELIB MSVCRTD
INCLUDELIB OLDNAMES

PUBLIC	?moved_entities@@3PAIA				; moved_entities
PUBLIC	?rotated_entities@@3PAIA			; rotated_entities
PUBLIC	?updated_entities@@3PAIA			; updated_entities
PUBLIC	?update_entity@@3PAUENTITY@@A			; update_entity
PUBLIC	?update_succ@@3PAUENTITY@@A			; update_succ
_BSS	SEGMENT
?moved_entities@@3PAIA DD 04000H DUP (?)		; moved_entities
?rotated_entities@@3PAIA DD 04008H DUP (?)		; rotated_entities
?updated_entities@@3PAIA DD 04008H DUP (?)		; updated_entities
?update_entity@@3PAUENTITY@@A DD 01H DUP (?)		; update_entity
?update_succ@@3PAUENTITY@@A DD 01H DUP (?)		; update_succ
_BSS	ENDS
PUBLIC	?set_update_entity@@YGXPAUENTITY@@@Z		; set_update_entity
PUBLIC	?update_client_server_entities@@YGXXZ		; update_client_server_entities
PUBLIC	?set_entity_update_frame_rate@@YGHH@Z		; set_entity_update_frame_rate
PUBLIC	?__LINE__Var@?0??set_update_entity@@YGXPAUENTITY@@@Z@4JA ; `set_update_entity'::`1'::__LINE__Var
PUBLIC	??_C@_0EO@MEJBFCIA@c?3?2users?2nhv90?2projects?2eech?2ap@ ; `string'
PUBLIC	??_C@_0CO@MNCHKEIH@Setting?5update_entity?5?$CItype?5?$DN?5?$CF@ ; `string'
PUBLIC	??_C@_0BO@HLLBIFEL@Setting?5update_entity?5to?5NULL@ ; `string'
PUBLIC	?__LINE__Var@?0??update_client_server_entities@@YGXXZ@4JA ; `update_client_server_entities'::`1'::__LINE__Var
PUBLIC	??_C@_0BF@NHFKMCKI@get_update_entity?5?$CI?$CJ@	; `string'
PUBLIC	?__LINE__Var@?0??set_entity_update_frame_rate@@YGHH@Z@4JA ; `set_entity_update_frame_rate'::`1'::__LINE__Var
PUBLIC	??_C@_0CJ@IDPEHPPB@?$CIframe_rate?5?$DO?$DN?51?$CJ?5?$CG?$CG?5?$CIframe_rat@ ; `string'
PUBLIC	__real@3ff0000000000000
EXTRN	_memset:PROC
EXTRN	?process_assert@@YGXPBD0H@Z:PROC		; process_assert
EXTRN	?debug_log@@YAXPBDZZ:PROC			; debug_log
EXTRN	?set_manual_delta_time@@YGXM@Z:PROC		; set_manual_delta_time
EXTRN	?write_tacview_frame_header@@YGXXZ:PROC		; write_tacview_frame_header
EXTRN	?tacview_reset_frame@@YGHXZ:PROC		; tacview_reset_frame
EXTRN	?system_delta_time@@3MA:DWORD			; system_delta_time
EXTRN	?locked_frame_rate@@3HA:DWORD			; locked_frame_rate
EXTRN	?command_line_entity_update_frame_rate@@3HA:DWORD ; command_line_entity_update_frame_rate
EXTRN	?null_entity_pointer_message@@3PBDB:DWORD	; null_entity_pointer_message
EXTRN	?entity_type_database@@3PAUENTITY_TYPE_DATA@@A:BYTE ; entity_type_database
EXTRN	?system_comms_model@@3W4COMMS_MODEL_TYPES@@A:DWORD ; system_comms_model
EXTRN	?overload_invalid_list_type_message@@3PBDB:DWORD ; overload_invalid_list_type_message
EXTRN	?fn_get_local_entity_first_child@@3PAY0CN@P6GPAUENTITY@@PAU1@W4LIST_TYPES@@@ZA:BYTE ; fn_get_local_entity_first_child
EXTRN	?fn_get_local_entity_child_succ@@3PAY0CN@P6GPAUENTITY@@PAU1@W4LIST_TYPES@@@ZA:BYTE ; fn_get_local_entity_child_succ
EXTRN	?overload_invalid_int_type_message@@3PBDB:DWORD	; overload_invalid_int_type_message
EXTRN	?fn_set_local_entity_int_value@@3PAY0BBH@P6GXPAUENTITY@@W4INT_TYPES@@H@ZA:BYTE ; fn_set_local_entity_int_value
EXTRN	?fn_update_client_server_entity@@3PAY01P6GXPAUENTITY@@@ZA:BYTE ; fn_update_client_server_entity
EXTRN	?entities@@3PAUENTITY@@A:DWORD			; entities
EXTRN	?tacview_log_file@@3PAU_iobuf@@A:DWORD		; tacview_log_file
EXTRN	__fltused:DWORD
;	COMDAT __real@3ff0000000000000
CONST	SEGMENT
__real@3ff0000000000000 DQ 03ff0000000000000r	; 1
CONST	ENDS
;	COMDAT ??_C@_0CJ@IDPEHPPB@?$CIframe_rate?5?$DO?$DN?51?$CJ?5?$CG?$CG?5?$CIframe_rat@
CONST	SEGMENT
??_C@_0CJ@IDPEHPPB@?$CIframe_rate?5?$DO?$DN?51?$CJ?5?$CG?$CG?5?$CIframe_rat@ DB '('
	DB	'frame_rate >= 1) && (frame_rate <= 100)', 00H ; `string'
CONST	ENDS
;	COMDAT ?__LINE__Var@?0??set_entity_update_frame_rate@@YGHH@Z@4JA
_DATA	SEGMENT
?__LINE__Var@?0??set_entity_update_frame_rate@@YGHH@Z@4JA DD 0cfH ; `set_entity_update_frame_rate'::`1'::__LINE__Var
_DATA	ENDS
;	COMDAT ??_C@_0BF@NHFKMCKI@get_update_entity?5?$CI?$CJ@
CONST	SEGMENT
??_C@_0BF@NHFKMCKI@get_update_entity?5?$CI?$CJ@ DB 'get_update_entity ()', 00H ; `string'
CONST	ENDS
;	COMDAT ?__LINE__Var@?0??update_client_server_entities@@YGXXZ@4JA
_DATA	SEGMENT
?__LINE__Var@?0??update_client_server_entities@@YGXXZ@4JA DD 071H ; `update_client_server_entities'::`1'::__LINE__Var
_DATA	ENDS
;	COMDAT ??_C@_0BO@HLLBIFEL@Setting?5update_entity?5to?5NULL@
CONST	SEGMENT
??_C@_0BO@HLLBIFEL@Setting?5update_entity?5to?5NULL@ DB 'Setting update_e'
	DB	'ntity to NULL', 00H				; `string'
CONST	ENDS
;	COMDAT ??_C@_0CO@MNCHKEIH@Setting?5update_entity?5?$CItype?5?$DN?5?$CF@
CONST	SEGMENT
??_C@_0CO@MNCHKEIH@Setting?5update_entity?5?$CItype?5?$DN?5?$CF@ DB 'Sett'
	DB	'ing update_entity (type = %s, index = %d)', 00H ; `string'
CONST	ENDS
;	COMDAT ??_C@_0EO@MEJBFCIA@c?3?2users?2nhv90?2projects?2eech?2ap@
CONST	SEGMENT
??_C@_0EO@MEJBFCIA@c?3?2users?2nhv90?2projects?2eech?2ap@ DB 'c:\users\nh'
	DB	'v90\projects\eech\aphavoc\source\entity\special\update\up_upd'
	DB	'ate.c', 00H					; `string'
CONST	ENDS
;	COMDAT ?__LINE__Var@?0??set_update_entity@@YGXPAUENTITY@@@Z@4JA
_DATA	SEGMENT
?__LINE__Var@?0??set_update_entity@@YGXPAUENTITY@@@Z@4JA DD 05fH ; `set_update_entity'::`1'::__LINE__Var
_DATA	ENDS
; Function compile flags: /Odtp /ZI
; File c:\users\nhv90\projects\eech\aphavoc\source\entity\special\update\up_update.c
;	COMDAT ?set_entity_update_frame_rate@@YGHH@Z
_TEXT	SEGMENT
_entity_update_delta_time$ = -8				; size = 4
_entity_update_iterations$ = -4				; size = 4
_frame_rate$ = 8					; size = 4
?set_entity_update_frame_rate@@YGHH@Z PROC		; set_entity_update_frame_rate, COMDAT

; 207  : {

  00000	55		 push	 ebp
  00001	8b ec		 mov	 ebp, esp
  00003	83 ec 48	 sub	 esp, 72			; 00000048H
  00006	53		 push	 ebx
  00007	56		 push	 esi
  00008	57		 push	 edi

; 208  : 
; 209  : 	int
; 210  : 		entity_update_iterations;
; 211  : 
; 212  : 	float
; 213  : 		entity_update_delta_time;
; 214  : 
; 215  : 	entity_update_iterations = 1;

  00009	c7 45 fc 01 00
	00 00		 mov	 DWORD PTR _entity_update_iterations$[ebp], 1

; 216  : 
; 217  : 	ASSERT ((frame_rate >= 1) && (frame_rate <= 100));

  00010	83 7d 08 01	 cmp	 DWORD PTR _frame_rate$[ebp], 1
  00014	7c 06		 jl	 SHORT $LN3@set_entity
  00016	83 7d 08 64	 cmp	 DWORD PTR _frame_rate$[ebp], 100 ; 00000064H
  0001a	7e 18		 jle	 SHORT $LN2@set_entity
$LN3@set_entity:
  0001c	a1 00 00 00 00	 mov	 eax, DWORD PTR ?__LINE__Var@?0??set_entity_update_frame_rate@@YGHH@Z@4JA
  00021	83 c0 0a	 add	 eax, 10			; 0000000aH
  00024	50		 push	 eax
  00025	68 00 00 00 00	 push	 OFFSET ??_C@_0EO@MEJBFCIA@c?3?2users?2nhv90?2projects?2eech?2ap@
  0002a	68 00 00 00 00	 push	 OFFSET ??_C@_0CJ@IDPEHPPB@?$CIframe_rate?5?$DO?$DN?51?$CJ?5?$CG?$CG?5?$CIframe_rat@
  0002f	e8 00 00 00 00	 call	 ?process_assert@@YGXPBD0H@Z ; process_assert
$LN2@set_entity:

; 218  : 
; 219  : 	entity_update_iterations = (int) (get_delta_time () * frame_rate + 1.0);

  00034	f3 0f 2a 45 08	 cvtsi2ss xmm0, DWORD PTR _frame_rate$[ebp]
  00039	f3 0f 59 05 00
	00 00 00	 mulss	 xmm0, DWORD PTR ?system_delta_time@@3MA
  00041	f3 0f 5a c0	 cvtss2sd xmm0, xmm0
  00045	f2 0f 58 05 00
	00 00 00	 addsd	 xmm0, QWORD PTR __real@3ff0000000000000
  0004d	f2 0f 2c c0	 cvttsd2si eax, xmm0
  00051	89 45 fc	 mov	 DWORD PTR _entity_update_iterations$[ebp], eax

; 220  : 
; 221  : 	entity_update_delta_time = get_delta_time () / entity_update_iterations;

  00054	f3 0f 2a 45 fc	 cvtsi2ss xmm0, DWORD PTR _entity_update_iterations$[ebp]
  00059	f3 0f 10 0d 00
	00 00 00	 movss	 xmm1, DWORD PTR ?system_delta_time@@3MA
  00061	f3 0f 5e c8	 divss	 xmm1, xmm0
  00065	f3 0f 11 4d f8	 movss	 DWORD PTR _entity_update_delta_time$[ebp], xmm1

; 222  : 
; 223  : 	#if DEBUG_MODULE
; 224  : 
; 225  : 	debug_log ("UPDATE: requested frame rate %d, delta time %f, iterations %d, set_delta_time %f", frame_rate, get_delta_time (), entity_update_iterations, entity_update_delta_time);
; 226  : 
; 227  : 	#endif
; 228  : 
; 229  : 	set_manual_delta_time (entity_update_delta_time);

  0006a	51		 push	 ecx
  0006b	f3 0f 10 45 f8	 movss	 xmm0, DWORD PTR _entity_update_delta_time$[ebp]
  00070	f3 0f 11 04 24	 movss	 DWORD PTR [esp], xmm0
  00075	e8 00 00 00 00	 call	 ?set_manual_delta_time@@YGXM@Z ; set_manual_delta_time

; 230  : 
; 231  : 	return entity_update_iterations;

  0007a	8b 45 fc	 mov	 eax, DWORD PTR _entity_update_iterations$[ebp]

; 232  : }

  0007d	5f		 pop	 edi
  0007e	5e		 pop	 esi
  0007f	5b		 pop	 ebx
  00080	8b e5		 mov	 esp, ebp
  00082	5d		 pop	 ebp
  00083	c2 04 00	 ret	 4
?set_entity_update_frame_rate@@YGHH@Z ENDP		; set_entity_update_frame_rate
_TEXT	ENDS
; Function compile flags: /Odtp /ZI
; File c:\users\nhv90\projects\eech\aphavoc\source\entity\special\update\up_update.c
;	COMDAT ?update_client_server_entities@@YGXXZ
_TEXT	SEGMENT
tv185 = -88						; size = 4
tv153 = -88						; size = 4
tv132 = -88						; size = 4
tv177 = -84						; size = 4
tv165 = -84						; size = 4
tv145 = -84						; size = 4
tv92 = -84						; size = 4
_iterations$ = -16					; size = 4
_loop$ = -12						; size = 4
_delta_time$ = -8					; size = 4
_en$ = -4						; size = 4
?update_client_server_entities@@YGXXZ PROC		; update_client_server_entities, COMDAT

; 113  : {

  00000	55		 push	 ebp
  00001	8b ec		 mov	 ebp, esp
  00003	83 ec 58	 sub	 esp, 88			; 00000058H
  00006	53		 push	 ebx
  00007	56		 push	 esi
  00008	57		 push	 edi

; 114  : 	entity
; 115  : 		*en;
; 116  : 
; 117  : 	float
; 118  : 		delta_time;
; 119  : 
; 120  : 	int
; 121  : 		loop,
; 122  : 		iterations;
; 123  : 
; 124  : 	ASSERT (get_update_entity ());

  00009	83 3d 00 00 00
	00 00		 cmp	 DWORD PTR ?update_entity@@3PAUENTITY@@A, 0 ; update_entity
  00010	75 18		 jne	 SHORT $LN7@update_cli
  00012	a1 00 00 00 00	 mov	 eax, DWORD PTR ?__LINE__Var@?0??update_client_server_entities@@YGXXZ@4JA
  00017	83 c0 0b	 add	 eax, 11			; 0000000bH
  0001a	50		 push	 eax
  0001b	68 00 00 00 00	 push	 OFFSET ??_C@_0EO@MEJBFCIA@c?3?2users?2nhv90?2projects?2eech?2ap@
  00020	68 00 00 00 00	 push	 OFFSET ??_C@_0BF@NHFKMCKI@get_update_entity?5?$CI?$CJ@
  00025	e8 00 00 00 00	 call	 ?process_assert@@YGXPBD0H@Z ; process_assert
$LN7@update_cli:

; 125  : 
; 126  : 	/////////////////////////////////////////////////
; 127  : 
; 128  : 	iterations = 1;

  0002a	c7 45 f0 01 00
	00 00		 mov	 DWORD PTR _iterations$[ebp], 1

; 129  : 
; 130  : 	if (!locked_frame_rate)

  00031	83 3d 00 00 00
	00 00		 cmp	 DWORD PTR ?locked_frame_rate@@3HA, 0 ; locked_frame_rate
  00038	75 1b		 jne	 SHORT $LN8@update_cli

; 131  : 	{
; 132  : 
; 133  : 		delta_time = get_delta_time ();

  0003a	f3 0f 10 05 00
	00 00 00	 movss	 xmm0, DWORD PTR ?system_delta_time@@3MA
  00042	f3 0f 11 45 f8	 movss	 DWORD PTR _delta_time$[ebp], xmm0

; 134  : 
; 135  : 		iterations = set_entity_update_frame_rate (command_line_entity_update_frame_rate);

  00047	a1 00 00 00 00	 mov	 eax, DWORD PTR ?command_line_entity_update_frame_rate@@3HA ; command_line_entity_update_frame_rate
  0004c	50		 push	 eax
  0004d	e8 00 00 00 00	 call	 ?set_entity_update_frame_rate@@YGHH@Z ; set_entity_update_frame_rate
  00052	89 45 f0	 mov	 DWORD PTR _iterations$[ebp], eax
$LN8@update_cli:

; 136  : 	}
; 137  : 
; 138  : 	if (tacview_is_logging() && tacview_reset_frame())

  00055	83 3d 00 00 00
	00 00		 cmp	 DWORD PTR ?tacview_log_file@@3PAU_iobuf@@A, 0 ; tacview_log_file
  0005c	74 36		 je	 SHORT $LN9@update_cli
  0005e	e8 00 00 00 00	 call	 ?tacview_reset_frame@@YGHXZ ; tacview_reset_frame
  00063	85 c0		 test	 eax, eax
  00065	74 2d		 je	 SHORT $LN9@update_cli

; 139  : 	{
; 140  : 		write_tacview_frame_header();

  00067	e8 00 00 00 00	 call	 ?write_tacview_frame_header@@YGXXZ ; write_tacview_frame_header

; 141  : 		memset (moved_entities, 0, MAX_NUM_ENTITIES / (sizeof (unsigned int) * 8));

  0006c	68 00 40 00 00	 push	 16384			; 00004000H
  00071	6a 00		 push	 0
  00073	68 00 00 00 00	 push	 OFFSET ?moved_entities@@3PAIA ; moved_entities
  00078	e8 00 00 00 00	 call	 _memset
  0007d	83 c4 0c	 add	 esp, 12			; 0000000cH

; 142  : 		memset (rotated_entities, 0, MAX_NUM_ENTITIES / (sizeof (unsigned int) * 8));

  00080	68 00 40 00 00	 push	 16384			; 00004000H
  00085	6a 00		 push	 0
  00087	68 00 00 00 00	 push	 OFFSET ?rotated_entities@@3PAIA ; rotated_entities
  0008c	e8 00 00 00 00	 call	 _memset
  00091	83 c4 0c	 add	 esp, 12			; 0000000cH
$LN9@update_cli:

; 143  : 	}
; 144  : 
; 145  : 	for (loop = 0; loop < iterations; loop ++)

  00094	c7 45 f4 00 00
	00 00		 mov	 DWORD PTR _loop$[ebp], 0
  0009b	eb 09		 jmp	 SHORT $LN4@update_cli
$LN2@update_cli:
  0009d	8b 45 f4	 mov	 eax, DWORD PTR _loop$[ebp]
  000a0	83 c0 01	 add	 eax, 1
  000a3	89 45 f4	 mov	 DWORD PTR _loop$[ebp], eax
$LN4@update_cli:
  000a6	8b 45 f4	 mov	 eax, DWORD PTR _loop$[ebp]
  000a9	3b 45 f0	 cmp	 eax, DWORD PTR _iterations$[ebp]
  000ac	0f 8d 10 02 00
	00		 jge	 $LN3@update_cli

; 146  : 	{
; 147  : 
; 148  : 		////////////////////////////////////////
; 149  : 
; 150  : 		//
; 151  : 		// update_entities is coded around the entity system to avoid spinning through
; 152  : 		// the update list twice (which Vtune shows up as slow). MB_INT sets and gets
; 153  : 		// the values. You may only set the value to true. It is set to false by the
; 154  : 		// memset below.
; 155  : 		//
; 156  : 
; 157  : 		memset (updated_entities, 0, MAX_NUM_ENTITIES / (sizeof (unsigned int) * 8));

  000b2	68 00 40 00 00	 push	 16384			; 00004000H
  000b7	6a 00		 push	 0
  000b9	68 00 00 00 00	 push	 OFFSET ?updated_entities@@3PAIA ; updated_entities
  000be	e8 00 00 00 00	 call	 _memset
  000c3	83 c4 0c	 add	 esp, 12			; 0000000cH

; 158  : 
; 159  : 		//
; 160  : 		// replaces....
; 161  : 		//
; 162  : 		/*
; 163  : 		en = get_local_entity_first_child (get_update_entity (), LIST_TYPE_UPDATE);
; 164  : 
; 165  : 		while (en)
; 166  : 		{
; 167  : 
; 168  : 			set_local_entity_int_value (en, INT_TYPE_UPDATED, FALSE);
; 169  : 
; 170  : 			en = get_local_entity_child_succ (en, LIST_TYPE_UPDATE);
; 171  : 		}
; 172  : 		*/
; 173  : 		////////////////////////////////////////
; 174  : 
; 175  : 		en = get_local_entity_first_child (get_update_entity (), LIST_TYPE_UPDATE);

  000c6	83 3d 00 00 00
	00 00		 cmp	 DWORD PTR ?update_entity@@3PAUENTITY@@A, 0 ; update_entity
  000cd	74 0c		 je	 SHORT $LN12@update_cli
  000cf	a1 00 00 00 00	 mov	 eax, DWORD PTR ?update_entity@@3PAUENTITY@@A ; update_entity
  000d4	8b 08		 mov	 ecx, DWORD PTR [eax]
  000d6	89 4d ac	 mov	 DWORD PTR tv92[ebp], ecx
  000d9	eb 21		 jmp	 SHORT $LN13@update_cli
$LN12@update_cli:
  000db	8b 15 00 00 00
	00		 mov	 edx, DWORD PTR ?__LINE__Var@?0??update_client_server_entities@@YGXXZ@4JA
  000e1	83 c2 3e	 add	 edx, 62			; 0000003eH
  000e4	52		 push	 edx
  000e5	68 00 00 00 00	 push	 OFFSET ??_C@_0EO@MEJBFCIA@c?3?2users?2nhv90?2projects?2eech?2ap@
  000ea	a1 00 00 00 00	 mov	 eax, DWORD PTR ?null_entity_pointer_message@@3PBDB ; null_entity_pointer_message
  000ef	50		 push	 eax
  000f0	e8 00 00 00 00	 call	 ?process_assert@@YGXPBD0H@Z ; process_assert
  000f5	c7 45 ac 00 00
	00 00		 mov	 DWORD PTR tv92[ebp], 0
$LN13@update_cli:
  000fc	b9 01 00 00 00	 mov	 ecx, 1
  00101	85 c9		 test	 ecx, ecx
  00103	74 09		 je	 SHORT $LN14@update_cli
  00105	c7 45 a8 29 00
	00 00		 mov	 DWORD PTR tv132[ebp], 41 ; 00000029H
  0010c	eb 21		 jmp	 SHORT $LN15@update_cli
$LN14@update_cli:
  0010e	8b 15 00 00 00
	00		 mov	 edx, DWORD PTR ?__LINE__Var@?0??update_client_server_entities@@YGXXZ@4JA
  00114	83 c2 3e	 add	 edx, 62			; 0000003eH
  00117	52		 push	 edx
  00118	68 00 00 00 00	 push	 OFFSET ??_C@_0EO@MEJBFCIA@c?3?2users?2nhv90?2projects?2eech?2ap@
  0011d	a1 00 00 00 00	 mov	 eax, DWORD PTR ?overload_invalid_list_type_message@@3PBDB ; overload_invalid_list_type_message
  00122	50		 push	 eax
  00123	e8 00 00 00 00	 call	 ?process_assert@@YGXPBD0H@Z ; process_assert
  00128	c7 45 a8 00 00
	00 00		 mov	 DWORD PTR tv132[ebp], 0
$LN15@update_cli:
  0012f	6a 29		 push	 41			; 00000029H
  00131	8b 0d 00 00 00
	00		 mov	 ecx, DWORD PTR ?update_entity@@3PAUENTITY@@A ; update_entity
  00137	51		 push	 ecx
  00138	69 55 ac b4 00
	00 00		 imul	 edx, DWORD PTR tv92[ebp], 180
  0013f	8b 45 a8	 mov	 eax, DWORD PTR tv132[ebp]
  00142	8b 8c 82 00 00
	00 00		 mov	 ecx, DWORD PTR ?fn_get_local_entity_first_child@@3PAY0CN@P6GPAUENTITY@@PAU1@W4LIST_TYPES@@@ZA[edx+eax*4]
  00149	ff d1		 call	 ecx
  0014b	89 45 fc	 mov	 DWORD PTR _en$[ebp], eax
$LN5@update_cli:

; 176  : 
; 177  : 		while (en)

  0014e	83 7d fc 00	 cmp	 DWORD PTR _en$[ebp], 0
  00152	0f 84 5b 01 00
	00		 je	 $LN6@update_cli

; 178  : 		{
; 179  : 			set_update_succ (get_local_entity_child_succ (en, LIST_TYPE_UPDATE));

  00158	83 7d fc 00	 cmp	 DWORD PTR _en$[ebp], 0
  0015c	74 0a		 je	 SHORT $LN16@update_cli
  0015e	8b 45 fc	 mov	 eax, DWORD PTR _en$[ebp]
  00161	8b 08		 mov	 ecx, DWORD PTR [eax]
  00163	89 4d ac	 mov	 DWORD PTR tv145[ebp], ecx
  00166	eb 21		 jmp	 SHORT $LN17@update_cli
$LN16@update_cli:
  00168	8b 15 00 00 00
	00		 mov	 edx, DWORD PTR ?__LINE__Var@?0??update_client_server_entities@@YGXXZ@4JA
  0016e	83 c2 42	 add	 edx, 66			; 00000042H
  00171	52		 push	 edx
  00172	68 00 00 00 00	 push	 OFFSET ??_C@_0EO@MEJBFCIA@c?3?2users?2nhv90?2projects?2eech?2ap@
  00177	a1 00 00 00 00	 mov	 eax, DWORD PTR ?null_entity_pointer_message@@3PBDB ; null_entity_pointer_message
  0017c	50		 push	 eax
  0017d	e8 00 00 00 00	 call	 ?process_assert@@YGXPBD0H@Z ; process_assert
  00182	c7 45 ac 00 00
	00 00		 mov	 DWORD PTR tv145[ebp], 0
$LN17@update_cli:
  00189	b9 01 00 00 00	 mov	 ecx, 1
  0018e	85 c9		 test	 ecx, ecx
  00190	74 09		 je	 SHORT $LN18@update_cli
  00192	c7 45 a8 29 00
	00 00		 mov	 DWORD PTR tv153[ebp], 41 ; 00000029H
  00199	eb 21		 jmp	 SHORT $LN19@update_cli
$LN18@update_cli:
  0019b	8b 15 00 00 00
	00		 mov	 edx, DWORD PTR ?__LINE__Var@?0??update_client_server_entities@@YGXXZ@4JA
  001a1	83 c2 42	 add	 edx, 66			; 00000042H
  001a4	52		 push	 edx
  001a5	68 00 00 00 00	 push	 OFFSET ??_C@_0EO@MEJBFCIA@c?3?2users?2nhv90?2projects?2eech?2ap@
  001aa	a1 00 00 00 00	 mov	 eax, DWORD PTR ?overload_invalid_list_type_message@@3PBDB ; overload_invalid_list_type_message
  001af	50		 push	 eax
  001b0	e8 00 00 00 00	 call	 ?process_assert@@YGXPBD0H@Z ; process_assert
  001b5	c7 45 a8 00 00
	00 00		 mov	 DWORD PTR tv153[ebp], 0
$LN19@update_cli:
  001bc	6a 29		 push	 41			; 00000029H
  001be	8b 4d fc	 mov	 ecx, DWORD PTR _en$[ebp]
  001c1	51		 push	 ecx
  001c2	69 55 ac b4 00
	00 00		 imul	 edx, DWORD PTR tv145[ebp], 180
  001c9	8b 45 a8	 mov	 eax, DWORD PTR tv153[ebp]
  001cc	8b 8c 82 00 00
	00 00		 mov	 ecx, DWORD PTR ?fn_get_local_entity_child_succ@@3PAY0CN@P6GPAUENTITY@@PAU1@W4LIST_TYPES@@@ZA[edx+eax*4]
  001d3	ff d1		 call	 ecx
  001d5	a3 00 00 00 00	 mov	 DWORD PTR ?update_succ@@3PAUENTITY@@A, eax ; update_succ

; 180  : 
; 181  : 			update_client_server_entity (en);

  001da	83 7d fc 00	 cmp	 DWORD PTR _en$[ebp], 0
  001de	74 0a		 je	 SHORT $LN20@update_cli
  001e0	8b 45 fc	 mov	 eax, DWORD PTR _en$[ebp]
  001e3	8b 08		 mov	 ecx, DWORD PTR [eax]
  001e5	89 4d ac	 mov	 DWORD PTR tv165[ebp], ecx
  001e8	eb 21		 jmp	 SHORT $LN21@update_cli
$LN20@update_cli:
  001ea	8b 15 00 00 00
	00		 mov	 edx, DWORD PTR ?__LINE__Var@?0??update_client_server_entities@@YGXXZ@4JA
  001f0	83 c2 44	 add	 edx, 68			; 00000044H
  001f3	52		 push	 edx
  001f4	68 00 00 00 00	 push	 OFFSET ??_C@_0EO@MEJBFCIA@c?3?2users?2nhv90?2projects?2eech?2ap@
  001f9	a1 00 00 00 00	 mov	 eax, DWORD PTR ?null_entity_pointer_message@@3PBDB ; null_entity_pointer_message
  001fe	50		 push	 eax
  001ff	e8 00 00 00 00	 call	 ?process_assert@@YGXPBD0H@Z ; process_assert
  00204	c7 45 ac 00 00
	00 00		 mov	 DWORD PTR tv165[ebp], 0
$LN21@update_cli:
  0020b	8b 4d fc	 mov	 ecx, DWORD PTR _en$[ebp]
  0020e	51		 push	 ecx
  0020f	8b 15 00 00 00
	00		 mov	 edx, DWORD PTR ?system_comms_model@@3W4COMMS_MODEL_TYPES@@A ; system_comms_model
  00215	c1 e2 02	 shl	 edx, 2
  00218	8b 45 ac	 mov	 eax, DWORD PTR tv165[ebp]
  0021b	8b 8c c2 00 00
	00 00		 mov	 ecx, DWORD PTR ?fn_update_client_server_entity@@3PAY01P6GXPAUENTITY@@@ZA[edx+eax*8]
  00222	ff d1		 call	 ecx

; 182  : 
; 183  : 			set_local_entity_int_value (en, INT_TYPE_UPDATED, TRUE);

  00224	83 7d fc 00	 cmp	 DWORD PTR _en$[ebp], 0
  00228	74 0a		 je	 SHORT $LN22@update_cli
  0022a	8b 45 fc	 mov	 eax, DWORD PTR _en$[ebp]
  0022d	8b 08		 mov	 ecx, DWORD PTR [eax]
  0022f	89 4d ac	 mov	 DWORD PTR tv177[ebp], ecx
  00232	eb 21		 jmp	 SHORT $LN23@update_cli
$LN22@update_cli:
  00234	8b 15 00 00 00
	00		 mov	 edx, DWORD PTR ?__LINE__Var@?0??update_client_server_entities@@YGXXZ@4JA
  0023a	83 c2 46	 add	 edx, 70			; 00000046H
  0023d	52		 push	 edx
  0023e	68 00 00 00 00	 push	 OFFSET ??_C@_0EO@MEJBFCIA@c?3?2users?2nhv90?2projects?2eech?2ap@
  00243	a1 00 00 00 00	 mov	 eax, DWORD PTR ?null_entity_pointer_message@@3PBDB ; null_entity_pointer_message
  00248	50		 push	 eax
  00249	e8 00 00 00 00	 call	 ?process_assert@@YGXPBD0H@Z ; process_assert
  0024e	c7 45 ac 00 00
	00 00		 mov	 DWORD PTR tv177[ebp], 0
$LN23@update_cli:
  00255	b9 01 00 00 00	 mov	 ecx, 1
  0025a	85 c9		 test	 ecx, ecx
  0025c	74 09		 je	 SHORT $LN24@update_cli
  0025e	c7 45 a8 ee 00
	00 00		 mov	 DWORD PTR tv185[ebp], 238 ; 000000eeH
  00265	eb 21		 jmp	 SHORT $LN25@update_cli
$LN24@update_cli:
  00267	8b 15 00 00 00
	00		 mov	 edx, DWORD PTR ?__LINE__Var@?0??update_client_server_entities@@YGXXZ@4JA
  0026d	83 c2 46	 add	 edx, 70			; 00000046H
  00270	52		 push	 edx
  00271	68 00 00 00 00	 push	 OFFSET ??_C@_0EO@MEJBFCIA@c?3?2users?2nhv90?2projects?2eech?2ap@
  00276	a1 00 00 00 00	 mov	 eax, DWORD PTR ?overload_invalid_int_type_message@@3PBDB ; overload_invalid_int_type_message
  0027b	50		 push	 eax
  0027c	e8 00 00 00 00	 call	 ?process_assert@@YGXPBD0H@Z ; process_assert
  00281	c7 45 a8 00 00
	00 00		 mov	 DWORD PTR tv185[ebp], 0
$LN25@update_cli:
  00288	6a 01		 push	 1
  0028a	68 ee 00 00 00	 push	 238			; 000000eeH
  0028f	8b 4d fc	 mov	 ecx, DWORD PTR _en$[ebp]
  00292	51		 push	 ecx
  00293	69 55 ac 5c 04
	00 00		 imul	 edx, DWORD PTR tv177[ebp], 1116
  0029a	8b 45 a8	 mov	 eax, DWORD PTR tv185[ebp]
  0029d	8b 8c 82 00 00
	00 00		 mov	 ecx, DWORD PTR ?fn_set_local_entity_int_value@@3PAY0BBH@P6GXPAUENTITY@@W4INT_TYPES@@H@ZA[edx+eax*4]
  002a4	ff d1		 call	 ecx

; 184  : 
; 185  : 			en = get_update_succ ();

  002a6	a1 00 00 00 00	 mov	 eax, DWORD PTR ?update_succ@@3PAUENTITY@@A ; update_succ
  002ab	89 45 fc	 mov	 DWORD PTR _en$[ebp], eax

; 186  : 		}

  002ae	e9 9b fe ff ff	 jmp	 $LN5@update_cli
$LN6@update_cli:

; 187  : 
; 188  : 		set_update_succ (NULL);

  002b3	c7 05 00 00 00
	00 00 00 00 00	 mov	 DWORD PTR ?update_succ@@3PAUENTITY@@A, 0 ; update_succ

; 189  : 
; 190  : 		////////////////////////////////////////
; 191  : 	}

  002bd	e9 db fd ff ff	 jmp	 $LN2@update_cli
$LN3@update_cli:

; 192  : 
; 193  : 	if (!locked_frame_rate)

  002c2	83 3d 00 00 00
	00 00		 cmp	 DWORD PTR ?locked_frame_rate@@3HA, 0 ; locked_frame_rate
  002c9	75 10		 jne	 SHORT $LN10@update_cli

; 194  : 	{
; 195  : 
; 196  : 		set_manual_delta_time (delta_time);

  002cb	51		 push	 ecx
  002cc	f3 0f 10 45 f8	 movss	 xmm0, DWORD PTR _delta_time$[ebp]
  002d1	f3 0f 11 04 24	 movss	 DWORD PTR [esp], xmm0
  002d6	e8 00 00 00 00	 call	 ?set_manual_delta_time@@YGXM@Z ; set_manual_delta_time
$LN10@update_cli:

; 197  : 	}
; 198  : 
; 199  : 	/////////////////////////////////////////////////
; 200  : }

  002db	5f		 pop	 edi
  002dc	5e		 pop	 esi
  002dd	5b		 pop	 ebx
  002de	8b e5		 mov	 esp, ebp
  002e0	5d		 pop	 ebp
  002e1	c3		 ret	 0
?update_client_server_entities@@YGXXZ ENDP		; update_client_server_entities
_TEXT	ENDS
; Function compile flags: /Odtp /ZI
; File c:\users\nhv90\projects\eech\aphavoc\source\entity\special\update\up_update.c
;	COMDAT ?set_update_entity@@YGXPAUENTITY@@@Z
_TEXT	SEGMENT
tv74 = -68						; size = 4
_en$ = 8						; size = 4
?set_update_entity@@YGXPAUENTITY@@@Z PROC		; set_update_entity, COMDAT

; 95   : {

  00000	55		 push	 ebp
  00001	8b ec		 mov	 ebp, esp
  00003	83 ec 44	 sub	 esp, 68			; 00000044H
  00006	53		 push	 ebx
  00007	56		 push	 esi
  00008	57		 push	 edi

; 96   : 	update_entity = en;

  00009	8b 45 08	 mov	 eax, DWORD PTR _en$[ebp]
  0000c	a3 00 00 00 00	 mov	 DWORD PTR ?update_entity@@3PAUENTITY@@A, eax ; update_entity

; 97   : 
; 98   : 	if (en)

  00011	83 7d 08 00	 cmp	 DWORD PTR _en$[ebp], 0
  00015	74 58		 je	 SHORT $LN2@set_update

; 99   : 	{
; 100  : 		debug_log ("Setting update_entity (type = %s, index = %d)", get_local_entity_type_name (en), get_local_entity_index (en));

  00017	83 7d 08 00	 cmp	 DWORD PTR _en$[ebp], 0
  0001b	74 0a		 je	 SHORT $LN5@set_update
  0001d	8b 45 08	 mov	 eax, DWORD PTR _en$[ebp]
  00020	8b 08		 mov	 ecx, DWORD PTR [eax]
  00022	89 4d bc	 mov	 DWORD PTR tv74[ebp], ecx
  00025	eb 21		 jmp	 SHORT $LN6@set_update
$LN5@set_update:
  00027	8b 15 00 00 00
	00		 mov	 edx, DWORD PTR ?__LINE__Var@?0??set_update_entity@@YGXPAUENTITY@@@Z@4JA
  0002d	83 c2 05	 add	 edx, 5
  00030	52		 push	 edx
  00031	68 00 00 00 00	 push	 OFFSET ??_C@_0EO@MEJBFCIA@c?3?2users?2nhv90?2projects?2eech?2ap@
  00036	a1 00 00 00 00	 mov	 eax, DWORD PTR ?null_entity_pointer_message@@3PBDB ; null_entity_pointer_message
  0003b	50		 push	 eax
  0003c	e8 00 00 00 00	 call	 ?process_assert@@YGXPBD0H@Z ; process_assert
  00041	c7 45 bc 00 00
	00 00		 mov	 DWORD PTR tv74[ebp], 0
$LN6@set_update:
  00048	8b 4d 08	 mov	 ecx, DWORD PTR _en$[ebp]
  0004b	2b 0d 00 00 00
	00		 sub	 ecx, DWORD PTR ?entities@@3PAUENTITY@@A ; entities
  00051	c1 f9 04	 sar	 ecx, 4
  00054	51		 push	 ecx
  00055	6b 55 bc 0c	 imul	 edx, DWORD PTR tv74[ebp], 12
  00059	8b 82 00 00 00
	00		 mov	 eax, DWORD PTR ?entity_type_database@@3PAUENTITY_TYPE_DATA@@A[edx]
  0005f	50		 push	 eax
  00060	68 00 00 00 00	 push	 OFFSET ??_C@_0CO@MNCHKEIH@Setting?5update_entity?5?$CItype?5?$DN?5?$CF@
  00065	e8 00 00 00 00	 call	 ?debug_log@@YAXPBDZZ	; debug_log
  0006a	83 c4 0c	 add	 esp, 12			; 0000000cH

; 101  : 	}
; 102  : 	else

  0006d	eb 0d		 jmp	 SHORT $LN1@set_update
$LN2@set_update:

; 103  : 	{
; 104  : 		debug_log ("Setting update_entity to NULL");

  0006f	68 00 00 00 00	 push	 OFFSET ??_C@_0BO@HLLBIFEL@Setting?5update_entity?5to?5NULL@
  00074	e8 00 00 00 00	 call	 ?debug_log@@YAXPBDZZ	; debug_log
  00079	83 c4 04	 add	 esp, 4
$LN1@set_update:

; 105  : 	}
; 106  : }

  0007c	5f		 pop	 edi
  0007d	5e		 pop	 esi
  0007e	5b		 pop	 ebx
  0007f	8b e5		 mov	 esp, ebp
  00081	5d		 pop	 ebp
  00082	c2 04 00	 ret	 4
?set_update_entity@@YGXPAUENTITY@@@Z ENDP		; set_update_entity
_TEXT	ENDS
END
