; Listing generated by Microsoft (R) Optimizing Compiler Version 19.16.27045.0 

	TITLE	C:\Users\nhv90\Projects\eech\aphavoc\source\entity\mobile\vehicle\vehicle.c
	.686P
	.XMM
	include listing.inc
	.model	flat

INCLUDELIB MSVCRTD
INCLUDELIB OLDNAMES

PUBLIC	?play_vehicle_shot_at_speech@@YGXPAUENTITY@@0@Z	; play_vehicle_shot_at_speech
PUBLIC	?play_vehicle_destroyed_speech@@YGXPAUENTITY@@0@Z ; play_vehicle_destroyed_speech
PUBLIC	?__LINE__Var@?0??play_vehicle_shot_at_speech@@YGXPAUENTITY@@0@Z@4JA ; `play_vehicle_shot_at_speech'::`1'::__LINE__Var
PUBLIC	??_C@_0EM@EOJDHMFO@c?3?2users?2nhv90?2projects?2eech?2ap@ ; `string'
PUBLIC	??_C@_06GPEKEEBB@victim@			; `string'
PUBLIC	??_C@_09HKMIOAOH@aggressor@			; `string'
PUBLIC	??_C@_03PCBNCGFH@pos@				; `string'
PUBLIC	?__LINE__Var@?0??play_vehicle_destroyed_speech@@YGXPAUENTITY@@0@Z@4JA ; `play_vehicle_destroyed_speech'::`1'::__LINE__Var
PUBLIC	__real@3ecccccd
PUBLIC	__real@3f800000
PUBLIC	__real@40400000
PUBLIC	__real@41000000
PUBLIC	__real@41200000
PUBLIC	__real@41400000
PUBLIC	__real@42340000
PUBLIC	__real@43960000
EXTRN	?process_assert@@YGXPBD0H@Z:PROC		; process_assert
EXTRN	?play_client_server_speech@@YAHPAUENTITY@@0W4ENTITY_SIDES@@HW4SOUND_LOCALITY_TYPES@@MMMW4speech_originator_types@@W4speech_category_types@@MZZ:PROC ; play_client_server_speech
EXTRN	?get_speech_random_value@@YGHPAUSPEECH_INSTANCE_TYPE@@HH@Z:PROC ; get_speech_random_value
EXTRN	?play_client_server_cpg_message@@YGHPAUENTITY@@MMHMH@Z:PROC ; play_client_server_cpg_message
EXTRN	?play_client_server_wingman_message@@YGHPAUENTITY@@MMW4speech_category_types@@MW4speech_intro_types@@W4speech_array_types@@H@Z:PROC ; play_client_server_wingman_message
EXTRN	?get_speech_sector_coordinates@@YGPAHPAUVEC3D@@@Z:PROC ; get_speech_sector_coordinates
EXTRN	?random_number_seed@@3HA:DWORD			; random_number_seed
EXTRN	?null_entity_pointer_message@@3PBDB:DWORD	; null_entity_pointer_message
EXTRN	?overload_invalid_int_type_message@@3PBDB:DWORD	; overload_invalid_int_type_message
EXTRN	?fn_get_local_entity_int_value@@3PAY0BBH@P6GHPAUENTITY@@W4INT_TYPES@@@ZA:BYTE ; fn_get_local_entity_int_value
EXTRN	?overload_invalid_vec3d_type_message@@3PBDB:DWORD ; overload_invalid_vec3d_type_message
EXTRN	?fn_get_local_entity_vec3d_ptr@@3PAY0BI@P6GPAUVEC3D@@PAUENTITY@@W4VEC3D_TYPES@@@ZA:BYTE ; fn_get_local_entity_vec3d_ptr
EXTRN	?speech_sector_coordinates@@3PAHA:BYTE		; speech_sector_coordinates
EXTRN	?session_entity@@3PAUENTITY@@A:DWORD		; session_entity
EXTRN	__fltused:DWORD
_BSS	SEGMENT
?last_vehicle_hit_comment@@3PAHA DD 03H DUP (?)		; last_vehicle_hit_comment
?last_vh_destroyed_wingman_comment@@3PAHA DD 03H DUP (?) ; last_vh_destroyed_wingman_comment
?last_vh_destroyed_cpg_comment@@3PAHA DD 03H DUP (?)	; last_vh_destroyed_cpg_comment
_BSS	ENDS
;	COMDAT __real@43960000
CONST	SEGMENT
__real@43960000 DD 043960000r			; 300
CONST	ENDS
;	COMDAT __real@42340000
CONST	SEGMENT
__real@42340000 DD 042340000r			; 45
CONST	ENDS
;	COMDAT __real@41400000
CONST	SEGMENT
__real@41400000 DD 041400000r			; 12
CONST	ENDS
;	COMDAT __real@41200000
CONST	SEGMENT
__real@41200000 DD 041200000r			; 10
CONST	ENDS
;	COMDAT __real@41000000
CONST	SEGMENT
__real@41000000 DD 041000000r			; 8
CONST	ENDS
;	COMDAT __real@40400000
CONST	SEGMENT
__real@40400000 DD 040400000r			; 3
CONST	ENDS
;	COMDAT __real@3f800000
CONST	SEGMENT
__real@3f800000 DD 03f800000r			; 1
CONST	ENDS
;	COMDAT __real@3ecccccd
CONST	SEGMENT
__real@3ecccccd DD 03ecccccdr			; 0.4
CONST	ENDS
;	COMDAT ?__LINE__Var@?0??play_vehicle_destroyed_speech@@YGXPAUENTITY@@0@Z@4JA
_DATA	SEGMENT
?__LINE__Var@?0??play_vehicle_destroyed_speech@@YGXPAUENTITY@@0@Z@4JA DD 0119H ; `play_vehicle_destroyed_speech'::`1'::__LINE__Var
_DATA	ENDS
;	COMDAT ??_C@_03PCBNCGFH@pos@
CONST	SEGMENT
??_C@_03PCBNCGFH@pos@ DB 'pos', 00H			; `string'
CONST	ENDS
;	COMDAT ??_C@_09HKMIOAOH@aggressor@
CONST	SEGMENT
??_C@_09HKMIOAOH@aggressor@ DB 'aggressor', 00H		; `string'
CONST	ENDS
;	COMDAT ??_C@_06GPEKEEBB@victim@
CONST	SEGMENT
??_C@_06GPEKEEBB@victim@ DB 'victim', 00H		; `string'
CONST	ENDS
;	COMDAT ??_C@_0EM@EOJDHMFO@c?3?2users?2nhv90?2projects?2eech?2ap@
CONST	SEGMENT
??_C@_0EM@EOJDHMFO@c?3?2users?2nhv90?2projects?2eech?2ap@ DB 'c:\users\nh'
	DB	'v90\projects\eech\aphavoc\source\entity\mobile\vehicle\vehicl'
	DB	'e.c', 00H					; `string'
CONST	ENDS
;	COMDAT ?__LINE__Var@?0??play_vehicle_shot_at_speech@@YGXPAUENTITY@@0@Z@4JA
_DATA	SEGMENT
?__LINE__Var@?0??play_vehicle_shot_at_speech@@YGXPAUENTITY@@0@Z@4JA DD 059H ; `play_vehicle_shot_at_speech'::`1'::__LINE__Var
_DATA	ENDS
_DATA	SEGMENT
?num_vehicle_hit_comments@@3PAHA DD 00H			; num_vehicle_hit_comments
	DD	04H
	DD	04H
?num_vh_destroyed_wingman_comments@@3PAHA DD 00H	; num_vh_destroyed_wingman_comments
	DD	01H
	DD	01H
?vehicle_hit_comments@@3PAUSPEECH_INSTANCE_TYPE@@A DD 01H ; vehicle_hit_comments
	DD	05H
	DD	064H
	DD	02H
	DD	02H
	DD	05H
	DD	064H
	DD	02H
	DD	03H
	DD	05H
	DD	064H
	DD	02H
	DD	04H
	DD	05H
	DD	064H
	DD	02H
?vehicle_destroyed_wingman_comments@@3PAUSPEECH_INSTANCE_TYPE@@A DD 013H ; vehicle_destroyed_wingman_comments
	DD	07H
	DD	064H
	DD	01H
?num_vh_destroyed_cpg_comments@@3PAHA DD 00H		; num_vh_destroyed_cpg_comments
	DD	03H
	DD	03H
?vehicle_destroyed_cpg_comments@@3PAUSPEECH_INSTANCE_TYPE@@A DD 06dH ; vehicle_destroyed_cpg_comments
	DD	09H
	DD	064H
	DD	01H
	DD	06fH
	DD	09H
	DD	064H
	DD	01H
	DD	070H
	DD	09H
	DD	064H
	DD	01H
_DATA	ENDS
; Function compile flags: /Odtp /ZI
; File c:\users\nhv90\projects\eech\aphavoc\source\entity\mobile\vehicle\vehicle.c
;	COMDAT ?play_vehicle_destroyed_speech@@YGXPAUENTITY@@0@Z
_TEXT	SEGMENT
tv209 = -92						; size = 4
tv190 = -92						; size = 4
tv159 = -92						; size = 4
tv140 = -92						; size = 4
tv88 = -92						; size = 4
tv202 = -88						; size = 4
tv183 = -88						; size = 4
tv152 = -88						; size = 4
tv132 = -88						; size = 4
tv80 = -88						; size = 4
_speech_index$ = -20					; size = 4
_array_type$ = -16					; size = 4
_val$ = -12						; size = 4
_aggressor_side$ = -8					; size = 4
_victim_side$ = -4					; size = 4
_victim$ = 8						; size = 4
_aggressor$ = 12					; size = 4
?play_vehicle_destroyed_speech@@YGXPAUENTITY@@0@Z PROC	; play_vehicle_destroyed_speech, COMDAT

; 281  : {

  00000	55		 push	 ebp
  00001	8b ec		 mov	 ebp, esp
  00003	83 ec 5c	 sub	 esp, 92			; 0000005cH
  00006	53		 push	 ebx
  00007	56		 push	 esi
  00008	57		 push	 edi

; 282  : 	entity_sides
; 283  : 		victim_side,
; 284  : 		aggressor_side;
; 285  : 
; 286  : 	int
; 287  : 		val,
; 288  : 		array_type,
; 289  : 		speech_index;
; 290  : 
; 291  : 	ASSERT (victim);

  00009	83 7d 08 00	 cmp	 DWORD PTR _victim$[ebp], 0
  0000d	75 18		 jne	 SHORT $LN2@play_vehic
  0000f	a1 00 00 00 00	 mov	 eax, DWORD PTR ?__LINE__Var@?0??play_vehicle_destroyed_speech@@YGXPAUENTITY@@0@Z@4JA
  00014	83 c0 0a	 add	 eax, 10			; 0000000aH
  00017	50		 push	 eax
  00018	68 00 00 00 00	 push	 OFFSET ??_C@_0EM@EOJDHMFO@c?3?2users?2nhv90?2projects?2eech?2ap@
  0001d	68 00 00 00 00	 push	 OFFSET ??_C@_06GPEKEEBB@victim@
  00022	e8 00 00 00 00	 call	 ?process_assert@@YGXPBD0H@Z ; process_assert
$LN2@play_vehic:

; 292  : 
; 293  : 	ASSERT (aggressor);

  00027	83 7d 0c 00	 cmp	 DWORD PTR _aggressor$[ebp], 0
  0002b	75 18		 jne	 SHORT $LN3@play_vehic
  0002d	a1 00 00 00 00	 mov	 eax, DWORD PTR ?__LINE__Var@?0??play_vehicle_destroyed_speech@@YGXPAUENTITY@@0@Z@4JA
  00032	83 c0 0c	 add	 eax, 12			; 0000000cH
  00035	50		 push	 eax
  00036	68 00 00 00 00	 push	 OFFSET ??_C@_0EM@EOJDHMFO@c?3?2users?2nhv90?2projects?2eech?2ap@
  0003b	68 00 00 00 00	 push	 OFFSET ??_C@_09HKMIOAOH@aggressor@
  00040	e8 00 00 00 00	 call	 ?process_assert@@YGXPBD0H@Z ; process_assert
$LN3@play_vehic:

; 294  : 
; 295  : 	victim_side = (entity_sides) get_local_entity_int_value (victim, INT_TYPE_SIDE);

  00045	83 7d 08 00	 cmp	 DWORD PTR _victim$[ebp], 0
  00049	74 0a		 je	 SHORT $LN13@play_vehic
  0004b	8b 45 08	 mov	 eax, DWORD PTR _victim$[ebp]
  0004e	8b 08		 mov	 ecx, DWORD PTR [eax]
  00050	89 4d a8	 mov	 DWORD PTR tv80[ebp], ecx
  00053	eb 21		 jmp	 SHORT $LN14@play_vehic
$LN13@play_vehic:
  00055	8b 15 00 00 00
	00		 mov	 edx, DWORD PTR ?__LINE__Var@?0??play_vehicle_destroyed_speech@@YGXPAUENTITY@@0@Z@4JA
  0005b	83 c2 0e	 add	 edx, 14			; 0000000eH
  0005e	52		 push	 edx
  0005f	68 00 00 00 00	 push	 OFFSET ??_C@_0EM@EOJDHMFO@c?3?2users?2nhv90?2projects?2eech?2ap@
  00064	a1 00 00 00 00	 mov	 eax, DWORD PTR ?null_entity_pointer_message@@3PBDB ; null_entity_pointer_message
  00069	50		 push	 eax
  0006a	e8 00 00 00 00	 call	 ?process_assert@@YGXPBD0H@Z ; process_assert
  0006f	c7 45 a8 00 00
	00 00		 mov	 DWORD PTR tv80[ebp], 0
$LN14@play_vehic:
  00076	b9 01 00 00 00	 mov	 ecx, 1
  0007b	85 c9		 test	 ecx, ecx
  0007d	74 09		 je	 SHORT $LN15@play_vehic
  0007f	c7 45 a4 bb 00
	00 00		 mov	 DWORD PTR tv88[ebp], 187 ; 000000bbH
  00086	eb 21		 jmp	 SHORT $LN16@play_vehic
$LN15@play_vehic:
  00088	8b 15 00 00 00
	00		 mov	 edx, DWORD PTR ?__LINE__Var@?0??play_vehicle_destroyed_speech@@YGXPAUENTITY@@0@Z@4JA
  0008e	83 c2 0e	 add	 edx, 14			; 0000000eH
  00091	52		 push	 edx
  00092	68 00 00 00 00	 push	 OFFSET ??_C@_0EM@EOJDHMFO@c?3?2users?2nhv90?2projects?2eech?2ap@
  00097	a1 00 00 00 00	 mov	 eax, DWORD PTR ?overload_invalid_int_type_message@@3PBDB ; overload_invalid_int_type_message
  0009c	50		 push	 eax
  0009d	e8 00 00 00 00	 call	 ?process_assert@@YGXPBD0H@Z ; process_assert
  000a2	c7 45 a4 00 00
	00 00		 mov	 DWORD PTR tv88[ebp], 0
$LN16@play_vehic:
  000a9	68 bb 00 00 00	 push	 187			; 000000bbH
  000ae	8b 4d 08	 mov	 ecx, DWORD PTR _victim$[ebp]
  000b1	51		 push	 ecx
  000b2	69 55 a8 5c 04
	00 00		 imul	 edx, DWORD PTR tv80[ebp], 1116
  000b9	8b 45 a4	 mov	 eax, DWORD PTR tv88[ebp]
  000bc	8b 8c 82 00 00
	00 00		 mov	 ecx, DWORD PTR ?fn_get_local_entity_int_value@@3PAY0BBH@P6GHPAUENTITY@@W4INT_TYPES@@@ZA[edx+eax*4]
  000c3	ff d1		 call	 ecx
  000c5	89 45 fc	 mov	 DWORD PTR _victim_side$[ebp], eax

; 296  : 
; 297  : 	aggressor_side = (entity_sides) get_local_entity_int_value (aggressor, INT_TYPE_SIDE);

  000c8	83 7d 0c 00	 cmp	 DWORD PTR _aggressor$[ebp], 0
  000cc	74 0a		 je	 SHORT $LN17@play_vehic
  000ce	8b 45 0c	 mov	 eax, DWORD PTR _aggressor$[ebp]
  000d1	8b 08		 mov	 ecx, DWORD PTR [eax]
  000d3	89 4d a8	 mov	 DWORD PTR tv132[ebp], ecx
  000d6	eb 21		 jmp	 SHORT $LN18@play_vehic
$LN17@play_vehic:
  000d8	8b 15 00 00 00
	00		 mov	 edx, DWORD PTR ?__LINE__Var@?0??play_vehicle_destroyed_speech@@YGXPAUENTITY@@0@Z@4JA
  000de	83 c2 10	 add	 edx, 16			; 00000010H
  000e1	52		 push	 edx
  000e2	68 00 00 00 00	 push	 OFFSET ??_C@_0EM@EOJDHMFO@c?3?2users?2nhv90?2projects?2eech?2ap@
  000e7	a1 00 00 00 00	 mov	 eax, DWORD PTR ?null_entity_pointer_message@@3PBDB ; null_entity_pointer_message
  000ec	50		 push	 eax
  000ed	e8 00 00 00 00	 call	 ?process_assert@@YGXPBD0H@Z ; process_assert
  000f2	c7 45 a8 00 00
	00 00		 mov	 DWORD PTR tv132[ebp], 0
$LN18@play_vehic:
  000f9	b9 01 00 00 00	 mov	 ecx, 1
  000fe	85 c9		 test	 ecx, ecx
  00100	74 09		 je	 SHORT $LN19@play_vehic
  00102	c7 45 a4 bb 00
	00 00		 mov	 DWORD PTR tv140[ebp], 187 ; 000000bbH
  00109	eb 21		 jmp	 SHORT $LN20@play_vehic
$LN19@play_vehic:
  0010b	8b 15 00 00 00
	00		 mov	 edx, DWORD PTR ?__LINE__Var@?0??play_vehicle_destroyed_speech@@YGXPAUENTITY@@0@Z@4JA
  00111	83 c2 10	 add	 edx, 16			; 00000010H
  00114	52		 push	 edx
  00115	68 00 00 00 00	 push	 OFFSET ??_C@_0EM@EOJDHMFO@c?3?2users?2nhv90?2projects?2eech?2ap@
  0011a	a1 00 00 00 00	 mov	 eax, DWORD PTR ?overload_invalid_int_type_message@@3PBDB ; overload_invalid_int_type_message
  0011f	50		 push	 eax
  00120	e8 00 00 00 00	 call	 ?process_assert@@YGXPBD0H@Z ; process_assert
  00125	c7 45 a4 00 00
	00 00		 mov	 DWORD PTR tv140[ebp], 0
$LN20@play_vehic:
  0012c	68 bb 00 00 00	 push	 187			; 000000bbH
  00131	8b 4d 0c	 mov	 ecx, DWORD PTR _aggressor$[ebp]
  00134	51		 push	 ecx
  00135	69 55 a8 5c 04
	00 00		 imul	 edx, DWORD PTR tv132[ebp], 1116
  0013c	8b 45 a4	 mov	 eax, DWORD PTR tv140[ebp]
  0013f	8b 8c 82 00 00
	00 00		 mov	 ecx, DWORD PTR ?fn_get_local_entity_int_value@@3PAY0BBH@P6GHPAUENTITY@@W4INT_TYPES@@@ZA[edx+eax*4]
  00146	ff d1		 call	 ecx
  00148	89 45 f8	 mov	 DWORD PTR _aggressor_side$[ebp], eax

; 298  : 
; 299  : 	if (victim_side == aggressor_side)

  0014b	8b 45 fc	 mov	 eax, DWORD PTR _victim_side$[ebp]
  0014e	3b 45 f8	 cmp	 eax, DWORD PTR _aggressor_side$[ebp]
  00151	0f 85 f2 00 00
	00		 jne	 $LN4@play_vehic

; 300  : 	{
; 301  : 		//
; 302  : 		// FRIENDLY FIRE
; 303  : 		//
; 304  : 
; 305  : 		if (get_local_entity_int_value (aggressor, INT_TYPE_PLAYER) != ENTITY_PLAYER_AI)

  00157	83 7d 0c 00	 cmp	 DWORD PTR _aggressor$[ebp], 0
  0015b	74 0a		 je	 SHORT $LN21@play_vehic
  0015d	8b 45 0c	 mov	 eax, DWORD PTR _aggressor$[ebp]
  00160	8b 08		 mov	 ecx, DWORD PTR [eax]
  00162	89 4d a8	 mov	 DWORD PTR tv152[ebp], ecx
  00165	eb 1d		 jmp	 SHORT $LN22@play_vehic
$LN21@play_vehic:
  00167	68 31 01 00 00	 push	 305			; 00000131H
  0016c	68 00 00 00 00	 push	 OFFSET ??_C@_0EM@EOJDHMFO@c?3?2users?2nhv90?2projects?2eech?2ap@
  00171	8b 15 00 00 00
	00		 mov	 edx, DWORD PTR ?null_entity_pointer_message@@3PBDB ; null_entity_pointer_message
  00177	52		 push	 edx
  00178	e8 00 00 00 00	 call	 ?process_assert@@YGXPBD0H@Z ; process_assert
  0017d	c7 45 a8 00 00
	00 00		 mov	 DWORD PTR tv152[ebp], 0
$LN22@play_vehic:
  00184	b8 01 00 00 00	 mov	 eax, 1
  00189	85 c0		 test	 eax, eax
  0018b	74 09		 je	 SHORT $LN23@play_vehic
  0018d	c7 45 a4 9c 00
	00 00		 mov	 DWORD PTR tv159[ebp], 156 ; 0000009cH
  00194	eb 1d		 jmp	 SHORT $LN24@play_vehic
$LN23@play_vehic:
  00196	68 31 01 00 00	 push	 305			; 00000131H
  0019b	68 00 00 00 00	 push	 OFFSET ??_C@_0EM@EOJDHMFO@c?3?2users?2nhv90?2projects?2eech?2ap@
  001a0	8b 0d 00 00 00
	00		 mov	 ecx, DWORD PTR ?overload_invalid_int_type_message@@3PBDB ; overload_invalid_int_type_message
  001a6	51		 push	 ecx
  001a7	e8 00 00 00 00	 call	 ?process_assert@@YGXPBD0H@Z ; process_assert
  001ac	c7 45 a4 00 00
	00 00		 mov	 DWORD PTR tv159[ebp], 0
$LN24@play_vehic:
  001b3	68 9c 00 00 00	 push	 156			; 0000009cH
  001b8	8b 55 0c	 mov	 edx, DWORD PTR _aggressor$[ebp]
  001bb	52		 push	 edx
  001bc	69 45 a8 5c 04
	00 00		 imul	 eax, DWORD PTR tv152[ebp], 1116
  001c3	8b 4d a4	 mov	 ecx, DWORD PTR tv159[ebp]
  001c6	8b 94 88 00 00
	00 00		 mov	 edx, DWORD PTR ?fn_get_local_entity_int_value@@3PAY0BBH@P6GHPAUENTITY@@W4INT_TYPES@@@ZA[eax+ecx*4]
  001cd	ff d2		 call	 edx
  001cf	85 c0		 test	 eax, eax
  001d1	74 71		 je	 SHORT $LN6@play_vehic

; 306  : 		{
; 307  : 			// PLAY_SPEECH (CPG)
; 308  : 			//
; 309  : 			// (Hold your fire, we're hitting friendlies) | (Cease fire, we're hitting our own guys)
; 310  : 
; 311  : 			if (rand16 () & 1)

  001d3	69 05 00 00 00
	00 6d 4e c6 41	 imul	 eax, DWORD PTR ?random_number_seed@@3HA, 1103515245 ; random_number_seed
  001dd	05 39 30 00 00	 add	 eax, 12345		; 00003039H
  001e2	a3 00 00 00 00	 mov	 DWORD PTR ?random_number_seed@@3HA, eax ; random_number_seed
  001e7	8b 0d 00 00 00
	00		 mov	 ecx, DWORD PTR ?random_number_seed@@3HA ; random_number_seed
  001ed	c1 f9 10	 sar	 ecx, 16			; 00000010H
  001f0	81 e1 ff 7f 00
	00		 and	 ecx, 32767		; 00007fffH
  001f6	83 e1 01	 and	 ecx, 1
  001f9	74 09		 je	 SHORT $LN7@play_vehic

; 312  : 			{
; 313  : 				speech_index = SPEECH_CPG_FRIENDLY_FIRE1;

  001fb	c7 45 ec 5c 00
	00 00		 mov	 DWORD PTR _speech_index$[ebp], 92 ; 0000005cH

; 314  : 			}
; 315  : 			else

  00202	eb 07		 jmp	 SHORT $LN8@play_vehic
$LN7@play_vehic:

; 316  : 			{
; 317  : 				speech_index = SPEECH_CPG_FRIENDLY_FIRE2;

  00204	c7 45 ec 5d 00
	00 00		 mov	 DWORD PTR _speech_index$[ebp], 93 ; 0000005dH
$LN8@play_vehic:

; 318  : 			}
; 319  : 
; 320  : 			play_client_server_cpg_message

  0020b	8b 45 ec	 mov	 eax, DWORD PTR _speech_index$[ebp]
  0020e	50		 push	 eax
  0020f	51		 push	 ecx
  00210	f3 0f 10 05 00
	00 00 00	 movss	 xmm0, DWORD PTR __real@41000000
  00218	f3 0f 11 04 24	 movss	 DWORD PTR [esp], xmm0
  0021d	6a 02		 push	 2
  0021f	51		 push	 ecx
  00220	f3 0f 10 05 00
	00 00 00	 movss	 xmm0, DWORD PTR __real@40400000
  00228	f3 0f 11 04 24	 movss	 DWORD PTR [esp], xmm0
  0022d	51		 push	 ecx
  0022e	f3 0f 10 05 00
	00 00 00	 movss	 xmm0, DWORD PTR __real@3f800000
  00236	f3 0f 11 04 24	 movss	 DWORD PTR [esp], xmm0
  0023b	8b 4d 0c	 mov	 ecx, DWORD PTR _aggressor$[ebp]
  0023e	51		 push	 ecx
  0023f	e8 00 00 00 00	 call	 ?play_client_server_cpg_message@@YGHPAUENTITY@@MMHMH@Z ; play_client_server_cpg_message
$LN6@play_vehic:

; 321  : 			(
; 322  : 				aggressor,
; 323  : 				1.0,
; 324  : 				3.0,
; 325  : 				SPEECH_CATEGORY_ATTACKING_TARGETS,
; 326  : 				8.0,
; 327  : 				speech_index
; 328  : 			);
; 329  : 		}
; 330  : 	}
; 331  : 	else

  00244	e9 f4 01 00 00	 jmp	 $LN11@play_vehic
$LN4@play_vehic:

; 332  : 	{
; 333  : 		if (get_local_entity_int_value (aggressor, INT_TYPE_IDENTIFY_AIRCRAFT))

  00249	83 7d 0c 00	 cmp	 DWORD PTR _aggressor$[ebp], 0
  0024d	74 0a		 je	 SHORT $LN25@play_vehic
  0024f	8b 45 0c	 mov	 eax, DWORD PTR _aggressor$[ebp]
  00252	8b 08		 mov	 ecx, DWORD PTR [eax]
  00254	89 4d a8	 mov	 DWORD PTR tv183[ebp], ecx
  00257	eb 1d		 jmp	 SHORT $LN26@play_vehic
$LN25@play_vehic:
  00259	68 4d 01 00 00	 push	 333			; 0000014dH
  0025e	68 00 00 00 00	 push	 OFFSET ??_C@_0EM@EOJDHMFO@c?3?2users?2nhv90?2projects?2eech?2ap@
  00263	8b 15 00 00 00
	00		 mov	 edx, DWORD PTR ?null_entity_pointer_message@@3PBDB ; null_entity_pointer_message
  00269	52		 push	 edx
  0026a	e8 00 00 00 00	 call	 ?process_assert@@YGXPBD0H@Z ; process_assert
  0026f	c7 45 a8 00 00
	00 00		 mov	 DWORD PTR tv183[ebp], 0
$LN26@play_vehic:
  00276	b8 01 00 00 00	 mov	 eax, 1
  0027b	85 c0		 test	 eax, eax
  0027d	74 09		 je	 SHORT $LN27@play_vehic
  0027f	c7 45 a4 57 00
	00 00		 mov	 DWORD PTR tv190[ebp], 87 ; 00000057H
  00286	eb 1d		 jmp	 SHORT $LN28@play_vehic
$LN27@play_vehic:
  00288	68 4d 01 00 00	 push	 333			; 0000014dH
  0028d	68 00 00 00 00	 push	 OFFSET ??_C@_0EM@EOJDHMFO@c?3?2users?2nhv90?2projects?2eech?2ap@
  00292	8b 0d 00 00 00
	00		 mov	 ecx, DWORD PTR ?overload_invalid_int_type_message@@3PBDB ; overload_invalid_int_type_message
  00298	51		 push	 ecx
  00299	e8 00 00 00 00	 call	 ?process_assert@@YGXPBD0H@Z ; process_assert
  0029e	c7 45 a4 00 00
	00 00		 mov	 DWORD PTR tv190[ebp], 0
$LN28@play_vehic:
  002a5	6a 57		 push	 87			; 00000057H
  002a7	8b 55 0c	 mov	 edx, DWORD PTR _aggressor$[ebp]
  002aa	52		 push	 edx
  002ab	69 45 a8 5c 04
	00 00		 imul	 eax, DWORD PTR tv183[ebp], 1116
  002b2	8b 4d a4	 mov	 ecx, DWORD PTR tv190[ebp]
  002b5	8b 94 88 00 00
	00 00		 mov	 edx, DWORD PTR ?fn_get_local_entity_int_value@@3PAY0BBH@P6GHPAUENTITY@@W4INT_TYPES@@@ZA[eax+ecx*4]
  002bc	ff d2		 call	 edx
  002be	85 c0		 test	 eax, eax
  002c0	0f 84 77 01 00
	00		 je	 $LN11@play_vehic

; 334  : 		{
; 335  : 			if (get_local_entity_int_value (aggressor, INT_TYPE_PLAYER) != ENTITY_PLAYER_AI)

  002c6	83 7d 0c 00	 cmp	 DWORD PTR _aggressor$[ebp], 0
  002ca	74 0a		 je	 SHORT $LN29@play_vehic
  002cc	8b 45 0c	 mov	 eax, DWORD PTR _aggressor$[ebp]
  002cf	8b 08		 mov	 ecx, DWORD PTR [eax]
  002d1	89 4d a8	 mov	 DWORD PTR tv202[ebp], ecx
  002d4	eb 1d		 jmp	 SHORT $LN30@play_vehic
$LN29@play_vehic:
  002d6	68 4f 01 00 00	 push	 335			; 0000014fH
  002db	68 00 00 00 00	 push	 OFFSET ??_C@_0EM@EOJDHMFO@c?3?2users?2nhv90?2projects?2eech?2ap@
  002e0	8b 15 00 00 00
	00		 mov	 edx, DWORD PTR ?null_entity_pointer_message@@3PBDB ; null_entity_pointer_message
  002e6	52		 push	 edx
  002e7	e8 00 00 00 00	 call	 ?process_assert@@YGXPBD0H@Z ; process_assert
  002ec	c7 45 a8 00 00
	00 00		 mov	 DWORD PTR tv202[ebp], 0
$LN30@play_vehic:
  002f3	b8 01 00 00 00	 mov	 eax, 1
  002f8	85 c0		 test	 eax, eax
  002fa	74 09		 je	 SHORT $LN31@play_vehic
  002fc	c7 45 a4 9c 00
	00 00		 mov	 DWORD PTR tv209[ebp], 156 ; 0000009cH
  00303	eb 1d		 jmp	 SHORT $LN32@play_vehic
$LN31@play_vehic:
  00305	68 4f 01 00 00	 push	 335			; 0000014fH
  0030a	68 00 00 00 00	 push	 OFFSET ??_C@_0EM@EOJDHMFO@c?3?2users?2nhv90?2projects?2eech?2ap@
  0030f	8b 0d 00 00 00
	00		 mov	 ecx, DWORD PTR ?overload_invalid_int_type_message@@3PBDB ; overload_invalid_int_type_message
  00315	51		 push	 ecx
  00316	e8 00 00 00 00	 call	 ?process_assert@@YGXPBD0H@Z ; process_assert
  0031b	c7 45 a4 00 00
	00 00		 mov	 DWORD PTR tv209[ebp], 0
$LN32@play_vehic:
  00322	68 9c 00 00 00	 push	 156			; 0000009cH
  00327	8b 55 0c	 mov	 edx, DWORD PTR _aggressor$[ebp]
  0032a	52		 push	 edx
  0032b	69 45 a8 5c 04
	00 00		 imul	 eax, DWORD PTR tv202[ebp], 1116
  00332	8b 4d a4	 mov	 ecx, DWORD PTR tv209[ebp]
  00335	8b 94 88 00 00
	00 00		 mov	 edx, DWORD PTR ?fn_get_local_entity_int_value@@3PAY0BBH@P6GHPAUENTITY@@W4INT_TYPES@@@ZA[eax+ecx*4]
  0033c	ff d2		 call	 edx
  0033e	85 c0		 test	 eax, eax
  00340	74 70		 je	 SHORT $LN10@play_vehic

; 336  : 			{
; 337  : 				// PLAY_SPEECH (CPG)
; 338  : 				//
; 339  : 				// (Target destroyed) | (Enemy armour destroyed) | (Good Kill) | etc
; 340  : 
; 341  : 				val = get_speech_random_value

  00342	8b 45 f8	 mov	 eax, DWORD PTR _aggressor_side$[ebp]
  00345	8b 0c 85 00 00
	00 00		 mov	 ecx, DWORD PTR ?last_vh_destroyed_cpg_comment@@3PAHA[eax*4]
  0034c	51		 push	 ecx
  0034d	8b 55 f8	 mov	 edx, DWORD PTR _aggressor_side$[ebp]
  00350	8b 04 95 00 00
	00 00		 mov	 eax, DWORD PTR ?num_vh_destroyed_cpg_comments@@3PAHA[edx*4]
  00357	50		 push	 eax
  00358	68 00 00 00 00	 push	 OFFSET ?vehicle_destroyed_cpg_comments@@3PAUSPEECH_INSTANCE_TYPE@@A
  0035d	e8 00 00 00 00	 call	 ?get_speech_random_value@@YGHPAUSPEECH_INSTANCE_TYPE@@HH@Z ; get_speech_random_value
  00362	89 45 f4	 mov	 DWORD PTR _val$[ebp], eax

; 342  : 						(
; 343  : 							vehicle_destroyed_cpg_comments,
; 344  : 							num_vh_destroyed_cpg_comments [aggressor_side],
; 345  : 							last_vh_destroyed_cpg_comment [aggressor_side]
; 346  : 						);
; 347  : 
; 348  : 				speech_index = vehicle_destroyed_cpg_comments [val].speech_index;

  00365	8b 45 f4	 mov	 eax, DWORD PTR _val$[ebp]
  00368	c1 e0 04	 shl	 eax, 4
  0036b	8b 88 00 00 00
	00		 mov	 ecx, DWORD PTR ?vehicle_destroyed_cpg_comments@@3PAUSPEECH_INSTANCE_TYPE@@A[eax]
  00371	89 4d ec	 mov	 DWORD PTR _speech_index$[ebp], ecx

; 349  : 	
; 350  : 				play_client_server_cpg_message

  00374	8b 45 ec	 mov	 eax, DWORD PTR _speech_index$[ebp]
  00377	50		 push	 eax
  00378	51		 push	 ecx
  00379	f3 0f 10 05 00
	00 00 00	 movss	 xmm0, DWORD PTR __real@41200000
  00381	f3 0f 11 04 24	 movss	 DWORD PTR [esp], xmm0
  00386	6a 02		 push	 2
  00388	51		 push	 ecx
  00389	f3 0f 10 05 00
	00 00 00	 movss	 xmm0, DWORD PTR __real@40400000
  00391	f3 0f 11 04 24	 movss	 DWORD PTR [esp], xmm0
  00396	51		 push	 ecx
  00397	f3 0f 10 05 00
	00 00 00	 movss	 xmm0, DWORD PTR __real@3ecccccd
  0039f	f3 0f 11 04 24	 movss	 DWORD PTR [esp], xmm0
  003a4	8b 4d 0c	 mov	 ecx, DWORD PTR _aggressor$[ebp]
  003a7	51		 push	 ecx
  003a8	e8 00 00 00 00	 call	 ?play_client_server_cpg_message@@YGHPAUENTITY@@MMHMH@Z ; play_client_server_cpg_message

; 351  : 				(
; 352  : 					aggressor,
; 353  : 					0.4,
; 354  : 					3.0,
; 355  : 					SPEECH_CATEGORY_ATTACKING_TARGETS, 10.0,
; 356  : 					speech_index
; 357  : 				);
; 358  : 			}
; 359  : 			else

  003ad	e9 8b 00 00 00	 jmp	 $LN11@play_vehic
$LN10@play_vehic:

; 360  : 			{
; 361  : 				// PLAY_SPEECH (WINGMAN)
; 362  : 				//
; 363  : 				// (Target destroyed) | (Enemy armour destroyed) | (Good Kill) | etc
; 364  : 
; 365  : 				val = get_speech_random_value

  003b2	8b 45 f8	 mov	 eax, DWORD PTR _aggressor_side$[ebp]
  003b5	8b 0c 85 00 00
	00 00		 mov	 ecx, DWORD PTR ?last_vh_destroyed_wingman_comment@@3PAHA[eax*4]
  003bc	51		 push	 ecx
  003bd	8b 55 f8	 mov	 edx, DWORD PTR _aggressor_side$[ebp]
  003c0	8b 04 95 00 00
	00 00		 mov	 eax, DWORD PTR ?num_vh_destroyed_wingman_comments@@3PAHA[edx*4]
  003c7	50		 push	 eax
  003c8	68 00 00 00 00	 push	 OFFSET ?vehicle_destroyed_wingman_comments@@3PAUSPEECH_INSTANCE_TYPE@@A
  003cd	e8 00 00 00 00	 call	 ?get_speech_random_value@@YGHPAUSPEECH_INSTANCE_TYPE@@HH@Z ; get_speech_random_value
  003d2	89 45 f4	 mov	 DWORD PTR _val$[ebp], eax

; 366  : 						(
; 367  : 							vehicle_destroyed_wingman_comments,
; 368  : 							num_vh_destroyed_wingman_comments [aggressor_side],
; 369  : 							last_vh_destroyed_wingman_comment [aggressor_side]
; 370  : 						);
; 371  : 
; 372  : 				array_type = vehicle_destroyed_wingman_comments [val].array_type;

  003d5	8b 45 f4	 mov	 eax, DWORD PTR _val$[ebp]
  003d8	c1 e0 04	 shl	 eax, 4
  003db	8b 88 04 00 00
	00		 mov	 ecx, DWORD PTR ?vehicle_destroyed_wingman_comments@@3PAUSPEECH_INSTANCE_TYPE@@A[eax+4]
  003e1	89 4d f0	 mov	 DWORD PTR _array_type$[ebp], ecx

; 373  : 				speech_index = vehicle_destroyed_wingman_comments [val].speech_index;

  003e4	8b 45 f4	 mov	 eax, DWORD PTR _val$[ebp]
  003e7	c1 e0 04	 shl	 eax, 4
  003ea	8b 88 00 00 00
	00		 mov	 ecx, DWORD PTR ?vehicle_destroyed_wingman_comments@@3PAUSPEECH_INSTANCE_TYPE@@A[eax]
  003f0	89 4d ec	 mov	 DWORD PTR _speech_index$[ebp], ecx

; 374  : 	
; 375  : 				play_client_server_wingman_message

  003f3	8b 45 ec	 mov	 eax, DWORD PTR _speech_index$[ebp]
  003f6	50		 push	 eax
  003f7	8b 4d f0	 mov	 ecx, DWORD PTR _array_type$[ebp]
  003fa	51		 push	 ecx
  003fb	8b 55 f4	 mov	 edx, DWORD PTR _val$[ebp]
  003fe	c1 e2 04	 shl	 edx, 4
  00401	8b 82 0c 00 00
	00		 mov	 eax, DWORD PTR ?vehicle_destroyed_wingman_comments@@3PAUSPEECH_INSTANCE_TYPE@@A[edx+12]
  00407	50		 push	 eax
  00408	51		 push	 ecx
  00409	f3 0f 10 05 00
	00 00 00	 movss	 xmm0, DWORD PTR __real@41200000
  00411	f3 0f 11 04 24	 movss	 DWORD PTR [esp], xmm0
  00416	6a 02		 push	 2
  00418	51		 push	 ecx
  00419	f3 0f 10 05 00
	00 00 00	 movss	 xmm0, DWORD PTR __real@40400000
  00421	f3 0f 11 04 24	 movss	 DWORD PTR [esp], xmm0
  00426	51		 push	 ecx
  00427	f3 0f 10 05 00
	00 00 00	 movss	 xmm0, DWORD PTR __real@3ecccccd
  0042f	f3 0f 11 04 24	 movss	 DWORD PTR [esp], xmm0
  00434	8b 4d 0c	 mov	 ecx, DWORD PTR _aggressor$[ebp]
  00437	51		 push	 ecx
  00438	e8 00 00 00 00	 call	 ?play_client_server_wingman_message@@YGHPAUENTITY@@MMW4speech_category_types@@MW4speech_intro_types@@W4speech_array_types@@H@Z ; play_client_server_wingman_message
$LN11@play_vehic:

; 376  : 				(
; 377  : 					aggressor,
; 378  : 					0.4,
; 379  : 					3.0,
; 380  : 					SPEECH_CATEGORY_ATTACKING_TARGETS, 10.0,
; 381  : 					vehicle_destroyed_wingman_comments [val].introduction,
; 382  : 					(speech_array_types) array_type, speech_index
; 383  : 				);
; 384  : 			}
; 385  : 		}
; 386  : 	}
; 387  : }

  0043d	5f		 pop	 edi
  0043e	5e		 pop	 esi
  0043f	5b		 pop	 ebx
  00440	8b e5		 mov	 esp, ebp
  00442	5d		 pop	 ebp
  00443	c2 08 00	 ret	 8
?play_vehicle_destroyed_speech@@YGXPAUENTITY@@0@Z ENDP	; play_vehicle_destroyed_speech
_TEXT	ENDS
; Function compile flags: /Odtp /ZI
; File c:\users\nhv90\projects\eech\aphavoc\source\entity\mobile\vehicle\vehicle.c
;	COMDAT ?play_vehicle_shot_at_speech@@YGXPAUENTITY@@0@Z
_TEXT	SEGMENT
tv286 = -92						; size = 4
tv267 = -92						; size = 4
tv184 = -92						; size = 4
tv165 = -92						; size = 4
tv145 = -92						; size = 4
tv88 = -92						; size = 4
tv279 = -88						; size = 4
tv260 = -88						; size = 4
tv177 = -88						; size = 4
tv157 = -88						; size = 4
tv137 = -88						; size = 4
tv80 = -88						; size = 4
_pos$ = -20						; size = 4
_speech_index$ = -16					; size = 4
_val$ = -12						; size = 4
_aggressor_side$ = -8					; size = 4
_victim_side$ = -4					; size = 4
_victim$ = 8						; size = 4
_aggressor$ = 12					; size = 4
?play_vehicle_shot_at_speech@@YGXPAUENTITY@@0@Z PROC	; play_vehicle_shot_at_speech, COMDAT

; 89   : {

  00000	55		 push	 ebp
  00001	8b ec		 mov	 ebp, esp
  00003	83 ec 5c	 sub	 esp, 92			; 0000005cH
  00006	53		 push	 ebx
  00007	56		 push	 esi
  00008	57		 push	 edi

; 90   : 	entity_sides
; 91   : 		victim_side,
; 92   : 		aggressor_side;
; 93   : 
; 94   : 	int
; 95   : 		val,
; 96   : 		speech_index;
; 97   : 
; 98   : 	vec3d
; 99   : 		*pos;
; 100  : 
; 101  : 	ASSERT (victim);

  00009	83 7d 08 00	 cmp	 DWORD PTR _victim$[ebp], 0
  0000d	75 18		 jne	 SHORT $LN2@play_vehic
  0000f	a1 00 00 00 00	 mov	 eax, DWORD PTR ?__LINE__Var@?0??play_vehicle_shot_at_speech@@YGXPAUENTITY@@0@Z@4JA
  00014	83 c0 0c	 add	 eax, 12			; 0000000cH
  00017	50		 push	 eax
  00018	68 00 00 00 00	 push	 OFFSET ??_C@_0EM@EOJDHMFO@c?3?2users?2nhv90?2projects?2eech?2ap@
  0001d	68 00 00 00 00	 push	 OFFSET ??_C@_06GPEKEEBB@victim@
  00022	e8 00 00 00 00	 call	 ?process_assert@@YGXPBD0H@Z ; process_assert
$LN2@play_vehic:

; 102  : 
; 103  : 	ASSERT (aggressor);

  00027	83 7d 0c 00	 cmp	 DWORD PTR _aggressor$[ebp], 0
  0002b	75 18		 jne	 SHORT $LN3@play_vehic
  0002d	a1 00 00 00 00	 mov	 eax, DWORD PTR ?__LINE__Var@?0??play_vehicle_shot_at_speech@@YGXPAUENTITY@@0@Z@4JA
  00032	83 c0 0e	 add	 eax, 14			; 0000000eH
  00035	50		 push	 eax
  00036	68 00 00 00 00	 push	 OFFSET ??_C@_0EM@EOJDHMFO@c?3?2users?2nhv90?2projects?2eech?2ap@
  0003b	68 00 00 00 00	 push	 OFFSET ??_C@_09HKMIOAOH@aggressor@
  00040	e8 00 00 00 00	 call	 ?process_assert@@YGXPBD0H@Z ; process_assert
$LN3@play_vehic:

; 104  : 
; 105  : 	pos = get_local_entity_vec3d_ptr (victim, VEC3D_TYPE_POSITION);

  00045	83 7d 08 00	 cmp	 DWORD PTR _victim$[ebp], 0
  00049	74 0a		 je	 SHORT $LN14@play_vehic
  0004b	8b 45 08	 mov	 eax, DWORD PTR _victim$[ebp]
  0004e	8b 08		 mov	 ecx, DWORD PTR [eax]
  00050	89 4d a8	 mov	 DWORD PTR tv80[ebp], ecx
  00053	eb 21		 jmp	 SHORT $LN15@play_vehic
$LN14@play_vehic:
  00055	8b 15 00 00 00
	00		 mov	 edx, DWORD PTR ?__LINE__Var@?0??play_vehicle_shot_at_speech@@YGXPAUENTITY@@0@Z@4JA
  0005b	83 c2 10	 add	 edx, 16			; 00000010H
  0005e	52		 push	 edx
  0005f	68 00 00 00 00	 push	 OFFSET ??_C@_0EM@EOJDHMFO@c?3?2users?2nhv90?2projects?2eech?2ap@
  00064	a1 00 00 00 00	 mov	 eax, DWORD PTR ?null_entity_pointer_message@@3PBDB ; null_entity_pointer_message
  00069	50		 push	 eax
  0006a	e8 00 00 00 00	 call	 ?process_assert@@YGXPBD0H@Z ; process_assert
  0006f	c7 45 a8 00 00
	00 00		 mov	 DWORD PTR tv80[ebp], 0
$LN15@play_vehic:
  00076	b9 01 00 00 00	 mov	 ecx, 1
  0007b	85 c9		 test	 ecx, ecx
  0007d	74 09		 je	 SHORT $LN16@play_vehic
  0007f	c7 45 a4 08 00
	00 00		 mov	 DWORD PTR tv88[ebp], 8
  00086	eb 21		 jmp	 SHORT $LN17@play_vehic
$LN16@play_vehic:
  00088	8b 15 00 00 00
	00		 mov	 edx, DWORD PTR ?__LINE__Var@?0??play_vehicle_shot_at_speech@@YGXPAUENTITY@@0@Z@4JA
  0008e	83 c2 10	 add	 edx, 16			; 00000010H
  00091	52		 push	 edx
  00092	68 00 00 00 00	 push	 OFFSET ??_C@_0EM@EOJDHMFO@c?3?2users?2nhv90?2projects?2eech?2ap@
  00097	a1 00 00 00 00	 mov	 eax, DWORD PTR ?overload_invalid_vec3d_type_message@@3PBDB ; overload_invalid_vec3d_type_message
  0009c	50		 push	 eax
  0009d	e8 00 00 00 00	 call	 ?process_assert@@YGXPBD0H@Z ; process_assert
  000a2	c7 45 a4 00 00
	00 00		 mov	 DWORD PTR tv88[ebp], 0
$LN17@play_vehic:
  000a9	6a 08		 push	 8
  000ab	8b 4d 08	 mov	 ecx, DWORD PTR _victim$[ebp]
  000ae	51		 push	 ecx
  000af	6b 55 a8 60	 imul	 edx, DWORD PTR tv80[ebp], 96
  000b3	8b 45 a4	 mov	 eax, DWORD PTR tv88[ebp]
  000b6	8b 8c 82 00 00
	00 00		 mov	 ecx, DWORD PTR ?fn_get_local_entity_vec3d_ptr@@3PAY0BI@P6GPAUVEC3D@@PAUENTITY@@W4VEC3D_TYPES@@@ZA[edx+eax*4]
  000bd	ff d1		 call	 ecx
  000bf	89 45 ec	 mov	 DWORD PTR _pos$[ebp], eax

; 106  : 
; 107  : 	ASSERT (pos);

  000c2	83 7d ec 00	 cmp	 DWORD PTR _pos$[ebp], 0
  000c6	75 18		 jne	 SHORT $LN4@play_vehic
  000c8	a1 00 00 00 00	 mov	 eax, DWORD PTR ?__LINE__Var@?0??play_vehicle_shot_at_speech@@YGXPAUENTITY@@0@Z@4JA
  000cd	83 c0 12	 add	 eax, 18			; 00000012H
  000d0	50		 push	 eax
  000d1	68 00 00 00 00	 push	 OFFSET ??_C@_0EM@EOJDHMFO@c?3?2users?2nhv90?2projects?2eech?2ap@
  000d6	68 00 00 00 00	 push	 OFFSET ??_C@_03PCBNCGFH@pos@
  000db	e8 00 00 00 00	 call	 ?process_assert@@YGXPBD0H@Z ; process_assert
$LN4@play_vehic:

; 108  : 
; 109  : 	victim_side = (entity_sides) get_local_entity_int_value (victim, INT_TYPE_SIDE);

  000e0	83 7d 08 00	 cmp	 DWORD PTR _victim$[ebp], 0
  000e4	74 0a		 je	 SHORT $LN18@play_vehic
  000e6	8b 45 08	 mov	 eax, DWORD PTR _victim$[ebp]
  000e9	8b 08		 mov	 ecx, DWORD PTR [eax]
  000eb	89 4d a8	 mov	 DWORD PTR tv137[ebp], ecx
  000ee	eb 21		 jmp	 SHORT $LN19@play_vehic
$LN18@play_vehic:
  000f0	8b 15 00 00 00
	00		 mov	 edx, DWORD PTR ?__LINE__Var@?0??play_vehicle_shot_at_speech@@YGXPAUENTITY@@0@Z@4JA
  000f6	83 c2 14	 add	 edx, 20			; 00000014H
  000f9	52		 push	 edx
  000fa	68 00 00 00 00	 push	 OFFSET ??_C@_0EM@EOJDHMFO@c?3?2users?2nhv90?2projects?2eech?2ap@
  000ff	a1 00 00 00 00	 mov	 eax, DWORD PTR ?null_entity_pointer_message@@3PBDB ; null_entity_pointer_message
  00104	50		 push	 eax
  00105	e8 00 00 00 00	 call	 ?process_assert@@YGXPBD0H@Z ; process_assert
  0010a	c7 45 a8 00 00
	00 00		 mov	 DWORD PTR tv137[ebp], 0
$LN19@play_vehic:
  00111	b9 01 00 00 00	 mov	 ecx, 1
  00116	85 c9		 test	 ecx, ecx
  00118	74 09		 je	 SHORT $LN20@play_vehic
  0011a	c7 45 a4 bb 00
	00 00		 mov	 DWORD PTR tv145[ebp], 187 ; 000000bbH
  00121	eb 21		 jmp	 SHORT $LN21@play_vehic
$LN20@play_vehic:
  00123	8b 15 00 00 00
	00		 mov	 edx, DWORD PTR ?__LINE__Var@?0??play_vehicle_shot_at_speech@@YGXPAUENTITY@@0@Z@4JA
  00129	83 c2 14	 add	 edx, 20			; 00000014H
  0012c	52		 push	 edx
  0012d	68 00 00 00 00	 push	 OFFSET ??_C@_0EM@EOJDHMFO@c?3?2users?2nhv90?2projects?2eech?2ap@
  00132	a1 00 00 00 00	 mov	 eax, DWORD PTR ?overload_invalid_int_type_message@@3PBDB ; overload_invalid_int_type_message
  00137	50		 push	 eax
  00138	e8 00 00 00 00	 call	 ?process_assert@@YGXPBD0H@Z ; process_assert
  0013d	c7 45 a4 00 00
	00 00		 mov	 DWORD PTR tv145[ebp], 0
$LN21@play_vehic:
  00144	68 bb 00 00 00	 push	 187			; 000000bbH
  00149	8b 4d 08	 mov	 ecx, DWORD PTR _victim$[ebp]
  0014c	51		 push	 ecx
  0014d	69 55 a8 5c 04
	00 00		 imul	 edx, DWORD PTR tv137[ebp], 1116
  00154	8b 45 a4	 mov	 eax, DWORD PTR tv145[ebp]
  00157	8b 8c 82 00 00
	00 00		 mov	 ecx, DWORD PTR ?fn_get_local_entity_int_value@@3PAY0BBH@P6GHPAUENTITY@@W4INT_TYPES@@@ZA[edx+eax*4]
  0015e	ff d1		 call	 ecx
  00160	89 45 fc	 mov	 DWORD PTR _victim_side$[ebp], eax

; 110  : 
; 111  : 	aggressor_side = (entity_sides) get_local_entity_int_value (aggressor, INT_TYPE_SIDE);

  00163	83 7d 0c 00	 cmp	 DWORD PTR _aggressor$[ebp], 0
  00167	74 0a		 je	 SHORT $LN22@play_vehic
  00169	8b 45 0c	 mov	 eax, DWORD PTR _aggressor$[ebp]
  0016c	8b 08		 mov	 ecx, DWORD PTR [eax]
  0016e	89 4d a8	 mov	 DWORD PTR tv157[ebp], ecx
  00171	eb 21		 jmp	 SHORT $LN23@play_vehic
$LN22@play_vehic:
  00173	8b 15 00 00 00
	00		 mov	 edx, DWORD PTR ?__LINE__Var@?0??play_vehicle_shot_at_speech@@YGXPAUENTITY@@0@Z@4JA
  00179	83 c2 16	 add	 edx, 22			; 00000016H
  0017c	52		 push	 edx
  0017d	68 00 00 00 00	 push	 OFFSET ??_C@_0EM@EOJDHMFO@c?3?2users?2nhv90?2projects?2eech?2ap@
  00182	a1 00 00 00 00	 mov	 eax, DWORD PTR ?null_entity_pointer_message@@3PBDB ; null_entity_pointer_message
  00187	50		 push	 eax
  00188	e8 00 00 00 00	 call	 ?process_assert@@YGXPBD0H@Z ; process_assert
  0018d	c7 45 a8 00 00
	00 00		 mov	 DWORD PTR tv157[ebp], 0
$LN23@play_vehic:
  00194	b9 01 00 00 00	 mov	 ecx, 1
  00199	85 c9		 test	 ecx, ecx
  0019b	74 09		 je	 SHORT $LN24@play_vehic
  0019d	c7 45 a4 bb 00
	00 00		 mov	 DWORD PTR tv165[ebp], 187 ; 000000bbH
  001a4	eb 21		 jmp	 SHORT $LN25@play_vehic
$LN24@play_vehic:
  001a6	8b 15 00 00 00
	00		 mov	 edx, DWORD PTR ?__LINE__Var@?0??play_vehicle_shot_at_speech@@YGXPAUENTITY@@0@Z@4JA
  001ac	83 c2 16	 add	 edx, 22			; 00000016H
  001af	52		 push	 edx
  001b0	68 00 00 00 00	 push	 OFFSET ??_C@_0EM@EOJDHMFO@c?3?2users?2nhv90?2projects?2eech?2ap@
  001b5	a1 00 00 00 00	 mov	 eax, DWORD PTR ?overload_invalid_int_type_message@@3PBDB ; overload_invalid_int_type_message
  001ba	50		 push	 eax
  001bb	e8 00 00 00 00	 call	 ?process_assert@@YGXPBD0H@Z ; process_assert
  001c0	c7 45 a4 00 00
	00 00		 mov	 DWORD PTR tv165[ebp], 0
$LN25@play_vehic:
  001c7	68 bb 00 00 00	 push	 187			; 000000bbH
  001cc	8b 4d 0c	 mov	 ecx, DWORD PTR _aggressor$[ebp]
  001cf	51		 push	 ecx
  001d0	69 55 a8 5c 04
	00 00		 imul	 edx, DWORD PTR tv157[ebp], 1116
  001d7	8b 45 a4	 mov	 eax, DWORD PTR tv165[ebp]
  001da	8b 8c 82 00 00
	00 00		 mov	 ecx, DWORD PTR ?fn_get_local_entity_int_value@@3PAY0BBH@P6GHPAUENTITY@@W4INT_TYPES@@@ZA[edx+eax*4]
  001e1	ff d1		 call	 ecx
  001e3	89 45 f8	 mov	 DWORD PTR _aggressor_side$[ebp], eax

; 112  : 
; 113  : 	if (aggressor_side == victim_side)

  001e6	8b 45 f8	 mov	 eax, DWORD PTR _aggressor_side$[ebp]
  001e9	3b 45 fc	 cmp	 eax, DWORD PTR _victim_side$[ebp]
  001ec	0f 85 f2 00 00
	00		 jne	 $LN5@play_vehic

; 114  : 	{
; 115  : 		//
; 116  : 		// FRIENDLY FIRE
; 117  : 		//
; 118  : 
; 119  : 		////////////////////////////////////
; 120  : 		//
; 121  : 		// victims speech
; 122  : 		//
; 123  : 		////////////////////////////////////
; 124  : 		
; 125  : 		////////////////////////////////////
; 126  : 		//
; 127  : 		// Aggressors speech
; 128  : 		//
; 129  : 		////////////////////////////////////
; 130  : 
; 131  : 		if (get_local_entity_int_value (aggressor, INT_TYPE_PLAYER) != ENTITY_PLAYER_AI)

  001f2	83 7d 0c 00	 cmp	 DWORD PTR _aggressor$[ebp], 0
  001f6	74 0a		 je	 SHORT $LN26@play_vehic
  001f8	8b 45 0c	 mov	 eax, DWORD PTR _aggressor$[ebp]
  001fb	8b 08		 mov	 ecx, DWORD PTR [eax]
  001fd	89 4d a8	 mov	 DWORD PTR tv177[ebp], ecx
  00200	eb 1d		 jmp	 SHORT $LN27@play_vehic
$LN26@play_vehic:
  00202	68 83 00 00 00	 push	 131			; 00000083H
  00207	68 00 00 00 00	 push	 OFFSET ??_C@_0EM@EOJDHMFO@c?3?2users?2nhv90?2projects?2eech?2ap@
  0020c	8b 15 00 00 00
	00		 mov	 edx, DWORD PTR ?null_entity_pointer_message@@3PBDB ; null_entity_pointer_message
  00212	52		 push	 edx
  00213	e8 00 00 00 00	 call	 ?process_assert@@YGXPBD0H@Z ; process_assert
  00218	c7 45 a8 00 00
	00 00		 mov	 DWORD PTR tv177[ebp], 0
$LN27@play_vehic:
  0021f	b8 01 00 00 00	 mov	 eax, 1
  00224	85 c0		 test	 eax, eax
  00226	74 09		 je	 SHORT $LN28@play_vehic
  00228	c7 45 a4 9c 00
	00 00		 mov	 DWORD PTR tv184[ebp], 156 ; 0000009cH
  0022f	eb 1d		 jmp	 SHORT $LN29@play_vehic
$LN28@play_vehic:
  00231	68 83 00 00 00	 push	 131			; 00000083H
  00236	68 00 00 00 00	 push	 OFFSET ??_C@_0EM@EOJDHMFO@c?3?2users?2nhv90?2projects?2eech?2ap@
  0023b	8b 0d 00 00 00
	00		 mov	 ecx, DWORD PTR ?overload_invalid_int_type_message@@3PBDB ; overload_invalid_int_type_message
  00241	51		 push	 ecx
  00242	e8 00 00 00 00	 call	 ?process_assert@@YGXPBD0H@Z ; process_assert
  00247	c7 45 a4 00 00
	00 00		 mov	 DWORD PTR tv184[ebp], 0
$LN29@play_vehic:
  0024e	68 9c 00 00 00	 push	 156			; 0000009cH
  00253	8b 55 0c	 mov	 edx, DWORD PTR _aggressor$[ebp]
  00256	52		 push	 edx
  00257	69 45 a8 5c 04
	00 00		 imul	 eax, DWORD PTR tv177[ebp], 1116
  0025e	8b 4d a4	 mov	 ecx, DWORD PTR tv184[ebp]
  00261	8b 94 88 00 00
	00 00		 mov	 edx, DWORD PTR ?fn_get_local_entity_int_value@@3PAY0BBH@P6GHPAUENTITY@@W4INT_TYPES@@@ZA[eax+ecx*4]
  00268	ff d2		 call	 edx
  0026a	85 c0		 test	 eax, eax
  0026c	74 71		 je	 SHORT $LN7@play_vehic

; 132  : 		{
; 133  : 			//
; 134  : 			// PLAY_SPEECH (CPG)
; 135  : 			//
; 136  : 
; 137  : 			if (rand16 () & 1)

  0026e	69 05 00 00 00
	00 6d 4e c6 41	 imul	 eax, DWORD PTR ?random_number_seed@@3HA, 1103515245 ; random_number_seed
  00278	05 39 30 00 00	 add	 eax, 12345		; 00003039H
  0027d	a3 00 00 00 00	 mov	 DWORD PTR ?random_number_seed@@3HA, eax ; random_number_seed
  00282	8b 0d 00 00 00
	00		 mov	 ecx, DWORD PTR ?random_number_seed@@3HA ; random_number_seed
  00288	c1 f9 10	 sar	 ecx, 16			; 00000010H
  0028b	81 e1 ff 7f 00
	00		 and	 ecx, 32767		; 00007fffH
  00291	83 e1 01	 and	 ecx, 1
  00294	74 09		 je	 SHORT $LN8@play_vehic

; 138  : 			{
; 139  : 				speech_index = SPEECH_CPG_FRIENDLY_FIRE1;

  00296	c7 45 f0 5c 00
	00 00		 mov	 DWORD PTR _speech_index$[ebp], 92 ; 0000005cH

; 140  : 			}
; 141  : 			else

  0029d	eb 07		 jmp	 SHORT $LN9@play_vehic
$LN8@play_vehic:

; 142  : 			{
; 143  : 				speech_index = SPEECH_CPG_FRIENDLY_FIRE2;

  0029f	c7 45 f0 5d 00
	00 00		 mov	 DWORD PTR _speech_index$[ebp], 93 ; 0000005dH
$LN9@play_vehic:

; 144  : 			}
; 145  : 
; 146  : 			play_client_server_cpg_message

  002a6	8b 45 f0	 mov	 eax, DWORD PTR _speech_index$[ebp]
  002a9	50		 push	 eax
  002aa	51		 push	 ecx
  002ab	f3 0f 10 05 00
	00 00 00	 movss	 xmm0, DWORD PTR __real@41400000
  002b3	f3 0f 11 04 24	 movss	 DWORD PTR [esp], xmm0
  002b8	6a 02		 push	 2
  002ba	51		 push	 ecx
  002bb	f3 0f 10 05 00
	00 00 00	 movss	 xmm0, DWORD PTR __real@40400000
  002c3	f3 0f 11 04 24	 movss	 DWORD PTR [esp], xmm0
  002c8	51		 push	 ecx
  002c9	f3 0f 10 05 00
	00 00 00	 movss	 xmm0, DWORD PTR __real@3f800000
  002d1	f3 0f 11 04 24	 movss	 DWORD PTR [esp], xmm0
  002d6	8b 4d 0c	 mov	 ecx, DWORD PTR _aggressor$[ebp]
  002d9	51		 push	 ecx
  002da	e8 00 00 00 00	 call	 ?play_client_server_cpg_message@@YGHPAUENTITY@@MMHMH@Z ; play_client_server_cpg_message
$LN7@play_vehic:

; 147  : 			(
; 148  : 				aggressor,
; 149  : 				1.0,
; 150  : 				3.0,
; 151  : 				SPEECH_CATEGORY_ATTACKING_TARGETS,
; 152  : 				12.0,
; 153  : 				speech_index
; 154  : 			);
; 155  : 		}
; 156  : 	}
; 157  : 	else

  002df	e9 6a 02 00 00	 jmp	 $LN12@play_vehic
$LN5@play_vehic:

; 158  : 	{
; 159  : 		////////////////////////////////////
; 160  : 		//
; 161  : 		// victims speech
; 162  : 		//
; 163  : 		////////////////////////////////////
; 164  : 
; 165  : 		val = get_speech_random_value

  002e4	8b 45 fc	 mov	 eax, DWORD PTR _victim_side$[ebp]
  002e7	8b 0c 85 00 00
	00 00		 mov	 ecx, DWORD PTR ?last_vehicle_hit_comment@@3PAHA[eax*4]
  002ee	51		 push	 ecx
  002ef	8b 55 fc	 mov	 edx, DWORD PTR _victim_side$[ebp]
  002f2	8b 04 95 00 00
	00 00		 mov	 eax, DWORD PTR ?num_vehicle_hit_comments@@3PAHA[edx*4]
  002f9	50		 push	 eax
  002fa	68 00 00 00 00	 push	 OFFSET ?vehicle_hit_comments@@3PAUSPEECH_INSTANCE_TYPE@@A
  002ff	e8 00 00 00 00	 call	 ?get_speech_random_value@@YGHPAUSPEECH_INSTANCE_TYPE@@HH@Z ; get_speech_random_value
  00304	89 45 f4	 mov	 DWORD PTR _val$[ebp], eax

; 166  : 				(
; 167  : 					vehicle_hit_comments,
; 168  : 					num_vehicle_hit_comments [victim_side],
; 169  : 					last_vehicle_hit_comment [victim_side]
; 170  : 				);
; 171  : 
; 172  : 		speech_index = vehicle_hit_comments [val].speech_index;

  00307	8b 45 f4	 mov	 eax, DWORD PTR _val$[ebp]
  0030a	c1 e0 04	 shl	 eax, 4
  0030d	8b 88 00 00 00
	00		 mov	 ecx, DWORD PTR ?vehicle_hit_comments@@3PAUSPEECH_INSTANCE_TYPE@@A[eax]
  00313	89 4d f0	 mov	 DWORD PTR _speech_index$[ebp], ecx

; 173  : 	
; 174  : 		get_speech_sector_coordinates (pos);

  00316	8b 45 ec	 mov	 eax, DWORD PTR _pos$[ebp]
  00319	50		 push	 eax
  0031a	e8 00 00 00 00	 call	 ?get_speech_sector_coordinates@@YGPAHPAUVEC3D@@@Z ; get_speech_sector_coordinates

; 175  : 
; 176  : 		// PLAY_SPEECH (GC)
; 177  : 		//
; 178  : 		// [GC Introduction],
; 179  : 		// (We are pinned down by enemy fire) | (we are taking heavy fire, requesting ariel assistance)
; 180  : 		// location
; 181  : 
; 182  : 		play_client_server_speech

  0031f	6a ff		 push	 -1
  00321	b8 04 00 00 00	 mov	 eax, 4
  00326	6b c8 05	 imul	 ecx, eax, 5
  00329	8b 91 00 00 00
	00		 mov	 edx, DWORD PTR ?speech_sector_coordinates@@3PAHA[ecx]
  0032f	52		 push	 edx
  00330	6a 00		 push	 0
  00332	b8 04 00 00 00	 mov	 eax, 4
  00337	c1 e0 02	 shl	 eax, 2
  0033a	8b 88 00 00 00
	00		 mov	 ecx, DWORD PTR ?speech_sector_coordinates@@3PAHA[eax]
  00340	51		 push	 ecx
  00341	6a 00		 push	 0
  00343	ba 04 00 00 00	 mov	 edx, 4
  00348	6b c2 03	 imul	 eax, edx, 3
  0034b	8b 88 00 00 00
	00		 mov	 ecx, DWORD PTR ?speech_sector_coordinates@@3PAHA[eax]
  00351	51		 push	 ecx
  00352	6a 00		 push	 0
  00354	ba 04 00 00 00	 mov	 edx, 4
  00359	d1 e2		 shl	 edx, 1
  0035b	8b 82 00 00 00
	00		 mov	 eax, DWORD PTR ?speech_sector_coordinates@@3PAHA[edx]
  00361	50		 push	 eax
  00362	6a 00		 push	 0
  00364	b9 04 00 00 00	 mov	 ecx, 4
  00369	c1 e1 00	 shl	 ecx, 0
  0036c	8b 91 00 00 00
	00		 mov	 edx, DWORD PTR ?speech_sector_coordinates@@3PAHA[ecx]
  00372	52		 push	 edx
  00373	6a 00		 push	 0
  00375	b8 04 00 00 00	 mov	 eax, 4
  0037a	6b c8 00	 imul	 ecx, eax, 0
  0037d	8b 91 00 00 00
	00		 mov	 edx, DWORD PTR ?speech_sector_coordinates@@3PAHA[ecx]
  00383	52		 push	 edx
  00384	6a 00		 push	 0
  00386	8b 45 f0	 mov	 eax, DWORD PTR _speech_index$[ebp]
  00389	50		 push	 eax
  0038a	6a 05		 push	 5
  0038c	6a 00		 push	 0
  0038e	6a 05		 push	 5
  00390	51		 push	 ecx
  00391	f3 0f 10 05 00
	00 00 00	 movss	 xmm0, DWORD PTR __real@43960000
  00399	f3 0f 11 04 24	 movss	 DWORD PTR [esp], xmm0
  0039e	6a 11		 push	 17			; 00000011H
  003a0	6a 06		 push	 6
  003a2	51		 push	 ecx
  003a3	f3 0f 10 05 00
	00 00 00	 movss	 xmm0, DWORD PTR __real@42340000
  003ab	f3 0f 11 04 24	 movss	 DWORD PTR [esp], xmm0
  003b0	51		 push	 ecx
  003b1	f3 0f 10 05 00
	00 00 00	 movss	 xmm0, DWORD PTR __real@3f800000
  003b9	f3 0f 11 04 24	 movss	 DWORD PTR [esp], xmm0
  003be	51		 push	 ecx
  003bf	0f 57 c0	 xorps	 xmm0, xmm0
  003c2	f3 0f 11 04 24	 movss	 DWORD PTR [esp], xmm0
  003c7	6a 00		 push	 0
  003c9	6a 1e		 push	 30			; 0000001eH
  003cb	8b 4d fc	 mov	 ecx, DWORD PTR _victim_side$[ebp]
  003ce	51		 push	 ecx
  003cf	8b 55 08	 mov	 edx, DWORD PTR _victim$[ebp]
  003d2	52		 push	 edx
  003d3	a1 00 00 00 00	 mov	 eax, DWORD PTR ?session_entity@@3PAUENTITY@@A ; session_entity
  003d8	50		 push	 eax
  003d9	e8 00 00 00 00	 call	 ?play_client_server_speech@@YAHPAUENTITY@@0W4ENTITY_SIDES@@HW4SOUND_LOCALITY_TYPES@@MMMW4speech_originator_types@@W4speech_category_types@@MZZ ; play_client_server_speech
  003de	83 c4 70	 add	 esp, 112		; 00000070H

; 183  : 		(
; 184  : 			get_session_entity (),
; 185  : 			victim,
; 186  : 			victim_side,
; 187  : 			ENTITY_SUB_TYPE_EFFECT_SOUND_RADIO_MESSAGE,
; 188  : 			SOUND_LOCALITY_RADIO,
; 189  : 			0.0,
; 190  : 			1.0,
; 191  : 			45.0,
; 192  : 			SPEECH_ORIGINATOR_GROUND_CONTROLLER,
; 193  : 			SPEECH_CATEGORY_UNDER_ATTACK,
; 194  : 			300.0,
; 195  : 			SPEECH_ARRAY_GC_MESSAGES, SPEECH_GC_INTRODUCTION,
; 196  : 			SPEECH_ARRAY_GC_MESSAGES, speech_index,
; 197  : 			SPEECH_ARRAY_NUMBERS, speech_sector_coordinates [0],
; 198  : 			SPEECH_ARRAY_NUMBERS, speech_sector_coordinates [1],
; 199  : 			SPEECH_ARRAY_NUMBERS, speech_sector_coordinates [2],
; 200  : 			SPEECH_ARRAY_NUMBERS, speech_sector_coordinates [3],
; 201  : 			SPEECH_ARRAY_NUMBERS, speech_sector_coordinates [4],
; 202  : 			SPEECH_ARRAY_NUMBERS, speech_sector_coordinates [5],
; 203  : 			-1
; 204  : 		);
; 205  : 
; 206  : 		////////////////////////////////////
; 207  : 		//
; 208  : 		// Aggressors speech
; 209  : 		//
; 210  : 		////////////////////////////////////
; 211  : 
; 212  : 		if (get_local_entity_int_value (aggressor, INT_TYPE_IDENTIFY_AIRCRAFT))

  003e1	83 7d 0c 00	 cmp	 DWORD PTR _aggressor$[ebp], 0
  003e5	74 0a		 je	 SHORT $LN30@play_vehic
  003e7	8b 45 0c	 mov	 eax, DWORD PTR _aggressor$[ebp]
  003ea	8b 08		 mov	 ecx, DWORD PTR [eax]
  003ec	89 4d a8	 mov	 DWORD PTR tv260[ebp], ecx
  003ef	eb 1d		 jmp	 SHORT $LN31@play_vehic
$LN30@play_vehic:
  003f1	68 d4 00 00 00	 push	 212			; 000000d4H
  003f6	68 00 00 00 00	 push	 OFFSET ??_C@_0EM@EOJDHMFO@c?3?2users?2nhv90?2projects?2eech?2ap@
  003fb	8b 15 00 00 00
	00		 mov	 edx, DWORD PTR ?null_entity_pointer_message@@3PBDB ; null_entity_pointer_message
  00401	52		 push	 edx
  00402	e8 00 00 00 00	 call	 ?process_assert@@YGXPBD0H@Z ; process_assert
  00407	c7 45 a8 00 00
	00 00		 mov	 DWORD PTR tv260[ebp], 0
$LN31@play_vehic:
  0040e	b8 01 00 00 00	 mov	 eax, 1
  00413	85 c0		 test	 eax, eax
  00415	74 09		 je	 SHORT $LN32@play_vehic
  00417	c7 45 a4 57 00
	00 00		 mov	 DWORD PTR tv267[ebp], 87 ; 00000057H
  0041e	eb 1d		 jmp	 SHORT $LN33@play_vehic
$LN32@play_vehic:
  00420	68 d4 00 00 00	 push	 212			; 000000d4H
  00425	68 00 00 00 00	 push	 OFFSET ??_C@_0EM@EOJDHMFO@c?3?2users?2nhv90?2projects?2eech?2ap@
  0042a	8b 0d 00 00 00
	00		 mov	 ecx, DWORD PTR ?overload_invalid_int_type_message@@3PBDB ; overload_invalid_int_type_message
  00430	51		 push	 ecx
  00431	e8 00 00 00 00	 call	 ?process_assert@@YGXPBD0H@Z ; process_assert
  00436	c7 45 a4 00 00
	00 00		 mov	 DWORD PTR tv267[ebp], 0
$LN33@play_vehic:
  0043d	6a 57		 push	 87			; 00000057H
  0043f	8b 55 0c	 mov	 edx, DWORD PTR _aggressor$[ebp]
  00442	52		 push	 edx
  00443	69 45 a8 5c 04
	00 00		 imul	 eax, DWORD PTR tv260[ebp], 1116
  0044a	8b 4d a4	 mov	 ecx, DWORD PTR tv267[ebp]
  0044d	8b 94 88 00 00
	00 00		 mov	 edx, DWORD PTR ?fn_get_local_entity_int_value@@3PAY0BBH@P6GHPAUENTITY@@W4INT_TYPES@@@ZA[eax+ecx*4]
  00454	ff d2		 call	 edx
  00456	85 c0		 test	 eax, eax
  00458	0f 84 f0 00 00
	00		 je	 $LN12@play_vehic

; 213  : 		{
; 214  : 			if (get_local_entity_int_value (aggressor, INT_TYPE_PLAYER) != ENTITY_PLAYER_AI)

  0045e	83 7d 0c 00	 cmp	 DWORD PTR _aggressor$[ebp], 0
  00462	74 0a		 je	 SHORT $LN34@play_vehic
  00464	8b 45 0c	 mov	 eax, DWORD PTR _aggressor$[ebp]
  00467	8b 08		 mov	 ecx, DWORD PTR [eax]
  00469	89 4d a8	 mov	 DWORD PTR tv279[ebp], ecx
  0046c	eb 1d		 jmp	 SHORT $LN35@play_vehic
$LN34@play_vehic:
  0046e	68 d6 00 00 00	 push	 214			; 000000d6H
  00473	68 00 00 00 00	 push	 OFFSET ??_C@_0EM@EOJDHMFO@c?3?2users?2nhv90?2projects?2eech?2ap@
  00478	8b 15 00 00 00
	00		 mov	 edx, DWORD PTR ?null_entity_pointer_message@@3PBDB ; null_entity_pointer_message
  0047e	52		 push	 edx
  0047f	e8 00 00 00 00	 call	 ?process_assert@@YGXPBD0H@Z ; process_assert
  00484	c7 45 a8 00 00
	00 00		 mov	 DWORD PTR tv279[ebp], 0
$LN35@play_vehic:
  0048b	b8 01 00 00 00	 mov	 eax, 1
  00490	85 c0		 test	 eax, eax
  00492	74 09		 je	 SHORT $LN36@play_vehic
  00494	c7 45 a4 9c 00
	00 00		 mov	 DWORD PTR tv286[ebp], 156 ; 0000009cH
  0049b	eb 1d		 jmp	 SHORT $LN37@play_vehic
$LN36@play_vehic:
  0049d	68 d6 00 00 00	 push	 214			; 000000d6H
  004a2	68 00 00 00 00	 push	 OFFSET ??_C@_0EM@EOJDHMFO@c?3?2users?2nhv90?2projects?2eech?2ap@
  004a7	8b 0d 00 00 00
	00		 mov	 ecx, DWORD PTR ?overload_invalid_int_type_message@@3PBDB ; overload_invalid_int_type_message
  004ad	51		 push	 ecx
  004ae	e8 00 00 00 00	 call	 ?process_assert@@YGXPBD0H@Z ; process_assert
  004b3	c7 45 a4 00 00
	00 00		 mov	 DWORD PTR tv286[ebp], 0
$LN37@play_vehic:
  004ba	68 9c 00 00 00	 push	 156			; 0000009cH
  004bf	8b 55 0c	 mov	 edx, DWORD PTR _aggressor$[ebp]
  004c2	52		 push	 edx
  004c3	69 45 a8 5c 04
	00 00		 imul	 eax, DWORD PTR tv279[ebp], 1116
  004ca	8b 4d a4	 mov	 ecx, DWORD PTR tv286[ebp]
  004cd	8b 94 88 00 00
	00 00		 mov	 edx, DWORD PTR ?fn_get_local_entity_int_value@@3PAY0BBH@P6GHPAUENTITY@@W4INT_TYPES@@@ZA[eax+ecx*4]
  004d4	ff d2		 call	 edx
  004d6	85 c0		 test	 eax, eax
  004d8	74 39		 je	 SHORT $LN11@play_vehic

; 215  : 			{
; 216  : 				//
; 217  : 				// PLAY_SPEECH (CPG)
; 218  : 				//
; 219  : 
; 220  : 				play_client_server_cpg_message

  004da	6a 6b		 push	 107			; 0000006bH
  004dc	51		 push	 ecx
  004dd	f3 0f 10 05 00
	00 00 00	 movss	 xmm0, DWORD PTR __real@41400000
  004e5	f3 0f 11 04 24	 movss	 DWORD PTR [esp], xmm0
  004ea	6a 02		 push	 2
  004ec	51		 push	 ecx
  004ed	f3 0f 10 05 00
	00 00 00	 movss	 xmm0, DWORD PTR __real@40400000
  004f5	f3 0f 11 04 24	 movss	 DWORD PTR [esp], xmm0
  004fa	51		 push	 ecx
  004fb	f3 0f 10 05 00
	00 00 00	 movss	 xmm0, DWORD PTR __real@3ecccccd
  00503	f3 0f 11 04 24	 movss	 DWORD PTR [esp], xmm0
  00508	8b 45 0c	 mov	 eax, DWORD PTR _aggressor$[ebp]
  0050b	50		 push	 eax
  0050c	e8 00 00 00 00	 call	 ?play_client_server_cpg_message@@YGHPAUENTITY@@MMHMH@Z ; play_client_server_cpg_message

; 221  : 				(
; 222  : 					aggressor,
; 223  : 					0.4,
; 224  : 					3.0,
; 225  : 					SPEECH_CATEGORY_ATTACKING_TARGETS,
; 226  : 					12.0,
; 227  : 					SPEECH_CPG_TARGET_HIT
; 228  : 				);
; 229  : 			}
; 230  : 			else

  00511	eb 3b		 jmp	 SHORT $LN12@play_vehic
$LN11@play_vehic:

; 231  : 			{
; 232  : 				//
; 233  : 				// PLAY_SPEECH (WINGMAN)
; 234  : 				//
; 235  : 
; 236  : 				play_client_server_wingman_message

  00513	6a 11		 push	 17			; 00000011H
  00515	6a 07		 push	 7
  00517	6a 01		 push	 1
  00519	51		 push	 ecx
  0051a	f3 0f 10 05 00
	00 00 00	 movss	 xmm0, DWORD PTR __real@41400000
  00522	f3 0f 11 04 24	 movss	 DWORD PTR [esp], xmm0
  00527	6a 02		 push	 2
  00529	51		 push	 ecx
  0052a	f3 0f 10 05 00
	00 00 00	 movss	 xmm0, DWORD PTR __real@40400000
  00532	f3 0f 11 04 24	 movss	 DWORD PTR [esp], xmm0
  00537	51		 push	 ecx
  00538	f3 0f 10 05 00
	00 00 00	 movss	 xmm0, DWORD PTR __real@3ecccccd
  00540	f3 0f 11 04 24	 movss	 DWORD PTR [esp], xmm0
  00545	8b 45 0c	 mov	 eax, DWORD PTR _aggressor$[ebp]
  00548	50		 push	 eax
  00549	e8 00 00 00 00	 call	 ?play_client_server_wingman_message@@YGHPAUENTITY@@MMW4speech_category_types@@MW4speech_intro_types@@W4speech_array_types@@H@Z ; play_client_server_wingman_message
$LN12@play_vehic:

; 237  : 				(
; 238  : 					aggressor,
; 239  : 					0.4,
; 240  : 					3.0,
; 241  : 					SPEECH_CATEGORY_ATTACKING_TARGETS, 12.0,
; 242  : 					SPEECH_INTRODUCTION_SOMETIMES,
; 243  : 					SPEECH_ARRAY_WINGMAN_MESSAGES, SPEECH_WINGMAN_TARGET_HIT
; 244  : 				);
; 245  : 			}
; 246  : 		}
; 247  : 	}
; 248  : }

  0054e	5f		 pop	 edi
  0054f	5e		 pop	 esi
  00550	5b		 pop	 ebx
  00551	8b e5		 mov	 esp, ebp
  00553	5d		 pop	 ebp
  00554	c2 08 00	 ret	 8
?play_vehicle_shot_at_speech@@YGXPAUENTITY@@0@Z ENDP	; play_vehicle_shot_at_speech
_TEXT	ENDS
END
