; Listing generated by Microsoft (R) Optimizing Compiler Version 19.16.27045.0 

	TITLE	C:\Users\nhv90\Projects\eech\aphavoc\source\entity\mobile\vehicle\vh_float.c
	.686P
	.XMM
	include listing.inc
	.model	flat

INCLUDELIB MSVCRTD
INCLUDELIB OLDNAMES

PUBLIC	?overload_vehicle_float_value_functions@@YGXW4ENTITY_TYPES@@@Z ; overload_vehicle_float_value_functions
PUBLIC	?__LINE__Var@?0??set_local_float_value@@YGXPAUENTITY@@W4FLOAT_TYPES@@M@Z@4JA ; `set_local_float_value'::`1'::__LINE__Var
PUBLIC	??_C@_0EN@PNGNLGDO@c?3?2users?2nhv90?2projects?2eech?2ap@ ; `string'
PUBLIC	?__LINE__Var@?0??set_server_float_value@@YGXPAUENTITY@@W4FLOAT_TYPES@@M@Z@4JA ; `set_server_float_value'::`1'::__LINE__Var
PUBLIC	??_C@_0CB@CFOCLFOK@assert_client_server_local_fn?5?$CI@ ; `string'
PUBLIC	??_C@_0CC@BNNNEGEG@assert_client_server_remote_fn?5@ ; `string'
PUBLIC	?__LINE__Var@?0??set_client_float_value@@YGXPAUENTITY@@W4FLOAT_TYPES@@M@Z@4JA ; `set_client_float_value'::`1'::__LINE__Var
PUBLIC	?__LINE__Var@?0??get_local_float_value@@YGMPAUENTITY@@W4FLOAT_TYPES@@@Z@4JA ; `get_local_float_value'::`1'::__LINE__Var
EXTRN	?process_assert@@YGXPBD0H@Z:PROC		; process_assert
EXTRN	?debug_fatal@@YAXPBDZZ:PROC			; debug_fatal
EXTRN	?get_3d_terrain_point_data_elevation@@YGMPAUTERRAIN_3D_POINT_DATA@@@Z:PROC ; get_3d_terrain_point_data_elevation
EXTRN	?transmit_entity_comms_message@@YAXW4ENTITY_COMMS_MESSAGES@@PAUENTITY@@ZZ:PROC ; transmit_entity_comms_message
EXTRN	?assert_client_server_local_fn@@YGHXZ:PROC	; assert_client_server_local_fn
EXTRN	?assert_client_server_remote_fn@@YGHXZ:PROC	; assert_client_server_remote_fn
EXTRN	?object_3d_information_database@@3PAUOBJECT_3D_INFORMATION@@A:DWORD ; object_3d_information_database
EXTRN	?null_entity_pointer_message@@3PBDB:DWORD	; null_entity_pointer_message
EXTRN	?entity_type_database@@3PAUENTITY_TYPE_DATA@@A:BYTE ; entity_type_database
EXTRN	?system_comms_data_flow@@3W4COMMS_DATA_FLOW_TYPES@@A:DWORD ; system_comms_data_flow
EXTRN	?float_type_database@@3PAUFLOAT_TYPE_DATA@@A:BYTE ; float_type_database
EXTRN	?debug_fatal_invalid_float_type_message@@3PBDB:DWORD ; debug_fatal_invalid_float_type_message
EXTRN	?fn_set_local_entity_raw_float_value@@3PAY0KP@P6GXPAUENTITY@@W4FLOAT_TYPES@@M@ZA:BYTE ; fn_set_local_entity_raw_float_value
EXTRN	?fn_set_local_entity_float_value@@3PAY0KP@P6GXPAUENTITY@@W4FLOAT_TYPES@@M@ZA:BYTE ; fn_set_local_entity_float_value
EXTRN	?fn_set_client_server_entity_float_value@@3PAY1KP@1P6GXPAUENTITY@@W4FLOAT_TYPES@@M@ZA:BYTE ; fn_set_client_server_entity_float_value
EXTRN	?fn_get_local_entity_float_value@@3PAY0KP@P6GMPAUENTITY@@W4FLOAT_TYPES@@@ZA:BYTE ; fn_get_local_entity_float_value
EXTRN	?entities@@3PAUENTITY@@A:DWORD			; entities
EXTRN	?vehicle_database@@3PAUVEHICLE_DATA@@A:BYTE	; vehicle_database
EXTRN	__fltused:DWORD
;	COMDAT ?__LINE__Var@?0??get_local_float_value@@YGMPAUENTITY@@W4FLOAT_TYPES@@@Z@4JA
_DATA	SEGMENT
?__LINE__Var@?0??get_local_float_value@@YGMPAUENTITY@@W4FLOAT_TYPES@@@Z@4JA DD 010aH ; `get_local_float_value'::`1'::__LINE__Var
_DATA	ENDS
;	COMDAT ?__LINE__Var@?0??set_client_float_value@@YGXPAUENTITY@@W4FLOAT_TYPES@@M@Z@4JA
_DATA	SEGMENT
?__LINE__Var@?0??set_client_float_value@@YGXPAUENTITY@@W4FLOAT_TYPES@@M@Z@4JA DD 0f2H ; `set_client_float_value'::`1'::__LINE__Var
_DATA	ENDS
;	COMDAT ??_C@_0CC@BNNNEGEG@assert_client_server_remote_fn?5@
CONST	SEGMENT
??_C@_0CC@BNNNEGEG@assert_client_server_remote_fn?5@ DB 'assert_client_se'
	DB	'rver_remote_fn ()', 00H			; `string'
CONST	ENDS
;	COMDAT ??_C@_0CB@CFOCLFOK@assert_client_server_local_fn?5?$CI@
CONST	SEGMENT
??_C@_0CB@CFOCLFOK@assert_client_server_local_fn?5?$CI@ DB 'assert_client'
	DB	'_server_local_fn ()', 00H			; `string'
CONST	ENDS
;	COMDAT ?__LINE__Var@?0??set_server_float_value@@YGXPAUENTITY@@W4FLOAT_TYPES@@M@Z@4JA
_DATA	SEGMENT
?__LINE__Var@?0??set_server_float_value@@YGXPAUENTITY@@W4FLOAT_TYPES@@M@Z@4JA DD 0dfH ; `set_server_float_value'::`1'::__LINE__Var
_DATA	ENDS
;	COMDAT ??_C@_0EN@PNGNLGDO@c?3?2users?2nhv90?2projects?2eech?2ap@
CONST	SEGMENT
??_C@_0EN@PNGNLGDO@c?3?2users?2nhv90?2projects?2eech?2ap@ DB 'c:\users\nh'
	DB	'v90\projects\eech\aphavoc\source\entity\mobile\vehicle\vh_flo'
	DB	'at.c', 00H					; `string'
CONST	ENDS
;	COMDAT ?__LINE__Var@?0??set_local_float_value@@YGXPAUENTITY@@W4FLOAT_TYPES@@M@Z@4JA
_DATA	SEGMENT
?__LINE__Var@?0??set_local_float_value@@YGXPAUENTITY@@W4FLOAT_TYPES@@M@Z@4JA DD 05aH ; `set_local_float_value'::`1'::__LINE__Var
_DATA	ENDS
; Function compile flags: /Odtp /ZI
; File c:\users\nhv90\projects\eech\aphavoc\source\entity\mobile\vehicle\vh_float.c
;	COMDAT ?get_local_float_value@@YGMPAUENTITY@@W4FLOAT_TYPES@@@Z
_TEXT	SEGMENT
tv246 = -76						; size = 4
tv65 = -76						; size = 4
_value$ = -8						; size = 4
_raw$ = -4						; size = 4
_en$ = 8						; size = 4
_type$ = 12						; size = 4
?get_local_float_value@@YGMPAUENTITY@@W4FLOAT_TYPES@@@Z PROC ; get_local_float_value, COMDAT

; 266  : {

  00000	55		 push	 ebp
  00001	8b ec		 mov	 ebp, esp
  00003	83 ec 4c	 sub	 esp, 76			; 0000004cH
  00006	53		 push	 ebx
  00007	56		 push	 esi
  00008	57		 push	 edi

; 267  : 	vehicle
; 268  : 		*raw;
; 269  : 
; 270  : 	float
; 271  : 		value;
; 272  : 
; 273  : 	raw = (vehicle *) get_local_entity_data (en);

  00009	8b 45 08	 mov	 eax, DWORD PTR _en$[ebp]
  0000c	8b 48 04	 mov	 ecx, DWORD PTR [eax+4]
  0000f	89 4d fc	 mov	 DWORD PTR _raw$[ebp], ecx

; 274  : 
; 275  : 	switch (type)

  00012	8b 45 0c	 mov	 eax, DWORD PTR _type$[ebp]
  00015	89 45 b4	 mov	 DWORD PTR tv65[ebp], eax
  00018	8b 4d b4	 mov	 ecx, DWORD PTR tv65[ebp]
  0001b	83 e9 03	 sub	 ecx, 3
  0001e	89 4d b4	 mov	 DWORD PTR tv65[ebp], ecx
  00021	81 7d b4 97 00
	00 00		 cmp	 DWORD PTR tv65[ebp], 151 ; 00000097H
  00028	0f 87 82 03 00
	00		 ja	 $LN39@get_local_
  0002e	8b 55 b4	 mov	 edx, DWORD PTR tv65[ebp]
  00031	0f b6 82 00 00
	00 00		 movzx	 eax, BYTE PTR $LN43@get_local_[edx]
  00038	ff 24 85 00 00
	00 00		 jmp	 DWORD PTR $LN44@get_local_[eax*4]
$LN4@get_local_:

; 276  : 	{
; 277  : 		////////////////////////////////////////
; 278  : 		case FLOAT_TYPE_AIR_SCAN_CEILING:
; 279  : 		////////////////////////////////////////
; 280  : 		{
; 281  : 			value = vehicle_database[raw->mob.sub_type].air_scan_ceiling;

  0003f	8b 45 fc	 mov	 eax, DWORD PTR _raw$[ebp]
  00042	69 08 bc 00 00
	00		 imul	 ecx, DWORD PTR [eax], 188
  00048	f3 0f 10 81 80
	00 00 00	 movss	 xmm0, DWORD PTR ?vehicle_database@@3PAUVEHICLE_DATA@@A[ecx+128]
  00050	f3 0f 11 45 f8	 movss	 DWORD PTR _value$[ebp], xmm0

; 282  : 
; 283  : 			break;

  00055	e9 ce 03 00 00	 jmp	 $LN2@get_local_
$LN5@get_local_:

; 284  : 		}
; 285  : 		////////////////////////////////////////
; 286  : 		case FLOAT_TYPE_AIR_SCAN_FLOOR:
; 287  : 		////////////////////////////////////////
; 288  : 		{
; 289  : 			value = vehicle_database[raw->mob.sub_type].air_scan_floor;

  0005a	8b 45 fc	 mov	 eax, DWORD PTR _raw$[ebp]
  0005d	69 08 bc 00 00
	00		 imul	 ecx, DWORD PTR [eax], 188
  00063	f3 0f 10 81 7c
	00 00 00	 movss	 xmm0, DWORD PTR ?vehicle_database@@3PAUVEHICLE_DATA@@A[ecx+124]
  0006b	f3 0f 11 45 f8	 movss	 DWORD PTR _value$[ebp], xmm0

; 290  : 
; 291  : 			break;

  00070	e9 b3 03 00 00	 jmp	 $LN2@get_local_
$LN6@get_local_:

; 292  : 		}
; 293  : 		////////////////////////////////////////
; 294  : 		case FLOAT_TYPE_AIR_SCAN_RANGE:
; 295  : 		////////////////////////////////////////
; 296  : 		{
; 297  : 			value = vehicle_database[raw->mob.sub_type].air_scan_range;

  00075	8b 45 fc	 mov	 eax, DWORD PTR _raw$[ebp]
  00078	69 08 bc 00 00
	00		 imul	 ecx, DWORD PTR [eax], 188
  0007e	f3 0f 10 81 84
	00 00 00	 movss	 xmm0, DWORD PTR ?vehicle_database@@3PAUVEHICLE_DATA@@A[ecx+132]
  00086	f3 0f 11 45 f8	 movss	 DWORD PTR _value$[ebp], xmm0

; 298  : 
; 299  : 			break;

  0008b	e9 98 03 00 00	 jmp	 $LN2@get_local_
$LN7@get_local_:

; 300  : 		}
; 301  : 		////////////////////////////////////////
; 302  : 		case FLOAT_TYPE_AMMO_ECONOMY:
; 303  : 		////////////////////////////////////////
; 304  : 		{
; 305  : 			value = vehicle_database[raw->mob.sub_type].ammo_economy;

  00090	8b 45 fc	 mov	 eax, DWORD PTR _raw$[ebp]
  00093	69 08 bc 00 00
	00		 imul	 ecx, DWORD PTR [eax], 188
  00099	f3 0f 10 81 94
	00 00 00	 movss	 xmm0, DWORD PTR ?vehicle_database@@3PAUVEHICLE_DATA@@A[ecx+148]
  000a1	f3 0f 11 45 f8	 movss	 DWORD PTR _value$[ebp], xmm0

; 306  : 
; 307  : 			break;

  000a6	e9 7d 03 00 00	 jmp	 $LN2@get_local_
$LN8@get_local_:

; 308  : 		}
; 309  : 		////////////////////////////////////////
; 310  : 		case FLOAT_TYPE_AXLE_LENGTH:
; 311  : 		////////////////////////////////////////
; 312  : 		{
; 313  : 			value = vehicle_database[raw->mob.sub_type].axle_length;

  000ab	8b 45 fc	 mov	 eax, DWORD PTR _raw$[ebp]
  000ae	69 08 bc 00 00
	00		 imul	 ecx, DWORD PTR [eax], 188
  000b4	f3 0f 10 81 60
	00 00 00	 movss	 xmm0, DWORD PTR ?vehicle_database@@3PAUVEHICLE_DATA@@A[ecx+96]
  000bc	f3 0f 11 45 f8	 movss	 DWORD PTR _value$[ebp], xmm0

; 314  : 
; 315  : 			break;

  000c1	e9 62 03 00 00	 jmp	 $LN2@get_local_
$LN9@get_local_:

; 316  : 		}
; 317  : 		////////////////////////////////////////
; 318  : 		case FLOAT_TYPE_CHASE_VIEW_MAX_DISTANCE:
; 319  : 		////////////////////////////////////////
; 320  : 		{
; 321  : 			value = vehicle_database[raw->mob.sub_type].chase_view_max_distance;

  000c6	8b 45 fc	 mov	 eax, DWORD PTR _raw$[ebp]
  000c9	69 08 bc 00 00
	00		 imul	 ecx, DWORD PTR [eax], 188
  000cf	f3 0f 10 81 50
	00 00 00	 movss	 xmm0, DWORD PTR ?vehicle_database@@3PAUVEHICLE_DATA@@A[ecx+80]
  000d7	f3 0f 11 45 f8	 movss	 DWORD PTR _value$[ebp], xmm0

; 322  : 
; 323  : 			break;

  000dc	e9 47 03 00 00	 jmp	 $LN2@get_local_
$LN10@get_local_:

; 324  : 		}
; 325  : 		////////////////////////////////////////
; 326  : 		case FLOAT_TYPE_CHASE_VIEW_MAX_DISTANCE_TEST:
; 327  : 		////////////////////////////////////////
; 328  : 		{
; 329  : 			value = vehicle_database[raw->mob.sub_type].chase_view_max_distance_test;

  000e1	8b 45 fc	 mov	 eax, DWORD PTR _raw$[ebp]
  000e4	69 08 bc 00 00
	00		 imul	 ecx, DWORD PTR [eax], 188
  000ea	f3 0f 10 81 58
	00 00 00	 movss	 xmm0, DWORD PTR ?vehicle_database@@3PAUVEHICLE_DATA@@A[ecx+88]
  000f2	f3 0f 11 45 f8	 movss	 DWORD PTR _value$[ebp], xmm0

; 330  : 
; 331  : 			break;

  000f7	e9 2c 03 00 00	 jmp	 $LN2@get_local_
$LN11@get_local_:

; 332  : 		}
; 333  : 		////////////////////////////////////////
; 334  : 		case FLOAT_TYPE_CHASE_VIEW_MIN_DISTANCE:
; 335  : 		////////////////////////////////////////
; 336  : 		{
; 337  : 			value = vehicle_database[raw->mob.sub_type].chase_view_min_distance;

  000fc	8b 45 fc	 mov	 eax, DWORD PTR _raw$[ebp]
  000ff	69 08 bc 00 00
	00		 imul	 ecx, DWORD PTR [eax], 188
  00105	f3 0f 10 81 4c
	00 00 00	 movss	 xmm0, DWORD PTR ?vehicle_database@@3PAUVEHICLE_DATA@@A[ecx+76]
  0010d	f3 0f 11 45 f8	 movss	 DWORD PTR _value$[ebp], xmm0

; 338  : 
; 339  : 			break;

  00112	e9 11 03 00 00	 jmp	 $LN2@get_local_
$LN12@get_local_:

; 340  : 		}
; 341  : 		////////////////////////////////////////
; 342  : 		case FLOAT_TYPE_CHASE_VIEW_MIN_DISTANCE_TEST:
; 343  : 		////////////////////////////////////////
; 344  : 		{
; 345  : 			value = vehicle_database[raw->mob.sub_type].chase_view_min_distance_test;

  00117	8b 45 fc	 mov	 eax, DWORD PTR _raw$[ebp]
  0011a	69 08 bc 00 00
	00		 imul	 ecx, DWORD PTR [eax], 188
  00120	f3 0f 10 81 54
	00 00 00	 movss	 xmm0, DWORD PTR ?vehicle_database@@3PAUVEHICLE_DATA@@A[ecx+84]
  00128	f3 0f 11 45 f8	 movss	 DWORD PTR _value$[ebp], xmm0

; 346  : 
; 347  : 			break;

  0012d	e9 f6 02 00 00	 jmp	 $LN2@get_local_
$LN13@get_local_:

; 348  : 		}
; 349  : 		////////////////////////////////////////
; 350  : 		case FLOAT_TYPE_CRUISE_VELOCITY:
; 351  : 		////////////////////////////////////////
; 352  : 		{
; 353  : 			value = vehicle_database[raw->mob.sub_type].cruise_velocity;

  00132	8b 45 fc	 mov	 eax, DWORD PTR _raw$[ebp]
  00135	69 08 bc 00 00
	00		 imul	 ecx, DWORD PTR [eax], 188
  0013b	f3 0f 10 81 5c
	00 00 00	 movss	 xmm0, DWORD PTR ?vehicle_database@@3PAUVEHICLE_DATA@@A[ecx+92]
  00143	f3 0f 11 45 f8	 movss	 DWORD PTR _value$[ebp], xmm0

; 354  : 
; 355  : 			break;

  00148	e9 db 02 00 00	 jmp	 $LN2@get_local_
$LN14@get_local_:

; 356  : 		}
; 357  : 		////////////////////////////////////////
; 358  : 		case FLOAT_TYPE_DEATH_TIMER:
; 359  : 		////////////////////////////////////////
; 360  : 		{
; 361  : 			value = raw->death_timer;

  0014d	8b 45 fc	 mov	 eax, DWORD PTR _raw$[ebp]
  00150	f3 0f 10 80 10
	01 00 00	 movss	 xmm0, DWORD PTR [eax+272]
  00158	f3 0f 11 45 f8	 movss	 DWORD PTR _value$[ebp], xmm0

; 362  : 
; 363  : 			break;

  0015d	e9 c6 02 00 00	 jmp	 $LN2@get_local_
$LN15@get_local_:

; 364  : 		}
; 365  : 		////////////////////////////////////////
; 366  : 		case FLOAT_TYPE_DISTANCE:
; 367  : 		////////////////////////////////////////
; 368  : 		{
; 369  : 			value = raw->distance;

  00162	8b 45 fc	 mov	 eax, DWORD PTR _raw$[ebp]
  00165	f3 0f 10 80 ec
	00 00 00	 movss	 xmm0, DWORD PTR [eax+236]
  0016d	f3 0f 11 45 f8	 movss	 DWORD PTR _value$[ebp], xmm0

; 370  : 
; 371  : 			break;

  00172	e9 b1 02 00 00	 jmp	 $LN2@get_local_
$LN16@get_local_:

; 372  : 		}
; 373  : 		////////////////////////////////////////
; 374  : 		case FLOAT_TYPE_FUEL_ECONOMY:
; 375  : 		////////////////////////////////////////
; 376  : 		{
; 377  : 			value = vehicle_database[raw->mob.sub_type].fuel_economy;

  00177	8b 45 fc	 mov	 eax, DWORD PTR _raw$[ebp]
  0017a	69 08 bc 00 00
	00		 imul	 ecx, DWORD PTR [eax], 188
  00180	f3 0f 10 81 98
	00 00 00	 movss	 xmm0, DWORD PTR ?vehicle_database@@3PAUVEHICLE_DATA@@A[ecx+152]
  00188	f3 0f 11 45 f8	 movss	 DWORD PTR _value$[ebp], xmm0

; 378  : 
; 379  : 			break;

  0018d	e9 96 02 00 00	 jmp	 $LN2@get_local_
$LN17@get_local_:

; 380  : 		}
; 381  : 		////////////////////////////////////////
; 382  : 		case FLOAT_TYPE_LOADING_DOOR_STATE:
; 383  : 		////////////////////////////////////////
; 384  : 		{
; 385  : 			value = raw->loading_door_state;

  00192	8b 45 fc	 mov	 eax, DWORD PTR _raw$[ebp]
  00195	f3 0f 10 80 f0
	00 00 00	 movss	 xmm0, DWORD PTR [eax+240]
  0019d	f3 0f 11 45 f8	 movss	 DWORD PTR _value$[ebp], xmm0

; 386  : 
; 387  : 			break;

  001a2	e9 81 02 00 00	 jmp	 $LN2@get_local_
$LN18@get_local_:

; 388  : 		}
; 389  : 		////////////////////////////////////////
; 390  : 		case FLOAT_TYPE_MAX_3D_OBJECT_VISUAL_RANGE:
; 391  : 		////////////////////////////////////////
; 392  : 		{
; 393  : 			value = object_3d_information_database[raw->object_3d_shape].maximum_distance;

  001a7	8b 45 fc	 mov	 eax, DWORD PTR _raw$[ebp]
  001aa	8b 88 80 00 00
	00		 mov	 ecx, DWORD PTR [eax+128]
  001b0	8b 15 00 00 00
	00		 mov	 edx, DWORD PTR ?object_3d_information_database@@3PAUOBJECT_3D_INFORMATION@@A ; object_3d_information_database
  001b6	f3 0f 10 44 ca
	04		 movss	 xmm0, DWORD PTR [edx+ecx*8+4]
  001bc	f3 0f 11 45 f8	 movss	 DWORD PTR _value$[ebp], xmm0

; 394  : 
; 395  : 			break;

  001c1	e9 62 02 00 00	 jmp	 $LN2@get_local_
$LN19@get_local_:

; 396  : 		}
; 397  : 		////////////////////////////////////////
; 398  : 		case FLOAT_TYPE_MAX_ACCELERATION:
; 399  : 		////////////////////////////////////////
; 400  : 		{
; 401  : 			value = vehicle_database[raw->mob.sub_type].max_acceleration;

  001c6	8b 45 fc	 mov	 eax, DWORD PTR _raw$[ebp]
  001c9	69 08 bc 00 00
	00		 imul	 ecx, DWORD PTR [eax], 188
  001cf	f3 0f 10 81 64
	00 00 00	 movss	 xmm0, DWORD PTR ?vehicle_database@@3PAUVEHICLE_DATA@@A[ecx+100]
  001d7	f3 0f 11 45 f8	 movss	 DWORD PTR _value$[ebp], xmm0

; 402  : 
; 403  : 			break;

  001dc	e9 47 02 00 00	 jmp	 $LN2@get_local_
$LN20@get_local_:

; 404  : 		}
; 405  : 		////////////////////////////////////////
; 406  : 		case FLOAT_TYPE_MAX_TURN_RATE:
; 407  : 		////////////////////////////////////////
; 408  : 		{
; 409  : 			value = vehicle_database[raw->mob.sub_type].max_turn_rate;

  001e1	8b 45 fc	 mov	 eax, DWORD PTR _raw$[ebp]
  001e4	69 08 bc 00 00
	00		 imul	 ecx, DWORD PTR [eax], 188
  001ea	f3 0f 10 81 68
	00 00 00	 movss	 xmm0, DWORD PTR ?vehicle_database@@3PAUVEHICLE_DATA@@A[ecx+104]
  001f2	f3 0f 11 45 f8	 movss	 DWORD PTR _value$[ebp], xmm0

; 410  : 
; 411  : 			break;

  001f7	e9 2c 02 00 00	 jmp	 $LN2@get_local_
$LN21@get_local_:

; 412  : 		}
; 413  : 		////////////////////////////////////////
; 414  : 		case FLOAT_TYPE_POTENTIAL_AIR_THREAT:
; 415  : 		////////////////////////////////////////
; 416  : 		{
; 417  : 			value = vehicle_database[raw->mob.sub_type].potential_surface_to_air_threat;

  001fc	8b 45 fc	 mov	 eax, DWORD PTR _raw$[ebp]
  001ff	69 08 bc 00 00
	00		 imul	 ecx, DWORD PTR [eax], 188
  00205	f3 0f 10 81 8c
	00 00 00	 movss	 xmm0, DWORD PTR ?vehicle_database@@3PAUVEHICLE_DATA@@A[ecx+140]
  0020d	f3 0f 11 45 f8	 movss	 DWORD PTR _value$[ebp], xmm0

; 418  : 
; 419  : 			break;

  00212	e9 11 02 00 00	 jmp	 $LN2@get_local_
$LN22@get_local_:

; 420  : 		}
; 421  : 		////////////////////////////////////////
; 422  : 		case FLOAT_TYPE_POTENTIAL_SURFACE_THREAT:
; 423  : 		////////////////////////////////////////
; 424  : 		{
; 425  : 			value = vehicle_database[raw->mob.sub_type].potential_surface_to_surface_threat;

  00217	8b 45 fc	 mov	 eax, DWORD PTR _raw$[ebp]
  0021a	69 08 bc 00 00
	00		 imul	 ecx, DWORD PTR [eax], 188
  00220	f3 0f 10 81 90
	00 00 00	 movss	 xmm0, DWORD PTR ?vehicle_database@@3PAUVEHICLE_DATA@@A[ecx+144]
  00228	f3 0f 11 45 f8	 movss	 DWORD PTR _value$[ebp], xmm0

; 426  : 
; 427  : 			break;

  0022d	e9 f6 01 00 00	 jmp	 $LN2@get_local_
$LN23@get_local_:

; 428  : 		}
; 429  : 		////////////////////////////////////////
; 430  : 		case FLOAT_TYPE_POTENTIAL_SURFACE_TO_AIR_THREAT:
; 431  : 		////////////////////////////////////////
; 432  : 		{
; 433  : 			value = vehicle_database[raw->mob.sub_type].potential_surface_to_air_threat;

  00232	8b 45 fc	 mov	 eax, DWORD PTR _raw$[ebp]
  00235	69 08 bc 00 00
	00		 imul	 ecx, DWORD PTR [eax], 188
  0023b	f3 0f 10 81 8c
	00 00 00	 movss	 xmm0, DWORD PTR ?vehicle_database@@3PAUVEHICLE_DATA@@A[ecx+140]
  00243	f3 0f 11 45 f8	 movss	 DWORD PTR _value$[ebp], xmm0

; 434  : 
; 435  : 			break;

  00248	e9 db 01 00 00	 jmp	 $LN2@get_local_
$LN24@get_local_:

; 436  : 		}
; 437  : 		////////////////////////////////////////
; 438  : 		case FLOAT_TYPE_POTENTIAL_SURFACE_TO_SURFACE_THREAT:
; 439  : 		////////////////////////////////////////
; 440  : 		{
; 441  : 			value = vehicle_database[raw->mob.sub_type].potential_surface_to_surface_threat;

  0024d	8b 45 fc	 mov	 eax, DWORD PTR _raw$[ebp]
  00250	69 08 bc 00 00
	00		 imul	 ecx, DWORD PTR [eax], 188
  00256	f3 0f 10 81 90
	00 00 00	 movss	 xmm0, DWORD PTR ?vehicle_database@@3PAUVEHICLE_DATA@@A[ecx+144]
  0025e	f3 0f 11 45 f8	 movss	 DWORD PTR _value$[ebp], xmm0

; 442  : 
; 443  : 			break;

  00263	e9 c0 01 00 00	 jmp	 $LN2@get_local_
$LN25@get_local_:

; 444  : 		}
; 445  : 		////////////////////////////////////////
; 446  : 		case FLOAT_TYPE_POWER_OUTPUT:
; 447  : 		////////////////////////////////////////
; 448  : 		{
; 449  : 			value = vehicle_database[raw->mob.sub_type].power_output;

  00268	8b 45 fc	 mov	 eax, DWORD PTR _raw$[ebp]
  0026b	69 08 bc 00 00
	00		 imul	 ecx, DWORD PTR [eax], 188
  00271	f3 0f 10 81 70
	00 00 00	 movss	 xmm0, DWORD PTR ?vehicle_database@@3PAUVEHICLE_DATA@@A[ecx+112]
  00279	f3 0f 11 45 f8	 movss	 DWORD PTR _value$[ebp], xmm0

; 450  : 
; 451  : 			break;

  0027e	e9 a5 01 00 00	 jmp	 $LN2@get_local_
$LN26@get_local_:

; 452  : 		}
; 453  : 		////////////////////////////////////////
; 454  : 		case FLOAT_TYPE_RADAR_ROTATION_STATE:
; 455  : 		////////////////////////////////////////
; 456  : 		{
; 457  : 			value = raw->radar_rotation_state;

  00283	8b 45 fc	 mov	 eax, DWORD PTR _raw$[ebp]
  00286	f3 0f 10 80 f4
	00 00 00	 movss	 xmm0, DWORD PTR [eax+244]
  0028e	f3 0f 11 45 f8	 movss	 DWORD PTR _value$[ebp], xmm0

; 458  : 
; 459  : 			break;

  00293	e9 90 01 00 00	 jmp	 $LN2@get_local_
$LN27@get_local_:

; 460  : 		}
; 461  : 		////////////////////////////////////////
; 462  : 		case FLOAT_TYPE_RECON_RADIUS:
; 463  : 		////////////////////////////////////////
; 464  : 		{
; 465  : 			value = vehicle_database[raw->mob.sub_type].recon_radius;

  00298	8b 45 fc	 mov	 eax, DWORD PTR _raw$[ebp]
  0029b	69 08 bc 00 00
	00		 imul	 ecx, DWORD PTR [eax], 188
  002a1	f3 0f 10 81 74
	00 00 00	 movss	 xmm0, DWORD PTR ?vehicle_database@@3PAUVEHICLE_DATA@@A[ecx+116]
  002a9	f3 0f 11 45 f8	 movss	 DWORD PTR _value$[ebp], xmm0

; 466  : 
; 467  : 			break;

  002ae	e9 75 01 00 00	 jmp	 $LN2@get_local_
$LN28@get_local_:

; 468  : 		}
; 469  : 		////////////////////////////////////////
; 470  : 		case FLOAT_TYPE_SLEEP:
; 471  : 		////////////////////////////////////////
; 472  : 		{
; 473  : 			value = raw->sleep;

  002b3	8b 45 fc	 mov	 eax, DWORD PTR _raw$[ebp]
  002b6	f3 0f 10 80 e8
	00 00 00	 movss	 xmm0, DWORD PTR [eax+232]
  002be	f3 0f 11 45 f8	 movss	 DWORD PTR _value$[ebp], xmm0

; 474  : 
; 475  : 			break;

  002c3	e9 60 01 00 00	 jmp	 $LN2@get_local_
$LN29@get_local_:

; 476  : 		}
; 477  : 		////////////////////////////////////////
; 478  : 		case FLOAT_TYPE_SURFACE_SCAN_RANGE:
; 479  : 		////////////////////////////////////////
; 480  : 		{
; 481  : 			value = vehicle_database[raw->mob.sub_type].surface_scan_range;

  002c8	8b 45 fc	 mov	 eax, DWORD PTR _raw$[ebp]
  002cb	69 08 bc 00 00
	00		 imul	 ecx, DWORD PTR [eax], 188
  002d1	f3 0f 10 81 88
	00 00 00	 movss	 xmm0, DWORD PTR ?vehicle_database@@3PAUVEHICLE_DATA@@A[ecx+136]
  002d9	f3 0f 11 45 f8	 movss	 DWORD PTR _value$[ebp], xmm0

; 482  : 
; 483  : 			break;

  002de	e9 45 01 00 00	 jmp	 $LN2@get_local_
$LN30@get_local_:

; 484  : 		}
; 485  : 		////////////////////////////////////////
; 486  : 		case FLOAT_TYPE_TARGET_FIRE_TIMER:
; 487  : 		////////////////////////////////////////
; 488  : 		{
; 489  : 			value = raw->target_fire_timer;

  002e3	8b 45 fc	 mov	 eax, DWORD PTR _raw$[ebp]
  002e6	f3 0f 10 80 fc
	00 00 00	 movss	 xmm0, DWORD PTR [eax+252]
  002ee	f3 0f 11 45 f8	 movss	 DWORD PTR _value$[ebp], xmm0

; 490  : 
; 491  : 			break;

  002f3	e9 30 01 00 00	 jmp	 $LN2@get_local_
$LN31@get_local_:

; 492  : 		}
; 493  : 		////////////////////////////////////////
; 494  : 		case FLOAT_TYPE_TARGET_PRIORITY_AIR_ATTACK:
; 495  : 		////////////////////////////////////////
; 496  : 		{
; 497  : 			value = vehicle_database[raw->mob.sub_type].potential_surface_to_air_threat;

  002f8	8b 45 fc	 mov	 eax, DWORD PTR _raw$[ebp]
  002fb	69 08 bc 00 00
	00		 imul	 ecx, DWORD PTR [eax], 188
  00301	f3 0f 10 81 8c
	00 00 00	 movss	 xmm0, DWORD PTR ?vehicle_database@@3PAUVEHICLE_DATA@@A[ecx+140]
  00309	f3 0f 11 45 f8	 movss	 DWORD PTR _value$[ebp], xmm0

; 498  : 
; 499  : 			break;

  0030e	e9 15 01 00 00	 jmp	 $LN2@get_local_
$LN32@get_local_:

; 500  : 		}
; 501  : 		////////////////////////////////////////
; 502  : 		case FLOAT_TYPE_TARGET_PRIORITY_GROUND_ATTACK:
; 503  : 		////////////////////////////////////////
; 504  : 		{
; 505  : 			value = vehicle_database[raw->mob.sub_type].potential_surface_to_surface_threat;

  00313	8b 45 fc	 mov	 eax, DWORD PTR _raw$[ebp]
  00316	69 08 bc 00 00
	00		 imul	 ecx, DWORD PTR [eax], 188
  0031c	f3 0f 10 81 90
	00 00 00	 movss	 xmm0, DWORD PTR ?vehicle_database@@3PAUVEHICLE_DATA@@A[ecx+144]
  00324	f3 0f 11 45 f8	 movss	 DWORD PTR _value$[ebp], xmm0

; 506  : 
; 507  : 			break;

  00329	e9 fa 00 00 00	 jmp	 $LN2@get_local_
$LN33@get_local_:

; 508  : 		}
; 509  : 		////////////////////////////////////////
; 510  : 		case FLOAT_TYPE_TARGET_SCAN_DELAY:
; 511  : 		////////////////////////////////////////
; 512  : 		{
; 513  : 			value = vehicle_database[raw->mob.sub_type].target_scan_delay;

  0032e	8b 45 fc	 mov	 eax, DWORD PTR _raw$[ebp]
  00331	69 08 bc 00 00
	00		 imul	 ecx, DWORD PTR [eax], 188
  00337	f3 0f 10 81 78
	00 00 00	 movss	 xmm0, DWORD PTR ?vehicle_database@@3PAUVEHICLE_DATA@@A[ecx+120]
  0033f	f3 0f 11 45 f8	 movss	 DWORD PTR _value$[ebp], xmm0

; 514  : 
; 515  : 			break;

  00344	e9 df 00 00 00	 jmp	 $LN2@get_local_
$LN34@get_local_:

; 516  : 		}
; 517  : 		////////////////////////////////////////
; 518  : 		case FLOAT_TYPE_TARGET_SCAN_TIMER:
; 519  : 		////////////////////////////////////////
; 520  : 		{
; 521  : 			value = raw->target_scan_timer;

  00349	8b 45 fc	 mov	 eax, DWORD PTR _raw$[ebp]
  0034c	f3 0f 10 80 f8
	00 00 00	 movss	 xmm0, DWORD PTR [eax+248]
  00354	f3 0f 11 45 f8	 movss	 DWORD PTR _value$[ebp], xmm0

; 522  : 
; 523  : 			break;

  00359	e9 ca 00 00 00	 jmp	 $LN2@get_local_
$LN35@get_local_:

; 524  : 		}
; 525  : 		////////////////////////////////////////
; 526  : 		case FLOAT_TYPE_TERRAIN_ELEVATION:
; 527  : 		////////////////////////////////////////
; 528  : 		{
; 529  : 			value = get_3d_terrain_point_data_elevation (&raw->terrain_info);

  0035e	8b 45 fc	 mov	 eax, DWORD PTR _raw$[ebp]
  00361	05 4c 01 00 00	 add	 eax, 332		; 0000014cH
  00366	50		 push	 eax
  00367	e8 00 00 00 00	 call	 ?get_3d_terrain_point_data_elevation@@YGMPAUTERRAIN_3D_POINT_DATA@@@Z ; get_3d_terrain_point_data_elevation
  0036c	d9 5d f8	 fstp	 DWORD PTR _value$[ebp]

; 530  : 
; 531  : 			break;

  0036f	e9 b4 00 00 00	 jmp	 $LN2@get_local_
$LN36@get_local_:

; 532  : 		}
; 533  : 		////////////////////////////////////////
; 534  : 		case FLOAT_TYPE_VIEW_INTEREST_LEVEL:
; 535  : 		////////////////////////////////////////
; 536  : 		{
; 537  : 			value = raw->view_interest_level;

  00374	8b 45 fc	 mov	 eax, DWORD PTR _raw$[ebp]
  00377	f3 0f 10 80 00
	01 00 00	 movss	 xmm0, DWORD PTR [eax+256]
  0037f	f3 0f 11 45 f8	 movss	 DWORD PTR _value$[ebp], xmm0

; 538  : 
; 539  : 			break;

  00384	e9 9f 00 00 00	 jmp	 $LN2@get_local_
$LN37@get_local_:

; 540  : 		}
; 541  : 		////////////////////////////////////////
; 542  : 		case FLOAT_TYPE_WEAPON_BURST_TIMER:
; 543  : 		////////////////////////////////////////
; 544  : 		{
; 545  : 			value = raw->weapon_burst_timer;

  00389	8b 45 fc	 mov	 eax, DWORD PTR _raw$[ebp]
  0038c	f3 0f 10 80 04
	01 00 00	 movss	 xmm0, DWORD PTR [eax+260]
  00394	f3 0f 11 45 f8	 movss	 DWORD PTR _value$[ebp], xmm0

; 546  : 
; 547  : 			break;

  00399	e9 8a 00 00 00	 jmp	 $LN2@get_local_
$LN38@get_local_:

; 548  : 		}
; 549  : 		////////////////////////////////////////
; 550  : 		case FLOAT_TYPE_WEAPON_SYSTEM_READY_STATE:
; 551  : 		////////////////////////////////////////
; 552  : 		{
; 553  : 			value = raw->weapon_system_ready_state;

  0039e	8b 45 fc	 mov	 eax, DWORD PTR _raw$[ebp]
  003a1	f3 0f 10 80 08
	01 00 00	 movss	 xmm0, DWORD PTR [eax+264]
  003a9	f3 0f 11 45 f8	 movss	 DWORD PTR _value$[ebp], xmm0

; 554  : 
; 555  : 			break;

  003ae	eb 78		 jmp	 SHORT $LN2@get_local_
$LN39@get_local_:

; 556  : 		}
; 557  : 		////////////////////////////////////////
; 558  : 		default:
; 559  : 		////////////////////////////////////////
; 560  : 		{
; 561  : 			debug_fatal_invalid_float_type (en, type);

  003b0	83 7d 08 00	 cmp	 DWORD PTR _en$[ebp], 0
  003b4	74 0a		 je	 SHORT $LN41@get_local_
  003b6	8b 45 08	 mov	 eax, DWORD PTR _en$[ebp]
  003b9	8b 08		 mov	 ecx, DWORD PTR [eax]
  003bb	89 4d b4	 mov	 DWORD PTR tv246[ebp], ecx
  003be	eb 24		 jmp	 SHORT $LN42@get_local_
$LN41@get_local_:
  003c0	8b 15 00 00 00
	00		 mov	 edx, DWORD PTR ?__LINE__Var@?0??get_local_float_value@@YGMPAUENTITY@@W4FLOAT_TYPES@@@Z@4JA
  003c6	81 c2 27 01 00
	00		 add	 edx, 295		; 00000127H
  003cc	52		 push	 edx
  003cd	68 00 00 00 00	 push	 OFFSET ??_C@_0EN@PNGNLGDO@c?3?2users?2nhv90?2projects?2eech?2ap@
  003d2	a1 00 00 00 00	 mov	 eax, DWORD PTR ?null_entity_pointer_message@@3PBDB ; null_entity_pointer_message
  003d7	50		 push	 eax
  003d8	e8 00 00 00 00	 call	 ?process_assert@@YGXPBD0H@Z ; process_assert
  003dd	c7 45 b4 00 00
	00 00		 mov	 DWORD PTR tv246[ebp], 0
$LN42@get_local_:
  003e4	8b 0d 00 00 00
	00		 mov	 ecx, DWORD PTR ?__LINE__Var@?0??get_local_float_value@@YGMPAUENTITY@@W4FLOAT_TYPES@@@Z@4JA
  003ea	81 c1 27 01 00
	00		 add	 ecx, 295		; 00000127H
  003f0	51		 push	 ecx
  003f1	68 00 00 00 00	 push	 OFFSET ??_C@_0EN@PNGNLGDO@c?3?2users?2nhv90?2projects?2eech?2ap@
  003f6	6b 55 0c 18	 imul	 edx, DWORD PTR _type$[ebp], 24
  003fa	8b 82 00 00 00
	00		 mov	 eax, DWORD PTR ?float_type_database@@3PAUFLOAT_TYPE_DATA@@A[edx]
  00400	50		 push	 eax
  00401	8b 4d 08	 mov	 ecx, DWORD PTR _en$[ebp]
  00404	2b 0d 00 00 00
	00		 sub	 ecx, DWORD PTR ?entities@@3PAUENTITY@@A ; entities
  0040a	c1 f9 04	 sar	 ecx, 4
  0040d	51		 push	 ecx
  0040e	6b 55 b4 0c	 imul	 edx, DWORD PTR tv246[ebp], 12
  00412	8b 82 00 00 00
	00		 mov	 eax, DWORD PTR ?entity_type_database@@3PAUENTITY_TYPE_DATA@@A[edx]
  00418	50		 push	 eax
  00419	8b 0d 00 00 00
	00		 mov	 ecx, DWORD PTR ?debug_fatal_invalid_float_type_message@@3PBDB ; debug_fatal_invalid_float_type_message
  0041f	51		 push	 ecx
  00420	e8 00 00 00 00	 call	 ?debug_fatal@@YAXPBDZZ	; debug_fatal
  00425	83 c4 18	 add	 esp, 24			; 00000018H
$LN2@get_local_:

; 562  : 
; 563  : 			break;
; 564  : 		}
; 565  : 	}
; 566  : 
; 567  : 	return (value);

  00428	d9 45 f8	 fld	 DWORD PTR _value$[ebp]

; 568  : }

  0042b	5f		 pop	 edi
  0042c	5e		 pop	 esi
  0042d	5b		 pop	 ebx
  0042e	8b e5		 mov	 esp, ebp
  00430	5d		 pop	 ebp
  00431	c2 08 00	 ret	 8
$LN44@get_local_:
  00434	00 00 00 00	 DD	 $LN4@get_local_
  00438	00 00 00 00	 DD	 $LN5@get_local_
  0043c	00 00 00 00	 DD	 $LN6@get_local_
  00440	00 00 00 00	 DD	 $LN7@get_local_
  00444	00 00 00 00	 DD	 $LN8@get_local_
  00448	00 00 00 00	 DD	 $LN9@get_local_
  0044c	00 00 00 00	 DD	 $LN10@get_local_
  00450	00 00 00 00	 DD	 $LN11@get_local_
  00454	00 00 00 00	 DD	 $LN12@get_local_
  00458	00 00 00 00	 DD	 $LN13@get_local_
  0045c	00 00 00 00	 DD	 $LN14@get_local_
  00460	00 00 00 00	 DD	 $LN15@get_local_
  00464	00 00 00 00	 DD	 $LN16@get_local_
  00468	00 00 00 00	 DD	 $LN17@get_local_
  0046c	00 00 00 00	 DD	 $LN18@get_local_
  00470	00 00 00 00	 DD	 $LN19@get_local_
  00474	00 00 00 00	 DD	 $LN20@get_local_
  00478	00 00 00 00	 DD	 $LN21@get_local_
  0047c	00 00 00 00	 DD	 $LN22@get_local_
  00480	00 00 00 00	 DD	 $LN23@get_local_
  00484	00 00 00 00	 DD	 $LN24@get_local_
  00488	00 00 00 00	 DD	 $LN25@get_local_
  0048c	00 00 00 00	 DD	 $LN26@get_local_
  00490	00 00 00 00	 DD	 $LN27@get_local_
  00494	00 00 00 00	 DD	 $LN28@get_local_
  00498	00 00 00 00	 DD	 $LN29@get_local_
  0049c	00 00 00 00	 DD	 $LN30@get_local_
  004a0	00 00 00 00	 DD	 $LN31@get_local_
  004a4	00 00 00 00	 DD	 $LN32@get_local_
  004a8	00 00 00 00	 DD	 $LN33@get_local_
  004ac	00 00 00 00	 DD	 $LN34@get_local_
  004b0	00 00 00 00	 DD	 $LN35@get_local_
  004b4	00 00 00 00	 DD	 $LN36@get_local_
  004b8	00 00 00 00	 DD	 $LN37@get_local_
  004bc	00 00 00 00	 DD	 $LN38@get_local_
  004c0	00 00 00 00	 DD	 $LN39@get_local_
$LN43@get_local_:
  004c4	00		 DB	 0
  004c5	01		 DB	 1
  004c6	02		 DB	 2
  004c7	23		 DB	 35			; 00000023H
  004c8	03		 DB	 3
  004c9	23		 DB	 35			; 00000023H
  004ca	23		 DB	 35			; 00000023H
  004cb	23		 DB	 35			; 00000023H
  004cc	23		 DB	 35			; 00000023H
  004cd	23		 DB	 35			; 00000023H
  004ce	23		 DB	 35			; 00000023H
  004cf	23		 DB	 35			; 00000023H
  004d0	23		 DB	 35			; 00000023H
  004d1	04		 DB	 4
  004d2	23		 DB	 35			; 00000023H
  004d3	23		 DB	 35			; 00000023H
  004d4	05		 DB	 5
  004d5	06		 DB	 6
  004d6	07		 DB	 7
  004d7	08		 DB	 8
  004d8	23		 DB	 35			; 00000023H
  004d9	23		 DB	 35			; 00000023H
  004da	09		 DB	 9
  004db	23		 DB	 35			; 00000023H
  004dc	0a		 DB	 10			; 0000000aH
  004dd	23		 DB	 35			; 00000023H
  004de	23		 DB	 35			; 00000023H
  004df	23		 DB	 35			; 00000023H
  004e0	0b		 DB	 11			; 0000000bH
  004e1	23		 DB	 35			; 00000023H
  004e2	23		 DB	 35			; 00000023H
  004e3	23		 DB	 35			; 00000023H
  004e4	23		 DB	 35			; 00000023H
  004e5	23		 DB	 35			; 00000023H
  004e6	23		 DB	 35			; 00000023H
  004e7	23		 DB	 35			; 00000023H
  004e8	23		 DB	 35			; 00000023H
  004e9	23		 DB	 35			; 00000023H
  004ea	23		 DB	 35			; 00000023H
  004eb	23		 DB	 35			; 00000023H
  004ec	23		 DB	 35			; 00000023H
  004ed	23		 DB	 35			; 00000023H
  004ee	23		 DB	 35			; 00000023H
  004ef	23		 DB	 35			; 00000023H
  004f0	0c		 DB	 12			; 0000000cH
  004f1	23		 DB	 35			; 00000023H
  004f2	23		 DB	 35			; 00000023H
  004f3	23		 DB	 35			; 00000023H
  004f4	23		 DB	 35			; 00000023H
  004f5	23		 DB	 35			; 00000023H
  004f6	23		 DB	 35			; 00000023H
  004f7	23		 DB	 35			; 00000023H
  004f8	23		 DB	 35			; 00000023H
  004f9	23		 DB	 35			; 00000023H
  004fa	23		 DB	 35			; 00000023H
  004fb	23		 DB	 35			; 00000023H
  004fc	23		 DB	 35			; 00000023H
  004fd	23		 DB	 35			; 00000023H
  004fe	23		 DB	 35			; 00000023H
  004ff	23		 DB	 35			; 00000023H
  00500	0d		 DB	 13			; 0000000dH
  00501	23		 DB	 35			; 00000023H
  00502	23		 DB	 35			; 00000023H
  00503	23		 DB	 35			; 00000023H
  00504	23		 DB	 35			; 00000023H
  00505	23		 DB	 35			; 00000023H
  00506	23		 DB	 35			; 00000023H
  00507	23		 DB	 35			; 00000023H
  00508	23		 DB	 35			; 00000023H
  00509	23		 DB	 35			; 00000023H
  0050a	23		 DB	 35			; 00000023H
  0050b	23		 DB	 35			; 00000023H
  0050c	0e		 DB	 14			; 0000000eH
  0050d	0f		 DB	 15			; 0000000fH
  0050e	10		 DB	 16			; 00000010H
  0050f	23		 DB	 35			; 00000023H
  00510	23		 DB	 35			; 00000023H
  00511	23		 DB	 35			; 00000023H
  00512	23		 DB	 35			; 00000023H
  00513	23		 DB	 35			; 00000023H
  00514	23		 DB	 35			; 00000023H
  00515	23		 DB	 35			; 00000023H
  00516	23		 DB	 35			; 00000023H
  00517	23		 DB	 35			; 00000023H
  00518	23		 DB	 35			; 00000023H
  00519	23		 DB	 35			; 00000023H
  0051a	23		 DB	 35			; 00000023H
  0051b	23		 DB	 35			; 00000023H
  0051c	11		 DB	 17			; 00000011H
  0051d	23		 DB	 35			; 00000023H
  0051e	23		 DB	 35			; 00000023H
  0051f	12		 DB	 18			; 00000012H
  00520	13		 DB	 19			; 00000013H
  00521	14		 DB	 20			; 00000014H
  00522	15		 DB	 21			; 00000015H
  00523	23		 DB	 35			; 00000023H
  00524	23		 DB	 35			; 00000023H
  00525	23		 DB	 35			; 00000023H
  00526	23		 DB	 35			; 00000023H
  00527	23		 DB	 35			; 00000023H
  00528	23		 DB	 35			; 00000023H
  00529	23		 DB	 35			; 00000023H
  0052a	16		 DB	 22			; 00000016H
  0052b	23		 DB	 35			; 00000023H
  0052c	23		 DB	 35			; 00000023H
  0052d	23		 DB	 35			; 00000023H
  0052e	23		 DB	 35			; 00000023H
  0052f	23		 DB	 35			; 00000023H
  00530	17		 DB	 23			; 00000017H
  00531	23		 DB	 35			; 00000023H
  00532	23		 DB	 35			; 00000023H
  00533	23		 DB	 35			; 00000023H
  00534	23		 DB	 35			; 00000023H
  00535	23		 DB	 35			; 00000023H
  00536	18		 DB	 24			; 00000018H
  00537	23		 DB	 35			; 00000023H
  00538	23		 DB	 35			; 00000023H
  00539	23		 DB	 35			; 00000023H
  0053a	23		 DB	 35			; 00000023H
  0053b	23		 DB	 35			; 00000023H
  0053c	23		 DB	 35			; 00000023H
  0053d	23		 DB	 35			; 00000023H
  0053e	23		 DB	 35			; 00000023H
  0053f	23		 DB	 35			; 00000023H
  00540	19		 DB	 25			; 00000019H
  00541	23		 DB	 35			; 00000023H
  00542	23		 DB	 35			; 00000023H
  00543	23		 DB	 35			; 00000023H
  00544	1a		 DB	 26			; 0000001aH
  00545	1b		 DB	 27			; 0000001bH
  00546	1c		 DB	 28			; 0000001cH
  00547	1d		 DB	 29			; 0000001dH
  00548	1e		 DB	 30			; 0000001eH
  00549	23		 DB	 35			; 00000023H
  0054a	23		 DB	 35			; 00000023H
  0054b	23		 DB	 35			; 00000023H
  0054c	23		 DB	 35			; 00000023H
  0054d	23		 DB	 35			; 00000023H
  0054e	1f		 DB	 31			; 0000001fH
  0054f	23		 DB	 35			; 00000023H
  00550	23		 DB	 35			; 00000023H
  00551	23		 DB	 35			; 00000023H
  00552	23		 DB	 35			; 00000023H
  00553	23		 DB	 35			; 00000023H
  00554	23		 DB	 35			; 00000023H
  00555	23		 DB	 35			; 00000023H
  00556	20		 DB	 32			; 00000020H
  00557	21		 DB	 33			; 00000021H
  00558	23		 DB	 35			; 00000023H
  00559	23		 DB	 35			; 00000023H
  0055a	23		 DB	 35			; 00000023H
  0055b	22		 DB	 34			; 00000022H
?get_local_float_value@@YGMPAUENTITY@@W4FLOAT_TYPES@@@Z ENDP ; get_local_float_value
_TEXT	ENDS
; Function compile flags: /Odtp /ZI
; File c:\users\nhv90\projects\eech\aphavoc\source\entity\mobile\vehicle\vh_float.c
;	COMDAT ?set_client_float_value@@YGXPAUENTITY@@W4FLOAT_TYPES@@M@Z
_TEXT	SEGMENT
_en$ = 8						; size = 4
_type$ = 12						; size = 4
_value$ = 16						; size = 4
?set_client_float_value@@YGXPAUENTITY@@W4FLOAT_TYPES@@M@Z PROC ; set_client_float_value, COMDAT

; 242  : {

  00000	55		 push	 ebp
  00001	8b ec		 mov	 ebp, esp
  00003	83 ec 40	 sub	 esp, 64			; 00000040H
  00006	53		 push	 ebx
  00007	56		 push	 esi
  00008	57		 push	 edi

; 243  : 	if (get_comms_data_flow () == COMMS_DATA_FLOW_TX)

  00009	83 3d 00 00 00
	00 00		 cmp	 DWORD PTR ?system_comms_data_flow@@3W4COMMS_DATA_FLOW_TYPES@@A, 0 ; system_comms_data_flow
  00010	75 3b		 jne	 SHORT $LN2@set_client

; 244  : 	{
; 245  : 		validate_client_server_remote_fn ();

  00012	e8 00 00 00 00	 call	 ?assert_client_server_remote_fn@@YGHXZ ; assert_client_server_remote_fn
  00017	85 c0		 test	 eax, eax
  00019	75 18		 jne	 SHORT $LN4@set_client
  0001b	a1 00 00 00 00	 mov	 eax, DWORD PTR ?__LINE__Var@?0??set_client_float_value@@YGXPAUENTITY@@W4FLOAT_TYPES@@M@Z@4JA
  00020	83 c0 03	 add	 eax, 3
  00023	50		 push	 eax
  00024	68 00 00 00 00	 push	 OFFSET ??_C@_0EN@PNGNLGDO@c?3?2users?2nhv90?2projects?2eech?2ap@
  00029	68 00 00 00 00	 push	 OFFSET ??_C@_0CC@BNNNEGEG@assert_client_server_remote_fn?5@
  0002e	e8 00 00 00 00	 call	 ?process_assert@@YGXPBD0H@Z ; process_assert
$LN4@set_client:

; 246  : 
; 247  : 		set_remote_float_value (en, type, value);

  00033	51		 push	 ecx
  00034	f3 0f 10 45 10	 movss	 xmm0, DWORD PTR _value$[ebp]
  00039	f3 0f 11 04 24	 movss	 DWORD PTR [esp], xmm0
  0003e	8b 45 0c	 mov	 eax, DWORD PTR _type$[ebp]
  00041	50		 push	 eax
  00042	8b 4d 08	 mov	 ecx, DWORD PTR _en$[ebp]
  00045	51		 push	 ecx
  00046	e8 00 00 00 00	 call	 ?set_remote_float_value@@YGXPAUENTITY@@W4FLOAT_TYPES@@M@Z ; set_remote_float_value

; 248  : 	}
; 249  : 	else

  0004b	eb 39		 jmp	 SHORT $LN3@set_client
$LN2@set_client:

; 250  : 	{
; 251  : 		validate_client_server_local_fn ();

  0004d	e8 00 00 00 00	 call	 ?assert_client_server_local_fn@@YGHXZ ; assert_client_server_local_fn
  00052	85 c0		 test	 eax, eax
  00054	75 18		 jne	 SHORT $LN5@set_client
  00056	a1 00 00 00 00	 mov	 eax, DWORD PTR ?__LINE__Var@?0??set_client_float_value@@YGXPAUENTITY@@W4FLOAT_TYPES@@M@Z@4JA
  0005b	83 c0 09	 add	 eax, 9
  0005e	50		 push	 eax
  0005f	68 00 00 00 00	 push	 OFFSET ??_C@_0EN@PNGNLGDO@c?3?2users?2nhv90?2projects?2eech?2ap@
  00064	68 00 00 00 00	 push	 OFFSET ??_C@_0CB@CFOCLFOK@assert_client_server_local_fn?5?$CI@
  00069	e8 00 00 00 00	 call	 ?process_assert@@YGXPBD0H@Z ; process_assert
$LN5@set_client:

; 252  : 
; 253  : 		set_local_float_value (en, type, value);

  0006e	51		 push	 ecx
  0006f	f3 0f 10 45 10	 movss	 xmm0, DWORD PTR _value$[ebp]
  00074	f3 0f 11 04 24	 movss	 DWORD PTR [esp], xmm0
  00079	8b 45 0c	 mov	 eax, DWORD PTR _type$[ebp]
  0007c	50		 push	 eax
  0007d	8b 4d 08	 mov	 ecx, DWORD PTR _en$[ebp]
  00080	51		 push	 ecx
  00081	e8 00 00 00 00	 call	 ?set_local_float_value@@YGXPAUENTITY@@W4FLOAT_TYPES@@M@Z ; set_local_float_value
$LN3@set_client:

; 254  : 	}
; 255  : }

  00086	5f		 pop	 edi
  00087	5e		 pop	 esi
  00088	5b		 pop	 ebx
  00089	8b e5		 mov	 esp, ebp
  0008b	5d		 pop	 ebp
  0008c	c2 0c 00	 ret	 12			; 0000000cH
?set_client_float_value@@YGXPAUENTITY@@W4FLOAT_TYPES@@M@Z ENDP ; set_client_float_value
_TEXT	ENDS
; Function compile flags: /Odtp /ZI
; File c:\users\nhv90\projects\eech\aphavoc\source\entity\mobile\vehicle\vh_float.c
;	COMDAT ?set_server_float_value@@YGXPAUENTITY@@W4FLOAT_TYPES@@M@Z
_TEXT	SEGMENT
_en$ = 8						; size = 4
_type$ = 12						; size = 4
_value$ = 16						; size = 4
?set_server_float_value@@YGXPAUENTITY@@W4FLOAT_TYPES@@M@Z PROC ; set_server_float_value, COMDAT

; 223  : {

  00000	55		 push	 ebp
  00001	8b ec		 mov	 ebp, esp
  00003	83 ec 40	 sub	 esp, 64			; 00000040H
  00006	53		 push	 ebx
  00007	56		 push	 esi
  00008	57		 push	 edi

; 224  : 	validate_client_server_local_fn ();

  00009	e8 00 00 00 00	 call	 ?assert_client_server_local_fn@@YGHXZ ; assert_client_server_local_fn
  0000e	85 c0		 test	 eax, eax
  00010	75 18		 jne	 SHORT $LN2@set_server
  00012	a1 00 00 00 00	 mov	 eax, DWORD PTR ?__LINE__Var@?0??set_server_float_value@@YGXPAUENTITY@@W4FLOAT_TYPES@@M@Z@4JA
  00017	83 c0 01	 add	 eax, 1
  0001a	50		 push	 eax
  0001b	68 00 00 00 00	 push	 OFFSET ??_C@_0EN@PNGNLGDO@c?3?2users?2nhv90?2projects?2eech?2ap@
  00020	68 00 00 00 00	 push	 OFFSET ??_C@_0CB@CFOCLFOK@assert_client_server_local_fn?5?$CI@
  00025	e8 00 00 00 00	 call	 ?process_assert@@YGXPBD0H@Z ; process_assert
$LN2@set_server:

; 225  : 
; 226  : 	set_local_float_value (en, type, value);

  0002a	51		 push	 ecx
  0002b	f3 0f 10 45 10	 movss	 xmm0, DWORD PTR _value$[ebp]
  00030	f3 0f 11 04 24	 movss	 DWORD PTR [esp], xmm0
  00035	8b 45 0c	 mov	 eax, DWORD PTR _type$[ebp]
  00038	50		 push	 eax
  00039	8b 4d 08	 mov	 ecx, DWORD PTR _en$[ebp]
  0003c	51		 push	 ecx
  0003d	e8 00 00 00 00	 call	 ?set_local_float_value@@YGXPAUENTITY@@W4FLOAT_TYPES@@M@Z ; set_local_float_value

; 227  : 
; 228  : 	validate_client_server_remote_fn ();

  00042	e8 00 00 00 00	 call	 ?assert_client_server_remote_fn@@YGHXZ ; assert_client_server_remote_fn
  00047	85 c0		 test	 eax, eax
  00049	75 18		 jne	 SHORT $LN3@set_server
  0004b	a1 00 00 00 00	 mov	 eax, DWORD PTR ?__LINE__Var@?0??set_server_float_value@@YGXPAUENTITY@@W4FLOAT_TYPES@@M@Z@4JA
  00050	83 c0 05	 add	 eax, 5
  00053	50		 push	 eax
  00054	68 00 00 00 00	 push	 OFFSET ??_C@_0EN@PNGNLGDO@c?3?2users?2nhv90?2projects?2eech?2ap@
  00059	68 00 00 00 00	 push	 OFFSET ??_C@_0CC@BNNNEGEG@assert_client_server_remote_fn?5@
  0005e	e8 00 00 00 00	 call	 ?process_assert@@YGXPBD0H@Z ; process_assert
$LN3@set_server:

; 229  : 
; 230  : 	set_remote_float_value (en, type, value);

  00063	51		 push	 ecx
  00064	f3 0f 10 45 10	 movss	 xmm0, DWORD PTR _value$[ebp]
  00069	f3 0f 11 04 24	 movss	 DWORD PTR [esp], xmm0
  0006e	8b 45 0c	 mov	 eax, DWORD PTR _type$[ebp]
  00071	50		 push	 eax
  00072	8b 4d 08	 mov	 ecx, DWORD PTR _en$[ebp]
  00075	51		 push	 ecx
  00076	e8 00 00 00 00	 call	 ?set_remote_float_value@@YGXPAUENTITY@@W4FLOAT_TYPES@@M@Z ; set_remote_float_value

; 231  : }

  0007b	5f		 pop	 edi
  0007c	5e		 pop	 esi
  0007d	5b		 pop	 ebx
  0007e	8b e5		 mov	 esp, ebp
  00080	5d		 pop	 ebp
  00081	c2 0c 00	 ret	 12			; 0000000cH
?set_server_float_value@@YGXPAUENTITY@@W4FLOAT_TYPES@@M@Z ENDP ; set_server_float_value
_TEXT	ENDS
; Function compile flags: /Odtp /ZI
; File c:\users\nhv90\projects\eech\aphavoc\source\entity\mobile\vehicle\vh_float.c
;	COMDAT ?set_remote_float_value@@YGXPAUENTITY@@W4FLOAT_TYPES@@M@Z
_TEXT	SEGMENT
_en$ = 8						; size = 4
_type$ = 12						; size = 4
_value$ = 16						; size = 4
?set_remote_float_value@@YGXPAUENTITY@@W4FLOAT_TYPES@@M@Z PROC ; set_remote_float_value, COMDAT

; 204  : {

  00000	55		 push	 ebp
  00001	8b ec		 mov	 ebp, esp
  00003	83 ec 40	 sub	 esp, 64			; 00000040H
  00006	53		 push	 ebx
  00007	56		 push	 esi
  00008	57		 push	 edi

; 205  : 	#if DEBUG_MODULE
; 206  : 
; 207  : 	debug_log_entity_args (ENTITY_DEBUG_REMOTE, ENTITY_DEBUG_FLOAT_VALUE, en, type, value);
; 208  : 
; 209  : 	#endif
; 210  : 
; 211  : 	transmit_entity_comms_message (ENTITY_COMMS_FLOAT_VALUE, en, type, value);

  00009	f3 0f 5a 45 10	 cvtss2sd xmm0, DWORD PTR _value$[ebp]
  0000e	83 ec 08	 sub	 esp, 8
  00011	f2 0f 11 04 24	 movsd	 QWORD PTR [esp], xmm0
  00016	8b 45 0c	 mov	 eax, DWORD PTR _type$[ebp]
  00019	50		 push	 eax
  0001a	8b 4d 08	 mov	 ecx, DWORD PTR _en$[ebp]
  0001d	51		 push	 ecx
  0001e	6a 16		 push	 22			; 00000016H
  00020	e8 00 00 00 00	 call	 ?transmit_entity_comms_message@@YAXW4ENTITY_COMMS_MESSAGES@@PAUENTITY@@ZZ ; transmit_entity_comms_message
  00025	83 c4 14	 add	 esp, 20			; 00000014H

; 212  : }

  00028	5f		 pop	 edi
  00029	5e		 pop	 esi
  0002a	5b		 pop	 ebx
  0002b	8b e5		 mov	 esp, ebp
  0002d	5d		 pop	 ebp
  0002e	c2 0c 00	 ret	 12			; 0000000cH
?set_remote_float_value@@YGXPAUENTITY@@W4FLOAT_TYPES@@M@Z ENDP ; set_remote_float_value
_TEXT	ENDS
; Function compile flags: /Odtp /ZI
; File c:\users\nhv90\projects\eech\aphavoc\source\entity\mobile\vehicle\vh_float.c
;	COMDAT ?set_local_float_value@@YGXPAUENTITY@@W4FLOAT_TYPES@@M@Z
_TEXT	SEGMENT
tv92 = -72						; size = 4
tv65 = -72						; size = 4
_raw$ = -4						; size = 4
_en$ = 8						; size = 4
_type$ = 12						; size = 4
_value$ = 16						; size = 4
?set_local_float_value@@YGXPAUENTITY@@W4FLOAT_TYPES@@M@Z PROC ; set_local_float_value, COMDAT

; 90   : {

  00000	55		 push	 ebp
  00001	8b ec		 mov	 ebp, esp
  00003	83 ec 48	 sub	 esp, 72			; 00000048H
  00006	53		 push	 ebx
  00007	56		 push	 esi
  00008	57		 push	 edi

; 91   : 	vehicle
; 92   : 		*raw;
; 93   : 
; 94   : 	#if DEBUG_MODULE
; 95   : 
; 96   : 	debug_log_entity_args (ENTITY_DEBUG_LOCAL, ENTITY_DEBUG_FLOAT_VALUE, en, type, value);
; 97   : 
; 98   : 	#endif
; 99   : 
; 100  : 	raw = (vehicle *) get_local_entity_data (en);

  00009	8b 45 08	 mov	 eax, DWORD PTR _en$[ebp]
  0000c	8b 48 04	 mov	 ecx, DWORD PTR [eax+4]
  0000f	89 4d fc	 mov	 DWORD PTR _raw$[ebp], ecx

; 101  : 
; 102  : 	switch (type)

  00012	8b 45 0c	 mov	 eax, DWORD PTR _type$[ebp]
  00015	89 45 b8	 mov	 DWORD PTR tv65[ebp], eax
  00018	8b 4d b8	 mov	 ecx, DWORD PTR tv65[ebp]
  0001b	83 e9 1b	 sub	 ecx, 27			; 0000001bH
  0001e	89 4d b8	 mov	 DWORD PTR tv65[ebp], ecx
  00021	83 7d b8 7f	 cmp	 DWORD PTR tv65[ebp], 127 ; 0000007fH
  00025	0f 87 e0 00 00
	00		 ja	 $LN14@set_local_
  0002b	8b 55 b8	 mov	 edx, DWORD PTR tv65[ebp]
  0002e	0f b6 82 00 00
	00 00		 movzx	 eax, BYTE PTR $LN18@set_local_[edx]
  00035	ff 24 85 00 00
	00 00		 jmp	 DWORD PTR $LN19@set_local_[eax*4]
$LN4@set_local_:

; 103  : 	{
; 104  : 		////////////////////////////////////////
; 105  : 		case FLOAT_TYPE_DEATH_TIMER:
; 106  : 		////////////////////////////////////////
; 107  : 		{
; 108  : 			raw->death_timer = value;

  0003c	8b 45 fc	 mov	 eax, DWORD PTR _raw$[ebp]
  0003f	f3 0f 10 45 10	 movss	 xmm0, DWORD PTR _value$[ebp]
  00044	f3 0f 11 80 10
	01 00 00	 movss	 DWORD PTR [eax+272], xmm0

; 109  : 
; 110  : 			break;

  0004c	e9 2c 01 00 00	 jmp	 $LN2@set_local_
$LN5@set_local_:

; 111  : 		}
; 112  : 		////////////////////////////////////////
; 113  : 		case FLOAT_TYPE_DISTANCE:
; 114  : 		////////////////////////////////////////
; 115  : 		{
; 116  : 			raw->distance = value;

  00051	8b 45 fc	 mov	 eax, DWORD PTR _raw$[ebp]
  00054	f3 0f 10 45 10	 movss	 xmm0, DWORD PTR _value$[ebp]
  00059	f3 0f 11 80 ec
	00 00 00	 movss	 DWORD PTR [eax+236], xmm0

; 117  : 
; 118  : 			break;

  00061	e9 17 01 00 00	 jmp	 $LN2@set_local_
$LN6@set_local_:

; 119  : 		}
; 120  : 		////////////////////////////////////////
; 121  : 		case FLOAT_TYPE_LOADING_DOOR_STATE:
; 122  : 		////////////////////////////////////////
; 123  : 		{
; 124  : 			raw->loading_door_state = value;

  00066	8b 45 fc	 mov	 eax, DWORD PTR _raw$[ebp]
  00069	f3 0f 10 45 10	 movss	 xmm0, DWORD PTR _value$[ebp]
  0006e	f3 0f 11 80 f0
	00 00 00	 movss	 DWORD PTR [eax+240], xmm0

; 125  : 
; 126  : 			break;

  00076	e9 02 01 00 00	 jmp	 $LN2@set_local_
$LN7@set_local_:

; 127  : 		}
; 128  : 		////////////////////////////////////////
; 129  : 		case FLOAT_TYPE_RADAR_ROTATION_STATE:
; 130  : 		////////////////////////////////////////
; 131  : 		{
; 132  : 			raw->radar_rotation_state = value;

  0007b	8b 45 fc	 mov	 eax, DWORD PTR _raw$[ebp]
  0007e	f3 0f 10 45 10	 movss	 xmm0, DWORD PTR _value$[ebp]
  00083	f3 0f 11 80 f4
	00 00 00	 movss	 DWORD PTR [eax+244], xmm0

; 133  : 
; 134  : 			break;

  0008b	e9 ed 00 00 00	 jmp	 $LN2@set_local_
$LN8@set_local_:

; 135  : 		}
; 136  : 		////////////////////////////////////////
; 137  : 		case FLOAT_TYPE_SLEEP:
; 138  : 		////////////////////////////////////////
; 139  : 		{
; 140  : 			raw->sleep = value;

  00090	8b 45 fc	 mov	 eax, DWORD PTR _raw$[ebp]
  00093	f3 0f 10 45 10	 movss	 xmm0, DWORD PTR _value$[ebp]
  00098	f3 0f 11 80 e8
	00 00 00	 movss	 DWORD PTR [eax+232], xmm0

; 141  : 
; 142  : 			break;

  000a0	e9 d8 00 00 00	 jmp	 $LN2@set_local_
$LN9@set_local_:

; 143  : 		}
; 144  : 		////////////////////////////////////////
; 145  : 		case FLOAT_TYPE_TARGET_FIRE_TIMER:
; 146  : 		////////////////////////////////////////
; 147  : 		{
; 148  : 			raw->target_fire_timer = value;

  000a5	8b 45 fc	 mov	 eax, DWORD PTR _raw$[ebp]
  000a8	f3 0f 10 45 10	 movss	 xmm0, DWORD PTR _value$[ebp]
  000ad	f3 0f 11 80 fc
	00 00 00	 movss	 DWORD PTR [eax+252], xmm0

; 149  : 
; 150  : 			break;

  000b5	e9 c3 00 00 00	 jmp	 $LN2@set_local_
$LN10@set_local_:

; 151  : 		}
; 152  : 		////////////////////////////////////////
; 153  : 		case FLOAT_TYPE_TARGET_SCAN_TIMER:
; 154  : 		////////////////////////////////////////
; 155  : 		{
; 156  : 			raw->target_scan_timer = value;

  000ba	8b 45 fc	 mov	 eax, DWORD PTR _raw$[ebp]
  000bd	f3 0f 10 45 10	 movss	 xmm0, DWORD PTR _value$[ebp]
  000c2	f3 0f 11 80 f8
	00 00 00	 movss	 DWORD PTR [eax+248], xmm0

; 157  : 
; 158  : 			break;

  000ca	e9 ae 00 00 00	 jmp	 $LN2@set_local_
$LN11@set_local_:

; 159  : 		}
; 160  : 		////////////////////////////////////////
; 161  : 		case FLOAT_TYPE_VIEW_INTEREST_LEVEL:
; 162  : 		////////////////////////////////////////
; 163  : 		{
; 164  : 			raw->view_interest_level = value;

  000cf	8b 45 fc	 mov	 eax, DWORD PTR _raw$[ebp]
  000d2	f3 0f 10 45 10	 movss	 xmm0, DWORD PTR _value$[ebp]
  000d7	f3 0f 11 80 00
	01 00 00	 movss	 DWORD PTR [eax+256], xmm0

; 165  : 
; 166  : 			break;

  000df	e9 99 00 00 00	 jmp	 $LN2@set_local_
$LN12@set_local_:

; 167  : 		}
; 168  : 		////////////////////////////////////////
; 169  : 		case FLOAT_TYPE_WEAPON_BURST_TIMER:
; 170  : 		////////////////////////////////////////
; 171  : 		{
; 172  : 			raw->weapon_burst_timer = value;

  000e4	8b 45 fc	 mov	 eax, DWORD PTR _raw$[ebp]
  000e7	f3 0f 10 45 10	 movss	 xmm0, DWORD PTR _value$[ebp]
  000ec	f3 0f 11 80 04
	01 00 00	 movss	 DWORD PTR [eax+260], xmm0

; 173  : 
; 174  : 			break;

  000f4	e9 84 00 00 00	 jmp	 $LN2@set_local_
$LN13@set_local_:

; 175  : 		}
; 176  : 		////////////////////////////////////////
; 177  : 		case FLOAT_TYPE_WEAPON_SYSTEM_READY_STATE:
; 178  : 		////////////////////////////////////////
; 179  : 		{
; 180  : 			raw->weapon_system_ready_state = value;

  000f9	8b 45 fc	 mov	 eax, DWORD PTR _raw$[ebp]
  000fc	f3 0f 10 45 10	 movss	 xmm0, DWORD PTR _value$[ebp]
  00101	f3 0f 11 80 08
	01 00 00	 movss	 DWORD PTR [eax+264], xmm0

; 181  : 
; 182  : 			break;

  00109	eb 72		 jmp	 SHORT $LN2@set_local_
$LN14@set_local_:

; 183  : 		}
; 184  : 		////////////////////////////////////////
; 185  : 		default:
; 186  : 		////////////////////////////////////////
; 187  : 		{
; 188  : 			debug_fatal_invalid_float_type (en, type);

  0010b	83 7d 08 00	 cmp	 DWORD PTR _en$[ebp], 0
  0010f	74 0a		 je	 SHORT $LN16@set_local_
  00111	8b 45 08	 mov	 eax, DWORD PTR _en$[ebp]
  00114	8b 08		 mov	 ecx, DWORD PTR [eax]
  00116	89 4d b8	 mov	 DWORD PTR tv92[ebp], ecx
  00119	eb 21		 jmp	 SHORT $LN17@set_local_
$LN16@set_local_:
  0011b	8b 15 00 00 00
	00		 mov	 edx, DWORD PTR ?__LINE__Var@?0??set_local_float_value@@YGXPAUENTITY@@W4FLOAT_TYPES@@M@Z@4JA
  00121	83 c2 62	 add	 edx, 98			; 00000062H
  00124	52		 push	 edx
  00125	68 00 00 00 00	 push	 OFFSET ??_C@_0EN@PNGNLGDO@c?3?2users?2nhv90?2projects?2eech?2ap@
  0012a	a1 00 00 00 00	 mov	 eax, DWORD PTR ?null_entity_pointer_message@@3PBDB ; null_entity_pointer_message
  0012f	50		 push	 eax
  00130	e8 00 00 00 00	 call	 ?process_assert@@YGXPBD0H@Z ; process_assert
  00135	c7 45 b8 00 00
	00 00		 mov	 DWORD PTR tv92[ebp], 0
$LN17@set_local_:
  0013c	8b 0d 00 00 00
	00		 mov	 ecx, DWORD PTR ?__LINE__Var@?0??set_local_float_value@@YGXPAUENTITY@@W4FLOAT_TYPES@@M@Z@4JA
  00142	83 c1 62	 add	 ecx, 98			; 00000062H
  00145	51		 push	 ecx
  00146	68 00 00 00 00	 push	 OFFSET ??_C@_0EN@PNGNLGDO@c?3?2users?2nhv90?2projects?2eech?2ap@
  0014b	6b 55 0c 18	 imul	 edx, DWORD PTR _type$[ebp], 24
  0014f	8b 82 00 00 00
	00		 mov	 eax, DWORD PTR ?float_type_database@@3PAUFLOAT_TYPE_DATA@@A[edx]
  00155	50		 push	 eax
  00156	8b 4d 08	 mov	 ecx, DWORD PTR _en$[ebp]
  00159	2b 0d 00 00 00
	00		 sub	 ecx, DWORD PTR ?entities@@3PAUENTITY@@A ; entities
  0015f	c1 f9 04	 sar	 ecx, 4
  00162	51		 push	 ecx
  00163	6b 55 b8 0c	 imul	 edx, DWORD PTR tv92[ebp], 12
  00167	8b 82 00 00 00
	00		 mov	 eax, DWORD PTR ?entity_type_database@@3PAUENTITY_TYPE_DATA@@A[edx]
  0016d	50		 push	 eax
  0016e	8b 0d 00 00 00
	00		 mov	 ecx, DWORD PTR ?debug_fatal_invalid_float_type_message@@3PBDB ; debug_fatal_invalid_float_type_message
  00174	51		 push	 ecx
  00175	e8 00 00 00 00	 call	 ?debug_fatal@@YAXPBDZZ	; debug_fatal
  0017a	83 c4 18	 add	 esp, 24			; 00000018H
$LN2@set_local_:

; 189  : 
; 190  : 			break;
; 191  : 		}
; 192  : 	}
; 193  : }

  0017d	5f		 pop	 edi
  0017e	5e		 pop	 esi
  0017f	5b		 pop	 ebx
  00180	8b e5		 mov	 esp, ebp
  00182	5d		 pop	 ebp
  00183	c2 0c 00	 ret	 12			; 0000000cH
  00186	66 90		 npad	 2
$LN19@set_local_:
  00188	00 00 00 00	 DD	 $LN4@set_local_
  0018c	00 00 00 00	 DD	 $LN5@set_local_
  00190	00 00 00 00	 DD	 $LN6@set_local_
  00194	00 00 00 00	 DD	 $LN7@set_local_
  00198	00 00 00 00	 DD	 $LN8@set_local_
  0019c	00 00 00 00	 DD	 $LN9@set_local_
  001a0	00 00 00 00	 DD	 $LN10@set_local_
  001a4	00 00 00 00	 DD	 $LN11@set_local_
  001a8	00 00 00 00	 DD	 $LN12@set_local_
  001ac	00 00 00 00	 DD	 $LN13@set_local_
  001b0	00 00 00 00	 DD	 $LN14@set_local_
$LN18@set_local_:
  001b4	00		 DB	 0
  001b5	0a		 DB	 10			; 0000000aH
  001b6	0a		 DB	 10			; 0000000aH
  001b7	0a		 DB	 10			; 0000000aH
  001b8	01		 DB	 1
  001b9	0a		 DB	 10			; 0000000aH
  001ba	0a		 DB	 10			; 0000000aH
  001bb	0a		 DB	 10			; 0000000aH
  001bc	0a		 DB	 10			; 0000000aH
  001bd	0a		 DB	 10			; 0000000aH
  001be	0a		 DB	 10			; 0000000aH
  001bf	0a		 DB	 10			; 0000000aH
  001c0	0a		 DB	 10			; 0000000aH
  001c1	0a		 DB	 10			; 0000000aH
  001c2	0a		 DB	 10			; 0000000aH
  001c3	0a		 DB	 10			; 0000000aH
  001c4	0a		 DB	 10			; 0000000aH
  001c5	0a		 DB	 10			; 0000000aH
  001c6	0a		 DB	 10			; 0000000aH
  001c7	0a		 DB	 10			; 0000000aH
  001c8	0a		 DB	 10			; 0000000aH
  001c9	0a		 DB	 10			; 0000000aH
  001ca	0a		 DB	 10			; 0000000aH
  001cb	0a		 DB	 10			; 0000000aH
  001cc	0a		 DB	 10			; 0000000aH
  001cd	0a		 DB	 10			; 0000000aH
  001ce	0a		 DB	 10			; 0000000aH
  001cf	0a		 DB	 10			; 0000000aH
  001d0	0a		 DB	 10			; 0000000aH
  001d1	0a		 DB	 10			; 0000000aH
  001d2	0a		 DB	 10			; 0000000aH
  001d3	0a		 DB	 10			; 0000000aH
  001d4	0a		 DB	 10			; 0000000aH
  001d5	0a		 DB	 10			; 0000000aH
  001d6	0a		 DB	 10			; 0000000aH
  001d7	0a		 DB	 10			; 0000000aH
  001d8	02		 DB	 2
  001d9	0a		 DB	 10			; 0000000aH
  001da	0a		 DB	 10			; 0000000aH
  001db	0a		 DB	 10			; 0000000aH
  001dc	0a		 DB	 10			; 0000000aH
  001dd	0a		 DB	 10			; 0000000aH
  001de	0a		 DB	 10			; 0000000aH
  001df	0a		 DB	 10			; 0000000aH
  001e0	0a		 DB	 10			; 0000000aH
  001e1	0a		 DB	 10			; 0000000aH
  001e2	0a		 DB	 10			; 0000000aH
  001e3	0a		 DB	 10			; 0000000aH
  001e4	0a		 DB	 10			; 0000000aH
  001e5	0a		 DB	 10			; 0000000aH
  001e6	0a		 DB	 10			; 0000000aH
  001e7	0a		 DB	 10			; 0000000aH
  001e8	0a		 DB	 10			; 0000000aH
  001e9	0a		 DB	 10			; 0000000aH
  001ea	0a		 DB	 10			; 0000000aH
  001eb	0a		 DB	 10			; 0000000aH
  001ec	0a		 DB	 10			; 0000000aH
  001ed	0a		 DB	 10			; 0000000aH
  001ee	0a		 DB	 10			; 0000000aH
  001ef	0a		 DB	 10			; 0000000aH
  001f0	0a		 DB	 10			; 0000000aH
  001f1	0a		 DB	 10			; 0000000aH
  001f2	0a		 DB	 10			; 0000000aH
  001f3	0a		 DB	 10			; 0000000aH
  001f4	0a		 DB	 10			; 0000000aH
  001f5	0a		 DB	 10			; 0000000aH
  001f6	0a		 DB	 10			; 0000000aH
  001f7	0a		 DB	 10			; 0000000aH
  001f8	0a		 DB	 10			; 0000000aH
  001f9	0a		 DB	 10			; 0000000aH
  001fa	0a		 DB	 10			; 0000000aH
  001fb	0a		 DB	 10			; 0000000aH
  001fc	0a		 DB	 10			; 0000000aH
  001fd	0a		 DB	 10			; 0000000aH
  001fe	0a		 DB	 10			; 0000000aH
  001ff	0a		 DB	 10			; 0000000aH
  00200	0a		 DB	 10			; 0000000aH
  00201	0a		 DB	 10			; 0000000aH
  00202	03		 DB	 3
  00203	0a		 DB	 10			; 0000000aH
  00204	0a		 DB	 10			; 0000000aH
  00205	0a		 DB	 10			; 0000000aH
  00206	0a		 DB	 10			; 0000000aH
  00207	0a		 DB	 10			; 0000000aH
  00208	0a		 DB	 10			; 0000000aH
  00209	0a		 DB	 10			; 0000000aH
  0020a	0a		 DB	 10			; 0000000aH
  0020b	0a		 DB	 10			; 0000000aH
  0020c	0a		 DB	 10			; 0000000aH
  0020d	0a		 DB	 10			; 0000000aH
  0020e	04		 DB	 4
  0020f	0a		 DB	 10			; 0000000aH
  00210	0a		 DB	 10			; 0000000aH
  00211	0a		 DB	 10			; 0000000aH
  00212	0a		 DB	 10			; 0000000aH
  00213	0a		 DB	 10			; 0000000aH
  00214	0a		 DB	 10			; 0000000aH
  00215	0a		 DB	 10			; 0000000aH
  00216	0a		 DB	 10			; 0000000aH
  00217	0a		 DB	 10			; 0000000aH
  00218	0a		 DB	 10			; 0000000aH
  00219	0a		 DB	 10			; 0000000aH
  0021a	0a		 DB	 10			; 0000000aH
  0021b	0a		 DB	 10			; 0000000aH
  0021c	05		 DB	 5
  0021d	0a		 DB	 10			; 0000000aH
  0021e	0a		 DB	 10			; 0000000aH
  0021f	0a		 DB	 10			; 0000000aH
  00220	06		 DB	 6
  00221	0a		 DB	 10			; 0000000aH
  00222	0a		 DB	 10			; 0000000aH
  00223	0a		 DB	 10			; 0000000aH
  00224	0a		 DB	 10			; 0000000aH
  00225	0a		 DB	 10			; 0000000aH
  00226	0a		 DB	 10			; 0000000aH
  00227	0a		 DB	 10			; 0000000aH
  00228	0a		 DB	 10			; 0000000aH
  00229	0a		 DB	 10			; 0000000aH
  0022a	0a		 DB	 10			; 0000000aH
  0022b	0a		 DB	 10			; 0000000aH
  0022c	0a		 DB	 10			; 0000000aH
  0022d	0a		 DB	 10			; 0000000aH
  0022e	07		 DB	 7
  0022f	08		 DB	 8
  00230	0a		 DB	 10			; 0000000aH
  00231	0a		 DB	 10			; 0000000aH
  00232	0a		 DB	 10			; 0000000aH
  00233	09		 DB	 9
?set_local_float_value@@YGXPAUENTITY@@W4FLOAT_TYPES@@M@Z ENDP ; set_local_float_value
_TEXT	ENDS
; Function compile flags: /Odtp /ZI
; File c:\users\nhv90\projects\eech\aphavoc\source\entity\mobile\vehicle\vh_float.c
;	COMDAT ?overload_vehicle_float_value_functions@@YGXW4ENTITY_TYPES@@@Z
_TEXT	SEGMENT
_type$ = 8						; size = 4
?overload_vehicle_float_value_functions@@YGXW4ENTITY_TYPES@@@Z PROC ; overload_vehicle_float_value_functions, COMDAT

; 577  : {

  00000	55		 push	 ebp
  00001	8b ec		 mov	 ebp, esp
  00003	83 ec 40	 sub	 esp, 64			; 00000040H
  00006	53		 push	 ebx
  00007	56		 push	 esi
  00008	57		 push	 edi

; 578  : 	fn_get_local_entity_float_value				[type][FLOAT_TYPE_AIR_SCAN_CEILING]	 			  							= get_local_float_value;

  00009	69 45 08 bc 02
	00 00		 imul	 eax, DWORD PTR _type$[ebp], 700
  00010	b9 04 00 00 00	 mov	 ecx, 4
  00015	6b d1 03	 imul	 edx, ecx, 3
  00018	c7 84 10 00 00
	00 00 00 00 00
	00		 mov	 DWORD PTR ?fn_get_local_entity_float_value@@3PAY0KP@P6GMPAUENTITY@@W4FLOAT_TYPES@@@ZA[eax+edx], OFFSET ?get_local_float_value@@YGMPAUENTITY@@W4FLOAT_TYPES@@@Z ; get_local_float_value

; 579  : 
; 580  : 	fn_get_local_entity_float_value				[type][FLOAT_TYPE_AIR_SCAN_FLOOR]	 				  						= get_local_float_value;

  00023	69 45 08 bc 02
	00 00		 imul	 eax, DWORD PTR _type$[ebp], 700
  0002a	b9 04 00 00 00	 mov	 ecx, 4
  0002f	c1 e1 02	 shl	 ecx, 2
  00032	c7 84 08 00 00
	00 00 00 00 00
	00		 mov	 DWORD PTR ?fn_get_local_entity_float_value@@3PAY0KP@P6GMPAUENTITY@@W4FLOAT_TYPES@@@ZA[eax+ecx], OFFSET ?get_local_float_value@@YGMPAUENTITY@@W4FLOAT_TYPES@@@Z ; get_local_float_value

; 581  : 
; 582  : 	fn_get_local_entity_float_value				[type][FLOAT_TYPE_AIR_SCAN_RANGE]	 		  								= get_local_float_value;

  0003d	69 45 08 bc 02
	00 00		 imul	 eax, DWORD PTR _type$[ebp], 700
  00044	b9 04 00 00 00	 mov	 ecx, 4
  00049	6b d1 05	 imul	 edx, ecx, 5
  0004c	c7 84 10 00 00
	00 00 00 00 00
	00		 mov	 DWORD PTR ?fn_get_local_entity_float_value@@3PAY0KP@P6GMPAUENTITY@@W4FLOAT_TYPES@@@ZA[eax+edx], OFFSET ?get_local_float_value@@YGMPAUENTITY@@W4FLOAT_TYPES@@@Z ; get_local_float_value

; 583  : 
; 584  : 	fn_get_local_entity_float_value				[type][FLOAT_TYPE_AMMO_ECONOMY]												= get_local_float_value;

  00057	69 45 08 bc 02
	00 00		 imul	 eax, DWORD PTR _type$[ebp], 700
  0005e	b9 04 00 00 00	 mov	 ecx, 4
  00063	6b d1 07	 imul	 edx, ecx, 7
  00066	c7 84 10 00 00
	00 00 00 00 00
	00		 mov	 DWORD PTR ?fn_get_local_entity_float_value@@3PAY0KP@P6GMPAUENTITY@@W4FLOAT_TYPES@@@ZA[eax+edx], OFFSET ?get_local_float_value@@YGMPAUENTITY@@W4FLOAT_TYPES@@@Z ; get_local_float_value

; 585  : 
; 586  : 	fn_get_local_entity_float_value				[type][FLOAT_TYPE_AXLE_LENGTH]		 		  								= get_local_float_value;

  00071	69 45 08 bc 02
	00 00		 imul	 eax, DWORD PTR _type$[ebp], 700
  00078	b9 04 00 00 00	 mov	 ecx, 4
  0007d	c1 e1 04	 shl	 ecx, 4
  00080	c7 84 08 00 00
	00 00 00 00 00
	00		 mov	 DWORD PTR ?fn_get_local_entity_float_value@@3PAY0KP@P6GMPAUENTITY@@W4FLOAT_TYPES@@@ZA[eax+ecx], OFFSET ?get_local_float_value@@YGMPAUENTITY@@W4FLOAT_TYPES@@@Z ; get_local_float_value

; 587  : 
; 588  : 	fn_get_local_entity_float_value				[type][FLOAT_TYPE_CHASE_VIEW_MAX_DISTANCE]								= get_local_float_value;

  0008b	69 45 08 bc 02
	00 00		 imul	 eax, DWORD PTR _type$[ebp], 700
  00092	b9 04 00 00 00	 mov	 ecx, 4
  00097	6b d1 13	 imul	 edx, ecx, 19
  0009a	c7 84 10 00 00
	00 00 00 00 00
	00		 mov	 DWORD PTR ?fn_get_local_entity_float_value@@3PAY0KP@P6GMPAUENTITY@@W4FLOAT_TYPES@@@ZA[eax+edx], OFFSET ?get_local_float_value@@YGMPAUENTITY@@W4FLOAT_TYPES@@@Z ; get_local_float_value

; 589  : 
; 590  : 	fn_get_local_entity_float_value				[type][FLOAT_TYPE_CHASE_VIEW_MAX_DISTANCE_TEST]							= get_local_float_value;

  000a5	69 45 08 bc 02
	00 00		 imul	 eax, DWORD PTR _type$[ebp], 700
  000ac	b9 04 00 00 00	 mov	 ecx, 4
  000b1	6b d1 14	 imul	 edx, ecx, 20
  000b4	c7 84 10 00 00
	00 00 00 00 00
	00		 mov	 DWORD PTR ?fn_get_local_entity_float_value@@3PAY0KP@P6GMPAUENTITY@@W4FLOAT_TYPES@@@ZA[eax+edx], OFFSET ?get_local_float_value@@YGMPAUENTITY@@W4FLOAT_TYPES@@@Z ; get_local_float_value

; 591  : 
; 592  : 	fn_get_local_entity_float_value				[type][FLOAT_TYPE_CHASE_VIEW_MIN_DISTANCE]  								= get_local_float_value;

  000bf	69 45 08 bc 02
	00 00		 imul	 eax, DWORD PTR _type$[ebp], 700
  000c6	b9 04 00 00 00	 mov	 ecx, 4
  000cb	6b d1 15	 imul	 edx, ecx, 21
  000ce	c7 84 10 00 00
	00 00 00 00 00
	00		 mov	 DWORD PTR ?fn_get_local_entity_float_value@@3PAY0KP@P6GMPAUENTITY@@W4FLOAT_TYPES@@@ZA[eax+edx], OFFSET ?get_local_float_value@@YGMPAUENTITY@@W4FLOAT_TYPES@@@Z ; get_local_float_value

; 593  : 
; 594  : 	fn_get_local_entity_float_value				[type][FLOAT_TYPE_CHASE_VIEW_MIN_DISTANCE_TEST]							= get_local_float_value;

  000d9	69 45 08 bc 02
	00 00		 imul	 eax, DWORD PTR _type$[ebp], 700
  000e0	b9 04 00 00 00	 mov	 ecx, 4
  000e5	6b d1 16	 imul	 edx, ecx, 22
  000e8	c7 84 10 00 00
	00 00 00 00 00
	00		 mov	 DWORD PTR ?fn_get_local_entity_float_value@@3PAY0KP@P6GMPAUENTITY@@W4FLOAT_TYPES@@@ZA[eax+edx], OFFSET ?get_local_float_value@@YGMPAUENTITY@@W4FLOAT_TYPES@@@Z ; get_local_float_value

; 595  : 
; 596  : 	fn_get_local_entity_float_value				[type][FLOAT_TYPE_CRUISE_VELOCITY]		 									= get_local_float_value;

  000f3	69 45 08 bc 02
	00 00		 imul	 eax, DWORD PTR _type$[ebp], 700
  000fa	b9 04 00 00 00	 mov	 ecx, 4
  000ff	6b d1 19	 imul	 edx, ecx, 25
  00102	c7 84 10 00 00
	00 00 00 00 00
	00		 mov	 DWORD PTR ?fn_get_local_entity_float_value@@3PAY0KP@P6GMPAUENTITY@@W4FLOAT_TYPES@@@ZA[eax+edx], OFFSET ?get_local_float_value@@YGMPAUENTITY@@W4FLOAT_TYPES@@@Z ; get_local_float_value

; 597  : 
; 598  : 	fn_set_local_entity_raw_float_value			[type][FLOAT_TYPE_DEATH_TIMER]												= set_local_float_value;

  0010d	69 45 08 bc 02
	00 00		 imul	 eax, DWORD PTR _type$[ebp], 700
  00114	b9 04 00 00 00	 mov	 ecx, 4
  00119	6b d1 1b	 imul	 edx, ecx, 27
  0011c	c7 84 10 00 00
	00 00 00 00 00
	00		 mov	 DWORD PTR ?fn_set_local_entity_raw_float_value@@3PAY0KP@P6GXPAUENTITY@@W4FLOAT_TYPES@@M@ZA[eax+edx], OFFSET ?set_local_float_value@@YGXPAUENTITY@@W4FLOAT_TYPES@@M@Z ; set_local_float_value

; 599  : 	fn_set_local_entity_float_value				[type][FLOAT_TYPE_DEATH_TIMER]												= set_local_float_value;

  00127	69 45 08 bc 02
	00 00		 imul	 eax, DWORD PTR _type$[ebp], 700
  0012e	b9 04 00 00 00	 mov	 ecx, 4
  00133	6b d1 1b	 imul	 edx, ecx, 27
  00136	c7 84 10 00 00
	00 00 00 00 00
	00		 mov	 DWORD PTR ?fn_set_local_entity_float_value@@3PAY0KP@P6GXPAUENTITY@@W4FLOAT_TYPES@@M@ZA[eax+edx], OFFSET ?set_local_float_value@@YGXPAUENTITY@@W4FLOAT_TYPES@@M@Z ; set_local_float_value

; 600  : 	fn_set_client_server_entity_float_value	[type][FLOAT_TYPE_DEATH_TIMER][COMMS_MODEL_SERVER]						= set_server_float_value;

  00141	69 45 08 78 05
	00 00		 imul	 eax, DWORD PTR _type$[ebp], 1400
  00148	b9 08 00 00 00	 mov	 ecx, 8
  0014d	6b d1 1b	 imul	 edx, ecx, 27
  00150	8d 84 10 00 00
	00 00		 lea	 eax, DWORD PTR ?fn_set_client_server_entity_float_value@@3PAY1KP@1P6GXPAUENTITY@@W4FLOAT_TYPES@@M@ZA[eax+edx]
  00157	b9 04 00 00 00	 mov	 ecx, 4
  0015c	6b d1 00	 imul	 edx, ecx, 0
  0015f	c7 04 10 00 00
	00 00		 mov	 DWORD PTR [eax+edx], OFFSET ?set_server_float_value@@YGXPAUENTITY@@W4FLOAT_TYPES@@M@Z ; set_server_float_value

; 601  : 	fn_set_client_server_entity_float_value	[type][FLOAT_TYPE_DEATH_TIMER][COMMS_MODEL_CLIENT]						= set_client_float_value;

  00166	69 45 08 78 05
	00 00		 imul	 eax, DWORD PTR _type$[ebp], 1400
  0016d	b9 08 00 00 00	 mov	 ecx, 8
  00172	6b d1 1b	 imul	 edx, ecx, 27
  00175	8d 84 10 00 00
	00 00		 lea	 eax, DWORD PTR ?fn_set_client_server_entity_float_value@@3PAY1KP@1P6GXPAUENTITY@@W4FLOAT_TYPES@@M@ZA[eax+edx]
  0017c	b9 04 00 00 00	 mov	 ecx, 4
  00181	c1 e1 00	 shl	 ecx, 0
  00184	c7 04 08 00 00
	00 00		 mov	 DWORD PTR [eax+ecx], OFFSET ?set_client_float_value@@YGXPAUENTITY@@W4FLOAT_TYPES@@M@Z ; set_client_float_value

; 602  : 	fn_get_local_entity_float_value				[type][FLOAT_TYPE_DEATH_TIMER]												= get_local_float_value;

  0018b	69 45 08 bc 02
	00 00		 imul	 eax, DWORD PTR _type$[ebp], 700
  00192	b9 04 00 00 00	 mov	 ecx, 4
  00197	6b d1 1b	 imul	 edx, ecx, 27
  0019a	c7 84 10 00 00
	00 00 00 00 00
	00		 mov	 DWORD PTR ?fn_get_local_entity_float_value@@3PAY0KP@P6GMPAUENTITY@@W4FLOAT_TYPES@@@ZA[eax+edx], OFFSET ?get_local_float_value@@YGMPAUENTITY@@W4FLOAT_TYPES@@@Z ; get_local_float_value

; 603  : 
; 604  : 	fn_set_local_entity_raw_float_value			[type][FLOAT_TYPE_DISTANCE]													= set_local_float_value;

  001a5	69 45 08 bc 02
	00 00		 imul	 eax, DWORD PTR _type$[ebp], 700
  001ac	b9 04 00 00 00	 mov	 ecx, 4
  001b1	6b d1 1f	 imul	 edx, ecx, 31
  001b4	c7 84 10 00 00
	00 00 00 00 00
	00		 mov	 DWORD PTR ?fn_set_local_entity_raw_float_value@@3PAY0KP@P6GXPAUENTITY@@W4FLOAT_TYPES@@M@ZA[eax+edx], OFFSET ?set_local_float_value@@YGXPAUENTITY@@W4FLOAT_TYPES@@M@Z ; set_local_float_value

; 605  : 	fn_set_local_entity_float_value				[type][FLOAT_TYPE_DISTANCE]													= set_local_float_value;

  001bf	69 45 08 bc 02
	00 00		 imul	 eax, DWORD PTR _type$[ebp], 700
  001c6	b9 04 00 00 00	 mov	 ecx, 4
  001cb	6b d1 1f	 imul	 edx, ecx, 31
  001ce	c7 84 10 00 00
	00 00 00 00 00
	00		 mov	 DWORD PTR ?fn_set_local_entity_float_value@@3PAY0KP@P6GXPAUENTITY@@W4FLOAT_TYPES@@M@ZA[eax+edx], OFFSET ?set_local_float_value@@YGXPAUENTITY@@W4FLOAT_TYPES@@M@Z ; set_local_float_value

; 606  : 	fn_set_client_server_entity_float_value	[type][FLOAT_TYPE_DISTANCE][COMMS_MODEL_SERVER]							= set_server_float_value;

  001d9	69 45 08 78 05
	00 00		 imul	 eax, DWORD PTR _type$[ebp], 1400
  001e0	b9 08 00 00 00	 mov	 ecx, 8
  001e5	6b d1 1f	 imul	 edx, ecx, 31
  001e8	8d 84 10 00 00
	00 00		 lea	 eax, DWORD PTR ?fn_set_client_server_entity_float_value@@3PAY1KP@1P6GXPAUENTITY@@W4FLOAT_TYPES@@M@ZA[eax+edx]
  001ef	b9 04 00 00 00	 mov	 ecx, 4
  001f4	6b d1 00	 imul	 edx, ecx, 0
  001f7	c7 04 10 00 00
	00 00		 mov	 DWORD PTR [eax+edx], OFFSET ?set_server_float_value@@YGXPAUENTITY@@W4FLOAT_TYPES@@M@Z ; set_server_float_value

; 607  : 	fn_set_client_server_entity_float_value	[type][FLOAT_TYPE_DISTANCE][COMMS_MODEL_CLIENT]							= set_client_float_value;

  001fe	69 45 08 78 05
	00 00		 imul	 eax, DWORD PTR _type$[ebp], 1400
  00205	b9 08 00 00 00	 mov	 ecx, 8
  0020a	6b d1 1f	 imul	 edx, ecx, 31
  0020d	8d 84 10 00 00
	00 00		 lea	 eax, DWORD PTR ?fn_set_client_server_entity_float_value@@3PAY1KP@1P6GXPAUENTITY@@W4FLOAT_TYPES@@M@ZA[eax+edx]
  00214	b9 04 00 00 00	 mov	 ecx, 4
  00219	c1 e1 00	 shl	 ecx, 0
  0021c	c7 04 08 00 00
	00 00		 mov	 DWORD PTR [eax+ecx], OFFSET ?set_client_float_value@@YGXPAUENTITY@@W4FLOAT_TYPES@@M@Z ; set_client_float_value

; 608  : 	fn_get_local_entity_float_value				[type][FLOAT_TYPE_DISTANCE]													= get_local_float_value;

  00223	69 45 08 bc 02
	00 00		 imul	 eax, DWORD PTR _type$[ebp], 700
  0022a	b9 04 00 00 00	 mov	 ecx, 4
  0022f	6b d1 1f	 imul	 edx, ecx, 31
  00232	c7 84 10 00 00
	00 00 00 00 00
	00		 mov	 DWORD PTR ?fn_get_local_entity_float_value@@3PAY0KP@P6GMPAUENTITY@@W4FLOAT_TYPES@@@ZA[eax+edx], OFFSET ?get_local_float_value@@YGMPAUENTITY@@W4FLOAT_TYPES@@@Z ; get_local_float_value

; 609  : 
; 610  : 	fn_get_local_entity_float_value				[type][FLOAT_TYPE_FUEL_ECONOMY]												= get_local_float_value;

  0023d	69 45 08 bc 02
	00 00		 imul	 eax, DWORD PTR _type$[ebp], 700
  00244	b9 04 00 00 00	 mov	 ecx, 4
  00249	6b d1 2f	 imul	 edx, ecx, 47
  0024c	c7 84 10 00 00
	00 00 00 00 00
	00		 mov	 DWORD PTR ?fn_get_local_entity_float_value@@3PAY0KP@P6GMPAUENTITY@@W4FLOAT_TYPES@@@ZA[eax+edx], OFFSET ?get_local_float_value@@YGMPAUENTITY@@W4FLOAT_TYPES@@@Z ; get_local_float_value

; 611  : 
; 612  : 	fn_set_local_entity_raw_float_value			[type][FLOAT_TYPE_LOADING_DOOR_STATE]										= set_local_float_value;

  00257	69 45 08 bc 02
	00 00		 imul	 eax, DWORD PTR _type$[ebp], 700
  0025e	b9 04 00 00 00	 mov	 ecx, 4
  00263	6b d1 3f	 imul	 edx, ecx, 63
  00266	c7 84 10 00 00
	00 00 00 00 00
	00		 mov	 DWORD PTR ?fn_set_local_entity_raw_float_value@@3PAY0KP@P6GXPAUENTITY@@W4FLOAT_TYPES@@M@ZA[eax+edx], OFFSET ?set_local_float_value@@YGXPAUENTITY@@W4FLOAT_TYPES@@M@Z ; set_local_float_value

; 613  : 	fn_set_local_entity_float_value				[type][FLOAT_TYPE_LOADING_DOOR_STATE]										= set_local_float_value;

  00271	69 45 08 bc 02
	00 00		 imul	 eax, DWORD PTR _type$[ebp], 700
  00278	b9 04 00 00 00	 mov	 ecx, 4
  0027d	6b d1 3f	 imul	 edx, ecx, 63
  00280	c7 84 10 00 00
	00 00 00 00 00
	00		 mov	 DWORD PTR ?fn_set_local_entity_float_value@@3PAY0KP@P6GXPAUENTITY@@W4FLOAT_TYPES@@M@ZA[eax+edx], OFFSET ?set_local_float_value@@YGXPAUENTITY@@W4FLOAT_TYPES@@M@Z ; set_local_float_value

; 614  : 	fn_set_client_server_entity_float_value	[type][FLOAT_TYPE_LOADING_DOOR_STATE][COMMS_MODEL_SERVER]			= set_server_float_value;

  0028b	69 45 08 78 05
	00 00		 imul	 eax, DWORD PTR _type$[ebp], 1400
  00292	b9 08 00 00 00	 mov	 ecx, 8
  00297	6b d1 3f	 imul	 edx, ecx, 63
  0029a	8d 84 10 00 00
	00 00		 lea	 eax, DWORD PTR ?fn_set_client_server_entity_float_value@@3PAY1KP@1P6GXPAUENTITY@@W4FLOAT_TYPES@@M@ZA[eax+edx]
  002a1	b9 04 00 00 00	 mov	 ecx, 4
  002a6	6b d1 00	 imul	 edx, ecx, 0
  002a9	c7 04 10 00 00
	00 00		 mov	 DWORD PTR [eax+edx], OFFSET ?set_server_float_value@@YGXPAUENTITY@@W4FLOAT_TYPES@@M@Z ; set_server_float_value

; 615  : 	fn_set_client_server_entity_float_value	[type][FLOAT_TYPE_LOADING_DOOR_STATE][COMMS_MODEL_CLIENT]			= set_client_float_value;

  002b0	69 45 08 78 05
	00 00		 imul	 eax, DWORD PTR _type$[ebp], 1400
  002b7	b9 08 00 00 00	 mov	 ecx, 8
  002bc	6b d1 3f	 imul	 edx, ecx, 63
  002bf	8d 84 10 00 00
	00 00		 lea	 eax, DWORD PTR ?fn_set_client_server_entity_float_value@@3PAY1KP@1P6GXPAUENTITY@@W4FLOAT_TYPES@@M@ZA[eax+edx]
  002c6	b9 04 00 00 00	 mov	 ecx, 4
  002cb	c1 e1 00	 shl	 ecx, 0
  002ce	c7 04 08 00 00
	00 00		 mov	 DWORD PTR [eax+ecx], OFFSET ?set_client_float_value@@YGXPAUENTITY@@W4FLOAT_TYPES@@M@Z ; set_client_float_value

; 616  : 	fn_get_local_entity_float_value				[type][FLOAT_TYPE_LOADING_DOOR_STATE]										= get_local_float_value;

  002d5	69 45 08 bc 02
	00 00		 imul	 eax, DWORD PTR _type$[ebp], 700
  002dc	b9 04 00 00 00	 mov	 ecx, 4
  002e1	6b d1 3f	 imul	 edx, ecx, 63
  002e4	c7 84 10 00 00
	00 00 00 00 00
	00		 mov	 DWORD PTR ?fn_get_local_entity_float_value@@3PAY0KP@P6GMPAUENTITY@@W4FLOAT_TYPES@@@ZA[eax+edx], OFFSET ?get_local_float_value@@YGMPAUENTITY@@W4FLOAT_TYPES@@@Z ; get_local_float_value

; 617  : 
; 618  : 	fn_get_local_entity_float_value				[type][FLOAT_TYPE_MAX_3D_OBJECT_VISUAL_RANGE]  							= get_local_float_value;

  002ef	69 45 08 bc 02
	00 00		 imul	 eax, DWORD PTR _type$[ebp], 700
  002f6	b9 04 00 00 00	 mov	 ecx, 4
  002fb	6b d1 4b	 imul	 edx, ecx, 75
  002fe	c7 84 10 00 00
	00 00 00 00 00
	00		 mov	 DWORD PTR ?fn_get_local_entity_float_value@@3PAY0KP@P6GMPAUENTITY@@W4FLOAT_TYPES@@@ZA[eax+edx], OFFSET ?get_local_float_value@@YGMPAUENTITY@@W4FLOAT_TYPES@@@Z ; get_local_float_value

; 619  : 
; 620  : 	fn_get_local_entity_float_value				[type][FLOAT_TYPE_MAX_ACCELERATION]						  					= get_local_float_value;

  00309	69 45 08 bc 02
	00 00		 imul	 eax, DWORD PTR _type$[ebp], 700
  00310	b9 04 00 00 00	 mov	 ecx, 4
  00315	6b d1 4c	 imul	 edx, ecx, 76
  00318	c7 84 10 00 00
	00 00 00 00 00
	00		 mov	 DWORD PTR ?fn_get_local_entity_float_value@@3PAY0KP@P6GMPAUENTITY@@W4FLOAT_TYPES@@@ZA[eax+edx], OFFSET ?get_local_float_value@@YGMPAUENTITY@@W4FLOAT_TYPES@@@Z ; get_local_float_value

; 621  : 
; 622  : 	fn_get_local_entity_float_value				[type][FLOAT_TYPE_MAX_TURN_RATE]	  						  					= get_local_float_value;

  00323	69 45 08 bc 02
	00 00		 imul	 eax, DWORD PTR _type$[ebp], 700
  0032a	b9 04 00 00 00	 mov	 ecx, 4
  0032f	6b d1 4d	 imul	 edx, ecx, 77
  00332	c7 84 10 00 00
	00 00 00 00 00
	00		 mov	 DWORD PTR ?fn_get_local_entity_float_value@@3PAY0KP@P6GMPAUENTITY@@W4FLOAT_TYPES@@@ZA[eax+edx], OFFSET ?get_local_float_value@@YGMPAUENTITY@@W4FLOAT_TYPES@@@Z ; get_local_float_value

; 623  : 
; 624  : 	fn_get_local_entity_float_value				[type][FLOAT_TYPE_POTENTIAL_AIR_THREAT]									= get_local_float_value;

  0033d	69 45 08 bc 02
	00 00		 imul	 eax, DWORD PTR _type$[ebp], 700
  00344	b9 04 00 00 00	 mov	 ecx, 4
  00349	6b d1 5b	 imul	 edx, ecx, 91
  0034c	c7 84 10 00 00
	00 00 00 00 00
	00		 mov	 DWORD PTR ?fn_get_local_entity_float_value@@3PAY0KP@P6GMPAUENTITY@@W4FLOAT_TYPES@@@ZA[eax+edx], OFFSET ?get_local_float_value@@YGMPAUENTITY@@W4FLOAT_TYPES@@@Z ; get_local_float_value

; 625  : 
; 626  : 	fn_get_local_entity_float_value				[type][FLOAT_TYPE_POTENTIAL_SURFACE_THREAT]	 							= get_local_float_value;

  00357	69 45 08 bc 02
	00 00		 imul	 eax, DWORD PTR _type$[ebp], 700
  0035e	b9 04 00 00 00	 mov	 ecx, 4
  00363	6b d1 5e	 imul	 edx, ecx, 94
  00366	c7 84 10 00 00
	00 00 00 00 00
	00		 mov	 DWORD PTR ?fn_get_local_entity_float_value@@3PAY0KP@P6GMPAUENTITY@@W4FLOAT_TYPES@@@ZA[eax+edx], OFFSET ?get_local_float_value@@YGMPAUENTITY@@W4FLOAT_TYPES@@@Z ; get_local_float_value

; 627  : 
; 628  : 	fn_get_local_entity_float_value				[type][FLOAT_TYPE_POTENTIAL_SURFACE_TO_AIR_THREAT]	 					= get_local_float_value;

  00371	69 45 08 bc 02
	00 00		 imul	 eax, DWORD PTR _type$[ebp], 700
  00378	b9 04 00 00 00	 mov	 ecx, 4
  0037d	6b d1 5f	 imul	 edx, ecx, 95
  00380	c7 84 10 00 00
	00 00 00 00 00
	00		 mov	 DWORD PTR ?fn_get_local_entity_float_value@@3PAY0KP@P6GMPAUENTITY@@W4FLOAT_TYPES@@@ZA[eax+edx], OFFSET ?get_local_float_value@@YGMPAUENTITY@@W4FLOAT_TYPES@@@Z ; get_local_float_value

; 629  : 
; 630  : 	fn_get_local_entity_float_value				[type][FLOAT_TYPE_POTENTIAL_SURFACE_TO_SURFACE_THREAT]				= get_local_float_value;

  0038b	69 45 08 bc 02
	00 00		 imul	 eax, DWORD PTR _type$[ebp], 700
  00392	b9 04 00 00 00	 mov	 ecx, 4
  00397	6b d1 60	 imul	 edx, ecx, 96
  0039a	c7 84 10 00 00
	00 00 00 00 00
	00		 mov	 DWORD PTR ?fn_get_local_entity_float_value@@3PAY0KP@P6GMPAUENTITY@@W4FLOAT_TYPES@@@ZA[eax+edx], OFFSET ?get_local_float_value@@YGMPAUENTITY@@W4FLOAT_TYPES@@@Z ; get_local_float_value

; 631  : 
; 632  : 	fn_get_local_entity_float_value				[type][FLOAT_TYPE_POWER_OUTPUT]	 		  									= get_local_float_value;

  003a5	69 45 08 bc 02
	00 00		 imul	 eax, DWORD PTR _type$[ebp], 700
  003ac	b9 04 00 00 00	 mov	 ecx, 4
  003b1	6b d1 61	 imul	 edx, ecx, 97
  003b4	c7 84 10 00 00
	00 00 00 00 00
	00		 mov	 DWORD PTR ?fn_get_local_entity_float_value@@3PAY0KP@P6GMPAUENTITY@@W4FLOAT_TYPES@@@ZA[eax+edx], OFFSET ?get_local_float_value@@YGMPAUENTITY@@W4FLOAT_TYPES@@@Z ; get_local_float_value

; 633  : 
; 634  : 	fn_set_local_entity_raw_float_value			[type][FLOAT_TYPE_RADAR_ROTATION_STATE]									= set_local_float_value;

  003bf	69 45 08 bc 02
	00 00		 imul	 eax, DWORD PTR _type$[ebp], 700
  003c6	b9 04 00 00 00	 mov	 ecx, 4
  003cb	6b d1 69	 imul	 edx, ecx, 105
  003ce	c7 84 10 00 00
	00 00 00 00 00
	00		 mov	 DWORD PTR ?fn_set_local_entity_raw_float_value@@3PAY0KP@P6GXPAUENTITY@@W4FLOAT_TYPES@@M@ZA[eax+edx], OFFSET ?set_local_float_value@@YGXPAUENTITY@@W4FLOAT_TYPES@@M@Z ; set_local_float_value

; 635  : 	fn_set_local_entity_float_value				[type][FLOAT_TYPE_RADAR_ROTATION_STATE]									= set_local_float_value;

  003d9	69 45 08 bc 02
	00 00		 imul	 eax, DWORD PTR _type$[ebp], 700
  003e0	b9 04 00 00 00	 mov	 ecx, 4
  003e5	6b d1 69	 imul	 edx, ecx, 105
  003e8	c7 84 10 00 00
	00 00 00 00 00
	00		 mov	 DWORD PTR ?fn_set_local_entity_float_value@@3PAY0KP@P6GXPAUENTITY@@W4FLOAT_TYPES@@M@ZA[eax+edx], OFFSET ?set_local_float_value@@YGXPAUENTITY@@W4FLOAT_TYPES@@M@Z ; set_local_float_value

; 636  : 	fn_set_client_server_entity_float_value	[type][FLOAT_TYPE_RADAR_ROTATION_STATE][COMMS_MODEL_SERVER]			= set_server_float_value;

  003f3	69 45 08 78 05
	00 00		 imul	 eax, DWORD PTR _type$[ebp], 1400
  003fa	b9 08 00 00 00	 mov	 ecx, 8
  003ff	6b d1 69	 imul	 edx, ecx, 105
  00402	8d 84 10 00 00
	00 00		 lea	 eax, DWORD PTR ?fn_set_client_server_entity_float_value@@3PAY1KP@1P6GXPAUENTITY@@W4FLOAT_TYPES@@M@ZA[eax+edx]
  00409	b9 04 00 00 00	 mov	 ecx, 4
  0040e	6b d1 00	 imul	 edx, ecx, 0
  00411	c7 04 10 00 00
	00 00		 mov	 DWORD PTR [eax+edx], OFFSET ?set_server_float_value@@YGXPAUENTITY@@W4FLOAT_TYPES@@M@Z ; set_server_float_value

; 637  : 	fn_set_client_server_entity_float_value	[type][FLOAT_TYPE_RADAR_ROTATION_STATE][COMMS_MODEL_CLIENT]			= set_client_float_value;

  00418	69 45 08 78 05
	00 00		 imul	 eax, DWORD PTR _type$[ebp], 1400
  0041f	b9 08 00 00 00	 mov	 ecx, 8
  00424	6b d1 69	 imul	 edx, ecx, 105
  00427	8d 84 10 00 00
	00 00		 lea	 eax, DWORD PTR ?fn_set_client_server_entity_float_value@@3PAY1KP@1P6GXPAUENTITY@@W4FLOAT_TYPES@@M@ZA[eax+edx]
  0042e	b9 04 00 00 00	 mov	 ecx, 4
  00433	c1 e1 00	 shl	 ecx, 0
  00436	c7 04 08 00 00
	00 00		 mov	 DWORD PTR [eax+ecx], OFFSET ?set_client_float_value@@YGXPAUENTITY@@W4FLOAT_TYPES@@M@Z ; set_client_float_value

; 638  : 	fn_get_local_entity_float_value				[type][FLOAT_TYPE_RADAR_ROTATION_STATE]									= get_local_float_value;

  0043d	69 45 08 bc 02
	00 00		 imul	 eax, DWORD PTR _type$[ebp], 700
  00444	b9 04 00 00 00	 mov	 ecx, 4
  00449	6b d1 69	 imul	 edx, ecx, 105
  0044c	c7 84 10 00 00
	00 00 00 00 00
	00		 mov	 DWORD PTR ?fn_get_local_entity_float_value@@3PAY0KP@P6GMPAUENTITY@@W4FLOAT_TYPES@@@ZA[eax+edx], OFFSET ?get_local_float_value@@YGMPAUENTITY@@W4FLOAT_TYPES@@@Z ; get_local_float_value

; 639  : 
; 640  : 	fn_get_local_entity_float_value				[type][FLOAT_TYPE_RECON_RADIUS]												= get_local_float_value;

  00457	69 45 08 bc 02
	00 00		 imul	 eax, DWORD PTR _type$[ebp], 700
  0045e	b9 04 00 00 00	 mov	 ecx, 4
  00463	6b d1 6f	 imul	 edx, ecx, 111
  00466	c7 84 10 00 00
	00 00 00 00 00
	00		 mov	 DWORD PTR ?fn_get_local_entity_float_value@@3PAY0KP@P6GMPAUENTITY@@W4FLOAT_TYPES@@@ZA[eax+edx], OFFSET ?get_local_float_value@@YGMPAUENTITY@@W4FLOAT_TYPES@@@Z ; get_local_float_value

; 641  : 
; 642  : 	fn_set_local_entity_raw_float_value			[type][FLOAT_TYPE_SLEEP]														= set_local_float_value;

  00471	69 45 08 bc 02
	00 00		 imul	 eax, DWORD PTR _type$[ebp], 700
  00478	b9 04 00 00 00	 mov	 ecx, 4
  0047d	6b d1 75	 imul	 edx, ecx, 117
  00480	c7 84 10 00 00
	00 00 00 00 00
	00		 mov	 DWORD PTR ?fn_set_local_entity_raw_float_value@@3PAY0KP@P6GXPAUENTITY@@W4FLOAT_TYPES@@M@ZA[eax+edx], OFFSET ?set_local_float_value@@YGXPAUENTITY@@W4FLOAT_TYPES@@M@Z ; set_local_float_value

; 643  : 	fn_set_local_entity_float_value				[type][FLOAT_TYPE_SLEEP]														= set_local_float_value;

  0048b	69 45 08 bc 02
	00 00		 imul	 eax, DWORD PTR _type$[ebp], 700
  00492	b9 04 00 00 00	 mov	 ecx, 4
  00497	6b d1 75	 imul	 edx, ecx, 117
  0049a	c7 84 10 00 00
	00 00 00 00 00
	00		 mov	 DWORD PTR ?fn_set_local_entity_float_value@@3PAY0KP@P6GXPAUENTITY@@W4FLOAT_TYPES@@M@ZA[eax+edx], OFFSET ?set_local_float_value@@YGXPAUENTITY@@W4FLOAT_TYPES@@M@Z ; set_local_float_value

; 644  : 	fn_set_client_server_entity_float_value	[type][FLOAT_TYPE_SLEEP][COMMS_MODEL_SERVER]								= set_server_float_value;

  004a5	69 45 08 78 05
	00 00		 imul	 eax, DWORD PTR _type$[ebp], 1400
  004ac	b9 08 00 00 00	 mov	 ecx, 8
  004b1	6b d1 75	 imul	 edx, ecx, 117
  004b4	8d 84 10 00 00
	00 00		 lea	 eax, DWORD PTR ?fn_set_client_server_entity_float_value@@3PAY1KP@1P6GXPAUENTITY@@W4FLOAT_TYPES@@M@ZA[eax+edx]
  004bb	b9 04 00 00 00	 mov	 ecx, 4
  004c0	6b d1 00	 imul	 edx, ecx, 0
  004c3	c7 04 10 00 00
	00 00		 mov	 DWORD PTR [eax+edx], OFFSET ?set_server_float_value@@YGXPAUENTITY@@W4FLOAT_TYPES@@M@Z ; set_server_float_value

; 645  : 	fn_set_client_server_entity_float_value	[type][FLOAT_TYPE_SLEEP][COMMS_MODEL_CLIENT]								= set_client_float_value;

  004ca	69 45 08 78 05
	00 00		 imul	 eax, DWORD PTR _type$[ebp], 1400
  004d1	b9 08 00 00 00	 mov	 ecx, 8
  004d6	6b d1 75	 imul	 edx, ecx, 117
  004d9	8d 84 10 00 00
	00 00		 lea	 eax, DWORD PTR ?fn_set_client_server_entity_float_value@@3PAY1KP@1P6GXPAUENTITY@@W4FLOAT_TYPES@@M@ZA[eax+edx]
  004e0	b9 04 00 00 00	 mov	 ecx, 4
  004e5	c1 e1 00	 shl	 ecx, 0
  004e8	c7 04 08 00 00
	00 00		 mov	 DWORD PTR [eax+ecx], OFFSET ?set_client_float_value@@YGXPAUENTITY@@W4FLOAT_TYPES@@M@Z ; set_client_float_value

; 646  : 	fn_get_local_entity_float_value				[type][FLOAT_TYPE_SLEEP]														= get_local_float_value;

  004ef	69 45 08 bc 02
	00 00		 imul	 eax, DWORD PTR _type$[ebp], 700
  004f6	b9 04 00 00 00	 mov	 ecx, 4
  004fb	6b d1 75	 imul	 edx, ecx, 117
  004fe	c7 84 10 00 00
	00 00 00 00 00
	00		 mov	 DWORD PTR ?fn_get_local_entity_float_value@@3PAY0KP@P6GMPAUENTITY@@W4FLOAT_TYPES@@@ZA[eax+edx], OFFSET ?get_local_float_value@@YGMPAUENTITY@@W4FLOAT_TYPES@@@Z ; get_local_float_value

; 647  : 
; 648  : 	fn_get_local_entity_float_value				[type][FLOAT_TYPE_SURFACE_SCAN_RANGE]	 									= get_local_float_value;

  00509	69 45 08 bc 02
	00 00		 imul	 eax, DWORD PTR _type$[ebp], 700
  00510	b9 04 00 00 00	 mov	 ecx, 4
  00515	6b d1 7f	 imul	 edx, ecx, 127
  00518	c7 84 10 00 00
	00 00 00 00 00
	00		 mov	 DWORD PTR ?fn_get_local_entity_float_value@@3PAY0KP@P6GMPAUENTITY@@W4FLOAT_TYPES@@@ZA[eax+edx], OFFSET ?get_local_float_value@@YGMPAUENTITY@@W4FLOAT_TYPES@@@Z ; get_local_float_value

; 649  : 
; 650  : 	fn_set_local_entity_raw_float_value			[type][FLOAT_TYPE_TARGET_FIRE_TIMER]										= set_local_float_value;

  00523	69 45 08 bc 02
	00 00		 imul	 eax, DWORD PTR _type$[ebp], 700
  0052a	b9 04 00 00 00	 mov	 ecx, 4
  0052f	69 d1 83 00 00
	00		 imul	 edx, ecx, 131
  00535	c7 84 10 00 00
	00 00 00 00 00
	00		 mov	 DWORD PTR ?fn_set_local_entity_raw_float_value@@3PAY0KP@P6GXPAUENTITY@@W4FLOAT_TYPES@@M@ZA[eax+edx], OFFSET ?set_local_float_value@@YGXPAUENTITY@@W4FLOAT_TYPES@@M@Z ; set_local_float_value

; 651  : 	fn_set_local_entity_float_value				[type][FLOAT_TYPE_TARGET_FIRE_TIMER]										= set_local_float_value;

  00540	69 45 08 bc 02
	00 00		 imul	 eax, DWORD PTR _type$[ebp], 700
  00547	b9 04 00 00 00	 mov	 ecx, 4
  0054c	69 d1 83 00 00
	00		 imul	 edx, ecx, 131
  00552	c7 84 10 00 00
	00 00 00 00 00
	00		 mov	 DWORD PTR ?fn_set_local_entity_float_value@@3PAY0KP@P6GXPAUENTITY@@W4FLOAT_TYPES@@M@ZA[eax+edx], OFFSET ?set_local_float_value@@YGXPAUENTITY@@W4FLOAT_TYPES@@M@Z ; set_local_float_value

; 652  : 	fn_get_local_entity_float_value				[type][FLOAT_TYPE_TARGET_FIRE_TIMER]	 		  							= get_local_float_value;

  0055d	69 45 08 bc 02
	00 00		 imul	 eax, DWORD PTR _type$[ebp], 700
  00564	b9 04 00 00 00	 mov	 ecx, 4
  00569	69 d1 83 00 00
	00		 imul	 edx, ecx, 131
  0056f	c7 84 10 00 00
	00 00 00 00 00
	00		 mov	 DWORD PTR ?fn_get_local_entity_float_value@@3PAY0KP@P6GMPAUENTITY@@W4FLOAT_TYPES@@@ZA[eax+edx], OFFSET ?get_local_float_value@@YGMPAUENTITY@@W4FLOAT_TYPES@@@Z ; get_local_float_value

; 653  : 
; 654  : 	fn_get_local_entity_float_value				[type][FLOAT_TYPE_TARGET_PRIORITY_AIR_ATTACK]	  						= get_local_float_value;

  0057a	69 45 08 bc 02
	00 00		 imul	 eax, DWORD PTR _type$[ebp], 700
  00581	b9 04 00 00 00	 mov	 ecx, 4
  00586	69 d1 84 00 00
	00		 imul	 edx, ecx, 132
  0058c	c7 84 10 00 00
	00 00 00 00 00
	00		 mov	 DWORD PTR ?fn_get_local_entity_float_value@@3PAY0KP@P6GMPAUENTITY@@W4FLOAT_TYPES@@@ZA[eax+edx], OFFSET ?get_local_float_value@@YGMPAUENTITY@@W4FLOAT_TYPES@@@Z ; get_local_float_value

; 655  : 
; 656  : 	fn_get_local_entity_float_value				[type][FLOAT_TYPE_TARGET_PRIORITY_GROUND_ATTACK]						= get_local_float_value;

  00597	69 45 08 bc 02
	00 00		 imul	 eax, DWORD PTR _type$[ebp], 700
  0059e	b9 04 00 00 00	 mov	 ecx, 4
  005a3	69 d1 85 00 00
	00		 imul	 edx, ecx, 133
  005a9	c7 84 10 00 00
	00 00 00 00 00
	00		 mov	 DWORD PTR ?fn_get_local_entity_float_value@@3PAY0KP@P6GMPAUENTITY@@W4FLOAT_TYPES@@@ZA[eax+edx], OFFSET ?get_local_float_value@@YGMPAUENTITY@@W4FLOAT_TYPES@@@Z ; get_local_float_value

; 657  : 
; 658  : 	fn_get_local_entity_float_value				[type][FLOAT_TYPE_TARGET_SCAN_DELAY]	 		  	  						= get_local_float_value;

  005b4	69 45 08 bc 02
	00 00		 imul	 eax, DWORD PTR _type$[ebp], 700
  005bb	b9 04 00 00 00	 mov	 ecx, 4
  005c0	69 d1 86 00 00
	00		 imul	 edx, ecx, 134
  005c6	c7 84 10 00 00
	00 00 00 00 00
	00		 mov	 DWORD PTR ?fn_get_local_entity_float_value@@3PAY0KP@P6GMPAUENTITY@@W4FLOAT_TYPES@@@ZA[eax+edx], OFFSET ?get_local_float_value@@YGMPAUENTITY@@W4FLOAT_TYPES@@@Z ; get_local_float_value

; 659  : 
; 660  : 	fn_set_local_entity_raw_float_value			[type][FLOAT_TYPE_TARGET_SCAN_TIMER]										= set_local_float_value;

  005d1	69 45 08 bc 02
	00 00		 imul	 eax, DWORD PTR _type$[ebp], 700
  005d8	b9 04 00 00 00	 mov	 ecx, 4
  005dd	69 d1 87 00 00
	00		 imul	 edx, ecx, 135
  005e3	c7 84 10 00 00
	00 00 00 00 00
	00		 mov	 DWORD PTR ?fn_set_local_entity_raw_float_value@@3PAY0KP@P6GXPAUENTITY@@W4FLOAT_TYPES@@M@ZA[eax+edx], OFFSET ?set_local_float_value@@YGXPAUENTITY@@W4FLOAT_TYPES@@M@Z ; set_local_float_value

; 661  : 	fn_set_local_entity_float_value				[type][FLOAT_TYPE_TARGET_SCAN_TIMER]										= set_local_float_value;

  005ee	69 45 08 bc 02
	00 00		 imul	 eax, DWORD PTR _type$[ebp], 700
  005f5	b9 04 00 00 00	 mov	 ecx, 4
  005fa	69 d1 87 00 00
	00		 imul	 edx, ecx, 135
  00600	c7 84 10 00 00
	00 00 00 00 00
	00		 mov	 DWORD PTR ?fn_set_local_entity_float_value@@3PAY0KP@P6GXPAUENTITY@@W4FLOAT_TYPES@@M@ZA[eax+edx], OFFSET ?set_local_float_value@@YGXPAUENTITY@@W4FLOAT_TYPES@@M@Z ; set_local_float_value

; 662  : 	fn_get_local_entity_float_value				[type][FLOAT_TYPE_TARGET_SCAN_TIMER]	 		  							= get_local_float_value;

  0060b	69 45 08 bc 02
	00 00		 imul	 eax, DWORD PTR _type$[ebp], 700
  00612	b9 04 00 00 00	 mov	 ecx, 4
  00617	69 d1 87 00 00
	00		 imul	 edx, ecx, 135
  0061d	c7 84 10 00 00
	00 00 00 00 00
	00		 mov	 DWORD PTR ?fn_get_local_entity_float_value@@3PAY0KP@P6GMPAUENTITY@@W4FLOAT_TYPES@@@ZA[eax+edx], OFFSET ?get_local_float_value@@YGMPAUENTITY@@W4FLOAT_TYPES@@@Z ; get_local_float_value

; 663  : 
; 664  : 	fn_get_local_entity_float_value				[type][FLOAT_TYPE_TERRAIN_ELEVATION]	 		  	  						= get_local_float_value;

  00628	69 45 08 bc 02
	00 00		 imul	 eax, DWORD PTR _type$[ebp], 700
  0062f	b9 04 00 00 00	 mov	 ecx, 4
  00634	69 d1 8d 00 00
	00		 imul	 edx, ecx, 141
  0063a	c7 84 10 00 00
	00 00 00 00 00
	00		 mov	 DWORD PTR ?fn_get_local_entity_float_value@@3PAY0KP@P6GMPAUENTITY@@W4FLOAT_TYPES@@@ZA[eax+edx], OFFSET ?get_local_float_value@@YGMPAUENTITY@@W4FLOAT_TYPES@@@Z ; get_local_float_value

; 665  : 
; 666  : 	fn_set_local_entity_raw_float_value			[type][FLOAT_TYPE_VIEW_INTEREST_LEVEL]										= set_local_float_value;

  00645	69 45 08 bc 02
	00 00		 imul	 eax, DWORD PTR _type$[ebp], 700
  0064c	b9 04 00 00 00	 mov	 ecx, 4
  00651	69 d1 95 00 00
	00		 imul	 edx, ecx, 149
  00657	c7 84 10 00 00
	00 00 00 00 00
	00		 mov	 DWORD PTR ?fn_set_local_entity_raw_float_value@@3PAY0KP@P6GXPAUENTITY@@W4FLOAT_TYPES@@M@ZA[eax+edx], OFFSET ?set_local_float_value@@YGXPAUENTITY@@W4FLOAT_TYPES@@M@Z ; set_local_float_value

; 667  : 	fn_set_local_entity_float_value				[type][FLOAT_TYPE_VIEW_INTEREST_LEVEL]										= set_local_float_value;

  00662	69 45 08 bc 02
	00 00		 imul	 eax, DWORD PTR _type$[ebp], 700
  00669	b9 04 00 00 00	 mov	 ecx, 4
  0066e	69 d1 95 00 00
	00		 imul	 edx, ecx, 149
  00674	c7 84 10 00 00
	00 00 00 00 00
	00		 mov	 DWORD PTR ?fn_set_local_entity_float_value@@3PAY0KP@P6GXPAUENTITY@@W4FLOAT_TYPES@@M@ZA[eax+edx], OFFSET ?set_local_float_value@@YGXPAUENTITY@@W4FLOAT_TYPES@@M@Z ; set_local_float_value

; 668  : 	fn_get_local_entity_float_value				[type][FLOAT_TYPE_VIEW_INTEREST_LEVEL]										= get_local_float_value;

  0067f	69 45 08 bc 02
	00 00		 imul	 eax, DWORD PTR _type$[ebp], 700
  00686	b9 04 00 00 00	 mov	 ecx, 4
  0068b	69 d1 95 00 00
	00		 imul	 edx, ecx, 149
  00691	c7 84 10 00 00
	00 00 00 00 00
	00		 mov	 DWORD PTR ?fn_get_local_entity_float_value@@3PAY0KP@P6GMPAUENTITY@@W4FLOAT_TYPES@@@ZA[eax+edx], OFFSET ?get_local_float_value@@YGMPAUENTITY@@W4FLOAT_TYPES@@@Z ; get_local_float_value

; 669  : 
; 670  : 	fn_set_local_entity_raw_float_value			[type][FLOAT_TYPE_WEAPON_BURST_TIMER]										= set_local_float_value;

  0069c	69 45 08 bc 02
	00 00		 imul	 eax, DWORD PTR _type$[ebp], 700
  006a3	b9 04 00 00 00	 mov	 ecx, 4
  006a8	69 d1 96 00 00
	00		 imul	 edx, ecx, 150
  006ae	c7 84 10 00 00
	00 00 00 00 00
	00		 mov	 DWORD PTR ?fn_set_local_entity_raw_float_value@@3PAY0KP@P6GXPAUENTITY@@W4FLOAT_TYPES@@M@ZA[eax+edx], OFFSET ?set_local_float_value@@YGXPAUENTITY@@W4FLOAT_TYPES@@M@Z ; set_local_float_value

; 671  : 	fn_set_local_entity_float_value				[type][FLOAT_TYPE_WEAPON_BURST_TIMER]										= set_local_float_value;

  006b9	69 45 08 bc 02
	00 00		 imul	 eax, DWORD PTR _type$[ebp], 700
  006c0	b9 04 00 00 00	 mov	 ecx, 4
  006c5	69 d1 96 00 00
	00		 imul	 edx, ecx, 150
  006cb	c7 84 10 00 00
	00 00 00 00 00
	00		 mov	 DWORD PTR ?fn_set_local_entity_float_value@@3PAY0KP@P6GXPAUENTITY@@W4FLOAT_TYPES@@M@ZA[eax+edx], OFFSET ?set_local_float_value@@YGXPAUENTITY@@W4FLOAT_TYPES@@M@Z ; set_local_float_value

; 672  : 	fn_get_local_entity_float_value				[type][FLOAT_TYPE_WEAPON_BURST_TIMER]										= get_local_float_value;

  006d6	69 45 08 bc 02
	00 00		 imul	 eax, DWORD PTR _type$[ebp], 700
  006dd	b9 04 00 00 00	 mov	 ecx, 4
  006e2	69 d1 96 00 00
	00		 imul	 edx, ecx, 150
  006e8	c7 84 10 00 00
	00 00 00 00 00
	00		 mov	 DWORD PTR ?fn_get_local_entity_float_value@@3PAY0KP@P6GMPAUENTITY@@W4FLOAT_TYPES@@@ZA[eax+edx], OFFSET ?get_local_float_value@@YGMPAUENTITY@@W4FLOAT_TYPES@@@Z ; get_local_float_value

; 673  : 
; 674  : 	fn_set_local_entity_raw_float_value			[type][FLOAT_TYPE_WEAPON_SYSTEM_READY_STATE]								= set_local_float_value;

  006f3	69 45 08 bc 02
	00 00		 imul	 eax, DWORD PTR _type$[ebp], 700
  006fa	b9 04 00 00 00	 mov	 ecx, 4
  006ff	69 d1 9a 00 00
	00		 imul	 edx, ecx, 154
  00705	c7 84 10 00 00
	00 00 00 00 00
	00		 mov	 DWORD PTR ?fn_set_local_entity_raw_float_value@@3PAY0KP@P6GXPAUENTITY@@W4FLOAT_TYPES@@M@ZA[eax+edx], OFFSET ?set_local_float_value@@YGXPAUENTITY@@W4FLOAT_TYPES@@M@Z ; set_local_float_value

; 675  : 	fn_set_local_entity_float_value				[type][FLOAT_TYPE_WEAPON_SYSTEM_READY_STATE]								= set_local_float_value;

  00710	69 45 08 bc 02
	00 00		 imul	 eax, DWORD PTR _type$[ebp], 700
  00717	b9 04 00 00 00	 mov	 ecx, 4
  0071c	69 d1 9a 00 00
	00		 imul	 edx, ecx, 154
  00722	c7 84 10 00 00
	00 00 00 00 00
	00		 mov	 DWORD PTR ?fn_set_local_entity_float_value@@3PAY0KP@P6GXPAUENTITY@@W4FLOAT_TYPES@@M@ZA[eax+edx], OFFSET ?set_local_float_value@@YGXPAUENTITY@@W4FLOAT_TYPES@@M@Z ; set_local_float_value

; 676  : 	fn_set_client_server_entity_float_value	[type][FLOAT_TYPE_WEAPON_SYSTEM_READY_STATE][COMMS_MODEL_SERVER]	= set_server_float_value;

  0072d	69 45 08 78 05
	00 00		 imul	 eax, DWORD PTR _type$[ebp], 1400
  00734	b9 08 00 00 00	 mov	 ecx, 8
  00739	69 d1 9a 00 00
	00		 imul	 edx, ecx, 154
  0073f	8d 84 10 00 00
	00 00		 lea	 eax, DWORD PTR ?fn_set_client_server_entity_float_value@@3PAY1KP@1P6GXPAUENTITY@@W4FLOAT_TYPES@@M@ZA[eax+edx]
  00746	b9 04 00 00 00	 mov	 ecx, 4
  0074b	6b d1 00	 imul	 edx, ecx, 0
  0074e	c7 04 10 00 00
	00 00		 mov	 DWORD PTR [eax+edx], OFFSET ?set_server_float_value@@YGXPAUENTITY@@W4FLOAT_TYPES@@M@Z ; set_server_float_value

; 677  : 	fn_set_client_server_entity_float_value	[type][FLOAT_TYPE_WEAPON_SYSTEM_READY_STATE][COMMS_MODEL_CLIENT]	= set_client_float_value;

  00755	69 45 08 78 05
	00 00		 imul	 eax, DWORD PTR _type$[ebp], 1400
  0075c	b9 08 00 00 00	 mov	 ecx, 8
  00761	69 d1 9a 00 00
	00		 imul	 edx, ecx, 154
  00767	8d 84 10 00 00
	00 00		 lea	 eax, DWORD PTR ?fn_set_client_server_entity_float_value@@3PAY1KP@1P6GXPAUENTITY@@W4FLOAT_TYPES@@M@ZA[eax+edx]
  0076e	b9 04 00 00 00	 mov	 ecx, 4
  00773	c1 e1 00	 shl	 ecx, 0
  00776	c7 04 08 00 00
	00 00		 mov	 DWORD PTR [eax+ecx], OFFSET ?set_client_float_value@@YGXPAUENTITY@@W4FLOAT_TYPES@@M@Z ; set_client_float_value

; 678  : 	fn_get_local_entity_float_value				[type][FLOAT_TYPE_WEAPON_SYSTEM_READY_STATE]								= get_local_float_value;

  0077d	69 45 08 bc 02
	00 00		 imul	 eax, DWORD PTR _type$[ebp], 700
  00784	b9 04 00 00 00	 mov	 ecx, 4
  00789	69 d1 9a 00 00
	00		 imul	 edx, ecx, 154
  0078f	c7 84 10 00 00
	00 00 00 00 00
	00		 mov	 DWORD PTR ?fn_get_local_entity_float_value@@3PAY0KP@P6GMPAUENTITY@@W4FLOAT_TYPES@@@ZA[eax+edx], OFFSET ?get_local_float_value@@YGMPAUENTITY@@W4FLOAT_TYPES@@@Z ; get_local_float_value

; 679  : }

  0079a	5f		 pop	 edi
  0079b	5e		 pop	 esi
  0079c	5b		 pop	 ebx
  0079d	8b e5		 mov	 esp, ebp
  0079f	5d		 pop	 ebp
  007a0	c2 04 00	 ret	 4
?overload_vehicle_float_value_functions@@YGXW4ENTITY_TYPES@@@Z ENDP ; overload_vehicle_float_value_functions
_TEXT	ENDS
END
