; Listing generated by Microsoft (R) Optimizing Compiler Version 19.16.27045.0 

	TITLE	C:\Users\nhv90\Projects\eech\aphavoc\source\entity\mobile\vehicle\vh_wpn.c
	.686P
	.XMM
	include listing.inc
	.model	flat

INCLUDELIB MSVCRTD
INCLUDELIB OLDNAMES

PUBLIC	_acosf
PUBLIC	_fabsf
PUBLIC	?acos@@YGMM@Z					; acos
PUBLIC	?fabs@@YGMM@Z					; fabs
PUBLIC	?update_vehicle_weapon_fire@@YGXPAUENTITY@@@Z	; update_vehicle_weapon_fire
PUBLIC	?update_vehicle_decoy_release@@YGXPAUENTITY@@@Z	; update_vehicle_decoy_release
PUBLIC	??$max@M@std@@YGABMABM0@Z			; std::max<float>
PUBLIC	??_C@_02DKCKIIND@?$CFs@				; `string'
PUBLIC	?__LINE__Var@?0??update_vehicle_weapon_fire@@YGXPAUENTITY@@@Z@4JA ; `update_vehicle_weapon_fire'::`1'::__LINE__Var
PUBLIC	??_C@_0EL@DIAIKBFG@c?3?2users?2nhv90?2projects?2eech?2ap@ ; `string'
PUBLIC	??_C@_02LFNMGJAP@en@				; `string'
PUBLIC	??_C@_0CJ@DMBLBJBK@get_comms_model?5?$CI?$CJ?5?$DN?$DN?5COMMS_MOD@ ; `string'
PUBLIC	??_C@_0BJ@LJHBKJNM@VH_WPN?3?5Continuing?5Burst@	; `string'
PUBLIC	??_C@_0BO@PKKECJHJ@VH_WPN?3?5Stop?5Burst?5this?5frame@ ; `string'
PUBLIC	??_C@_0CI@OLHHLDFG@VH_WPN?3?5Not?5Firing?5?9?5AI?5fire?5su@ ; `string'
PUBLIC	??_C@_0BO@HKKCJLDG@VH_WPN?3?5Not?5Firing?5?9?5Sleeping@ ; `string'
PUBLIC	??_C@_0BP@KBBBDDEL@VH_WPN?3?5Not?5Firing?5?9?5No?5Target@ ; `string'
PUBLIC	??_C@_0BP@JDOBKPCF@VH_WPN?3?5Not?5Firing?5?9?5No?5weapon@ ; `string'
PUBLIC	??_C@_0CN@MLDFJBKO@VH_WPN?3?5Not?5Firing?5?9?5Weapon?5sys@ ; `string'
PUBLIC	??_C@_0CC@NELBHMPJ@VH_WPN?3?5Not?5Firing?5?9?5out?5of?5ran@ ; `string'
PUBLIC	??_C@_0BO@BMOAINNA@VH_WPN?3?5Not?5Firing?5?9?5altitude@ ; `string'
PUBLIC	??_C@_0CO@ENHBLPH@VH_WPN?3?5Not?5Firing?5?9?5outside?5la@ ; `string'
PUBLIC	??_C@_0O@HEGILGAC@weapon_vector@		; `string'
PUBLIC	??_C@_0BI@KLDNOBIJ@weapon_to_target_vector@	; `string'
PUBLIC	??_C@_0CO@GJBKFKO@VH_WPN?3?5Not?5Firing?5?9?5outside?5la@ ; `string'
PUBLIC	??_C@_0CG@IKLDPIKH@VH_WPN?3?5Not?5Firing?5?9?5No?5Line?5Of@ ; `string'
PUBLIC	??_C@_0BG@PELLELGI@VH_WPN?3?5Firing?5weapon@	; `string'
PUBLIC	??_C@_05MGJOOGAJ@group@				; `string'
PUBLIC	?__LINE__Var@?0??vehicle_select_best_weapon@@YGHPAUENTITY@@0@Z@4JA ; `vehicle_select_best_weapon'::`1'::__LINE__Var
PUBLIC	??_C@_04GGKLLKOO@task@				; `string'
PUBLIC	?__LINE__Var@?0??update_vehicle_decoy_release@@YGXPAUENTITY@@@Z@4JA ; `update_vehicle_decoy_release'::`1'::__LINE__Var
PUBLIC	?__LINE__Var@?0??get_fire_timer_difficulty_factor@@YGMPAUENTITY@@@Z@4JA ; `get_fire_timer_difficulty_factor'::`1'::__LINE__Var
PUBLIC	??_C@_0DH@KAFPECGF@VH_WPN?3?5No?5fire?5timer?5modifier?5@ ; `string'
PUBLIC	??_C@_0BD@FEEMDEPI@invalid?5comparator@		; `string'
PUBLIC	??_C@_0GK@JMBMHIBC@c?3?2program?5files?5?$CIx86?$CJ?2microsof@ ; `string'
PUBLIC	??_C@_1NE@FKBPBJEB@?$AAc?$AA?3?$AA?2?$AAp?$AAr?$AAo?$AAg?$AAr?$AAa?$AAm?$AA?5?$AAf?$AAi?$AAl?$AAe@ ; `string'
PUBLIC	??_C@_1BC@ICCOKLEG@?$AAs?$AAt?$AAd?$AA?3?$AA?3?$AAm?$AAa?$AAx@ ; `string'
PUBLIC	??_C@_1CK@NDNHPKPI@?$AA?$CC?$AAi?$AAn?$AAv?$AAa?$AAl?$AAi?$AAd?$AA?5?$AAc?$AAo?$AAm?$AAp?$AAa?$AAr@ ; `string'
PUBLIC	__real@0000000000000000
PUBLIC	__real@3f00002000400080
PUBLIC	__real@3f10000000000000
PUBLIC	__real@3f800000
PUBLIC	__real@3fb999999999999a
PUBLIC	__real@3fd54fdf3b645a1d
PUBLIC	__real@3fe0000000000000
PUBLIC	__real@3feb333333333333
PUBLIC	__real@3ff0000000000000
PUBLIC	__real@4000000000000000
PUBLIC	__real@4024000000000000
PUBLIC	__real@4059000000000000
EXTRN	__imp___invalid_parameter:PROC
EXTRN	__imp___CrtDbgReport:PROC
EXTRN	_acos:PROC
EXTRN	_fabs:PROC
EXTRN	?process_assert@@YGXPBD0H@Z:PROC		; process_assert
EXTRN	?debug_fatal@@YAXPBDZZ:PROC			; debug_fatal
EXTRN	?debug_log@@YAXPBDZZ:PROC			; debug_log
EXTRN	?get_3d_unit_vector_dot_product@@YGMPBUVEC3D@@0@Z:PROC ; get_3d_unit_vector_dot_product
EXTRN	?get_3d_range@@YGMPBUVEC3D@@0@Z:PROC		; get_3d_range
EXTRN	?get_approx_3d_range@@YGMPBUVEC3D@@0@Z:PROC	; get_approx_3d_range
EXTRN	?get_local_entity_rearming_sleep_time@@YGMPAUENTITY@@@Z:PROC ; get_local_entity_rearming_sleep_time
EXTRN	?notify_local_entity@@YAHW4ENTITY_MESSAGES@@PAUENTITY@@1ZZ:PROC ; notify_local_entity
EXTRN	?check_entity_line_of_sight@@YGHPAUENTITY@@0W4MOBILE_LOS_CHECK_CRITERIA@@@Z:PROC ; check_entity_line_of_sight
EXTRN	?launch_client_server_weapon@@YGXPAUENTITY@@H@Z:PROC ; launch_client_server_weapon
EXTRN	?get_decoy_type_for_weapon@@YGHPAUENTITY@@@Z:PROC ; get_decoy_type_for_weapon
EXTRN	?get_best_weapon_for_target@@YGHPAUENTITY@@0I@Z:PROC ; get_best_weapon_for_target
EXTRN	?pause_client_server_continuous_weapon_sound_effect@@YGXPAUENTITY@@H@Z:PROC ; pause_client_server_continuous_weapon_sound_effect
EXTRN	?system_delta_time@@3MA:DWORD			; system_delta_time
EXTRN	?random_number_seed@@3HA:DWORD			; random_number_seed
EXTRN	?null_entity_pointer_message@@3PBDB:DWORD	; null_entity_pointer_message
EXTRN	?system_comms_model@@3W4COMMS_MODEL_TYPES@@A:DWORD ; system_comms_model
EXTRN	?overload_invalid_list_type_message@@3PBDB:DWORD ; overload_invalid_list_type_message
EXTRN	?fn_get_local_entity_first_child@@3PAY0CN@P6GPAUENTITY@@PAU1@W4LIST_TYPES@@@ZA:BYTE ; fn_get_local_entity_first_child
EXTRN	?fn_get_local_entity_parent@@3PAY0CN@P6GPAUENTITY@@PAU1@W4LIST_TYPES@@@ZA:BYTE ; fn_get_local_entity_parent
EXTRN	?fn_get_local_entity_child_succ@@3PAY0CN@P6GPAUENTITY@@PAU1@W4LIST_TYPES@@@ZA:BYTE ; fn_get_local_entity_child_succ
EXTRN	?overload_invalid_float_type_message@@3PBDB:DWORD ; overload_invalid_float_type_message
EXTRN	?fn_set_local_entity_float_value@@3PAY0KP@P6GXPAUENTITY@@W4FLOAT_TYPES@@M@ZA:BYTE ; fn_set_local_entity_float_value
EXTRN	?fn_get_local_entity_float_value@@3PAY0KP@P6GMPAUENTITY@@W4FLOAT_TYPES@@@ZA:BYTE ; fn_get_local_entity_float_value
EXTRN	?overload_invalid_int_type_message@@3PBDB:DWORD	; overload_invalid_int_type_message
EXTRN	?fn_set_client_server_entity_int_value@@3PAY1BBH@1P6GXPAUENTITY@@W4INT_TYPES@@H@ZA:BYTE ; fn_set_client_server_entity_int_value
EXTRN	?fn_get_local_entity_int_value@@3PAY0BBH@P6GHPAUENTITY@@W4INT_TYPES@@@ZA:BYTE ; fn_get_local_entity_int_value
EXTRN	?overload_invalid_vec3d_type_message@@3PBDB:DWORD ; overload_invalid_vec3d_type_message
EXTRN	?fn_get_local_entity_vec3d_ptr@@3PAY0BI@P6GPAUVEC3D@@PAUENTITY@@W4VEC3D_TYPES@@@ZA:BYTE ; fn_get_local_entity_vec3d_ptr
EXTRN	?entities@@3PAUENTITY@@A:DWORD			; entities
EXTRN	?weapon_database@@3PAUWEAPON_DATA@@A:BYTE	; weapon_database
EXTRN	?vehicle_database@@3PAUVEHICLE_DATA@@A:BYTE	; vehicle_database
EXTRN	?session_entity@@3PAUENTITY@@A:DWORD		; session_entity
EXTRN	__fltused:DWORD
;	COMDAT __real@4059000000000000
CONST	SEGMENT
__real@4059000000000000 DQ 04059000000000000r	; 100
CONST	ENDS
;	COMDAT __real@4024000000000000
CONST	SEGMENT
__real@4024000000000000 DQ 04024000000000000r	; 10
CONST	ENDS
;	COMDAT __real@4000000000000000
CONST	SEGMENT
__real@4000000000000000 DQ 04000000000000000r	; 2
CONST	ENDS
;	COMDAT __real@3ff0000000000000
CONST	SEGMENT
__real@3ff0000000000000 DQ 03ff0000000000000r	; 1
CONST	ENDS
;	COMDAT __real@3feb333333333333
CONST	SEGMENT
__real@3feb333333333333 DQ 03feb333333333333r	; 0.85
CONST	ENDS
;	COMDAT __real@3fe0000000000000
CONST	SEGMENT
__real@3fe0000000000000 DQ 03fe0000000000000r	; 0.5
CONST	ENDS
;	COMDAT __real@3fd54fdf3b645a1d
CONST	SEGMENT
__real@3fd54fdf3b645a1d DQ 03fd54fdf3b645a1dr	; 0.333
CONST	ENDS
;	COMDAT __real@3fb999999999999a
CONST	SEGMENT
__real@3fb999999999999a DQ 03fb999999999999ar	; 0.1
CONST	ENDS
;	COMDAT __real@3f800000
CONST	SEGMENT
__real@3f800000 DD 03f800000r			; 1
CONST	ENDS
;	COMDAT __real@3f10000000000000
CONST	SEGMENT
__real@3f10000000000000 DQ 03f10000000000000r	; 6.10352e-05
CONST	ENDS
;	COMDAT __real@3f00002000400080
CONST	SEGMENT
__real@3f00002000400080 DQ 03f00002000400080r	; 3.05185e-05
CONST	ENDS
;	COMDAT __real@0000000000000000
CONST	SEGMENT
__real@0000000000000000 DQ 00000000000000000r	; 0
CONST	ENDS
;	COMDAT ??_C@_1CK@NDNHPKPI@?$AA?$CC?$AAi?$AAn?$AAv?$AAa?$AAl?$AAi?$AAd?$AA?5?$AAc?$AAo?$AAm?$AAp?$AAa?$AAr@
CONST	SEGMENT
??_C@_1CK@NDNHPKPI@?$AA?$CC?$AAi?$AAn?$AAv?$AAa?$AAl?$AAi?$AAd?$AA?5?$AAc?$AAo?$AAm?$AAp?$AAa?$AAr@ DB '"'
	DB	00H, 'i', 00H, 'n', 00H, 'v', 00H, 'a', 00H, 'l', 00H, 'i', 00H
	DB	'd', 00H, ' ', 00H, 'c', 00H, 'o', 00H, 'm', 00H, 'p', 00H, 'a'
	DB	00H, 'r', 00H, 'a', 00H, 't', 00H, 'o', 00H, 'r', 00H, '"', 00H
	DB	00H, 00H					; `string'
CONST	ENDS
;	COMDAT ??_C@_1BC@ICCOKLEG@?$AAs?$AAt?$AAd?$AA?3?$AA?3?$AAm?$AAa?$AAx@
CONST	SEGMENT
??_C@_1BC@ICCOKLEG@?$AAs?$AAt?$AAd?$AA?3?$AA?3?$AAm?$AAa?$AAx@ DB 's', 00H
	DB	't', 00H, 'd', 00H, ':', 00H, ':', 00H, 'm', 00H, 'a', 00H, 'x'
	DB	00H, 00H, 00H				; `string'
CONST	ENDS
;	COMDAT ??_C@_1NE@FKBPBJEB@?$AAc?$AA?3?$AA?2?$AAp?$AAr?$AAo?$AAg?$AAr?$AAa?$AAm?$AA?5?$AAf?$AAi?$AAl?$AAe@
CONST	SEGMENT
??_C@_1NE@FKBPBJEB@?$AAc?$AA?3?$AA?2?$AAp?$AAr?$AAo?$AAg?$AAr?$AAa?$AAm?$AA?5?$AAf?$AAi?$AAl?$AAe@ DB 'c'
	DB	00H, ':', 00H, '\', 00H, 'p', 00H, 'r', 00H, 'o', 00H, 'g', 00H
	DB	'r', 00H, 'a', 00H, 'm', 00H, ' ', 00H, 'f', 00H, 'i', 00H, 'l'
	DB	00H, 'e', 00H, 's', 00H, ' ', 00H, '(', 00H, 'x', 00H, '8', 00H
	DB	'6', 00H, ')', 00H, '\', 00H, 'm', 00H, 'i', 00H, 'c', 00H, 'r'
	DB	00H, 'o', 00H, 's', 00H, 'o', 00H, 'f', 00H, 't', 00H, ' ', 00H
	DB	'v', 00H, 'i', 00H, 's', 00H, 'u', 00H, 'a', 00H, 'l', 00H, ' '
	DB	00H, 's', 00H, 't', 00H, 'u', 00H, 'd', 00H, 'i', 00H, 'o', 00H
	DB	'\', 00H, '2', 00H, '0', 00H, '1', 00H, '7', 00H, '\', 00H, 'c'
	DB	00H, 'o', 00H, 'm', 00H, 'm', 00H, 'u', 00H, 'n', 00H, 'i', 00H
	DB	't', 00H, 'y', 00H, '\', 00H, 'v', 00H, 'c', 00H, '\', 00H, 't'
	DB	00H, 'o', 00H, 'o', 00H, 'l', 00H, 's', 00H, '\', 00H, 'm', 00H
	DB	's', 00H, 'v', 00H, 'c', 00H, '\', 00H, '1', 00H, '4', 00H, '.'
	DB	00H, '1', 00H, '6', 00H, '.', 00H, '2', 00H, '7', 00H, '0', 00H
	DB	'2', 00H, '3', 00H, '\', 00H, 'i', 00H, 'n', 00H, 'c', 00H, 'l'
	DB	00H, 'u', 00H, 'd', 00H, 'e', 00H, '\', 00H, 'a', 00H, 'l', 00H
	DB	'g', 00H, 'o', 00H, 'r', 00H, 'i', 00H, 't', 00H, 'h', 00H, 'm'
	DB	00H, 00H, 00H				; `string'
CONST	ENDS
;	COMDAT ??_C@_0GK@JMBMHIBC@c?3?2program?5files?5?$CIx86?$CJ?2microsof@
CONST	SEGMENT
??_C@_0GK@JMBMHIBC@c?3?2program?5files?5?$CIx86?$CJ?2microsof@ DB 'c:\pro'
	DB	'gram files (x86)\microsoft visual studio\2017\community\vc\to'
	DB	'ols\msvc\14.16.27023\include\algorithm', 00H ; `string'
CONST	ENDS
;	COMDAT ??_C@_0BD@FEEMDEPI@invalid?5comparator@
CONST	SEGMENT
??_C@_0BD@FEEMDEPI@invalid?5comparator@ DB 'invalid comparator', 00H ; `string'
CONST	ENDS
;	COMDAT ??_C@_0DH@KAFPECGF@VH_WPN?3?5No?5fire?5timer?5modifier?5@
CONST	SEGMENT
??_C@_0DH@KAFPECGF@VH_WPN?3?5No?5fire?5timer?5modifier?5@ DB 'VH_WPN: No '
	DB	'fire timer modifier for difficulty level %d', 00H ; `string'
CONST	ENDS
;	COMDAT ?__LINE__Var@?0??get_fire_timer_difficulty_factor@@YGMPAUENTITY@@@Z@4JA
_DATA	SEGMENT
?__LINE__Var@?0??get_fire_timer_difficulty_factor@@YGMPAUENTITY@@@Z@4JA DD 02d9H ; `get_fire_timer_difficulty_factor'::`1'::__LINE__Var
_DATA	ENDS
_DATA	SEGMENT
?fire_timer_difficulty_table@@3PAUFIRE_TIMER_DIFFICULTY_TABLE@@A DD 01H ; fire_timer_difficulty_table
	DD	03f28f5c3r			; 0.66
	DD	02H
	DD	03f800000r			; 1
	DD	03H
	DD	03faa3d71r			; 1.33
	DD	0ffffffffH
	ORG $+4
_DATA	ENDS
;	COMDAT ?__LINE__Var@?0??update_vehicle_decoy_release@@YGXPAUENTITY@@@Z@4JA
_DATA	SEGMENT
?__LINE__Var@?0??update_vehicle_decoy_release@@YGXPAUENTITY@@@Z@4JA DD 0253H ; `update_vehicle_decoy_release'::`1'::__LINE__Var
_DATA	ENDS
;	COMDAT ??_C@_04GGKLLKOO@task@
CONST	SEGMENT
??_C@_04GGKLLKOO@task@ DB 'task', 00H			; `string'
CONST	ENDS
;	COMDAT ?__LINE__Var@?0??vehicle_select_best_weapon@@YGHPAUENTITY@@0@Z@4JA
_DATA	SEGMENT
?__LINE__Var@?0??vehicle_select_best_weapon@@YGHPAUENTITY@@0@Z@4JA DD 020eH ; `vehicle_select_best_weapon'::`1'::__LINE__Var
_DATA	ENDS
;	COMDAT ??_C@_05MGJOOGAJ@group@
CONST	SEGMENT
??_C@_05MGJOOGAJ@group@ DB 'group', 00H			; `string'
CONST	ENDS
;	COMDAT ??_C@_0BG@PELLELGI@VH_WPN?3?5Firing?5weapon@
CONST	SEGMENT
??_C@_0BG@PELLELGI@VH_WPN?3?5Firing?5weapon@ DB 'VH_WPN: Firing weapon', 00H ; `string'
CONST	ENDS
;	COMDAT ??_C@_0CG@IKLDPIKH@VH_WPN?3?5Not?5Firing?5?9?5No?5Line?5Of@
CONST	SEGMENT
??_C@_0CG@IKLDPIKH@VH_WPN?3?5Not?5Firing?5?9?5No?5Line?5Of@ DB 'VH_WPN: N'
	DB	'ot Firing - No Line Of Sight', 00H		; `string'
CONST	ENDS
;	COMDAT ??_C@_0CO@GJBKFKO@VH_WPN?3?5Not?5Firing?5?9?5outside?5la@
CONST	SEGMENT
??_C@_0CO@GJBKFKO@VH_WPN?3?5Not?5Firing?5?9?5outside?5la@ DB 'VH_WPN: Not'
	DB	' Firing - outside launch angle (2)', 00H	; `string'
CONST	ENDS
;	COMDAT ??_C@_0BI@KLDNOBIJ@weapon_to_target_vector@
CONST	SEGMENT
??_C@_0BI@KLDNOBIJ@weapon_to_target_vector@ DB 'weapon_to_target_vector', 00H ; `string'
CONST	ENDS
;	COMDAT ??_C@_0O@HEGILGAC@weapon_vector@
CONST	SEGMENT
??_C@_0O@HEGILGAC@weapon_vector@ DB 'weapon_vector', 00H ; `string'
CONST	ENDS
;	COMDAT ??_C@_0CO@ENHBLPH@VH_WPN?3?5Not?5Firing?5?9?5outside?5la@
CONST	SEGMENT
??_C@_0CO@ENHBLPH@VH_WPN?3?5Not?5Firing?5?9?5outside?5la@ DB 'VH_WPN: Not'
	DB	' Firing - outside launch angle (1)', 00H	; `string'
CONST	ENDS
;	COMDAT ??_C@_0BO@BMOAINNA@VH_WPN?3?5Not?5Firing?5?9?5altitude@
CONST	SEGMENT
??_C@_0BO@BMOAINNA@VH_WPN?3?5Not?5Firing?5?9?5altitude@ DB 'VH_WPN: Not F'
	DB	'iring - altitude', 00H			; `string'
CONST	ENDS
;	COMDAT ??_C@_0CC@NELBHMPJ@VH_WPN?3?5Not?5Firing?5?9?5out?5of?5ran@
CONST	SEGMENT
??_C@_0CC@NELBHMPJ@VH_WPN?3?5Not?5Firing?5?9?5out?5of?5ran@ DB 'VH_WPN: N'
	DB	'ot Firing - out of range', 00H		; `string'
CONST	ENDS
;	COMDAT ??_C@_0CN@MLDFJBKO@VH_WPN?3?5Not?5Firing?5?9?5Weapon?5sys@
CONST	SEGMENT
??_C@_0CN@MLDFJBKO@VH_WPN?3?5Not?5Firing?5?9?5Weapon?5sys@ DB 'VH_WPN: No'
	DB	't Firing - Weapon system not ready', 00H	; `string'
CONST	ENDS
;	COMDAT ??_C@_0BP@JDOBKPCF@VH_WPN?3?5Not?5Firing?5?9?5No?5weapon@
CONST	SEGMENT
??_C@_0BP@JDOBKPCF@VH_WPN?3?5Not?5Firing?5?9?5No?5weapon@ DB 'VH_WPN: Not'
	DB	' Firing - No weapon', 00H			; `string'
CONST	ENDS
;	COMDAT ??_C@_0BP@KBBBDDEL@VH_WPN?3?5Not?5Firing?5?9?5No?5Target@
CONST	SEGMENT
??_C@_0BP@KBBBDDEL@VH_WPN?3?5Not?5Firing?5?9?5No?5Target@ DB 'VH_WPN: Not'
	DB	' Firing - No Target', 00H			; `string'
CONST	ENDS
;	COMDAT ??_C@_0BO@HKKCJLDG@VH_WPN?3?5Not?5Firing?5?9?5Sleeping@
CONST	SEGMENT
??_C@_0BO@HKKCJLDG@VH_WPN?3?5Not?5Firing?5?9?5Sleeping@ DB 'VH_WPN: Not F'
	DB	'iring - Sleeping', 00H			; `string'
CONST	ENDS
;	COMDAT ??_C@_0CI@OLHHLDFG@VH_WPN?3?5Not?5Firing?5?9?5AI?5fire?5su@
CONST	SEGMENT
??_C@_0CI@OLHHLDFG@VH_WPN?3?5Not?5Firing?5?9?5AI?5fire?5su@ DB 'VH_WPN: N'
	DB	'ot Firing - AI fire suppressed', 00H	; `string'
CONST	ENDS
;	COMDAT ??_C@_0BO@PKKECJHJ@VH_WPN?3?5Stop?5Burst?5this?5frame@
CONST	SEGMENT
??_C@_0BO@PKKECJHJ@VH_WPN?3?5Stop?5Burst?5this?5frame@ DB 'VH_WPN: Stop B'
	DB	'urst this frame', 00H			; `string'
CONST	ENDS
;	COMDAT ??_C@_0BJ@LJHBKJNM@VH_WPN?3?5Continuing?5Burst@
CONST	SEGMENT
??_C@_0BJ@LJHBKJNM@VH_WPN?3?5Continuing?5Burst@ DB 'VH_WPN: Continuing Bu'
	DB	'rst', 00H					; `string'
CONST	ENDS
;	COMDAT ??_C@_0CJ@DMBLBJBK@get_comms_model?5?$CI?$CJ?5?$DN?$DN?5COMMS_MOD@
CONST	SEGMENT
??_C@_0CJ@DMBLBJBK@get_comms_model?5?$CI?$CJ?5?$DN?$DN?5COMMS_MOD@ DB 'ge'
	DB	't_comms_model () == COMMS_MODEL_SERVER', 00H ; `string'
CONST	ENDS
;	COMDAT ??_C@_02LFNMGJAP@en@
CONST	SEGMENT
??_C@_02LFNMGJAP@en@ DB 'en', 00H			; `string'
CONST	ENDS
;	COMDAT ??_C@_0EL@DIAIKBFG@c?3?2users?2nhv90?2projects?2eech?2ap@
CONST	SEGMENT
??_C@_0EL@DIAIKBFG@c?3?2users?2nhv90?2projects?2eech?2ap@ DB 'c:\users\nh'
	DB	'v90\projects\eech\aphavoc\source\entity\mobile\vehicle\vh_wpn'
	DB	'.c', 00H					; `string'
CONST	ENDS
;	COMDAT ?__LINE__Var@?0??update_vehicle_weapon_fire@@YGXPAUENTITY@@@Z@4JA
_DATA	SEGMENT
?__LINE__Var@?0??update_vehicle_weapon_fire@@YGXPAUENTITY@@@Z@4JA DD 058H ; `update_vehicle_weapon_fire'::`1'::__LINE__Var
_DATA	ENDS
;	COMDAT ??_C@_02DKCKIIND@?$CFs@
CONST	SEGMENT
??_C@_02DKCKIIND@?$CFs@ DB '%s', 00H			; `string'
CONST	ENDS
; Function compile flags: /Odtp /ZI
; File c:\program files (x86)\microsoft visual studio\2017\community\vc\tools\msvc\14.16.27023\include\algorithm
;	COMDAT ??$max@M@std@@YGABMABM0@Z
_TEXT	SEGMENT
__Left$ = 8						; size = 4
__Right$ = 12						; size = 4
??$max@M@std@@YGABMABM0@Z PROC				; std::max<float>, COMDAT

; 5387 : 	{	// return larger of _Left and _Right

  00000	55		 push	 ebp
  00001	8b ec		 mov	 ebp, esp
  00003	83 ec 40	 sub	 esp, 64			; 00000040H
  00006	53		 push	 ebx
  00007	56		 push	 esi
  00008	57		 push	 edi

; 5388 : 	if (_Left < _Right)

  00009	8b 45 0c	 mov	 eax, DWORD PTR __Right$[ebp]
  0000c	8b 4d 08	 mov	 ecx, DWORD PTR __Left$[ebp]
  0000f	f3 0f 10 00	 movss	 xmm0, DWORD PTR [eax]
  00013	0f 2f 01	 comiss	 xmm0, DWORD PTR [ecx]
  00016	76 64		 jbe	 SHORT $LN8@max
$LN4@max:

; 5389 : 		{
; 5390 : 		_STL_ASSERT(!(_Right < _Left), "invalid comparator");

  00018	8b 45 08	 mov	 eax, DWORD PTR __Left$[ebp]
  0001b	8b 4d 0c	 mov	 ecx, DWORD PTR __Right$[ebp]
  0001e	f3 0f 10 00	 movss	 xmm0, DWORD PTR [eax]
  00022	0f 2f 01	 comiss	 xmm0, DWORD PTR [ecx]
  00025	77 02		 ja	 SHORT $LN9@max
  00027	eb 4a		 jmp	 SHORT $LN6@max
$LN9@max:
  00029	68 00 00 00 00	 push	 OFFSET ??_C@_0BD@FEEMDEPI@invalid?5comparator@
  0002e	68 00 00 00 00	 push	 OFFSET ??_C@_02DKCKIIND@?$CFs@
  00033	6a 00		 push	 0
  00035	68 0e 15 00 00	 push	 5390			; 0000150eH
  0003a	68 00 00 00 00	 push	 OFFSET ??_C@_0GK@JMBMHIBC@c?3?2program?5files?5?$CIx86?$CJ?2microsof@
  0003f	6a 02		 push	 2
  00041	ff 15 00 00 00
	00		 call	 DWORD PTR __imp___CrtDbgReport
  00047	83 c4 18	 add	 esp, 24			; 00000018H
  0004a	83 f8 01	 cmp	 eax, 1
  0004d	75 01		 jne	 SHORT $LN12@max
  0004f	cc		 int	 3
$LN12@max:
  00050	6a 00		 push	 0
  00052	68 0e 15 00 00	 push	 5390			; 0000150eH
  00057	68 00 00 00 00	 push	 OFFSET ??_C@_1NE@FKBPBJEB@?$AAc?$AA?3?$AA?2?$AAp?$AAr?$AAo?$AAg?$AAr?$AAa?$AAm?$AA?5?$AAf?$AAi?$AAl?$AAe@
  0005c	68 00 00 00 00	 push	 OFFSET ??_C@_1BC@ICCOKLEG@?$AAs?$AAt?$AAd?$AA?3?$AA?3?$AAm?$AAa?$AAx@
  00061	68 00 00 00 00	 push	 OFFSET ??_C@_1CK@NDNHPKPI@?$AA?$CC?$AAi?$AAn?$AAv?$AAa?$AAl?$AAi?$AAd?$AA?5?$AAc?$AAo?$AAm?$AAp?$AAa?$AAr@
  00066	ff 15 00 00 00
	00		 call	 DWORD PTR __imp___invalid_parameter
  0006c	83 c4 14	 add	 esp, 20			; 00000014H
  0006f	33 c0		 xor	 eax, eax
  00071	75 b6		 jne	 SHORT $LN9@max
$LN6@max:
  00073	33 c0		 xor	 eax, eax
  00075	75 a1		 jne	 SHORT $LN4@max

; 5391 : 		return (_Right);

  00077	8b 45 0c	 mov	 eax, DWORD PTR __Right$[ebp]
  0007a	eb 03		 jmp	 SHORT $LN1@max
$LN8@max:

; 5392 : 		}
; 5393 : 
; 5394 : 	return (_Left);

  0007c	8b 45 08	 mov	 eax, DWORD PTR __Left$[ebp]
$LN1@max:

; 5395 : 	}

  0007f	5f		 pop	 edi
  00080	5e		 pop	 esi
  00081	5b		 pop	 ebx
  00082	8b e5		 mov	 esp, ebp
  00084	5d		 pop	 ebp
  00085	c2 08 00	 ret	 8
??$max@M@std@@YGABMABM0@Z ENDP				; std::max<float>
_TEXT	ENDS
; Function compile flags: /Odtp /ZI
; File c:\users\nhv90\projects\eech\aphavoc\source\entity\mobile\vehicle\vh_wpn.c
;	COMDAT ?get_fire_timer_difficulty_factor@@YGMPAUENTITY@@@Z
_TEXT	SEGMENT
tv136 = -84						; size = 4
tv83 = -84						; size = 4
tv128 = -80						; size = 4
tv75 = -80						; size = 4
_difficulty$ = -12					; size = 4
_pilot_en$ = -8						; size = 4
_loop$ = -4						; size = 4
_en$ = 8						; size = 4
?get_fire_timer_difficulty_factor@@YGMPAUENTITY@@@Z PROC ; get_fire_timer_difficulty_factor, COMDAT

; 729  : {

  00000	55		 push	 ebp
  00001	8b ec		 mov	 ebp, esp
  00003	83 ec 54	 sub	 esp, 84			; 00000054H
  00006	53		 push	 ebx
  00007	56		 push	 esi
  00008	57		 push	 edi

; 730  : 	int
; 731  : 		loop;
; 732  : 
; 733  : 	entity
; 734  : 		*pilot_en;
; 735  : 
; 736  : 	game_difficulty_settings
; 737  : 		difficulty;
; 738  : 
; 739  : 	ASSERT (en);

  00009	83 7d 08 00	 cmp	 DWORD PTR _en$[ebp], 0
  0000d	75 18		 jne	 SHORT $LN4@get_fire_t
  0000f	a1 00 00 00 00	 mov	 eax, DWORD PTR ?__LINE__Var@?0??get_fire_timer_difficulty_factor@@YGMPAUENTITY@@@Z@4JA
  00014	83 c0 0a	 add	 eax, 10			; 0000000aH
  00017	50		 push	 eax
  00018	68 00 00 00 00	 push	 OFFSET ??_C@_0EL@DIAIKBFG@c?3?2users?2nhv90?2projects?2eech?2ap@
  0001d	68 00 00 00 00	 push	 OFFSET ??_C@_02LFNMGJAP@en@
  00022	e8 00 00 00 00	 call	 ?process_assert@@YGXPBD0H@Z ; process_assert
$LN4@get_fire_t:

; 740  : 
; 741  : 	pilot_en = get_local_entity_first_child (en, LIST_TYPE_AIRCREW);

  00027	83 7d 08 00	 cmp	 DWORD PTR _en$[ebp], 0
  0002b	74 0a		 je	 SHORT $LN8@get_fire_t
  0002d	8b 45 08	 mov	 eax, DWORD PTR _en$[ebp]
  00030	8b 08		 mov	 ecx, DWORD PTR [eax]
  00032	89 4d b0	 mov	 DWORD PTR tv75[ebp], ecx
  00035	eb 21		 jmp	 SHORT $LN9@get_fire_t
$LN8@get_fire_t:
  00037	8b 15 00 00 00
	00		 mov	 edx, DWORD PTR ?__LINE__Var@?0??get_fire_timer_difficulty_factor@@YGMPAUENTITY@@@Z@4JA
  0003d	83 c2 0c	 add	 edx, 12			; 0000000cH
  00040	52		 push	 edx
  00041	68 00 00 00 00	 push	 OFFSET ??_C@_0EL@DIAIKBFG@c?3?2users?2nhv90?2projects?2eech?2ap@
  00046	a1 00 00 00 00	 mov	 eax, DWORD PTR ?null_entity_pointer_message@@3PBDB ; null_entity_pointer_message
  0004b	50		 push	 eax
  0004c	e8 00 00 00 00	 call	 ?process_assert@@YGXPBD0H@Z ; process_assert
  00051	c7 45 b0 00 00
	00 00		 mov	 DWORD PTR tv75[ebp], 0
$LN9@get_fire_t:
  00058	b9 01 00 00 00	 mov	 ecx, 1
  0005d	85 c9		 test	 ecx, ecx
  0005f	74 09		 je	 SHORT $LN10@get_fire_t
  00061	c7 45 ac 01 00
	00 00		 mov	 DWORD PTR tv83[ebp], 1
  00068	eb 21		 jmp	 SHORT $LN11@get_fire_t
$LN10@get_fire_t:
  0006a	8b 15 00 00 00
	00		 mov	 edx, DWORD PTR ?__LINE__Var@?0??get_fire_timer_difficulty_factor@@YGMPAUENTITY@@@Z@4JA
  00070	83 c2 0c	 add	 edx, 12			; 0000000cH
  00073	52		 push	 edx
  00074	68 00 00 00 00	 push	 OFFSET ??_C@_0EL@DIAIKBFG@c?3?2users?2nhv90?2projects?2eech?2ap@
  00079	a1 00 00 00 00	 mov	 eax, DWORD PTR ?overload_invalid_list_type_message@@3PBDB ; overload_invalid_list_type_message
  0007e	50		 push	 eax
  0007f	e8 00 00 00 00	 call	 ?process_assert@@YGXPBD0H@Z ; process_assert
  00084	c7 45 ac 00 00
	00 00		 mov	 DWORD PTR tv83[ebp], 0
$LN11@get_fire_t:
  0008b	6a 01		 push	 1
  0008d	8b 4d 08	 mov	 ecx, DWORD PTR _en$[ebp]
  00090	51		 push	 ecx
  00091	69 55 b0 b4 00
	00 00		 imul	 edx, DWORD PTR tv75[ebp], 180
  00098	8b 45 ac	 mov	 eax, DWORD PTR tv83[ebp]
  0009b	8b 8c 82 00 00
	00 00		 mov	 ecx, DWORD PTR ?fn_get_local_entity_first_child@@3PAY0CN@P6GPAUENTITY@@PAU1@W4LIST_TYPES@@@ZA[edx+eax*4]
  000a2	ff d1		 call	 ecx
  000a4	89 45 f8	 mov	 DWORD PTR _pilot_en$[ebp], eax

; 742  : 
; 743  : 	if (pilot_en)

  000a7	83 7d f8 00	 cmp	 DWORD PTR _pilot_en$[ebp], 0
  000ab	0f 84 cb 00 00
	00		 je	 $LN5@get_fire_t

; 744  : 	{
; 745  : 		difficulty = (game_difficulty_settings) get_local_entity_int_value (pilot_en, INT_TYPE_DIFFICULTY_LEVEL);

  000b1	83 7d f8 00	 cmp	 DWORD PTR _pilot_en$[ebp], 0
  000b5	74 0a		 je	 SHORT $LN12@get_fire_t
  000b7	8b 45 f8	 mov	 eax, DWORD PTR _pilot_en$[ebp]
  000ba	8b 08		 mov	 ecx, DWORD PTR [eax]
  000bc	89 4d b0	 mov	 DWORD PTR tv128[ebp], ecx
  000bf	eb 21		 jmp	 SHORT $LN13@get_fire_t
$LN12@get_fire_t:
  000c1	8b 15 00 00 00
	00		 mov	 edx, DWORD PTR ?__LINE__Var@?0??get_fire_timer_difficulty_factor@@YGMPAUENTITY@@@Z@4JA
  000c7	83 c2 10	 add	 edx, 16			; 00000010H
  000ca	52		 push	 edx
  000cb	68 00 00 00 00	 push	 OFFSET ??_C@_0EL@DIAIKBFG@c?3?2users?2nhv90?2projects?2eech?2ap@
  000d0	a1 00 00 00 00	 mov	 eax, DWORD PTR ?null_entity_pointer_message@@3PBDB ; null_entity_pointer_message
  000d5	50		 push	 eax
  000d6	e8 00 00 00 00	 call	 ?process_assert@@YGXPBD0H@Z ; process_assert
  000db	c7 45 b0 00 00
	00 00		 mov	 DWORD PTR tv128[ebp], 0
$LN13@get_fire_t:
  000e2	b9 01 00 00 00	 mov	 ecx, 1
  000e7	85 c9		 test	 ecx, ecx
  000e9	74 09		 je	 SHORT $LN14@get_fire_t
  000eb	c7 45 ac 2f 00
	00 00		 mov	 DWORD PTR tv136[ebp], 47 ; 0000002fH
  000f2	eb 21		 jmp	 SHORT $LN15@get_fire_t
$LN14@get_fire_t:
  000f4	8b 15 00 00 00
	00		 mov	 edx, DWORD PTR ?__LINE__Var@?0??get_fire_timer_difficulty_factor@@YGMPAUENTITY@@@Z@4JA
  000fa	83 c2 10	 add	 edx, 16			; 00000010H
  000fd	52		 push	 edx
  000fe	68 00 00 00 00	 push	 OFFSET ??_C@_0EL@DIAIKBFG@c?3?2users?2nhv90?2projects?2eech?2ap@
  00103	a1 00 00 00 00	 mov	 eax, DWORD PTR ?overload_invalid_int_type_message@@3PBDB ; overload_invalid_int_type_message
  00108	50		 push	 eax
  00109	e8 00 00 00 00	 call	 ?process_assert@@YGXPBD0H@Z ; process_assert
  0010e	c7 45 ac 00 00
	00 00		 mov	 DWORD PTR tv136[ebp], 0
$LN15@get_fire_t:
  00115	6a 2f		 push	 47			; 0000002fH
  00117	8b 4d f8	 mov	 ecx, DWORD PTR _pilot_en$[ebp]
  0011a	51		 push	 ecx
  0011b	69 55 b0 5c 04
	00 00		 imul	 edx, DWORD PTR tv128[ebp], 1116
  00122	8b 45 ac	 mov	 eax, DWORD PTR tv136[ebp]
  00125	8b 8c 82 00 00
	00 00		 mov	 ecx, DWORD PTR ?fn_get_local_entity_int_value@@3PAY0BBH@P6GHPAUENTITY@@W4INT_TYPES@@@ZA[edx+eax*4]
  0012c	ff d1		 call	 ecx
  0012e	89 45 f4	 mov	 DWORD PTR _difficulty$[ebp], eax

; 746  : 
; 747  : 		loop = 0;

  00131	c7 45 fc 00 00
	00 00		 mov	 DWORD PTR _loop$[ebp], 0
$LN2@get_fire_t:

; 748  : 
; 749  : 		while (fire_timer_difficulty_table [loop].difficulty >= 0)

  00138	8b 45 fc	 mov	 eax, DWORD PTR _loop$[ebp]
  0013b	83 3c c5 00 00
	00 00 00	 cmp	 DWORD PTR ?fire_timer_difficulty_table@@3PAUFIRE_TIMER_DIFFICULTY_TABLE@@A[eax*8], 0
  00143	7c 26		 jl	 SHORT $LN3@get_fire_t

; 750  : 		{
; 751  : 			if (fire_timer_difficulty_table [loop].difficulty == difficulty)

  00145	8b 45 fc	 mov	 eax, DWORD PTR _loop$[ebp]
  00148	8b 0c c5 00 00
	00 00		 mov	 ecx, DWORD PTR ?fire_timer_difficulty_table@@3PAUFIRE_TIMER_DIFFICULTY_TABLE@@A[eax*8]
  0014f	3b 4d f4	 cmp	 ecx, DWORD PTR _difficulty$[ebp]
  00152	75 0c		 jne	 SHORT $LN6@get_fire_t

; 752  : 			{
; 753  : 				return fire_timer_difficulty_table [loop].timer_scale;

  00154	8b 45 fc	 mov	 eax, DWORD PTR _loop$[ebp]
  00157	d9 04 c5 04 00
	00 00		 fld	 DWORD PTR ?fire_timer_difficulty_table@@3PAUFIRE_TIMER_DIFFICULTY_TABLE@@A[eax*8+4]
  0015e	eb 1e		 jmp	 SHORT $LN1@get_fire_t
$LN6@get_fire_t:

; 754  : 			}
; 755  : 
; 756  : 			loop ++;

  00160	8b 45 fc	 mov	 eax, DWORD PTR _loop$[ebp]
  00163	83 c0 01	 add	 eax, 1
  00166	89 45 fc	 mov	 DWORD PTR _loop$[ebp], eax

; 757  : 		}

  00169	eb cd		 jmp	 SHORT $LN2@get_fire_t
$LN3@get_fire_t:

; 758  : 
; 759  : 		debug_fatal ("VH_WPN: No fire timer modifier for difficulty level %d", difficulty);

  0016b	8b 45 f4	 mov	 eax, DWORD PTR _difficulty$[ebp]
  0016e	50		 push	 eax
  0016f	68 00 00 00 00	 push	 OFFSET ??_C@_0DH@KAFPECGF@VH_WPN?3?5No?5fire?5timer?5modifier?5@
  00174	e8 00 00 00 00	 call	 ?debug_fatal@@YAXPBDZZ	; debug_fatal
  00179	83 c4 08	 add	 esp, 8
$LN5@get_fire_t:

; 760  : 	}
; 761  : 
; 762  : 	return 1.0;

  0017c	d9 e8		 fld1
$LN1@get_fire_t:

; 763  : }

  0017e	5f		 pop	 edi
  0017f	5e		 pop	 esi
  00180	5b		 pop	 ebx
  00181	8b e5		 mov	 esp, ebp
  00183	5d		 pop	 ebp
  00184	c2 04 00	 ret	 4
?get_fire_timer_difficulty_factor@@YGMPAUENTITY@@@Z ENDP ; get_fire_timer_difficulty_factor
_TEXT	ENDS
; Function compile flags: /Odtp /ZI
; File c:\users\nhv90\projects\eech\aphavoc\source\entity\mobile\vehicle\vh_wpn.c
;	COMDAT ?vehicle_select_best_weapon@@YGHPAUENTITY@@0@Z
_TEXT	SEGMENT
tv230 = -84						; size = 4
tv209 = -84						; size = 4
tv189 = -84						; size = 4
tv168 = -84						; size = 4
tv141 = -84						; size = 4
tv88 = -84						; size = 4
tv222 = -80						; size = 4
tv202 = -80						; size = 4
tv181 = -80						; size = 4
tv161 = -80						; size = 4
tv133 = -80						; size = 4
tv80 = -80						; size = 4
_weapon_type$ = -12					; size = 4
_task$ = -8						; size = 4
_guide$ = -4						; size = 4
_en$ = 8						; size = 4
_target$ = 12						; size = 4
?vehicle_select_best_weapon@@YGHPAUENTITY@@0@Z PROC	; vehicle_select_best_weapon, COMDAT

; 526  : {

  00000	55		 push	 ebp
  00001	8b ec		 mov	 ebp, esp
  00003	83 ec 54	 sub	 esp, 84			; 00000054H
  00006	53		 push	 ebx
  00007	56		 push	 esi
  00008	57		 push	 edi

; 527  : 	entity
; 528  : 		*guide,
; 529  : 		*task;
; 530  : 
; 531  : 	int
; 532  : 		weapon_type;
; 533  : 
; 534  : 	//
; 535  : 	// Find best weapon
; 536  : 	//
; 537  : 
; 538  : 	weapon_type = get_best_weapon_for_target (en, target, BEST_WEAPON_CRITERIA_ALL);

  00009	6a 07		 push	 7
  0000b	8b 45 0c	 mov	 eax, DWORD PTR _target$[ebp]
  0000e	50		 push	 eax
  0000f	8b 4d 08	 mov	 ecx, DWORD PTR _en$[ebp]
  00012	51		 push	 ecx
  00013	e8 00 00 00 00	 call	 ?get_best_weapon_for_target@@YGHPAUENTITY@@0I@Z ; get_best_weapon_for_target
  00018	89 45 f4	 mov	 DWORD PTR _weapon_type$[ebp], eax

; 539  : 
; 540  : 	//
; 541  : 	// abort engage task and re-arm if no suitable weapon
; 542  : 	//
; 543  : 
; 544  : 	if (weapon_type == ENTITY_SUB_TYPE_WEAPON_NO_WEAPON)

  0001b	83 7d f4 00	 cmp	 DWORD PTR _weapon_type$[ebp], 0
  0001f	0f 85 71 02 00
	00		 jne	 $LN2@vehicle_se

; 545  : 	{
; 546  : 		weapon_type = get_best_weapon_for_target (en, target, BEST_WEAPON_CRITERIA_MINIMAL);

  00025	6a 00		 push	 0
  00027	8b 45 0c	 mov	 eax, DWORD PTR _target$[ebp]
  0002a	50		 push	 eax
  0002b	8b 4d 08	 mov	 ecx, DWORD PTR _en$[ebp]
  0002e	51		 push	 ecx
  0002f	e8 00 00 00 00	 call	 ?get_best_weapon_for_target@@YGHPAUENTITY@@0I@Z ; get_best_weapon_for_target
  00034	89 45 f4	 mov	 DWORD PTR _weapon_type$[ebp], eax

; 547  : 
; 548  : 		if (weapon_type == ENTITY_SUB_TYPE_WEAPON_NO_WEAPON)

  00037	83 7d f4 00	 cmp	 DWORD PTR _weapon_type$[ebp], 0
  0003b	0f 85 3c 01 00
	00		 jne	 $LN4@vehicle_se

; 549  : 		{
; 550  : 			#if DEBUG_MODULE
; 551  : 
; 552  : 			debug_log ("VH_WPN: %s (%d) Aborting engage task - no suitable weapon for %s (%d)",
; 553  : 										get_local_entity_string (en, STRING_TYPE_FULL_NAME),
; 554  : 										get_local_entity_index (en),
; 555  : 										get_local_entity_string (target, STRING_TYPE_FULL_NAME),
; 556  : 										get_local_entity_index (target));
; 557  : 
; 558  : 			#endif
; 559  : 
; 560  : 			guide = get_local_entity_parent (en, LIST_TYPE_FOLLOWER);

  00041	83 7d 08 00	 cmp	 DWORD PTR _en$[ebp], 0
  00045	74 0a		 je	 SHORT $LN10@vehicle_se
  00047	8b 45 08	 mov	 eax, DWORD PTR _en$[ebp]
  0004a	8b 08		 mov	 ecx, DWORD PTR [eax]
  0004c	89 4d b0	 mov	 DWORD PTR tv80[ebp], ecx
  0004f	eb 21		 jmp	 SHORT $LN11@vehicle_se
$LN10@vehicle_se:
  00051	8b 15 00 00 00
	00		 mov	 edx, DWORD PTR ?__LINE__Var@?0??vehicle_select_best_weapon@@YGHPAUENTITY@@0@Z@4JA
  00057	83 c2 22	 add	 edx, 34			; 00000022H
  0005a	52		 push	 edx
  0005b	68 00 00 00 00	 push	 OFFSET ??_C@_0EL@DIAIKBFG@c?3?2users?2nhv90?2projects?2eech?2ap@
  00060	a1 00 00 00 00	 mov	 eax, DWORD PTR ?null_entity_pointer_message@@3PBDB ; null_entity_pointer_message
  00065	50		 push	 eax
  00066	e8 00 00 00 00	 call	 ?process_assert@@YGXPBD0H@Z ; process_assert
  0006b	c7 45 b0 00 00
	00 00		 mov	 DWORD PTR tv80[ebp], 0
$LN11@vehicle_se:
  00072	b9 01 00 00 00	 mov	 ecx, 1
  00077	85 c9		 test	 ecx, ecx
  00079	74 09		 je	 SHORT $LN12@vehicle_se
  0007b	c7 45 ac 0d 00
	00 00		 mov	 DWORD PTR tv88[ebp], 13	; 0000000dH
  00082	eb 21		 jmp	 SHORT $LN13@vehicle_se
$LN12@vehicle_se:
  00084	8b 15 00 00 00
	00		 mov	 edx, DWORD PTR ?__LINE__Var@?0??vehicle_select_best_weapon@@YGHPAUENTITY@@0@Z@4JA
  0008a	83 c2 22	 add	 edx, 34			; 00000022H
  0008d	52		 push	 edx
  0008e	68 00 00 00 00	 push	 OFFSET ??_C@_0EL@DIAIKBFG@c?3?2users?2nhv90?2projects?2eech?2ap@
  00093	a1 00 00 00 00	 mov	 eax, DWORD PTR ?overload_invalid_list_type_message@@3PBDB ; overload_invalid_list_type_message
  00098	50		 push	 eax
  00099	e8 00 00 00 00	 call	 ?process_assert@@YGXPBD0H@Z ; process_assert
  0009e	c7 45 ac 00 00
	00 00		 mov	 DWORD PTR tv88[ebp], 0
$LN13@vehicle_se:
  000a5	6a 0d		 push	 13			; 0000000dH
  000a7	8b 4d 08	 mov	 ecx, DWORD PTR _en$[ebp]
  000aa	51		 push	 ecx
  000ab	69 55 b0 b4 00
	00 00		 imul	 edx, DWORD PTR tv80[ebp], 180
  000b2	8b 45 ac	 mov	 eax, DWORD PTR tv88[ebp]
  000b5	8b 8c 82 00 00
	00 00		 mov	 ecx, DWORD PTR ?fn_get_local_entity_parent@@3PAY0CN@P6GPAUENTITY@@PAU1@W4LIST_TYPES@@@ZA[edx+eax*4]
  000bc	ff d1		 call	 ecx
  000be	89 45 fc	 mov	 DWORD PTR _guide$[ebp], eax

; 561  : 
; 562  : 			if (guide)

  000c1	83 7d fc 00	 cmp	 DWORD PTR _guide$[ebp], 0
  000c5	0f 84 b2 00 00
	00		 je	 $LN4@vehicle_se

; 563  : 			{
; 564  : 				task = get_local_entity_parent (guide, LIST_TYPE_GUIDE);

  000cb	83 7d fc 00	 cmp	 DWORD PTR _guide$[ebp], 0
  000cf	74 0a		 je	 SHORT $LN14@vehicle_se
  000d1	8b 45 fc	 mov	 eax, DWORD PTR _guide$[ebp]
  000d4	8b 08		 mov	 ecx, DWORD PTR [eax]
  000d6	89 4d b0	 mov	 DWORD PTR tv133[ebp], ecx
  000d9	eb 21		 jmp	 SHORT $LN15@vehicle_se
$LN14@vehicle_se:
  000db	8b 15 00 00 00
	00		 mov	 edx, DWORD PTR ?__LINE__Var@?0??vehicle_select_best_weapon@@YGHPAUENTITY@@0@Z@4JA
  000e1	83 c2 26	 add	 edx, 38			; 00000026H
  000e4	52		 push	 edx
  000e5	68 00 00 00 00	 push	 OFFSET ??_C@_0EL@DIAIKBFG@c?3?2users?2nhv90?2projects?2eech?2ap@
  000ea	a1 00 00 00 00	 mov	 eax, DWORD PTR ?null_entity_pointer_message@@3PBDB ; null_entity_pointer_message
  000ef	50		 push	 eax
  000f0	e8 00 00 00 00	 call	 ?process_assert@@YGXPBD0H@Z ; process_assert
  000f5	c7 45 b0 00 00
	00 00		 mov	 DWORD PTR tv133[ebp], 0
$LN15@vehicle_se:
  000fc	b9 01 00 00 00	 mov	 ecx, 1
  00101	85 c9		 test	 ecx, ecx
  00103	74 09		 je	 SHORT $LN16@vehicle_se
  00105	c7 45 ac 10 00
	00 00		 mov	 DWORD PTR tv141[ebp], 16 ; 00000010H
  0010c	eb 21		 jmp	 SHORT $LN17@vehicle_se
$LN16@vehicle_se:
  0010e	8b 15 00 00 00
	00		 mov	 edx, DWORD PTR ?__LINE__Var@?0??vehicle_select_best_weapon@@YGHPAUENTITY@@0@Z@4JA
  00114	83 c2 26	 add	 edx, 38			; 00000026H
  00117	52		 push	 edx
  00118	68 00 00 00 00	 push	 OFFSET ??_C@_0EL@DIAIKBFG@c?3?2users?2nhv90?2projects?2eech?2ap@
  0011d	a1 00 00 00 00	 mov	 eax, DWORD PTR ?overload_invalid_list_type_message@@3PBDB ; overload_invalid_list_type_message
  00122	50		 push	 eax
  00123	e8 00 00 00 00	 call	 ?process_assert@@YGXPBD0H@Z ; process_assert
  00128	c7 45 ac 00 00
	00 00		 mov	 DWORD PTR tv141[ebp], 0
$LN17@vehicle_se:
  0012f	6a 10		 push	 16			; 00000010H
  00131	8b 4d fc	 mov	 ecx, DWORD PTR _guide$[ebp]
  00134	51		 push	 ecx
  00135	69 55 b0 b4 00
	00 00		 imul	 edx, DWORD PTR tv133[ebp], 180
  0013c	8b 45 ac	 mov	 eax, DWORD PTR tv141[ebp]
  0013f	8b 8c 82 00 00
	00 00		 mov	 ecx, DWORD PTR ?fn_get_local_entity_parent@@3PAY0CN@P6GPAUENTITY@@PAU1@W4LIST_TYPES@@@ZA[edx+eax*4]
  00146	ff d1		 call	 ecx
  00148	89 45 f8	 mov	 DWORD PTR _task$[ebp], eax

; 565  : 
; 566  : 				ASSERT (task);

  0014b	83 7d f8 00	 cmp	 DWORD PTR _task$[ebp], 0
  0014f	75 18		 jne	 SHORT $LN6@vehicle_se
  00151	a1 00 00 00 00	 mov	 eax, DWORD PTR ?__LINE__Var@?0??vehicle_select_best_weapon@@YGHPAUENTITY@@0@Z@4JA
  00156	83 c0 28	 add	 eax, 40			; 00000028H
  00159	50		 push	 eax
  0015a	68 00 00 00 00	 push	 OFFSET ??_C@_0EL@DIAIKBFG@c?3?2users?2nhv90?2projects?2eech?2ap@
  0015f	68 00 00 00 00	 push	 OFFSET ??_C@_04GGKLLKOO@task@
  00164	e8 00 00 00 00	 call	 ?process_assert@@YGXPBD0H@Z ; process_assert
$LN6@vehicle_se:

; 567  : 
; 568  : 				notify_local_entity (ENTITY_MESSAGE_TASK_TERMINATED, task, en, TASK_TERMINATED_ABORTED);

  00169	6a 02		 push	 2
  0016b	8b 45 08	 mov	 eax, DWORD PTR _en$[ebp]
  0016e	50		 push	 eax
  0016f	8b 4d f8	 mov	 ecx, DWORD PTR _task$[ebp]
  00172	51		 push	 ecx
  00173	6a 36		 push	 54			; 00000036H
  00175	e8 00 00 00 00	 call	 ?notify_local_entity@@YAHW4ENTITY_MESSAGES@@PAUENTITY@@1ZZ ; notify_local_entity
  0017a	83 c4 10	 add	 esp, 16			; 00000010H
$LN4@vehicle_se:

; 569  : 			}
; 570  : 		}
; 571  : 
; 572  : 		if (weapon_type != get_local_entity_int_value (en, INT_TYPE_SELECTED_WEAPON))

  0017d	83 7d 08 00	 cmp	 DWORD PTR _en$[ebp], 0
  00181	74 0a		 je	 SHORT $LN18@vehicle_se
  00183	8b 45 08	 mov	 eax, DWORD PTR _en$[ebp]
  00186	8b 08		 mov	 ecx, DWORD PTR [eax]
  00188	89 4d b0	 mov	 DWORD PTR tv161[ebp], ecx
  0018b	eb 1d		 jmp	 SHORT $LN19@vehicle_se
$LN18@vehicle_se:
  0018d	68 3c 02 00 00	 push	 572			; 0000023cH
  00192	68 00 00 00 00	 push	 OFFSET ??_C@_0EL@DIAIKBFG@c?3?2users?2nhv90?2projects?2eech?2ap@
  00197	8b 15 00 00 00
	00		 mov	 edx, DWORD PTR ?null_entity_pointer_message@@3PBDB ; null_entity_pointer_message
  0019d	52		 push	 edx
  0019e	e8 00 00 00 00	 call	 ?process_assert@@YGXPBD0H@Z ; process_assert
  001a3	c7 45 b0 00 00
	00 00		 mov	 DWORD PTR tv161[ebp], 0
$LN19@vehicle_se:
  001aa	b8 01 00 00 00	 mov	 eax, 1
  001af	85 c0		 test	 eax, eax
  001b1	74 09		 je	 SHORT $LN20@vehicle_se
  001b3	c7 45 ac b8 00
	00 00		 mov	 DWORD PTR tv168[ebp], 184 ; 000000b8H
  001ba	eb 1d		 jmp	 SHORT $LN21@vehicle_se
$LN20@vehicle_se:
  001bc	68 3c 02 00 00	 push	 572			; 0000023cH
  001c1	68 00 00 00 00	 push	 OFFSET ??_C@_0EL@DIAIKBFG@c?3?2users?2nhv90?2projects?2eech?2ap@
  001c6	8b 0d 00 00 00
	00		 mov	 ecx, DWORD PTR ?overload_invalid_int_type_message@@3PBDB ; overload_invalid_int_type_message
  001cc	51		 push	 ecx
  001cd	e8 00 00 00 00	 call	 ?process_assert@@YGXPBD0H@Z ; process_assert
  001d2	c7 45 ac 00 00
	00 00		 mov	 DWORD PTR tv168[ebp], 0
$LN21@vehicle_se:
  001d9	68 b8 00 00 00	 push	 184			; 000000b8H
  001de	8b 55 08	 mov	 edx, DWORD PTR _en$[ebp]
  001e1	52		 push	 edx
  001e2	69 45 b0 5c 04
	00 00		 imul	 eax, DWORD PTR tv161[ebp], 1116
  001e9	8b 4d ac	 mov	 ecx, DWORD PTR tv168[ebp]
  001ec	8b 94 88 00 00
	00 00		 mov	 edx, DWORD PTR ?fn_get_local_entity_int_value@@3PAY0BBH@P6GHPAUENTITY@@W4INT_TYPES@@@ZA[eax+ecx*4]
  001f3	ff d2		 call	 edx
  001f5	39 45 f4	 cmp	 DWORD PTR _weapon_type$[ebp], eax
  001f8	0f 84 8c 00 00
	00		 je	 $LN7@vehicle_se

; 573  : 		{
; 574  : 			set_client_server_entity_int_value (en, INT_TYPE_SELECTED_WEAPON, weapon_type);

  001fe	83 7d 08 00	 cmp	 DWORD PTR _en$[ebp], 0
  00202	74 0a		 je	 SHORT $LN22@vehicle_se
  00204	8b 45 08	 mov	 eax, DWORD PTR _en$[ebp]
  00207	8b 08		 mov	 ecx, DWORD PTR [eax]
  00209	89 4d b0	 mov	 DWORD PTR tv181[ebp], ecx
  0020c	eb 21		 jmp	 SHORT $LN23@vehicle_se
$LN22@vehicle_se:
  0020e	8b 15 00 00 00
	00		 mov	 edx, DWORD PTR ?__LINE__Var@?0??vehicle_select_best_weapon@@YGHPAUENTITY@@0@Z@4JA
  00214	83 c2 30	 add	 edx, 48			; 00000030H
  00217	52		 push	 edx
  00218	68 00 00 00 00	 push	 OFFSET ??_C@_0EL@DIAIKBFG@c?3?2users?2nhv90?2projects?2eech?2ap@
  0021d	a1 00 00 00 00	 mov	 eax, DWORD PTR ?null_entity_pointer_message@@3PBDB ; null_entity_pointer_message
  00222	50		 push	 eax
  00223	e8 00 00 00 00	 call	 ?process_assert@@YGXPBD0H@Z ; process_assert
  00228	c7 45 b0 00 00
	00 00		 mov	 DWORD PTR tv181[ebp], 0
$LN23@vehicle_se:
  0022f	b9 01 00 00 00	 mov	 ecx, 1
  00234	85 c9		 test	 ecx, ecx
  00236	74 09		 je	 SHORT $LN24@vehicle_se
  00238	c7 45 ac b8 00
	00 00		 mov	 DWORD PTR tv189[ebp], 184 ; 000000b8H
  0023f	eb 21		 jmp	 SHORT $LN25@vehicle_se
$LN24@vehicle_se:
  00241	8b 15 00 00 00
	00		 mov	 edx, DWORD PTR ?__LINE__Var@?0??vehicle_select_best_weapon@@YGHPAUENTITY@@0@Z@4JA
  00247	83 c2 30	 add	 edx, 48			; 00000030H
  0024a	52		 push	 edx
  0024b	68 00 00 00 00	 push	 OFFSET ??_C@_0EL@DIAIKBFG@c?3?2users?2nhv90?2projects?2eech?2ap@
  00250	a1 00 00 00 00	 mov	 eax, DWORD PTR ?overload_invalid_int_type_message@@3PBDB ; overload_invalid_int_type_message
  00255	50		 push	 eax
  00256	e8 00 00 00 00	 call	 ?process_assert@@YGXPBD0H@Z ; process_assert
  0025b	c7 45 ac 00 00
	00 00		 mov	 DWORD PTR tv189[ebp], 0
$LN25@vehicle_se:
  00262	8b 4d f4	 mov	 ecx, DWORD PTR _weapon_type$[ebp]
  00265	51		 push	 ecx
  00266	68 b8 00 00 00	 push	 184			; 000000b8H
  0026b	8b 55 08	 mov	 edx, DWORD PTR _en$[ebp]
  0026e	52		 push	 edx
  0026f	69 45 b0 b8 08
	00 00		 imul	 eax, DWORD PTR tv181[ebp], 2232
  00276	8b 4d ac	 mov	 ecx, DWORD PTR tv189[ebp]
  00279	8d 94 c8 00 00
	00 00		 lea	 edx, DWORD PTR ?fn_set_client_server_entity_int_value@@3PAY1BBH@1P6GXPAUENTITY@@W4INT_TYPES@@H@ZA[eax+ecx*8]
  00280	a1 00 00 00 00	 mov	 eax, DWORD PTR ?system_comms_model@@3W4COMMS_MODEL_TYPES@@A ; system_comms_model
  00285	8b 0c 82	 mov	 ecx, DWORD PTR [edx+eax*4]
  00288	ff d1		 call	 ecx
$LN7@vehicle_se:

; 575  : 		}
; 576  : 
; 577  : 		return FALSE;

  0028a	33 c0		 xor	 eax, eax
  0028c	e9 17 01 00 00	 jmp	 $LN1@vehicle_se

; 578  : 	}
; 579  : 	else

  00291	e9 12 01 00 00	 jmp	 $LN1@vehicle_se
$LN2@vehicle_se:

; 580  : 	{
; 581  : 		if (weapon_type != get_local_entity_int_value (en, INT_TYPE_SELECTED_WEAPON))

  00296	83 7d 08 00	 cmp	 DWORD PTR _en$[ebp], 0
  0029a	74 0a		 je	 SHORT $LN26@vehicle_se
  0029c	8b 45 08	 mov	 eax, DWORD PTR _en$[ebp]
  0029f	8b 08		 mov	 ecx, DWORD PTR [eax]
  002a1	89 4d b0	 mov	 DWORD PTR tv202[ebp], ecx
  002a4	eb 1d		 jmp	 SHORT $LN27@vehicle_se
$LN26@vehicle_se:
  002a6	68 45 02 00 00	 push	 581			; 00000245H
  002ab	68 00 00 00 00	 push	 OFFSET ??_C@_0EL@DIAIKBFG@c?3?2users?2nhv90?2projects?2eech?2ap@
  002b0	8b 15 00 00 00
	00		 mov	 edx, DWORD PTR ?null_entity_pointer_message@@3PBDB ; null_entity_pointer_message
  002b6	52		 push	 edx
  002b7	e8 00 00 00 00	 call	 ?process_assert@@YGXPBD0H@Z ; process_assert
  002bc	c7 45 b0 00 00
	00 00		 mov	 DWORD PTR tv202[ebp], 0
$LN27@vehicle_se:
  002c3	b8 01 00 00 00	 mov	 eax, 1
  002c8	85 c0		 test	 eax, eax
  002ca	74 09		 je	 SHORT $LN28@vehicle_se
  002cc	c7 45 ac b8 00
	00 00		 mov	 DWORD PTR tv209[ebp], 184 ; 000000b8H
  002d3	eb 1d		 jmp	 SHORT $LN29@vehicle_se
$LN28@vehicle_se:
  002d5	68 45 02 00 00	 push	 581			; 00000245H
  002da	68 00 00 00 00	 push	 OFFSET ??_C@_0EL@DIAIKBFG@c?3?2users?2nhv90?2projects?2eech?2ap@
  002df	8b 0d 00 00 00
	00		 mov	 ecx, DWORD PTR ?overload_invalid_int_type_message@@3PBDB ; overload_invalid_int_type_message
  002e5	51		 push	 ecx
  002e6	e8 00 00 00 00	 call	 ?process_assert@@YGXPBD0H@Z ; process_assert
  002eb	c7 45 ac 00 00
	00 00		 mov	 DWORD PTR tv209[ebp], 0
$LN29@vehicle_se:
  002f2	68 b8 00 00 00	 push	 184			; 000000b8H
  002f7	8b 55 08	 mov	 edx, DWORD PTR _en$[ebp]
  002fa	52		 push	 edx
  002fb	69 45 b0 5c 04
	00 00		 imul	 eax, DWORD PTR tv202[ebp], 1116
  00302	8b 4d ac	 mov	 ecx, DWORD PTR tv209[ebp]
  00305	8b 94 88 00 00
	00 00		 mov	 edx, DWORD PTR ?fn_get_local_entity_int_value@@3PAY0BBH@P6GHPAUENTITY@@W4INT_TYPES@@@ZA[eax+ecx*4]
  0030c	ff d2		 call	 edx
  0030e	39 45 f4	 cmp	 DWORD PTR _weapon_type$[ebp], eax
  00311	0f 84 8c 00 00
	00		 je	 $LN8@vehicle_se

; 582  : 		{
; 583  : 			set_client_server_entity_int_value (en, INT_TYPE_SELECTED_WEAPON, weapon_type);

  00317	83 7d 08 00	 cmp	 DWORD PTR _en$[ebp], 0
  0031b	74 0a		 je	 SHORT $LN30@vehicle_se
  0031d	8b 45 08	 mov	 eax, DWORD PTR _en$[ebp]
  00320	8b 08		 mov	 ecx, DWORD PTR [eax]
  00322	89 4d b0	 mov	 DWORD PTR tv222[ebp], ecx
  00325	eb 21		 jmp	 SHORT $LN31@vehicle_se
$LN30@vehicle_se:
  00327	8b 15 00 00 00
	00		 mov	 edx, DWORD PTR ?__LINE__Var@?0??vehicle_select_best_weapon@@YGHPAUENTITY@@0@Z@4JA
  0032d	83 c2 39	 add	 edx, 57			; 00000039H
  00330	52		 push	 edx
  00331	68 00 00 00 00	 push	 OFFSET ??_C@_0EL@DIAIKBFG@c?3?2users?2nhv90?2projects?2eech?2ap@
  00336	a1 00 00 00 00	 mov	 eax, DWORD PTR ?null_entity_pointer_message@@3PBDB ; null_entity_pointer_message
  0033b	50		 push	 eax
  0033c	e8 00 00 00 00	 call	 ?process_assert@@YGXPBD0H@Z ; process_assert
  00341	c7 45 b0 00 00
	00 00		 mov	 DWORD PTR tv222[ebp], 0
$LN31@vehicle_se:
  00348	b9 01 00 00 00	 mov	 ecx, 1
  0034d	85 c9		 test	 ecx, ecx
  0034f	74 09		 je	 SHORT $LN32@vehicle_se
  00351	c7 45 ac b8 00
	00 00		 mov	 DWORD PTR tv230[ebp], 184 ; 000000b8H
  00358	eb 21		 jmp	 SHORT $LN33@vehicle_se
$LN32@vehicle_se:
  0035a	8b 15 00 00 00
	00		 mov	 edx, DWORD PTR ?__LINE__Var@?0??vehicle_select_best_weapon@@YGHPAUENTITY@@0@Z@4JA
  00360	83 c2 39	 add	 edx, 57			; 00000039H
  00363	52		 push	 edx
  00364	68 00 00 00 00	 push	 OFFSET ??_C@_0EL@DIAIKBFG@c?3?2users?2nhv90?2projects?2eech?2ap@
  00369	a1 00 00 00 00	 mov	 eax, DWORD PTR ?overload_invalid_int_type_message@@3PBDB ; overload_invalid_int_type_message
  0036e	50		 push	 eax
  0036f	e8 00 00 00 00	 call	 ?process_assert@@YGXPBD0H@Z ; process_assert
  00374	c7 45 ac 00 00
	00 00		 mov	 DWORD PTR tv230[ebp], 0
$LN33@vehicle_se:
  0037b	8b 4d f4	 mov	 ecx, DWORD PTR _weapon_type$[ebp]
  0037e	51		 push	 ecx
  0037f	68 b8 00 00 00	 push	 184			; 000000b8H
  00384	8b 55 08	 mov	 edx, DWORD PTR _en$[ebp]
  00387	52		 push	 edx
  00388	69 45 b0 b8 08
	00 00		 imul	 eax, DWORD PTR tv222[ebp], 2232
  0038f	8b 4d ac	 mov	 ecx, DWORD PTR tv230[ebp]
  00392	8d 94 c8 00 00
	00 00		 lea	 edx, DWORD PTR ?fn_set_client_server_entity_int_value@@3PAY1BBH@1P6GXPAUENTITY@@W4INT_TYPES@@H@ZA[eax+ecx*8]
  00399	a1 00 00 00 00	 mov	 eax, DWORD PTR ?system_comms_model@@3W4COMMS_MODEL_TYPES@@A ; system_comms_model
  0039e	8b 0c 82	 mov	 ecx, DWORD PTR [edx+eax*4]
  003a1	ff d1		 call	 ecx
$LN8@vehicle_se:

; 584  : 		}
; 585  : 
; 586  : 		return TRUE;

  003a3	b8 01 00 00 00	 mov	 eax, 1
$LN1@vehicle_se:

; 587  : 	}
; 588  : }

  003a8	5f		 pop	 edi
  003a9	5e		 pop	 esi
  003aa	5b		 pop	 ebx
  003ab	8b e5		 mov	 esp, ebp
  003ad	5d		 pop	 ebp
  003ae	c2 08 00	 ret	 8
?vehicle_select_best_weapon@@YGHPAUENTITY@@0@Z ENDP	; vehicle_select_best_weapon
_TEXT	ENDS
; Function compile flags: /Odtp /ZI
; File c:\users\nhv90\projects\eech\aphavoc\source\entity\mobile\vehicle\vh_wpn.c
;	COMDAT ?update_vehicle_decoy_release@@YGXPAUENTITY@@@Z
_TEXT	SEGMENT
tv373 = -116						; size = 8
tv344 = -108						; size = 4
tv316 = -108						; size = 4
tv293 = -108						; size = 4
tv269 = -108						; size = 4
tv243 = -108						; size = 4
tv223 = -108						; size = 4
tv202 = -108						; size = 4
tv183 = -108						; size = 4
tv156 = -108						; size = 4
tv134 = -108						; size = 4
tv336 = -104						; size = 4
tv308 = -104						; size = 4
tv285 = -104						; size = 4
tv262 = -104						; size = 4
tv255 = -104						; size = 4
tv235 = -104						; size = 4
tv215 = -104						; size = 4
tv195 = -104						; size = 4
tv175 = -104						; size = 4
tv148 = -104						; size = 4
tv95 = -104						; size = 4
$T1 = -100						; size = 4
_weapon_position$ = -32					; size = 4
_target_position$ = -28					; size = 4
_launched_weapon$ = -24					; size = 4
_persuer$ = -20						; size = 4
_time_to_impact$ = -16					; size = 4
_velocity$ = -12					; size = 4
_range$ = -8						; size = 4
_raw$ = -4						; size = 4
_en$ = 8						; size = 4
?update_vehicle_decoy_release@@YGXPAUENTITY@@@Z PROC	; update_vehicle_decoy_release, COMDAT

; 595  : {

  00000	55		 push	 ebp
  00001	8b ec		 mov	 ebp, esp
  00003	83 ec 74	 sub	 esp, 116		; 00000074H
  00006	53		 push	 ebx
  00007	56		 push	 esi
  00008	57		 push	 edi

; 596  : 	vehicle
; 597  : 		*raw;
; 598  : 
; 599  : 	float
; 600  : 		range,
; 601  : 		velocity,
; 602  : 		time_to_impact;
; 603  : 
; 604  : 	entity
; 605  : 		*persuer,
; 606  : 		*launched_weapon;
; 607  : 
; 608  : 	vec3d
; 609  : 		*target_position,
; 610  : 		*weapon_position;
; 611  : 
; 612  : 	ASSERT (en);

  00009	83 7d 08 00	 cmp	 DWORD PTR _en$[ebp], 0
  0000d	75 18		 jne	 SHORT $LN6@update_veh
  0000f	a1 00 00 00 00	 mov	 eax, DWORD PTR ?__LINE__Var@?0??update_vehicle_decoy_release@@YGXPAUENTITY@@@Z@4JA
  00014	83 c0 11	 add	 eax, 17			; 00000011H
  00017	50		 push	 eax
  00018	68 00 00 00 00	 push	 OFFSET ??_C@_0EL@DIAIKBFG@c?3?2users?2nhv90?2projects?2eech?2ap@
  0001d	68 00 00 00 00	 push	 OFFSET ??_C@_02LFNMGJAP@en@
  00022	e8 00 00 00 00	 call	 ?process_assert@@YGXPBD0H@Z ; process_assert
$LN6@update_veh:

; 613  : 
; 614  : 	ASSERT (get_comms_model () == COMMS_MODEL_SERVER);

  00027	83 3d 00 00 00
	00 00		 cmp	 DWORD PTR ?system_comms_model@@3W4COMMS_MODEL_TYPES@@A, 0 ; system_comms_model
  0002e	74 18		 je	 SHORT $LN7@update_veh
  00030	a1 00 00 00 00	 mov	 eax, DWORD PTR ?__LINE__Var@?0??update_vehicle_decoy_release@@YGXPAUENTITY@@@Z@4JA
  00035	83 c0 13	 add	 eax, 19			; 00000013H
  00038	50		 push	 eax
  00039	68 00 00 00 00	 push	 OFFSET ??_C@_0EL@DIAIKBFG@c?3?2users?2nhv90?2projects?2eech?2ap@
  0003e	68 00 00 00 00	 push	 OFFSET ??_C@_0CJ@DMBLBJBK@get_comms_model?5?$CI?$CJ?5?$DN?$DN?5COMMS_MOD@
  00043	e8 00 00 00 00	 call	 ?process_assert@@YGXPBD0H@Z ; process_assert
$LN7@update_veh:

; 615  : 
; 616  : 	raw = (vehicle *) get_local_entity_data (en);

  00048	8b 45 08	 mov	 eax, DWORD PTR _en$[ebp]
  0004b	8b 48 04	 mov	 ecx, DWORD PTR [eax+4]
  0004e	89 4d fc	 mov	 DWORD PTR _raw$[ebp], ecx

; 617  : 
; 618  : 	////////////////////////////////////////
; 619  : 	//
; 620  : 	// update timer
; 621  : 	//
; 622  : 	////////////////////////////////////////
; 623  : 
; 624  : 	raw->decoy_release_timer -= get_delta_time ();

  00051	8b 45 fc	 mov	 eax, DWORD PTR _raw$[ebp]
  00054	f3 0f 10 80 0c
	01 00 00	 movss	 xmm0, DWORD PTR [eax+268]
  0005c	f3 0f 5c 05 00
	00 00 00	 subss	 xmm0, DWORD PTR ?system_delta_time@@3MA
  00064	8b 4d fc	 mov	 ecx, DWORD PTR _raw$[ebp]
  00067	f3 0f 11 81 0c
	01 00 00	 movss	 DWORD PTR [ecx+268], xmm0

; 625  : 
; 626  : 	if (raw->decoy_release_timer >= 0.0)

  0006f	8b 45 fc	 mov	 eax, DWORD PTR _raw$[ebp]
  00072	f3 0f 5a 80 0c
	01 00 00	 cvtss2sd xmm0, DWORD PTR [eax+268]
  0007a	66 0f 2f 05 00
	00 00 00	 comisd	 xmm0, QWORD PTR __real@0000000000000000
  00082	72 05		 jb	 SHORT $LN8@update_veh

; 627  : 	{
; 628  : 		return;

  00084	e9 35 06 00 00	 jmp	 $LN1@update_veh
$LN8@update_veh:

; 629  : 	}
; 630  : 
; 631  : 	raw->decoy_release_timer = 2.0 + frand1 ();

  00089	69 05 00 00 00
	00 6d 4e c6 41	 imul	 eax, DWORD PTR ?random_number_seed@@3HA, 1103515245 ; random_number_seed
  00093	05 39 30 00 00	 add	 eax, 12345		; 00003039H
  00098	a3 00 00 00 00	 mov	 DWORD PTR ?random_number_seed@@3HA, eax ; random_number_seed
  0009d	8b 0d 00 00 00
	00		 mov	 ecx, DWORD PTR ?random_number_seed@@3HA ; random_number_seed
  000a3	c1 f9 10	 sar	 ecx, 16			; 00000010H
  000a6	81 e1 ff 7f 00
	00		 and	 ecx, 32767		; 00007fffH
  000ac	f2 0f 2a c1	 cvtsi2sd xmm0, ecx
  000b0	f2 0f 59 05 00
	00 00 00	 mulsd	 xmm0, QWORD PTR __real@3f00002000400080
  000b8	f2 0f 58 05 00
	00 00 00	 addsd	 xmm0, QWORD PTR __real@4000000000000000
  000c0	f2 0f 5a c0	 cvtsd2ss xmm0, xmm0
  000c4	8b 55 fc	 mov	 edx, DWORD PTR _raw$[ebp]
  000c7	f3 0f 11 82 0c
	01 00 00	 movss	 DWORD PTR [edx+268], xmm0

; 632  : 
; 633  : 	////////////////////////////////////////
; 634  : 	//
; 635  : 	// validate
; 636  : 	//
; 637  : 	////////////////////////////////////////
; 638  : 
; 639  : 	if (get_local_entity_float_value (en, FLOAT_TYPE_VELOCITY) > 0.1)

  000cf	83 7d 08 00	 cmp	 DWORD PTR _en$[ebp], 0
  000d3	74 0a		 je	 SHORT $LN18@update_veh
  000d5	8b 45 08	 mov	 eax, DWORD PTR _en$[ebp]
  000d8	8b 08		 mov	 ecx, DWORD PTR [eax]
  000da	89 4d 98	 mov	 DWORD PTR tv95[ebp], ecx
  000dd	eb 1d		 jmp	 SHORT $LN19@update_veh
$LN18@update_veh:
  000df	68 7f 02 00 00	 push	 639			; 0000027fH
  000e4	68 00 00 00 00	 push	 OFFSET ??_C@_0EL@DIAIKBFG@c?3?2users?2nhv90?2projects?2eech?2ap@
  000e9	8b 15 00 00 00
	00		 mov	 edx, DWORD PTR ?null_entity_pointer_message@@3PBDB ; null_entity_pointer_message
  000ef	52		 push	 edx
  000f0	e8 00 00 00 00	 call	 ?process_assert@@YGXPBD0H@Z ; process_assert
  000f5	c7 45 98 00 00
	00 00		 mov	 DWORD PTR tv95[ebp], 0
$LN19@update_veh:
  000fc	b8 01 00 00 00	 mov	 eax, 1
  00101	85 c0		 test	 eax, eax
  00103	74 09		 je	 SHORT $LN20@update_veh
  00105	c7 45 94 93 00
	00 00		 mov	 DWORD PTR tv134[ebp], 147 ; 00000093H
  0010c	eb 1d		 jmp	 SHORT $LN21@update_veh
$LN20@update_veh:
  0010e	68 7f 02 00 00	 push	 639			; 0000027fH
  00113	68 00 00 00 00	 push	 OFFSET ??_C@_0EL@DIAIKBFG@c?3?2users?2nhv90?2projects?2eech?2ap@
  00118	8b 0d 00 00 00
	00		 mov	 ecx, DWORD PTR ?overload_invalid_float_type_message@@3PBDB ; overload_invalid_float_type_message
  0011e	51		 push	 ecx
  0011f	e8 00 00 00 00	 call	 ?process_assert@@YGXPBD0H@Z ; process_assert
  00124	c7 45 94 00 00
	00 00		 mov	 DWORD PTR tv134[ebp], 0
$LN21@update_veh:
  0012b	68 93 00 00 00	 push	 147			; 00000093H
  00130	8b 55 08	 mov	 edx, DWORD PTR _en$[ebp]
  00133	52		 push	 edx
  00134	69 45 98 bc 02
	00 00		 imul	 eax, DWORD PTR tv95[ebp], 700
  0013b	8b 4d 94	 mov	 ecx, DWORD PTR tv134[ebp]
  0013e	8b 94 88 00 00
	00 00		 mov	 edx, DWORD PTR ?fn_get_local_entity_float_value@@3PAY0KP@P6GMPAUENTITY@@W4FLOAT_TYPES@@@ZA[eax+ecx*4]
  00145	ff d2		 call	 edx
  00147	dd 5d 8c	 fstp	 QWORD PTR tv373[ebp]
  0014a	f2 0f 10 45 8c	 movsd	 xmm0, QWORD PTR tv373[ebp]
  0014f	66 0f 2f 05 00
	00 00 00	 comisd	 xmm0, QWORD PTR __real@3fb999999999999a
  00157	76 05		 jbe	 SHORT $LN9@update_veh

; 640  : 	{
; 641  : 		return;

  00159	e9 60 05 00 00	 jmp	 $LN1@update_veh
$LN9@update_veh:

; 642  : 	}
; 643  : 
; 644  : 	persuer = get_local_entity_first_child (en, LIST_TYPE_TARGET);

  0015e	83 7d 08 00	 cmp	 DWORD PTR _en$[ebp], 0
  00162	74 0a		 je	 SHORT $LN22@update_veh
  00164	8b 45 08	 mov	 eax, DWORD PTR _en$[ebp]
  00167	8b 08		 mov	 ecx, DWORD PTR [eax]
  00169	89 4d 98	 mov	 DWORD PTR tv148[ebp], ecx
  0016c	eb 21		 jmp	 SHORT $LN23@update_veh
$LN22@update_veh:
  0016e	8b 15 00 00 00
	00		 mov	 edx, DWORD PTR ?__LINE__Var@?0??update_vehicle_decoy_release@@YGXPAUENTITY@@@Z@4JA
  00174	83 c2 31	 add	 edx, 49			; 00000031H
  00177	52		 push	 edx
  00178	68 00 00 00 00	 push	 OFFSET ??_C@_0EL@DIAIKBFG@c?3?2users?2nhv90?2projects?2eech?2ap@
  0017d	a1 00 00 00 00	 mov	 eax, DWORD PTR ?null_entity_pointer_message@@3PBDB ; null_entity_pointer_message
  00182	50		 push	 eax
  00183	e8 00 00 00 00	 call	 ?process_assert@@YGXPBD0H@Z ; process_assert
  00188	c7 45 98 00 00
	00 00		 mov	 DWORD PTR tv148[ebp], 0
$LN23@update_veh:
  0018f	b9 01 00 00 00	 mov	 ecx, 1
  00194	85 c9		 test	 ecx, ecx
  00196	74 09		 je	 SHORT $LN24@update_veh
  00198	c7 45 94 26 00
	00 00		 mov	 DWORD PTR tv156[ebp], 38 ; 00000026H
  0019f	eb 21		 jmp	 SHORT $LN25@update_veh
$LN24@update_veh:
  001a1	8b 15 00 00 00
	00		 mov	 edx, DWORD PTR ?__LINE__Var@?0??update_vehicle_decoy_release@@YGXPAUENTITY@@@Z@4JA
  001a7	83 c2 31	 add	 edx, 49			; 00000031H
  001aa	52		 push	 edx
  001ab	68 00 00 00 00	 push	 OFFSET ??_C@_0EL@DIAIKBFG@c?3?2users?2nhv90?2projects?2eech?2ap@
  001b0	a1 00 00 00 00	 mov	 eax, DWORD PTR ?overload_invalid_list_type_message@@3PBDB ; overload_invalid_list_type_message
  001b5	50		 push	 eax
  001b6	e8 00 00 00 00	 call	 ?process_assert@@YGXPBD0H@Z ; process_assert
  001bb	c7 45 94 00 00
	00 00		 mov	 DWORD PTR tv156[ebp], 0
$LN25@update_veh:
  001c2	6a 26		 push	 38			; 00000026H
  001c4	8b 4d 08	 mov	 ecx, DWORD PTR _en$[ebp]
  001c7	51		 push	 ecx
  001c8	69 55 98 b4 00
	00 00		 imul	 edx, DWORD PTR tv148[ebp], 180
  001cf	8b 45 94	 mov	 eax, DWORD PTR tv156[ebp]
  001d2	8b 8c 82 00 00
	00 00		 mov	 ecx, DWORD PTR ?fn_get_local_entity_first_child@@3PAY0CN@P6GPAUENTITY@@PAU1@W4LIST_TYPES@@@ZA[edx+eax*4]
  001d9	ff d1		 call	 ecx
  001db	89 45 ec	 mov	 DWORD PTR _persuer$[ebp], eax

; 645  : 
; 646  : 	if (!persuer)

  001de	83 7d ec 00	 cmp	 DWORD PTR _persuer$[ebp], 0
  001e2	75 05		 jne	 SHORT $LN10@update_veh

; 647  : 	{
; 648  : 		return;

  001e4	e9 d5 04 00 00	 jmp	 $LN1@update_veh
$LN10@update_veh:

; 649  : 	}
; 650  : 
; 651  : 	if (!vehicle_database[raw->mob.sub_type].carries_smoke_grenades)

  001e9	8b 45 fc	 mov	 eax, DWORD PTR _raw$[ebp]
  001ec	69 08 bc 00 00
	00		 imul	 ecx, DWORD PTR [eax], 188
  001f2	83 b9 48 00 00
	00 00		 cmp	 DWORD PTR ?vehicle_database@@3PAUVEHICLE_DATA@@A[ecx+72], 0
  001f9	75 05		 jne	 SHORT $LN11@update_veh

; 652  : 	{
; 653  : 		return;

  001fb	e9 be 04 00 00	 jmp	 $LN1@update_veh
$LN11@update_veh:

; 654  : 	}
; 655  : 
; 656  : 	launched_weapon = get_local_entity_first_child (en, LIST_TYPE_LAUNCHED_WEAPON);

  00200	83 7d 08 00	 cmp	 DWORD PTR _en$[ebp], 0
  00204	74 0a		 je	 SHORT $LN26@update_veh
  00206	8b 45 08	 mov	 eax, DWORD PTR _en$[ebp]
  00209	8b 08		 mov	 ecx, DWORD PTR [eax]
  0020b	89 4d 98	 mov	 DWORD PTR tv175[ebp], ecx
  0020e	eb 21		 jmp	 SHORT $LN27@update_veh
$LN26@update_veh:
  00210	8b 15 00 00 00
	00		 mov	 edx, DWORD PTR ?__LINE__Var@?0??update_vehicle_decoy_release@@YGXPAUENTITY@@@Z@4JA
  00216	83 c2 3d	 add	 edx, 61			; 0000003dH
  00219	52		 push	 edx
  0021a	68 00 00 00 00	 push	 OFFSET ??_C@_0EL@DIAIKBFG@c?3?2users?2nhv90?2projects?2eech?2ap@
  0021f	a1 00 00 00 00	 mov	 eax, DWORD PTR ?null_entity_pointer_message@@3PBDB ; null_entity_pointer_message
  00224	50		 push	 eax
  00225	e8 00 00 00 00	 call	 ?process_assert@@YGXPBD0H@Z ; process_assert
  0022a	c7 45 98 00 00
	00 00		 mov	 DWORD PTR tv175[ebp], 0
$LN27@update_veh:
  00231	b9 01 00 00 00	 mov	 ecx, 1
  00236	85 c9		 test	 ecx, ecx
  00238	74 09		 je	 SHORT $LN28@update_veh
  0023a	c7 45 94 18 00
	00 00		 mov	 DWORD PTR tv183[ebp], 24 ; 00000018H
  00241	eb 21		 jmp	 SHORT $LN29@update_veh
$LN28@update_veh:
  00243	8b 15 00 00 00
	00		 mov	 edx, DWORD PTR ?__LINE__Var@?0??update_vehicle_decoy_release@@YGXPAUENTITY@@@Z@4JA
  00249	83 c2 3d	 add	 edx, 61			; 0000003dH
  0024c	52		 push	 edx
  0024d	68 00 00 00 00	 push	 OFFSET ??_C@_0EL@DIAIKBFG@c?3?2users?2nhv90?2projects?2eech?2ap@
  00252	a1 00 00 00 00	 mov	 eax, DWORD PTR ?overload_invalid_list_type_message@@3PBDB ; overload_invalid_list_type_message
  00257	50		 push	 eax
  00258	e8 00 00 00 00	 call	 ?process_assert@@YGXPBD0H@Z ; process_assert
  0025d	c7 45 94 00 00
	00 00		 mov	 DWORD PTR tv183[ebp], 0
$LN29@update_veh:
  00264	6a 18		 push	 24			; 00000018H
  00266	8b 4d 08	 mov	 ecx, DWORD PTR _en$[ebp]
  00269	51		 push	 ecx
  0026a	69 55 98 b4 00
	00 00		 imul	 edx, DWORD PTR tv175[ebp], 180
  00271	8b 45 94	 mov	 eax, DWORD PTR tv183[ebp]
  00274	8b 8c 82 00 00
	00 00		 mov	 ecx, DWORD PTR ?fn_get_local_entity_first_child@@3PAY0CN@P6GPAUENTITY@@PAU1@W4LIST_TYPES@@@ZA[edx+eax*4]
  0027b	ff d1		 call	 ecx
  0027d	89 45 e8	 mov	 DWORD PTR _launched_weapon$[ebp], eax
$LN2@update_veh:

; 657  : 
; 658  : 	while (launched_weapon)

  00280	83 7d e8 00	 cmp	 DWORD PTR _launched_weapon$[ebp], 0
  00284	0f 84 04 01 00
	00		 je	 $LN3@update_veh

; 659  : 	{
; 660  : 		if (get_local_entity_int_value (launched_weapon, INT_TYPE_ENTITY_SUB_TYPE) == ENTITY_SUB_TYPE_WEAPON_SMOKE_GRENADE)

  0028a	83 7d e8 00	 cmp	 DWORD PTR _launched_weapon$[ebp], 0
  0028e	74 0a		 je	 SHORT $LN30@update_veh
  00290	8b 45 e8	 mov	 eax, DWORD PTR _launched_weapon$[ebp]
  00293	8b 08		 mov	 ecx, DWORD PTR [eax]
  00295	89 4d 98	 mov	 DWORD PTR tv195[ebp], ecx
  00298	eb 1d		 jmp	 SHORT $LN31@update_veh
$LN30@update_veh:
  0029a	68 94 02 00 00	 push	 660			; 00000294H
  0029f	68 00 00 00 00	 push	 OFFSET ??_C@_0EL@DIAIKBFG@c?3?2users?2nhv90?2projects?2eech?2ap@
  002a4	8b 15 00 00 00
	00		 mov	 edx, DWORD PTR ?null_entity_pointer_message@@3PBDB ; null_entity_pointer_message
  002aa	52		 push	 edx
  002ab	e8 00 00 00 00	 call	 ?process_assert@@YGXPBD0H@Z ; process_assert
  002b0	c7 45 98 00 00
	00 00		 mov	 DWORD PTR tv195[ebp], 0
$LN31@update_veh:
  002b7	b8 01 00 00 00	 mov	 eax, 1
  002bc	85 c0		 test	 eax, eax
  002be	74 09		 je	 SHORT $LN32@update_veh
  002c0	c7 45 94 34 00
	00 00		 mov	 DWORD PTR tv202[ebp], 52 ; 00000034H
  002c7	eb 1d		 jmp	 SHORT $LN33@update_veh
$LN32@update_veh:
  002c9	68 94 02 00 00	 push	 660			; 00000294H
  002ce	68 00 00 00 00	 push	 OFFSET ??_C@_0EL@DIAIKBFG@c?3?2users?2nhv90?2projects?2eech?2ap@
  002d3	8b 0d 00 00 00
	00		 mov	 ecx, DWORD PTR ?overload_invalid_int_type_message@@3PBDB ; overload_invalid_int_type_message
  002d9	51		 push	 ecx
  002da	e8 00 00 00 00	 call	 ?process_assert@@YGXPBD0H@Z ; process_assert
  002df	c7 45 94 00 00
	00 00		 mov	 DWORD PTR tv202[ebp], 0
$LN33@update_veh:
  002e6	6a 34		 push	 52			; 00000034H
  002e8	8b 55 e8	 mov	 edx, DWORD PTR _launched_weapon$[ebp]
  002eb	52		 push	 edx
  002ec	69 45 98 5c 04
	00 00		 imul	 eax, DWORD PTR tv195[ebp], 1116
  002f3	8b 4d 94	 mov	 ecx, DWORD PTR tv202[ebp]
  002f6	8b 94 88 00 00
	00 00		 mov	 edx, DWORD PTR ?fn_get_local_entity_int_value@@3PAY0BBH@P6GHPAUENTITY@@W4INT_TYPES@@@ZA[eax+ecx*4]
  002fd	ff d2		 call	 edx
  002ff	83 f8 45	 cmp	 eax, 69			; 00000045H
  00302	75 05		 jne	 SHORT $LN12@update_veh

; 661  : 		{
; 662  : 			return;

  00304	e9 b5 03 00 00	 jmp	 $LN1@update_veh
$LN12@update_veh:

; 663  : 		}
; 664  : 
; 665  : 		launched_weapon = get_local_entity_child_succ (launched_weapon, LIST_TYPE_LAUNCHED_WEAPON);

  00309	83 7d e8 00	 cmp	 DWORD PTR _launched_weapon$[ebp], 0
  0030d	74 0a		 je	 SHORT $LN34@update_veh
  0030f	8b 45 e8	 mov	 eax, DWORD PTR _launched_weapon$[ebp]
  00312	8b 08		 mov	 ecx, DWORD PTR [eax]
  00314	89 4d 98	 mov	 DWORD PTR tv215[ebp], ecx
  00317	eb 21		 jmp	 SHORT $LN35@update_veh
$LN34@update_veh:
  00319	8b 15 00 00 00
	00		 mov	 edx, DWORD PTR ?__LINE__Var@?0??update_vehicle_decoy_release@@YGXPAUENTITY@@@Z@4JA
  0031f	83 c2 46	 add	 edx, 70			; 00000046H
  00322	52		 push	 edx
  00323	68 00 00 00 00	 push	 OFFSET ??_C@_0EL@DIAIKBFG@c?3?2users?2nhv90?2projects?2eech?2ap@
  00328	a1 00 00 00 00	 mov	 eax, DWORD PTR ?null_entity_pointer_message@@3PBDB ; null_entity_pointer_message
  0032d	50		 push	 eax
  0032e	e8 00 00 00 00	 call	 ?process_assert@@YGXPBD0H@Z ; process_assert
  00333	c7 45 98 00 00
	00 00		 mov	 DWORD PTR tv215[ebp], 0
$LN35@update_veh:
  0033a	b9 01 00 00 00	 mov	 ecx, 1
  0033f	85 c9		 test	 ecx, ecx
  00341	74 09		 je	 SHORT $LN36@update_veh
  00343	c7 45 94 18 00
	00 00		 mov	 DWORD PTR tv223[ebp], 24 ; 00000018H
  0034a	eb 21		 jmp	 SHORT $LN37@update_veh
$LN36@update_veh:
  0034c	8b 15 00 00 00
	00		 mov	 edx, DWORD PTR ?__LINE__Var@?0??update_vehicle_decoy_release@@YGXPAUENTITY@@@Z@4JA
  00352	83 c2 46	 add	 edx, 70			; 00000046H
  00355	52		 push	 edx
  00356	68 00 00 00 00	 push	 OFFSET ??_C@_0EL@DIAIKBFG@c?3?2users?2nhv90?2projects?2eech?2ap@
  0035b	a1 00 00 00 00	 mov	 eax, DWORD PTR ?overload_invalid_list_type_message@@3PBDB ; overload_invalid_list_type_message
  00360	50		 push	 eax
  00361	e8 00 00 00 00	 call	 ?process_assert@@YGXPBD0H@Z ; process_assert
  00366	c7 45 94 00 00
	00 00		 mov	 DWORD PTR tv223[ebp], 0
$LN37@update_veh:
  0036d	6a 18		 push	 24			; 00000018H
  0036f	8b 4d e8	 mov	 ecx, DWORD PTR _launched_weapon$[ebp]
  00372	51		 push	 ecx
  00373	69 55 98 b4 00
	00 00		 imul	 edx, DWORD PTR tv215[ebp], 180
  0037a	8b 45 94	 mov	 eax, DWORD PTR tv223[ebp]
  0037d	8b 8c 82 00 00
	00 00		 mov	 ecx, DWORD PTR ?fn_get_local_entity_child_succ@@3PAY0CN@P6GPAUENTITY@@PAU1@W4LIST_TYPES@@@ZA[edx+eax*4]
  00384	ff d1		 call	 ecx
  00386	89 45 e8	 mov	 DWORD PTR _launched_weapon$[ebp], eax

; 666  : 	}

  00389	e9 f2 fe ff ff	 jmp	 $LN2@update_veh
$LN3@update_veh:

; 667  : 
; 668  : 	////////////////////////////////////////
; 669  : 	//
; 670  : 	// check all persuers
; 671  : 	//
; 672  : 	////////////////////////////////////////
; 673  : 
; 674  : 	target_position = get_local_entity_vec3d_ptr (en, VEC3D_TYPE_POSITION);

  0038e	83 7d 08 00	 cmp	 DWORD PTR _en$[ebp], 0
  00392	74 0a		 je	 SHORT $LN38@update_veh
  00394	8b 45 08	 mov	 eax, DWORD PTR _en$[ebp]
  00397	8b 08		 mov	 ecx, DWORD PTR [eax]
  00399	89 4d 98	 mov	 DWORD PTR tv235[ebp], ecx
  0039c	eb 21		 jmp	 SHORT $LN39@update_veh
$LN38@update_veh:
  0039e	8b 15 00 00 00
	00		 mov	 edx, DWORD PTR ?__LINE__Var@?0??update_vehicle_decoy_release@@YGXPAUENTITY@@@Z@4JA
  003a4	83 c2 4f	 add	 edx, 79			; 0000004fH
  003a7	52		 push	 edx
  003a8	68 00 00 00 00	 push	 OFFSET ??_C@_0EL@DIAIKBFG@c?3?2users?2nhv90?2projects?2eech?2ap@
  003ad	a1 00 00 00 00	 mov	 eax, DWORD PTR ?null_entity_pointer_message@@3PBDB ; null_entity_pointer_message
  003b2	50		 push	 eax
  003b3	e8 00 00 00 00	 call	 ?process_assert@@YGXPBD0H@Z ; process_assert
  003b8	c7 45 98 00 00
	00 00		 mov	 DWORD PTR tv235[ebp], 0
$LN39@update_veh:
  003bf	b9 01 00 00 00	 mov	 ecx, 1
  003c4	85 c9		 test	 ecx, ecx
  003c6	74 09		 je	 SHORT $LN40@update_veh
  003c8	c7 45 94 08 00
	00 00		 mov	 DWORD PTR tv243[ebp], 8
  003cf	eb 21		 jmp	 SHORT $LN41@update_veh
$LN40@update_veh:
  003d1	8b 15 00 00 00
	00		 mov	 edx, DWORD PTR ?__LINE__Var@?0??update_vehicle_decoy_release@@YGXPAUENTITY@@@Z@4JA
  003d7	83 c2 4f	 add	 edx, 79			; 0000004fH
  003da	52		 push	 edx
  003db	68 00 00 00 00	 push	 OFFSET ??_C@_0EL@DIAIKBFG@c?3?2users?2nhv90?2projects?2eech?2ap@
  003e0	a1 00 00 00 00	 mov	 eax, DWORD PTR ?overload_invalid_vec3d_type_message@@3PBDB ; overload_invalid_vec3d_type_message
  003e5	50		 push	 eax
  003e6	e8 00 00 00 00	 call	 ?process_assert@@YGXPBD0H@Z ; process_assert
  003eb	c7 45 94 00 00
	00 00		 mov	 DWORD PTR tv243[ebp], 0
$LN41@update_veh:
  003f2	6a 08		 push	 8
  003f4	8b 4d 08	 mov	 ecx, DWORD PTR _en$[ebp]
  003f7	51		 push	 ecx
  003f8	6b 55 98 60	 imul	 edx, DWORD PTR tv235[ebp], 96
  003fc	8b 45 94	 mov	 eax, DWORD PTR tv243[ebp]
  003ff	8b 8c 82 00 00
	00 00		 mov	 ecx, DWORD PTR ?fn_get_local_entity_vec3d_ptr@@3PAY0BI@P6GPAUVEC3D@@PAUENTITY@@W4VEC3D_TYPES@@@ZA[edx+eax*4]
  00406	ff d1		 call	 ecx
  00408	89 45 e4	 mov	 DWORD PTR _target_position$[ebp], eax
$LN4@update_veh:

; 675  : 
; 676  : 	while (persuer)

  0040b	83 7d ec 00	 cmp	 DWORD PTR _persuer$[ebp], 0
  0040f	0f 84 a9 02 00
	00		 je	 $LN5@update_veh

; 677  : 	{
; 678  : 		if (get_local_entity_type (persuer) == ENTITY_TYPE_WEAPON)

  00415	83 7d ec 00	 cmp	 DWORD PTR _persuer$[ebp], 0
  00419	74 0a		 je	 SHORT $LN42@update_veh
  0041b	8b 45 ec	 mov	 eax, DWORD PTR _persuer$[ebp]
  0041e	8b 08		 mov	 ecx, DWORD PTR [eax]
  00420	89 4d 98	 mov	 DWORD PTR tv255[ebp], ecx
  00423	eb 1d		 jmp	 SHORT $LN43@update_veh
$LN42@update_veh:
  00425	68 a6 02 00 00	 push	 678			; 000002a6H
  0042a	68 00 00 00 00	 push	 OFFSET ??_C@_0EL@DIAIKBFG@c?3?2users?2nhv90?2projects?2eech?2ap@
  0042f	8b 15 00 00 00
	00		 mov	 edx, DWORD PTR ?null_entity_pointer_message@@3PBDB ; null_entity_pointer_message
  00435	52		 push	 edx
  00436	e8 00 00 00 00	 call	 ?process_assert@@YGXPBD0H@Z ; process_assert
  0043b	c7 45 98 00 00
	00 00		 mov	 DWORD PTR tv255[ebp], 0
$LN43@update_veh:
  00442	83 7d 98 25	 cmp	 DWORD PTR tv255[ebp], 37 ; 00000025H
  00446	0f 85 ed 01 00
	00		 jne	 $LN16@update_veh

; 679  : 		{
; 680  : 			if (get_local_entity_int_value (persuer, INT_TYPE_WEAPON_GUIDANCE_TYPE) != WEAPON_GUIDANCE_TYPE_NONE)

  0044c	83 7d ec 00	 cmp	 DWORD PTR _persuer$[ebp], 0
  00450	74 0a		 je	 SHORT $LN44@update_veh
  00452	8b 45 ec	 mov	 eax, DWORD PTR _persuer$[ebp]
  00455	8b 08		 mov	 ecx, DWORD PTR [eax]
  00457	89 4d 98	 mov	 DWORD PTR tv262[ebp], ecx
  0045a	eb 1d		 jmp	 SHORT $LN45@update_veh
$LN44@update_veh:
  0045c	68 a8 02 00 00	 push	 680			; 000002a8H
  00461	68 00 00 00 00	 push	 OFFSET ??_C@_0EL@DIAIKBFG@c?3?2users?2nhv90?2projects?2eech?2ap@
  00466	8b 15 00 00 00
	00		 mov	 edx, DWORD PTR ?null_entity_pointer_message@@3PBDB ; null_entity_pointer_message
  0046c	52		 push	 edx
  0046d	e8 00 00 00 00	 call	 ?process_assert@@YGXPBD0H@Z ; process_assert
  00472	c7 45 98 00 00
	00 00		 mov	 DWORD PTR tv262[ebp], 0
$LN45@update_veh:
  00479	b8 01 00 00 00	 mov	 eax, 1
  0047e	85 c0		 test	 eax, eax
  00480	74 09		 je	 SHORT $LN46@update_veh
  00482	c7 45 94 07 01
	00 00		 mov	 DWORD PTR tv269[ebp], 263 ; 00000107H
  00489	eb 1d		 jmp	 SHORT $LN47@update_veh
$LN46@update_veh:
  0048b	68 a8 02 00 00	 push	 680			; 000002a8H
  00490	68 00 00 00 00	 push	 OFFSET ??_C@_0EL@DIAIKBFG@c?3?2users?2nhv90?2projects?2eech?2ap@
  00495	8b 0d 00 00 00
	00		 mov	 ecx, DWORD PTR ?overload_invalid_int_type_message@@3PBDB ; overload_invalid_int_type_message
  0049b	51		 push	 ecx
  0049c	e8 00 00 00 00	 call	 ?process_assert@@YGXPBD0H@Z ; process_assert
  004a1	c7 45 94 00 00
	00 00		 mov	 DWORD PTR tv269[ebp], 0
$LN47@update_veh:
  004a8	68 07 01 00 00	 push	 263			; 00000107H
  004ad	8b 55 ec	 mov	 edx, DWORD PTR _persuer$[ebp]
  004b0	52		 push	 edx
  004b1	69 45 98 5c 04
	00 00		 imul	 eax, DWORD PTR tv262[ebp], 1116
  004b8	8b 4d 94	 mov	 ecx, DWORD PTR tv269[ebp]
  004bb	8b 94 88 00 00
	00 00		 mov	 edx, DWORD PTR ?fn_get_local_entity_int_value@@3PAY0BBH@P6GHPAUENTITY@@W4INT_TYPES@@@ZA[eax+ecx*4]
  004c2	ff d2		 call	 edx
  004c4	85 c0		 test	 eax, eax
  004c6	0f 84 6d 01 00
	00		 je	 $LN16@update_veh

; 681  : 			{
; 682  : 				if (get_decoy_type_for_weapon (persuer) == ENTITY_SUB_TYPE_WEAPON_SMOKE_GRENADE)

  004cc	8b 45 ec	 mov	 eax, DWORD PTR _persuer$[ebp]
  004cf	50		 push	 eax
  004d0	e8 00 00 00 00	 call	 ?get_decoy_type_for_weapon@@YGHPAUENTITY@@@Z ; get_decoy_type_for_weapon
  004d5	83 f8 45	 cmp	 eax, 69			; 00000045H
  004d8	0f 85 5b 01 00
	00		 jne	 $LN16@update_veh

; 683  : 				{
; 684  : 					weapon_position = get_local_entity_vec3d_ptr (persuer, VEC3D_TYPE_POSITION);

  004de	83 7d ec 00	 cmp	 DWORD PTR _persuer$[ebp], 0
  004e2	74 0a		 je	 SHORT $LN48@update_veh
  004e4	8b 45 ec	 mov	 eax, DWORD PTR _persuer$[ebp]
  004e7	8b 08		 mov	 ecx, DWORD PTR [eax]
  004e9	89 4d 98	 mov	 DWORD PTR tv285[ebp], ecx
  004ec	eb 21		 jmp	 SHORT $LN49@update_veh
$LN48@update_veh:
  004ee	8b 15 00 00 00
	00		 mov	 edx, DWORD PTR ?__LINE__Var@?0??update_vehicle_decoy_release@@YGXPAUENTITY@@@Z@4JA
  004f4	83 c2 59	 add	 edx, 89			; 00000059H
  004f7	52		 push	 edx
  004f8	68 00 00 00 00	 push	 OFFSET ??_C@_0EL@DIAIKBFG@c?3?2users?2nhv90?2projects?2eech?2ap@
  004fd	a1 00 00 00 00	 mov	 eax, DWORD PTR ?null_entity_pointer_message@@3PBDB ; null_entity_pointer_message
  00502	50		 push	 eax
  00503	e8 00 00 00 00	 call	 ?process_assert@@YGXPBD0H@Z ; process_assert
  00508	c7 45 98 00 00
	00 00		 mov	 DWORD PTR tv285[ebp], 0
$LN49@update_veh:
  0050f	b9 01 00 00 00	 mov	 ecx, 1
  00514	85 c9		 test	 ecx, ecx
  00516	74 09		 je	 SHORT $LN50@update_veh
  00518	c7 45 94 08 00
	00 00		 mov	 DWORD PTR tv293[ebp], 8
  0051f	eb 21		 jmp	 SHORT $LN51@update_veh
$LN50@update_veh:
  00521	8b 15 00 00 00
	00		 mov	 edx, DWORD PTR ?__LINE__Var@?0??update_vehicle_decoy_release@@YGXPAUENTITY@@@Z@4JA
  00527	83 c2 59	 add	 edx, 89			; 00000059H
  0052a	52		 push	 edx
  0052b	68 00 00 00 00	 push	 OFFSET ??_C@_0EL@DIAIKBFG@c?3?2users?2nhv90?2projects?2eech?2ap@
  00530	a1 00 00 00 00	 mov	 eax, DWORD PTR ?overload_invalid_vec3d_type_message@@3PBDB ; overload_invalid_vec3d_type_message
  00535	50		 push	 eax
  00536	e8 00 00 00 00	 call	 ?process_assert@@YGXPBD0H@Z ; process_assert
  0053b	c7 45 94 00 00
	00 00		 mov	 DWORD PTR tv293[ebp], 0
$LN51@update_veh:
  00542	6a 08		 push	 8
  00544	8b 4d ec	 mov	 ecx, DWORD PTR _persuer$[ebp]
  00547	51		 push	 ecx
  00548	6b 55 98 60	 imul	 edx, DWORD PTR tv285[ebp], 96
  0054c	8b 45 94	 mov	 eax, DWORD PTR tv293[ebp]
  0054f	8b 8c 82 00 00
	00 00		 mov	 ecx, DWORD PTR ?fn_get_local_entity_vec3d_ptr@@3PAY0BI@P6GPAUVEC3D@@PAUENTITY@@W4VEC3D_TYPES@@@ZA[edx+eax*4]
  00556	ff d1		 call	 ecx
  00558	89 45 e0	 mov	 DWORD PTR _weapon_position$[ebp], eax

; 685  : 
; 686  : 					range = get_approx_3d_range (weapon_position, target_position);

  0055b	8b 45 e4	 mov	 eax, DWORD PTR _target_position$[ebp]
  0055e	50		 push	 eax
  0055f	8b 4d e0	 mov	 ecx, DWORD PTR _weapon_position$[ebp]
  00562	51		 push	 ecx
  00563	e8 00 00 00 00	 call	 ?get_approx_3d_range@@YGMPBUVEC3D@@0@Z ; get_approx_3d_range
  00568	d9 5d f8	 fstp	 DWORD PTR _range$[ebp]

; 687  : 
; 688  : 					velocity = get_local_entity_float_value (persuer, FLOAT_TYPE_VELOCITY);

  0056b	83 7d ec 00	 cmp	 DWORD PTR _persuer$[ebp], 0
  0056f	74 0a		 je	 SHORT $LN52@update_veh
  00571	8b 45 ec	 mov	 eax, DWORD PTR _persuer$[ebp]
  00574	8b 08		 mov	 ecx, DWORD PTR [eax]
  00576	89 4d 98	 mov	 DWORD PTR tv308[ebp], ecx
  00579	eb 21		 jmp	 SHORT $LN53@update_veh
$LN52@update_veh:
  0057b	8b 15 00 00 00
	00		 mov	 edx, DWORD PTR ?__LINE__Var@?0??update_vehicle_decoy_release@@YGXPAUENTITY@@@Z@4JA
  00581	83 c2 5d	 add	 edx, 93			; 0000005dH
  00584	52		 push	 edx
  00585	68 00 00 00 00	 push	 OFFSET ??_C@_0EL@DIAIKBFG@c?3?2users?2nhv90?2projects?2eech?2ap@
  0058a	a1 00 00 00 00	 mov	 eax, DWORD PTR ?null_entity_pointer_message@@3PBDB ; null_entity_pointer_message
  0058f	50		 push	 eax
  00590	e8 00 00 00 00	 call	 ?process_assert@@YGXPBD0H@Z ; process_assert
  00595	c7 45 98 00 00
	00 00		 mov	 DWORD PTR tv308[ebp], 0
$LN53@update_veh:
  0059c	b9 01 00 00 00	 mov	 ecx, 1
  005a1	85 c9		 test	 ecx, ecx
  005a3	74 09		 je	 SHORT $LN54@update_veh
  005a5	c7 45 94 93 00
	00 00		 mov	 DWORD PTR tv316[ebp], 147 ; 00000093H
  005ac	eb 21		 jmp	 SHORT $LN55@update_veh
$LN54@update_veh:
  005ae	8b 15 00 00 00
	00		 mov	 edx, DWORD PTR ?__LINE__Var@?0??update_vehicle_decoy_release@@YGXPAUENTITY@@@Z@4JA
  005b4	83 c2 5d	 add	 edx, 93			; 0000005dH
  005b7	52		 push	 edx
  005b8	68 00 00 00 00	 push	 OFFSET ??_C@_0EL@DIAIKBFG@c?3?2users?2nhv90?2projects?2eech?2ap@
  005bd	a1 00 00 00 00	 mov	 eax, DWORD PTR ?overload_invalid_float_type_message@@3PBDB ; overload_invalid_float_type_message
  005c2	50		 push	 eax
  005c3	e8 00 00 00 00	 call	 ?process_assert@@YGXPBD0H@Z ; process_assert
  005c8	c7 45 94 00 00
	00 00		 mov	 DWORD PTR tv316[ebp], 0
$LN55@update_veh:
  005cf	68 93 00 00 00	 push	 147			; 00000093H
  005d4	8b 4d ec	 mov	 ecx, DWORD PTR _persuer$[ebp]
  005d7	51		 push	 ecx
  005d8	69 55 98 bc 02
	00 00		 imul	 edx, DWORD PTR tv308[ebp], 700
  005df	8b 45 94	 mov	 eax, DWORD PTR tv316[ebp]
  005e2	8b 8c 82 00 00
	00 00		 mov	 ecx, DWORD PTR ?fn_get_local_entity_float_value@@3PAY0KP@P6GMPAUENTITY@@W4FLOAT_TYPES@@@ZA[edx+eax*4]
  005e9	ff d1		 call	 ecx
  005eb	d9 5d f4	 fstp	 DWORD PTR _velocity$[ebp]

; 689  : 
; 690  : 					time_to_impact = range / max (velocity, 1.0f);

  005ee	f3 0f 10 05 00
	00 00 00	 movss	 xmm0, DWORD PTR __real@3f800000
  005f6	f3 0f 11 45 9c	 movss	 DWORD PTR $T1[ebp], xmm0
  005fb	8d 45 9c	 lea	 eax, DWORD PTR $T1[ebp]
  005fe	50		 push	 eax
  005ff	8d 4d f4	 lea	 ecx, DWORD PTR _velocity$[ebp]
  00602	51		 push	 ecx
  00603	e8 00 00 00 00	 call	 ??$max@M@std@@YGABMABM0@Z ; std::max<float>
  00608	f3 0f 10 45 f8	 movss	 xmm0, DWORD PTR _range$[ebp]
  0060d	f3 0f 5e 00	 divss	 xmm0, DWORD PTR [eax]
  00611	f3 0f 11 45 f0	 movss	 DWORD PTR _time_to_impact$[ebp], xmm0

; 691  : 
; 692  : 					if (time_to_impact < 10.0)

  00616	f3 0f 5a 45 f0	 cvtss2sd xmm0, DWORD PTR _time_to_impact$[ebp]
  0061b	f2 0f 10 0d 00
	00 00 00	 movsd	 xmm1, QWORD PTR __real@4024000000000000
  00623	66 0f 2f c8	 comisd	 xmm1, xmm0
  00627	76 10		 jbe	 SHORT $LN16@update_veh

; 693  : 					{
; 694  : 						launch_client_server_weapon (en, ENTITY_SUB_TYPE_WEAPON_SMOKE_GRENADE);

  00629	6a 45		 push	 69			; 00000045H
  0062b	8b 45 08	 mov	 eax, DWORD PTR _en$[ebp]
  0062e	50		 push	 eax
  0062f	e8 00 00 00 00	 call	 ?launch_client_server_weapon@@YGXPAUENTITY@@H@Z ; launch_client_server_weapon

; 695  : 
; 696  : 						break;

  00634	e9 85 00 00 00	 jmp	 $LN5@update_veh
$LN16@update_veh:

; 697  : 					}
; 698  : 				}
; 699  : 			}
; 700  : 		}
; 701  : 
; 702  : 		persuer = get_local_entity_child_succ (persuer, LIST_TYPE_TARGET);

  00639	83 7d ec 00	 cmp	 DWORD PTR _persuer$[ebp], 0
  0063d	74 0a		 je	 SHORT $LN56@update_veh
  0063f	8b 45 ec	 mov	 eax, DWORD PTR _persuer$[ebp]
  00642	8b 08		 mov	 ecx, DWORD PTR [eax]
  00644	89 4d 98	 mov	 DWORD PTR tv336[ebp], ecx
  00647	eb 21		 jmp	 SHORT $LN57@update_veh
$LN56@update_veh:
  00649	8b 15 00 00 00
	00		 mov	 edx, DWORD PTR ?__LINE__Var@?0??update_vehicle_decoy_release@@YGXPAUENTITY@@@Z@4JA
  0064f	83 c2 6b	 add	 edx, 107		; 0000006bH
  00652	52		 push	 edx
  00653	68 00 00 00 00	 push	 OFFSET ??_C@_0EL@DIAIKBFG@c?3?2users?2nhv90?2projects?2eech?2ap@
  00658	a1 00 00 00 00	 mov	 eax, DWORD PTR ?null_entity_pointer_message@@3PBDB ; null_entity_pointer_message
  0065d	50		 push	 eax
  0065e	e8 00 00 00 00	 call	 ?process_assert@@YGXPBD0H@Z ; process_assert
  00663	c7 45 98 00 00
	00 00		 mov	 DWORD PTR tv336[ebp], 0
$LN57@update_veh:
  0066a	b9 01 00 00 00	 mov	 ecx, 1
  0066f	85 c9		 test	 ecx, ecx
  00671	74 09		 je	 SHORT $LN58@update_veh
  00673	c7 45 94 26 00
	00 00		 mov	 DWORD PTR tv344[ebp], 38 ; 00000026H
  0067a	eb 21		 jmp	 SHORT $LN59@update_veh
$LN58@update_veh:
  0067c	8b 15 00 00 00
	00		 mov	 edx, DWORD PTR ?__LINE__Var@?0??update_vehicle_decoy_release@@YGXPAUENTITY@@@Z@4JA
  00682	83 c2 6b	 add	 edx, 107		; 0000006bH
  00685	52		 push	 edx
  00686	68 00 00 00 00	 push	 OFFSET ??_C@_0EL@DIAIKBFG@c?3?2users?2nhv90?2projects?2eech?2ap@
  0068b	a1 00 00 00 00	 mov	 eax, DWORD PTR ?overload_invalid_list_type_message@@3PBDB ; overload_invalid_list_type_message
  00690	50		 push	 eax
  00691	e8 00 00 00 00	 call	 ?process_assert@@YGXPBD0H@Z ; process_assert
  00696	c7 45 94 00 00
	00 00		 mov	 DWORD PTR tv344[ebp], 0
$LN59@update_veh:
  0069d	6a 26		 push	 38			; 00000026H
  0069f	8b 4d ec	 mov	 ecx, DWORD PTR _persuer$[ebp]
  006a2	51		 push	 ecx
  006a3	69 55 98 b4 00
	00 00		 imul	 edx, DWORD PTR tv336[ebp], 180
  006aa	8b 45 94	 mov	 eax, DWORD PTR tv344[ebp]
  006ad	8b 8c 82 00 00
	00 00		 mov	 ecx, DWORD PTR ?fn_get_local_entity_child_succ@@3PAY0CN@P6GPAUENTITY@@PAU1@W4LIST_TYPES@@@ZA[edx+eax*4]
  006b4	ff d1		 call	 ecx
  006b6	89 45 ec	 mov	 DWORD PTR _persuer$[ebp], eax

; 703  : 	}

  006b9	e9 4d fd ff ff	 jmp	 $LN4@update_veh
$LN5@update_veh:
$LN1@update_veh:

; 704  : }

  006be	5f		 pop	 edi
  006bf	5e		 pop	 esi
  006c0	5b		 pop	 ebx
  006c1	8b e5		 mov	 esp, ebp
  006c3	5d		 pop	 ebp
  006c4	c2 04 00	 ret	 4
?update_vehicle_decoy_release@@YGXPAUENTITY@@@Z ENDP	; update_vehicle_decoy_release
_TEXT	ENDS
; Function compile flags: /Odtp /ZI
; File c:\users\nhv90\projects\eech\aphavoc\source\entity\mobile\vehicle\vh_wpn.c
;	COMDAT ?update_vehicle_weapon_fire@@YGXPAUENTITY@@@Z
_TEXT	SEGMENT
tv1153 = -156						; size = 8
tv739 = -156						; size = 8
tv817 = -148						; size = 4
tv797 = -148						; size = 4
tv776 = -148						; size = 4
tv756 = -148						; size = 4
tv740 = -148						; size = 8
tv723 = -148						; size = 4
tv703 = -148						; size = 4
tv683 = -148						; size = 4
tv624 = -148						; size = 4
tv553 = -148						; size = 4
tv528 = -148						; size = 4
tv499 = -148						; size = 4
tv458 = -148						; size = 4
tv438 = -148						; size = 4
tv418 = -148						; size = 4
tv397 = -148						; size = 4
tv358 = -148						; size = 4
tv338 = -148						; size = 4
tv263 = -148						; size = 4
tv239 = -148						; size = 4
tv215 = -148						; size = 4
tv196 = -148						; size = 4
tv140 = -148						; size = 4
tv1082 = -144						; size = 4
tv917 = -144						; size = 4
tv809 = -144						; size = 4
tv789 = -144						; size = 4
tv768 = -144						; size = 4
tv748 = -144						; size = 4
tv715 = -144						; size = 4
tv695 = -144						; size = 4
tv675 = -144						; size = 4
tv616 = -144						; size = 4
tv545 = -144						; size = 4
tv520 = -144						; size = 4
tv492 = -144						; size = 4
tv450 = -144						; size = 4
tv430 = -144						; size = 4
tv410 = -144						; size = 4
tv390 = -144						; size = 4
tv350 = -144						; size = 4
tv330 = -144						; size = 4
tv256 = -144						; size = 4
tv232 = -144						; size = 4
tv208 = -144						; size = 4
tv189 = -144						; size = 4
tv133 = -144						; size = 4
_config_type$1 = -76					; size = 4
_sleep_time$2 = -72					; size = 4
_ammo$3 = -68						; size = 4
_group$4 = -64						; size = 4
_seed$5 = -60						; size = 4
_altitude$6 = -56					; size = 4
_max_alt$7 = -52					; size = 4
_min_alt$8 = -48					; size = 4
_seed$9 = -44						; size = 4
_weapon_to_target_vector$ = -40				; size = 4
_weapon_vector$ = -36					; size = 4
_target_pos$ = -32					; size = 4
_pos$ = -28						; size = 4
_launch_angle_error$ = -24				; size = 4
_range$ = -20						; size = 4
_continue_burst_fire$ = -16				; size = 4
_debug_flag$ = -12					; size = 4
_target$ = -8						; size = 4
_raw$ = -4						; size = 4
_en$ = 8						; size = 4
?update_vehicle_weapon_fire@@YGXPAUENTITY@@@Z PROC	; update_vehicle_weapon_fire, COMDAT

; 88   : {

  00000	55		 push	 ebp
  00001	8b ec		 mov	 ebp, esp
  00003	81 ec 9c 00 00
	00		 sub	 esp, 156		; 0000009cH
  00009	53		 push	 ebx
  0000a	56		 push	 esi
  0000b	57		 push	 edi

; 89   :  	vehicle
; 90   :       *raw;
; 91   : 
; 92   : 	entity
; 93   : 		*target;
; 94   : 
; 95   : 	int
; 96   : 		debug_flag,
; 97   : 		continue_burst_fire;
; 98   : 
; 99   : 	float
; 100  : 		range,
; 101  : 		launch_angle_error;
; 102  : 
; 103  : 	vec3d
; 104  : 		*pos,
; 105  : 		*target_pos,
; 106  : 		*weapon_vector,
; 107  : 		*weapon_to_target_vector;
; 108  : 
; 109  : 	ASSERT (en);

  0000c	83 7d 08 00	 cmp	 DWORD PTR _en$[ebp], 0
  00010	75 18		 jne	 SHORT $LN2@update_veh
  00012	a1 00 00 00 00	 mov	 eax, DWORD PTR ?__LINE__Var@?0??update_vehicle_weapon_fire@@YGXPAUENTITY@@@Z@4JA
  00017	83 c0 15	 add	 eax, 21			; 00000015H
  0001a	50		 push	 eax
  0001b	68 00 00 00 00	 push	 OFFSET ??_C@_0EL@DIAIKBFG@c?3?2users?2nhv90?2projects?2eech?2ap@
  00020	68 00 00 00 00	 push	 OFFSET ??_C@_02LFNMGJAP@en@
  00025	e8 00 00 00 00	 call	 ?process_assert@@YGXPBD0H@Z ; process_assert
$LN2@update_veh:

; 110  : 
; 111  : 	ASSERT (get_comms_model () == COMMS_MODEL_SERVER);

  0002a	83 3d 00 00 00
	00 00		 cmp	 DWORD PTR ?system_comms_model@@3W4COMMS_MODEL_TYPES@@A, 0 ; system_comms_model
  00031	74 18		 je	 SHORT $LN3@update_veh
  00033	a1 00 00 00 00	 mov	 eax, DWORD PTR ?__LINE__Var@?0??update_vehicle_weapon_fire@@YGXPAUENTITY@@@Z@4JA
  00038	83 c0 17	 add	 eax, 23			; 00000017H
  0003b	50		 push	 eax
  0003c	68 00 00 00 00	 push	 OFFSET ??_C@_0EL@DIAIKBFG@c?3?2users?2nhv90?2projects?2eech?2ap@
  00041	68 00 00 00 00	 push	 OFFSET ??_C@_0CJ@DMBLBJBK@get_comms_model?5?$CI?$CJ?5?$DN?$DN?5COMMS_MOD@
  00046	e8 00 00 00 00	 call	 ?process_assert@@YGXPBD0H@Z ; process_assert
$LN3@update_veh:

; 112  : 
; 113  :    raw = (vehicle *) get_local_entity_data (en);

  0004b	8b 45 08	 mov	 eax, DWORD PTR _en$[ebp]
  0004e	8b 48 04	 mov	 ecx, DWORD PTR [eax+4]
  00051	89 4d fc	 mov	 DWORD PTR _raw$[ebp], ecx

; 114  : 
; 115  : 	target = raw->mob.target_link.parent;

  00054	8b 45 fc	 mov	 eax, DWORD PTR _raw$[ebp]
  00057	8b 48 64	 mov	 ecx, DWORD PTR [eax+100]
  0005a	89 4d f8	 mov	 DWORD PTR _target$[ebp], ecx

; 116  : 
; 117  : 	debug_flag = FALSE;

  0005d	c7 45 f4 00 00
	00 00		 mov	 DWORD PTR _debug_flag$[ebp], 0

; 118  : 
; 119  : 	#if DEBUG_MODULE
; 120  : 
; 121  : 	if (en == get_external_view_entity ())
; 122  : 	{
; 123  : 		debug_flag = DEBUG_MODULE;
; 124  : 	}
; 125  : 
; 126  : 	#endif
; 127  : 
; 128  : 	//
; 129  : 	// update burst
; 130  : 	//
; 131  : 
; 132  : 	continue_burst_fire = FALSE;

  00064	c7 45 f0 00 00
	00 00		 mov	 DWORD PTR _continue_burst_fire$[ebp], 0

; 133  : 
; 134  : 	if (raw->weapon_burst_timer > 0.0)

  0006b	8b 45 fc	 mov	 eax, DWORD PTR _raw$[ebp]
  0006e	f3 0f 5a 80 04
	01 00 00	 cvtss2sd xmm0, DWORD PTR [eax+260]
  00076	66 0f 2f 05 00
	00 00 00	 comisd	 xmm0, QWORD PTR __real@0000000000000000
  0007e	0f 86 84 00 00
	00		 jbe	 $LN4@update_veh

; 135  : 	{
; 136  : 		raw->weapon_burst_timer -= get_delta_time ();

  00084	8b 45 fc	 mov	 eax, DWORD PTR _raw$[ebp]
  00087	f3 0f 10 80 04
	01 00 00	 movss	 xmm0, DWORD PTR [eax+260]
  0008f	f3 0f 5c 05 00
	00 00 00	 subss	 xmm0, DWORD PTR ?system_delta_time@@3MA
  00097	8b 4d fc	 mov	 ecx, DWORD PTR _raw$[ebp]
  0009a	f3 0f 11 81 04
	01 00 00	 movss	 DWORD PTR [ecx+260], xmm0

; 137  : 
; 138  : 		if (raw->weapon_burst_timer > 0.0)

  000a2	8b 45 fc	 mov	 eax, DWORD PTR _raw$[ebp]
  000a5	f3 0f 5a 80 04
	01 00 00	 cvtss2sd xmm0, DWORD PTR [eax+260]
  000ad	66 0f 2f 05 00
	00 00 00	 comisd	 xmm0, QWORD PTR __real@0000000000000000
  000b5	76 1c		 jbe	 SHORT $LN6@update_veh

; 139  : 		{
; 140  : 			if (debug_flag)

  000b7	83 7d f4 00	 cmp	 DWORD PTR _debug_flag$[ebp], 0
  000bb	74 0d		 je	 SHORT $LN8@update_veh

; 141  : 			{
; 142  : 				debug_log ("VH_WPN: Continuing Burst");

  000bd	68 00 00 00 00	 push	 OFFSET ??_C@_0BJ@LJHBKJNM@VH_WPN?3?5Continuing?5Burst@
  000c2	e8 00 00 00 00	 call	 ?debug_log@@YAXPBDZZ	; debug_log
  000c7	83 c4 04	 add	 esp, 4
$LN8@update_veh:

; 143  : 			}
; 144  : 
; 145  : 			continue_burst_fire = TRUE;

  000ca	c7 45 f0 01 00
	00 00		 mov	 DWORD PTR _continue_burst_fire$[ebp], 1

; 146  : 		}
; 147  : 		else

  000d1	eb 33		 jmp	 SHORT $LN7@update_veh
$LN6@update_veh:

; 148  : 		{
; 149  : 			if (debug_flag)

  000d3	83 7d f4 00	 cmp	 DWORD PTR _debug_flag$[ebp], 0
  000d7	74 0d		 je	 SHORT $LN9@update_veh

; 150  : 			{
; 151  : 				debug_log ("VH_WPN: Stop Burst this frame");

  000d9	68 00 00 00 00	 push	 OFFSET ??_C@_0BO@PKKECJHJ@VH_WPN?3?5Stop?5Burst?5this?5frame@
  000de	e8 00 00 00 00	 call	 ?debug_log@@YAXPBDZZ	; debug_log
  000e3	83 c4 04	 add	 esp, 4
$LN9@update_veh:

; 152  : 			}
; 153  : 
; 154  : 			raw->weapon_salvo_timer = 0.0;

  000e6	8b 45 fc	 mov	 eax, DWORD PTR _raw$[ebp]
  000e9	c7 80 28 01 00
	00 00 00 00 00	 mov	 DWORD PTR [eax+296], 0

; 155  : 
; 156  : 			pause_client_server_continuous_weapon_sound_effect (en, raw->selected_weapon);

  000f3	8b 45 fc	 mov	 eax, DWORD PTR _raw$[ebp]
  000f6	8b 88 1c 01 00
	00		 mov	 ecx, DWORD PTR [eax+284]
  000fc	51		 push	 ecx
  000fd	8b 55 08	 mov	 edx, DWORD PTR _en$[ebp]
  00100	52		 push	 edx
  00101	e8 00 00 00 00	 call	 ?pause_client_server_continuous_weapon_sound_effect@@YGXPAUENTITY@@H@Z ; pause_client_server_continuous_weapon_sound_effect
$LN7@update_veh:

; 157  : 		}
; 158  : 	}
; 159  : 	else

  00106	eb 0d		 jmp	 SHORT $LN5@update_veh
$LN4@update_veh:

; 160  : 		raw->weapon_salvo_timer = 0.0;

  00108	8b 45 fc	 mov	 eax, DWORD PTR _raw$[ebp]
  0010b	c7 80 28 01 00
	00 00 00 00 00	 mov	 DWORD PTR [eax+296], 0
$LN5@update_veh:

; 161  : 
; 162  : 	//
; 163  : 	// Check Suppress AI fire
; 164  : 	//
; 165  : 
; 166  : 	if (get_local_entity_int_value (get_session_entity (), INT_TYPE_SUPPRESS_AI_FIRE))

  00115	83 3d 00 00 00
	00 00		 cmp	 DWORD PTR ?session_entity@@3PAUENTITY@@A, 0 ; session_entity
  0011c	74 0f		 je	 SHORT $LN59@update_veh
  0011e	a1 00 00 00 00	 mov	 eax, DWORD PTR ?session_entity@@3PAUENTITY@@A ; session_entity
  00123	8b 08		 mov	 ecx, DWORD PTR [eax]
  00125	89 8d 70 ff ff
	ff		 mov	 DWORD PTR tv133[ebp], ecx
  0012b	eb 20		 jmp	 SHORT $LN60@update_veh
$LN59@update_veh:
  0012d	68 a6 00 00 00	 push	 166			; 000000a6H
  00132	68 00 00 00 00	 push	 OFFSET ??_C@_0EL@DIAIKBFG@c?3?2users?2nhv90?2projects?2eech?2ap@
  00137	8b 15 00 00 00
	00		 mov	 edx, DWORD PTR ?null_entity_pointer_message@@3PBDB ; null_entity_pointer_message
  0013d	52		 push	 edx
  0013e	e8 00 00 00 00	 call	 ?process_assert@@YGXPBD0H@Z ; process_assert
  00143	c7 85 70 ff ff
	ff 00 00 00 00	 mov	 DWORD PTR tv133[ebp], 0
$LN60@update_veh:
  0014d	b8 01 00 00 00	 mov	 eax, 1
  00152	85 c0		 test	 eax, eax
  00154	74 0c		 je	 SHORT $LN61@update_veh
  00156	c7 85 6c ff ff
	ff d0 00 00 00	 mov	 DWORD PTR tv140[ebp], 208 ; 000000d0H
  00160	eb 20		 jmp	 SHORT $LN62@update_veh
$LN61@update_veh:
  00162	68 a6 00 00 00	 push	 166			; 000000a6H
  00167	68 00 00 00 00	 push	 OFFSET ??_C@_0EL@DIAIKBFG@c?3?2users?2nhv90?2projects?2eech?2ap@
  0016c	8b 0d 00 00 00
	00		 mov	 ecx, DWORD PTR ?overload_invalid_int_type_message@@3PBDB ; overload_invalid_int_type_message
  00172	51		 push	 ecx
  00173	e8 00 00 00 00	 call	 ?process_assert@@YGXPBD0H@Z ; process_assert
  00178	c7 85 6c ff ff
	ff 00 00 00 00	 mov	 DWORD PTR tv140[ebp], 0
$LN62@update_veh:
  00182	68 d0 00 00 00	 push	 208			; 000000d0H
  00187	8b 15 00 00 00
	00		 mov	 edx, DWORD PTR ?session_entity@@3PAUENTITY@@A ; session_entity
  0018d	52		 push	 edx
  0018e	69 85 70 ff ff
	ff 5c 04 00 00	 imul	 eax, DWORD PTR tv133[ebp], 1116
  00198	8b 8d 6c ff ff
	ff		 mov	 ecx, DWORD PTR tv140[ebp]
  0019e	8b 94 88 00 00
	00 00		 mov	 edx, DWORD PTR ?fn_get_local_entity_int_value@@3PAY0BBH@P6GHPAUENTITY@@W4INT_TYPES@@@ZA[eax+ecx*4]
  001a5	ff d2		 call	 edx
  001a7	85 c0		 test	 eax, eax
  001a9	74 40		 je	 SHORT $LN10@update_veh

; 167  : 	{
; 168  : 		if (raw->weapon_burst_timer > 0.0)

  001ab	8b 45 fc	 mov	 eax, DWORD PTR _raw$[ebp]
  001ae	f3 0f 5a 80 04
	01 00 00	 cvtss2sd xmm0, DWORD PTR [eax+260]
  001b6	66 0f 2f 05 00
	00 00 00	 comisd	 xmm0, QWORD PTR __real@0000000000000000
  001be	76 13		 jbe	 SHORT $LN11@update_veh

; 169  : 		{
; 170  : 			pause_client_server_continuous_weapon_sound_effect (en, raw->selected_weapon);

  001c0	8b 45 fc	 mov	 eax, DWORD PTR _raw$[ebp]
  001c3	8b 88 1c 01 00
	00		 mov	 ecx, DWORD PTR [eax+284]
  001c9	51		 push	 ecx
  001ca	8b 55 08	 mov	 edx, DWORD PTR _en$[ebp]
  001cd	52		 push	 edx
  001ce	e8 00 00 00 00	 call	 ?pause_client_server_continuous_weapon_sound_effect@@YGXPAUENTITY@@H@Z ; pause_client_server_continuous_weapon_sound_effect
$LN11@update_veh:

; 171  : 		}
; 172  : 
; 173  : 		if (debug_flag)

  001d3	83 7d f4 00	 cmp	 DWORD PTR _debug_flag$[ebp], 0
  001d7	74 0d		 je	 SHORT $LN12@update_veh

; 174  : 		{
; 175  : 			debug_log ("VH_WPN: Not Firing - AI fire suppressed");

  001d9	68 00 00 00 00	 push	 OFFSET ??_C@_0CI@OLHHLDFG@VH_WPN?3?5Not?5Firing?5?9?5AI?5fire?5su@
  001de	e8 00 00 00 00	 call	 ?debug_log@@YAXPBDZZ	; debug_log
  001e3	83 c4 04	 add	 esp, 4
$LN12@update_veh:

; 176  : 		}
; 177  : 
; 178  : 		return;

  001e6	e9 9f 12 00 00	 jmp	 $LN1@update_veh
$LN10@update_veh:

; 179  : 	}
; 180  : 
; 181  : 	//
; 182  : 	// Update fire timer (unless continuing burst)
; 183  : 	//
; 184  : 
; 185  : 	if (!continue_burst_fire)

  001eb	83 7d f0 00	 cmp	 DWORD PTR _continue_burst_fire$[ebp], 0
  001ef	0f 85 99 03 00
	00		 jne	 $LN16@update_veh

; 186  : 	{
; 187  : 		raw->target_fire_timer -= get_delta_time ();

  001f5	8b 45 fc	 mov	 eax, DWORD PTR _raw$[ebp]
  001f8	f3 0f 10 80 fc
	00 00 00	 movss	 xmm0, DWORD PTR [eax+252]
  00200	f3 0f 5c 05 00
	00 00 00	 subss	 xmm0, DWORD PTR ?system_delta_time@@3MA
  00208	8b 4d fc	 mov	 ecx, DWORD PTR _raw$[ebp]
  0020b	f3 0f 11 81 fc
	00 00 00	 movss	 DWORD PTR [ecx+252], xmm0

; 188  : 
; 189  : 		if (raw->target_fire_timer > 0.0)

  00213	8b 45 fc	 mov	 eax, DWORD PTR _raw$[ebp]
  00216	f3 0f 5a 80 fc
	00 00 00	 cvtss2sd xmm0, DWORD PTR [eax+252]
  0021e	66 0f 2f 05 00
	00 00 00	 comisd	 xmm0, QWORD PTR __real@0000000000000000
  00226	76 0a		 jbe	 SHORT $LN14@update_veh

; 190  : 		{
; 191  : 			return;

  00228	e9 5d 12 00 00	 jmp	 $LN1@update_veh

; 192  : 		}
; 193  : 		else

  0022d	e9 5c 03 00 00	 jmp	 $LN16@update_veh
$LN14@update_veh:

; 194  : 		{
; 195  : 			int
; 196  : 				seed;
; 197  : 
; 198  : 			raw->target_fire_timer = weapon_database [raw->selected_weapon].reload_time;

  00232	8b 45 fc	 mov	 eax, DWORD PTR _raw$[ebp]
  00235	69 88 1c 01 00
	00 e0 00 00 00	 imul	 ecx, DWORD PTR [eax+284], 224
  0023f	8b 55 fc	 mov	 edx, DWORD PTR _raw$[ebp]
  00242	8b 81 cc 00 00
	00		 mov	 eax, DWORD PTR ?weapon_database@@3PAUWEAPON_DATA@@A[ecx+204]
  00248	89 82 fc 00 00
	00		 mov	 DWORD PTR [edx+252], eax

; 199  : 
; 200  : 			seed = get_client_server_entity_random_number_seed (en);

  0024e	8b 45 08	 mov	 eax, DWORD PTR _en$[ebp]
  00251	2b 05 00 00 00
	00		 sub	 eax, DWORD PTR ?entities@@3PAUENTITY@@A ; entities
  00257	c1 f8 04	 sar	 eax, 4
  0025a	89 45 d4	 mov	 DWORD PTR _seed$9[ebp], eax

; 201  : 
; 202  : 			raw->target_fire_timer *= (1.0 + (0.333 * sfrand1x (&seed)));

  0025d	69 45 d4 6d 4e
	c6 41		 imul	 eax, DWORD PTR _seed$9[ebp], 1103515245
  00264	05 39 30 00 00	 add	 eax, 12345		; 00003039H
  00269	89 45 d4	 mov	 DWORD PTR _seed$9[ebp], eax
  0026c	8b 4d d4	 mov	 ecx, DWORD PTR _seed$9[ebp]
  0026f	c1 f9 10	 sar	 ecx, 16			; 00000010H
  00272	81 e1 ff 7f 00
	00		 and	 ecx, 32767		; 00007fffH
  00278	81 e9 00 40 00
	00		 sub	 ecx, 16384		; 00004000H
  0027e	f2 0f 2a c1	 cvtsi2sd xmm0, ecx
  00282	f2 0f 59 05 00
	00 00 00	 mulsd	 xmm0, QWORD PTR __real@3f10000000000000
  0028a	f2 0f 59 05 00
	00 00 00	 mulsd	 xmm0, QWORD PTR __real@3fd54fdf3b645a1d
  00292	f2 0f 58 05 00
	00 00 00	 addsd	 xmm0, QWORD PTR __real@3ff0000000000000
  0029a	8b 55 fc	 mov	 edx, DWORD PTR _raw$[ebp]
  0029d	f3 0f 5a 8a fc
	00 00 00	 cvtss2sd xmm1, DWORD PTR [edx+252]
  002a5	f2 0f 59 c8	 mulsd	 xmm1, xmm0
  002a9	f2 0f 5a c1	 cvtsd2ss xmm0, xmm1
  002ad	8b 45 fc	 mov	 eax, DWORD PTR _raw$[ebp]
  002b0	f3 0f 11 80 fc
	00 00 00	 movss	 DWORD PTR [eax+252], xmm0

; 203  : 
; 204  : 			if ((target) && (get_local_entity_int_value (target, INT_TYPE_PLAYER) != ENTITY_PLAYER_AI))

  002b8	83 7d f8 00	 cmp	 DWORD PTR _target$[ebp], 0
  002bc	0f 84 cc 02 00
	00		 je	 $LN16@update_veh
  002c2	83 7d f8 00	 cmp	 DWORD PTR _target$[ebp], 0
  002c6	74 0d		 je	 SHORT $LN63@update_veh
  002c8	8b 45 f8	 mov	 eax, DWORD PTR _target$[ebp]
  002cb	8b 08		 mov	 ecx, DWORD PTR [eax]
  002cd	89 8d 70 ff ff
	ff		 mov	 DWORD PTR tv189[ebp], ecx
  002d3	eb 20		 jmp	 SHORT $LN64@update_veh
$LN63@update_veh:
  002d5	68 cc 00 00 00	 push	 204			; 000000ccH
  002da	68 00 00 00 00	 push	 OFFSET ??_C@_0EL@DIAIKBFG@c?3?2users?2nhv90?2projects?2eech?2ap@
  002df	8b 15 00 00 00
	00		 mov	 edx, DWORD PTR ?null_entity_pointer_message@@3PBDB ; null_entity_pointer_message
  002e5	52		 push	 edx
  002e6	e8 00 00 00 00	 call	 ?process_assert@@YGXPBD0H@Z ; process_assert
  002eb	c7 85 70 ff ff
	ff 00 00 00 00	 mov	 DWORD PTR tv189[ebp], 0
$LN64@update_veh:
  002f5	b8 01 00 00 00	 mov	 eax, 1
  002fa	85 c0		 test	 eax, eax
  002fc	74 0c		 je	 SHORT $LN65@update_veh
  002fe	c7 85 6c ff ff
	ff 9c 00 00 00	 mov	 DWORD PTR tv196[ebp], 156 ; 0000009cH
  00308	eb 20		 jmp	 SHORT $LN66@update_veh
$LN65@update_veh:
  0030a	68 cc 00 00 00	 push	 204			; 000000ccH
  0030f	68 00 00 00 00	 push	 OFFSET ??_C@_0EL@DIAIKBFG@c?3?2users?2nhv90?2projects?2eech?2ap@
  00314	8b 0d 00 00 00
	00		 mov	 ecx, DWORD PTR ?overload_invalid_int_type_message@@3PBDB ; overload_invalid_int_type_message
  0031a	51		 push	 ecx
  0031b	e8 00 00 00 00	 call	 ?process_assert@@YGXPBD0H@Z ; process_assert
  00320	c7 85 6c ff ff
	ff 00 00 00 00	 mov	 DWORD PTR tv196[ebp], 0
$LN66@update_veh:
  0032a	68 9c 00 00 00	 push	 156			; 0000009cH
  0032f	8b 55 f8	 mov	 edx, DWORD PTR _target$[ebp]
  00332	52		 push	 edx
  00333	69 85 70 ff ff
	ff 5c 04 00 00	 imul	 eax, DWORD PTR tv189[ebp], 1116
  0033d	8b 8d 6c ff ff
	ff		 mov	 ecx, DWORD PTR tv196[ebp]
  00343	8b 94 88 00 00
	00 00		 mov	 edx, DWORD PTR ?fn_get_local_entity_int_value@@3PAY0BBH@P6GHPAUENTITY@@W4INT_TYPES@@@ZA[eax+ecx*4]
  0034a	ff d2		 call	 edx
  0034c	85 c0		 test	 eax, eax
  0034e	0f 84 3a 02 00
	00		 je	 $LN16@update_veh

; 205  : 			{
; 206  : 				//
; 207  : 				// each radar / jamming device active decreases fire timer by 15%, meaning more "heat" for the player
; 208  : 				//
; 209  : 
; 210  : 				if (get_local_entity_int_value (target, INT_TYPE_RADAR_ON))

  00354	83 7d f8 00	 cmp	 DWORD PTR _target$[ebp], 0
  00358	74 0d		 je	 SHORT $LN67@update_veh
  0035a	8b 45 f8	 mov	 eax, DWORD PTR _target$[ebp]
  0035d	8b 08		 mov	 ecx, DWORD PTR [eax]
  0035f	89 8d 70 ff ff
	ff		 mov	 DWORD PTR tv208[ebp], ecx
  00365	eb 20		 jmp	 SHORT $LN68@update_veh
$LN67@update_veh:
  00367	68 d2 00 00 00	 push	 210			; 000000d2H
  0036c	68 00 00 00 00	 push	 OFFSET ??_C@_0EL@DIAIKBFG@c?3?2users?2nhv90?2projects?2eech?2ap@
  00371	8b 15 00 00 00
	00		 mov	 edx, DWORD PTR ?null_entity_pointer_message@@3PBDB ; null_entity_pointer_message
  00377	52		 push	 edx
  00378	e8 00 00 00 00	 call	 ?process_assert@@YGXPBD0H@Z ; process_assert
  0037d	c7 85 70 ff ff
	ff 00 00 00 00	 mov	 DWORD PTR tv208[ebp], 0
$LN68@update_veh:
  00387	b8 01 00 00 00	 mov	 eax, 1
  0038c	85 c0		 test	 eax, eax
  0038e	74 0c		 je	 SHORT $LN69@update_veh
  00390	c7 85 6c ff ff
	ff a9 00 00 00	 mov	 DWORD PTR tv215[ebp], 169 ; 000000a9H
  0039a	eb 20		 jmp	 SHORT $LN70@update_veh
$LN69@update_veh:
  0039c	68 d2 00 00 00	 push	 210			; 000000d2H
  003a1	68 00 00 00 00	 push	 OFFSET ??_C@_0EL@DIAIKBFG@c?3?2users?2nhv90?2projects?2eech?2ap@
  003a6	8b 0d 00 00 00
	00		 mov	 ecx, DWORD PTR ?overload_invalid_int_type_message@@3PBDB ; overload_invalid_int_type_message
  003ac	51		 push	 ecx
  003ad	e8 00 00 00 00	 call	 ?process_assert@@YGXPBD0H@Z ; process_assert
  003b2	c7 85 6c ff ff
	ff 00 00 00 00	 mov	 DWORD PTR tv215[ebp], 0
$LN70@update_veh:
  003bc	68 a9 00 00 00	 push	 169			; 000000a9H
  003c1	8b 55 f8	 mov	 edx, DWORD PTR _target$[ebp]
  003c4	52		 push	 edx
  003c5	69 85 70 ff ff
	ff 5c 04 00 00	 imul	 eax, DWORD PTR tv208[ebp], 1116
  003cf	8b 8d 6c ff ff
	ff		 mov	 ecx, DWORD PTR tv215[ebp]
  003d5	8b 94 88 00 00
	00 00		 mov	 edx, DWORD PTR ?fn_get_local_entity_int_value@@3PAY0BBH@P6GHPAUENTITY@@W4INT_TYPES@@@ZA[eax+ecx*4]
  003dc	ff d2		 call	 edx
  003de	85 c0		 test	 eax, eax
  003e0	74 22		 je	 SHORT $LN17@update_veh

; 211  : 				{
; 212  : 					raw->target_fire_timer *= 0.85;

  003e2	8b 45 fc	 mov	 eax, DWORD PTR _raw$[ebp]
  003e5	f3 0f 5a 80 fc
	00 00 00	 cvtss2sd xmm0, DWORD PTR [eax+252]
  003ed	f2 0f 59 05 00
	00 00 00	 mulsd	 xmm0, QWORD PTR __real@3feb333333333333
  003f5	f2 0f 5a c0	 cvtsd2ss xmm0, xmm0
  003f9	8b 4d fc	 mov	 ecx, DWORD PTR _raw$[ebp]
  003fc	f3 0f 11 81 fc
	00 00 00	 movss	 DWORD PTR [ecx+252], xmm0
$LN17@update_veh:

; 213  : 				}
; 214  : 				if (get_local_entity_int_value (target, INT_TYPE_RADAR_JAMMER_ON))

  00404	83 7d f8 00	 cmp	 DWORD PTR _target$[ebp], 0
  00408	74 0d		 je	 SHORT $LN71@update_veh
  0040a	8b 45 f8	 mov	 eax, DWORD PTR _target$[ebp]
  0040d	8b 08		 mov	 ecx, DWORD PTR [eax]
  0040f	89 8d 70 ff ff
	ff		 mov	 DWORD PTR tv232[ebp], ecx
  00415	eb 20		 jmp	 SHORT $LN72@update_veh
$LN71@update_veh:
  00417	68 d6 00 00 00	 push	 214			; 000000d6H
  0041c	68 00 00 00 00	 push	 OFFSET ??_C@_0EL@DIAIKBFG@c?3?2users?2nhv90?2projects?2eech?2ap@
  00421	8b 15 00 00 00
	00		 mov	 edx, DWORD PTR ?null_entity_pointer_message@@3PBDB ; null_entity_pointer_message
  00427	52		 push	 edx
  00428	e8 00 00 00 00	 call	 ?process_assert@@YGXPBD0H@Z ; process_assert
  0042d	c7 85 70 ff ff
	ff 00 00 00 00	 mov	 DWORD PTR tv232[ebp], 0
$LN72@update_veh:
  00437	b8 01 00 00 00	 mov	 eax, 1
  0043c	85 c0		 test	 eax, eax
  0043e	74 0c		 je	 SHORT $LN73@update_veh
  00440	c7 85 6c ff ff
	ff a8 00 00 00	 mov	 DWORD PTR tv239[ebp], 168 ; 000000a8H
  0044a	eb 20		 jmp	 SHORT $LN74@update_veh
$LN73@update_veh:
  0044c	68 d6 00 00 00	 push	 214			; 000000d6H
  00451	68 00 00 00 00	 push	 OFFSET ??_C@_0EL@DIAIKBFG@c?3?2users?2nhv90?2projects?2eech?2ap@
  00456	8b 0d 00 00 00
	00		 mov	 ecx, DWORD PTR ?overload_invalid_int_type_message@@3PBDB ; overload_invalid_int_type_message
  0045c	51		 push	 ecx
  0045d	e8 00 00 00 00	 call	 ?process_assert@@YGXPBD0H@Z ; process_assert
  00462	c7 85 6c ff ff
	ff 00 00 00 00	 mov	 DWORD PTR tv239[ebp], 0
$LN74@update_veh:
  0046c	68 a8 00 00 00	 push	 168			; 000000a8H
  00471	8b 55 f8	 mov	 edx, DWORD PTR _target$[ebp]
  00474	52		 push	 edx
  00475	69 85 70 ff ff
	ff 5c 04 00 00	 imul	 eax, DWORD PTR tv232[ebp], 1116
  0047f	8b 8d 6c ff ff
	ff		 mov	 ecx, DWORD PTR tv239[ebp]
  00485	8b 94 88 00 00
	00 00		 mov	 edx, DWORD PTR ?fn_get_local_entity_int_value@@3PAY0BBH@P6GHPAUENTITY@@W4INT_TYPES@@@ZA[eax+ecx*4]
  0048c	ff d2		 call	 edx
  0048e	85 c0		 test	 eax, eax
  00490	74 22		 je	 SHORT $LN18@update_veh

; 215  : 				{
; 216  : 					raw->target_fire_timer *= 0.85;

  00492	8b 45 fc	 mov	 eax, DWORD PTR _raw$[ebp]
  00495	f3 0f 5a 80 fc
	00 00 00	 cvtss2sd xmm0, DWORD PTR [eax+252]
  0049d	f2 0f 59 05 00
	00 00 00	 mulsd	 xmm0, QWORD PTR __real@3feb333333333333
  004a5	f2 0f 5a c0	 cvtsd2ss xmm0, xmm0
  004a9	8b 4d fc	 mov	 ecx, DWORD PTR _raw$[ebp]
  004ac	f3 0f 11 81 fc
	00 00 00	 movss	 DWORD PTR [ecx+252], xmm0
$LN18@update_veh:

; 217  : 				}
; 218  : 				if (get_local_entity_int_value (target, INT_TYPE_INFRA_RED_JAMMER_ON))

  004b4	83 7d f8 00	 cmp	 DWORD PTR _target$[ebp], 0
  004b8	74 0d		 je	 SHORT $LN75@update_veh
  004ba	8b 45 f8	 mov	 eax, DWORD PTR _target$[ebp]
  004bd	8b 08		 mov	 ecx, DWORD PTR [eax]
  004bf	89 8d 70 ff ff
	ff		 mov	 DWORD PTR tv256[ebp], ecx
  004c5	eb 20		 jmp	 SHORT $LN76@update_veh
$LN75@update_veh:
  004c7	68 da 00 00 00	 push	 218			; 000000daH
  004cc	68 00 00 00 00	 push	 OFFSET ??_C@_0EL@DIAIKBFG@c?3?2users?2nhv90?2projects?2eech?2ap@
  004d1	8b 15 00 00 00
	00		 mov	 edx, DWORD PTR ?null_entity_pointer_message@@3PBDB ; null_entity_pointer_message
  004d7	52		 push	 edx
  004d8	e8 00 00 00 00	 call	 ?process_assert@@YGXPBD0H@Z ; process_assert
  004dd	c7 85 70 ff ff
	ff 00 00 00 00	 mov	 DWORD PTR tv256[ebp], 0
$LN76@update_veh:
  004e7	b8 01 00 00 00	 mov	 eax, 1
  004ec	85 c0		 test	 eax, eax
  004ee	74 0c		 je	 SHORT $LN77@update_veh
  004f0	c7 85 6c ff ff
	ff 68 00 00 00	 mov	 DWORD PTR tv263[ebp], 104 ; 00000068H
  004fa	eb 20		 jmp	 SHORT $LN78@update_veh
$LN77@update_veh:
  004fc	68 da 00 00 00	 push	 218			; 000000daH
  00501	68 00 00 00 00	 push	 OFFSET ??_C@_0EL@DIAIKBFG@c?3?2users?2nhv90?2projects?2eech?2ap@
  00506	8b 0d 00 00 00
	00		 mov	 ecx, DWORD PTR ?overload_invalid_int_type_message@@3PBDB ; overload_invalid_int_type_message
  0050c	51		 push	 ecx
  0050d	e8 00 00 00 00	 call	 ?process_assert@@YGXPBD0H@Z ; process_assert
  00512	c7 85 6c ff ff
	ff 00 00 00 00	 mov	 DWORD PTR tv263[ebp], 0
$LN78@update_veh:
  0051c	6a 68		 push	 104			; 00000068H
  0051e	8b 55 f8	 mov	 edx, DWORD PTR _target$[ebp]
  00521	52		 push	 edx
  00522	69 85 70 ff ff
	ff 5c 04 00 00	 imul	 eax, DWORD PTR tv256[ebp], 1116
  0052c	8b 8d 6c ff ff
	ff		 mov	 ecx, DWORD PTR tv263[ebp]
  00532	8b 94 88 00 00
	00 00		 mov	 edx, DWORD PTR ?fn_get_local_entity_int_value@@3PAY0BBH@P6GHPAUENTITY@@W4INT_TYPES@@@ZA[eax+ecx*4]
  00539	ff d2		 call	 edx
  0053b	85 c0		 test	 eax, eax
  0053d	74 22		 je	 SHORT $LN19@update_veh

; 219  : 				{
; 220  : 					raw->target_fire_timer *= 0.85;

  0053f	8b 45 fc	 mov	 eax, DWORD PTR _raw$[ebp]
  00542	f3 0f 5a 80 fc
	00 00 00	 cvtss2sd xmm0, DWORD PTR [eax+252]
  0054a	f2 0f 59 05 00
	00 00 00	 mulsd	 xmm0, QWORD PTR __real@3feb333333333333
  00552	f2 0f 5a c0	 cvtsd2ss xmm0, xmm0
  00556	8b 4d fc	 mov	 ecx, DWORD PTR _raw$[ebp]
  00559	f3 0f 11 81 fc
	00 00 00	 movss	 DWORD PTR [ecx+252], xmm0
$LN19@update_veh:

; 221  : 				}
; 222  : 
; 223  : 				//
; 224  : 				// then modify timer based on difficulty level
; 225  : 				//
; 226  : 
; 227  : 				raw->target_fire_timer *= get_fire_timer_difficulty_factor (target);

  00561	8b 45 f8	 mov	 eax, DWORD PTR _target$[ebp]
  00564	50		 push	 eax
  00565	e8 00 00 00 00	 call	 ?get_fire_timer_difficulty_factor@@YGMPAUENTITY@@@Z ; get_fire_timer_difficulty_factor
  0056a	d9 9d 70 ff ff
	ff		 fstp	 DWORD PTR tv917[ebp]
  00570	8b 4d fc	 mov	 ecx, DWORD PTR _raw$[ebp]
  00573	f3 0f 10 85 70
	ff ff ff	 movss	 xmm0, DWORD PTR tv917[ebp]
  0057b	f3 0f 59 81 fc
	00 00 00	 mulss	 xmm0, DWORD PTR [ecx+252]
  00583	8b 55 fc	 mov	 edx, DWORD PTR _raw$[ebp]
  00586	f3 0f 11 82 fc
	00 00 00	 movss	 DWORD PTR [edx+252], xmm0
$LN16@update_veh:

; 228  : 			}
; 229  : 		}
; 230  : 	}
; 231  : 
; 232  : 	//
; 233  : 	// check vehicle not sleeping
; 234  : 	//
; 235  : 
; 236  : 	if (raw->sleep > 0.0)

  0058e	8b 45 fc	 mov	 eax, DWORD PTR _raw$[ebp]
  00591	f3 0f 5a 80 e8
	00 00 00	 cvtss2sd xmm0, DWORD PTR [eax+232]
  00599	66 0f 2f 05 00
	00 00 00	 comisd	 xmm0, QWORD PTR __real@0000000000000000
  005a1	76 40		 jbe	 SHORT $LN20@update_veh

; 237  : 	{
; 238  : 		if (raw->weapon_burst_timer > 0.0)

  005a3	8b 45 fc	 mov	 eax, DWORD PTR _raw$[ebp]
  005a6	f3 0f 5a 80 04
	01 00 00	 cvtss2sd xmm0, DWORD PTR [eax+260]
  005ae	66 0f 2f 05 00
	00 00 00	 comisd	 xmm0, QWORD PTR __real@0000000000000000
  005b6	76 13		 jbe	 SHORT $LN21@update_veh

; 239  : 		{
; 240  : 			pause_client_server_continuous_weapon_sound_effect (en, raw->selected_weapon);

  005b8	8b 45 fc	 mov	 eax, DWORD PTR _raw$[ebp]
  005bb	8b 88 1c 01 00
	00		 mov	 ecx, DWORD PTR [eax+284]
  005c1	51		 push	 ecx
  005c2	8b 55 08	 mov	 edx, DWORD PTR _en$[ebp]
  005c5	52		 push	 edx
  005c6	e8 00 00 00 00	 call	 ?pause_client_server_continuous_weapon_sound_effect@@YGXPAUENTITY@@H@Z ; pause_client_server_continuous_weapon_sound_effect
$LN21@update_veh:

; 241  : 		}
; 242  : 
; 243  : 		if (debug_flag)

  005cb	83 7d f4 00	 cmp	 DWORD PTR _debug_flag$[ebp], 0
  005cf	74 0d		 je	 SHORT $LN22@update_veh

; 244  : 		{
; 245  : 			debug_log ("VH_WPN: Not Firing - Sleeping");

  005d1	68 00 00 00 00	 push	 OFFSET ??_C@_0BO@HKKCJLDG@VH_WPN?3?5Not?5Firing?5?9?5Sleeping@
  005d6	e8 00 00 00 00	 call	 ?debug_log@@YAXPBDZZ	; debug_log
  005db	83 c4 04	 add	 esp, 4
$LN22@update_veh:

; 246  : 		}
; 247  : 
; 248  : 		return;

  005de	e9 a7 0e 00 00	 jmp	 $LN1@update_veh
$LN20@update_veh:

; 249  : 	}
; 250  : 
; 251  : 	//
; 252  : 	// check valid target
; 253  : 	//
; 254  : 
; 255  : 	if (!target)

  005e3	83 7d f8 00	 cmp	 DWORD PTR _target$[ebp], 0
  005e7	75 40		 jne	 SHORT $LN23@update_veh

; 256  : 	{
; 257  : 		if (raw->weapon_burst_timer > 0.0)

  005e9	8b 45 fc	 mov	 eax, DWORD PTR _raw$[ebp]
  005ec	f3 0f 5a 80 04
	01 00 00	 cvtss2sd xmm0, DWORD PTR [eax+260]
  005f4	66 0f 2f 05 00
	00 00 00	 comisd	 xmm0, QWORD PTR __real@0000000000000000
  005fc	76 13		 jbe	 SHORT $LN24@update_veh

; 258  : 		{
; 259  : 			pause_client_server_continuous_weapon_sound_effect (en, raw->selected_weapon);

  005fe	8b 45 fc	 mov	 eax, DWORD PTR _raw$[ebp]
  00601	8b 88 1c 01 00
	00		 mov	 ecx, DWORD PTR [eax+284]
  00607	51		 push	 ecx
  00608	8b 55 08	 mov	 edx, DWORD PTR _en$[ebp]
  0060b	52		 push	 edx
  0060c	e8 00 00 00 00	 call	 ?pause_client_server_continuous_weapon_sound_effect@@YGXPAUENTITY@@H@Z ; pause_client_server_continuous_weapon_sound_effect
$LN24@update_veh:

; 260  : 		}
; 261  : 
; 262  : 		if (debug_flag >= 2)

  00611	83 7d f4 02	 cmp	 DWORD PTR _debug_flag$[ebp], 2
  00615	7c 0d		 jl	 SHORT $LN25@update_veh

; 263  : 		{
; 264  : 			debug_log ("VH_WPN: Not Firing - No Target");

  00617	68 00 00 00 00	 push	 OFFSET ??_C@_0BP@KBBBDDEL@VH_WPN?3?5Not?5Firing?5?9?5No?5Target@
  0061c	e8 00 00 00 00	 call	 ?debug_log@@YAXPBDZZ	; debug_log
  00621	83 c4 04	 add	 esp, 4
$LN25@update_veh:

; 265  : 		}
; 266  : 
; 267  : 		return;

  00624	e9 61 0e 00 00	 jmp	 $LN1@update_veh
$LN23@update_veh:

; 268  : 	}
; 269  : 
; 270  : 	//
; 271  : 	// check valid selected weapon
; 272  : 	//
; 273  : 
; 274  : 	if (!vehicle_select_best_weapon (en, target))

  00629	8b 45 f8	 mov	 eax, DWORD PTR _target$[ebp]
  0062c	50		 push	 eax
  0062d	8b 4d 08	 mov	 ecx, DWORD PTR _en$[ebp]
  00630	51		 push	 ecx
  00631	e8 00 00 00 00	 call	 ?vehicle_select_best_weapon@@YGHPAUENTITY@@0@Z ; vehicle_select_best_weapon
  00636	85 c0		 test	 eax, eax
  00638	75 40		 jne	 SHORT $LN26@update_veh

; 275  : 	{
; 276  : 		if (raw->weapon_burst_timer > 0.0)

  0063a	8b 45 fc	 mov	 eax, DWORD PTR _raw$[ebp]
  0063d	f3 0f 5a 80 04
	01 00 00	 cvtss2sd xmm0, DWORD PTR [eax+260]
  00645	66 0f 2f 05 00
	00 00 00	 comisd	 xmm0, QWORD PTR __real@0000000000000000
  0064d	76 13		 jbe	 SHORT $LN27@update_veh

; 277  : 		{
; 278  : 			pause_client_server_continuous_weapon_sound_effect (en, raw->selected_weapon);

  0064f	8b 45 fc	 mov	 eax, DWORD PTR _raw$[ebp]
  00652	8b 88 1c 01 00
	00		 mov	 ecx, DWORD PTR [eax+284]
  00658	51		 push	 ecx
  00659	8b 55 08	 mov	 edx, DWORD PTR _en$[ebp]
  0065c	52		 push	 edx
  0065d	e8 00 00 00 00	 call	 ?pause_client_server_continuous_weapon_sound_effect@@YGXPAUENTITY@@H@Z ; pause_client_server_continuous_weapon_sound_effect
$LN27@update_veh:

; 279  : 		}
; 280  : 
; 281  : 		if (debug_flag)

  00662	83 7d f4 00	 cmp	 DWORD PTR _debug_flag$[ebp], 0
  00666	74 0d		 je	 SHORT $LN28@update_veh

; 282  : 		{
; 283  : 			debug_log ("VH_WPN: Not Firing - No weapon");

  00668	68 00 00 00 00	 push	 OFFSET ??_C@_0BP@JDOBKPCF@VH_WPN?3?5Not?5Firing?5?9?5No?5weapon@
  0066d	e8 00 00 00 00	 call	 ?debug_log@@YAXPBDZZ	; debug_log
  00672	83 c4 04	 add	 esp, 4
$LN28@update_veh:

; 284  : 		}
; 285  : 
; 286  : 		return;

  00675	e9 10 0e 00 00	 jmp	 $LN1@update_veh
$LN26@update_veh:

; 287  : 	}
; 288  : 
; 289  : 	//
; 290  : 	// check selected weapon is ready
; 291  : 	//
; 292  : 
; 293  : 	if (!raw->selected_weapon_system_ready)

  0067a	8b 45 fc	 mov	 eax, DWORD PTR _raw$[ebp]
  0067d	8b 88 24 01 00
	00		 mov	 ecx, DWORD PTR [eax+292]
  00683	c1 e9 0a	 shr	 ecx, 10			; 0000000aH
  00686	83 e1 01	 and	 ecx, 1
  00689	75 40		 jne	 SHORT $LN29@update_veh

; 294  : 	{
; 295  : 		if (raw->weapon_burst_timer > 0.0)

  0068b	8b 45 fc	 mov	 eax, DWORD PTR _raw$[ebp]
  0068e	f3 0f 5a 80 04
	01 00 00	 cvtss2sd xmm0, DWORD PTR [eax+260]
  00696	66 0f 2f 05 00
	00 00 00	 comisd	 xmm0, QWORD PTR __real@0000000000000000
  0069e	76 13		 jbe	 SHORT $LN30@update_veh

; 296  : 		{
; 297  : 			pause_client_server_continuous_weapon_sound_effect (en, raw->selected_weapon);

  006a0	8b 45 fc	 mov	 eax, DWORD PTR _raw$[ebp]
  006a3	8b 88 1c 01 00
	00		 mov	 ecx, DWORD PTR [eax+284]
  006a9	51		 push	 ecx
  006aa	8b 55 08	 mov	 edx, DWORD PTR _en$[ebp]
  006ad	52		 push	 edx
  006ae	e8 00 00 00 00	 call	 ?pause_client_server_continuous_weapon_sound_effect@@YGXPAUENTITY@@H@Z ; pause_client_server_continuous_weapon_sound_effect
$LN30@update_veh:

; 298  : 		}
; 299  : 
; 300  : 		if (debug_flag)

  006b3	83 7d f4 00	 cmp	 DWORD PTR _debug_flag$[ebp], 0
  006b7	74 0d		 je	 SHORT $LN31@update_veh

; 301  : 		{
; 302  : 			debug_log ("VH_WPN: Not Firing - Weapon system not ready");

  006b9	68 00 00 00 00	 push	 OFFSET ??_C@_0CN@MLDFJBKO@VH_WPN?3?5Not?5Firing?5?9?5Weapon?5sys@
  006be	e8 00 00 00 00	 call	 ?debug_log@@YAXPBDZZ	; debug_log
  006c3	83 c4 04	 add	 esp, 4
$LN31@update_veh:

; 303  : 		}
; 304  : 
; 305  : 		return;

  006c6	e9 bf 0d 00 00	 jmp	 $LN1@update_veh
$LN29@update_veh:

; 306  : 	}
; 307  : 
; 308  : 	//
; 309  : 	// Check range
; 310  : 	//
; 311  : 
; 312  : 	pos = get_local_entity_vec3d_ptr (en, VEC3D_TYPE_POSITION);

  006cb	83 7d 08 00	 cmp	 DWORD PTR _en$[ebp], 0
  006cf	74 0d		 je	 SHORT $LN79@update_veh
  006d1	8b 45 08	 mov	 eax, DWORD PTR _en$[ebp]
  006d4	8b 08		 mov	 ecx, DWORD PTR [eax]
  006d6	89 8d 70 ff ff
	ff		 mov	 DWORD PTR tv330[ebp], ecx
  006dc	eb 27		 jmp	 SHORT $LN80@update_veh
$LN79@update_veh:
  006de	8b 15 00 00 00
	00		 mov	 edx, DWORD PTR ?__LINE__Var@?0??update_vehicle_weapon_fire@@YGXPAUENTITY@@@Z@4JA
  006e4	81 c2 e0 00 00
	00		 add	 edx, 224		; 000000e0H
  006ea	52		 push	 edx
  006eb	68 00 00 00 00	 push	 OFFSET ??_C@_0EL@DIAIKBFG@c?3?2users?2nhv90?2projects?2eech?2ap@
  006f0	a1 00 00 00 00	 mov	 eax, DWORD PTR ?null_entity_pointer_message@@3PBDB ; null_entity_pointer_message
  006f5	50		 push	 eax
  006f6	e8 00 00 00 00	 call	 ?process_assert@@YGXPBD0H@Z ; process_assert
  006fb	c7 85 70 ff ff
	ff 00 00 00 00	 mov	 DWORD PTR tv330[ebp], 0
$LN80@update_veh:
  00705	b9 01 00 00 00	 mov	 ecx, 1
  0070a	85 c9		 test	 ecx, ecx
  0070c	74 0c		 je	 SHORT $LN81@update_veh
  0070e	c7 85 6c ff ff
	ff 08 00 00 00	 mov	 DWORD PTR tv338[ebp], 8
  00718	eb 27		 jmp	 SHORT $LN82@update_veh
$LN81@update_veh:
  0071a	8b 15 00 00 00
	00		 mov	 edx, DWORD PTR ?__LINE__Var@?0??update_vehicle_weapon_fire@@YGXPAUENTITY@@@Z@4JA
  00720	81 c2 e0 00 00
	00		 add	 edx, 224		; 000000e0H
  00726	52		 push	 edx
  00727	68 00 00 00 00	 push	 OFFSET ??_C@_0EL@DIAIKBFG@c?3?2users?2nhv90?2projects?2eech?2ap@
  0072c	a1 00 00 00 00	 mov	 eax, DWORD PTR ?overload_invalid_vec3d_type_message@@3PBDB ; overload_invalid_vec3d_type_message
  00731	50		 push	 eax
  00732	e8 00 00 00 00	 call	 ?process_assert@@YGXPBD0H@Z ; process_assert
  00737	c7 85 6c ff ff
	ff 00 00 00 00	 mov	 DWORD PTR tv338[ebp], 0
$LN82@update_veh:
  00741	6a 08		 push	 8
  00743	8b 4d 08	 mov	 ecx, DWORD PTR _en$[ebp]
  00746	51		 push	 ecx
  00747	6b 95 70 ff ff
	ff 60		 imul	 edx, DWORD PTR tv330[ebp], 96
  0074e	8b 85 6c ff ff
	ff		 mov	 eax, DWORD PTR tv338[ebp]
  00754	8b 8c 82 00 00
	00 00		 mov	 ecx, DWORD PTR ?fn_get_local_entity_vec3d_ptr@@3PAY0BI@P6GPAUVEC3D@@PAUENTITY@@W4VEC3D_TYPES@@@ZA[edx+eax*4]
  0075b	ff d1		 call	 ecx
  0075d	89 45 e4	 mov	 DWORD PTR _pos$[ebp], eax

; 313  : 
; 314  : 	target_pos = get_local_entity_vec3d_ptr (target, VEC3D_TYPE_POSITION);

  00760	83 7d f8 00	 cmp	 DWORD PTR _target$[ebp], 0
  00764	74 0d		 je	 SHORT $LN83@update_veh
  00766	8b 45 f8	 mov	 eax, DWORD PTR _target$[ebp]
  00769	8b 08		 mov	 ecx, DWORD PTR [eax]
  0076b	89 8d 70 ff ff
	ff		 mov	 DWORD PTR tv350[ebp], ecx
  00771	eb 27		 jmp	 SHORT $LN84@update_veh
$LN83@update_veh:
  00773	8b 15 00 00 00
	00		 mov	 edx, DWORD PTR ?__LINE__Var@?0??update_vehicle_weapon_fire@@YGXPAUENTITY@@@Z@4JA
  00779	81 c2 e2 00 00
	00		 add	 edx, 226		; 000000e2H
  0077f	52		 push	 edx
  00780	68 00 00 00 00	 push	 OFFSET ??_C@_0EL@DIAIKBFG@c?3?2users?2nhv90?2projects?2eech?2ap@
  00785	a1 00 00 00 00	 mov	 eax, DWORD PTR ?null_entity_pointer_message@@3PBDB ; null_entity_pointer_message
  0078a	50		 push	 eax
  0078b	e8 00 00 00 00	 call	 ?process_assert@@YGXPBD0H@Z ; process_assert
  00790	c7 85 70 ff ff
	ff 00 00 00 00	 mov	 DWORD PTR tv350[ebp], 0
$LN84@update_veh:
  0079a	b9 01 00 00 00	 mov	 ecx, 1
  0079f	85 c9		 test	 ecx, ecx
  007a1	74 0c		 je	 SHORT $LN85@update_veh
  007a3	c7 85 6c ff ff
	ff 08 00 00 00	 mov	 DWORD PTR tv358[ebp], 8
  007ad	eb 27		 jmp	 SHORT $LN86@update_veh
$LN85@update_veh:
  007af	8b 15 00 00 00
	00		 mov	 edx, DWORD PTR ?__LINE__Var@?0??update_vehicle_weapon_fire@@YGXPAUENTITY@@@Z@4JA
  007b5	81 c2 e2 00 00
	00		 add	 edx, 226		; 000000e2H
  007bb	52		 push	 edx
  007bc	68 00 00 00 00	 push	 OFFSET ??_C@_0EL@DIAIKBFG@c?3?2users?2nhv90?2projects?2eech?2ap@
  007c1	a1 00 00 00 00	 mov	 eax, DWORD PTR ?overload_invalid_vec3d_type_message@@3PBDB ; overload_invalid_vec3d_type_message
  007c6	50		 push	 eax
  007c7	e8 00 00 00 00	 call	 ?process_assert@@YGXPBD0H@Z ; process_assert
  007cc	c7 85 6c ff ff
	ff 00 00 00 00	 mov	 DWORD PTR tv358[ebp], 0
$LN86@update_veh:
  007d6	6a 08		 push	 8
  007d8	8b 4d f8	 mov	 ecx, DWORD PTR _target$[ebp]
  007db	51		 push	 ecx
  007dc	6b 95 70 ff ff
	ff 60		 imul	 edx, DWORD PTR tv350[ebp], 96
  007e3	8b 85 6c ff ff
	ff		 mov	 eax, DWORD PTR tv358[ebp]
  007e9	8b 8c 82 00 00
	00 00		 mov	 ecx, DWORD PTR ?fn_get_local_entity_vec3d_ptr@@3PAY0BI@P6GPAUVEC3D@@PAUENTITY@@W4VEC3D_TYPES@@@ZA[edx+eax*4]
  007f0	ff d1		 call	 ecx
  007f2	89 45 e0	 mov	 DWORD PTR _target_pos$[ebp], eax

; 315  : 
; 316  : 	range = get_3d_range (pos, target_pos);

  007f5	8b 45 e0	 mov	 eax, DWORD PTR _target_pos$[ebp]
  007f8	50		 push	 eax
  007f9	8b 4d e4	 mov	 ecx, DWORD PTR _pos$[ebp]
  007fc	51		 push	 ecx
  007fd	e8 00 00 00 00	 call	 ?get_3d_range@@YGMPBUVEC3D@@0@Z ; get_3d_range
  00802	d9 5d ec	 fstp	 DWORD PTR _range$[ebp]

; 317  : 
; 318  : 	if ((range < weapon_database [raw->selected_weapon].min_range) || (range > weapon_database [raw->selected_weapon].max_range))

  00805	8b 45 fc	 mov	 eax, DWORD PTR _raw$[ebp]
  00808	69 88 1c 01 00
	00 e0 00 00 00	 imul	 ecx, DWORD PTR [eax+284], 224
  00812	f3 0f 10 81 8c
	00 00 00	 movss	 xmm0, DWORD PTR ?weapon_database@@3PAUWEAPON_DATA@@A[ecx+140]
  0081a	0f 2f 45 ec	 comiss	 xmm0, DWORD PTR _range$[ebp]
  0081e	77 1b		 ja	 SHORT $LN33@update_veh
  00820	8b 45 fc	 mov	 eax, DWORD PTR _raw$[ebp]
  00823	69 88 1c 01 00
	00 e0 00 00 00	 imul	 ecx, DWORD PTR [eax+284], 224
  0082d	f3 0f 10 45 ec	 movss	 xmm0, DWORD PTR _range$[ebp]
  00832	0f 2f 81 90 00
	00 00		 comiss	 xmm0, DWORD PTR ?weapon_database@@3PAUWEAPON_DATA@@A[ecx+144]
  00839	76 40		 jbe	 SHORT $LN32@update_veh
$LN33@update_veh:

; 319  : 	{
; 320  : 		if (raw->weapon_burst_timer > 0.0)

  0083b	8b 45 fc	 mov	 eax, DWORD PTR _raw$[ebp]
  0083e	f3 0f 5a 80 04
	01 00 00	 cvtss2sd xmm0, DWORD PTR [eax+260]
  00846	66 0f 2f 05 00
	00 00 00	 comisd	 xmm0, QWORD PTR __real@0000000000000000
  0084e	76 13		 jbe	 SHORT $LN34@update_veh

; 321  : 		{
; 322  : 			pause_client_server_continuous_weapon_sound_effect (en, raw->selected_weapon);

  00850	8b 45 fc	 mov	 eax, DWORD PTR _raw$[ebp]
  00853	8b 88 1c 01 00
	00		 mov	 ecx, DWORD PTR [eax+284]
  00859	51		 push	 ecx
  0085a	8b 55 08	 mov	 edx, DWORD PTR _en$[ebp]
  0085d	52		 push	 edx
  0085e	e8 00 00 00 00	 call	 ?pause_client_server_continuous_weapon_sound_effect@@YGXPAUENTITY@@H@Z ; pause_client_server_continuous_weapon_sound_effect
$LN34@update_veh:

; 323  : 		}
; 324  : 
; 325  : 		if (debug_flag)

  00863	83 7d f4 00	 cmp	 DWORD PTR _debug_flag$[ebp], 0
  00867	74 0d		 je	 SHORT $LN35@update_veh

; 326  : 		{
; 327  : 			debug_log ("VH_WPN: Not Firing - out of range");

  00869	68 00 00 00 00	 push	 OFFSET ??_C@_0CC@NELBHMPJ@VH_WPN?3?5Not?5Firing?5?9?5out?5of?5ran@
  0086e	e8 00 00 00 00	 call	 ?debug_log@@YAXPBDZZ	; debug_log
  00873	83 c4 04	 add	 esp, 4
$LN35@update_veh:

; 328  : 		}
; 329  : 
; 330  : 		return;

  00876	e9 0f 0c 00 00	 jmp	 $LN1@update_veh
$LN32@update_veh:

; 331  : 	}
; 332  : 
; 333  : 	//
; 334  : 	// Check altitude
; 335  : 	//
; 336  : 
; 337  : 	if (get_local_entity_int_value (target, INT_TYPE_AIRBORNE_AIRCRAFT))

  0087b	83 7d f8 00	 cmp	 DWORD PTR _target$[ebp], 0
  0087f	74 0d		 je	 SHORT $LN87@update_veh
  00881	8b 45 f8	 mov	 eax, DWORD PTR _target$[ebp]
  00884	8b 08		 mov	 ecx, DWORD PTR [eax]
  00886	89 8d 70 ff ff
	ff		 mov	 DWORD PTR tv390[ebp], ecx
  0088c	eb 20		 jmp	 SHORT $LN88@update_veh
$LN87@update_veh:
  0088e	68 51 01 00 00	 push	 337			; 00000151H
  00893	68 00 00 00 00	 push	 OFFSET ??_C@_0EL@DIAIKBFG@c?3?2users?2nhv90?2projects?2eech?2ap@
  00898	8b 15 00 00 00
	00		 mov	 edx, DWORD PTR ?null_entity_pointer_message@@3PBDB ; null_entity_pointer_message
  0089e	52		 push	 edx
  0089f	e8 00 00 00 00	 call	 ?process_assert@@YGXPBD0H@Z ; process_assert
  008a4	c7 85 70 ff ff
	ff 00 00 00 00	 mov	 DWORD PTR tv390[ebp], 0
$LN88@update_veh:
  008ae	b8 01 00 00 00	 mov	 eax, 1
  008b3	85 c0		 test	 eax, eax
  008b5	74 0c		 je	 SHORT $LN89@update_veh
  008b7	c7 85 6c ff ff
	ff 04 00 00 00	 mov	 DWORD PTR tv397[ebp], 4
  008c1	eb 20		 jmp	 SHORT $LN90@update_veh
$LN89@update_veh:
  008c3	68 51 01 00 00	 push	 337			; 00000151H
  008c8	68 00 00 00 00	 push	 OFFSET ??_C@_0EL@DIAIKBFG@c?3?2users?2nhv90?2projects?2eech?2ap@
  008cd	8b 0d 00 00 00
	00		 mov	 ecx, DWORD PTR ?overload_invalid_int_type_message@@3PBDB ; overload_invalid_int_type_message
  008d3	51		 push	 ecx
  008d4	e8 00 00 00 00	 call	 ?process_assert@@YGXPBD0H@Z ; process_assert
  008d9	c7 85 6c ff ff
	ff 00 00 00 00	 mov	 DWORD PTR tv397[ebp], 0
$LN90@update_veh:
  008e3	6a 04		 push	 4
  008e5	8b 55 f8	 mov	 edx, DWORD PTR _target$[ebp]
  008e8	52		 push	 edx
  008e9	69 85 70 ff ff
	ff 5c 04 00 00	 imul	 eax, DWORD PTR tv390[ebp], 1116
  008f3	8b 8d 6c ff ff
	ff		 mov	 ecx, DWORD PTR tv397[ebp]
  008f9	8b 94 88 00 00
	00 00		 mov	 edx, DWORD PTR ?fn_get_local_entity_int_value@@3PAY0BBH@P6GHPAUENTITY@@W4INT_TYPES@@@ZA[eax+ecx*4]
  00900	ff d2		 call	 edx
  00902	85 c0		 test	 eax, eax
  00904	0f 84 76 02 00
	00		 je	 $LN37@update_veh

; 338  : 	{
; 339  : 		float
; 340  : 			min_alt,
; 341  : 			max_alt,
; 342  : 			altitude;
; 343  : 
; 344  : 		int
; 345  : 			seed;
; 346  : 
; 347  : 		altitude = get_local_entity_float_value (target, FLOAT_TYPE_RADAR_ALTITUDE);

  0090a	83 7d f8 00	 cmp	 DWORD PTR _target$[ebp], 0
  0090e	74 0d		 je	 SHORT $LN91@update_veh
  00910	8b 45 f8	 mov	 eax, DWORD PTR _target$[ebp]
  00913	8b 08		 mov	 ecx, DWORD PTR [eax]
  00915	89 8d 70 ff ff
	ff		 mov	 DWORD PTR tv410[ebp], ecx
  0091b	eb 27		 jmp	 SHORT $LN92@update_veh
$LN91@update_veh:
  0091d	8b 15 00 00 00
	00		 mov	 edx, DWORD PTR ?__LINE__Var@?0??update_vehicle_weapon_fire@@YGXPAUENTITY@@@Z@4JA
  00923	81 c2 03 01 00
	00		 add	 edx, 259		; 00000103H
  00929	52		 push	 edx
  0092a	68 00 00 00 00	 push	 OFFSET ??_C@_0EL@DIAIKBFG@c?3?2users?2nhv90?2projects?2eech?2ap@
  0092f	a1 00 00 00 00	 mov	 eax, DWORD PTR ?null_entity_pointer_message@@3PBDB ; null_entity_pointer_message
  00934	50		 push	 eax
  00935	e8 00 00 00 00	 call	 ?process_assert@@YGXPBD0H@Z ; process_assert
  0093a	c7 85 70 ff ff
	ff 00 00 00 00	 mov	 DWORD PTR tv410[ebp], 0
$LN92@update_veh:
  00944	b9 01 00 00 00	 mov	 ecx, 1
  00949	85 c9		 test	 ecx, ecx
  0094b	74 0c		 je	 SHORT $LN93@update_veh
  0094d	c7 85 6c ff ff
	ff 68 00 00 00	 mov	 DWORD PTR tv418[ebp], 104 ; 00000068H
  00957	eb 27		 jmp	 SHORT $LN94@update_veh
$LN93@update_veh:
  00959	8b 15 00 00 00
	00		 mov	 edx, DWORD PTR ?__LINE__Var@?0??update_vehicle_weapon_fire@@YGXPAUENTITY@@@Z@4JA
  0095f	81 c2 03 01 00
	00		 add	 edx, 259		; 00000103H
  00965	52		 push	 edx
  00966	68 00 00 00 00	 push	 OFFSET ??_C@_0EL@DIAIKBFG@c?3?2users?2nhv90?2projects?2eech?2ap@
  0096b	a1 00 00 00 00	 mov	 eax, DWORD PTR ?overload_invalid_float_type_message@@3PBDB ; overload_invalid_float_type_message
  00970	50		 push	 eax
  00971	e8 00 00 00 00	 call	 ?process_assert@@YGXPBD0H@Z ; process_assert
  00976	c7 85 6c ff ff
	ff 00 00 00 00	 mov	 DWORD PTR tv418[ebp], 0
$LN94@update_veh:
  00980	6a 68		 push	 104			; 00000068H
  00982	8b 4d f8	 mov	 ecx, DWORD PTR _target$[ebp]
  00985	51		 push	 ecx
  00986	69 95 70 ff ff
	ff bc 02 00 00	 imul	 edx, DWORD PTR tv410[ebp], 700
  00990	8b 85 6c ff ff
	ff		 mov	 eax, DWORD PTR tv418[ebp]
  00996	8b 8c 82 00 00
	00 00		 mov	 ecx, DWORD PTR ?fn_get_local_entity_float_value@@3PAY0KP@P6GMPAUENTITY@@W4FLOAT_TYPES@@@ZA[edx+eax*4]
  0099d	ff d1		 call	 ecx
  0099f	d9 5d c8	 fstp	 DWORD PTR _altitude$6[ebp]

; 348  : 
; 349  : 		min_alt = get_local_entity_float_value (en, FLOAT_TYPE_AIR_SCAN_FLOOR);

  009a2	83 7d 08 00	 cmp	 DWORD PTR _en$[ebp], 0
  009a6	74 0d		 je	 SHORT $LN95@update_veh
  009a8	8b 45 08	 mov	 eax, DWORD PTR _en$[ebp]
  009ab	8b 08		 mov	 ecx, DWORD PTR [eax]
  009ad	89 8d 70 ff ff
	ff		 mov	 DWORD PTR tv430[ebp], ecx
  009b3	eb 27		 jmp	 SHORT $LN96@update_veh
$LN95@update_veh:
  009b5	8b 15 00 00 00
	00		 mov	 edx, DWORD PTR ?__LINE__Var@?0??update_vehicle_weapon_fire@@YGXPAUENTITY@@@Z@4JA
  009bb	81 c2 05 01 00
	00		 add	 edx, 261		; 00000105H
  009c1	52		 push	 edx
  009c2	68 00 00 00 00	 push	 OFFSET ??_C@_0EL@DIAIKBFG@c?3?2users?2nhv90?2projects?2eech?2ap@
  009c7	a1 00 00 00 00	 mov	 eax, DWORD PTR ?null_entity_pointer_message@@3PBDB ; null_entity_pointer_message
  009cc	50		 push	 eax
  009cd	e8 00 00 00 00	 call	 ?process_assert@@YGXPBD0H@Z ; process_assert
  009d2	c7 85 70 ff ff
	ff 00 00 00 00	 mov	 DWORD PTR tv430[ebp], 0
$LN96@update_veh:
  009dc	b9 01 00 00 00	 mov	 ecx, 1
  009e1	85 c9		 test	 ecx, ecx
  009e3	74 0c		 je	 SHORT $LN97@update_veh
  009e5	c7 85 6c ff ff
	ff 04 00 00 00	 mov	 DWORD PTR tv438[ebp], 4
  009ef	eb 27		 jmp	 SHORT $LN98@update_veh
$LN97@update_veh:
  009f1	8b 15 00 00 00
	00		 mov	 edx, DWORD PTR ?__LINE__Var@?0??update_vehicle_weapon_fire@@YGXPAUENTITY@@@Z@4JA
  009f7	81 c2 05 01 00
	00		 add	 edx, 261		; 00000105H
  009fd	52		 push	 edx
  009fe	68 00 00 00 00	 push	 OFFSET ??_C@_0EL@DIAIKBFG@c?3?2users?2nhv90?2projects?2eech?2ap@
  00a03	a1 00 00 00 00	 mov	 eax, DWORD PTR ?overload_invalid_float_type_message@@3PBDB ; overload_invalid_float_type_message
  00a08	50		 push	 eax
  00a09	e8 00 00 00 00	 call	 ?process_assert@@YGXPBD0H@Z ; process_assert
  00a0e	c7 85 6c ff ff
	ff 00 00 00 00	 mov	 DWORD PTR tv438[ebp], 0
$LN98@update_veh:
  00a18	6a 04		 push	 4
  00a1a	8b 4d 08	 mov	 ecx, DWORD PTR _en$[ebp]
  00a1d	51		 push	 ecx
  00a1e	69 95 70 ff ff
	ff bc 02 00 00	 imul	 edx, DWORD PTR tv430[ebp], 700
  00a28	8b 85 6c ff ff
	ff		 mov	 eax, DWORD PTR tv438[ebp]
  00a2e	8b 8c 82 00 00
	00 00		 mov	 ecx, DWORD PTR ?fn_get_local_entity_float_value@@3PAY0KP@P6GMPAUENTITY@@W4FLOAT_TYPES@@@ZA[edx+eax*4]
  00a35	ff d1		 call	 ecx
  00a37	d9 5d d0	 fstp	 DWORD PTR _min_alt$8[ebp]

; 350  : 
; 351  : 		max_alt = get_local_entity_float_value (en, FLOAT_TYPE_AIR_SCAN_CEILING);

  00a3a	83 7d 08 00	 cmp	 DWORD PTR _en$[ebp], 0
  00a3e	74 0d		 je	 SHORT $LN99@update_veh
  00a40	8b 45 08	 mov	 eax, DWORD PTR _en$[ebp]
  00a43	8b 08		 mov	 ecx, DWORD PTR [eax]
  00a45	89 8d 70 ff ff
	ff		 mov	 DWORD PTR tv450[ebp], ecx
  00a4b	eb 27		 jmp	 SHORT $LN100@update_veh
$LN99@update_veh:
  00a4d	8b 15 00 00 00
	00		 mov	 edx, DWORD PTR ?__LINE__Var@?0??update_vehicle_weapon_fire@@YGXPAUENTITY@@@Z@4JA
  00a53	81 c2 07 01 00
	00		 add	 edx, 263		; 00000107H
  00a59	52		 push	 edx
  00a5a	68 00 00 00 00	 push	 OFFSET ??_C@_0EL@DIAIKBFG@c?3?2users?2nhv90?2projects?2eech?2ap@
  00a5f	a1 00 00 00 00	 mov	 eax, DWORD PTR ?null_entity_pointer_message@@3PBDB ; null_entity_pointer_message
  00a64	50		 push	 eax
  00a65	e8 00 00 00 00	 call	 ?process_assert@@YGXPBD0H@Z ; process_assert
  00a6a	c7 85 70 ff ff
	ff 00 00 00 00	 mov	 DWORD PTR tv450[ebp], 0
$LN100@update_veh:
  00a74	b9 01 00 00 00	 mov	 ecx, 1
  00a79	85 c9		 test	 ecx, ecx
  00a7b	74 0c		 je	 SHORT $LN101@update_veh
  00a7d	c7 85 6c ff ff
	ff 03 00 00 00	 mov	 DWORD PTR tv458[ebp], 3
  00a87	eb 27		 jmp	 SHORT $LN102@update_veh
$LN101@update_veh:
  00a89	8b 15 00 00 00
	00		 mov	 edx, DWORD PTR ?__LINE__Var@?0??update_vehicle_weapon_fire@@YGXPAUENTITY@@@Z@4JA
  00a8f	81 c2 07 01 00
	00		 add	 edx, 263		; 00000107H
  00a95	52		 push	 edx
  00a96	68 00 00 00 00	 push	 OFFSET ??_C@_0EL@DIAIKBFG@c?3?2users?2nhv90?2projects?2eech?2ap@
  00a9b	a1 00 00 00 00	 mov	 eax, DWORD PTR ?overload_invalid_float_type_message@@3PBDB ; overload_invalid_float_type_message
  00aa0	50		 push	 eax
  00aa1	e8 00 00 00 00	 call	 ?process_assert@@YGXPBD0H@Z ; process_assert
  00aa6	c7 85 6c ff ff
	ff 00 00 00 00	 mov	 DWORD PTR tv458[ebp], 0
$LN102@update_veh:
  00ab0	6a 03		 push	 3
  00ab2	8b 4d 08	 mov	 ecx, DWORD PTR _en$[ebp]
  00ab5	51		 push	 ecx
  00ab6	69 95 70 ff ff
	ff bc 02 00 00	 imul	 edx, DWORD PTR tv450[ebp], 700
  00ac0	8b 85 6c ff ff
	ff		 mov	 eax, DWORD PTR tv458[ebp]
  00ac6	8b 8c 82 00 00
	00 00		 mov	 ecx, DWORD PTR ?fn_get_local_entity_float_value@@3PAY0KP@P6GMPAUENTITY@@W4FLOAT_TYPES@@@ZA[edx+eax*4]
  00acd	ff d1		 call	 ecx
  00acf	d9 5d cc	 fstp	 DWORD PTR _max_alt$7[ebp]

; 352  : 
; 353  : 		seed = get_client_server_entity_random_number_seed (en);

  00ad2	8b 45 08	 mov	 eax, DWORD PTR _en$[ebp]
  00ad5	2b 05 00 00 00
	00		 sub	 eax, DWORD PTR ?entities@@3PAUENTITY@@A ; entities
  00adb	c1 f8 04	 sar	 eax, 4
  00ade	89 45 c4	 mov	 DWORD PTR _seed$5[ebp], eax

; 354  : 
; 355  : 		min_alt *= (1.0 + (0.5 * frand1x (&seed)));

  00ae1	69 45 c4 6d 4e
	c6 41		 imul	 eax, DWORD PTR _seed$5[ebp], 1103515245
  00ae8	05 39 30 00 00	 add	 eax, 12345		; 00003039H
  00aed	89 45 c4	 mov	 DWORD PTR _seed$5[ebp], eax
  00af0	8b 4d c4	 mov	 ecx, DWORD PTR _seed$5[ebp]
  00af3	c1 f9 10	 sar	 ecx, 16			; 00000010H
  00af6	81 e1 ff 7f 00
	00		 and	 ecx, 32767		; 00007fffH
  00afc	f2 0f 2a c1	 cvtsi2sd xmm0, ecx
  00b00	f2 0f 59 05 00
	00 00 00	 mulsd	 xmm0, QWORD PTR __real@3f00002000400080
  00b08	f2 0f 59 05 00
	00 00 00	 mulsd	 xmm0, QWORD PTR __real@3fe0000000000000
  00b10	f2 0f 58 05 00
	00 00 00	 addsd	 xmm0, QWORD PTR __real@3ff0000000000000
  00b18	f3 0f 5a 4d d0	 cvtss2sd xmm1, DWORD PTR _min_alt$8[ebp]
  00b1d	f2 0f 59 c8	 mulsd	 xmm1, xmm0
  00b21	f2 0f 5a c1	 cvtsd2ss xmm0, xmm1
  00b25	f3 0f 11 45 d0	 movss	 DWORD PTR _min_alt$8[ebp], xmm0

; 356  : 
; 357  : 		if ((altitude < min_alt) || (altitude > max_alt))

  00b2a	f3 0f 10 45 d0	 movss	 xmm0, DWORD PTR _min_alt$8[ebp]
  00b2f	0f 2f 45 c8	 comiss	 xmm0, DWORD PTR _altitude$6[ebp]
  00b33	77 0b		 ja	 SHORT $LN38@update_veh
  00b35	f3 0f 10 45 c8	 movss	 xmm0, DWORD PTR _altitude$6[ebp]
  00b3a	0f 2f 45 cc	 comiss	 xmm0, DWORD PTR _max_alt$7[ebp]
  00b3e	76 40		 jbe	 SHORT $LN37@update_veh
$LN38@update_veh:

; 358  : 		{
; 359  : 			if (raw->weapon_burst_timer > 0.0)

  00b40	8b 45 fc	 mov	 eax, DWORD PTR _raw$[ebp]
  00b43	f3 0f 5a 80 04
	01 00 00	 cvtss2sd xmm0, DWORD PTR [eax+260]
  00b4b	66 0f 2f 05 00
	00 00 00	 comisd	 xmm0, QWORD PTR __real@0000000000000000
  00b53	76 13		 jbe	 SHORT $LN39@update_veh

; 360  : 			{
; 361  : 				pause_client_server_continuous_weapon_sound_effect (en, raw->selected_weapon);

  00b55	8b 45 fc	 mov	 eax, DWORD PTR _raw$[ebp]
  00b58	8b 88 1c 01 00
	00		 mov	 ecx, DWORD PTR [eax+284]
  00b5e	51		 push	 ecx
  00b5f	8b 55 08	 mov	 edx, DWORD PTR _en$[ebp]
  00b62	52		 push	 edx
  00b63	e8 00 00 00 00	 call	 ?pause_client_server_continuous_weapon_sound_effect@@YGXPAUENTITY@@H@Z ; pause_client_server_continuous_weapon_sound_effect
$LN39@update_veh:

; 362  : 			}
; 363  : 
; 364  : 			if (debug_flag)

  00b68	83 7d f4 00	 cmp	 DWORD PTR _debug_flag$[ebp], 0
  00b6c	74 0d		 je	 SHORT $LN40@update_veh

; 365  : 			{
; 366  : 				debug_log ("VH_WPN: Not Firing - altitude");

  00b6e	68 00 00 00 00	 push	 OFFSET ??_C@_0BO@BMOAINNA@VH_WPN?3?5Not?5Firing?5?9?5altitude@
  00b73	e8 00 00 00 00	 call	 ?debug_log@@YAXPBDZZ	; debug_log
  00b78	83 c4 04	 add	 esp, 4
$LN40@update_veh:

; 367  : 			}
; 368  : 
; 369  : 			return;

  00b7b	e9 0a 09 00 00	 jmp	 $LN1@update_veh
$LN37@update_veh:

; 370  : 		}
; 371  : 	}
; 372  : 
; 373  : 	//
; 374  : 	// check within max launch angle error
; 375  : 	//
; 376  : 
; 377  : 	if (!get_local_entity_int_value (en, INT_TYPE_WEAPON_AND_TARGET_VECTORS_VALID))

  00b80	83 7d 08 00	 cmp	 DWORD PTR _en$[ebp], 0
  00b84	74 0d		 je	 SHORT $LN103@update_veh
  00b86	8b 45 08	 mov	 eax, DWORD PTR _en$[ebp]
  00b89	8b 08		 mov	 ecx, DWORD PTR [eax]
  00b8b	89 8d 70 ff ff
	ff		 mov	 DWORD PTR tv492[ebp], ecx
  00b91	eb 20		 jmp	 SHORT $LN104@update_veh
$LN103@update_veh:
  00b93	68 79 01 00 00	 push	 377			; 00000179H
  00b98	68 00 00 00 00	 push	 OFFSET ??_C@_0EL@DIAIKBFG@c?3?2users?2nhv90?2projects?2eech?2ap@
  00b9d	8b 15 00 00 00
	00		 mov	 edx, DWORD PTR ?null_entity_pointer_message@@3PBDB ; null_entity_pointer_message
  00ba3	52		 push	 edx
  00ba4	e8 00 00 00 00	 call	 ?process_assert@@YGXPBD0H@Z ; process_assert
  00ba9	c7 85 70 ff ff
	ff 00 00 00 00	 mov	 DWORD PTR tv492[ebp], 0
$LN104@update_veh:
  00bb3	b8 01 00 00 00	 mov	 eax, 1
  00bb8	85 c0		 test	 eax, eax
  00bba	74 0c		 je	 SHORT $LN105@update_veh
  00bbc	c7 85 6c ff ff
	ff 02 01 00 00	 mov	 DWORD PTR tv499[ebp], 258 ; 00000102H
  00bc6	eb 20		 jmp	 SHORT $LN106@update_veh
$LN105@update_veh:
  00bc8	68 79 01 00 00	 push	 377			; 00000179H
  00bcd	68 00 00 00 00	 push	 OFFSET ??_C@_0EL@DIAIKBFG@c?3?2users?2nhv90?2projects?2eech?2ap@
  00bd2	8b 0d 00 00 00
	00		 mov	 ecx, DWORD PTR ?overload_invalid_int_type_message@@3PBDB ; overload_invalid_int_type_message
  00bd8	51		 push	 ecx
  00bd9	e8 00 00 00 00	 call	 ?process_assert@@YGXPBD0H@Z ; process_assert
  00bde	c7 85 6c ff ff
	ff 00 00 00 00	 mov	 DWORD PTR tv499[ebp], 0
$LN106@update_veh:
  00be8	68 02 01 00 00	 push	 258			; 00000102H
  00bed	8b 55 08	 mov	 edx, DWORD PTR _en$[ebp]
  00bf0	52		 push	 edx
  00bf1	69 85 70 ff ff
	ff 5c 04 00 00	 imul	 eax, DWORD PTR tv492[ebp], 1116
  00bfb	8b 8d 6c ff ff
	ff		 mov	 ecx, DWORD PTR tv499[ebp]
  00c01	8b 94 88 00 00
	00 00		 mov	 edx, DWORD PTR ?fn_get_local_entity_int_value@@3PAY0BBH@P6GHPAUENTITY@@W4INT_TYPES@@@ZA[eax+ecx*4]
  00c08	ff d2		 call	 edx
  00c0a	85 c0		 test	 eax, eax
  00c0c	75 40		 jne	 SHORT $LN41@update_veh

; 378  : 	{
; 379  : 		if (raw->weapon_burst_timer > 0.0)

  00c0e	8b 45 fc	 mov	 eax, DWORD PTR _raw$[ebp]
  00c11	f3 0f 5a 80 04
	01 00 00	 cvtss2sd xmm0, DWORD PTR [eax+260]
  00c19	66 0f 2f 05 00
	00 00 00	 comisd	 xmm0, QWORD PTR __real@0000000000000000
  00c21	76 13		 jbe	 SHORT $LN42@update_veh

; 380  : 		{
; 381  : 			pause_client_server_continuous_weapon_sound_effect (en, raw->selected_weapon);

  00c23	8b 45 fc	 mov	 eax, DWORD PTR _raw$[ebp]
  00c26	8b 88 1c 01 00
	00		 mov	 ecx, DWORD PTR [eax+284]
  00c2c	51		 push	 ecx
  00c2d	8b 55 08	 mov	 edx, DWORD PTR _en$[ebp]
  00c30	52		 push	 edx
  00c31	e8 00 00 00 00	 call	 ?pause_client_server_continuous_weapon_sound_effect@@YGXPAUENTITY@@H@Z ; pause_client_server_continuous_weapon_sound_effect
$LN42@update_veh:

; 382  : 		}
; 383  : 
; 384  : 		if (debug_flag)

  00c36	83 7d f4 00	 cmp	 DWORD PTR _debug_flag$[ebp], 0
  00c3a	74 0d		 je	 SHORT $LN43@update_veh

; 385  : 		{
; 386  : 			debug_log ("VH_WPN: Not Firing - outside launch angle (1)");

  00c3c	68 00 00 00 00	 push	 OFFSET ??_C@_0CO@ENHBLPH@VH_WPN?3?5Not?5Firing?5?9?5outside?5la@
  00c41	e8 00 00 00 00	 call	 ?debug_log@@YAXPBDZZ	; debug_log
  00c46	83 c4 04	 add	 esp, 4
$LN43@update_veh:

; 387  : 		}
; 388  : 
; 389  : 		return;

  00c49	e9 3c 08 00 00	 jmp	 $LN1@update_veh
$LN41@update_veh:

; 390  : 	}
; 391  : 
; 392  : 	weapon_vector = get_local_entity_vec3d_ptr (en, VEC3D_TYPE_WEAPON_VECTOR);

  00c4e	83 7d 08 00	 cmp	 DWORD PTR _en$[ebp], 0
  00c52	74 0d		 je	 SHORT $LN107@update_veh
  00c54	8b 45 08	 mov	 eax, DWORD PTR _en$[ebp]
  00c57	8b 08		 mov	 ecx, DWORD PTR [eax]
  00c59	89 8d 70 ff ff
	ff		 mov	 DWORD PTR tv520[ebp], ecx
  00c5f	eb 27		 jmp	 SHORT $LN108@update_veh
$LN107@update_veh:
  00c61	8b 15 00 00 00
	00		 mov	 edx, DWORD PTR ?__LINE__Var@?0??update_vehicle_weapon_fire@@YGXPAUENTITY@@@Z@4JA
  00c67	81 c2 30 01 00
	00		 add	 edx, 304		; 00000130H
  00c6d	52		 push	 edx
  00c6e	68 00 00 00 00	 push	 OFFSET ??_C@_0EL@DIAIKBFG@c?3?2users?2nhv90?2projects?2eech?2ap@
  00c73	a1 00 00 00 00	 mov	 eax, DWORD PTR ?null_entity_pointer_message@@3PBDB ; null_entity_pointer_message
  00c78	50		 push	 eax
  00c79	e8 00 00 00 00	 call	 ?process_assert@@YGXPBD0H@Z ; process_assert
  00c7e	c7 85 70 ff ff
	ff 00 00 00 00	 mov	 DWORD PTR tv520[ebp], 0
$LN108@update_veh:
  00c88	b9 01 00 00 00	 mov	 ecx, 1
  00c8d	85 c9		 test	 ecx, ecx
  00c8f	74 0c		 je	 SHORT $LN109@update_veh
  00c91	c7 85 6c ff ff
	ff 0e 00 00 00	 mov	 DWORD PTR tv528[ebp], 14 ; 0000000eH
  00c9b	eb 27		 jmp	 SHORT $LN110@update_veh
$LN109@update_veh:
  00c9d	8b 15 00 00 00
	00		 mov	 edx, DWORD PTR ?__LINE__Var@?0??update_vehicle_weapon_fire@@YGXPAUENTITY@@@Z@4JA
  00ca3	81 c2 30 01 00
	00		 add	 edx, 304		; 00000130H
  00ca9	52		 push	 edx
  00caa	68 00 00 00 00	 push	 OFFSET ??_C@_0EL@DIAIKBFG@c?3?2users?2nhv90?2projects?2eech?2ap@
  00caf	a1 00 00 00 00	 mov	 eax, DWORD PTR ?overload_invalid_vec3d_type_message@@3PBDB ; overload_invalid_vec3d_type_message
  00cb4	50		 push	 eax
  00cb5	e8 00 00 00 00	 call	 ?process_assert@@YGXPBD0H@Z ; process_assert
  00cba	c7 85 6c ff ff
	ff 00 00 00 00	 mov	 DWORD PTR tv528[ebp], 0
$LN110@update_veh:
  00cc4	6a 0e		 push	 14			; 0000000eH
  00cc6	8b 4d 08	 mov	 ecx, DWORD PTR _en$[ebp]
  00cc9	51		 push	 ecx
  00cca	6b 95 70 ff ff
	ff 60		 imul	 edx, DWORD PTR tv520[ebp], 96
  00cd1	8b 85 6c ff ff
	ff		 mov	 eax, DWORD PTR tv528[ebp]
  00cd7	8b 8c 82 00 00
	00 00		 mov	 ecx, DWORD PTR ?fn_get_local_entity_vec3d_ptr@@3PAY0BI@P6GPAUVEC3D@@PAUENTITY@@W4VEC3D_TYPES@@@ZA[edx+eax*4]
  00cde	ff d1		 call	 ecx
  00ce0	89 45 dc	 mov	 DWORD PTR _weapon_vector$[ebp], eax

; 393  : 
; 394  : 	ASSERT (weapon_vector);

  00ce3	83 7d dc 00	 cmp	 DWORD PTR _weapon_vector$[ebp], 0
  00ce7	75 1a		 jne	 SHORT $LN44@update_veh
  00ce9	a1 00 00 00 00	 mov	 eax, DWORD PTR ?__LINE__Var@?0??update_vehicle_weapon_fire@@YGXPAUENTITY@@@Z@4JA
  00cee	05 32 01 00 00	 add	 eax, 306		; 00000132H
  00cf3	50		 push	 eax
  00cf4	68 00 00 00 00	 push	 OFFSET ??_C@_0EL@DIAIKBFG@c?3?2users?2nhv90?2projects?2eech?2ap@
  00cf9	68 00 00 00 00	 push	 OFFSET ??_C@_0O@HEGILGAC@weapon_vector@
  00cfe	e8 00 00 00 00	 call	 ?process_assert@@YGXPBD0H@Z ; process_assert
$LN44@update_veh:

; 395  : 
; 396  : 	weapon_to_target_vector = get_local_entity_vec3d_ptr (en, VEC3D_TYPE_WEAPON_TO_TARGET_VECTOR);

  00d03	83 7d 08 00	 cmp	 DWORD PTR _en$[ebp], 0
  00d07	74 0d		 je	 SHORT $LN111@update_veh
  00d09	8b 45 08	 mov	 eax, DWORD PTR _en$[ebp]
  00d0c	8b 08		 mov	 ecx, DWORD PTR [eax]
  00d0e	89 8d 70 ff ff
	ff		 mov	 DWORD PTR tv545[ebp], ecx
  00d14	eb 27		 jmp	 SHORT $LN112@update_veh
$LN111@update_veh:
  00d16	8b 15 00 00 00
	00		 mov	 edx, DWORD PTR ?__LINE__Var@?0??update_vehicle_weapon_fire@@YGXPAUENTITY@@@Z@4JA
  00d1c	81 c2 34 01 00
	00		 add	 edx, 308		; 00000134H
  00d22	52		 push	 edx
  00d23	68 00 00 00 00	 push	 OFFSET ??_C@_0EL@DIAIKBFG@c?3?2users?2nhv90?2projects?2eech?2ap@
  00d28	a1 00 00 00 00	 mov	 eax, DWORD PTR ?null_entity_pointer_message@@3PBDB ; null_entity_pointer_message
  00d2d	50		 push	 eax
  00d2e	e8 00 00 00 00	 call	 ?process_assert@@YGXPBD0H@Z ; process_assert
  00d33	c7 85 70 ff ff
	ff 00 00 00 00	 mov	 DWORD PTR tv545[ebp], 0
$LN112@update_veh:
  00d3d	b9 01 00 00 00	 mov	 ecx, 1
  00d42	85 c9		 test	 ecx, ecx
  00d44	74 0c		 je	 SHORT $LN113@update_veh
  00d46	c7 85 6c ff ff
	ff 0d 00 00 00	 mov	 DWORD PTR tv553[ebp], 13 ; 0000000dH
  00d50	eb 27		 jmp	 SHORT $LN114@update_veh
$LN113@update_veh:
  00d52	8b 15 00 00 00
	00		 mov	 edx, DWORD PTR ?__LINE__Var@?0??update_vehicle_weapon_fire@@YGXPAUENTITY@@@Z@4JA
  00d58	81 c2 34 01 00
	00		 add	 edx, 308		; 00000134H
  00d5e	52		 push	 edx
  00d5f	68 00 00 00 00	 push	 OFFSET ??_C@_0EL@DIAIKBFG@c?3?2users?2nhv90?2projects?2eech?2ap@
  00d64	a1 00 00 00 00	 mov	 eax, DWORD PTR ?overload_invalid_vec3d_type_message@@3PBDB ; overload_invalid_vec3d_type_message
  00d69	50		 push	 eax
  00d6a	e8 00 00 00 00	 call	 ?process_assert@@YGXPBD0H@Z ; process_assert
  00d6f	c7 85 6c ff ff
	ff 00 00 00 00	 mov	 DWORD PTR tv553[ebp], 0
$LN114@update_veh:
  00d79	6a 0d		 push	 13			; 0000000dH
  00d7b	8b 4d 08	 mov	 ecx, DWORD PTR _en$[ebp]
  00d7e	51		 push	 ecx
  00d7f	6b 95 70 ff ff
	ff 60		 imul	 edx, DWORD PTR tv545[ebp], 96
  00d86	8b 85 6c ff ff
	ff		 mov	 eax, DWORD PTR tv553[ebp]
  00d8c	8b 8c 82 00 00
	00 00		 mov	 ecx, DWORD PTR ?fn_get_local_entity_vec3d_ptr@@3PAY0BI@P6GPAUVEC3D@@PAUENTITY@@W4VEC3D_TYPES@@@ZA[edx+eax*4]
  00d93	ff d1		 call	 ecx
  00d95	89 45 d8	 mov	 DWORD PTR _weapon_to_target_vector$[ebp], eax

; 397  : 
; 398  : 	ASSERT (weapon_to_target_vector);

  00d98	83 7d d8 00	 cmp	 DWORD PTR _weapon_to_target_vector$[ebp], 0
  00d9c	75 1a		 jne	 SHORT $LN45@update_veh
  00d9e	a1 00 00 00 00	 mov	 eax, DWORD PTR ?__LINE__Var@?0??update_vehicle_weapon_fire@@YGXPAUENTITY@@@Z@4JA
  00da3	05 36 01 00 00	 add	 eax, 310		; 00000136H
  00da8	50		 push	 eax
  00da9	68 00 00 00 00	 push	 OFFSET ??_C@_0EL@DIAIKBFG@c?3?2users?2nhv90?2projects?2eech?2ap@
  00dae	68 00 00 00 00	 push	 OFFSET ??_C@_0BI@KLDNOBIJ@weapon_to_target_vector@
  00db3	e8 00 00 00 00	 call	 ?process_assert@@YGXPBD0H@Z ; process_assert
$LN45@update_veh:

; 399  : 
; 400  : 	launch_angle_error = acos (get_3d_unit_vector_dot_product (weapon_vector, weapon_to_target_vector));

  00db8	8b 45 d8	 mov	 eax, DWORD PTR _weapon_to_target_vector$[ebp]
  00dbb	50		 push	 eax
  00dbc	8b 4d dc	 mov	 ecx, DWORD PTR _weapon_vector$[ebp]
  00dbf	51		 push	 ecx
  00dc0	e8 00 00 00 00	 call	 ?get_3d_unit_vector_dot_product@@YGMPBUVEC3D@@0@Z ; get_3d_unit_vector_dot_product
  00dc5	51		 push	 ecx
  00dc6	d9 1c 24	 fstp	 DWORD PTR [esp]
  00dc9	e8 00 00 00 00	 call	 ?acos@@YGMM@Z		; acos
  00dce	d9 5d e8	 fstp	 DWORD PTR _launch_angle_error$[ebp]

; 401  : 
; 402  : 	if (fabs (launch_angle_error) > weapon_database[raw->selected_weapon].max_launch_angle_error)

  00dd1	51		 push	 ecx
  00dd2	f3 0f 10 45 e8	 movss	 xmm0, DWORD PTR _launch_angle_error$[ebp]
  00dd7	f3 0f 11 04 24	 movss	 DWORD PTR [esp], xmm0
  00ddc	e8 00 00 00 00	 call	 ?fabs@@YGMM@Z		; fabs
  00de1	d9 9d 70 ff ff
	ff		 fstp	 DWORD PTR tv1082[ebp]
  00de7	f3 0f 10 85 70
	ff ff ff	 movss	 xmm0, DWORD PTR tv1082[ebp]
  00def	8b 45 fc	 mov	 eax, DWORD PTR _raw$[ebp]
  00df2	69 88 1c 01 00
	00 e0 00 00 00	 imul	 ecx, DWORD PTR [eax+284], 224
  00dfc	0f 2f 81 d0 00
	00 00		 comiss	 xmm0, DWORD PTR ?weapon_database@@3PAUWEAPON_DATA@@A[ecx+208]
  00e03	76 40		 jbe	 SHORT $LN46@update_veh

; 403  : 	{
; 404  : 		if (raw->weapon_burst_timer > 0.0)

  00e05	8b 45 fc	 mov	 eax, DWORD PTR _raw$[ebp]
  00e08	f3 0f 5a 80 04
	01 00 00	 cvtss2sd xmm0, DWORD PTR [eax+260]
  00e10	66 0f 2f 05 00
	00 00 00	 comisd	 xmm0, QWORD PTR __real@0000000000000000
  00e18	76 13		 jbe	 SHORT $LN47@update_veh

; 405  : 		{
; 406  : 			pause_client_server_continuous_weapon_sound_effect (en, raw->selected_weapon);

  00e1a	8b 45 fc	 mov	 eax, DWORD PTR _raw$[ebp]
  00e1d	8b 88 1c 01 00
	00		 mov	 ecx, DWORD PTR [eax+284]
  00e23	51		 push	 ecx
  00e24	8b 55 08	 mov	 edx, DWORD PTR _en$[ebp]
  00e27	52		 push	 edx
  00e28	e8 00 00 00 00	 call	 ?pause_client_server_continuous_weapon_sound_effect@@YGXPAUENTITY@@H@Z ; pause_client_server_continuous_weapon_sound_effect
$LN47@update_veh:

; 407  : 		}
; 408  : 
; 409  : 		if (debug_flag)

  00e2d	83 7d f4 00	 cmp	 DWORD PTR _debug_flag$[ebp], 0
  00e31	74 0d		 je	 SHORT $LN48@update_veh

; 410  : 		{
; 411  : 			debug_log ("VH_WPN: Not Firing - outside launch angle (2)");

  00e33	68 00 00 00 00	 push	 OFFSET ??_C@_0CO@GJBKFKO@VH_WPN?3?5Not?5Firing?5?9?5outside?5la@
  00e38	e8 00 00 00 00	 call	 ?debug_log@@YAXPBDZZ	; debug_log
  00e3d	83 c4 04	 add	 esp, 4
$LN48@update_veh:

; 412  : 		}
; 413  : 
; 414  : 		return;

  00e40	e9 45 06 00 00	 jmp	 $LN1@update_veh
$LN46@update_veh:

; 415  : 	}
; 416  : 
; 417  : 	//
; 418  : 	// Check Line Of Sight (Non-projectile weapons only)
; 419  : 	//
; 420  : 
; 421  : 	if (!continue_burst_fire)

  00e45	83 7d f0 00	 cmp	 DWORD PTR _continue_burst_fire$[ebp], 0
  00e49	75 69		 jne	 SHORT $LN51@update_veh

; 422  : 	{
; 423  : 		if (weapon_database[raw->selected_weapon].aiming_type != WEAPON_AIMING_TYPE_CALC_ANGLE_OF_PROJECTION)

  00e4b	8b 45 fc	 mov	 eax, DWORD PTR _raw$[ebp]
  00e4e	69 88 1c 01 00
	00 e0 00 00 00	 imul	 ecx, DWORD PTR [eax+284], 224
  00e58	83 b9 1c 00 00
	00 02		 cmp	 DWORD PTR ?weapon_database@@3PAUWEAPON_DATA@@A[ecx+28], 2
  00e5f	74 53		 je	 SHORT $LN51@update_veh

; 424  : 		{
; 425  : 			if (!check_entity_line_of_sight (en, target, (mobile_los_check_criteria) MOBILE_LOS_CHECK_ALL))

  00e61	6a 1f		 push	 31			; 0000001fH
  00e63	8b 45 f8	 mov	 eax, DWORD PTR _target$[ebp]
  00e66	50		 push	 eax
  00e67	8b 4d 08	 mov	 ecx, DWORD PTR _en$[ebp]
  00e6a	51		 push	 ecx
  00e6b	e8 00 00 00 00	 call	 ?check_entity_line_of_sight@@YGHPAUENTITY@@0W4MOBILE_LOS_CHECK_CRITERIA@@@Z ; check_entity_line_of_sight
  00e70	85 c0		 test	 eax, eax
  00e72	75 40		 jne	 SHORT $LN51@update_veh

; 426  : 			{
; 427  : 				if (raw->weapon_burst_timer > 0.0)

  00e74	8b 45 fc	 mov	 eax, DWORD PTR _raw$[ebp]
  00e77	f3 0f 5a 80 04
	01 00 00	 cvtss2sd xmm0, DWORD PTR [eax+260]
  00e7f	66 0f 2f 05 00
	00 00 00	 comisd	 xmm0, QWORD PTR __real@0000000000000000
  00e87	76 13		 jbe	 SHORT $LN52@update_veh

; 428  : 				{
; 429  : 					pause_client_server_continuous_weapon_sound_effect (en, raw->selected_weapon);

  00e89	8b 45 fc	 mov	 eax, DWORD PTR _raw$[ebp]
  00e8c	8b 88 1c 01 00
	00		 mov	 ecx, DWORD PTR [eax+284]
  00e92	51		 push	 ecx
  00e93	8b 55 08	 mov	 edx, DWORD PTR _en$[ebp]
  00e96	52		 push	 edx
  00e97	e8 00 00 00 00	 call	 ?pause_client_server_continuous_weapon_sound_effect@@YGXPAUENTITY@@H@Z ; pause_client_server_continuous_weapon_sound_effect
$LN52@update_veh:

; 430  : 				}
; 431  : 
; 432  : 				if (debug_flag)

  00e9c	83 7d f4 00	 cmp	 DWORD PTR _debug_flag$[ebp], 0
  00ea0	74 0d		 je	 SHORT $LN53@update_veh

; 433  : 				{
; 434  : 					debug_log ("VH_WPN: Not Firing - No Line Of Sight");

  00ea2	68 00 00 00 00	 push	 OFFSET ??_C@_0CG@IKLDPIKH@VH_WPN?3?5Not?5Firing?5?9?5No?5Line?5Of@
  00ea7	e8 00 00 00 00	 call	 ?debug_log@@YAXPBDZZ	; debug_log
  00eac	83 c4 04	 add	 esp, 4
$LN53@update_veh:

; 435  : 				}
; 436  : 
; 437  : 				return;

  00eaf	e9 d6 05 00 00	 jmp	 $LN1@update_veh
$LN51@update_veh:

; 438  : 			}
; 439  : 		}
; 440  : 	}
; 441  : 
; 442  : 	//
; 443  : 	// fire weapon
; 444  : 	//
; 445  : 
; 446  : 	if (debug_flag)

  00eb4	83 7d f4 00	 cmp	 DWORD PTR _debug_flag$[ebp], 0
  00eb8	74 0d		 je	 SHORT $LN54@update_veh

; 447  : 	{
; 448  : 		debug_log ("VH_WPN: Firing weapon");

  00eba	68 00 00 00 00	 push	 OFFSET ??_C@_0BG@PELLELGI@VH_WPN?3?5Firing?5weapon@
  00ebf	e8 00 00 00 00	 call	 ?debug_log@@YAXPBDZZ	; debug_log
  00ec4	83 c4 04	 add	 esp, 4
$LN54@update_veh:

; 449  : 	}
; 450  : 
; 451  : 	launch_client_server_weapon (en, raw->selected_weapon);

  00ec7	8b 45 fc	 mov	 eax, DWORD PTR _raw$[ebp]
  00eca	8b 88 1c 01 00
	00		 mov	 ecx, DWORD PTR [eax+284]
  00ed0	51		 push	 ecx
  00ed1	8b 55 08	 mov	 edx, DWORD PTR _en$[ebp]
  00ed4	52		 push	 edx
  00ed5	e8 00 00 00 00	 call	 ?launch_client_server_weapon@@YGXPAUENTITY@@H@Z ; launch_client_server_weapon

; 452  : 
; 453  : 	/////////////////////////////////////////////////////////////////
; 454  : 	//
; 455  : 	// SPECIAL_EFFECT_HOOK FOR LAUNCHING WEAPON
; 456  : 	//
; 457  : 	/////////////////////////////////////////////////////////////////
; 458  : 
; 459  : 	//
; 460  : 	// If current weapon is WEAPON_NO_WEAPON it means the last one was just fired - set vehicle to re-arming
; 461  : 	//
; 462  : 
; 463  : 	if (raw->selected_weapon == ENTITY_SUB_TYPE_WEAPON_NO_WEAPON)

  00eda	8b 45 fc	 mov	 eax, DWORD PTR _raw$[ebp]
  00edd	83 b8 1c 01 00
	00 00		 cmp	 DWORD PTR [eax+284], 0
  00ee4	0f 85 a0 05 00
	00		 jne	 $LN55@update_veh

; 464  : 	{
; 465  : 		entity
; 466  : 			*group;
; 467  : 
; 468  : 		float
; 469  : 			ammo,
; 470  : 			sleep_time;
; 471  : 
; 472  : 		weapon_config_types
; 473  : 			config_type;
; 474  : 
; 475  : 		//
; 476  : 		// set vehicle to rearming and decrease groups ammo
; 477  : 		//
; 478  : 
; 479  : 		group = get_local_entity_parent (en, LIST_TYPE_MEMBER);

  00eea	83 7d 08 00	 cmp	 DWORD PTR _en$[ebp], 0
  00eee	74 0d		 je	 SHORT $LN115@update_veh
  00ef0	8b 45 08	 mov	 eax, DWORD PTR _en$[ebp]
  00ef3	8b 08		 mov	 ecx, DWORD PTR [eax]
  00ef5	89 8d 70 ff ff
	ff		 mov	 DWORD PTR tv616[ebp], ecx
  00efb	eb 27		 jmp	 SHORT $LN116@update_veh
$LN115@update_veh:
  00efd	8b 15 00 00 00
	00		 mov	 edx, DWORD PTR ?__LINE__Var@?0??update_vehicle_weapon_fire@@YGXPAUENTITY@@@Z@4JA
  00f03	81 c2 87 01 00
	00		 add	 edx, 391		; 00000187H
  00f09	52		 push	 edx
  00f0a	68 00 00 00 00	 push	 OFFSET ??_C@_0EL@DIAIKBFG@c?3?2users?2nhv90?2projects?2eech?2ap@
  00f0f	a1 00 00 00 00	 mov	 eax, DWORD PTR ?null_entity_pointer_message@@3PBDB ; null_entity_pointer_message
  00f14	50		 push	 eax
  00f15	e8 00 00 00 00	 call	 ?process_assert@@YGXPBD0H@Z ; process_assert
  00f1a	c7 85 70 ff ff
	ff 00 00 00 00	 mov	 DWORD PTR tv616[ebp], 0
$LN116@update_veh:
  00f24	b9 01 00 00 00	 mov	 ecx, 1
  00f29	85 c9		 test	 ecx, ecx
  00f2b	74 0c		 je	 SHORT $LN117@update_veh
  00f2d	c7 85 6c ff ff
	ff 19 00 00 00	 mov	 DWORD PTR tv624[ebp], 25 ; 00000019H
  00f37	eb 27		 jmp	 SHORT $LN118@update_veh
$LN117@update_veh:
  00f39	8b 15 00 00 00
	00		 mov	 edx, DWORD PTR ?__LINE__Var@?0??update_vehicle_weapon_fire@@YGXPAUENTITY@@@Z@4JA
  00f3f	81 c2 87 01 00
	00		 add	 edx, 391		; 00000187H
  00f45	52		 push	 edx
  00f46	68 00 00 00 00	 push	 OFFSET ??_C@_0EL@DIAIKBFG@c?3?2users?2nhv90?2projects?2eech?2ap@
  00f4b	a1 00 00 00 00	 mov	 eax, DWORD PTR ?overload_invalid_list_type_message@@3PBDB ; overload_invalid_list_type_message
  00f50	50		 push	 eax
  00f51	e8 00 00 00 00	 call	 ?process_assert@@YGXPBD0H@Z ; process_assert
  00f56	c7 85 6c ff ff
	ff 00 00 00 00	 mov	 DWORD PTR tv624[ebp], 0
$LN118@update_veh:
  00f60	6a 19		 push	 25			; 00000019H
  00f62	8b 4d 08	 mov	 ecx, DWORD PTR _en$[ebp]
  00f65	51		 push	 ecx
  00f66	69 95 70 ff ff
	ff b4 00 00 00	 imul	 edx, DWORD PTR tv616[ebp], 180
  00f70	8b 85 6c ff ff
	ff		 mov	 eax, DWORD PTR tv624[ebp]
  00f76	8b 8c 82 00 00
	00 00		 mov	 ecx, DWORD PTR ?fn_get_local_entity_parent@@3PAY0CN@P6GPAUENTITY@@PAU1@W4LIST_TYPES@@@ZA[edx+eax*4]
  00f7d	ff d1		 call	 ecx
  00f7f	89 45 c0	 mov	 DWORD PTR _group$4[ebp], eax

; 480  : 
; 481  : 		ASSERT (group);

  00f82	83 7d c0 00	 cmp	 DWORD PTR _group$4[ebp], 0
  00f86	75 1a		 jne	 SHORT $LN56@update_veh
  00f88	a1 00 00 00 00	 mov	 eax, DWORD PTR ?__LINE__Var@?0??update_vehicle_weapon_fire@@YGXPAUENTITY@@@Z@4JA
  00f8d	05 89 01 00 00	 add	 eax, 393		; 00000189H
  00f92	50		 push	 eax
  00f93	68 00 00 00 00	 push	 OFFSET ??_C@_0EL@DIAIKBFG@c?3?2users?2nhv90?2projects?2eech?2ap@
  00f98	68 00 00 00 00	 push	 OFFSET ??_C@_05MGJOOGAJ@group@
  00f9d	e8 00 00 00 00	 call	 ?process_assert@@YGXPBD0H@Z ; process_assert
$LN56@update_veh:

; 482  : 
; 483  : 		sleep_time = get_local_entity_rearming_sleep_time (group);

  00fa2	8b 45 c0	 mov	 eax, DWORD PTR _group$4[ebp]
  00fa5	50		 push	 eax
  00fa6	e8 00 00 00 00	 call	 ?get_local_entity_rearming_sleep_time@@YGMPAUENTITY@@@Z ; get_local_entity_rearming_sleep_time
  00fab	d9 5d b8	 fstp	 DWORD PTR _sleep_time$2[ebp]

; 484  : 
; 485  : 		set_local_entity_float_value (en, FLOAT_TYPE_SLEEP, sleep_time);

  00fae	83 7d 08 00	 cmp	 DWORD PTR _en$[ebp], 0
  00fb2	74 0d		 je	 SHORT $LN119@update_veh
  00fb4	8b 45 08	 mov	 eax, DWORD PTR _en$[ebp]
  00fb7	8b 08		 mov	 ecx, DWORD PTR [eax]
  00fb9	89 8d 70 ff ff
	ff		 mov	 DWORD PTR tv675[ebp], ecx
  00fbf	eb 27		 jmp	 SHORT $LN120@update_veh
$LN119@update_veh:
  00fc1	8b 15 00 00 00
	00		 mov	 edx, DWORD PTR ?__LINE__Var@?0??update_vehicle_weapon_fire@@YGXPAUENTITY@@@Z@4JA
  00fc7	81 c2 8d 01 00
	00		 add	 edx, 397		; 0000018dH
  00fcd	52		 push	 edx
  00fce	68 00 00 00 00	 push	 OFFSET ??_C@_0EL@DIAIKBFG@c?3?2users?2nhv90?2projects?2eech?2ap@
  00fd3	a1 00 00 00 00	 mov	 eax, DWORD PTR ?null_entity_pointer_message@@3PBDB ; null_entity_pointer_message
  00fd8	50		 push	 eax
  00fd9	e8 00 00 00 00	 call	 ?process_assert@@YGXPBD0H@Z ; process_assert
  00fde	c7 85 70 ff ff
	ff 00 00 00 00	 mov	 DWORD PTR tv675[ebp], 0
$LN120@update_veh:
  00fe8	b9 01 00 00 00	 mov	 ecx, 1
  00fed	85 c9		 test	 ecx, ecx
  00fef	74 0c		 je	 SHORT $LN121@update_veh
  00ff1	c7 85 6c ff ff
	ff 75 00 00 00	 mov	 DWORD PTR tv683[ebp], 117 ; 00000075H
  00ffb	eb 27		 jmp	 SHORT $LN122@update_veh
$LN121@update_veh:
  00ffd	8b 15 00 00 00
	00		 mov	 edx, DWORD PTR ?__LINE__Var@?0??update_vehicle_weapon_fire@@YGXPAUENTITY@@@Z@4JA
  01003	81 c2 8d 01 00
	00		 add	 edx, 397		; 0000018dH
  01009	52		 push	 edx
  0100a	68 00 00 00 00	 push	 OFFSET ??_C@_0EL@DIAIKBFG@c?3?2users?2nhv90?2projects?2eech?2ap@
  0100f	a1 00 00 00 00	 mov	 eax, DWORD PTR ?overload_invalid_float_type_message@@3PBDB ; overload_invalid_float_type_message
  01014	50		 push	 eax
  01015	e8 00 00 00 00	 call	 ?process_assert@@YGXPBD0H@Z ; process_assert
  0101a	c7 85 6c ff ff
	ff 00 00 00 00	 mov	 DWORD PTR tv683[ebp], 0
$LN122@update_veh:
  01024	51		 push	 ecx
  01025	f3 0f 10 45 b8	 movss	 xmm0, DWORD PTR _sleep_time$2[ebp]
  0102a	f3 0f 11 04 24	 movss	 DWORD PTR [esp], xmm0
  0102f	6a 75		 push	 117			; 00000075H
  01031	8b 4d 08	 mov	 ecx, DWORD PTR _en$[ebp]
  01034	51		 push	 ecx
  01035	69 95 70 ff ff
	ff bc 02 00 00	 imul	 edx, DWORD PTR tv675[ebp], 700
  0103f	8b 85 6c ff ff
	ff		 mov	 eax, DWORD PTR tv683[ebp]
  01045	8b 8c 82 00 00
	00 00		 mov	 ecx, DWORD PTR ?fn_set_local_entity_float_value@@3PAY0KP@P6GXPAUENTITY@@W4FLOAT_TYPES@@M@ZA[edx+eax*4]
  0104c	ff d1		 call	 ecx

; 486  : 
; 487  : 		ammo = get_local_entity_float_value (group, FLOAT_TYPE_AMMO_SUPPLY_LEVEL);

  0104e	83 7d c0 00	 cmp	 DWORD PTR _group$4[ebp], 0
  01052	74 0d		 je	 SHORT $LN123@update_veh
  01054	8b 45 c0	 mov	 eax, DWORD PTR _group$4[ebp]
  01057	8b 08		 mov	 ecx, DWORD PTR [eax]
  01059	89 8d 70 ff ff
	ff		 mov	 DWORD PTR tv695[ebp], ecx
  0105f	eb 27		 jmp	 SHORT $LN124@update_veh
$LN123@update_veh:
  01061	8b 15 00 00 00
	00		 mov	 edx, DWORD PTR ?__LINE__Var@?0??update_vehicle_weapon_fire@@YGXPAUENTITY@@@Z@4JA
  01067	81 c2 8f 01 00
	00		 add	 edx, 399		; 0000018fH
  0106d	52		 push	 edx
  0106e	68 00 00 00 00	 push	 OFFSET ??_C@_0EL@DIAIKBFG@c?3?2users?2nhv90?2projects?2eech?2ap@
  01073	a1 00 00 00 00	 mov	 eax, DWORD PTR ?null_entity_pointer_message@@3PBDB ; null_entity_pointer_message
  01078	50		 push	 eax
  01079	e8 00 00 00 00	 call	 ?process_assert@@YGXPBD0H@Z ; process_assert
  0107e	c7 85 70 ff ff
	ff 00 00 00 00	 mov	 DWORD PTR tv695[ebp], 0
$LN124@update_veh:
  01088	b9 01 00 00 00	 mov	 ecx, 1
  0108d	85 c9		 test	 ecx, ecx
  0108f	74 0c		 je	 SHORT $LN125@update_veh
  01091	c7 85 6c ff ff
	ff 08 00 00 00	 mov	 DWORD PTR tv703[ebp], 8
  0109b	eb 27		 jmp	 SHORT $LN126@update_veh
$LN125@update_veh:
  0109d	8b 15 00 00 00
	00		 mov	 edx, DWORD PTR ?__LINE__Var@?0??update_vehicle_weapon_fire@@YGXPAUENTITY@@@Z@4JA
  010a3	81 c2 8f 01 00
	00		 add	 edx, 399		; 0000018fH
  010a9	52		 push	 edx
  010aa	68 00 00 00 00	 push	 OFFSET ??_C@_0EL@DIAIKBFG@c?3?2users?2nhv90?2projects?2eech?2ap@
  010af	a1 00 00 00 00	 mov	 eax, DWORD PTR ?overload_invalid_float_type_message@@3PBDB ; overload_invalid_float_type_message
  010b4	50		 push	 eax
  010b5	e8 00 00 00 00	 call	 ?process_assert@@YGXPBD0H@Z ; process_assert
  010ba	c7 85 6c ff ff
	ff 00 00 00 00	 mov	 DWORD PTR tv703[ebp], 0
$LN126@update_veh:
  010c4	6a 08		 push	 8
  010c6	8b 4d c0	 mov	 ecx, DWORD PTR _group$4[ebp]
  010c9	51		 push	 ecx
  010ca	69 95 70 ff ff
	ff bc 02 00 00	 imul	 edx, DWORD PTR tv695[ebp], 700
  010d4	8b 85 6c ff ff
	ff		 mov	 eax, DWORD PTR tv703[ebp]
  010da	8b 8c 82 00 00
	00 00		 mov	 ecx, DWORD PTR ?fn_get_local_entity_float_value@@3PAY0KP@P6GMPAUENTITY@@W4FLOAT_TYPES@@@ZA[edx+eax*4]
  010e1	ff d1		 call	 ecx
  010e3	d9 5d bc	 fstp	 DWORD PTR _ammo$3[ebp]

; 488  : 
; 489  : 		ammo -= get_local_entity_float_value (en, FLOAT_TYPE_AMMO_ECONOMY) * AMMO_USAGE_ACCELERATOR;

  010e6	83 7d 08 00	 cmp	 DWORD PTR _en$[ebp], 0
  010ea	74 0d		 je	 SHORT $LN127@update_veh
  010ec	8b 45 08	 mov	 eax, DWORD PTR _en$[ebp]
  010ef	8b 08		 mov	 ecx, DWORD PTR [eax]
  010f1	89 8d 70 ff ff
	ff		 mov	 DWORD PTR tv715[ebp], ecx
  010f7	eb 27		 jmp	 SHORT $LN128@update_veh
$LN127@update_veh:
  010f9	8b 15 00 00 00
	00		 mov	 edx, DWORD PTR ?__LINE__Var@?0??update_vehicle_weapon_fire@@YGXPAUENTITY@@@Z@4JA
  010ff	81 c2 91 01 00
	00		 add	 edx, 401		; 00000191H
  01105	52		 push	 edx
  01106	68 00 00 00 00	 push	 OFFSET ??_C@_0EL@DIAIKBFG@c?3?2users?2nhv90?2projects?2eech?2ap@
  0110b	a1 00 00 00 00	 mov	 eax, DWORD PTR ?null_entity_pointer_message@@3PBDB ; null_entity_pointer_message
  01110	50		 push	 eax
  01111	e8 00 00 00 00	 call	 ?process_assert@@YGXPBD0H@Z ; process_assert
  01116	c7 85 70 ff ff
	ff 00 00 00 00	 mov	 DWORD PTR tv715[ebp], 0
$LN128@update_veh:
  01120	b9 01 00 00 00	 mov	 ecx, 1
  01125	85 c9		 test	 ecx, ecx
  01127	74 0c		 je	 SHORT $LN129@update_veh
  01129	c7 85 6c ff ff
	ff 07 00 00 00	 mov	 DWORD PTR tv723[ebp], 7
  01133	eb 27		 jmp	 SHORT $LN130@update_veh
$LN129@update_veh:
  01135	8b 15 00 00 00
	00		 mov	 edx, DWORD PTR ?__LINE__Var@?0??update_vehicle_weapon_fire@@YGXPAUENTITY@@@Z@4JA
  0113b	81 c2 91 01 00
	00		 add	 edx, 401		; 00000191H
  01141	52		 push	 edx
  01142	68 00 00 00 00	 push	 OFFSET ??_C@_0EL@DIAIKBFG@c?3?2users?2nhv90?2projects?2eech?2ap@
  01147	a1 00 00 00 00	 mov	 eax, DWORD PTR ?overload_invalid_float_type_message@@3PBDB ; overload_invalid_float_type_message
  0114c	50		 push	 eax
  0114d	e8 00 00 00 00	 call	 ?process_assert@@YGXPBD0H@Z ; process_assert
  01152	c7 85 6c ff ff
	ff 00 00 00 00	 mov	 DWORD PTR tv723[ebp], 0
$LN130@update_veh:
  0115c	6a 07		 push	 7
  0115e	8b 4d 08	 mov	 ecx, DWORD PTR _en$[ebp]
  01161	51		 push	 ecx
  01162	69 95 70 ff ff
	ff bc 02 00 00	 imul	 edx, DWORD PTR tv715[ebp], 700
  0116c	8b 85 6c ff ff
	ff		 mov	 eax, DWORD PTR tv723[ebp]
  01172	8b 8c 82 00 00
	00 00		 mov	 ecx, DWORD PTR ?fn_get_local_entity_float_value@@3PAY0KP@P6GMPAUENTITY@@W4FLOAT_TYPES@@@ZA[edx+eax*4]
  01179	ff d1		 call	 ecx
  0117b	dd 9d 64 ff ff
	ff		 fstp	 QWORD PTR tv1153[ebp]
  01181	f2 0f 10 85 64
	ff ff ff	 movsd	 xmm0, QWORD PTR tv1153[ebp]
  01189	f2 0f 59 05 00
	00 00 00	 mulsd	 xmm0, QWORD PTR __real@3ff0000000000000
  01191	f3 0f 5a 4d bc	 cvtss2sd xmm1, DWORD PTR _ammo$3[ebp]
  01196	f2 0f 5c c8	 subsd	 xmm1, xmm0
  0119a	f2 0f 5a c1	 cvtsd2ss xmm0, xmm1
  0119e	f3 0f 11 45 bc	 movss	 DWORD PTR _ammo$3[ebp], xmm0

; 490  : 
; 491  : 		ammo = bound (ammo, 0.0, 100.0);

  011a3	f3 0f 5a 45 bc	 cvtss2sd xmm0, DWORD PTR _ammo$3[ebp]
  011a8	0f 57 c9	 xorps	 xmm1, xmm1
  011ab	66 0f 2f c8	 comisd	 xmm1, xmm0
  011af	76 0d		 jbe	 SHORT $LN133@update_veh
  011b1	0f 57 c0	 xorps	 xmm0, xmm0
  011b4	f2 0f 11 85 6c
	ff ff ff	 movsd	 QWORD PTR tv740[ebp], xmm0
  011bc	eb 3e		 jmp	 SHORT $LN134@update_veh
$LN133@update_veh:
  011be	f3 0f 5a 45 bc	 cvtss2sd xmm0, DWORD PTR _ammo$3[ebp]
  011c3	66 0f 2f 05 00
	00 00 00	 comisd	 xmm0, QWORD PTR __real@4059000000000000
  011cb	76 12		 jbe	 SHORT $LN131@update_veh
  011cd	f2 0f 10 05 00
	00 00 00	 movsd	 xmm0, QWORD PTR __real@4059000000000000
  011d5	f2 0f 11 85 64
	ff ff ff	 movsd	 QWORD PTR tv739[ebp], xmm0
  011dd	eb 0d		 jmp	 SHORT $LN132@update_veh
$LN131@update_veh:
  011df	f3 0f 5a 45 bc	 cvtss2sd xmm0, DWORD PTR _ammo$3[ebp]
  011e4	f2 0f 11 85 64
	ff ff ff	 movsd	 QWORD PTR tv739[ebp], xmm0
$LN132@update_veh:
  011ec	f2 0f 10 85 64
	ff ff ff	 movsd	 xmm0, QWORD PTR tv739[ebp]
  011f4	f2 0f 11 85 6c
	ff ff ff	 movsd	 QWORD PTR tv740[ebp], xmm0
$LN134@update_veh:
  011fc	f2 0f 5a 85 6c
	ff ff ff	 cvtsd2ss xmm0, QWORD PTR tv740[ebp]
  01204	f3 0f 11 45 bc	 movss	 DWORD PTR _ammo$3[ebp], xmm0

; 492  : 
; 493  : 		set_local_entity_float_value (group, FLOAT_TYPE_AMMO_SUPPLY_LEVEL, ammo);

  01209	83 7d c0 00	 cmp	 DWORD PTR _group$4[ebp], 0
  0120d	74 0d		 je	 SHORT $LN135@update_veh
  0120f	8b 45 c0	 mov	 eax, DWORD PTR _group$4[ebp]
  01212	8b 08		 mov	 ecx, DWORD PTR [eax]
  01214	89 8d 70 ff ff
	ff		 mov	 DWORD PTR tv748[ebp], ecx
  0121a	eb 27		 jmp	 SHORT $LN136@update_veh
$LN135@update_veh:
  0121c	8b 15 00 00 00
	00		 mov	 edx, DWORD PTR ?__LINE__Var@?0??update_vehicle_weapon_fire@@YGXPAUENTITY@@@Z@4JA
  01222	81 c2 95 01 00
	00		 add	 edx, 405		; 00000195H
  01228	52		 push	 edx
  01229	68 00 00 00 00	 push	 OFFSET ??_C@_0EL@DIAIKBFG@c?3?2users?2nhv90?2projects?2eech?2ap@
  0122e	a1 00 00 00 00	 mov	 eax, DWORD PTR ?null_entity_pointer_message@@3PBDB ; null_entity_pointer_message
  01233	50		 push	 eax
  01234	e8 00 00 00 00	 call	 ?process_assert@@YGXPBD0H@Z ; process_assert
  01239	c7 85 70 ff ff
	ff 00 00 00 00	 mov	 DWORD PTR tv748[ebp], 0
$LN136@update_veh:
  01243	b9 01 00 00 00	 mov	 ecx, 1
  01248	85 c9		 test	 ecx, ecx
  0124a	74 0c		 je	 SHORT $LN137@update_veh
  0124c	c7 85 6c ff ff
	ff 08 00 00 00	 mov	 DWORD PTR tv756[ebp], 8
  01256	eb 27		 jmp	 SHORT $LN138@update_veh
$LN137@update_veh:
  01258	8b 15 00 00 00
	00		 mov	 edx, DWORD PTR ?__LINE__Var@?0??update_vehicle_weapon_fire@@YGXPAUENTITY@@@Z@4JA
  0125e	81 c2 95 01 00
	00		 add	 edx, 405		; 00000195H
  01264	52		 push	 edx
  01265	68 00 00 00 00	 push	 OFFSET ??_C@_0EL@DIAIKBFG@c?3?2users?2nhv90?2projects?2eech?2ap@
  0126a	a1 00 00 00 00	 mov	 eax, DWORD PTR ?overload_invalid_float_type_message@@3PBDB ; overload_invalid_float_type_message
  0126f	50		 push	 eax
  01270	e8 00 00 00 00	 call	 ?process_assert@@YGXPBD0H@Z ; process_assert
  01275	c7 85 6c ff ff
	ff 00 00 00 00	 mov	 DWORD PTR tv756[ebp], 0
$LN138@update_veh:
  0127f	51		 push	 ecx
  01280	f3 0f 10 45 bc	 movss	 xmm0, DWORD PTR _ammo$3[ebp]
  01285	f3 0f 11 04 24	 movss	 DWORD PTR [esp], xmm0
  0128a	6a 08		 push	 8
  0128c	8b 4d c0	 mov	 ecx, DWORD PTR _group$4[ebp]
  0128f	51		 push	 ecx
  01290	69 95 70 ff ff
	ff bc 02 00 00	 imul	 edx, DWORD PTR tv748[ebp], 700
  0129a	8b 85 6c ff ff
	ff		 mov	 eax, DWORD PTR tv756[ebp]
  012a0	8b 8c 82 00 00
	00 00		 mov	 ecx, DWORD PTR ?fn_set_local_entity_float_value@@3PAY0KP@P6GXPAUENTITY@@W4FLOAT_TYPES@@M@ZA[edx+eax*4]
  012a7	ff d1		 call	 ecx

; 494  : 
; 495  : 		//
; 496  : 		// set vehicle to rearmed
; 497  : 		//
; 498  : 
; 499  : 		config_type = (weapon_config_types) get_local_entity_int_value (en, INT_TYPE_WEAPON_CONFIG_TYPE);

  012a9	83 7d 08 00	 cmp	 DWORD PTR _en$[ebp], 0
  012ad	74 0d		 je	 SHORT $LN139@update_veh
  012af	8b 45 08	 mov	 eax, DWORD PTR _en$[ebp]
  012b2	8b 08		 mov	 ecx, DWORD PTR [eax]
  012b4	89 8d 70 ff ff
	ff		 mov	 DWORD PTR tv768[ebp], ecx
  012ba	eb 27		 jmp	 SHORT $LN140@update_veh
$LN139@update_veh:
  012bc	8b 15 00 00 00
	00		 mov	 edx, DWORD PTR ?__LINE__Var@?0??update_vehicle_weapon_fire@@YGXPAUENTITY@@@Z@4JA
  012c2	81 c2 9b 01 00
	00		 add	 edx, 411		; 0000019bH
  012c8	52		 push	 edx
  012c9	68 00 00 00 00	 push	 OFFSET ??_C@_0EL@DIAIKBFG@c?3?2users?2nhv90?2projects?2eech?2ap@
  012ce	a1 00 00 00 00	 mov	 eax, DWORD PTR ?null_entity_pointer_message@@3PBDB ; null_entity_pointer_message
  012d3	50		 push	 eax
  012d4	e8 00 00 00 00	 call	 ?process_assert@@YGXPBD0H@Z ; process_assert
  012d9	c7 85 70 ff ff
	ff 00 00 00 00	 mov	 DWORD PTR tv768[ebp], 0
$LN140@update_veh:
  012e3	b9 01 00 00 00	 mov	 ecx, 1
  012e8	85 c9		 test	 ecx, ecx
  012ea	74 0c		 je	 SHORT $LN141@update_veh
  012ec	c7 85 6c ff ff
	ff 05 01 00 00	 mov	 DWORD PTR tv776[ebp], 261 ; 00000105H
  012f6	eb 27		 jmp	 SHORT $LN142@update_veh
$LN141@update_veh:
  012f8	8b 15 00 00 00
	00		 mov	 edx, DWORD PTR ?__LINE__Var@?0??update_vehicle_weapon_fire@@YGXPAUENTITY@@@Z@4JA
  012fe	81 c2 9b 01 00
	00		 add	 edx, 411		; 0000019bH
  01304	52		 push	 edx
  01305	68 00 00 00 00	 push	 OFFSET ??_C@_0EL@DIAIKBFG@c?3?2users?2nhv90?2projects?2eech?2ap@
  0130a	a1 00 00 00 00	 mov	 eax, DWORD PTR ?overload_invalid_int_type_message@@3PBDB ; overload_invalid_int_type_message
  0130f	50		 push	 eax
  01310	e8 00 00 00 00	 call	 ?process_assert@@YGXPBD0H@Z ; process_assert
  01315	c7 85 6c ff ff
	ff 00 00 00 00	 mov	 DWORD PTR tv776[ebp], 0
$LN142@update_veh:
  0131f	68 05 01 00 00	 push	 261			; 00000105H
  01324	8b 4d 08	 mov	 ecx, DWORD PTR _en$[ebp]
  01327	51		 push	 ecx
  01328	69 95 70 ff ff
	ff 5c 04 00 00	 imul	 edx, DWORD PTR tv768[ebp], 1116
  01332	8b 85 6c ff ff
	ff		 mov	 eax, DWORD PTR tv776[ebp]
  01338	8b 8c 82 00 00
	00 00		 mov	 ecx, DWORD PTR ?fn_get_local_entity_int_value@@3PAY0BBH@P6GHPAUENTITY@@W4INT_TYPES@@@ZA[edx+eax*4]
  0133f	ff d1		 call	 ecx
  01341	89 45 b4	 mov	 DWORD PTR _config_type$1[ebp], eax

; 500  : 
; 501  : 		if (config_type == WEAPON_CONFIG_TYPE_UNARMED)

  01344	83 7d b4 00	 cmp	 DWORD PTR _config_type$1[ebp], 0
  01348	0f 85 98 00 00
	00		 jne	 $LN57@update_veh

; 502  : 		{
; 503  : 			config_type = (weapon_config_types) get_local_entity_int_value (en, INT_TYPE_DEFAULT_WEAPON_CONFIG_TYPE);

  0134e	83 7d 08 00	 cmp	 DWORD PTR _en$[ebp], 0
  01352	74 0d		 je	 SHORT $LN143@update_veh
  01354	8b 45 08	 mov	 eax, DWORD PTR _en$[ebp]
  01357	8b 08		 mov	 ecx, DWORD PTR [eax]
  01359	89 8d 70 ff ff
	ff		 mov	 DWORD PTR tv789[ebp], ecx
  0135f	eb 27		 jmp	 SHORT $LN144@update_veh
$LN143@update_veh:
  01361	8b 15 00 00 00
	00		 mov	 edx, DWORD PTR ?__LINE__Var@?0??update_vehicle_weapon_fire@@YGXPAUENTITY@@@Z@4JA
  01367	81 c2 9f 01 00
	00		 add	 edx, 415		; 0000019fH
  0136d	52		 push	 edx
  0136e	68 00 00 00 00	 push	 OFFSET ??_C@_0EL@DIAIKBFG@c?3?2users?2nhv90?2projects?2eech?2ap@
  01373	a1 00 00 00 00	 mov	 eax, DWORD PTR ?null_entity_pointer_message@@3PBDB ; null_entity_pointer_message
  01378	50		 push	 eax
  01379	e8 00 00 00 00	 call	 ?process_assert@@YGXPBD0H@Z ; process_assert
  0137e	c7 85 70 ff ff
	ff 00 00 00 00	 mov	 DWORD PTR tv789[ebp], 0
$LN144@update_veh:
  01388	b9 01 00 00 00	 mov	 ecx, 1
  0138d	85 c9		 test	 ecx, ecx
  0138f	74 0c		 je	 SHORT $LN145@update_veh
  01391	c7 85 6c ff ff
	ff 2c 00 00 00	 mov	 DWORD PTR tv797[ebp], 44 ; 0000002cH
  0139b	eb 27		 jmp	 SHORT $LN146@update_veh
$LN145@update_veh:
  0139d	8b 15 00 00 00
	00		 mov	 edx, DWORD PTR ?__LINE__Var@?0??update_vehicle_weapon_fire@@YGXPAUENTITY@@@Z@4JA
  013a3	81 c2 9f 01 00
	00		 add	 edx, 415		; 0000019fH
  013a9	52		 push	 edx
  013aa	68 00 00 00 00	 push	 OFFSET ??_C@_0EL@DIAIKBFG@c?3?2users?2nhv90?2projects?2eech?2ap@
  013af	a1 00 00 00 00	 mov	 eax, DWORD PTR ?overload_invalid_int_type_message@@3PBDB ; overload_invalid_int_type_message
  013b4	50		 push	 eax
  013b5	e8 00 00 00 00	 call	 ?process_assert@@YGXPBD0H@Z ; process_assert
  013ba	c7 85 6c ff ff
	ff 00 00 00 00	 mov	 DWORD PTR tv797[ebp], 0
$LN146@update_veh:
  013c4	6a 2c		 push	 44			; 0000002cH
  013c6	8b 4d 08	 mov	 ecx, DWORD PTR _en$[ebp]
  013c9	51		 push	 ecx
  013ca	69 95 70 ff ff
	ff 5c 04 00 00	 imul	 edx, DWORD PTR tv789[ebp], 1116
  013d4	8b 85 6c ff ff
	ff		 mov	 eax, DWORD PTR tv797[ebp]
  013da	8b 8c 82 00 00
	00 00		 mov	 ecx, DWORD PTR ?fn_get_local_entity_int_value@@3PAY0BBH@P6GHPAUENTITY@@W4INT_TYPES@@@ZA[edx+eax*4]
  013e1	ff d1		 call	 ecx
  013e3	89 45 b4	 mov	 DWORD PTR _config_type$1[ebp], eax
$LN57@update_veh:

; 504  : 		}
; 505  : 
; 506  : 		set_client_server_entity_int_value (en, INT_TYPE_WEAPON_CONFIG_TYPE, config_type);

  013e6	83 7d 08 00	 cmp	 DWORD PTR _en$[ebp], 0
  013ea	74 0d		 je	 SHORT $LN147@update_veh
  013ec	8b 45 08	 mov	 eax, DWORD PTR _en$[ebp]
  013ef	8b 08		 mov	 ecx, DWORD PTR [eax]
  013f1	89 8d 70 ff ff
	ff		 mov	 DWORD PTR tv809[ebp], ecx
  013f7	eb 27		 jmp	 SHORT $LN148@update_veh
$LN147@update_veh:
  013f9	8b 15 00 00 00
	00		 mov	 edx, DWORD PTR ?__LINE__Var@?0??update_vehicle_weapon_fire@@YGXPAUENTITY@@@Z@4JA
  013ff	81 c2 a2 01 00
	00		 add	 edx, 418		; 000001a2H
  01405	52		 push	 edx
  01406	68 00 00 00 00	 push	 OFFSET ??_C@_0EL@DIAIKBFG@c?3?2users?2nhv90?2projects?2eech?2ap@
  0140b	a1 00 00 00 00	 mov	 eax, DWORD PTR ?null_entity_pointer_message@@3PBDB ; null_entity_pointer_message
  01410	50		 push	 eax
  01411	e8 00 00 00 00	 call	 ?process_assert@@YGXPBD0H@Z ; process_assert
  01416	c7 85 70 ff ff
	ff 00 00 00 00	 mov	 DWORD PTR tv809[ebp], 0
$LN148@update_veh:
  01420	b9 01 00 00 00	 mov	 ecx, 1
  01425	85 c9		 test	 ecx, ecx
  01427	74 0c		 je	 SHORT $LN149@update_veh
  01429	c7 85 6c ff ff
	ff 05 01 00 00	 mov	 DWORD PTR tv817[ebp], 261 ; 00000105H
  01433	eb 27		 jmp	 SHORT $LN150@update_veh
$LN149@update_veh:
  01435	8b 15 00 00 00
	00		 mov	 edx, DWORD PTR ?__LINE__Var@?0??update_vehicle_weapon_fire@@YGXPAUENTITY@@@Z@4JA
  0143b	81 c2 a2 01 00
	00		 add	 edx, 418		; 000001a2H
  01441	52		 push	 edx
  01442	68 00 00 00 00	 push	 OFFSET ??_C@_0EL@DIAIKBFG@c?3?2users?2nhv90?2projects?2eech?2ap@
  01447	a1 00 00 00 00	 mov	 eax, DWORD PTR ?overload_invalid_int_type_message@@3PBDB ; overload_invalid_int_type_message
  0144c	50		 push	 eax
  0144d	e8 00 00 00 00	 call	 ?process_assert@@YGXPBD0H@Z ; process_assert
  01452	c7 85 6c ff ff
	ff 00 00 00 00	 mov	 DWORD PTR tv817[ebp], 0
$LN150@update_veh:
  0145c	8b 4d b4	 mov	 ecx, DWORD PTR _config_type$1[ebp]
  0145f	51		 push	 ecx
  01460	68 05 01 00 00	 push	 261			; 00000105H
  01465	8b 55 08	 mov	 edx, DWORD PTR _en$[ebp]
  01468	52		 push	 edx
  01469	69 85 70 ff ff
	ff b8 08 00 00	 imul	 eax, DWORD PTR tv809[ebp], 2232
  01473	8b 8d 6c ff ff
	ff		 mov	 ecx, DWORD PTR tv817[ebp]
  01479	8d 94 c8 00 00
	00 00		 lea	 edx, DWORD PTR ?fn_set_client_server_entity_int_value@@3PAY1BBH@1P6GXPAUENTITY@@W4INT_TYPES@@H@ZA[eax+ecx*8]
  01480	a1 00 00 00 00	 mov	 eax, DWORD PTR ?system_comms_model@@3W4COMMS_MODEL_TYPES@@A ; system_comms_model
  01485	8b 0c 82	 mov	 ecx, DWORD PTR [edx+eax*4]
  01488	ff d1		 call	 ecx
$LN55@update_veh:
$LN1@update_veh:

; 507  : 
; 508  : 		#if DEBUG_MODULE || DEBUG_SUPPLY
; 509  : 
; 510  : 		debug_log ("VH_WPN: SUPPLY_INFO: member %s (%d) rearmed, sleeping for %0.2f seconds (group ammo = %0.2f%%, fuel %0.2f%%)",
; 511  : 						get_local_entity_string (en, STRING_TYPE_FULL_NAME),
; 512  : 						get_local_entity_index (en),
; 513  : 						sleep_time,
; 514  : 						get_local_entity_float_value (group, FLOAT_TYPE_AMMO_SUPPLY_LEVEL),
; 515  : 						get_local_entity_float_value (group, FLOAT_TYPE_FUEL_SUPPLY_LEVEL));
; 516  : 
; 517  : 		#endif
; 518  : 	}
; 519  : }

  0148a	5f		 pop	 edi
  0148b	5e		 pop	 esi
  0148c	5b		 pop	 ebx
  0148d	8b e5		 mov	 esp, ebp
  0148f	5d		 pop	 ebp
  01490	c2 04 00	 ret	 4
?update_vehicle_weapon_fire@@YGXPAUENTITY@@@Z ENDP	; update_vehicle_weapon_fire
_TEXT	ENDS
; Function compile flags: /Odtp /ZI
; File c:\program files (x86)\microsoft visual studio\2017\community\vc\tools\msvc\14.16.27023\include\cmath
;	COMDAT ?fabs@@YGMM@Z
_TEXT	SEGMENT
__Xx$ = 8						; size = 4
?fabs@@YGMM@Z PROC					; fabs, COMDAT

; 112  : 	{

  00000	55		 push	 ebp
  00001	8b ec		 mov	 ebp, esp
  00003	83 ec 40	 sub	 esp, 64			; 00000040H
  00006	53		 push	 ebx
  00007	56		 push	 esi
  00008	57		 push	 edi

; 113  : 	return (_CSTD fabsf(_Xx));

  00009	51		 push	 ecx
  0000a	f3 0f 10 45 08	 movss	 xmm0, DWORD PTR __Xx$[ebp]
  0000f	f3 0f 11 04 24	 movss	 DWORD PTR [esp], xmm0
  00014	e8 00 00 00 00	 call	 _fabsf
  00019	83 c4 04	 add	 esp, 4

; 114  : 	}

  0001c	5f		 pop	 edi
  0001d	5e		 pop	 esi
  0001e	5b		 pop	 ebx
  0001f	8b e5		 mov	 esp, ebp
  00021	5d		 pop	 ebp
  00022	c2 04 00	 ret	 4
?fabs@@YGMM@Z ENDP					; fabs
_TEXT	ENDS
; Function compile flags: /Odtp /ZI
; File c:\program files (x86)\microsoft visual studio\2017\community\vc\tools\msvc\14.16.27023\include\cmath
;	COMDAT ?acos@@YGMM@Z
_TEXT	SEGMENT
__Xx$ = 8						; size = 4
?acos@@YGMM@Z PROC					; acos, COMDAT

; 26   : 	{

  00000	55		 push	 ebp
  00001	8b ec		 mov	 ebp, esp
  00003	83 ec 40	 sub	 esp, 64			; 00000040H
  00006	53		 push	 ebx
  00007	56		 push	 esi
  00008	57		 push	 edi

; 27   : 	return (_CSTD acosf(_Xx));

  00009	51		 push	 ecx
  0000a	f3 0f 10 45 08	 movss	 xmm0, DWORD PTR __Xx$[ebp]
  0000f	f3 0f 11 04 24	 movss	 DWORD PTR [esp], xmm0
  00014	e8 00 00 00 00	 call	 _acosf
  00019	83 c4 04	 add	 esp, 4

; 28   : 	}

  0001c	5f		 pop	 edi
  0001d	5e		 pop	 esi
  0001e	5b		 pop	 ebx
  0001f	8b e5		 mov	 esp, ebp
  00021	5d		 pop	 ebp
  00022	c2 04 00	 ret	 4
?acos@@YGMM@Z ENDP					; acos
_TEXT	ENDS
; Function compile flags: /Odtp /ZI
; File c:\program files (x86)\windows kits\10\include\10.0.18362.0\ucrt\corecrt_math.h
;	COMDAT _fabsf
_TEXT	SEGMENT
tv71 = -68						; size = 4
__X$ = 8						; size = 4
_fabsf	PROC						; COMDAT

; 671  :         {

  00000	55		 push	 ebp
  00001	8b ec		 mov	 ebp, esp
  00003	83 ec 44	 sub	 esp, 68			; 00000044H
  00006	53		 push	 ebx
  00007	56		 push	 esi
  00008	57		 push	 edi

; 672  :             return (float)fabs(_X);

  00009	f3 0f 5a 45 08	 cvtss2sd xmm0, DWORD PTR __X$[ebp]
  0000e	83 ec 08	 sub	 esp, 8
  00011	f2 0f 11 04 24	 movsd	 QWORD PTR [esp], xmm0
  00016	e8 00 00 00 00	 call	 _fabs
  0001b	83 c4 08	 add	 esp, 8
  0001e	d9 5d bc	 fstp	 DWORD PTR tv71[ebp]
  00021	d9 45 bc	 fld	 DWORD PTR tv71[ebp]

; 673  :         }

  00024	5f		 pop	 edi
  00025	5e		 pop	 esi
  00026	5b		 pop	 ebx
  00027	8b e5		 mov	 esp, ebp
  00029	5d		 pop	 ebp
  0002a	c3		 ret	 0
_fabsf	ENDP
_TEXT	ENDS
; Function compile flags: /Odtp /ZI
; File c:\program files (x86)\windows kits\10\include\10.0.18362.0\ucrt\corecrt_math.h
;	COMDAT _acosf
_TEXT	SEGMENT
tv71 = -68						; size = 4
__X$ = 8						; size = 4
_acosf	PROC						; COMDAT

; 623  :         {

  00000	55		 push	 ebp
  00001	8b ec		 mov	 ebp, esp
  00003	83 ec 44	 sub	 esp, 68			; 00000044H
  00006	53		 push	 ebx
  00007	56		 push	 esi
  00008	57		 push	 edi

; 624  :             return (float)acos(_X);

  00009	f3 0f 5a 45 08	 cvtss2sd xmm0, DWORD PTR __X$[ebp]
  0000e	83 ec 08	 sub	 esp, 8
  00011	f2 0f 11 04 24	 movsd	 QWORD PTR [esp], xmm0
  00016	e8 00 00 00 00	 call	 _acos
  0001b	83 c4 08	 add	 esp, 8
  0001e	d9 5d bc	 fstp	 DWORD PTR tv71[ebp]
  00021	d9 45 bc	 fld	 DWORD PTR tv71[ebp]

; 625  :         }

  00024	5f		 pop	 edi
  00025	5e		 pop	 esi
  00026	5b		 pop	 ebx
  00027	8b e5		 mov	 esp, ebp
  00029	5d		 pop	 ebp
  0002a	c3		 ret	 0
_acosf	ENDP
_TEXT	ENDS
END
