; Listing generated by Microsoft (R) Optimizing Compiler Version 19.16.27045.0 

	TITLE	C:\Users\nhv90\Projects\eech\aphavoc\source\gunships\cockpits\viper\vi_cpg.c
	.686P
	.XMM
	include listing.inc
	.model	flat

INCLUDELIB MSVCRTD
INCLUDELIB OLDNAMES

PUBLIC	?initialise_viper_co_pilot_animation@@YGXXZ	; initialise_viper_co_pilot_animation
PUBLIC	?deinitialise_viper_co_pilot_animation@@YGXXZ	; deinitialise_viper_co_pilot_animation
PUBLIC	?update_viper_co_pilot_animation@@YGXXZ		; update_viper_co_pilot_animation
PUBLIC	?set_viper_co_pilot_head_position@@YGXXZ	; set_viper_co_pilot_head_position
PUBLIC	?get_viper_co_pilot_head_pitch_datum@@YGMXZ	; get_viper_co_pilot_head_pitch_datum
PUBLIC	?__LINE__Var@?0??set_co_pilot_animation@@YGXPAUCO_PILOT_ANIM_DATA@@M@Z@4JA ; `set_co_pilot_animation'::`1'::__LINE__Var
PUBLIC	??_C@_0EN@GDIPHLNA@c?3?2users?2nhv90?2projects?2eech?2ap@ ; `string'
PUBLIC	??_C@_04NBCDDDGK@anim@				; `string'
PUBLIC	??_C@_0BM@PAHNKOC@Invalid?5animation?5mode?5?$DN?5?$CFd@ ; `string'
PUBLIC	?__LINE__Var@?0??update_co_pilot_head_tilt_animation@@YGXXZ@4JA ; `update_co_pilot_head_tilt_animation'::`1'::__LINE__Var
PUBLIC	??_C@_0CO@KBILJIGH@co_pilot_anim_mode?5?$DN?$DN?5CO_PILOT_@ ; `string'
PUBLIC	?__LINE__Var@?0??update_viper_co_pilot_animation@@YGXXZ@4JA ; `update_viper_co_pilot_animation'::`1'::__LINE__Var
PUBLIC	??_C@_0BG@EANNPEON@get_gunship_entity?5?$CI?$CJ@ ; `string'
PUBLIC	??_C@_0BI@CKBJIOHI@current_flight_dynamics@	; `string'
PUBLIC	??_C@_0BH@OJOOJLIP@virtual_cockpit_inst3d@	; `string'
PUBLIC	?__LINE__Var@?0??set_viper_co_pilot_head_position@@YGXXZ@4JA ; `set_viper_co_pilot_head_position'::`1'::__LINE__Var
PUBLIC	??_C@_0DE@MOLAKHGN@Failed?5to?5locate?5co?9pilot?8s?5hea@ ; `string'
PUBLIC	?__LINE__Var@?0??get_viper_co_pilot_head_pitch_datum@@YGMXZ@4JA ; `get_viper_co_pilot_head_pitch_datum'::`1'::__LINE__Var
PUBLIC	__real@00000000
PUBLIC	__real@0000000000000000
PUBLIC	__real@3d23d70a
PUBLIC	__real@3d75c28f
PUBLIC	__real@3e32b8c2
PUBLIC	__real@3f000000
PUBLIC	__real@3f00002000400080
PUBLIC	__real@3f800000
PUBLIC	__real@3fc3333333333333
PUBLIC	__real@3fc999999999999a
PUBLIC	__real@3fd2492492492492
PUBLIC	__real@3fd5555555555555
PUBLIC	__real@3fd999999999999a
PUBLIC	__real@3fe0000000000000
PUBLIC	__real@3ff0000000000000
PUBLIC	__real@4000000000000000
PUBLIC	__real@4006eb1686b280e6
PUBLIC	__real@4008000000000000
PUBLIC	__real@be32b8c2
PUBLIC	__real@bf800000
EXTRN	?process_assert@@YGXPBD0H@Z:PROC		; process_assert
EXTRN	?debug_fatal@@YAXPBDZZ:PROC			; debug_fatal
EXTRN	?find_object_3d_sub_object@@YG?AW4SUB_OBJECT_SEARCH_RESULT_TYPES@@PAUOBJECT_3D_SUB_OBJECT_SEARCH_DATA@@@Z:PROC ; find_object_3d_sub_object
EXTRN	?animate_entity_simple_keyframed_sub_objects@@YGXPAUOBJECT_3D_INSTANCE@@HM@Z:PROC ; animate_entity_simple_keyframed_sub_objects
EXTRN	?get_crew_role@@YG?AW4CREW_ROLES@@XZ:PROC	; get_crew_role
EXTRN	?system_delta_time@@3MA:DWORD			; system_delta_time
EXTRN	?random_number_seed@@3HA:DWORD			; random_number_seed
EXTRN	?null_entity_pointer_message@@3PBDB:DWORD	; null_entity_pointer_message
EXTRN	?overload_invalid_float_type_message@@3PBDB:DWORD ; overload_invalid_float_type_message
EXTRN	?fn_get_local_entity_float_value@@3PAY0KP@P6GMPAUENTITY@@W4FLOAT_TYPES@@@ZA:BYTE ; fn_get_local_entity_float_value
EXTRN	?gunship_entity@@3PAUENTITY@@A:DWORD		; gunship_entity
EXTRN	?view_mode@@3W4VIEW_MODES@@A:DWORD		; view_mode
EXTRN	?virtual_cockpit_inst3d@@3PAUOBJECT_3D_INSTANCE@@A:DWORD ; virtual_cockpit_inst3d
EXTRN	?co_pilot_head_pitch_datum@@3MA:DWORD		; co_pilot_head_pitch_datum
EXTRN	?current_flight_dynamics@@3PAUDYNAMICS_TYPE@@A:DWORD ; current_flight_dynamics
EXTRN	__fltused:DWORD
_BSS	SEGMENT
?co_pilot_head_anim_frame@@3MA DD 01H DUP (?)		; co_pilot_head_anim_frame
?co_pilot_head_anim_pause@@3MA DD 01H DUP (?)		; co_pilot_head_anim_pause
?previous_co_pilot_head_tilt_angle@@3MA DD 01H DUP (?)	; previous_co_pilot_head_tilt_angle
?co_pilot_anim_mode@@3W4CO_PILOT_ANIM_MODES@@A DD 01H DUP (?) ; co_pilot_anim_mode
?co_pilot_anim_frame@@3MA DD 01H DUP (?)		; co_pilot_anim_frame
?co_pilot_anim_delay@@3MA DD 01H DUP (?)		; co_pilot_anim_delay
?co_pilot_anim_mode_none_anim_data@@3UCO_PILOT_ANIM_DATA@@A DB 0cH DUP (?) ; co_pilot_anim_mode_none_anim_data
_BSS	ENDS
;	COMDAT __real@bf800000
CONST	SEGMENT
__real@bf800000 DD 0bf800000r			; -1
CONST	ENDS
;	COMDAT __real@be32b8c2
CONST	SEGMENT
__real@be32b8c2 DD 0be32b8c2r			; -0.174533
CONST	ENDS
;	COMDAT __real@4008000000000000
CONST	SEGMENT
__real@4008000000000000 DQ 04008000000000000r	; 3
CONST	ENDS
;	COMDAT __real@4006eb1686b280e6
CONST	SEGMENT
__real@4006eb1686b280e6 DQ 04006eb1686b280e6r	; 2.86479
CONST	ENDS
;	COMDAT __real@4000000000000000
CONST	SEGMENT
__real@4000000000000000 DQ 04000000000000000r	; 2
CONST	ENDS
;	COMDAT __real@3ff0000000000000
CONST	SEGMENT
__real@3ff0000000000000 DQ 03ff0000000000000r	; 1
CONST	ENDS
;	COMDAT __real@3fe0000000000000
CONST	SEGMENT
__real@3fe0000000000000 DQ 03fe0000000000000r	; 0.5
CONST	ENDS
;	COMDAT __real@3fd999999999999a
CONST	SEGMENT
__real@3fd999999999999a DQ 03fd999999999999ar	; 0.4
CONST	ENDS
;	COMDAT __real@3fd5555555555555
CONST	SEGMENT
__real@3fd5555555555555 DQ 03fd5555555555555r	; 0.333333
CONST	ENDS
;	COMDAT __real@3fd2492492492492
CONST	SEGMENT
__real@3fd2492492492492 DQ 03fd2492492492492r	; 0.285714
CONST	ENDS
;	COMDAT __real@3fc999999999999a
CONST	SEGMENT
__real@3fc999999999999a DQ 03fc999999999999ar	; 0.2
CONST	ENDS
;	COMDAT __real@3fc3333333333333
CONST	SEGMENT
__real@3fc3333333333333 DQ 03fc3333333333333r	; 0.15
CONST	ENDS
;	COMDAT __real@3f800000
CONST	SEGMENT
__real@3f800000 DD 03f800000r			; 1
CONST	ENDS
;	COMDAT __real@3f00002000400080
CONST	SEGMENT
__real@3f00002000400080 DQ 03f00002000400080r	; 3.05185e-05
CONST	ENDS
;	COMDAT __real@3f000000
CONST	SEGMENT
__real@3f000000 DD 03f000000r			; 0.5
CONST	ENDS
;	COMDAT __real@3e32b8c2
CONST	SEGMENT
__real@3e32b8c2 DD 03e32b8c2r			; 0.174533
CONST	ENDS
;	COMDAT __real@3d75c28f
CONST	SEGMENT
__real@3d75c28f DD 03d75c28fr			; 0.06
CONST	ENDS
;	COMDAT __real@3d23d70a
CONST	SEGMENT
__real@3d23d70a DD 03d23d70ar			; 0.04
CONST	ENDS
;	COMDAT __real@0000000000000000
CONST	SEGMENT
__real@0000000000000000 DQ 00000000000000000r	; 0
CONST	ENDS
;	COMDAT __real@00000000
CONST	SEGMENT
__real@00000000 DD 000000000r			; 0
CONST	ENDS
;	COMDAT ?__LINE__Var@?0??get_viper_co_pilot_head_pitch_datum@@YGMXZ@4JA
_DATA	SEGMENT
?__LINE__Var@?0??get_viper_co_pilot_head_pitch_datum@@YGMXZ@4JA DD 0527H ; `get_viper_co_pilot_head_pitch_datum'::`1'::__LINE__Var
_DATA	ENDS
;	COMDAT ??_C@_0DE@MOLAKHGN@Failed?5to?5locate?5co?9pilot?8s?5hea@
CONST	SEGMENT
??_C@_0DE@MOLAKHGN@Failed?5to?5locate?5co?9pilot?8s?5hea@ DB 'Failed to l'
	DB	'ocate co-pilot''s head in virtual cockpit', 00H ; `string'
CONST	ENDS
;	COMDAT ?__LINE__Var@?0??set_viper_co_pilot_head_position@@YGXXZ@4JA
_DATA	SEGMENT
?__LINE__Var@?0??set_viper_co_pilot_head_position@@YGXXZ@4JA DD 04f0H ; `set_viper_co_pilot_head_position'::`1'::__LINE__Var
_DATA	ENDS
;	COMDAT ??_C@_0BH@OJOOJLIP@virtual_cockpit_inst3d@
CONST	SEGMENT
??_C@_0BH@OJOOJLIP@virtual_cockpit_inst3d@ DB 'virtual_cockpit_inst3d', 00H ; `string'
CONST	ENDS
;	COMDAT ??_C@_0BI@CKBJIOHI@current_flight_dynamics@
CONST	SEGMENT
??_C@_0BI@CKBJIOHI@current_flight_dynamics@ DB 'current_flight_dynamics', 00H ; `string'
CONST	ENDS
;	COMDAT ??_C@_0BG@EANNPEON@get_gunship_entity?5?$CI?$CJ@
CONST	SEGMENT
??_C@_0BG@EANNPEON@get_gunship_entity?5?$CI?$CJ@ DB 'get_gunship_entity ('
	DB	')', 00H					; `string'
CONST	ENDS
;	COMDAT ?__LINE__Var@?0??update_viper_co_pilot_animation@@YGXXZ@4JA
_DATA	SEGMENT
?__LINE__Var@?0??update_viper_co_pilot_animation@@YGXXZ@4JA DD 04e1H ; `update_viper_co_pilot_animation'::`1'::__LINE__Var
_DATA	ENDS
;	COMDAT ??_C@_0CO@KBILJIGH@co_pilot_anim_mode?5?$DN?$DN?5CO_PILOT_@
CONST	SEGMENT
??_C@_0CO@KBILJIGH@co_pilot_anim_mode?5?$DN?$DN?5CO_PILOT_@ DB 'co_pilot_'
	DB	'anim_mode == CO_PILOT_ANIM_MODE_NONE', 00H	; `string'
CONST	ENDS
;	COMDAT ?__LINE__Var@?0??update_co_pilot_head_tilt_animation@@YGXXZ@4JA
_DATA	SEGMENT
?__LINE__Var@?0??update_co_pilot_head_tilt_animation@@YGXXZ@4JA DD 0493H ; `update_co_pilot_head_tilt_animation'::`1'::__LINE__Var
_DATA	ENDS
;	COMDAT ??_C@_0BM@PAHNKOC@Invalid?5animation?5mode?5?$DN?5?$CFd@
CONST	SEGMENT
??_C@_0BM@PAHNKOC@Invalid?5animation?5mode?5?$DN?5?$CFd@ DB 'Invalid anim'
	DB	'ation mode = %d', 00H			; `string'
CONST	ENDS
;	COMDAT ??_C@_04NBCDDDGK@anim@
CONST	SEGMENT
??_C@_04NBCDDDGK@anim@ DB 'anim', 00H			; `string'
CONST	ENDS
;	COMDAT ??_C@_0EN@GDIPHLNA@c?3?2users?2nhv90?2projects?2eech?2ap@
CONST	SEGMENT
??_C@_0EN@GDIPHLNA@c?3?2users?2nhv90?2projects?2eech?2ap@ DB 'c:\users\nh'
	DB	'v90\projects\eech\aphavoc\source\gunships\cockpits\viper\vi_c'
	DB	'pg.c', 00H					; `string'
CONST	ENDS
;	COMDAT ?__LINE__Var@?0??set_co_pilot_animation@@YGXPAUCO_PILOT_ANIM_DATA@@M@Z@4JA
_DATA	SEGMENT
?__LINE__Var@?0??set_co_pilot_animation@@YGXPAUCO_PILOT_ANIM_DATA@@M@Z@4JA DD 023cH ; `set_co_pilot_animation'::`1'::__LINE__Var
_DATA	ENDS
_DATA	SEGMENT
?co_pilot_anim_mode_right_hand_to_rh_mfd_button_anim_data@@3UCO_PILOT_ANIM_DATA@@A DD 03d75c28fr ; 0.06 ; co_pilot_anim_mode_right_hand_to_rh_mfd_button_anim_data
	DD	03df5c28fr			; 0.12
	DD	0fH
?co_pilot_anim_mode_left_hand_to_lh_mfd_button_anim_data@@3UCO_PILOT_ANIM_DATA@@A DD 03df5c28fr ; 0.12 ; co_pilot_anim_mode_left_hand_to_lh_mfd_button_anim_data
	DD	03e23d70ar			; 0.16
	DD	0fH
?co_pilot_anim_mode_right_hand_to_rh_console_anim_data@@3UCO_PILOT_ANIM_DATA@@A DD 03e23d70ar ; 0.16 ; co_pilot_anim_mode_right_hand_to_rh_console_anim_data
	DD	03e6b851fr			; 0.23
	DD	0fH
?co_pilot_anim_mode_left_hand_to_lh_console_anim_data@@3UCO_PILOT_ANIM_DATA@@A DD 03e8f5c29r ; 0.28 ; co_pilot_anim_mode_left_hand_to_lh_console_anim_data
	DD	03eae147br			; 0.34
	DD	0fH
?co_pilot_anim_mode_right_hand_to_calculator_anim_data@@3UCO_PILOT_ANIM_DATA@@A DD 03e6b851fr ; 0.23 ; co_pilot_anim_mode_right_hand_to_calculator_anim_data
	DD	03e8f5c29r			; 0.28
	DD	0fH
?co_pilot_anim_mode_left_hand_to_rh_small_mfd_button_anim_data@@3UCO_PILOT_ANIM_DATA@@A DD 03eae147br ; 0.34 ; co_pilot_anim_mode_left_hand_to_rh_small_mfd_button_anim_data
	DD	03ecccccdr			; 0.4
	DD	0fH
?co_pilot_anim_mode_left_hand_to_lh_mfd_top_button_anim_data@@3UCO_PILOT_ANIM_DATA@@A DD 03ecccccdr ; 0.4 ; co_pilot_anim_mode_left_hand_to_lh_mfd_top_button_anim_data
	DD	03eeb851fr			; 0.46
	DD	0fH
?co_pilot_anim_mode_head_look_down_anim_data@@3UCO_PILOT_ANIM_DATA@@A DD 03f428f5cr ; 0.76 ; co_pilot_anim_mode_head_look_down_anim_data
	DD	03f4ccccdr			; 0.8
	DD	01H
?co_pilot_anim_mode_head_look_down_left_anim_data@@3UCO_PILOT_ANIM_DATA@@A DD 03f2e147br ; 0.68 ; co_pilot_anim_mode_head_look_down_left_anim_data
	DD	03f3851ecr			; 0.72
	DD	01H
?co_pilot_anim_mode_head_look_down_right_anim_data@@3UCO_PILOT_ANIM_DATA@@A DD 03f3851ecr ; 0.72 ; co_pilot_anim_mode_head_look_down_right_anim_data
	DD	03f428f5cr			; 0.76
	DD	01H
?co_pilot_anim_mode_head_look_up_anim_data@@3UCO_PILOT_ANIM_DATA@@A DD 03f4ccccdr ; 0.8 ; co_pilot_anim_mode_head_look_up_anim_data
	DD	03f570a3dr			; 0.84
	DD	01H
?co_pilot_anim_mode_head_look_up_left_anim_data@@3UCO_PILOT_ANIM_DATA@@A DD 03f6b851fr ; 0.92 ; co_pilot_anim_mode_head_look_up_left_anim_data
	DD	03f75c28fr			; 0.96
	DD	01H
?co_pilot_anim_mode_head_look_up_right_anim_data@@3UCO_PILOT_ANIM_DATA@@A DD 03f75c28fr ; 0.96 ; co_pilot_anim_mode_head_look_up_right_anim_data
	DD	03f800000r			; 1
	DD	01H
?co_pilot_anim_mode_head_look_left_anim_data@@3UCO_PILOT_ANIM_DATA@@A DD 03f570a3dr ; 0.84 ; co_pilot_anim_mode_head_look_left_anim_data
	DD	03f6147aer			; 0.88
	DD	01H
?co_pilot_anim_mode_head_look_right_anim_data@@3UCO_PILOT_ANIM_DATA@@A DD 03f6147aer ; 0.88 ; co_pilot_anim_mode_head_look_right_anim_data
	DD	03f6b851fr			; 0.92
	DD	01H
?previous_n@?1??get_random_co_pilot_anim_mode@@YG?AW4CO_PILOT_ANIM_MODES@@XZ@4HA DD 0ffffffffH ; `get_random_co_pilot_anim_mode'::`2'::previous_n
_DATA	ENDS
; Function compile flags: /Odtp /ZI
; File c:\users\nhv90\projects\eech\aphavoc\source\gunships\cockpits\viper\vi_cpg.c
;	COMDAT ?update_co_pilot_head_tilt_animation@@YGXXZ
_TEXT	SEGMENT
tv139 = -84						; size = 4
tv93 = -84						; size = 4
tv85 = -84						; size = 4
tv140 = -80						; size = 4
tv94 = -80						; size = 4
tv77 = -80						; size = 4
_anim_frame$ = -12					; size = 4
_frame$ = -8						; size = 4
_co_pilot_head_tilt_angle$ = -4				; size = 4
?update_co_pilot_head_tilt_animation@@YGXXZ PROC	; update_co_pilot_head_tilt_animation, COMDAT

; 1171 : {

  00000	55		 push	 ebp
  00001	8b ec		 mov	 ebp, esp
  00003	83 ec 54	 sub	 esp, 84			; 00000054H
  00006	53		 push	 ebx
  00007	56		 push	 esi
  00008	57		 push	 edi

; 1172 : 	float
; 1173 : 		co_pilot_head_tilt_angle,
; 1174 : 		frame,
; 1175 : 		anim_frame;
; 1176 : 
; 1177 : 	ASSERT (co_pilot_anim_mode == CO_PILOT_ANIM_MODE_NONE);

  00009	83 3d 00 00 00
	00 00		 cmp	 DWORD PTR ?co_pilot_anim_mode@@3W4CO_PILOT_ANIM_MODES@@A, 0
  00010	74 18		 je	 SHORT $LN2@update_co_
  00012	a1 00 00 00 00	 mov	 eax, DWORD PTR ?__LINE__Var@?0??update_co_pilot_head_tilt_animation@@YGXXZ@4JA
  00017	83 c0 06	 add	 eax, 6
  0001a	50		 push	 eax
  0001b	68 00 00 00 00	 push	 OFFSET ??_C@_0EN@GDIPHLNA@c?3?2users?2nhv90?2projects?2eech?2ap@
  00020	68 00 00 00 00	 push	 OFFSET ??_C@_0CO@KBILJIGH@co_pilot_anim_mode?5?$DN?$DN?5CO_PILOT_@
  00025	e8 00 00 00 00	 call	 ?process_assert@@YGXPBD0H@Z ; process_assert
$LN2@update_co_:

; 1178 : 
; 1179 : 	if (co_pilot_anim_delay < 1.0)

  0002a	f3 0f 5a 05 00
	00 00 00	 cvtss2sd xmm0, DWORD PTR ?co_pilot_anim_delay@@3MA
  00032	f2 0f 10 0d 00
	00 00 00	 movsd	 xmm1, QWORD PTR __real@3ff0000000000000
  0003a	66 0f 2f c8	 comisd	 xmm1, xmm0
  0003e	76 0d		 jbe	 SHORT $LN3@update_co_

; 1180 : 	{
; 1181 : 		co_pilot_head_tilt_angle = 0.0;

  00040	0f 57 c0	 xorps	 xmm0, xmm0
  00043	f3 0f 11 45 fc	 movss	 DWORD PTR _co_pilot_head_tilt_angle$[ebp], xmm0

; 1182 : 	}
; 1183 : 	else

  00048	e9 88 00 00 00	 jmp	 $LN4@update_co_
$LN3@update_co_:

; 1184 : 	{
; 1185 : 		co_pilot_head_tilt_angle = get_local_entity_float_value (get_gunship_entity (), FLOAT_TYPE_ROLL);

  0004d	83 3d 00 00 00
	00 00		 cmp	 DWORD PTR ?gunship_entity@@3PAUENTITY@@A, 0 ; gunship_entity
  00054	74 0c		 je	 SHORT $LN6@update_co_
  00056	a1 00 00 00 00	 mov	 eax, DWORD PTR ?gunship_entity@@3PAUENTITY@@A ; gunship_entity
  0005b	8b 08		 mov	 ecx, DWORD PTR [eax]
  0005d	89 4d b0	 mov	 DWORD PTR tv77[ebp], ecx
  00060	eb 21		 jmp	 SHORT $LN7@update_co_
$LN6@update_co_:
  00062	8b 15 00 00 00
	00		 mov	 edx, DWORD PTR ?__LINE__Var@?0??update_co_pilot_head_tilt_animation@@YGXXZ@4JA
  00068	83 c2 0e	 add	 edx, 14			; 0000000eH
  0006b	52		 push	 edx
  0006c	68 00 00 00 00	 push	 OFFSET ??_C@_0EN@GDIPHLNA@c?3?2users?2nhv90?2projects?2eech?2ap@
  00071	a1 00 00 00 00	 mov	 eax, DWORD PTR ?null_entity_pointer_message@@3PBDB ; null_entity_pointer_message
  00076	50		 push	 eax
  00077	e8 00 00 00 00	 call	 ?process_assert@@YGXPBD0H@Z ; process_assert
  0007c	c7 45 b0 00 00
	00 00		 mov	 DWORD PTR tv77[ebp], 0
$LN7@update_co_:
  00083	b9 01 00 00 00	 mov	 ecx, 1
  00088	85 c9		 test	 ecx, ecx
  0008a	74 09		 je	 SHORT $LN8@update_co_
  0008c	c7 45 ac 71 00
	00 00		 mov	 DWORD PTR tv85[ebp], 113 ; 00000071H
  00093	eb 21		 jmp	 SHORT $LN9@update_co_
$LN8@update_co_:
  00095	8b 15 00 00 00
	00		 mov	 edx, DWORD PTR ?__LINE__Var@?0??update_co_pilot_head_tilt_animation@@YGXXZ@4JA
  0009b	83 c2 0e	 add	 edx, 14			; 0000000eH
  0009e	52		 push	 edx
  0009f	68 00 00 00 00	 push	 OFFSET ??_C@_0EN@GDIPHLNA@c?3?2users?2nhv90?2projects?2eech?2ap@
  000a4	a1 00 00 00 00	 mov	 eax, DWORD PTR ?overload_invalid_float_type_message@@3PBDB ; overload_invalid_float_type_message
  000a9	50		 push	 eax
  000aa	e8 00 00 00 00	 call	 ?process_assert@@YGXPBD0H@Z ; process_assert
  000af	c7 45 ac 00 00
	00 00		 mov	 DWORD PTR tv85[ebp], 0
$LN9@update_co_:
  000b6	6a 71		 push	 113			; 00000071H
  000b8	8b 0d 00 00 00
	00		 mov	 ecx, DWORD PTR ?gunship_entity@@3PAUENTITY@@A ; gunship_entity
  000be	51		 push	 ecx
  000bf	69 55 b0 bc 02
	00 00		 imul	 edx, DWORD PTR tv77[ebp], 700
  000c6	8b 45 ac	 mov	 eax, DWORD PTR tv85[ebp]
  000c9	8b 8c 82 00 00
	00 00		 mov	 ecx, DWORD PTR ?fn_get_local_entity_float_value@@3PAY0KP@P6GMPAUENTITY@@W4FLOAT_TYPES@@@ZA[edx+eax*4]
  000d0	ff d1		 call	 ecx
  000d2	d9 5d fc	 fstp	 DWORD PTR _co_pilot_head_tilt_angle$[ebp]
$LN4@update_co_:

; 1186 : 	}
; 1187 : 
; 1188 : 	co_pilot_head_tilt_angle = bound (co_pilot_head_tilt_angle, -MAX_ROLL, MAX_ROLL);

  000d5	f3 0f 10 05 00
	00 00 00	 movss	 xmm0, DWORD PTR __real@be32b8c2
  000dd	0f 2f 45 fc	 comiss	 xmm0, DWORD PTR _co_pilot_head_tilt_angle$[ebp]
  000e1	76 0f		 jbe	 SHORT $LN12@update_co_
  000e3	f3 0f 10 05 00
	00 00 00	 movss	 xmm0, DWORD PTR __real@be32b8c2
  000eb	f3 0f 11 45 b0	 movss	 DWORD PTR tv94[ebp], xmm0
  000f0	eb 31		 jmp	 SHORT $LN13@update_co_
$LN12@update_co_:
  000f2	f3 0f 10 45 fc	 movss	 xmm0, DWORD PTR _co_pilot_head_tilt_angle$[ebp]
  000f7	0f 2f 05 00 00
	00 00		 comiss	 xmm0, DWORD PTR __real@3e32b8c2
  000fe	76 0f		 jbe	 SHORT $LN10@update_co_
  00100	f3 0f 10 05 00
	00 00 00	 movss	 xmm0, DWORD PTR __real@3e32b8c2
  00108	f3 0f 11 45 ac	 movss	 DWORD PTR tv93[ebp], xmm0
  0010d	eb 0a		 jmp	 SHORT $LN11@update_co_
$LN10@update_co_:
  0010f	f3 0f 10 45 fc	 movss	 xmm0, DWORD PTR _co_pilot_head_tilt_angle$[ebp]
  00114	f3 0f 11 45 ac	 movss	 DWORD PTR tv93[ebp], xmm0
$LN11@update_co_:
  00119	f3 0f 10 45 ac	 movss	 xmm0, DWORD PTR tv93[ebp]
  0011e	f3 0f 11 45 b0	 movss	 DWORD PTR tv94[ebp], xmm0
$LN13@update_co_:
  00123	f3 0f 10 45 b0	 movss	 xmm0, DWORD PTR tv94[ebp]
  00128	f3 0f 11 45 fc	 movss	 DWORD PTR _co_pilot_head_tilt_angle$[ebp], xmm0

; 1189 : 
; 1190 : 	co_pilot_head_tilt_angle = (co_pilot_head_tilt_angle + previous_co_pilot_head_tilt_angle) * 0.5;

  0012d	f3 0f 10 45 fc	 movss	 xmm0, DWORD PTR _co_pilot_head_tilt_angle$[ebp]
  00132	f3 0f 58 05 00
	00 00 00	 addss	 xmm0, DWORD PTR ?previous_co_pilot_head_tilt_angle@@3MA
  0013a	f3 0f 5a c0	 cvtss2sd xmm0, xmm0
  0013e	f2 0f 59 05 00
	00 00 00	 mulsd	 xmm0, QWORD PTR __real@3fe0000000000000
  00146	f2 0f 5a c0	 cvtsd2ss xmm0, xmm0
  0014a	f3 0f 11 45 fc	 movss	 DWORD PTR _co_pilot_head_tilt_angle$[ebp], xmm0

; 1191 : 
; 1192 : 	frame = (co_pilot_head_tilt_angle * (0.5 / MAX_ROLL)) + 0.5;

  0014f	f3 0f 5a 45 fc	 cvtss2sd xmm0, DWORD PTR _co_pilot_head_tilt_angle$[ebp]
  00154	f2 0f 59 05 00
	00 00 00	 mulsd	 xmm0, QWORD PTR __real@4006eb1686b280e6
  0015c	f2 0f 58 05 00
	00 00 00	 addsd	 xmm0, QWORD PTR __real@3fe0000000000000
  00164	f2 0f 5a c0	 cvtsd2ss xmm0, xmm0
  00168	f3 0f 11 45 f8	 movss	 DWORD PTR _frame$[ebp], xmm0

; 1193 : 
; 1194 : 	anim_frame = ((CO_PILOT_HEAD_TILT_LEFT_TO_RIGHT_ANIM_END - CO_PILOT_HEAD_TILT_LEFT_TO_RIGHT_ANIM_START) * frame) + CO_PILOT_HEAD_TILT_LEFT_TO_RIGHT_ANIM_START;

  0016d	f3 0f 10 05 00
	00 00 00	 movss	 xmm0, DWORD PTR __real@3d23d70a
  00175	f3 0f 59 45 f8	 mulss	 xmm0, DWORD PTR _frame$[ebp]
  0017a	f3 0f 58 05 00
	00 00 00	 addss	 xmm0, DWORD PTR __real@00000000
  00182	f3 0f 11 45 f4	 movss	 DWORD PTR _anim_frame$[ebp], xmm0

; 1195 : 
; 1196 : 	anim_frame = bound (anim_frame, CO_PILOT_HEAD_TILT_LEFT_TO_RIGHT_ANIM_START, CO_PILOT_HEAD_TILT_LEFT_TO_RIGHT_ANIM_END);

  00187	0f 57 c0	 xorps	 xmm0, xmm0
  0018a	0f 2f 45 f4	 comiss	 xmm0, DWORD PTR _anim_frame$[ebp]
  0018e	76 0a		 jbe	 SHORT $LN16@update_co_
  00190	0f 57 c0	 xorps	 xmm0, xmm0
  00193	f3 0f 11 45 b0	 movss	 DWORD PTR tv140[ebp], xmm0
  00198	eb 31		 jmp	 SHORT $LN17@update_co_
$LN16@update_co_:
  0019a	f3 0f 10 45 f4	 movss	 xmm0, DWORD PTR _anim_frame$[ebp]
  0019f	0f 2f 05 00 00
	00 00		 comiss	 xmm0, DWORD PTR __real@3d23d70a
  001a6	76 0f		 jbe	 SHORT $LN14@update_co_
  001a8	f3 0f 10 05 00
	00 00 00	 movss	 xmm0, DWORD PTR __real@3d23d70a
  001b0	f3 0f 11 45 ac	 movss	 DWORD PTR tv139[ebp], xmm0
  001b5	eb 0a		 jmp	 SHORT $LN15@update_co_
$LN14@update_co_:
  001b7	f3 0f 10 45 f4	 movss	 xmm0, DWORD PTR _anim_frame$[ebp]
  001bc	f3 0f 11 45 ac	 movss	 DWORD PTR tv139[ebp], xmm0
$LN15@update_co_:
  001c1	f3 0f 10 45 ac	 movss	 xmm0, DWORD PTR tv139[ebp]
  001c6	f3 0f 11 45 b0	 movss	 DWORD PTR tv140[ebp], xmm0
$LN17@update_co_:
  001cb	f3 0f 10 45 b0	 movss	 xmm0, DWORD PTR tv140[ebp]
  001d0	f3 0f 11 45 f4	 movss	 DWORD PTR _anim_frame$[ebp], xmm0

; 1197 : 
; 1198 : 	animate_entity_simple_keyframed_sub_objects (virtual_cockpit_inst3d, OBJECT_3D_SUB_OBJECT_WSO_HEAD, anim_frame);

  001d5	51		 push	 ecx
  001d6	f3 0f 10 45 f4	 movss	 xmm0, DWORD PTR _anim_frame$[ebp]
  001db	f3 0f 11 04 24	 movss	 DWORD PTR [esp], xmm0
  001e0	68 ad 00 00 00	 push	 173			; 000000adH
  001e5	a1 00 00 00 00	 mov	 eax, DWORD PTR ?virtual_cockpit_inst3d@@3PAUOBJECT_3D_INSTANCE@@A ; virtual_cockpit_inst3d
  001ea	50		 push	 eax
  001eb	e8 00 00 00 00	 call	 ?animate_entity_simple_keyframed_sub_objects@@YGXPAUOBJECT_3D_INSTANCE@@HM@Z ; animate_entity_simple_keyframed_sub_objects

; 1199 : 
; 1200 : 	previous_co_pilot_head_tilt_angle = co_pilot_head_tilt_angle;

  001f0	f3 0f 10 45 fc	 movss	 xmm0, DWORD PTR _co_pilot_head_tilt_angle$[ebp]
  001f5	f3 0f 11 05 00
	00 00 00	 movss	 DWORD PTR ?previous_co_pilot_head_tilt_angle@@3MA, xmm0

; 1201 : }

  001fd	5f		 pop	 edi
  001fe	5e		 pop	 esi
  001ff	5b		 pop	 ebx
  00200	8b e5		 mov	 esp, ebp
  00202	5d		 pop	 ebp
  00203	c3		 ret	 0
?update_co_pilot_head_tilt_animation@@YGXXZ ENDP	; update_co_pilot_head_tilt_animation
_TEXT	ENDS
; Function compile flags: /Odtp /ZI
; File c:\users\nhv90\projects\eech\aphavoc\source\gunships\cockpits\viper\vi_cpg.c
;	COMDAT ?update_co_pilot_animation@@YGXXZ
_TEXT	SEGMENT
tv67 = -72						; size = 4
_anim_data$ = -4					; size = 4
?update_co_pilot_animation@@YGXXZ PROC			; update_co_pilot_animation, COMDAT

; 910  : {

  00000	55		 push	 ebp
  00001	8b ec		 mov	 ebp, esp
  00003	83 ec 48	 sub	 esp, 72			; 00000048H
  00006	53		 push	 ebx
  00007	56		 push	 esi
  00008	57		 push	 edi

; 911  : 	co_pilot_anim_data
; 912  : 		*anim_data;
; 913  : 
; 914  : 	//
; 915  : 	// cancel any animation while the player is the co-pilot (to stop the head moving around)
; 916  : 	//
; 917  : 
; 918  : 	if (get_co_pilot_viewpoint_virtual_cockpit ())

  00009	e8 00 00 00 00	 call	 ?get_co_pilot_viewpoint_virtual_cockpit@@YGHXZ ; get_co_pilot_viewpoint_virtual_cockpit
  0000e	85 c0		 test	 eax, eax
  00010	74 3b		 je	 SHORT $LN4@update_co_

; 919  : 	{
; 920  : 		co_pilot_anim_mode = CO_PILOT_ANIM_MODE_NONE;

  00012	c7 05 00 00 00
	00 00 00 00 00	 mov	 DWORD PTR ?co_pilot_anim_mode@@3W4CO_PILOT_ANIM_MODES@@A, 0

; 921  : 
; 922  : 		co_pilot_anim_frame = 0.0;

  0001c	0f 57 c0	 xorps	 xmm0, xmm0
  0001f	f3 0f 11 05 00
	00 00 00	 movss	 DWORD PTR ?co_pilot_anim_frame@@3MA, xmm0

; 923  : 
; 924  : 		co_pilot_anim_delay = get_reset_co_pilot_anim_delay ();

  00027	e8 00 00 00 00	 call	 ?get_reset_co_pilot_anim_delay@@YGMXZ ; get_reset_co_pilot_anim_delay
  0002c	d9 1d 00 00 00
	00		 fstp	 DWORD PTR ?co_pilot_anim_delay@@3MA

; 925  : 
; 926  : 		co_pilot_head_anim_frame = NO_CO_PILOT_HEAD_ANIMATION;

  00032	f3 0f 10 05 00
	00 00 00	 movss	 xmm0, DWORD PTR __real@bf800000
  0003a	f3 0f 11 05 00
	00 00 00	 movss	 DWORD PTR ?co_pilot_head_anim_frame@@3MA, xmm0

; 927  : 
; 928  : 		co_pilot_head_anim_pause = 0.0;

  00042	0f 57 c0	 xorps	 xmm0, xmm0
  00045	f3 0f 11 05 00
	00 00 00	 movss	 DWORD PTR ?co_pilot_head_anim_pause@@3MA, xmm0
$LN4@update_co_:

; 929  : 	}
; 930  : 
; 931  : 	switch (co_pilot_anim_mode)

  0004d	a1 00 00 00 00	 mov	 eax, DWORD PTR ?co_pilot_anim_mode@@3W4CO_PILOT_ANIM_MODES@@A
  00052	89 45 b8	 mov	 DWORD PTR tv67[ebp], eax
  00055	83 7d b8 0f	 cmp	 DWORD PTR tv67[ebp], 15	; 0000000fH
  00059	0f 87 92 03 00
	00		 ja	 $LN2@update_co_
  0005f	8b 4d b8	 mov	 ecx, DWORD PTR tv67[ebp]
  00062	ff 24 8d 00 00
	00 00		 jmp	 DWORD PTR $LN31@update_co_[ecx*4]
$LN5@update_co_:

; 932  : 	{
; 933  : 		////////////////////////////////////////
; 934  : 		case CO_PILOT_ANIM_MODE_NONE:
; 935  : 		////////////////////////////////////////
; 936  : 		{
; 937  : 			anim_data = &co_pilot_anim_mode_none_anim_data;

  00069	c7 45 fc 00 00
	00 00		 mov	 DWORD PTR _anim_data$[ebp], OFFSET ?co_pilot_anim_mode_none_anim_data@@3UCO_PILOT_ANIM_DATA@@A

; 938  : 
; 939  : 			co_pilot_anim_delay -= get_delta_time ();

  00070	f3 0f 10 05 00
	00 00 00	 movss	 xmm0, DWORD PTR ?co_pilot_anim_delay@@3MA
  00078	f3 0f 5c 05 00
	00 00 00	 subss	 xmm0, DWORD PTR ?system_delta_time@@3MA
  00080	f3 0f 11 05 00
	00 00 00	 movss	 DWORD PTR ?co_pilot_anim_delay@@3MA, xmm0

; 940  : 
; 941  : 			if (co_pilot_anim_delay <= 0.0)

  00088	f3 0f 5a 05 00
	00 00 00	 cvtss2sd xmm0, DWORD PTR ?co_pilot_anim_delay@@3MA
  00090	0f 57 c9	 xorps	 xmm1, xmm1
  00093	66 0f 2f c8	 comisd	 xmm1, xmm0
  00097	72 3d		 jb	 SHORT $LN6@update_co_

; 942  : 			{
; 943  : 				co_pilot_anim_mode = get_random_co_pilot_anim_mode ();

  00099	e8 00 00 00 00	 call	 ?get_random_co_pilot_anim_mode@@YG?AW4CO_PILOT_ANIM_MODES@@XZ ; get_random_co_pilot_anim_mode
  0009e	a3 00 00 00 00	 mov	 DWORD PTR ?co_pilot_anim_mode@@3W4CO_PILOT_ANIM_MODES@@A, eax

; 944  : 
; 945  : 				co_pilot_anim_frame = 0.0;

  000a3	0f 57 c0	 xorps	 xmm0, xmm0
  000a6	f3 0f 11 05 00
	00 00 00	 movss	 DWORD PTR ?co_pilot_anim_frame@@3MA, xmm0

; 946  : 
; 947  : 				co_pilot_anim_delay = get_reset_co_pilot_anim_delay ();

  000ae	e8 00 00 00 00	 call	 ?get_reset_co_pilot_anim_delay@@YGMXZ ; get_reset_co_pilot_anim_delay
  000b3	d9 1d 00 00 00
	00		 fstp	 DWORD PTR ?co_pilot_anim_delay@@3MA

; 948  : 
; 949  : 				co_pilot_head_anim_frame = NO_CO_PILOT_HEAD_ANIMATION;

  000b9	f3 0f 10 05 00
	00 00 00	 movss	 xmm0, DWORD PTR __real@bf800000
  000c1	f3 0f 11 05 00
	00 00 00	 movss	 DWORD PTR ?co_pilot_head_anim_frame@@3MA, xmm0

; 950  : 
; 951  : 				co_pilot_head_anim_pause = get_reset_co_pilot_head_anim_pause ();

  000c9	e8 00 00 00 00	 call	 ?get_reset_co_pilot_head_anim_pause@@YGMXZ ; get_reset_co_pilot_head_anim_pause
  000ce	d9 1d 00 00 00
	00		 fstp	 DWORD PTR ?co_pilot_head_anim_pause@@3MA

; 952  : 			}
; 953  : 			else

  000d4	eb 0b		 jmp	 SHORT $LN7@update_co_
$LN6@update_co_:

; 954  : 			{
; 955  : 				co_pilot_anim_frame = 0.0;

  000d6	0f 57 c0	 xorps	 xmm0, xmm0
  000d9	f3 0f 11 05 00
	00 00 00	 movss	 DWORD PTR ?co_pilot_anim_frame@@3MA, xmm0
$LN7@update_co_:

; 956  : 			}
; 957  : 
; 958  : 			break;

  000e1	e9 0b 03 00 00	 jmp	 $LN2@update_co_
$LN8@update_co_:

; 959  : 		}
; 960  : 		////////////////////////////////////////
; 961  : 		case CO_PILOT_ANIM_MODE_RIGHT_HAND_TO_RH_MFD_BUTTON:
; 962  : 		////////////////////////////////////////
; 963  : 		{
; 964  : 			anim_data = &co_pilot_anim_mode_right_hand_to_rh_mfd_button_anim_data;

  000e6	c7 45 fc 00 00
	00 00		 mov	 DWORD PTR _anim_data$[ebp], OFFSET ?co_pilot_anim_mode_right_hand_to_rh_mfd_button_anim_data@@3UCO_PILOT_ANIM_DATA@@A

; 965  : 
; 966  : 			co_pilot_anim_frame += get_delta_time () * (1.0 / 3.0);

  000ed	f3 0f 5a 05 00
	00 00 00	 cvtss2sd xmm0, DWORD PTR ?system_delta_time@@3MA
  000f5	f2 0f 59 05 00
	00 00 00	 mulsd	 xmm0, QWORD PTR __real@3fd5555555555555
  000fd	f3 0f 5a 0d 00
	00 00 00	 cvtss2sd xmm1, DWORD PTR ?co_pilot_anim_frame@@3MA
  00105	f2 0f 58 c8	 addsd	 xmm1, xmm0
  00109	f2 0f 5a c1	 cvtsd2ss xmm0, xmm1
  0010d	f3 0f 11 05 00
	00 00 00	 movss	 DWORD PTR ?co_pilot_anim_frame@@3MA, xmm0

; 967  : 
; 968  : 			if (co_pilot_anim_frame >= 1.0)

  00115	f3 0f 5a 05 00
	00 00 00	 cvtss2sd xmm0, DWORD PTR ?co_pilot_anim_frame@@3MA
  0011d	66 0f 2f 05 00
	00 00 00	 comisd	 xmm0, QWORD PTR __real@3ff0000000000000
  00125	72 1a		 jb	 SHORT $LN9@update_co_

; 969  : 			{
; 970  : 				co_pilot_anim_frame = 1.0;

  00127	f3 0f 10 05 00
	00 00 00	 movss	 xmm0, DWORD PTR __real@3f800000
  0012f	f3 0f 11 05 00
	00 00 00	 movss	 DWORD PTR ?co_pilot_anim_frame@@3MA, xmm0

; 971  : 
; 972  : 				co_pilot_anim_mode = CO_PILOT_ANIM_MODE_NONE;

  00137	c7 05 00 00 00
	00 00 00 00 00	 mov	 DWORD PTR ?co_pilot_anim_mode@@3W4CO_PILOT_ANIM_MODES@@A, 0
$LN9@update_co_:

; 973  : 			}
; 974  : 
; 975  : 			break;

  00141	e9 ab 02 00 00	 jmp	 $LN2@update_co_
$LN10@update_co_:

; 976  : 		}
; 977  : 		////////////////////////////////////////
; 978  : 		case CO_PILOT_ANIM_MODE_LEFT_HAND_TO_LH_MFD_BUTTON:
; 979  : 		////////////////////////////////////////
; 980  : 		{
; 981  : 			anim_data = &co_pilot_anim_mode_left_hand_to_lh_mfd_button_anim_data;

  00146	c7 45 fc 00 00
	00 00		 mov	 DWORD PTR _anim_data$[ebp], OFFSET ?co_pilot_anim_mode_left_hand_to_lh_mfd_button_anim_data@@3UCO_PILOT_ANIM_DATA@@A

; 982  : 
; 983  : 			co_pilot_anim_frame += get_delta_time () * (1.0 / 2.0);

  0014d	f3 0f 5a 05 00
	00 00 00	 cvtss2sd xmm0, DWORD PTR ?system_delta_time@@3MA
  00155	f2 0f 59 05 00
	00 00 00	 mulsd	 xmm0, QWORD PTR __real@3fe0000000000000
  0015d	f3 0f 5a 0d 00
	00 00 00	 cvtss2sd xmm1, DWORD PTR ?co_pilot_anim_frame@@3MA
  00165	f2 0f 58 c8	 addsd	 xmm1, xmm0
  00169	f2 0f 5a c1	 cvtsd2ss xmm0, xmm1
  0016d	f3 0f 11 05 00
	00 00 00	 movss	 DWORD PTR ?co_pilot_anim_frame@@3MA, xmm0

; 984  : 
; 985  : 			if (co_pilot_anim_frame >= 1.0)

  00175	f3 0f 5a 05 00
	00 00 00	 cvtss2sd xmm0, DWORD PTR ?co_pilot_anim_frame@@3MA
  0017d	66 0f 2f 05 00
	00 00 00	 comisd	 xmm0, QWORD PTR __real@3ff0000000000000
  00185	72 1a		 jb	 SHORT $LN11@update_co_

; 986  : 			{
; 987  : 				co_pilot_anim_frame = 1.0;

  00187	f3 0f 10 05 00
	00 00 00	 movss	 xmm0, DWORD PTR __real@3f800000
  0018f	f3 0f 11 05 00
	00 00 00	 movss	 DWORD PTR ?co_pilot_anim_frame@@3MA, xmm0

; 988  : 
; 989  : 				co_pilot_anim_mode = CO_PILOT_ANIM_MODE_NONE;

  00197	c7 05 00 00 00
	00 00 00 00 00	 mov	 DWORD PTR ?co_pilot_anim_mode@@3W4CO_PILOT_ANIM_MODES@@A, 0
$LN11@update_co_:

; 990  : 			}
; 991  : 
; 992  : 			break;

  001a1	e9 4b 02 00 00	 jmp	 $LN2@update_co_
$LN12@update_co_:

; 993  : 		}
; 994  : 		////////////////////////////////////////
; 995  : 		case CO_PILOT_ANIM_MODE_RIGHT_HAND_TO_RH_CONSOLE:
; 996  : 		////////////////////////////////////////
; 997  : 		{
; 998  : 			anim_data = &co_pilot_anim_mode_right_hand_to_rh_console_anim_data;

  001a6	c7 45 fc 00 00
	00 00		 mov	 DWORD PTR _anim_data$[ebp], OFFSET ?co_pilot_anim_mode_right_hand_to_rh_console_anim_data@@3UCO_PILOT_ANIM_DATA@@A

; 999  : 
; 1000 : 			co_pilot_anim_frame += get_delta_time () * (1.0 / 3.5);

  001ad	f3 0f 5a 05 00
	00 00 00	 cvtss2sd xmm0, DWORD PTR ?system_delta_time@@3MA
  001b5	f2 0f 59 05 00
	00 00 00	 mulsd	 xmm0, QWORD PTR __real@3fd2492492492492
  001bd	f3 0f 5a 0d 00
	00 00 00	 cvtss2sd xmm1, DWORD PTR ?co_pilot_anim_frame@@3MA
  001c5	f2 0f 58 c8	 addsd	 xmm1, xmm0
  001c9	f2 0f 5a c1	 cvtsd2ss xmm0, xmm1
  001cd	f3 0f 11 05 00
	00 00 00	 movss	 DWORD PTR ?co_pilot_anim_frame@@3MA, xmm0

; 1001 : 
; 1002 : 			if (co_pilot_anim_frame >= 1.0)

  001d5	f3 0f 5a 05 00
	00 00 00	 cvtss2sd xmm0, DWORD PTR ?co_pilot_anim_frame@@3MA
  001dd	66 0f 2f 05 00
	00 00 00	 comisd	 xmm0, QWORD PTR __real@3ff0000000000000
  001e5	72 1a		 jb	 SHORT $LN13@update_co_

; 1003 : 			{
; 1004 : 				co_pilot_anim_frame = 1.0;

  001e7	f3 0f 10 05 00
	00 00 00	 movss	 xmm0, DWORD PTR __real@3f800000
  001ef	f3 0f 11 05 00
	00 00 00	 movss	 DWORD PTR ?co_pilot_anim_frame@@3MA, xmm0

; 1005 : 
; 1006 : 				co_pilot_anim_mode = CO_PILOT_ANIM_MODE_NONE;

  001f7	c7 05 00 00 00
	00 00 00 00 00	 mov	 DWORD PTR ?co_pilot_anim_mode@@3W4CO_PILOT_ANIM_MODES@@A, 0
$LN13@update_co_:

; 1007 : 			}
; 1008 : 
; 1009 : 			break;

  00201	e9 eb 01 00 00	 jmp	 $LN2@update_co_
$LN14@update_co_:

; 1010 : 		}
; 1011 : 		////////////////////////////////////////
; 1012 : 		case CO_PILOT_ANIM_MODE_LEFT_HAND_TO_LH_CONSOLE:
; 1013 : 		////////////////////////////////////////
; 1014 : 		{
; 1015 : 			anim_data = &co_pilot_anim_mode_left_hand_to_lh_console_anim_data;

  00206	c7 45 fc 00 00
	00 00		 mov	 DWORD PTR _anim_data$[ebp], OFFSET ?co_pilot_anim_mode_left_hand_to_lh_console_anim_data@@3UCO_PILOT_ANIM_DATA@@A

; 1016 : 
; 1017 : 			co_pilot_anim_frame += get_delta_time () * (1.0 / 3.0);

  0020d	f3 0f 5a 05 00
	00 00 00	 cvtss2sd xmm0, DWORD PTR ?system_delta_time@@3MA
  00215	f2 0f 59 05 00
	00 00 00	 mulsd	 xmm0, QWORD PTR __real@3fd5555555555555
  0021d	f3 0f 5a 0d 00
	00 00 00	 cvtss2sd xmm1, DWORD PTR ?co_pilot_anim_frame@@3MA
  00225	f2 0f 58 c8	 addsd	 xmm1, xmm0
  00229	f2 0f 5a c1	 cvtsd2ss xmm0, xmm1
  0022d	f3 0f 11 05 00
	00 00 00	 movss	 DWORD PTR ?co_pilot_anim_frame@@3MA, xmm0

; 1018 : 
; 1019 : 			if (co_pilot_anim_frame >= 1.0)

  00235	f3 0f 5a 05 00
	00 00 00	 cvtss2sd xmm0, DWORD PTR ?co_pilot_anim_frame@@3MA
  0023d	66 0f 2f 05 00
	00 00 00	 comisd	 xmm0, QWORD PTR __real@3ff0000000000000
  00245	72 1a		 jb	 SHORT $LN15@update_co_

; 1020 : 			{
; 1021 : 				co_pilot_anim_frame = 1.0;

  00247	f3 0f 10 05 00
	00 00 00	 movss	 xmm0, DWORD PTR __real@3f800000
  0024f	f3 0f 11 05 00
	00 00 00	 movss	 DWORD PTR ?co_pilot_anim_frame@@3MA, xmm0

; 1022 : 
; 1023 : 				co_pilot_anim_mode = CO_PILOT_ANIM_MODE_NONE;

  00257	c7 05 00 00 00
	00 00 00 00 00	 mov	 DWORD PTR ?co_pilot_anim_mode@@3W4CO_PILOT_ANIM_MODES@@A, 0
$LN15@update_co_:

; 1024 : 			}
; 1025 : 
; 1026 : 			break;

  00261	e9 8b 01 00 00	 jmp	 $LN2@update_co_
$LN16@update_co_:

; 1027 : 		}
; 1028 : 		////////////////////////////////////////
; 1029 : 		case CO_PILOT_ANIM_MODE_RIGHT_HAND_TO_CALCULATOR:
; 1030 : 		////////////////////////////////////////
; 1031 : 		{
; 1032 : 			anim_data = &co_pilot_anim_mode_right_hand_to_calculator_anim_data;

  00266	c7 45 fc 00 00
	00 00		 mov	 DWORD PTR _anim_data$[ebp], OFFSET ?co_pilot_anim_mode_right_hand_to_calculator_anim_data@@3UCO_PILOT_ANIM_DATA@@A

; 1033 : 
; 1034 : 			co_pilot_anim_frame += get_delta_time () * (1.0 / 2.5);

  0026d	f3 0f 5a 05 00
	00 00 00	 cvtss2sd xmm0, DWORD PTR ?system_delta_time@@3MA
  00275	f2 0f 59 05 00
	00 00 00	 mulsd	 xmm0, QWORD PTR __real@3fd999999999999a
  0027d	f3 0f 5a 0d 00
	00 00 00	 cvtss2sd xmm1, DWORD PTR ?co_pilot_anim_frame@@3MA
  00285	f2 0f 58 c8	 addsd	 xmm1, xmm0
  00289	f2 0f 5a c1	 cvtsd2ss xmm0, xmm1
  0028d	f3 0f 11 05 00
	00 00 00	 movss	 DWORD PTR ?co_pilot_anim_frame@@3MA, xmm0

; 1035 : 
; 1036 : 			if (co_pilot_anim_frame >= 1.0)

  00295	f3 0f 5a 05 00
	00 00 00	 cvtss2sd xmm0, DWORD PTR ?co_pilot_anim_frame@@3MA
  0029d	66 0f 2f 05 00
	00 00 00	 comisd	 xmm0, QWORD PTR __real@3ff0000000000000
  002a5	72 1a		 jb	 SHORT $LN17@update_co_

; 1037 : 			{
; 1038 : 				co_pilot_anim_frame = 1.0;

  002a7	f3 0f 10 05 00
	00 00 00	 movss	 xmm0, DWORD PTR __real@3f800000
  002af	f3 0f 11 05 00
	00 00 00	 movss	 DWORD PTR ?co_pilot_anim_frame@@3MA, xmm0

; 1039 : 
; 1040 : 				co_pilot_anim_mode = CO_PILOT_ANIM_MODE_NONE;

  002b7	c7 05 00 00 00
	00 00 00 00 00	 mov	 DWORD PTR ?co_pilot_anim_mode@@3W4CO_PILOT_ANIM_MODES@@A, 0
$LN17@update_co_:

; 1041 : 			}
; 1042 : 
; 1043 : 			break;

  002c1	e9 2b 01 00 00	 jmp	 $LN2@update_co_
$LN18@update_co_:

; 1044 : 		}
; 1045 : 		////////////////////////////////////////
; 1046 : 		case CO_PILOT_ANIM_MODE_LEFT_HAND_TO_RH_SMALL_MFD_BUTTON:
; 1047 : 		////////////////////////////////////////
; 1048 : 		{
; 1049 : 			anim_data = &co_pilot_anim_mode_left_hand_to_rh_small_mfd_button_anim_data;

  002c6	c7 45 fc 00 00
	00 00		 mov	 DWORD PTR _anim_data$[ebp], OFFSET ?co_pilot_anim_mode_left_hand_to_rh_small_mfd_button_anim_data@@3UCO_PILOT_ANIM_DATA@@A

; 1050 : 
; 1051 : 			co_pilot_anim_frame += get_delta_time () * (1.0 / 3.0);

  002cd	f3 0f 5a 05 00
	00 00 00	 cvtss2sd xmm0, DWORD PTR ?system_delta_time@@3MA
  002d5	f2 0f 59 05 00
	00 00 00	 mulsd	 xmm0, QWORD PTR __real@3fd5555555555555
  002dd	f3 0f 5a 0d 00
	00 00 00	 cvtss2sd xmm1, DWORD PTR ?co_pilot_anim_frame@@3MA
  002e5	f2 0f 58 c8	 addsd	 xmm1, xmm0
  002e9	f2 0f 5a c1	 cvtsd2ss xmm0, xmm1
  002ed	f3 0f 11 05 00
	00 00 00	 movss	 DWORD PTR ?co_pilot_anim_frame@@3MA, xmm0

; 1052 : 
; 1053 : 			if (co_pilot_anim_frame >= 1.0)

  002f5	f3 0f 5a 05 00
	00 00 00	 cvtss2sd xmm0, DWORD PTR ?co_pilot_anim_frame@@3MA
  002fd	66 0f 2f 05 00
	00 00 00	 comisd	 xmm0, QWORD PTR __real@3ff0000000000000
  00305	72 1a		 jb	 SHORT $LN19@update_co_

; 1054 : 			{
; 1055 : 				co_pilot_anim_frame = 1.0;

  00307	f3 0f 10 05 00
	00 00 00	 movss	 xmm0, DWORD PTR __real@3f800000
  0030f	f3 0f 11 05 00
	00 00 00	 movss	 DWORD PTR ?co_pilot_anim_frame@@3MA, xmm0

; 1056 : 
; 1057 : 				co_pilot_anim_mode = CO_PILOT_ANIM_MODE_NONE;

  00317	c7 05 00 00 00
	00 00 00 00 00	 mov	 DWORD PTR ?co_pilot_anim_mode@@3W4CO_PILOT_ANIM_MODES@@A, 0
$LN19@update_co_:

; 1058 : 			}
; 1059 : 
; 1060 : 			break;

  00321	e9 cb 00 00 00	 jmp	 $LN2@update_co_
$LN20@update_co_:

; 1061 : 		}
; 1062 : 		////////////////////////////////////////
; 1063 : 		case CO_PILOT_ANIM_MODE_LEFT_HAND_TO_LH_MFD_TOP_BUTTON:
; 1064 : 		////////////////////////////////////////
; 1065 : 		{
; 1066 : 			anim_data = &co_pilot_anim_mode_left_hand_to_lh_mfd_top_button_anim_data;

  00326	c7 45 fc 00 00
	00 00		 mov	 DWORD PTR _anim_data$[ebp], OFFSET ?co_pilot_anim_mode_left_hand_to_lh_mfd_top_button_anim_data@@3UCO_PILOT_ANIM_DATA@@A

; 1067 : 
; 1068 : 			co_pilot_anim_frame += get_delta_time () * (1.0 / 3.0);

  0032d	f3 0f 5a 05 00
	00 00 00	 cvtss2sd xmm0, DWORD PTR ?system_delta_time@@3MA
  00335	f2 0f 59 05 00
	00 00 00	 mulsd	 xmm0, QWORD PTR __real@3fd5555555555555
  0033d	f3 0f 5a 0d 00
	00 00 00	 cvtss2sd xmm1, DWORD PTR ?co_pilot_anim_frame@@3MA
  00345	f2 0f 58 c8	 addsd	 xmm1, xmm0
  00349	f2 0f 5a c1	 cvtsd2ss xmm0, xmm1
  0034d	f3 0f 11 05 00
	00 00 00	 movss	 DWORD PTR ?co_pilot_anim_frame@@3MA, xmm0

; 1069 : 
; 1070 : 			if (co_pilot_anim_frame >= 1.0)

  00355	f3 0f 5a 05 00
	00 00 00	 cvtss2sd xmm0, DWORD PTR ?co_pilot_anim_frame@@3MA
  0035d	66 0f 2f 05 00
	00 00 00	 comisd	 xmm0, QWORD PTR __real@3ff0000000000000
  00365	72 1a		 jb	 SHORT $LN21@update_co_

; 1071 : 			{
; 1072 : 				co_pilot_anim_frame = 1.0;

  00367	f3 0f 10 05 00
	00 00 00	 movss	 xmm0, DWORD PTR __real@3f800000
  0036f	f3 0f 11 05 00
	00 00 00	 movss	 DWORD PTR ?co_pilot_anim_frame@@3MA, xmm0

; 1073 : 
; 1074 : 				co_pilot_anim_mode = CO_PILOT_ANIM_MODE_NONE;

  00377	c7 05 00 00 00
	00 00 00 00 00	 mov	 DWORD PTR ?co_pilot_anim_mode@@3W4CO_PILOT_ANIM_MODES@@A, 0
$LN21@update_co_:

; 1075 : 			}
; 1076 : 
; 1077 : 			break;

  00381	eb 6e		 jmp	 SHORT $LN2@update_co_
$LN22@update_co_:

; 1078 : 		}
; 1079 : 		////////////////////////////////////////
; 1080 : 		case CO_PILOT_ANIM_MODE_HEAD_LOOK_DOWN:
; 1081 : 		////////////////////////////////////////
; 1082 : 		{
; 1083 : 			anim_data = &co_pilot_anim_mode_head_look_down_anim_data;

  00383	c7 45 fc 00 00
	00 00		 mov	 DWORD PTR _anim_data$[ebp], OFFSET ?co_pilot_anim_mode_head_look_down_anim_data@@3UCO_PILOT_ANIM_DATA@@A

; 1084 : 
; 1085 : 			update_co_pilot_head_animation ();

  0038a	e8 00 00 00 00	 call	 ?update_co_pilot_head_animation@@YGXXZ ; update_co_pilot_head_animation

; 1086 : 
; 1087 : 			break;

  0038f	eb 60		 jmp	 SHORT $LN2@update_co_
$LN23@update_co_:

; 1088 : 		}
; 1089 : 		////////////////////////////////////////
; 1090 : 		case CO_PILOT_ANIM_MODE_HEAD_LOOK_DOWN_LEFT:
; 1091 : 		////////////////////////////////////////
; 1092 : 		{
; 1093 : 			anim_data = &co_pilot_anim_mode_head_look_down_left_anim_data;

  00391	c7 45 fc 00 00
	00 00		 mov	 DWORD PTR _anim_data$[ebp], OFFSET ?co_pilot_anim_mode_head_look_down_left_anim_data@@3UCO_PILOT_ANIM_DATA@@A

; 1094 : 
; 1095 : 			update_co_pilot_head_animation ();

  00398	e8 00 00 00 00	 call	 ?update_co_pilot_head_animation@@YGXXZ ; update_co_pilot_head_animation

; 1096 : 
; 1097 : 			break;

  0039d	eb 52		 jmp	 SHORT $LN2@update_co_
$LN24@update_co_:

; 1098 : 		}
; 1099 : 		////////////////////////////////////////
; 1100 : 		case CO_PILOT_ANIM_MODE_HEAD_LOOK_DOWN_RIGHT:
; 1101 : 		////////////////////////////////////////
; 1102 : 		{
; 1103 : 			anim_data = &co_pilot_anim_mode_head_look_down_right_anim_data;

  0039f	c7 45 fc 00 00
	00 00		 mov	 DWORD PTR _anim_data$[ebp], OFFSET ?co_pilot_anim_mode_head_look_down_right_anim_data@@3UCO_PILOT_ANIM_DATA@@A

; 1104 : 
; 1105 : 			update_co_pilot_head_animation ();

  003a6	e8 00 00 00 00	 call	 ?update_co_pilot_head_animation@@YGXXZ ; update_co_pilot_head_animation

; 1106 : 
; 1107 : 			break;

  003ab	eb 44		 jmp	 SHORT $LN2@update_co_
$LN25@update_co_:

; 1108 : 		}
; 1109 : 		////////////////////////////////////////
; 1110 : 		case CO_PILOT_ANIM_MODE_HEAD_LOOK_UP:
; 1111 : 		////////////////////////////////////////
; 1112 : 		{
; 1113 : 			anim_data = &co_pilot_anim_mode_head_look_up_anim_data;

  003ad	c7 45 fc 00 00
	00 00		 mov	 DWORD PTR _anim_data$[ebp], OFFSET ?co_pilot_anim_mode_head_look_up_anim_data@@3UCO_PILOT_ANIM_DATA@@A

; 1114 : 
; 1115 : 			update_co_pilot_head_animation ();

  003b4	e8 00 00 00 00	 call	 ?update_co_pilot_head_animation@@YGXXZ ; update_co_pilot_head_animation

; 1116 : 
; 1117 : 			break;

  003b9	eb 36		 jmp	 SHORT $LN2@update_co_
$LN26@update_co_:

; 1118 : 		}
; 1119 : 		////////////////////////////////////////
; 1120 : 		case CO_PILOT_ANIM_MODE_HEAD_LOOK_UP_LEFT:
; 1121 : 		////////////////////////////////////////
; 1122 : 		{
; 1123 : 			anim_data = &co_pilot_anim_mode_head_look_up_left_anim_data;

  003bb	c7 45 fc 00 00
	00 00		 mov	 DWORD PTR _anim_data$[ebp], OFFSET ?co_pilot_anim_mode_head_look_up_left_anim_data@@3UCO_PILOT_ANIM_DATA@@A

; 1124 : 
; 1125 : 			update_co_pilot_head_animation ();

  003c2	e8 00 00 00 00	 call	 ?update_co_pilot_head_animation@@YGXXZ ; update_co_pilot_head_animation

; 1126 : 
; 1127 : 			break;

  003c7	eb 28		 jmp	 SHORT $LN2@update_co_
$LN27@update_co_:

; 1128 : 		}
; 1129 : 		////////////////////////////////////////
; 1130 : 		case CO_PILOT_ANIM_MODE_HEAD_LOOK_UP_RIGHT:
; 1131 : 		////////////////////////////////////////
; 1132 : 		{
; 1133 : 			anim_data = &co_pilot_anim_mode_head_look_up_right_anim_data;

  003c9	c7 45 fc 00 00
	00 00		 mov	 DWORD PTR _anim_data$[ebp], OFFSET ?co_pilot_anim_mode_head_look_up_right_anim_data@@3UCO_PILOT_ANIM_DATA@@A

; 1134 : 
; 1135 : 			update_co_pilot_head_animation ();

  003d0	e8 00 00 00 00	 call	 ?update_co_pilot_head_animation@@YGXXZ ; update_co_pilot_head_animation

; 1136 : 
; 1137 : 			break;

  003d5	eb 1a		 jmp	 SHORT $LN2@update_co_
$LN28@update_co_:

; 1138 : 		}
; 1139 : 		////////////////////////////////////////
; 1140 : 		case CO_PILOT_ANIM_MODE_HEAD_LOOK_LEFT:
; 1141 : 		////////////////////////////////////////
; 1142 : 		{
; 1143 : 			anim_data = &co_pilot_anim_mode_head_look_left_anim_data;

  003d7	c7 45 fc 00 00
	00 00		 mov	 DWORD PTR _anim_data$[ebp], OFFSET ?co_pilot_anim_mode_head_look_left_anim_data@@3UCO_PILOT_ANIM_DATA@@A

; 1144 : 
; 1145 : 			update_co_pilot_head_animation ();

  003de	e8 00 00 00 00	 call	 ?update_co_pilot_head_animation@@YGXXZ ; update_co_pilot_head_animation

; 1146 : 
; 1147 : 			break;

  003e3	eb 0c		 jmp	 SHORT $LN2@update_co_
$LN29@update_co_:

; 1148 : 		}
; 1149 : 		////////////////////////////////////////
; 1150 : 		case CO_PILOT_ANIM_MODE_HEAD_LOOK_RIGHT:
; 1151 : 		////////////////////////////////////////
; 1152 : 		{
; 1153 : 			anim_data = &co_pilot_anim_mode_head_look_right_anim_data;

  003e5	c7 45 fc 00 00
	00 00		 mov	 DWORD PTR _anim_data$[ebp], OFFSET ?co_pilot_anim_mode_head_look_right_anim_data@@3UCO_PILOT_ANIM_DATA@@A

; 1154 : 
; 1155 : 			update_co_pilot_head_animation ();

  003ec	e8 00 00 00 00	 call	 ?update_co_pilot_head_animation@@YGXXZ ; update_co_pilot_head_animation
$LN2@update_co_:

; 1156 : 
; 1157 : 			break;
; 1158 : 		}
; 1159 : 	}
; 1160 : 
; 1161 : 	set_co_pilot_animation (anim_data, co_pilot_anim_frame);

  003f1	51		 push	 ecx
  003f2	f3 0f 10 05 00
	00 00 00	 movss	 xmm0, DWORD PTR ?co_pilot_anim_frame@@3MA
  003fa	f3 0f 11 04 24	 movss	 DWORD PTR [esp], xmm0
  003ff	8b 45 fc	 mov	 eax, DWORD PTR _anim_data$[ebp]
  00402	50		 push	 eax
  00403	e8 00 00 00 00	 call	 ?set_co_pilot_animation@@YGXPAUCO_PILOT_ANIM_DATA@@M@Z ; set_co_pilot_animation

; 1162 : }

  00408	5f		 pop	 edi
  00409	5e		 pop	 esi
  0040a	5b		 pop	 ebx
  0040b	8b e5		 mov	 esp, ebp
  0040d	5d		 pop	 ebp
  0040e	c3		 ret	 0
  0040f	90		 npad	 1
$LN31@update_co_:
  00410	00 00 00 00	 DD	 $LN5@update_co_
  00414	00 00 00 00	 DD	 $LN8@update_co_
  00418	00 00 00 00	 DD	 $LN10@update_co_
  0041c	00 00 00 00	 DD	 $LN12@update_co_
  00420	00 00 00 00	 DD	 $LN14@update_co_
  00424	00 00 00 00	 DD	 $LN16@update_co_
  00428	00 00 00 00	 DD	 $LN18@update_co_
  0042c	00 00 00 00	 DD	 $LN20@update_co_
  00430	00 00 00 00	 DD	 $LN22@update_co_
  00434	00 00 00 00	 DD	 $LN23@update_co_
  00438	00 00 00 00	 DD	 $LN24@update_co_
  0043c	00 00 00 00	 DD	 $LN25@update_co_
  00440	00 00 00 00	 DD	 $LN26@update_co_
  00444	00 00 00 00	 DD	 $LN27@update_co_
  00448	00 00 00 00	 DD	 $LN28@update_co_
  0044c	00 00 00 00	 DD	 $LN29@update_co_
?update_co_pilot_animation@@YGXXZ ENDP			; update_co_pilot_animation
_TEXT	ENDS
; Function compile flags: /Odtp /ZI
; File c:\users\nhv90\projects\eech\aphavoc\source\gunships\cockpits\viper\vi_cpg.c
;	COMDAT ?update_co_pilot_head_animation@@YGXXZ
_TEXT	SEGMENT
?update_co_pilot_head_animation@@YGXXZ PROC		; update_co_pilot_head_animation, COMDAT

; 880  : {

  00000	55		 push	 ebp
  00001	8b ec		 mov	 ebp, esp
  00003	83 ec 40	 sub	 esp, 64			; 00000040H
  00006	53		 push	 ebx
  00007	56		 push	 esi
  00008	57		 push	 edi

; 881  : 	co_pilot_anim_frame += get_delta_time () * 0.5;

  00009	f3 0f 5a 05 00
	00 00 00	 cvtss2sd xmm0, DWORD PTR ?system_delta_time@@3MA
  00011	f2 0f 59 05 00
	00 00 00	 mulsd	 xmm0, QWORD PTR __real@3fe0000000000000
  00019	f3 0f 5a 0d 00
	00 00 00	 cvtss2sd xmm1, DWORD PTR ?co_pilot_anim_frame@@3MA
  00021	f2 0f 58 c8	 addsd	 xmm1, xmm0
  00025	f2 0f 5a c1	 cvtsd2ss xmm0, xmm1
  00029	f3 0f 11 05 00
	00 00 00	 movss	 DWORD PTR ?co_pilot_anim_frame@@3MA, xmm0

; 882  : 
; 883  : 	if ((co_pilot_anim_frame >= 0.5) && (co_pilot_head_anim_pause > 0.0))

  00031	f3 0f 5a 05 00
	00 00 00	 cvtss2sd xmm0, DWORD PTR ?co_pilot_anim_frame@@3MA
  00039	66 0f 2f 05 00
	00 00 00	 comisd	 xmm0, QWORD PTR __real@3fe0000000000000
  00041	72 58		 jb	 SHORT $LN2@update_co_
  00043	f3 0f 5a 05 00
	00 00 00	 cvtss2sd xmm0, DWORD PTR ?co_pilot_head_anim_pause@@3MA
  0004b	66 0f 2f 05 00
	00 00 00	 comisd	 xmm0, QWORD PTR __real@0000000000000000
  00053	76 46		 jbe	 SHORT $LN2@update_co_

; 884  : 	{
; 885  : 		co_pilot_anim_frame = 0.5;

  00055	f3 0f 10 05 00
	00 00 00	 movss	 xmm0, DWORD PTR __real@3f000000
  0005d	f3 0f 11 05 00
	00 00 00	 movss	 DWORD PTR ?co_pilot_anim_frame@@3MA, xmm0

; 886  : 
; 887  : 		co_pilot_head_anim_pause -= get_delta_time ();

  00065	f3 0f 10 05 00
	00 00 00	 movss	 xmm0, DWORD PTR ?co_pilot_head_anim_pause@@3MA
  0006d	f3 0f 5c 05 00
	00 00 00	 subss	 xmm0, DWORD PTR ?system_delta_time@@3MA
  00075	f3 0f 11 05 00
	00 00 00	 movss	 DWORD PTR ?co_pilot_head_anim_pause@@3MA, xmm0

; 888  : 
; 889  : 		if (co_pilot_head_anim_pause < 0.0)

  0007d	f3 0f 5a 05 00
	00 00 00	 cvtss2sd xmm0, DWORD PTR ?co_pilot_head_anim_pause@@3MA
  00085	0f 57 c9	 xorps	 xmm1, xmm1
  00088	66 0f 2f c8	 comisd	 xmm1, xmm0
  0008c	76 0b		 jbe	 SHORT $LN4@update_co_

; 890  : 		{
; 891  : 			co_pilot_head_anim_pause = 0.0;

  0008e	0f 57 c0	 xorps	 xmm0, xmm0
  00091	f3 0f 11 05 00
	00 00 00	 movss	 DWORD PTR ?co_pilot_head_anim_pause@@3MA, xmm0
$LN4@update_co_:

; 892  : 		}
; 893  : 	}
; 894  : 	else

  00099	eb 2c		 jmp	 SHORT $LN5@update_co_
$LN2@update_co_:

; 895  : 	{
; 896  : 		if (co_pilot_anim_frame >= 1.0)

  0009b	f3 0f 5a 05 00
	00 00 00	 cvtss2sd xmm0, DWORD PTR ?co_pilot_anim_frame@@3MA
  000a3	66 0f 2f 05 00
	00 00 00	 comisd	 xmm0, QWORD PTR __real@3ff0000000000000
  000ab	72 1a		 jb	 SHORT $LN5@update_co_

; 897  : 		{
; 898  : 			co_pilot_anim_frame = 1.0;

  000ad	f3 0f 10 05 00
	00 00 00	 movss	 xmm0, DWORD PTR __real@3f800000
  000b5	f3 0f 11 05 00
	00 00 00	 movss	 DWORD PTR ?co_pilot_anim_frame@@3MA, xmm0

; 899  : 
; 900  : 			co_pilot_anim_mode = CO_PILOT_ANIM_MODE_NONE;

  000bd	c7 05 00 00 00
	00 00 00 00 00	 mov	 DWORD PTR ?co_pilot_anim_mode@@3W4CO_PILOT_ANIM_MODES@@A, 0
$LN5@update_co_:

; 901  : 		}
; 902  : 	}
; 903  : }

  000c7	5f		 pop	 edi
  000c8	5e		 pop	 esi
  000c9	5b		 pop	 ebx
  000ca	8b e5		 mov	 esp, ebp
  000cc	5d		 pop	 ebp
  000cd	c3		 ret	 0
?update_co_pilot_head_animation@@YGXXZ ENDP		; update_co_pilot_head_animation
_TEXT	ENDS
; Function compile flags: /Odtp /ZI
; File c:\users\nhv90\projects\eech\aphavoc\source\gunships\cockpits\viper\vi_cpg.c
;	COMDAT ?get_random_co_pilot_anim_mode@@YG?AW4CO_PILOT_ANIM_MODES@@XZ
_TEXT	SEGMENT
tv81 = -76						; size = 4
_mode$ = -8						; size = 4
_n$ = -4						; size = 4
?get_random_co_pilot_anim_mode@@YG?AW4CO_PILOT_ANIM_MODES@@XZ PROC ; get_random_co_pilot_anim_mode, COMDAT

; 748  : {

  00000	55		 push	 ebp
  00001	8b ec		 mov	 ebp, esp
  00003	83 ec 4c	 sub	 esp, 76			; 0000004cH
  00006	53		 push	 ebx
  00007	56		 push	 esi
  00008	57		 push	 edi

; 749  : 	static int
; 750  : 		previous_n = -1;
; 751  : 
; 752  : 	int
; 753  : 		n;
; 754  : 
; 755  : 	co_pilot_anim_modes
; 756  : 		mode;
; 757  : 
; 758  : 	n = rand16 () % 15;

  00009	69 05 00 00 00
	00 6d 4e c6 41	 imul	 eax, DWORD PTR ?random_number_seed@@3HA, 1103515245 ; random_number_seed
  00013	05 39 30 00 00	 add	 eax, 12345		; 00003039H
  00018	a3 00 00 00 00	 mov	 DWORD PTR ?random_number_seed@@3HA, eax ; random_number_seed
  0001d	a1 00 00 00 00	 mov	 eax, DWORD PTR ?random_number_seed@@3HA ; random_number_seed
  00022	c1 f8 10	 sar	 eax, 16			; 00000010H
  00025	25 ff 7f 00 00	 and	 eax, 32767		; 00007fffH
  0002a	99		 cdq
  0002b	b9 0f 00 00 00	 mov	 ecx, 15			; 0000000fH
  00030	f7 f9		 idiv	 ecx
  00032	89 55 fc	 mov	 DWORD PTR _n$[ebp], edx

; 759  : 
; 760  : 	if (n == previous_n)

  00035	8b 45 fc	 mov	 eax, DWORD PTR _n$[ebp]
  00038	3b 05 00 00 00
	00		 cmp	 eax, DWORD PTR ?previous_n@?1??get_random_co_pilot_anim_mode@@YG?AW4CO_PILOT_ANIM_MODES@@XZ@4HA
  0003e	75 63		 jne	 SHORT $LN4@get_random

; 761  : 	{
; 762  : 		n = rand16 () % 15;

  00040	69 05 00 00 00
	00 6d 4e c6 41	 imul	 eax, DWORD PTR ?random_number_seed@@3HA, 1103515245 ; random_number_seed
  0004a	05 39 30 00 00	 add	 eax, 12345		; 00003039H
  0004f	a3 00 00 00 00	 mov	 DWORD PTR ?random_number_seed@@3HA, eax ; random_number_seed
  00054	a1 00 00 00 00	 mov	 eax, DWORD PTR ?random_number_seed@@3HA ; random_number_seed
  00059	c1 f8 10	 sar	 eax, 16			; 00000010H
  0005c	25 ff 7f 00 00	 and	 eax, 32767		; 00007fffH
  00061	99		 cdq
  00062	b9 0f 00 00 00	 mov	 ecx, 15			; 0000000fH
  00067	f7 f9		 idiv	 ecx
  00069	89 55 fc	 mov	 DWORD PTR _n$[ebp], edx

; 763  : 
; 764  : 		if (n == previous_n)

  0006c	8b 45 fc	 mov	 eax, DWORD PTR _n$[ebp]
  0006f	3b 05 00 00 00
	00		 cmp	 eax, DWORD PTR ?previous_n@?1??get_random_co_pilot_anim_mode@@YG?AW4CO_PILOT_ANIM_MODES@@XZ@4HA
  00075	75 2c		 jne	 SHORT $LN4@get_random

; 765  : 		{
; 766  : 			n = rand16 () % 15;

  00077	69 05 00 00 00
	00 6d 4e c6 41	 imul	 eax, DWORD PTR ?random_number_seed@@3HA, 1103515245 ; random_number_seed
  00081	05 39 30 00 00	 add	 eax, 12345		; 00003039H
  00086	a3 00 00 00 00	 mov	 DWORD PTR ?random_number_seed@@3HA, eax ; random_number_seed
  0008b	a1 00 00 00 00	 mov	 eax, DWORD PTR ?random_number_seed@@3HA ; random_number_seed
  00090	c1 f8 10	 sar	 eax, 16			; 00000010H
  00093	25 ff 7f 00 00	 and	 eax, 32767		; 00007fffH
  00098	99		 cdq
  00099	b9 0f 00 00 00	 mov	 ecx, 15			; 0000000fH
  0009e	f7 f9		 idiv	 ecx
  000a0	89 55 fc	 mov	 DWORD PTR _n$[ebp], edx
$LN4@get_random:

; 767  : 		}
; 768  : 	}
; 769  : 
; 770  : 	previous_n = n;

  000a3	8b 45 fc	 mov	 eax, DWORD PTR _n$[ebp]
  000a6	a3 00 00 00 00	 mov	 DWORD PTR ?previous_n@?1??get_random_co_pilot_anim_mode@@YG?AW4CO_PILOT_ANIM_MODES@@XZ@4HA, eax

; 771  : 
; 772  : 	switch (n)

  000ab	8b 45 fc	 mov	 eax, DWORD PTR _n$[ebp]
  000ae	89 45 b4	 mov	 DWORD PTR tv81[ebp], eax
  000b1	83 7d b4 0e	 cmp	 DWORD PTR tv81[ebp], 14	; 0000000eH
  000b5	0f 87 97 00 00
	00		 ja	 $LN21@get_random
  000bb	8b 4d b4	 mov	 ecx, DWORD PTR tv81[ebp]
  000be	ff 24 8d 00 00
	00 00		 jmp	 DWORD PTR $LN23@get_random[ecx*4]
$LN6@get_random:

; 773  : 	{
; 774  : 		case 0:
; 775  : 		{
; 776  : 			mode = CO_PILOT_ANIM_MODE_RIGHT_HAND_TO_RH_MFD_BUTTON;

  000c5	c7 45 f8 01 00
	00 00		 mov	 DWORD PTR _mode$[ebp], 1

; 777  : 
; 778  : 			break;

  000cc	e9 92 00 00 00	 jmp	 $LN2@get_random
$LN7@get_random:

; 779  : 		}
; 780  : 		case 1:
; 781  : 		{
; 782  : 			mode = CO_PILOT_ANIM_MODE_LEFT_HAND_TO_LH_MFD_BUTTON;

  000d1	c7 45 f8 02 00
	00 00		 mov	 DWORD PTR _mode$[ebp], 2

; 783  : 
; 784  : 			break;

  000d8	e9 86 00 00 00	 jmp	 $LN2@get_random
$LN8@get_random:

; 785  : 		}
; 786  : 		case 2:
; 787  : 		{
; 788  : 			mode = CO_PILOT_ANIM_MODE_RIGHT_HAND_TO_RH_CONSOLE;

  000dd	c7 45 f8 03 00
	00 00		 mov	 DWORD PTR _mode$[ebp], 3

; 789  : 
; 790  : 			break;

  000e4	eb 7d		 jmp	 SHORT $LN2@get_random
$LN9@get_random:

; 791  : 		}
; 792  : 		case 3:
; 793  : 		{
; 794  : 			mode = CO_PILOT_ANIM_MODE_LEFT_HAND_TO_LH_CONSOLE;

  000e6	c7 45 f8 04 00
	00 00		 mov	 DWORD PTR _mode$[ebp], 4

; 795  : 
; 796  : 			break;

  000ed	eb 74		 jmp	 SHORT $LN2@get_random
$LN10@get_random:

; 797  : 		}
; 798  : 		case 4:
; 799  : 		{
; 800  : 			mode = CO_PILOT_ANIM_MODE_RIGHT_HAND_TO_CALCULATOR;

  000ef	c7 45 f8 05 00
	00 00		 mov	 DWORD PTR _mode$[ebp], 5

; 801  : 
; 802  : 			break;

  000f6	eb 6b		 jmp	 SHORT $LN2@get_random
$LN11@get_random:

; 803  : 		}
; 804  : 		case 5:
; 805  : 		{
; 806  : 			mode = CO_PILOT_ANIM_MODE_LEFT_HAND_TO_RH_SMALL_MFD_BUTTON;

  000f8	c7 45 f8 06 00
	00 00		 mov	 DWORD PTR _mode$[ebp], 6

; 807  : 
; 808  : 			break;

  000ff	eb 62		 jmp	 SHORT $LN2@get_random
$LN12@get_random:

; 809  : 		}
; 810  : 		case 6:
; 811  : 		{
; 812  : 			mode = CO_PILOT_ANIM_MODE_LEFT_HAND_TO_LH_MFD_TOP_BUTTON;

  00101	c7 45 f8 07 00
	00 00		 mov	 DWORD PTR _mode$[ebp], 7

; 813  : 
; 814  : 			break;

  00108	eb 59		 jmp	 SHORT $LN2@get_random
$LN13@get_random:

; 815  : 		}
; 816  : 		case 7:
; 817  : 		{
; 818  : 			mode = CO_PILOT_ANIM_MODE_HEAD_LOOK_DOWN;

  0010a	c7 45 f8 08 00
	00 00		 mov	 DWORD PTR _mode$[ebp], 8

; 819  : 
; 820  : 			break;

  00111	eb 50		 jmp	 SHORT $LN2@get_random
$LN14@get_random:

; 821  : 		}
; 822  : 		case 8:
; 823  : 		{
; 824  : 			mode = CO_PILOT_ANIM_MODE_HEAD_LOOK_DOWN_LEFT;

  00113	c7 45 f8 09 00
	00 00		 mov	 DWORD PTR _mode$[ebp], 9

; 825  : 
; 826  : 			break;

  0011a	eb 47		 jmp	 SHORT $LN2@get_random
$LN15@get_random:

; 827  : 		}
; 828  : 		case 9:
; 829  : 		{
; 830  : 			mode = CO_PILOT_ANIM_MODE_HEAD_LOOK_DOWN_RIGHT;

  0011c	c7 45 f8 0a 00
	00 00		 mov	 DWORD PTR _mode$[ebp], 10 ; 0000000aH

; 831  : 
; 832  : 			break;

  00123	eb 3e		 jmp	 SHORT $LN2@get_random
$LN16@get_random:

; 833  : 		}
; 834  : 		case 10:
; 835  : 		{
; 836  : 			mode = CO_PILOT_ANIM_MODE_HEAD_LOOK_UP;

  00125	c7 45 f8 0b 00
	00 00		 mov	 DWORD PTR _mode$[ebp], 11 ; 0000000bH

; 837  : 
; 838  : 			break;

  0012c	eb 35		 jmp	 SHORT $LN2@get_random
$LN17@get_random:

; 839  : 		}
; 840  : 		case 11:
; 841  : 		{
; 842  : 			mode = CO_PILOT_ANIM_MODE_HEAD_LOOK_UP_LEFT;

  0012e	c7 45 f8 0c 00
	00 00		 mov	 DWORD PTR _mode$[ebp], 12 ; 0000000cH

; 843  : 
; 844  : 			break;

  00135	eb 2c		 jmp	 SHORT $LN2@get_random
$LN18@get_random:

; 845  : 		}
; 846  : 		case 12:
; 847  : 		{
; 848  : 			mode = CO_PILOT_ANIM_MODE_HEAD_LOOK_UP_RIGHT;

  00137	c7 45 f8 0d 00
	00 00		 mov	 DWORD PTR _mode$[ebp], 13 ; 0000000dH

; 849  : 
; 850  : 			break;

  0013e	eb 23		 jmp	 SHORT $LN2@get_random
$LN19@get_random:

; 851  : 		}
; 852  : 		case 13:
; 853  : 		{
; 854  : 			mode = CO_PILOT_ANIM_MODE_HEAD_LOOK_LEFT;

  00140	c7 45 f8 0e 00
	00 00		 mov	 DWORD PTR _mode$[ebp], 14 ; 0000000eH

; 855  : 
; 856  : 			break;

  00147	eb 1a		 jmp	 SHORT $LN2@get_random
$LN20@get_random:

; 857  : 		}
; 858  : 		case 14:
; 859  : 		{
; 860  : 			mode = CO_PILOT_ANIM_MODE_HEAD_LOOK_RIGHT;

  00149	c7 45 f8 0f 00
	00 00		 mov	 DWORD PTR _mode$[ebp], 15 ; 0000000fH

; 861  : 
; 862  : 			break;

  00150	eb 11		 jmp	 SHORT $LN2@get_random
$LN21@get_random:

; 863  : 		}
; 864  : 		default:
; 865  : 		{
; 866  : 			debug_fatal ("Invalid animation mode = %d", n);

  00152	8b 45 fc	 mov	 eax, DWORD PTR _n$[ebp]
  00155	50		 push	 eax
  00156	68 00 00 00 00	 push	 OFFSET ??_C@_0BM@PAHNKOC@Invalid?5animation?5mode?5?$DN?5?$CFd@
  0015b	e8 00 00 00 00	 call	 ?debug_fatal@@YAXPBDZZ	; debug_fatal
  00160	83 c4 08	 add	 esp, 8
$LN2@get_random:

; 867  : 
; 868  : 			break;
; 869  : 		}
; 870  : 	}
; 871  : 
; 872  : 	return (mode);

  00163	8b 45 f8	 mov	 eax, DWORD PTR _mode$[ebp]

; 873  : }

  00166	5f		 pop	 edi
  00167	5e		 pop	 esi
  00168	5b		 pop	 ebx
  00169	8b e5		 mov	 esp, ebp
  0016b	5d		 pop	 ebp
  0016c	c3		 ret	 0
  0016d	0f 1f 00	 npad	 3
$LN23@get_random:
  00170	00 00 00 00	 DD	 $LN6@get_random
  00174	00 00 00 00	 DD	 $LN7@get_random
  00178	00 00 00 00	 DD	 $LN8@get_random
  0017c	00 00 00 00	 DD	 $LN9@get_random
  00180	00 00 00 00	 DD	 $LN10@get_random
  00184	00 00 00 00	 DD	 $LN11@get_random
  00188	00 00 00 00	 DD	 $LN12@get_random
  0018c	00 00 00 00	 DD	 $LN13@get_random
  00190	00 00 00 00	 DD	 $LN14@get_random
  00194	00 00 00 00	 DD	 $LN15@get_random
  00198	00 00 00 00	 DD	 $LN16@get_random
  0019c	00 00 00 00	 DD	 $LN17@get_random
  001a0	00 00 00 00	 DD	 $LN18@get_random
  001a4	00 00 00 00	 DD	 $LN19@get_random
  001a8	00 00 00 00	 DD	 $LN20@get_random
?get_random_co_pilot_anim_mode@@YG?AW4CO_PILOT_ANIM_MODES@@XZ ENDP ; get_random_co_pilot_anim_mode
_TEXT	ENDS
; Function compile flags: /Odtp /ZI
; File c:\users\nhv90\projects\eech\aphavoc\source\gunships\cockpits\viper\vi_cpg.c
;	COMDAT ?get_reset_co_pilot_head_anim_pause@@YGMXZ
_TEXT	SEGMENT
_pause$ = -4						; size = 4
?get_reset_co_pilot_head_anim_pause@@YGMXZ PROC		; get_reset_co_pilot_head_anim_pause, COMDAT

; 723  : {

  00000	55		 push	 ebp
  00001	8b ec		 mov	 ebp, esp
  00003	83 ec 44	 sub	 esp, 68			; 00000044H
  00006	53		 push	 ebx
  00007	56		 push	 esi
  00008	57		 push	 edi

; 724  : 	float
; 725  : 		pause;
; 726  : 
; 727  : 	//
; 728  : 	// chance of no pause (glance)
; 729  : 	//
; 730  : 
; 731  : 	if (frand1 () < 0.15)

  00009	69 05 00 00 00
	00 6d 4e c6 41	 imul	 eax, DWORD PTR ?random_number_seed@@3HA, 1103515245 ; random_number_seed
  00013	05 39 30 00 00	 add	 eax, 12345		; 00003039H
  00018	a3 00 00 00 00	 mov	 DWORD PTR ?random_number_seed@@3HA, eax ; random_number_seed
  0001d	8b 0d 00 00 00
	00		 mov	 ecx, DWORD PTR ?random_number_seed@@3HA ; random_number_seed
  00023	c1 f9 10	 sar	 ecx, 16			; 00000010H
  00026	81 e1 ff 7f 00
	00		 and	 ecx, 32767		; 00007fffH
  0002c	f2 0f 2a c1	 cvtsi2sd xmm0, ecx
  00030	f2 0f 59 05 00
	00 00 00	 mulsd	 xmm0, QWORD PTR __real@3f00002000400080
  00038	f2 0f 10 0d 00
	00 00 00	 movsd	 xmm1, QWORD PTR __real@3fc3333333333333
  00040	66 0f 2f c8	 comisd	 xmm1, xmm0
  00044	76 0a		 jbe	 SHORT $LN2@get_reset_

; 732  : 	{
; 733  : 		pause = 0.0;

  00046	0f 57 c0	 xorps	 xmm0, xmm0
  00049	f3 0f 11 45 fc	 movss	 DWORD PTR _pause$[ebp], xmm0

; 734  : 	}
; 735  : 	else

  0004e	eb 48		 jmp	 SHORT $LN3@get_reset_
$LN2@get_reset_:

; 736  : 	{
; 737  : 		pause = (frand1 () * 3.0) + 0.5;

  00050	69 05 00 00 00
	00 6d 4e c6 41	 imul	 eax, DWORD PTR ?random_number_seed@@3HA, 1103515245 ; random_number_seed
  0005a	05 39 30 00 00	 add	 eax, 12345		; 00003039H
  0005f	a3 00 00 00 00	 mov	 DWORD PTR ?random_number_seed@@3HA, eax ; random_number_seed
  00064	8b 0d 00 00 00
	00		 mov	 ecx, DWORD PTR ?random_number_seed@@3HA ; random_number_seed
  0006a	c1 f9 10	 sar	 ecx, 16			; 00000010H
  0006d	81 e1 ff 7f 00
	00		 and	 ecx, 32767		; 00007fffH
  00073	f2 0f 2a c1	 cvtsi2sd xmm0, ecx
  00077	f2 0f 59 05 00
	00 00 00	 mulsd	 xmm0, QWORD PTR __real@3f00002000400080
  0007f	f2 0f 59 05 00
	00 00 00	 mulsd	 xmm0, QWORD PTR __real@4008000000000000
  00087	f2 0f 58 05 00
	00 00 00	 addsd	 xmm0, QWORD PTR __real@3fe0000000000000
  0008f	f2 0f 5a c0	 cvtsd2ss xmm0, xmm0
  00093	f3 0f 11 45 fc	 movss	 DWORD PTR _pause$[ebp], xmm0
$LN3@get_reset_:

; 738  : 	}
; 739  : 
; 740  : 	return (pause);

  00098	d9 45 fc	 fld	 DWORD PTR _pause$[ebp]

; 741  : }

  0009b	5f		 pop	 edi
  0009c	5e		 pop	 esi
  0009d	5b		 pop	 ebx
  0009e	8b e5		 mov	 esp, ebp
  000a0	5d		 pop	 ebp
  000a1	c3		 ret	 0
?get_reset_co_pilot_head_anim_pause@@YGMXZ ENDP		; get_reset_co_pilot_head_anim_pause
_TEXT	ENDS
; Function compile flags: /Odtp /ZI
; File c:\users\nhv90\projects\eech\aphavoc\source\gunships\cockpits\viper\vi_cpg.c
;	COMDAT ?get_reset_co_pilot_anim_delay@@YGMXZ
_TEXT	SEGMENT
tv86 = -68						; size = 4
?get_reset_co_pilot_anim_delay@@YGMXZ PROC		; get_reset_co_pilot_anim_delay, COMDAT

; 709  : {

  00000	55		 push	 ebp
  00001	8b ec		 mov	 ebp, esp
  00003	83 ec 44	 sub	 esp, 68			; 00000044H
  00006	53		 push	 ebx
  00007	56		 push	 esi
  00008	57		 push	 edi

; 710  : 	if (frand1 () < 0.2)

  00009	69 05 00 00 00
	00 6d 4e c6 41	 imul	 eax, DWORD PTR ?random_number_seed@@3HA, 1103515245 ; random_number_seed
  00013	05 39 30 00 00	 add	 eax, 12345		; 00003039H
  00018	a3 00 00 00 00	 mov	 DWORD PTR ?random_number_seed@@3HA, eax ; random_number_seed
  0001d	8b 0d 00 00 00
	00		 mov	 ecx, DWORD PTR ?random_number_seed@@3HA ; random_number_seed
  00023	c1 f9 10	 sar	 ecx, 16			; 00000010H
  00026	81 e1 ff 7f 00
	00		 and	 ecx, 32767		; 00007fffH
  0002c	f2 0f 2a c1	 cvtsi2sd xmm0, ecx
  00030	f2 0f 59 05 00
	00 00 00	 mulsd	 xmm0, QWORD PTR __real@3f00002000400080
  00038	f2 0f 10 0d 00
	00 00 00	 movsd	 xmm1, QWORD PTR __real@3fc999999999999a
  00040	66 0f 2f c8	 comisd	 xmm1, xmm0
  00044	76 04		 jbe	 SHORT $LN2@get_reset_

; 711  : 	{
; 712  : 		return (0.0);

  00046	d9 ee		 fldz
  00048	eb 4b		 jmp	 SHORT $LN1@get_reset_
$LN2@get_reset_:

; 713  : 	}
; 714  : 
; 715  : 	return ((frand1 () * 3.0) + 2.0);

  0004a	69 05 00 00 00
	00 6d 4e c6 41	 imul	 eax, DWORD PTR ?random_number_seed@@3HA, 1103515245 ; random_number_seed
  00054	05 39 30 00 00	 add	 eax, 12345		; 00003039H
  00059	a3 00 00 00 00	 mov	 DWORD PTR ?random_number_seed@@3HA, eax ; random_number_seed
  0005e	8b 0d 00 00 00
	00		 mov	 ecx, DWORD PTR ?random_number_seed@@3HA ; random_number_seed
  00064	c1 f9 10	 sar	 ecx, 16			; 00000010H
  00067	81 e1 ff 7f 00
	00		 and	 ecx, 32767		; 00007fffH
  0006d	f2 0f 2a c1	 cvtsi2sd xmm0, ecx
  00071	f2 0f 59 05 00
	00 00 00	 mulsd	 xmm0, QWORD PTR __real@3f00002000400080
  00079	f2 0f 59 05 00
	00 00 00	 mulsd	 xmm0, QWORD PTR __real@4008000000000000
  00081	f2 0f 58 05 00
	00 00 00	 addsd	 xmm0, QWORD PTR __real@4000000000000000
  00089	f2 0f 5a c0	 cvtsd2ss xmm0, xmm0
  0008d	f3 0f 11 45 bc	 movss	 DWORD PTR tv86[ebp], xmm0
  00092	d9 45 bc	 fld	 DWORD PTR tv86[ebp]
$LN1@get_reset_:

; 716  : }

  00095	5f		 pop	 edi
  00096	5e		 pop	 esi
  00097	5b		 pop	 ebx
  00098	8b e5		 mov	 esp, ebp
  0009a	5d		 pop	 ebp
  0009b	c3		 ret	 0
?get_reset_co_pilot_anim_delay@@YGMXZ ENDP		; get_reset_co_pilot_anim_delay
_TEXT	ENDS
; Function compile flags: /Odtp /ZI
; File c:\users\nhv90\projects\eech\aphavoc\source\gunships\cockpits\viper\vi_cpg.c
;	COMDAT ?get_co_pilot_viewpoint_virtual_cockpit@@YGHXZ
_TEXT	SEGMENT
?get_co_pilot_viewpoint_virtual_cockpit@@YGHXZ PROC	; get_co_pilot_viewpoint_virtual_cockpit, COMDAT

; 687  : {

  00000	55		 push	 ebp
  00001	8b ec		 mov	 ebp, esp
  00003	83 ec 40	 sub	 esp, 64			; 00000040H
  00006	53		 push	 ebx
  00007	56		 push	 esi
  00008	57		 push	 edi

; 688  : 	if (get_crew_role () == CREW_ROLE_CO_PILOT)

  00009	e8 00 00 00 00	 call	 ?get_crew_role@@YG?AW4CREW_ROLES@@XZ ; get_crew_role
  0000e	83 f8 01	 cmp	 eax, 1
  00011	75 22		 jne	 SHORT $LN2@get_co_pil

; 689  : 	{
; 690  : 		if
; 691  : 		(
; 692  : 			(get_view_mode () == VIEW_MODE_VIRTUAL_COCKPIT) ||
; 693  : 			(get_view_mode () == VIEW_MODE_VIRTUAL_COCKPIT_PADLOCK) ||

  00013	83 3d 00 00 00
	00 20		 cmp	 DWORD PTR ?view_mode@@3W4VIEW_MODES@@A, 32 ; view_mode, 00000020H
  0001a	74 12		 je	 SHORT $LN4@get_co_pil
  0001c	83 3d 00 00 00
	00 21		 cmp	 DWORD PTR ?view_mode@@3W4VIEW_MODES@@A, 33 ; view_mode, 00000021H
  00023	74 09		 je	 SHORT $LN4@get_co_pil
  00025	83 3d 00 00 00
	00 22		 cmp	 DWORD PTR ?view_mode@@3W4VIEW_MODES@@A, 34 ; view_mode, 00000022H
  0002c	75 07		 jne	 SHORT $LN2@get_co_pil
$LN4@get_co_pil:

; 694  : 			(get_view_mode () == VIEW_MODE_VIRTUAL_COCKPIT_TRACK_TARGET)
; 695  : 		)
; 696  : 		{
; 697  : 			return (TRUE);

  0002e	b8 01 00 00 00	 mov	 eax, 1
  00033	eb 02		 jmp	 SHORT $LN1@get_co_pil
$LN2@get_co_pil:

; 698  : 		}
; 699  : 	}
; 700  : 
; 701  : 	return (FALSE);

  00035	33 c0		 xor	 eax, eax
$LN1@get_co_pil:

; 702  : }

  00037	5f		 pop	 edi
  00038	5e		 pop	 esi
  00039	5b		 pop	 ebx
  0003a	8b e5		 mov	 esp, ebp
  0003c	5d		 pop	 ebp
  0003d	c3		 ret	 0
?get_co_pilot_viewpoint_virtual_cockpit@@YGHXZ ENDP	; get_co_pilot_viewpoint_virtual_cockpit
_TEXT	ENDS
; Function compile flags: /Odtp /ZI
; File c:\users\nhv90\projects\eech\aphavoc\source\gunships\cockpits\viper\vi_cpg.c
;	COMDAT ?set_co_pilot_animation@@YGXPAUCO_PILOT_ANIM_DATA@@M@Z
_TEXT	SEGMENT
tv83 = -76						; size = 4
tv84 = -72						; size = 4
_anim_frame$ = -4					; size = 4
_anim$ = 8						; size = 4
_frame$ = 12						; size = 4
?set_co_pilot_animation@@YGXPAUCO_PILOT_ANIM_DATA@@M@Z PROC ; set_co_pilot_animation, COMDAT

; 572  : {

  00000	55		 push	 ebp
  00001	8b ec		 mov	 ebp, esp
  00003	83 ec 4c	 sub	 esp, 76			; 0000004cH
  00006	53		 push	 ebx
  00007	56		 push	 esi
  00008	57		 push	 edi

; 573  : 	float
; 574  : 		anim_frame;
; 575  : 
; 576  : 	ASSERT (anim);

  00009	83 7d 08 00	 cmp	 DWORD PTR _anim$[ebp], 0
  0000d	75 18		 jne	 SHORT $LN2@set_co_pil
  0000f	a1 00 00 00 00	 mov	 eax, DWORD PTR ?__LINE__Var@?0??set_co_pilot_animation@@YGXPAUCO_PILOT_ANIM_DATA@@M@Z@4JA
  00014	83 c0 04	 add	 eax, 4
  00017	50		 push	 eax
  00018	68 00 00 00 00	 push	 OFFSET ??_C@_0EN@GDIPHLNA@c?3?2users?2nhv90?2projects?2eech?2ap@
  0001d	68 00 00 00 00	 push	 OFFSET ??_C@_04NBCDDDGK@anim@
  00022	e8 00 00 00 00	 call	 ?process_assert@@YGXPBD0H@Z ; process_assert
$LN2@set_co_pil:

; 577  : 
; 578  : 	set_co_pilot_static_right_hand_on_cyclic_visibility (FALSE);

  00027	6a 00		 push	 0
  00029	e8 00 00 00 00	 call	 ?set_co_pilot_static_right_hand_on_cyclic_visibility@@YGXH@Z ; set_co_pilot_static_right_hand_on_cyclic_visibility

; 579  : 
; 580  : 	set_co_pilot_collective_position (0.5);

  0002e	51		 push	 ecx
  0002f	f3 0f 10 05 00
	00 00 00	 movss	 xmm0, DWORD PTR __real@3f000000
  00037	f3 0f 11 04 24	 movss	 DWORD PTR [esp], xmm0
  0003c	e8 00 00 00 00	 call	 ?set_co_pilot_collective_position@@YGXM@Z ; set_co_pilot_collective_position

; 581  : 
; 582  : 	////////////////////////////////////////
; 583  : 
; 584  : 	anim_frame = ((anim->end_frame - anim->start_frame) * frame) + anim->start_frame;

  00041	8b 45 08	 mov	 eax, DWORD PTR _anim$[ebp]
  00044	8b 4d 08	 mov	 ecx, DWORD PTR _anim$[ebp]
  00047	f3 0f 10 40 04	 movss	 xmm0, DWORD PTR [eax+4]
  0004c	f3 0f 5c 01	 subss	 xmm0, DWORD PTR [ecx]
  00050	f3 0f 59 45 0c	 mulss	 xmm0, DWORD PTR _frame$[ebp]
  00055	8b 55 08	 mov	 edx, DWORD PTR _anim$[ebp]
  00058	f3 0f 58 02	 addss	 xmm0, DWORD PTR [edx]
  0005c	f3 0f 11 45 fc	 movss	 DWORD PTR _anim_frame$[ebp], xmm0

; 585  : 
; 586  : 	anim_frame = bound (anim_frame, anim->start_frame, anim->end_frame);

  00061	8b 45 08	 mov	 eax, DWORD PTR _anim$[ebp]
  00064	f3 0f 10 00	 movss	 xmm0, DWORD PTR [eax]
  00068	0f 2f 45 fc	 comiss	 xmm0, DWORD PTR _anim_frame$[ebp]
  0006c	76 0e		 jbe	 SHORT $LN16@set_co_pil
  0006e	8b 4d 08	 mov	 ecx, DWORD PTR _anim$[ebp]
  00071	f3 0f 10 01	 movss	 xmm0, DWORD PTR [ecx]
  00075	f3 0f 11 45 b8	 movss	 DWORD PTR tv84[ebp], xmm0
  0007a	eb 31		 jmp	 SHORT $LN17@set_co_pil
$LN16@set_co_pil:
  0007c	8b 55 08	 mov	 edx, DWORD PTR _anim$[ebp]
  0007f	f3 0f 10 45 fc	 movss	 xmm0, DWORD PTR _anim_frame$[ebp]
  00084	0f 2f 42 04	 comiss	 xmm0, DWORD PTR [edx+4]
  00088	76 0f		 jbe	 SHORT $LN14@set_co_pil
  0008a	8b 45 08	 mov	 eax, DWORD PTR _anim$[ebp]
  0008d	f3 0f 10 40 04	 movss	 xmm0, DWORD PTR [eax+4]
  00092	f3 0f 11 45 b4	 movss	 DWORD PTR tv83[ebp], xmm0
  00097	eb 0a		 jmp	 SHORT $LN15@set_co_pil
$LN14@set_co_pil:
  00099	f3 0f 10 45 fc	 movss	 xmm0, DWORD PTR _anim_frame$[ebp]
  0009e	f3 0f 11 45 b4	 movss	 DWORD PTR tv83[ebp], xmm0
$LN15@set_co_pil:
  000a3	f3 0f 10 45 b4	 movss	 xmm0, DWORD PTR tv83[ebp]
  000a8	f3 0f 11 45 b8	 movss	 DWORD PTR tv84[ebp], xmm0
$LN17@set_co_pil:
  000ad	f3 0f 10 45 b8	 movss	 xmm0, DWORD PTR tv84[ebp]
  000b2	f3 0f 11 45 fc	 movss	 DWORD PTR _anim_frame$[ebp], xmm0

; 587  : 
; 588  : 	////////////////////////////////////////
; 589  : 
; 590  : 	if (anim->animate_head)

  000b7	8b 45 08	 mov	 eax, DWORD PTR _anim$[ebp]
  000ba	8b 48 08	 mov	 ecx, DWORD PTR [eax+8]
  000bd	83 e1 01	 and	 ecx, 1
  000c0	74 0f		 je	 SHORT $LN3@set_co_pil

; 591  : 	{
; 592  : 		co_pilot_head_anim_frame = anim_frame;

  000c2	f3 0f 10 45 fc	 movss	 xmm0, DWORD PTR _anim_frame$[ebp]
  000c7	f3 0f 11 05 00
	00 00 00	 movss	 DWORD PTR ?co_pilot_head_anim_frame@@3MA, xmm0

; 593  : 	}
; 594  : 	else

  000cf	eb 10		 jmp	 SHORT $LN4@set_co_pil
$LN3@set_co_pil:

; 595  : 	{
; 596  : 		co_pilot_head_anim_frame = NO_CO_PILOT_HEAD_ANIMATION;

  000d1	f3 0f 10 05 00
	00 00 00	 movss	 xmm0, DWORD PTR __real@bf800000
  000d9	f3 0f 11 05 00
	00 00 00	 movss	 DWORD PTR ?co_pilot_head_anim_frame@@3MA, xmm0
$LN4@set_co_pil:

; 597  : 	}
; 598  : 
; 599  : 	////////////////////////////////////////
; 600  : 
; 601  : 	if (anim->animate_chest)

  000e1	8b 45 08	 mov	 eax, DWORD PTR _anim$[ebp]
  000e4	8b 48 08	 mov	 ecx, DWORD PTR [eax+8]
  000e7	d1 e9		 shr	 ecx, 1
  000e9	83 e1 01	 and	 ecx, 1
  000ec	74 1d		 je	 SHORT $LN5@set_co_pil

; 602  : 	{
; 603  : 		animate_entity_simple_keyframed_sub_objects (virtual_cockpit_inst3d, OBJECT_3D_SUB_OBJECT_WSO_CHEST, anim_frame);

  000ee	51		 push	 ecx
  000ef	f3 0f 10 45 fc	 movss	 xmm0, DWORD PTR _anim_frame$[ebp]
  000f4	f3 0f 11 04 24	 movss	 DWORD PTR [esp], xmm0
  000f9	68 a1 00 00 00	 push	 161			; 000000a1H
  000fe	a1 00 00 00 00	 mov	 eax, DWORD PTR ?virtual_cockpit_inst3d@@3PAUOBJECT_3D_INSTANCE@@A ; virtual_cockpit_inst3d
  00103	50		 push	 eax
  00104	e8 00 00 00 00	 call	 ?animate_entity_simple_keyframed_sub_objects@@YGXPAUOBJECT_3D_INSTANCE@@HM@Z ; animate_entity_simple_keyframed_sub_objects

; 604  : 	}
; 605  : 	else

  00109	eb 1e		 jmp	 SHORT $LN6@set_co_pil
$LN5@set_co_pil:

; 606  : 	{
; 607  : 		animate_entity_simple_keyframed_sub_objects (virtual_cockpit_inst3d, OBJECT_3D_SUB_OBJECT_WSO_CHEST, CO_PILOT_ANIM_DEFAULT);

  0010b	51		 push	 ecx
  0010c	f3 0f 10 05 00
	00 00 00	 movss	 xmm0, DWORD PTR __real@3d75c28f
  00114	f3 0f 11 04 24	 movss	 DWORD PTR [esp], xmm0
  00119	68 a1 00 00 00	 push	 161			; 000000a1H
  0011e	a1 00 00 00 00	 mov	 eax, DWORD PTR ?virtual_cockpit_inst3d@@3PAUOBJECT_3D_INSTANCE@@A ; virtual_cockpit_inst3d
  00123	50		 push	 eax
  00124	e8 00 00 00 00	 call	 ?animate_entity_simple_keyframed_sub_objects@@YGXPAUOBJECT_3D_INSTANCE@@HM@Z ; animate_entity_simple_keyframed_sub_objects
$LN6@set_co_pil:

; 608  : 	}
; 609  : 
; 610  : 	////////////////////////////////////////
; 611  : 
; 612  : 	if (anim->animate_left_arm)

  00129	8b 45 08	 mov	 eax, DWORD PTR _anim$[ebp]
  0012c	8b 48 08	 mov	 ecx, DWORD PTR [eax+8]
  0012f	c1 e9 02	 shr	 ecx, 2
  00132	83 e1 01	 and	 ecx, 1
  00135	0f 84 8c 00 00
	00		 je	 $LN7@set_co_pil

; 613  : 	{
; 614  : 		animate_entity_simple_keyframed_sub_objects (virtual_cockpit_inst3d, OBJECT_3D_SUB_OBJECT_WSO_L_SHOULDER, anim_frame);

  0013b	51		 push	 ecx
  0013c	f3 0f 10 45 fc	 movss	 xmm0, DWORD PTR _anim_frame$[ebp]
  00141	f3 0f 11 04 24	 movss	 DWORD PTR [esp], xmm0
  00146	68 a3 00 00 00	 push	 163			; 000000a3H
  0014b	a1 00 00 00 00	 mov	 eax, DWORD PTR ?virtual_cockpit_inst3d@@3PAUOBJECT_3D_INSTANCE@@A ; virtual_cockpit_inst3d
  00150	50		 push	 eax
  00151	e8 00 00 00 00	 call	 ?animate_entity_simple_keyframed_sub_objects@@YGXPAUOBJECT_3D_INSTANCE@@HM@Z ; animate_entity_simple_keyframed_sub_objects

; 615  : 
; 616  : 		animate_entity_simple_keyframed_sub_objects (virtual_cockpit_inst3d, OBJECT_3D_SUB_OBJECT_WSO_L_FOREARM, anim_frame);

  00156	51		 push	 ecx
  00157	f3 0f 10 45 fc	 movss	 xmm0, DWORD PTR _anim_frame$[ebp]
  0015c	f3 0f 11 04 24	 movss	 DWORD PTR [esp], xmm0
  00161	68 a5 00 00 00	 push	 165			; 000000a5H
  00166	a1 00 00 00 00	 mov	 eax, DWORD PTR ?virtual_cockpit_inst3d@@3PAUOBJECT_3D_INSTANCE@@A ; virtual_cockpit_inst3d
  0016b	50		 push	 eax
  0016c	e8 00 00 00 00	 call	 ?animate_entity_simple_keyframed_sub_objects@@YGXPAUOBJECT_3D_INSTANCE@@HM@Z ; animate_entity_simple_keyframed_sub_objects

; 617  : 
; 618  : 		animate_entity_simple_keyframed_sub_objects (virtual_cockpit_inst3d, OBJECT_3D_SUB_OBJECT_WSO_L_HAND, anim_frame);

  00171	51		 push	 ecx
  00172	f3 0f 10 45 fc	 movss	 xmm0, DWORD PTR _anim_frame$[ebp]
  00177	f3 0f 11 04 24	 movss	 DWORD PTR [esp], xmm0
  0017c	68 a6 00 00 00	 push	 166			; 000000a6H
  00181	a1 00 00 00 00	 mov	 eax, DWORD PTR ?virtual_cockpit_inst3d@@3PAUOBJECT_3D_INSTANCE@@A ; virtual_cockpit_inst3d
  00186	50		 push	 eax
  00187	e8 00 00 00 00	 call	 ?animate_entity_simple_keyframed_sub_objects@@YGXPAUOBJECT_3D_INSTANCE@@HM@Z ; animate_entity_simple_keyframed_sub_objects

; 619  : 
; 620  : 		animate_entity_simple_keyframed_sub_objects (virtual_cockpit_inst3d, OBJECT_3D_SUB_OBJECT_WSO_L_FINGER, anim_frame);

  0018c	51		 push	 ecx
  0018d	f3 0f 10 45 fc	 movss	 xmm0, DWORD PTR _anim_frame$[ebp]
  00192	f3 0f 11 04 24	 movss	 DWORD PTR [esp], xmm0
  00197	68 a7 00 00 00	 push	 167			; 000000a7H
  0019c	a1 00 00 00 00	 mov	 eax, DWORD PTR ?virtual_cockpit_inst3d@@3PAUOBJECT_3D_INSTANCE@@A ; virtual_cockpit_inst3d
  001a1	50		 push	 eax
  001a2	e8 00 00 00 00	 call	 ?animate_entity_simple_keyframed_sub_objects@@YGXPAUOBJECT_3D_INSTANCE@@HM@Z ; animate_entity_simple_keyframed_sub_objects

; 621  : 
; 622  : 		animate_entity_simple_keyframed_sub_objects (virtual_cockpit_inst3d, OBJECT_3D_SUB_OBJECT_WSO_L_THUMB, anim_frame);

  001a7	51		 push	 ecx
  001a8	f3 0f 10 45 fc	 movss	 xmm0, DWORD PTR _anim_frame$[ebp]
  001ad	f3 0f 11 04 24	 movss	 DWORD PTR [esp], xmm0
  001b2	68 a8 00 00 00	 push	 168			; 000000a8H
  001b7	a1 00 00 00 00	 mov	 eax, DWORD PTR ?virtual_cockpit_inst3d@@3PAUOBJECT_3D_INSTANCE@@A ; virtual_cockpit_inst3d
  001bc	50		 push	 eax
  001bd	e8 00 00 00 00	 call	 ?animate_entity_simple_keyframed_sub_objects@@YGXPAUOBJECT_3D_INSTANCE@@HM@Z ; animate_entity_simple_keyframed_sub_objects

; 623  : 	}
; 624  : 	else

  001c2	e9 96 00 00 00	 jmp	 $LN8@set_co_pil
$LN7@set_co_pil:

; 625  : 	{
; 626  : 		animate_entity_simple_keyframed_sub_objects (virtual_cockpit_inst3d, OBJECT_3D_SUB_OBJECT_WSO_L_SHOULDER, CO_PILOT_ANIM_DEFAULT);

  001c7	51		 push	 ecx
  001c8	f3 0f 10 05 00
	00 00 00	 movss	 xmm0, DWORD PTR __real@3d75c28f
  001d0	f3 0f 11 04 24	 movss	 DWORD PTR [esp], xmm0
  001d5	68 a3 00 00 00	 push	 163			; 000000a3H
  001da	a1 00 00 00 00	 mov	 eax, DWORD PTR ?virtual_cockpit_inst3d@@3PAUOBJECT_3D_INSTANCE@@A ; virtual_cockpit_inst3d
  001df	50		 push	 eax
  001e0	e8 00 00 00 00	 call	 ?animate_entity_simple_keyframed_sub_objects@@YGXPAUOBJECT_3D_INSTANCE@@HM@Z ; animate_entity_simple_keyframed_sub_objects

; 627  : 
; 628  : 		animate_entity_simple_keyframed_sub_objects (virtual_cockpit_inst3d, OBJECT_3D_SUB_OBJECT_WSO_L_FOREARM, CO_PILOT_ANIM_DEFAULT);

  001e5	51		 push	 ecx
  001e6	f3 0f 10 05 00
	00 00 00	 movss	 xmm0, DWORD PTR __real@3d75c28f
  001ee	f3 0f 11 04 24	 movss	 DWORD PTR [esp], xmm0
  001f3	68 a5 00 00 00	 push	 165			; 000000a5H
  001f8	a1 00 00 00 00	 mov	 eax, DWORD PTR ?virtual_cockpit_inst3d@@3PAUOBJECT_3D_INSTANCE@@A ; virtual_cockpit_inst3d
  001fd	50		 push	 eax
  001fe	e8 00 00 00 00	 call	 ?animate_entity_simple_keyframed_sub_objects@@YGXPAUOBJECT_3D_INSTANCE@@HM@Z ; animate_entity_simple_keyframed_sub_objects

; 629  : 
; 630  : 		animate_entity_simple_keyframed_sub_objects (virtual_cockpit_inst3d, OBJECT_3D_SUB_OBJECT_WSO_L_HAND, CO_PILOT_ANIM_DEFAULT);

  00203	51		 push	 ecx
  00204	f3 0f 10 05 00
	00 00 00	 movss	 xmm0, DWORD PTR __real@3d75c28f
  0020c	f3 0f 11 04 24	 movss	 DWORD PTR [esp], xmm0
  00211	68 a6 00 00 00	 push	 166			; 000000a6H
  00216	a1 00 00 00 00	 mov	 eax, DWORD PTR ?virtual_cockpit_inst3d@@3PAUOBJECT_3D_INSTANCE@@A ; virtual_cockpit_inst3d
  0021b	50		 push	 eax
  0021c	e8 00 00 00 00	 call	 ?animate_entity_simple_keyframed_sub_objects@@YGXPAUOBJECT_3D_INSTANCE@@HM@Z ; animate_entity_simple_keyframed_sub_objects

; 631  : 
; 632  : 		animate_entity_simple_keyframed_sub_objects (virtual_cockpit_inst3d, OBJECT_3D_SUB_OBJECT_WSO_L_FINGER, CO_PILOT_ANIM_DEFAULT);

  00221	51		 push	 ecx
  00222	f3 0f 10 05 00
	00 00 00	 movss	 xmm0, DWORD PTR __real@3d75c28f
  0022a	f3 0f 11 04 24	 movss	 DWORD PTR [esp], xmm0
  0022f	68 a7 00 00 00	 push	 167			; 000000a7H
  00234	a1 00 00 00 00	 mov	 eax, DWORD PTR ?virtual_cockpit_inst3d@@3PAUOBJECT_3D_INSTANCE@@A ; virtual_cockpit_inst3d
  00239	50		 push	 eax
  0023a	e8 00 00 00 00	 call	 ?animate_entity_simple_keyframed_sub_objects@@YGXPAUOBJECT_3D_INSTANCE@@HM@Z ; animate_entity_simple_keyframed_sub_objects

; 633  : 
; 634  : 		animate_entity_simple_keyframed_sub_objects (virtual_cockpit_inst3d, OBJECT_3D_SUB_OBJECT_WSO_L_THUMB, CO_PILOT_ANIM_DEFAULT);

  0023f	51		 push	 ecx
  00240	f3 0f 10 05 00
	00 00 00	 movss	 xmm0, DWORD PTR __real@3d75c28f
  00248	f3 0f 11 04 24	 movss	 DWORD PTR [esp], xmm0
  0024d	68 a8 00 00 00	 push	 168			; 000000a8H
  00252	a1 00 00 00 00	 mov	 eax, DWORD PTR ?virtual_cockpit_inst3d@@3PAUOBJECT_3D_INSTANCE@@A ; virtual_cockpit_inst3d
  00257	50		 push	 eax
  00258	e8 00 00 00 00	 call	 ?animate_entity_simple_keyframed_sub_objects@@YGXPAUOBJECT_3D_INSTANCE@@HM@Z ; animate_entity_simple_keyframed_sub_objects
$LN8@set_co_pil:

; 635  : 	}
; 636  : 
; 637  : 	////////////////////////////////////////
; 638  : 
; 639  : 	if (anim->animate_right_arm)

  0025d	8b 45 08	 mov	 eax, DWORD PTR _anim$[ebp]
  00260	8b 48 08	 mov	 ecx, DWORD PTR [eax+8]
  00263	c1 e9 03	 shr	 ecx, 3
  00266	83 e1 01	 and	 ecx, 1
  00269	0f 84 8c 00 00
	00		 je	 $LN9@set_co_pil

; 640  : 	{
; 641  : 		animate_entity_simple_keyframed_sub_objects (virtual_cockpit_inst3d, OBJECT_3D_SUB_OBJECT_WSO_R_SHOULDER, anim_frame);

  0026f	51		 push	 ecx
  00270	f3 0f 10 45 fc	 movss	 xmm0, DWORD PTR _anim_frame$[ebp]
  00275	f3 0f 11 04 24	 movss	 DWORD PTR [esp], xmm0
  0027a	68 a4 00 00 00	 push	 164			; 000000a4H
  0027f	a1 00 00 00 00	 mov	 eax, DWORD PTR ?virtual_cockpit_inst3d@@3PAUOBJECT_3D_INSTANCE@@A ; virtual_cockpit_inst3d
  00284	50		 push	 eax
  00285	e8 00 00 00 00	 call	 ?animate_entity_simple_keyframed_sub_objects@@YGXPAUOBJECT_3D_INSTANCE@@HM@Z ; animate_entity_simple_keyframed_sub_objects

; 642  : 
; 643  : 		animate_entity_simple_keyframed_sub_objects (virtual_cockpit_inst3d, OBJECT_3D_SUB_OBJECT_WSO_R_FOREARM, anim_frame);

  0028a	51		 push	 ecx
  0028b	f3 0f 10 45 fc	 movss	 xmm0, DWORD PTR _anim_frame$[ebp]
  00290	f3 0f 11 04 24	 movss	 DWORD PTR [esp], xmm0
  00295	68 a9 00 00 00	 push	 169			; 000000a9H
  0029a	a1 00 00 00 00	 mov	 eax, DWORD PTR ?virtual_cockpit_inst3d@@3PAUOBJECT_3D_INSTANCE@@A ; virtual_cockpit_inst3d
  0029f	50		 push	 eax
  002a0	e8 00 00 00 00	 call	 ?animate_entity_simple_keyframed_sub_objects@@YGXPAUOBJECT_3D_INSTANCE@@HM@Z ; animate_entity_simple_keyframed_sub_objects

; 644  : 
; 645  : 		animate_entity_simple_keyframed_sub_objects (virtual_cockpit_inst3d, OBJECT_3D_SUB_OBJECT_WSO_R_HAND, anim_frame);

  002a5	51		 push	 ecx
  002a6	f3 0f 10 45 fc	 movss	 xmm0, DWORD PTR _anim_frame$[ebp]
  002ab	f3 0f 11 04 24	 movss	 DWORD PTR [esp], xmm0
  002b0	68 aa 00 00 00	 push	 170			; 000000aaH
  002b5	a1 00 00 00 00	 mov	 eax, DWORD PTR ?virtual_cockpit_inst3d@@3PAUOBJECT_3D_INSTANCE@@A ; virtual_cockpit_inst3d
  002ba	50		 push	 eax
  002bb	e8 00 00 00 00	 call	 ?animate_entity_simple_keyframed_sub_objects@@YGXPAUOBJECT_3D_INSTANCE@@HM@Z ; animate_entity_simple_keyframed_sub_objects

; 646  : 
; 647  : 		animate_entity_simple_keyframed_sub_objects (virtual_cockpit_inst3d, OBJECT_3D_SUB_OBJECT_WSO_R_FINGER, anim_frame);

  002c0	51		 push	 ecx
  002c1	f3 0f 10 45 fc	 movss	 xmm0, DWORD PTR _anim_frame$[ebp]
  002c6	f3 0f 11 04 24	 movss	 DWORD PTR [esp], xmm0
  002cb	68 ab 00 00 00	 push	 171			; 000000abH
  002d0	a1 00 00 00 00	 mov	 eax, DWORD PTR ?virtual_cockpit_inst3d@@3PAUOBJECT_3D_INSTANCE@@A ; virtual_cockpit_inst3d
  002d5	50		 push	 eax
  002d6	e8 00 00 00 00	 call	 ?animate_entity_simple_keyframed_sub_objects@@YGXPAUOBJECT_3D_INSTANCE@@HM@Z ; animate_entity_simple_keyframed_sub_objects

; 648  : 
; 649  : 		animate_entity_simple_keyframed_sub_objects (virtual_cockpit_inst3d, OBJECT_3D_SUB_OBJECT_WSO_R_THUMB, anim_frame);

  002db	51		 push	 ecx
  002dc	f3 0f 10 45 fc	 movss	 xmm0, DWORD PTR _anim_frame$[ebp]
  002e1	f3 0f 11 04 24	 movss	 DWORD PTR [esp], xmm0
  002e6	68 ac 00 00 00	 push	 172			; 000000acH
  002eb	a1 00 00 00 00	 mov	 eax, DWORD PTR ?virtual_cockpit_inst3d@@3PAUOBJECT_3D_INSTANCE@@A ; virtual_cockpit_inst3d
  002f0	50		 push	 eax
  002f1	e8 00 00 00 00	 call	 ?animate_entity_simple_keyframed_sub_objects@@YGXPAUOBJECT_3D_INSTANCE@@HM@Z ; animate_entity_simple_keyframed_sub_objects

; 650  : 	}
; 651  : 	else

  002f6	e9 96 00 00 00	 jmp	 $LN10@set_co_pil
$LN9@set_co_pil:

; 652  : 	{
; 653  : 		animate_entity_simple_keyframed_sub_objects (virtual_cockpit_inst3d, OBJECT_3D_SUB_OBJECT_WSO_R_SHOULDER, CO_PILOT_ANIM_DEFAULT);

  002fb	51		 push	 ecx
  002fc	f3 0f 10 05 00
	00 00 00	 movss	 xmm0, DWORD PTR __real@3d75c28f
  00304	f3 0f 11 04 24	 movss	 DWORD PTR [esp], xmm0
  00309	68 a4 00 00 00	 push	 164			; 000000a4H
  0030e	a1 00 00 00 00	 mov	 eax, DWORD PTR ?virtual_cockpit_inst3d@@3PAUOBJECT_3D_INSTANCE@@A ; virtual_cockpit_inst3d
  00313	50		 push	 eax
  00314	e8 00 00 00 00	 call	 ?animate_entity_simple_keyframed_sub_objects@@YGXPAUOBJECT_3D_INSTANCE@@HM@Z ; animate_entity_simple_keyframed_sub_objects

; 654  : 
; 655  : 		animate_entity_simple_keyframed_sub_objects (virtual_cockpit_inst3d, OBJECT_3D_SUB_OBJECT_WSO_R_FOREARM, CO_PILOT_ANIM_DEFAULT);

  00319	51		 push	 ecx
  0031a	f3 0f 10 05 00
	00 00 00	 movss	 xmm0, DWORD PTR __real@3d75c28f
  00322	f3 0f 11 04 24	 movss	 DWORD PTR [esp], xmm0
  00327	68 a9 00 00 00	 push	 169			; 000000a9H
  0032c	a1 00 00 00 00	 mov	 eax, DWORD PTR ?virtual_cockpit_inst3d@@3PAUOBJECT_3D_INSTANCE@@A ; virtual_cockpit_inst3d
  00331	50		 push	 eax
  00332	e8 00 00 00 00	 call	 ?animate_entity_simple_keyframed_sub_objects@@YGXPAUOBJECT_3D_INSTANCE@@HM@Z ; animate_entity_simple_keyframed_sub_objects

; 656  : 
; 657  : 		animate_entity_simple_keyframed_sub_objects (virtual_cockpit_inst3d, OBJECT_3D_SUB_OBJECT_WSO_R_HAND, CO_PILOT_ANIM_DEFAULT);

  00337	51		 push	 ecx
  00338	f3 0f 10 05 00
	00 00 00	 movss	 xmm0, DWORD PTR __real@3d75c28f
  00340	f3 0f 11 04 24	 movss	 DWORD PTR [esp], xmm0
  00345	68 aa 00 00 00	 push	 170			; 000000aaH
  0034a	a1 00 00 00 00	 mov	 eax, DWORD PTR ?virtual_cockpit_inst3d@@3PAUOBJECT_3D_INSTANCE@@A ; virtual_cockpit_inst3d
  0034f	50		 push	 eax
  00350	e8 00 00 00 00	 call	 ?animate_entity_simple_keyframed_sub_objects@@YGXPAUOBJECT_3D_INSTANCE@@HM@Z ; animate_entity_simple_keyframed_sub_objects

; 658  : 
; 659  : 		animate_entity_simple_keyframed_sub_objects (virtual_cockpit_inst3d, OBJECT_3D_SUB_OBJECT_WSO_R_FINGER, CO_PILOT_ANIM_DEFAULT);

  00355	51		 push	 ecx
  00356	f3 0f 10 05 00
	00 00 00	 movss	 xmm0, DWORD PTR __real@3d75c28f
  0035e	f3 0f 11 04 24	 movss	 DWORD PTR [esp], xmm0
  00363	68 ab 00 00 00	 push	 171			; 000000abH
  00368	a1 00 00 00 00	 mov	 eax, DWORD PTR ?virtual_cockpit_inst3d@@3PAUOBJECT_3D_INSTANCE@@A ; virtual_cockpit_inst3d
  0036d	50		 push	 eax
  0036e	e8 00 00 00 00	 call	 ?animate_entity_simple_keyframed_sub_objects@@YGXPAUOBJECT_3D_INSTANCE@@HM@Z ; animate_entity_simple_keyframed_sub_objects

; 660  : 
; 661  : 		animate_entity_simple_keyframed_sub_objects (virtual_cockpit_inst3d, OBJECT_3D_SUB_OBJECT_WSO_R_THUMB, CO_PILOT_ANIM_DEFAULT);

  00373	51		 push	 ecx
  00374	f3 0f 10 05 00
	00 00 00	 movss	 xmm0, DWORD PTR __real@3d75c28f
  0037c	f3 0f 11 04 24	 movss	 DWORD PTR [esp], xmm0
  00381	68 ac 00 00 00	 push	 172			; 000000acH
  00386	a1 00 00 00 00	 mov	 eax, DWORD PTR ?virtual_cockpit_inst3d@@3PAUOBJECT_3D_INSTANCE@@A ; virtual_cockpit_inst3d
  0038b	50		 push	 eax
  0038c	e8 00 00 00 00	 call	 ?animate_entity_simple_keyframed_sub_objects@@YGXPAUOBJECT_3D_INSTANCE@@HM@Z ; animate_entity_simple_keyframed_sub_objects
$LN10@set_co_pil:

; 662  : 	}
; 663  : 
; 664  : 	////////////////////////////////////////
; 665  : 
; 666  : 	if (anim->animate_legs)

  00391	8b 45 08	 mov	 eax, DWORD PTR _anim$[ebp]
  00394	8b 48 08	 mov	 ecx, DWORD PTR [eax+8]
  00397	c1 e9 04	 shr	 ecx, 4
  0039a	83 e1 01	 and	 ecx, 1
  0039d	74 1d		 je	 SHORT $LN11@set_co_pil

; 667  : 	{
; 668  : 		animate_entity_simple_keyframed_sub_objects (virtual_cockpit_inst3d, OBJECT_3D_SUB_OBJECT_WSO_LEG, anim_frame);

  0039f	51		 push	 ecx
  003a0	f3 0f 10 45 fc	 movss	 xmm0, DWORD PTR _anim_frame$[ebp]
  003a5	f3 0f 11 04 24	 movss	 DWORD PTR [esp], xmm0
  003aa	68 b1 00 00 00	 push	 177			; 000000b1H
  003af	a1 00 00 00 00	 mov	 eax, DWORD PTR ?virtual_cockpit_inst3d@@3PAUOBJECT_3D_INSTANCE@@A ; virtual_cockpit_inst3d
  003b4	50		 push	 eax
  003b5	e8 00 00 00 00	 call	 ?animate_entity_simple_keyframed_sub_objects@@YGXPAUOBJECT_3D_INSTANCE@@HM@Z ; animate_entity_simple_keyframed_sub_objects

; 669  : 	}
; 670  : 	else

  003ba	eb 1e		 jmp	 SHORT $LN12@set_co_pil
$LN11@set_co_pil:

; 671  : 	{
; 672  : 		animate_entity_simple_keyframed_sub_objects (virtual_cockpit_inst3d, OBJECT_3D_SUB_OBJECT_WSO_LEG, CO_PILOT_ANIM_DEFAULT);

  003bc	51		 push	 ecx
  003bd	f3 0f 10 05 00
	00 00 00	 movss	 xmm0, DWORD PTR __real@3d75c28f
  003c5	f3 0f 11 04 24	 movss	 DWORD PTR [esp], xmm0
  003ca	68 b1 00 00 00	 push	 177			; 000000b1H
  003cf	a1 00 00 00 00	 mov	 eax, DWORD PTR ?virtual_cockpit_inst3d@@3PAUOBJECT_3D_INSTANCE@@A ; virtual_cockpit_inst3d
  003d4	50		 push	 eax
  003d5	e8 00 00 00 00	 call	 ?animate_entity_simple_keyframed_sub_objects@@YGXPAUOBJECT_3D_INSTANCE@@HM@Z ; animate_entity_simple_keyframed_sub_objects
$LN12@set_co_pil:

; 673  : 	}
; 674  : }

  003da	5f		 pop	 edi
  003db	5e		 pop	 esi
  003dc	5b		 pop	 ebx
  003dd	8b e5		 mov	 esp, ebp
  003df	5d		 pop	 ebp
  003e0	c2 08 00	 ret	 8
?set_co_pilot_animation@@YGXPAUCO_PILOT_ANIM_DATA@@M@Z ENDP ; set_co_pilot_animation
_TEXT	ENDS
; Function compile flags: /Odtp /ZI
; File c:\users\nhv90\projects\eech\aphavoc\source\gunships\cockpits\viper\vi_cpg.c
;	COMDAT ?set_co_pilot_collective_position@@YGXM@Z
_TEXT	SEGMENT
tv71 = -76						; size = 4
tv72 = -72						; size = 4
_anim_frame$ = -4					; size = 4
_collective$ = 8					; size = 4
?set_co_pilot_collective_position@@YGXM@Z PROC		; set_co_pilot_collective_position, COMDAT

; 546  : {

  00000	55		 push	 ebp
  00001	8b ec		 mov	 ebp, esp
  00003	83 ec 4c	 sub	 esp, 76			; 0000004cH
  00006	53		 push	 ebx
  00007	56		 push	 esi
  00008	57		 push	 edi

; 547  : 	float
; 548  : 		anim_frame;
; 549  : 
; 550  : 	anim_frame = 1.0 - collective;

  00009	f3 0f 5a 45 08	 cvtss2sd xmm0, DWORD PTR _collective$[ebp]
  0000e	f2 0f 10 0d 00
	00 00 00	 movsd	 xmm1, QWORD PTR __real@3ff0000000000000
  00016	f2 0f 5c c8	 subsd	 xmm1, xmm0
  0001a	f2 0f 5a c1	 cvtsd2ss xmm0, xmm1
  0001e	f3 0f 11 45 fc	 movss	 DWORD PTR _anim_frame$[ebp], xmm0

; 551  : 
; 552  : 	anim_frame *= CO_PILOT_COLLECTIVE_ANIM_END - CO_PILOT_COLLECTIVE_ANIM_START;

  00023	f3 0f 10 45 fc	 movss	 xmm0, DWORD PTR _anim_frame$[ebp]
  00028	f3 0f 59 05 00
	00 00 00	 mulss	 xmm0, DWORD PTR __real@3d23d70a
  00030	f3 0f 11 45 fc	 movss	 DWORD PTR _anim_frame$[ebp], xmm0

; 553  : 
; 554  : 	anim_frame += CO_PILOT_COLLECTIVE_ANIM_START;

  00035	f3 0f 10 45 fc	 movss	 xmm0, DWORD PTR _anim_frame$[ebp]
  0003a	f3 0f 58 05 00
	00 00 00	 addss	 xmm0, DWORD PTR __real@00000000
  00042	f3 0f 11 45 fc	 movss	 DWORD PTR _anim_frame$[ebp], xmm0

; 555  : 
; 556  : 	anim_frame = bound (anim_frame, CO_PILOT_COLLECTIVE_ANIM_START, CO_PILOT_COLLECTIVE_ANIM_END);

  00047	0f 57 c0	 xorps	 xmm0, xmm0
  0004a	0f 2f 45 fc	 comiss	 xmm0, DWORD PTR _anim_frame$[ebp]
  0004e	76 0a		 jbe	 SHORT $LN5@set_co_pil
  00050	0f 57 c0	 xorps	 xmm0, xmm0
  00053	f3 0f 11 45 b8	 movss	 DWORD PTR tv72[ebp], xmm0
  00058	eb 31		 jmp	 SHORT $LN6@set_co_pil
$LN5@set_co_pil:
  0005a	f3 0f 10 45 fc	 movss	 xmm0, DWORD PTR _anim_frame$[ebp]
  0005f	0f 2f 05 00 00
	00 00		 comiss	 xmm0, DWORD PTR __real@3d23d70a
  00066	76 0f		 jbe	 SHORT $LN3@set_co_pil
  00068	f3 0f 10 05 00
	00 00 00	 movss	 xmm0, DWORD PTR __real@3d23d70a
  00070	f3 0f 11 45 b4	 movss	 DWORD PTR tv71[ebp], xmm0
  00075	eb 0a		 jmp	 SHORT $LN4@set_co_pil
$LN3@set_co_pil:
  00077	f3 0f 10 45 fc	 movss	 xmm0, DWORD PTR _anim_frame$[ebp]
  0007c	f3 0f 11 45 b4	 movss	 DWORD PTR tv71[ebp], xmm0
$LN4@set_co_pil:
  00081	f3 0f 10 45 b4	 movss	 xmm0, DWORD PTR tv71[ebp]
  00086	f3 0f 11 45 b8	 movss	 DWORD PTR tv72[ebp], xmm0
$LN6@set_co_pil:
  0008b	f3 0f 10 45 b8	 movss	 xmm0, DWORD PTR tv72[ebp]
  00090	f3 0f 11 45 fc	 movss	 DWORD PTR _anim_frame$[ebp], xmm0

; 557  : 
; 558  : 	animate_entity_simple_keyframed_sub_objects (virtual_cockpit_inst3d, OBJECT_3D_SUB_OBJECT_COCKPIT_WSO_COLLECTIVE, anim_frame);

  00095	51		 push	 ecx
  00096	f3 0f 10 45 fc	 movss	 xmm0, DWORD PTR _anim_frame$[ebp]
  0009b	f3 0f 11 04 24	 movss	 DWORD PTR [esp], xmm0
  000a0	68 9a 00 00 00	 push	 154			; 0000009aH
  000a5	a1 00 00 00 00	 mov	 eax, DWORD PTR ?virtual_cockpit_inst3d@@3PAUOBJECT_3D_INSTANCE@@A ; virtual_cockpit_inst3d
  000aa	50		 push	 eax
  000ab	e8 00 00 00 00	 call	 ?animate_entity_simple_keyframed_sub_objects@@YGXPAUOBJECT_3D_INSTANCE@@HM@Z ; animate_entity_simple_keyframed_sub_objects

; 559  : }

  000b0	5f		 pop	 edi
  000b1	5e		 pop	 esi
  000b2	5b		 pop	 ebx
  000b3	8b e5		 mov	 esp, ebp
  000b5	5d		 pop	 ebp
  000b6	c2 04 00	 ret	 4
?set_co_pilot_collective_position@@YGXM@Z ENDP		; set_co_pilot_collective_position
_TEXT	ENDS
; Function compile flags: /Odtp /ZI
; File c:\users\nhv90\projects\eech\aphavoc\source\gunships\cockpits\viper\vi_cpg.c
;	COMDAT ?set_co_pilot_static_right_hand_on_cyclic_visibility@@YGXH@Z
_TEXT	SEGMENT
tv69 = -124						; size = 4
_search_data$ = -56					; size = 56
_visible$ = 8						; size = 4
?set_co_pilot_static_right_hand_on_cyclic_visibility@@YGXH@Z PROC ; set_co_pilot_static_right_hand_on_cyclic_visibility, COMDAT

; 518  : {

  00000	55		 push	 ebp
  00001	8b ec		 mov	 ebp, esp
  00003	83 ec 7c	 sub	 esp, 124		; 0000007cH
  00006	53		 push	 ebx
  00007	56		 push	 esi
  00008	57		 push	 edi

; 519  : 	object_3d_sub_object_search_data
; 520  : 		search_data;
; 521  : 
; 522  : 	search_data.search_depth = 0;

  00009	c7 45 d0 00 00
	00 00		 mov	 DWORD PTR _search_data$[ebp+8], 0

; 523  : 	search_data.search_object = virtual_cockpit_inst3d;

  00010	a1 00 00 00 00	 mov	 eax, DWORD PTR ?virtual_cockpit_inst3d@@3PAUOBJECT_3D_INSTANCE@@A ; virtual_cockpit_inst3d
  00015	89 45 c8	 mov	 DWORD PTR _search_data$[ebp], eax

; 524  : 	search_data.sub_object_index = OBJECT_3D_SUB_OBJECT_WSO_R_HAND;

  00018	c7 45 d4 aa 00
	00 00		 mov	 DWORD PTR _search_data$[ebp+12], 170 ; 000000aaH

; 525  : 
; 526  : 	if (find_object_3d_sub_object (&search_data) == SUB_OBJECT_SEARCH_RESULT_OBJECT_FOUND)

  0001f	8d 45 c8	 lea	 eax, DWORD PTR _search_data$[ebp]
  00022	50		 push	 eax
  00023	e8 00 00 00 00	 call	 ?find_object_3d_sub_object@@YG?AW4SUB_OBJECT_SEARCH_RESULT_TYPES@@PAUOBJECT_3D_SUB_OBJECT_SEARCH_DATA@@@Z ; find_object_3d_sub_object
  00028	83 f8 01	 cmp	 eax, 1
  0002b	75 2d		 jne	 SHORT $LN2@set_co_pil

; 527  : 	{
; 528  : 		search_data.result_sub_object->visible_object = !visible;

  0002d	83 7d 08 00	 cmp	 DWORD PTR _visible$[ebp], 0
  00031	75 09		 jne	 SHORT $LN5@set_co_pil
  00033	c7 45 84 01 00
	00 00		 mov	 DWORD PTR tv69[ebp], 1
  0003a	eb 07		 jmp	 SHORT $LN6@set_co_pil
$LN5@set_co_pil:
  0003c	c7 45 84 00 00
	00 00		 mov	 DWORD PTR tv69[ebp], 0
$LN6@set_co_pil:
  00043	8b 45 84	 mov	 eax, DWORD PTR tv69[ebp]
  00046	83 e0 01	 and	 eax, 1
  00049	8b 4d cc	 mov	 ecx, DWORD PTR _search_data$[ebp+4]
  0004c	8b 51 08	 mov	 edx, DWORD PTR [ecx+8]
  0004f	83 e2 fe	 and	 edx, -2			; fffffffeH
  00052	0b d0		 or	 edx, eax
  00054	8b 45 cc	 mov	 eax, DWORD PTR _search_data$[ebp+4]
  00057	89 50 08	 mov	 DWORD PTR [eax+8], edx
$LN2@set_co_pil:

; 529  : 	}
; 530  : 
; 531  : 	search_data.search_depth = 0;

  0005a	c7 45 d0 00 00
	00 00		 mov	 DWORD PTR _search_data$[ebp+8], 0

; 532  : 	search_data.search_object = virtual_cockpit_inst3d;

  00061	a1 00 00 00 00	 mov	 eax, DWORD PTR ?virtual_cockpit_inst3d@@3PAUOBJECT_3D_INSTANCE@@A ; virtual_cockpit_inst3d
  00066	89 45 c8	 mov	 DWORD PTR _search_data$[ebp], eax

; 533  : 	search_data.sub_object_index = OBJECT_3D_SUB_OBJECT_COCKPIT_WSO_HAND_STATIC;

  00069	c7 45 d4 d0 00
	00 00		 mov	 DWORD PTR _search_data$[ebp+12], 208 ; 000000d0H

; 534  : 
; 535  : 	if (find_object_3d_sub_object (&search_data) == SUB_OBJECT_SEARCH_RESULT_OBJECT_FOUND)

  00070	8d 45 c8	 lea	 eax, DWORD PTR _search_data$[ebp]
  00073	50		 push	 eax
  00074	e8 00 00 00 00	 call	 ?find_object_3d_sub_object@@YG?AW4SUB_OBJECT_SEARCH_RESULT_TYPES@@PAUOBJECT_3D_SUB_OBJECT_SEARCH_DATA@@@Z ; find_object_3d_sub_object
  00079	83 f8 01	 cmp	 eax, 1
  0007c	75 17		 jne	 SHORT $LN1@set_co_pil

; 536  : 	{
; 537  : 		search_data.result_sub_object->visible_object = visible;

  0007e	8b 45 08	 mov	 eax, DWORD PTR _visible$[ebp]
  00081	83 e0 01	 and	 eax, 1
  00084	8b 4d cc	 mov	 ecx, DWORD PTR _search_data$[ebp+4]
  00087	8b 51 08	 mov	 edx, DWORD PTR [ecx+8]
  0008a	83 e2 fe	 and	 edx, -2			; fffffffeH
  0008d	0b d0		 or	 edx, eax
  0008f	8b 45 cc	 mov	 eax, DWORD PTR _search_data$[ebp+4]
  00092	89 50 08	 mov	 DWORD PTR [eax+8], edx
$LN1@set_co_pil:

; 538  : 	}
; 539  : }

  00095	5f		 pop	 edi
  00096	5e		 pop	 esi
  00097	5b		 pop	 ebx
  00098	8b e5		 mov	 esp, ebp
  0009a	5d		 pop	 ebp
  0009b	c2 04 00	 ret	 4
?set_co_pilot_static_right_hand_on_cyclic_visibility@@YGXH@Z ENDP ; set_co_pilot_static_right_hand_on_cyclic_visibility
_TEXT	ENDS
; Function compile flags: /Odtp /ZI
; File c:\users\nhv90\projects\eech\aphavoc\source\gunships\cockpits\viper\vi_cpg.c
;	COMDAT ?get_viper_co_pilot_head_pitch_datum@@YGMXZ
_TEXT	SEGMENT
_search$ = -60						; size = 56
_relative_pitch$ = -4					; size = 4
?get_viper_co_pilot_head_pitch_datum@@YGMXZ PROC	; get_viper_co_pilot_head_pitch_datum, COMDAT

; 1319 : {

  00000	55		 push	 ebp
  00001	8b ec		 mov	 ebp, esp
  00003	83 ec 7c	 sub	 esp, 124		; 0000007cH
  00006	53		 push	 ebx
  00007	56		 push	 esi
  00008	57		 push	 edi

; 1320 : 	float
; 1321 : 		relative_pitch;
; 1322 : 
; 1323 : 	object_3d_sub_object_search_data
; 1324 : 		search;
; 1325 : 
; 1326 : 	ASSERT (get_gunship_entity ());

  00009	83 3d 00 00 00
	00 00		 cmp	 DWORD PTR ?gunship_entity@@3PAUENTITY@@A, 0 ; gunship_entity
  00010	75 18		 jne	 SHORT $LN2@get_viper_
  00012	a1 00 00 00 00	 mov	 eax, DWORD PTR ?__LINE__Var@?0??get_viper_co_pilot_head_pitch_datum@@YGMXZ@4JA
  00017	83 c0 07	 add	 eax, 7
  0001a	50		 push	 eax
  0001b	68 00 00 00 00	 push	 OFFSET ??_C@_0EN@GDIPHLNA@c?3?2users?2nhv90?2projects?2eech?2ap@
  00020	68 00 00 00 00	 push	 OFFSET ??_C@_0BG@EANNPEON@get_gunship_entity?5?$CI?$CJ@
  00025	e8 00 00 00 00	 call	 ?process_assert@@YGXPBD0H@Z ; process_assert
$LN2@get_viper_:

; 1327 : 
; 1328 : 	ASSERT (virtual_cockpit_inst3d);

  0002a	83 3d 00 00 00
	00 00		 cmp	 DWORD PTR ?virtual_cockpit_inst3d@@3PAUOBJECT_3D_INSTANCE@@A, 0 ; virtual_cockpit_inst3d
  00031	75 18		 jne	 SHORT $LN3@get_viper_
  00033	a1 00 00 00 00	 mov	 eax, DWORD PTR ?__LINE__Var@?0??get_viper_co_pilot_head_pitch_datum@@YGMXZ@4JA
  00038	83 c0 09	 add	 eax, 9
  0003b	50		 push	 eax
  0003c	68 00 00 00 00	 push	 OFFSET ??_C@_0EN@GDIPHLNA@c?3?2users?2nhv90?2projects?2eech?2ap@
  00041	68 00 00 00 00	 push	 OFFSET ??_C@_0BH@OJOOJLIP@virtual_cockpit_inst3d@
  00046	e8 00 00 00 00	 call	 ?process_assert@@YGXPBD0H@Z ; process_assert
$LN3@get_viper_:

; 1329 : 
; 1330 : 	search.search_depth = 0;

  0004b	c7 45 cc 00 00
	00 00		 mov	 DWORD PTR _search$[ebp+8], 0

; 1331 : 	search.search_object = virtual_cockpit_inst3d;

  00052	a1 00 00 00 00	 mov	 eax, DWORD PTR ?virtual_cockpit_inst3d@@3PAUOBJECT_3D_INSTANCE@@A ; virtual_cockpit_inst3d
  00057	89 45 c4	 mov	 DWORD PTR _search$[ebp], eax

; 1332 : 	search.sub_object_index = OBJECT_3D_SUB_OBJECT_WSO_HEAD;

  0005a	c7 45 d0 ad 00
	00 00		 mov	 DWORD PTR _search$[ebp+12], 173 ; 000000adH

; 1333 : 
; 1334 : 	if (find_object_3d_sub_object (&search) == SUB_OBJECT_SEARCH_RESULT_OBJECT_FOUND)

  00061	8d 45 c4	 lea	 eax, DWORD PTR _search$[ebp]
  00064	50		 push	 eax
  00065	e8 00 00 00 00	 call	 ?find_object_3d_sub_object@@YG?AW4SUB_OBJECT_SEARCH_RESULT_TYPES@@PAUOBJECT_3D_SUB_OBJECT_SEARCH_DATA@@@Z ; find_object_3d_sub_object
  0006a	83 f8 01	 cmp	 eax, 1
  0006d	75 0f		 jne	 SHORT $LN4@get_viper_

; 1335 : 	{
; 1336 : 		relative_pitch = search.result_sub_object->relative_pitch;

  0006f	8b 45 c8	 mov	 eax, DWORD PTR _search$[ebp+4]
  00072	f3 0f 10 40 1c	 movss	 xmm0, DWORD PTR [eax+28]
  00077	f3 0f 11 45 fc	 movss	 DWORD PTR _relative_pitch$[ebp], xmm0

; 1337 : 	}
; 1338 : 	else

  0007c	eb 0d		 jmp	 SHORT $LN5@get_viper_
$LN4@get_viper_:

; 1339 : 	{
; 1340 : 		debug_fatal ("Failed to locate co-pilot's head in virtual cockpit");

  0007e	68 00 00 00 00	 push	 OFFSET ??_C@_0DE@MOLAKHGN@Failed?5to?5locate?5co?9pilot?8s?5hea@
  00083	e8 00 00 00 00	 call	 ?debug_fatal@@YAXPBDZZ	; debug_fatal
  00088	83 c4 04	 add	 esp, 4
$LN5@get_viper_:

; 1341 : 	}
; 1342 : 
; 1343 : 	return (relative_pitch);

  0008b	d9 45 fc	 fld	 DWORD PTR _relative_pitch$[ebp]

; 1344 : }

  0008e	5f		 pop	 edi
  0008f	5e		 pop	 esi
  00090	5b		 pop	 ebx
  00091	8b e5		 mov	 esp, ebp
  00093	5d		 pop	 ebp
  00094	c3		 ret	 0
?get_viper_co_pilot_head_pitch_datum@@YGMXZ ENDP	; get_viper_co_pilot_head_pitch_datum
_TEXT	ENDS
; Function compile flags: /Odtp /ZI
; File c:\users\nhv90\projects\eech\aphavoc\source\gunships\cockpits\viper\vi_cpg.c
;	COMDAT ?set_viper_co_pilot_head_position@@YGXXZ
_TEXT	SEGMENT
tv76 = -128						; size = 4
_search$ = -60						; size = 56
_show_co_pilot_head$ = -4				; size = 4
?set_viper_co_pilot_head_position@@YGXXZ PROC		; set_viper_co_pilot_head_position, COMDAT

; 1264 : {

  00000	55		 push	 ebp
  00001	8b ec		 mov	 ebp, esp
  00003	81 ec 80 00 00
	00		 sub	 esp, 128		; 00000080H
  00009	53		 push	 ebx
  0000a	56		 push	 esi
  0000b	57		 push	 edi

; 1265 : 	int
; 1266 : 		show_co_pilot_head;
; 1267 : 
; 1268 : 	object_3d_sub_object_search_data
; 1269 : 		search;
; 1270 : 
; 1271 : 	ASSERT (get_gunship_entity ());

  0000c	83 3d 00 00 00
	00 00		 cmp	 DWORD PTR ?gunship_entity@@3PAUENTITY@@A, 0 ; gunship_entity
  00013	75 18		 jne	 SHORT $LN2@set_viper_
  00015	a1 00 00 00 00	 mov	 eax, DWORD PTR ?__LINE__Var@?0??set_viper_co_pilot_head_position@@YGXXZ@4JA
  0001a	83 c0 07	 add	 eax, 7
  0001d	50		 push	 eax
  0001e	68 00 00 00 00	 push	 OFFSET ??_C@_0EN@GDIPHLNA@c?3?2users?2nhv90?2projects?2eech?2ap@
  00023	68 00 00 00 00	 push	 OFFSET ??_C@_0BG@EANNPEON@get_gunship_entity?5?$CI?$CJ@
  00028	e8 00 00 00 00	 call	 ?process_assert@@YGXPBD0H@Z ; process_assert
$LN2@set_viper_:

; 1272 : 
; 1273 : 	ASSERT (virtual_cockpit_inst3d);

  0002d	83 3d 00 00 00
	00 00		 cmp	 DWORD PTR ?virtual_cockpit_inst3d@@3PAUOBJECT_3D_INSTANCE@@A, 0 ; virtual_cockpit_inst3d
  00034	75 18		 jne	 SHORT $LN3@set_viper_
  00036	a1 00 00 00 00	 mov	 eax, DWORD PTR ?__LINE__Var@?0??set_viper_co_pilot_head_position@@YGXXZ@4JA
  0003b	83 c0 09	 add	 eax, 9
  0003e	50		 push	 eax
  0003f	68 00 00 00 00	 push	 OFFSET ??_C@_0EN@GDIPHLNA@c?3?2users?2nhv90?2projects?2eech?2ap@
  00044	68 00 00 00 00	 push	 OFFSET ??_C@_0BH@OJOOJLIP@virtual_cockpit_inst3d@
  00049	e8 00 00 00 00	 call	 ?process_assert@@YGXPBD0H@Z ; process_assert
$LN3@set_viper_:

; 1274 : 
; 1275 : 	show_co_pilot_head = !get_co_pilot_viewpoint_virtual_cockpit ();

  0004e	e8 00 00 00 00	 call	 ?get_co_pilot_viewpoint_virtual_cockpit@@YGHXZ ; get_co_pilot_viewpoint_virtual_cockpit
  00053	85 c0		 test	 eax, eax
  00055	75 09		 jne	 SHORT $LN12@set_viper_
  00057	c7 45 80 01 00
	00 00		 mov	 DWORD PTR tv76[ebp], 1
  0005e	eb 07		 jmp	 SHORT $LN13@set_viper_
$LN12@set_viper_:
  00060	c7 45 80 00 00
	00 00		 mov	 DWORD PTR tv76[ebp], 0
$LN13@set_viper_:
  00067	8b 45 80	 mov	 eax, DWORD PTR tv76[ebp]
  0006a	89 45 fc	 mov	 DWORD PTR _show_co_pilot_head$[ebp], eax

; 1276 : 
; 1277 : 	search.search_depth = 0;

  0006d	c7 45 cc 00 00
	00 00		 mov	 DWORD PTR _search$[ebp+8], 0

; 1278 : 	search.search_object = virtual_cockpit_inst3d;

  00074	a1 00 00 00 00	 mov	 eax, DWORD PTR ?virtual_cockpit_inst3d@@3PAUOBJECT_3D_INSTANCE@@A ; virtual_cockpit_inst3d
  00079	89 45 c4	 mov	 DWORD PTR _search$[ebp], eax

; 1279 : 	search.sub_object_index = OBJECT_3D_SUB_OBJECT_WSO_HEAD;

  0007c	c7 45 d0 ad 00
	00 00		 mov	 DWORD PTR _search$[ebp+12], 173 ; 000000adH

; 1280 : 
; 1281 : 	if (find_object_3d_sub_object (&search) == SUB_OBJECT_SEARCH_RESULT_OBJECT_FOUND)

  00083	8d 45 c4	 lea	 eax, DWORD PTR _search$[ebp]
  00086	50		 push	 eax
  00087	e8 00 00 00 00	 call	 ?find_object_3d_sub_object@@YG?AW4SUB_OBJECT_SEARCH_RESULT_TYPES@@PAUOBJECT_3D_SUB_OBJECT_SEARCH_DATA@@@Z ; find_object_3d_sub_object
  0008c	83 f8 01	 cmp	 eax, 1
  0008f	0f 85 95 00 00
	00		 jne	 $LN4@set_viper_

; 1282 : 	{
; 1283 : 		search.result_sub_object->visible_object = show_co_pilot_head;

  00095	8b 45 fc	 mov	 eax, DWORD PTR _show_co_pilot_head$[ebp]
  00098	83 e0 01	 and	 eax, 1
  0009b	8b 4d c8	 mov	 ecx, DWORD PTR _search$[ebp+4]
  0009e	8b 51 08	 mov	 edx, DWORD PTR [ecx+8]
  000a1	83 e2 fe	 and	 edx, -2			; fffffffeH
  000a4	0b d0		 or	 edx, eax
  000a6	8b 45 c8	 mov	 eax, DWORD PTR _search$[ebp+4]
  000a9	89 50 08	 mov	 DWORD PTR [eax+8], edx

; 1284 : 
; 1285 : 		if (show_co_pilot_head)

  000ac	83 7d fc 00	 cmp	 DWORD PTR _show_co_pilot_head$[ebp], 0
  000b0	74 76		 je	 SHORT $LN10@set_viper_

; 1286 : 		{
; 1287 : 			if (co_pilot_head_anim_frame != NO_CO_PILOT_HEAD_ANIMATION)

  000b2	f3 0f 10 05 00
	00 00 00	 movss	 xmm0, DWORD PTR ?co_pilot_head_anim_frame@@3MA
  000ba	0f 2e 05 00 00
	00 00		 ucomiss xmm0, DWORD PTR __real@bf800000
  000c1	9f		 lahf
  000c2	f6 c4 44	 test	 ah, 68			; 00000044H
  000c5	7b 20		 jnp	 SHORT $LN7@set_viper_

; 1288 : 			{
; 1289 : 				animate_entity_simple_keyframed_sub_objects (virtual_cockpit_inst3d, OBJECT_3D_SUB_OBJECT_WSO_HEAD, co_pilot_head_anim_frame);

  000c7	51		 push	 ecx
  000c8	f3 0f 10 05 00
	00 00 00	 movss	 xmm0, DWORD PTR ?co_pilot_head_anim_frame@@3MA
  000d0	f3 0f 11 04 24	 movss	 DWORD PTR [esp], xmm0
  000d5	68 ad 00 00 00	 push	 173			; 000000adH
  000da	a1 00 00 00 00	 mov	 eax, DWORD PTR ?virtual_cockpit_inst3d@@3PAUOBJECT_3D_INSTANCE@@A ; virtual_cockpit_inst3d
  000df	50		 push	 eax
  000e0	e8 00 00 00 00	 call	 ?animate_entity_simple_keyframed_sub_objects@@YGXPAUOBJECT_3D_INSTANCE@@HM@Z ; animate_entity_simple_keyframed_sub_objects

; 1290 : 			}
; 1291 : 			else

  000e5	eb 41		 jmp	 SHORT $LN10@set_viper_
$LN7@set_viper_:

; 1292 : 			{
; 1293 : 				if (co_pilot_anim_mode == CO_PILOT_ANIM_MODE_NONE)

  000e7	83 3d 00 00 00
	00 00		 cmp	 DWORD PTR ?co_pilot_anim_mode@@3W4CO_PILOT_ANIM_MODES@@A, 0
  000ee	75 07		 jne	 SHORT $LN9@set_viper_

; 1294 : 				{
; 1295 : 					update_co_pilot_head_tilt_animation ();

  000f0	e8 00 00 00 00	 call	 ?update_co_pilot_head_tilt_animation@@YGXXZ ; update_co_pilot_head_tilt_animation

; 1296 : 				}
; 1297 : 				else

  000f5	eb 31		 jmp	 SHORT $LN10@set_viper_
$LN9@set_viper_:

; 1298 : 				{
; 1299 : 					search.result_sub_object->relative_heading = 0.0;

  000f7	8b 45 c8	 mov	 eax, DWORD PTR _search$[ebp+4]
  000fa	0f 57 c0	 xorps	 xmm0, xmm0
  000fd	f3 0f 11 40 18	 movss	 DWORD PTR [eax+24], xmm0

; 1300 : 					search.result_sub_object->relative_pitch = co_pilot_head_pitch_datum;

  00102	8b 45 c8	 mov	 eax, DWORD PTR _search$[ebp+4]
  00105	f3 0f 10 05 00
	00 00 00	 movss	 xmm0, DWORD PTR ?co_pilot_head_pitch_datum@@3MA
  0010d	f3 0f 11 40 1c	 movss	 DWORD PTR [eax+28], xmm0

; 1301 : 					search.result_sub_object->relative_roll = 0.0;

  00112	8b 45 c8	 mov	 eax, DWORD PTR _search$[ebp+4]
  00115	0f 57 c0	 xorps	 xmm0, xmm0
  00118	f3 0f 11 40 20	 movss	 DWORD PTR [eax+32], xmm0

; 1302 : 
; 1303 : 					previous_co_pilot_head_tilt_angle = 0.0;

  0011d	0f 57 c0	 xorps	 xmm0, xmm0
  00120	f3 0f 11 05 00
	00 00 00	 movss	 DWORD PTR ?previous_co_pilot_head_tilt_angle@@3MA, xmm0
$LN10@set_viper_:

; 1304 : 				}
; 1305 : 			}
; 1306 : 		}
; 1307 : 	}
; 1308 : 	else

  00128	eb 0d		 jmp	 SHORT $LN5@set_viper_
$LN4@set_viper_:

; 1309 : 	{
; 1310 : 		debug_fatal ("Failed to locate co-pilot's head in virtual cockpit");

  0012a	68 00 00 00 00	 push	 OFFSET ??_C@_0DE@MOLAKHGN@Failed?5to?5locate?5co?9pilot?8s?5hea@
  0012f	e8 00 00 00 00	 call	 ?debug_fatal@@YAXPBDZZ	; debug_fatal
  00134	83 c4 04	 add	 esp, 4
$LN5@set_viper_:

; 1311 : 	}
; 1312 : }

  00137	5f		 pop	 edi
  00138	5e		 pop	 esi
  00139	5b		 pop	 ebx
  0013a	8b e5		 mov	 esp, ebp
  0013c	5d		 pop	 ebp
  0013d	c3		 ret	 0
?set_viper_co_pilot_head_position@@YGXXZ ENDP		; set_viper_co_pilot_head_position
_TEXT	ENDS
; Function compile flags: /Odtp /ZI
; File c:\users\nhv90\projects\eech\aphavoc\source\gunships\cockpits\viper\vi_cpg.c
;	COMDAT ?update_viper_co_pilot_animation@@YGXXZ
_TEXT	SEGMENT
?update_viper_co_pilot_animation@@YGXXZ PROC		; update_viper_co_pilot_animation, COMDAT

; 1249 : {

  00000	55		 push	 ebp
  00001	8b ec		 mov	 ebp, esp
  00003	83 ec 40	 sub	 esp, 64			; 00000040H
  00006	53		 push	 ebx
  00007	56		 push	 esi
  00008	57		 push	 edi

; 1250 : 	ASSERT (get_gunship_entity ());

  00009	83 3d 00 00 00
	00 00		 cmp	 DWORD PTR ?gunship_entity@@3PAUENTITY@@A, 0 ; gunship_entity
  00010	75 18		 jne	 SHORT $LN2@update_vip
  00012	a1 00 00 00 00	 mov	 eax, DWORD PTR ?__LINE__Var@?0??update_viper_co_pilot_animation@@YGXXZ@4JA
  00017	83 c0 01	 add	 eax, 1
  0001a	50		 push	 eax
  0001b	68 00 00 00 00	 push	 OFFSET ??_C@_0EN@GDIPHLNA@c?3?2users?2nhv90?2projects?2eech?2ap@
  00020	68 00 00 00 00	 push	 OFFSET ??_C@_0BG@EANNPEON@get_gunship_entity?5?$CI?$CJ@
  00025	e8 00 00 00 00	 call	 ?process_assert@@YGXPBD0H@Z ; process_assert
$LN2@update_vip:

; 1251 : 
; 1252 : 	ASSERT (current_flight_dynamics);

  0002a	83 3d 00 00 00
	00 00		 cmp	 DWORD PTR ?current_flight_dynamics@@3PAUDYNAMICS_TYPE@@A, 0 ; current_flight_dynamics
  00031	75 18		 jne	 SHORT $LN3@update_vip
  00033	a1 00 00 00 00	 mov	 eax, DWORD PTR ?__LINE__Var@?0??update_viper_co_pilot_animation@@YGXXZ@4JA
  00038	83 c0 03	 add	 eax, 3
  0003b	50		 push	 eax
  0003c	68 00 00 00 00	 push	 OFFSET ??_C@_0EN@GDIPHLNA@c?3?2users?2nhv90?2projects?2eech?2ap@
  00041	68 00 00 00 00	 push	 OFFSET ??_C@_0BI@CKBJIOHI@current_flight_dynamics@
  00046	e8 00 00 00 00	 call	 ?process_assert@@YGXPBD0H@Z ; process_assert
$LN3@update_vip:

; 1253 : 
; 1254 : 	ASSERT (virtual_cockpit_inst3d);

  0004b	83 3d 00 00 00
	00 00		 cmp	 DWORD PTR ?virtual_cockpit_inst3d@@3PAUOBJECT_3D_INSTANCE@@A, 0 ; virtual_cockpit_inst3d
  00052	75 18		 jne	 SHORT $LN4@update_vip
  00054	a1 00 00 00 00	 mov	 eax, DWORD PTR ?__LINE__Var@?0??update_viper_co_pilot_animation@@YGXXZ@4JA
  00059	83 c0 05	 add	 eax, 5
  0005c	50		 push	 eax
  0005d	68 00 00 00 00	 push	 OFFSET ??_C@_0EN@GDIPHLNA@c?3?2users?2nhv90?2projects?2eech?2ap@
  00062	68 00 00 00 00	 push	 OFFSET ??_C@_0BH@OJOOJLIP@virtual_cockpit_inst3d@
  00067	e8 00 00 00 00	 call	 ?process_assert@@YGXPBD0H@Z ; process_assert
$LN4@update_vip:

; 1255 : 
; 1256 : 	update_co_pilot_animation ();

  0006c	e8 00 00 00 00	 call	 ?update_co_pilot_animation@@YGXXZ ; update_co_pilot_animation

; 1257 : }

  00071	5f		 pop	 edi
  00072	5e		 pop	 esi
  00073	5b		 pop	 ebx
  00074	8b e5		 mov	 esp, ebp
  00076	5d		 pop	 ebp
  00077	c3		 ret	 0
?update_viper_co_pilot_animation@@YGXXZ ENDP		; update_viper_co_pilot_animation
_TEXT	ENDS
; Function compile flags: /Odtp /ZI
; File c:\users\nhv90\projects\eech\aphavoc\source\gunships\cockpits\viper\vi_cpg.c
;	COMDAT ?deinitialise_viper_co_pilot_animation@@YGXXZ
_TEXT	SEGMENT
?deinitialise_viper_co_pilot_animation@@YGXXZ PROC	; deinitialise_viper_co_pilot_animation, COMDAT

; 1241 : {

  00000	55		 push	 ebp
  00001	8b ec		 mov	 ebp, esp
  00003	83 ec 40	 sub	 esp, 64			; 00000040H
  00006	53		 push	 ebx
  00007	56		 push	 esi
  00008	57		 push	 edi

; 1242 : }

  00009	5f		 pop	 edi
  0000a	5e		 pop	 esi
  0000b	5b		 pop	 ebx
  0000c	8b e5		 mov	 esp, ebp
  0000e	5d		 pop	 ebp
  0000f	c3		 ret	 0
?deinitialise_viper_co_pilot_animation@@YGXXZ ENDP	; deinitialise_viper_co_pilot_animation
_TEXT	ENDS
; Function compile flags: /Odtp /ZI
; File c:\users\nhv90\projects\eech\aphavoc\source\gunships\cockpits\viper\vi_cpg.c
;	COMDAT ?initialise_viper_co_pilot_animation@@YGXXZ
_TEXT	SEGMENT
?initialise_viper_co_pilot_animation@@YGXXZ PROC	; initialise_viper_co_pilot_animation, COMDAT

; 1214 : {

  00000	55		 push	 ebp
  00001	8b ec		 mov	 ebp, esp
  00003	83 ec 40	 sub	 esp, 64			; 00000040H
  00006	53		 push	 ebx
  00007	56		 push	 esi
  00008	57		 push	 edi

; 1215 : 	#if DEBUG_MODULE
; 1216 : 
; 1217 : 	debug_colour_watch (COLOUR_AMBER, "co_pilot_anim_mode = %d", MT_INT, &co_pilot_anim_mode);
; 1218 : 	debug_colour_watch (COLOUR_AMBER, "co_pilot_anim_frame = %.2f", MT_FLOAT, &co_pilot_anim_frame);
; 1219 : 	debug_colour_watch (COLOUR_AMBER, "co_pilot_anim_delay = %.2f", MT_FLOAT, &co_pilot_anim_delay);
; 1220 : 
; 1221 : 	debug_colour_watch (COLOUR_AMBER, "co_pilot_head_anim_frame = %.2f", MT_FLOAT, &co_pilot_head_anim_frame);
; 1222 : 	debug_colour_watch (COLOUR_AMBER, "co_pilot_head_anim_pause = %.2f", MT_FLOAT, &co_pilot_head_anim_pause);
; 1223 : 
; 1224 : 	#endif
; 1225 : 
; 1226 : 	co_pilot_anim_mode			 				= CO_PILOT_ANIM_MODE_NONE;

  00009	c7 05 00 00 00
	00 00 00 00 00	 mov	 DWORD PTR ?co_pilot_anim_mode@@3W4CO_PILOT_ANIM_MODES@@A, 0

; 1227 : 	co_pilot_anim_frame  			  			= 0.0;

  00013	0f 57 c0	 xorps	 xmm0, xmm0
  00016	f3 0f 11 05 00
	00 00 00	 movss	 DWORD PTR ?co_pilot_anim_frame@@3MA, xmm0

; 1228 : 	co_pilot_anim_delay  						= get_reset_co_pilot_anim_delay ();

  0001e	e8 00 00 00 00	 call	 ?get_reset_co_pilot_anim_delay@@YGMXZ ; get_reset_co_pilot_anim_delay
  00023	d9 1d 00 00 00
	00		 fstp	 DWORD PTR ?co_pilot_anim_delay@@3MA

; 1229 : 
; 1230 : 	co_pilot_head_anim_frame					= NO_CO_PILOT_HEAD_ANIMATION;

  00029	f3 0f 10 05 00
	00 00 00	 movss	 xmm0, DWORD PTR __real@bf800000
  00031	f3 0f 11 05 00
	00 00 00	 movss	 DWORD PTR ?co_pilot_head_anim_frame@@3MA, xmm0

; 1231 : 	co_pilot_head_anim_pause					= 0.0;

  00039	0f 57 c0	 xorps	 xmm0, xmm0
  0003c	f3 0f 11 05 00
	00 00 00	 movss	 DWORD PTR ?co_pilot_head_anim_pause@@3MA, xmm0

; 1232 : 
; 1233 : 	previous_co_pilot_head_tilt_angle		= 0.0;

  00044	0f 57 c0	 xorps	 xmm0, xmm0
  00047	f3 0f 11 05 00
	00 00 00	 movss	 DWORD PTR ?previous_co_pilot_head_tilt_angle@@3MA, xmm0

; 1234 : }

  0004f	5f		 pop	 edi
  00050	5e		 pop	 esi
  00051	5b		 pop	 ebx
  00052	8b e5		 mov	 esp, ebp
  00054	5d		 pop	 ebp
  00055	c3		 ret	 0
?initialise_viper_co_pilot_animation@@YGXXZ ENDP	; initialise_viper_co_pilot_animation
_TEXT	ENDS
END
