; Listing generated by Microsoft (R) Optimizing Compiler Version 19.16.27045.0 

	TITLE	C:\Users\nhv90\Projects\eech\aphavoc\source\gunships\cockpits\viper\vi_doors.c
	.686P
	.XMM
	include listing.inc
	.model	flat

INCLUDELIB MSVCRTD
INCLUDELIB OLDNAMES

PUBLIC	?initialise_viper_virtual_cockpit_canopy_doors@@YGXXZ ; initialise_viper_virtual_cockpit_canopy_doors
PUBLIC	?toggle_viper_canopy_doors@@YGXPAUEVENT@@@Z	; toggle_viper_canopy_doors
PUBLIC	?animate_viper_virtual_cockpit_canopy_doors@@YGXXZ ; animate_viper_virtual_cockpit_canopy_doors
PUBLIC	?__LINE__Var@?0??get_canopy_doors_aiming_state@@YGMXZ@4JA ; `get_canopy_doors_aiming_state'::`1'::__LINE__Var
PUBLIC	??_C@_0EP@OABGEPKM@c?3?2users?2nhv90?2projects?2eech?2ap@ ; `string'
PUBLIC	??_C@_0BG@EANNPEON@get_gunship_entity?5?$CI?$CJ@ ; `string'
PUBLIC	??_C@_0BI@CKBJIOHI@current_flight_dynamics@	; `string'
PUBLIC	?__LINE__Var@?0??animate_viper_virtual_cockpit_canopy_doors@@YGXXZ@4JA ; `animate_viper_virtual_cockpit_canopy_doors'::`1'::__LINE__Var
PUBLIC	??_C@_0BH@OJOOJLIP@virtual_cockpit_inst3d@	; `string'
PUBLIC	??_C@_0FN@DBDEPNLL@canopy_door_state?5?$DM?$DN?5CANOPY_DOO@ ; `string'
PUBLIC	??_C@_06DDNABPCD@inst3d@			; `string'
PUBLIC	__real@00000000
PUBLIC	__real@3f800000
PUBLIC	__real@3fd3333333333333
EXTRN	?process_assert@@YGXPBD0H@Z:PROC		; process_assert
EXTRN	?animate_keyframed_sub_object_type@@YGHPAUOBJECT_3D_INSTANCE@@HM@Z:PROC ; animate_keyframed_sub_object_type
EXTRN	?system_delta_time@@3MA:DWORD			; system_delta_time
EXTRN	?command_line_dynamics_engine_startup@@3HA:DWORD ; command_line_dynamics_engine_startup
EXTRN	?null_entity_pointer_message@@3PBDB:DWORD	; null_entity_pointer_message
EXTRN	?overload_invalid_int_type_message@@3PBDB:DWORD	; overload_invalid_int_type_message
EXTRN	?fn_get_local_entity_int_value@@3PAY0BBH@P6GHPAUENTITY@@W4INT_TYPES@@@ZA:BYTE ; fn_get_local_entity_int_value
EXTRN	?overload_invalid_ptr_type_message@@3PBDB:DWORD	; overload_invalid_ptr_type_message
EXTRN	?fn_get_local_entity_ptr_value@@3PAY0BE@P6GPAXPAUENTITY@@W4PTR_TYPES@@@ZA:BYTE ; fn_get_local_entity_ptr_value
EXTRN	?gunship_entity@@3PAUENTITY@@A:DWORD		; gunship_entity
EXTRN	?canopy_door_state@@3MA:DWORD			; canopy_door_state
EXTRN	?virtual_cockpit_inst3d@@3PAUOBJECT_3D_INSTANCE@@A:DWORD ; virtual_cockpit_inst3d
EXTRN	?current_flight_dynamics@@3PAUDYNAMICS_TYPE@@A:DWORD ; current_flight_dynamics
EXTRN	__fltused:DWORD
_BSS	SEGMENT
?aiming_state@@3MA DD 01H DUP (?)			; aiming_state
_BSS	ENDS
;	COMDAT __real@3fd3333333333333
CONST	SEGMENT
__real@3fd3333333333333 DQ 03fd3333333333333r	; 0.3
CONST	ENDS
;	COMDAT __real@3f800000
CONST	SEGMENT
__real@3f800000 DD 03f800000r			; 1
CONST	ENDS
;	COMDAT __real@00000000
CONST	SEGMENT
__real@00000000 DD 000000000r			; 0
CONST	ENDS
;	COMDAT ??_C@_06DDNABPCD@inst3d@
CONST	SEGMENT
??_C@_06DDNABPCD@inst3d@ DB 'inst3d', 00H		; `string'
CONST	ENDS
;	COMDAT ??_C@_0FN@DBDEPNLL@canopy_door_state?5?$DM?$DN?5CANOPY_DOO@
CONST	SEGMENT
??_C@_0FN@DBDEPNLL@canopy_door_state?5?$DM?$DN?5CANOPY_DOO@ DB 'canopy_do'
	DB	'or_state <= CANOPY_DOOR_STATE_OPEN && canopy_door_state >= CA'
	DB	'NOPY_DOOR_STATE_CLOSED', 00H		; `string'
CONST	ENDS
;	COMDAT ??_C@_0BH@OJOOJLIP@virtual_cockpit_inst3d@
CONST	SEGMENT
??_C@_0BH@OJOOJLIP@virtual_cockpit_inst3d@ DB 'virtual_cockpit_inst3d', 00H ; `string'
CONST	ENDS
;	COMDAT ?__LINE__Var@?0??animate_viper_virtual_cockpit_canopy_doors@@YGXXZ@4JA
_DATA	SEGMENT
?__LINE__Var@?0??animate_viper_virtual_cockpit_canopy_doors@@YGXXZ@4JA DD 080H ; `animate_viper_virtual_cockpit_canopy_doors'::`1'::__LINE__Var
_DATA	ENDS
;	COMDAT ??_C@_0BI@CKBJIOHI@current_flight_dynamics@
CONST	SEGMENT
??_C@_0BI@CKBJIOHI@current_flight_dynamics@ DB 'current_flight_dynamics', 00H ; `string'
CONST	ENDS
;	COMDAT ??_C@_0BG@EANNPEON@get_gunship_entity?5?$CI?$CJ@
CONST	SEGMENT
??_C@_0BG@EANNPEON@get_gunship_entity?5?$CI?$CJ@ DB 'get_gunship_entity ('
	DB	')', 00H					; `string'
CONST	ENDS
;	COMDAT ??_C@_0EP@OABGEPKM@c?3?2users?2nhv90?2projects?2eech?2ap@
CONST	SEGMENT
??_C@_0EP@OABGEPKM@c?3?2users?2nhv90?2projects?2eech?2ap@ DB 'c:\users\nh'
	DB	'v90\projects\eech\aphavoc\source\gunships\cockpits\viper\vi_d'
	DB	'oors.c', 00H				; `string'
CONST	ENDS
;	COMDAT ?__LINE__Var@?0??get_canopy_doors_aiming_state@@YGMXZ@4JA
_DATA	SEGMENT
?__LINE__Var@?0??get_canopy_doors_aiming_state@@YGMXZ@4JA DD 064H ; `get_canopy_doors_aiming_state'::`1'::__LINE__Var
_DATA	ENDS
; Function compile flags: /Odtp /ZI
; File c:\users\nhv90\projects\eech\aphavoc\source\gunships\cockpits\viper\vi_doors.c
;	COMDAT ?get_canopy_doors_aiming_state@@YGMXZ
_TEXT	SEGMENT
tv86 = -72						; size = 4
tv79 = -68						; size = 4
?get_canopy_doors_aiming_state@@YGMXZ PROC		; get_canopy_doors_aiming_state, COMDAT

; 100  : {

  00000	55		 push	 ebp
  00001	8b ec		 mov	 ebp, esp
  00003	83 ec 48	 sub	 esp, 72			; 00000048H
  00006	53		 push	 ebx
  00007	56		 push	 esi
  00008	57		 push	 edi

; 101  : 	ASSERT (get_gunship_entity ());

  00009	83 3d 00 00 00
	00 00		 cmp	 DWORD PTR ?gunship_entity@@3PAUENTITY@@A, 0 ; gunship_entity
  00010	75 18		 jne	 SHORT $LN2@get_canopy
  00012	a1 00 00 00 00	 mov	 eax, DWORD PTR ?__LINE__Var@?0??get_canopy_doors_aiming_state@@YGMXZ@4JA
  00017	83 c0 01	 add	 eax, 1
  0001a	50		 push	 eax
  0001b	68 00 00 00 00	 push	 OFFSET ??_C@_0EP@OABGEPKM@c?3?2users?2nhv90?2projects?2eech?2ap@
  00020	68 00 00 00 00	 push	 OFFSET ??_C@_0BG@EANNPEON@get_gunship_entity?5?$CI?$CJ@
  00025	e8 00 00 00 00	 call	 ?process_assert@@YGXPBD0H@Z ; process_assert
$LN2@get_canopy:

; 102  : 
; 103  : 	ASSERT (current_flight_dynamics);

  0002a	83 3d 00 00 00
	00 00		 cmp	 DWORD PTR ?current_flight_dynamics@@3PAUDYNAMICS_TYPE@@A, 0 ; current_flight_dynamics
  00031	75 18		 jne	 SHORT $LN3@get_canopy
  00033	a1 00 00 00 00	 mov	 eax, DWORD PTR ?__LINE__Var@?0??get_canopy_doors_aiming_state@@YGMXZ@4JA
  00038	83 c0 03	 add	 eax, 3
  0003b	50		 push	 eax
  0003c	68 00 00 00 00	 push	 OFFSET ??_C@_0EP@OABGEPKM@c?3?2users?2nhv90?2projects?2eech?2ap@
  00041	68 00 00 00 00	 push	 OFFSET ??_C@_0BI@CKBJIOHI@current_flight_dynamics@
  00046	e8 00 00 00 00	 call	 ?process_assert@@YGXPBD0H@Z ; process_assert
$LN3@get_canopy:

; 104  : 
; 105  : 	if (get_local_entity_int_value (get_gunship_entity (), INT_TYPE_AIRBORNE_AIRCRAFT))

  0004b	83 3d 00 00 00
	00 00		 cmp	 DWORD PTR ?gunship_entity@@3PAUENTITY@@A, 0 ; gunship_entity
  00052	74 0c		 je	 SHORT $LN6@get_canopy
  00054	a1 00 00 00 00	 mov	 eax, DWORD PTR ?gunship_entity@@3PAUENTITY@@A ; gunship_entity
  00059	8b 08		 mov	 ecx, DWORD PTR [eax]
  0005b	89 4d bc	 mov	 DWORD PTR tv79[ebp], ecx
  0005e	eb 1a		 jmp	 SHORT $LN7@get_canopy
$LN6@get_canopy:
  00060	6a 69		 push	 105			; 00000069H
  00062	68 00 00 00 00	 push	 OFFSET ??_C@_0EP@OABGEPKM@c?3?2users?2nhv90?2projects?2eech?2ap@
  00067	8b 15 00 00 00
	00		 mov	 edx, DWORD PTR ?null_entity_pointer_message@@3PBDB ; null_entity_pointer_message
  0006d	52		 push	 edx
  0006e	e8 00 00 00 00	 call	 ?process_assert@@YGXPBD0H@Z ; process_assert
  00073	c7 45 bc 00 00
	00 00		 mov	 DWORD PTR tv79[ebp], 0
$LN7@get_canopy:
  0007a	b8 01 00 00 00	 mov	 eax, 1
  0007f	85 c0		 test	 eax, eax
  00081	74 09		 je	 SHORT $LN8@get_canopy
  00083	c7 45 b8 04 00
	00 00		 mov	 DWORD PTR tv86[ebp], 4
  0008a	eb 1a		 jmp	 SHORT $LN9@get_canopy
$LN8@get_canopy:
  0008c	6a 69		 push	 105			; 00000069H
  0008e	68 00 00 00 00	 push	 OFFSET ??_C@_0EP@OABGEPKM@c?3?2users?2nhv90?2projects?2eech?2ap@
  00093	8b 0d 00 00 00
	00		 mov	 ecx, DWORD PTR ?overload_invalid_int_type_message@@3PBDB ; overload_invalid_int_type_message
  00099	51		 push	 ecx
  0009a	e8 00 00 00 00	 call	 ?process_assert@@YGXPBD0H@Z ; process_assert
  0009f	c7 45 b8 00 00
	00 00		 mov	 DWORD PTR tv86[ebp], 0
$LN9@get_canopy:
  000a6	6a 04		 push	 4
  000a8	8b 15 00 00 00
	00		 mov	 edx, DWORD PTR ?gunship_entity@@3PAUENTITY@@A ; gunship_entity
  000ae	52		 push	 edx
  000af	69 45 bc 5c 04
	00 00		 imul	 eax, DWORD PTR tv79[ebp], 1116
  000b6	8b 4d b8	 mov	 ecx, DWORD PTR tv86[ebp]
  000b9	8b 94 88 00 00
	00 00		 mov	 edx, DWORD PTR ?fn_get_local_entity_int_value@@3PAY0BBH@P6GHPAUENTITY@@W4INT_TYPES@@@ZA[eax+ecx*4]
  000c0	ff d2		 call	 edx
  000c2	85 c0		 test	 eax, eax
  000c4	74 0b		 je	 SHORT $LN4@get_canopy

; 106  : 		aiming_state = CANOPY_DOOR_STATE_CLOSED;

  000c6	0f 57 c0	 xorps	 xmm0, xmm0
  000c9	f3 0f 11 05 00
	00 00 00	 movss	 DWORD PTR ?aiming_state@@3MA, xmm0
$LN4@get_canopy:

; 107  : 
; 108  : 	return (aiming_state);

  000d1	d9 05 00 00 00
	00		 fld	 DWORD PTR ?aiming_state@@3MA

; 109  : }

  000d7	5f		 pop	 edi
  000d8	5e		 pop	 esi
  000d9	5b		 pop	 ebx
  000da	8b e5		 mov	 esp, ebp
  000dc	5d		 pop	 ebp
  000dd	c3		 ret	 0
?get_canopy_doors_aiming_state@@YGMXZ ENDP		; get_canopy_doors_aiming_state
_TEXT	ENDS
; Function compile flags: /Odtp /ZI
; File c:\users\nhv90\projects\eech\aphavoc\source\gunships\cockpits\viper\vi_doors.c
;	COMDAT ?animate_viper_virtual_cockpit_canopy_doors@@YGXXZ
_TEXT	SEGMENT
tv139 = -80						; size = 4
tv131 = -76						; size = 4
_inst3d$ = -8						; size = 4
_aiming_state$ = -4					; size = 4
?animate_viper_virtual_cockpit_canopy_doors@@YGXXZ PROC	; animate_viper_virtual_cockpit_canopy_doors, COMDAT

; 128  : {

  00000	55		 push	 ebp
  00001	8b ec		 mov	 ebp, esp
  00003	83 ec 50	 sub	 esp, 80			; 00000050H
  00006	53		 push	 ebx
  00007	56		 push	 esi
  00008	57		 push	 edi

; 129  : 	float
; 130  : 		aiming_state;
; 131  : 
; 132  : 	object_3d_instance
; 133  : 		*inst3d;
; 134  : 
; 135  : 	ASSERT (virtual_cockpit_inst3d);

  00009	83 3d 00 00 00
	00 00		 cmp	 DWORD PTR ?virtual_cockpit_inst3d@@3PAUOBJECT_3D_INSTANCE@@A, 0 ; virtual_cockpit_inst3d
  00010	75 18		 jne	 SHORT $LN2@animate_vi
  00012	a1 00 00 00 00	 mov	 eax, DWORD PTR ?__LINE__Var@?0??animate_viper_virtual_cockpit_canopy_doors@@YGXXZ@4JA
  00017	83 c0 07	 add	 eax, 7
  0001a	50		 push	 eax
  0001b	68 00 00 00 00	 push	 OFFSET ??_C@_0EP@OABGEPKM@c?3?2users?2nhv90?2projects?2eech?2ap@
  00020	68 00 00 00 00	 push	 OFFSET ??_C@_0BH@OJOOJLIP@virtual_cockpit_inst3d@
  00025	e8 00 00 00 00	 call	 ?process_assert@@YGXPBD0H@Z ; process_assert
$LN2@animate_vi:

; 136  : 
; 137  : 	ASSERT (canopy_door_state <= CANOPY_DOOR_STATE_OPEN && canopy_door_state >= CANOPY_DOOR_STATE_CLOSED);

  0002a	f3 0f 10 05 00
	00 00 00	 movss	 xmm0, DWORD PTR __real@3f800000
  00032	0f 2f 05 00 00
	00 00		 comiss	 xmm0, DWORD PTR ?canopy_door_state@@3MA
  00039	72 11		 jb	 SHORT $LN4@animate_vi
  0003b	f3 0f 10 05 00
	00 00 00	 movss	 xmm0, DWORD PTR ?canopy_door_state@@3MA
  00043	0f 2f 05 00 00
	00 00		 comiss	 xmm0, DWORD PTR __real@00000000
  0004a	73 18		 jae	 SHORT $LN3@animate_vi
$LN4@animate_vi:
  0004c	a1 00 00 00 00	 mov	 eax, DWORD PTR ?__LINE__Var@?0??animate_viper_virtual_cockpit_canopy_doors@@YGXXZ@4JA
  00051	83 c0 09	 add	 eax, 9
  00054	50		 push	 eax
  00055	68 00 00 00 00	 push	 OFFSET ??_C@_0EP@OABGEPKM@c?3?2users?2nhv90?2projects?2eech?2ap@
  0005a	68 00 00 00 00	 push	 OFFSET ??_C@_0FN@DBDEPNLL@canopy_door_state?5?$DM?$DN?5CANOPY_DOO@
  0005f	e8 00 00 00 00	 call	 ?process_assert@@YGXPBD0H@Z ; process_assert
$LN3@animate_vi:

; 138  : 
; 139  : 	aiming_state = get_canopy_doors_aiming_state ();

  00064	e8 00 00 00 00	 call	 ?get_canopy_doors_aiming_state@@YGMXZ ; get_canopy_doors_aiming_state
  00069	d9 5d fc	 fstp	 DWORD PTR _aiming_state$[ebp]

; 140  : 
; 141  : 	if (aiming_state > canopy_door_state)

  0006c	f3 0f 10 45 fc	 movss	 xmm0, DWORD PTR _aiming_state$[ebp]
  00071	0f 2f 05 00 00
	00 00		 comiss	 xmm0, DWORD PTR ?canopy_door_state@@3MA
  00078	76 4b		 jbe	 SHORT $LN5@animate_vi

; 142  : 	{
; 143  : 		canopy_door_state += get_delta_time () * 0.3;

  0007a	f3 0f 5a 05 00
	00 00 00	 cvtss2sd xmm0, DWORD PTR ?system_delta_time@@3MA
  00082	f2 0f 59 05 00
	00 00 00	 mulsd	 xmm0, QWORD PTR __real@3fd3333333333333
  0008a	f3 0f 5a 0d 00
	00 00 00	 cvtss2sd xmm1, DWORD PTR ?canopy_door_state@@3MA
  00092	f2 0f 58 c8	 addsd	 xmm1, xmm0
  00096	f2 0f 5a c1	 cvtsd2ss xmm0, xmm1
  0009a	f3 0f 11 05 00
	00 00 00	 movss	 DWORD PTR ?canopy_door_state@@3MA, xmm0

; 144  : 
; 145  : 		if (canopy_door_state > CANOPY_DOOR_STATE_OPEN)

  000a2	f3 0f 10 05 00
	00 00 00	 movss	 xmm0, DWORD PTR ?canopy_door_state@@3MA
  000aa	0f 2f 05 00 00
	00 00		 comiss	 xmm0, DWORD PTR __real@3f800000
  000b1	76 10		 jbe	 SHORT $LN7@animate_vi

; 146  : 		{
; 147  : 			canopy_door_state = CANOPY_DOOR_STATE_OPEN;

  000b3	f3 0f 10 05 00
	00 00 00	 movss	 xmm0, DWORD PTR __real@3f800000
  000bb	f3 0f 11 05 00
	00 00 00	 movss	 DWORD PTR ?canopy_door_state@@3MA, xmm0
$LN7@animate_vi:

; 148  : 		}
; 149  : 	}

  000c3	eb 4d		 jmp	 SHORT $LN9@animate_vi
$LN5@animate_vi:

; 150  : 	else if (aiming_state < canopy_door_state)

  000c5	f3 0f 10 05 00
	00 00 00	 movss	 xmm0, DWORD PTR ?canopy_door_state@@3MA
  000cd	0f 2f 45 fc	 comiss	 xmm0, DWORD PTR _aiming_state$[ebp]
  000d1	76 3f		 jbe	 SHORT $LN9@animate_vi

; 151  : 	{
; 152  : 		canopy_door_state -= get_delta_time () * 0.3;

  000d3	f3 0f 5a 05 00
	00 00 00	 cvtss2sd xmm0, DWORD PTR ?system_delta_time@@3MA
  000db	f2 0f 59 05 00
	00 00 00	 mulsd	 xmm0, QWORD PTR __real@3fd3333333333333
  000e3	f3 0f 5a 0d 00
	00 00 00	 cvtss2sd xmm1, DWORD PTR ?canopy_door_state@@3MA
  000eb	f2 0f 5c c8	 subsd	 xmm1, xmm0
  000ef	f2 0f 5a c1	 cvtsd2ss xmm0, xmm1
  000f3	f3 0f 11 05 00
	00 00 00	 movss	 DWORD PTR ?canopy_door_state@@3MA, xmm0

; 153  : 
; 154  : 		if (canopy_door_state < CANOPY_DOOR_STATE_CLOSED)

  000fb	0f 57 c0	 xorps	 xmm0, xmm0
  000fe	0f 2f 05 00 00
	00 00		 comiss	 xmm0, DWORD PTR ?canopy_door_state@@3MA
  00105	76 0b		 jbe	 SHORT $LN9@animate_vi

; 155  : 		{
; 156  : 			canopy_door_state = CANOPY_DOOR_STATE_CLOSED;

  00107	0f 57 c0	 xorps	 xmm0, xmm0
  0010a	f3 0f 11 05 00
	00 00 00	 movss	 DWORD PTR ?canopy_door_state@@3MA, xmm0
$LN9@animate_vi:

; 157  : 		}
; 158  : 	}
; 159  : 
; 160  : 	animate_keyframed_sub_object_type (virtual_cockpit_inst3d, OBJECT_3D_SUB_OBJECT_CANOPY_DOORS, canopy_door_state);

  00112	51		 push	 ecx
  00113	f3 0f 10 05 00
	00 00 00	 movss	 xmm0, DWORD PTR ?canopy_door_state@@3MA
  0011b	f3 0f 11 04 24	 movss	 DWORD PTR [esp], xmm0
  00120	68 c3 00 00 00	 push	 195			; 000000c3H
  00125	a1 00 00 00 00	 mov	 eax, DWORD PTR ?virtual_cockpit_inst3d@@3PAUOBJECT_3D_INSTANCE@@A ; virtual_cockpit_inst3d
  0012a	50		 push	 eax
  0012b	e8 00 00 00 00	 call	 ?animate_keyframed_sub_object_type@@YGHPAUOBJECT_3D_INSTANCE@@HM@Z ; animate_keyframed_sub_object_type

; 161  : 
; 162  : 	//
; 163  : 	// keep external 3D model in sync
; 164  : 	//
; 165  : 
; 166  : 	inst3d = (object_3d_instance *) get_local_entity_ptr_value (get_gunship_entity (), PTR_TYPE_INSTANCE_3D_OBJECT);

  00130	83 3d 00 00 00
	00 00		 cmp	 DWORD PTR ?gunship_entity@@3PAUENTITY@@A, 0 ; gunship_entity
  00137	74 0c		 je	 SHORT $LN12@animate_vi
  00139	a1 00 00 00 00	 mov	 eax, DWORD PTR ?gunship_entity@@3PAUENTITY@@A ; gunship_entity
  0013e	8b 08		 mov	 ecx, DWORD PTR [eax]
  00140	89 4d b4	 mov	 DWORD PTR tv131[ebp], ecx
  00143	eb 21		 jmp	 SHORT $LN13@animate_vi
$LN12@animate_vi:
  00145	8b 15 00 00 00
	00		 mov	 edx, DWORD PTR ?__LINE__Var@?0??animate_viper_virtual_cockpit_canopy_doors@@YGXXZ@4JA
  0014b	83 c2 26	 add	 edx, 38			; 00000026H
  0014e	52		 push	 edx
  0014f	68 00 00 00 00	 push	 OFFSET ??_C@_0EP@OABGEPKM@c?3?2users?2nhv90?2projects?2eech?2ap@
  00154	a1 00 00 00 00	 mov	 eax, DWORD PTR ?null_entity_pointer_message@@3PBDB ; null_entity_pointer_message
  00159	50		 push	 eax
  0015a	e8 00 00 00 00	 call	 ?process_assert@@YGXPBD0H@Z ; process_assert
  0015f	c7 45 b4 00 00
	00 00		 mov	 DWORD PTR tv131[ebp], 0
$LN13@animate_vi:
  00166	b9 01 00 00 00	 mov	 ecx, 1
  0016b	85 c9		 test	 ecx, ecx
  0016d	74 09		 je	 SHORT $LN14@animate_vi
  0016f	c7 45 b0 02 00
	00 00		 mov	 DWORD PTR tv139[ebp], 2
  00176	eb 21		 jmp	 SHORT $LN15@animate_vi
$LN14@animate_vi:
  00178	8b 15 00 00 00
	00		 mov	 edx, DWORD PTR ?__LINE__Var@?0??animate_viper_virtual_cockpit_canopy_doors@@YGXXZ@4JA
  0017e	83 c2 26	 add	 edx, 38			; 00000026H
  00181	52		 push	 edx
  00182	68 00 00 00 00	 push	 OFFSET ??_C@_0EP@OABGEPKM@c?3?2users?2nhv90?2projects?2eech?2ap@
  00187	a1 00 00 00 00	 mov	 eax, DWORD PTR ?overload_invalid_ptr_type_message@@3PBDB ; overload_invalid_ptr_type_message
  0018c	50		 push	 eax
  0018d	e8 00 00 00 00	 call	 ?process_assert@@YGXPBD0H@Z ; process_assert
  00192	c7 45 b0 00 00
	00 00		 mov	 DWORD PTR tv139[ebp], 0
$LN15@animate_vi:
  00199	6a 02		 push	 2
  0019b	8b 0d 00 00 00
	00		 mov	 ecx, DWORD PTR ?gunship_entity@@3PAUENTITY@@A ; gunship_entity
  001a1	51		 push	 ecx
  001a2	6b 55 b4 50	 imul	 edx, DWORD PTR tv131[ebp], 80
  001a6	8b 45 b0	 mov	 eax, DWORD PTR tv139[ebp]
  001a9	8b 8c 82 00 00
	00 00		 mov	 ecx, DWORD PTR ?fn_get_local_entity_ptr_value@@3PAY0BE@P6GPAXPAUENTITY@@W4PTR_TYPES@@@ZA[edx+eax*4]
  001b0	ff d1		 call	 ecx
  001b2	89 45 f8	 mov	 DWORD PTR _inst3d$[ebp], eax

; 167  : 
; 168  : 	ASSERT (inst3d);

  001b5	83 7d f8 00	 cmp	 DWORD PTR _inst3d$[ebp], 0
  001b9	75 18		 jne	 SHORT $LN10@animate_vi
  001bb	a1 00 00 00 00	 mov	 eax, DWORD PTR ?__LINE__Var@?0??animate_viper_virtual_cockpit_canopy_doors@@YGXXZ@4JA
  001c0	83 c0 28	 add	 eax, 40			; 00000028H
  001c3	50		 push	 eax
  001c4	68 00 00 00 00	 push	 OFFSET ??_C@_0EP@OABGEPKM@c?3?2users?2nhv90?2projects?2eech?2ap@
  001c9	68 00 00 00 00	 push	 OFFSET ??_C@_06DDNABPCD@inst3d@
  001ce	e8 00 00 00 00	 call	 ?process_assert@@YGXPBD0H@Z ; process_assert
$LN10@animate_vi:

; 169  : 
; 170  : 	animate_keyframed_sub_object_type (inst3d, OBJECT_3D_SUB_OBJECT_CANOPY_DOORS, canopy_door_state);

  001d3	51		 push	 ecx
  001d4	f3 0f 10 05 00
	00 00 00	 movss	 xmm0, DWORD PTR ?canopy_door_state@@3MA
  001dc	f3 0f 11 04 24	 movss	 DWORD PTR [esp], xmm0
  001e1	68 c3 00 00 00	 push	 195			; 000000c3H
  001e6	8b 45 f8	 mov	 eax, DWORD PTR _inst3d$[ebp]
  001e9	50		 push	 eax
  001ea	e8 00 00 00 00	 call	 ?animate_keyframed_sub_object_type@@YGHPAUOBJECT_3D_INSTANCE@@HM@Z ; animate_keyframed_sub_object_type

; 171  : }

  001ef	5f		 pop	 edi
  001f0	5e		 pop	 esi
  001f1	5b		 pop	 ebx
  001f2	8b e5		 mov	 esp, ebp
  001f4	5d		 pop	 ebp
  001f5	c3		 ret	 0
?animate_viper_virtual_cockpit_canopy_doors@@YGXXZ ENDP	; animate_viper_virtual_cockpit_canopy_doors
_TEXT	ENDS
; Function compile flags: /Odtp /ZI
; File c:\users\nhv90\projects\eech\aphavoc\source\gunships\cockpits\viper\vi_doors.c
;	COMDAT ?toggle_viper_canopy_doors@@YGXPAUEVENT@@@Z
_TEXT	SEGMENT
_ev$ = 8						; size = 4
?toggle_viper_canopy_doors@@YGXPAUEVENT@@@Z PROC	; toggle_viper_canopy_doors, COMDAT

; 88   : {

  00000	55		 push	 ebp
  00001	8b ec		 mov	 ebp, esp
  00003	83 ec 40	 sub	 esp, 64			; 00000040H
  00006	53		 push	 ebx
  00007	56		 push	 esi
  00008	57		 push	 edi

; 89   : 	if (aiming_state == CANOPY_DOOR_STATE_OPEN)

  00009	f3 0f 10 05 00
	00 00 00	 movss	 xmm0, DWORD PTR ?aiming_state@@3MA
  00011	0f 2e 05 00 00
	00 00		 ucomiss xmm0, DWORD PTR __real@3f800000
  00018	9f		 lahf
  00019	f6 c4 44	 test	 ah, 68			; 00000044H
  0001c	7a 0d		 jp	 SHORT $LN2@toggle_vip

; 90   : 		aiming_state = CANOPY_DOOR_STATE_CLOSED;

  0001e	0f 57 c0	 xorps	 xmm0, xmm0
  00021	f3 0f 11 05 00
	00 00 00	 movss	 DWORD PTR ?aiming_state@@3MA, xmm0

; 91   : 	else

  00029	eb 10		 jmp	 SHORT $LN3@toggle_vip
$LN2@toggle_vip:

; 92   : 		aiming_state = CANOPY_DOOR_STATE_OPEN;

  0002b	f3 0f 10 05 00
	00 00 00	 movss	 xmm0, DWORD PTR __real@3f800000
  00033	f3 0f 11 05 00
	00 00 00	 movss	 DWORD PTR ?aiming_state@@3MA, xmm0
$LN3@toggle_vip:

; 93   : }

  0003b	5f		 pop	 edi
  0003c	5e		 pop	 esi
  0003d	5b		 pop	 ebx
  0003e	8b e5		 mov	 esp, ebp
  00040	5d		 pop	 ebp
  00041	c2 04 00	 ret	 4
?toggle_viper_canopy_doors@@YGXPAUEVENT@@@Z ENDP	; toggle_viper_canopy_doors
_TEXT	ENDS
; Function compile flags: /Odtp /ZI
; File c:\users\nhv90\projects\eech\aphavoc\source\gunships\cockpits\viper\vi_doors.c
;	COMDAT ?initialise_viper_virtual_cockpit_canopy_doors@@YGXXZ
_TEXT	SEGMENT
tv76 = -72						; size = 4
tv69 = -68						; size = 4
?initialise_viper_virtual_cockpit_canopy_doors@@YGXXZ PROC ; initialise_viper_virtual_cockpit_canopy_doors, COMDAT

; 116  : {

  00000	55		 push	 ebp
  00001	8b ec		 mov	 ebp, esp
  00003	83 ec 48	 sub	 esp, 72			; 00000048H
  00006	53		 push	 ebx
  00007	56		 push	 esi
  00008	57		 push	 edi

; 117  : 	if (get_local_entity_int_value (get_gunship_entity (), INT_TYPE_AIRBORNE_AIRCRAFT) || !command_line_dynamics_engine_startup)

  00009	83 3d 00 00 00
	00 00		 cmp	 DWORD PTR ?gunship_entity@@3PAUENTITY@@A, 0 ; gunship_entity
  00010	74 0c		 je	 SHORT $LN6@initialise
  00012	a1 00 00 00 00	 mov	 eax, DWORD PTR ?gunship_entity@@3PAUENTITY@@A ; gunship_entity
  00017	8b 08		 mov	 ecx, DWORD PTR [eax]
  00019	89 4d bc	 mov	 DWORD PTR tv69[ebp], ecx
  0001c	eb 1a		 jmp	 SHORT $LN7@initialise
$LN6@initialise:
  0001e	6a 75		 push	 117			; 00000075H
  00020	68 00 00 00 00	 push	 OFFSET ??_C@_0EP@OABGEPKM@c?3?2users?2nhv90?2projects?2eech?2ap@
  00025	8b 15 00 00 00
	00		 mov	 edx, DWORD PTR ?null_entity_pointer_message@@3PBDB ; null_entity_pointer_message
  0002b	52		 push	 edx
  0002c	e8 00 00 00 00	 call	 ?process_assert@@YGXPBD0H@Z ; process_assert
  00031	c7 45 bc 00 00
	00 00		 mov	 DWORD PTR tv69[ebp], 0
$LN7@initialise:
  00038	b8 01 00 00 00	 mov	 eax, 1
  0003d	85 c0		 test	 eax, eax
  0003f	74 09		 je	 SHORT $LN8@initialise
  00041	c7 45 b8 04 00
	00 00		 mov	 DWORD PTR tv76[ebp], 4
  00048	eb 1a		 jmp	 SHORT $LN9@initialise
$LN8@initialise:
  0004a	6a 75		 push	 117			; 00000075H
  0004c	68 00 00 00 00	 push	 OFFSET ??_C@_0EP@OABGEPKM@c?3?2users?2nhv90?2projects?2eech?2ap@
  00051	8b 0d 00 00 00
	00		 mov	 ecx, DWORD PTR ?overload_invalid_int_type_message@@3PBDB ; overload_invalid_int_type_message
  00057	51		 push	 ecx
  00058	e8 00 00 00 00	 call	 ?process_assert@@YGXPBD0H@Z ; process_assert
  0005d	c7 45 b8 00 00
	00 00		 mov	 DWORD PTR tv76[ebp], 0
$LN9@initialise:
  00064	6a 04		 push	 4
  00066	8b 15 00 00 00
	00		 mov	 edx, DWORD PTR ?gunship_entity@@3PAUENTITY@@A ; gunship_entity
  0006c	52		 push	 edx
  0006d	69 45 bc 5c 04
	00 00		 imul	 eax, DWORD PTR tv69[ebp], 1116
  00074	8b 4d b8	 mov	 ecx, DWORD PTR tv76[ebp]
  00077	8b 94 88 00 00
	00 00		 mov	 edx, DWORD PTR ?fn_get_local_entity_int_value@@3PAY0BBH@P6GHPAUENTITY@@W4INT_TYPES@@@ZA[eax+ecx*4]
  0007e	ff d2		 call	 edx
  00080	85 c0		 test	 eax, eax
  00082	75 09		 jne	 SHORT $LN4@initialise
  00084	83 3d 00 00 00
	00 00		 cmp	 DWORD PTR ?command_line_dynamics_engine_startup@@3HA, 0 ; command_line_dynamics_engine_startup
  0008b	75 1d		 jne	 SHORT $LN2@initialise
$LN4@initialise:

; 118  : 		aiming_state = canopy_door_state = CANOPY_DOOR_STATE_CLOSED;

  0008d	0f 57 c0	 xorps	 xmm0, xmm0
  00090	f3 0f 11 05 00
	00 00 00	 movss	 DWORD PTR ?canopy_door_state@@3MA, xmm0
  00098	f3 0f 10 05 00
	00 00 00	 movss	 xmm0, DWORD PTR ?canopy_door_state@@3MA
  000a0	f3 0f 11 05 00
	00 00 00	 movss	 DWORD PTR ?aiming_state@@3MA, xmm0

; 119  : 	else

  000a8	eb 20		 jmp	 SHORT $LN3@initialise
$LN2@initialise:

; 120  : 		aiming_state = canopy_door_state = CANOPY_DOOR_STATE_OPEN;

  000aa	f3 0f 10 05 00
	00 00 00	 movss	 xmm0, DWORD PTR __real@3f800000
  000b2	f3 0f 11 05 00
	00 00 00	 movss	 DWORD PTR ?canopy_door_state@@3MA, xmm0
  000ba	f3 0f 10 05 00
	00 00 00	 movss	 xmm0, DWORD PTR ?canopy_door_state@@3MA
  000c2	f3 0f 11 05 00
	00 00 00	 movss	 DWORD PTR ?aiming_state@@3MA, xmm0
$LN3@initialise:

; 121  : }

  000ca	5f		 pop	 edi
  000cb	5e		 pop	 esi
  000cc	5b		 pop	 ebx
  000cd	8b e5		 mov	 esp, ebp
  000cf	5d		 pop	 ebp
  000d0	c3		 ret	 0
?initialise_viper_virtual_cockpit_canopy_doors@@YGXXZ ENDP ; initialise_viper_virtual_cockpit_canopy_doors
_TEXT	ENDS
END
