; Listing generated by Microsoft (R) Optimizing Compiler Version 19.16.27045.0 

	TITLE	C:\Users\nhv90\Projects\eech\aphavoc\source\gunships\cockpits\viper\vi_lamps.c
	.686P
	.XMM
	include listing.inc
	.model	flat

INCLUDELIB MSVCRTD
INCLUDELIB OLDNAMES

PUBLIC	?viper_lamps@@3UVIPER_LAMP_FLAGS@@A		; viper_lamps
_BSS	SEGMENT
?viper_lamps@@3UVIPER_LAMP_FLAGS@@A DD 01H DUP (?)	; viper_lamps
_BSS	ENDS
PUBLIC	?initialise_viper_lamps@@YGXXZ			; initialise_viper_lamps
PUBLIC	?deinitialise_viper_lamps@@YGXXZ		; deinitialise_viper_lamps
PUBLIC	?draw_viper_virtual_cockpit_lamps@@YGXXZ	; draw_viper_virtual_cockpit_lamps
EXTRN	_memset:PROC
; Function compile flags: /Odtp /ZI
; File c:\users\nhv90\projects\eech\aphavoc\source\gunships\cockpits\viper\vi_lamps.c
;	COMDAT ?draw_viper_virtual_cockpit_lamps@@YGXXZ
_TEXT	SEGMENT
?draw_viper_virtual_cockpit_lamps@@YGXXZ PROC		; draw_viper_virtual_cockpit_lamps, COMDAT

; 120  : {

  00000	55		 push	 ebp
  00001	8b ec		 mov	 ebp, esp
  00003	83 ec 40	 sub	 esp, 64			; 00000040H
  00006	53		 push	 ebx
  00007	56		 push	 esi
  00008	57		 push	 edi

; 121  : #if 0
; 122  : 	ASSERT (virtual_cockpit_inst3d);
; 123  : 
; 124  : 	draw_lamp (viper_lamps.master_caution, TEXTURE_ANIMATION_INDEX_COCKPIT_LAMP__000);
; 125  : 
; 126  : 	draw_lamp (viper_lamps.engine_ignition, TEXTURE_ANIMATION_INDEX_COCKPIT_LAMP__024);
; 127  : 
; 128  : 	draw_lamp (viper_lamps.apu_ignition, TEXTURE_ANIMATION_INDEX_COCKPIT_LAMP__025);
; 129  : 
; 130  : 	draw_lamp (viper_lamps.engine_fire, TEXTURE_ANIMATION_INDEX_COCKPIT_LAMP__001);
; 131  : 
; 132  : 	draw_lamp (viper_lamps.apu_fire, TEXTURE_ANIMATION_INDEX_COCKPIT_LAMP__002);
; 133  : 
; 134  : 	draw_lamp (viper_lamps.engine_fire_extinguiser, TEXTURE_ANIMATION_INDEX_COCKPIT_LAMP__019);
; 135  : 
; 136  : 	draw_lamp (viper_lamps.hydraulic_pressure, TEXTURE_ANIMATION_INDEX_COCKPIT_LAMP__021);
; 137  : 
; 138  : 	draw_lamp (viper_lamps.oil_pressure, TEXTURE_ANIMATION_INDEX_COCKPIT_LAMP__022);
; 139  : 
; 140  : 	draw_lamp (viper_lamps.oil_temperature, TEXTURE_ANIMATION_INDEX_COCKPIT_LAMP__023);
; 141  : 
; 142  : 	draw_lamp (viper_lamps.overtorque, TEXTURE_ANIMATION_INDEX_COCKPIT_LAMP__010);
; 143  : 
; 144  : 	draw_lamp (viper_lamps.rotor_rpm, TEXTURE_ANIMATION_INDEX_COCKPIT_LAMP__011);
; 145  : 
; 146  : 	draw_lamp (viper_lamps.fuel_low, TEXTURE_ANIMATION_INDEX_COCKPIT_LAMP__012);
; 147  : 
; 148  : 	draw_lamp (viper_lamps.rotor_brake, TEXTURE_ANIMATION_INDEX_COCKPIT_LAMP__004);
; 149  : 
; 150  : 	draw_lamp (viper_lamps.navigation_lights, TEXTURE_ANIMATION_INDEX_COCKPIT_LAMP__006);
; 151  : 
; 152  : 	draw_lamp (viper_lamps.hover_hold, TEXTURE_ANIMATION_INDEX_COCKPIT_LAMP__008);
; 153  : 
; 154  : 	draw_lamp (viper_lamps.altitude_hold, TEXTURE_ANIMATION_INDEX_COCKPIT_LAMP__042);
; 155  : 
; 156  : 	draw_lamp (viper_lamps.auto_pilot, TEXTURE_ANIMATION_INDEX_COCKPIT_LAMP__009);
; 157  : 
; 158  : 	draw_lamp (viper_lamps.laser, TEXTURE_ANIMATION_INDEX_COCKPIT_LAMP__014);
; 159  : 
; 160  : 	draw_lamp (viper_lamps.ir_jammer, TEXTURE_ANIMATION_INDEX_COCKPIT_LAMP__016);
; 161  : 
; 162  : 	draw_lamp (viper_lamps.auto_counter_measures, TEXTURE_ANIMATION_INDEX_COCKPIT_LAMP__017);
; 163  : 
; 164  : 	draw_lamp (viper_lamps.ase_auto_page, TEXTURE_ANIMATION_INDEX_COCKPIT_LAMP__018);
; 165  : 
; 166  : 	draw_lamp (viper_lamps.co_pilot_mfd_focus, TEXTURE_ANIMATION_INDEX_COCKPIT_LAMP__030);
; 167  : 
; 168  : 	draw_lamp (viper_lamps.pilot_mfd_focus, TEXTURE_ANIMATION_INDEX_COCKPIT_LAMP__031);
; 169  : #endif
; 170  : }

  00009	5f		 pop	 edi
  0000a	5e		 pop	 esi
  0000b	5b		 pop	 ebx
  0000c	8b e5		 mov	 esp, ebp
  0000e	5d		 pop	 ebp
  0000f	c3		 ret	 0
?draw_viper_virtual_cockpit_lamps@@YGXXZ ENDP		; draw_viper_virtual_cockpit_lamps
_TEXT	ENDS
; Function compile flags: /Odtp /ZI
; File c:\users\nhv90\projects\eech\aphavoc\source\gunships\cockpits\viper\vi_lamps.c
;	COMDAT ?deinitialise_viper_lamps@@YGXXZ
_TEXT	SEGMENT
?deinitialise_viper_lamps@@YGXXZ PROC			; deinitialise_viper_lamps, COMDAT

; 96   : {

  00000	55		 push	 ebp
  00001	8b ec		 mov	 ebp, esp
  00003	83 ec 40	 sub	 esp, 64			; 00000040H
  00006	53		 push	 ebx
  00007	56		 push	 esi
  00008	57		 push	 edi

; 97   : }

  00009	5f		 pop	 edi
  0000a	5e		 pop	 esi
  0000b	5b		 pop	 ebx
  0000c	8b e5		 mov	 esp, ebp
  0000e	5d		 pop	 ebp
  0000f	c3		 ret	 0
?deinitialise_viper_lamps@@YGXXZ ENDP			; deinitialise_viper_lamps
_TEXT	ENDS
; Function compile flags: /Odtp /ZI
; File c:\users\nhv90\projects\eech\aphavoc\source\gunships\cockpits\viper\vi_lamps.c
;	COMDAT ?initialise_viper_lamps@@YGXXZ
_TEXT	SEGMENT
?initialise_viper_lamps@@YGXXZ PROC			; initialise_viper_lamps, COMDAT

; 87   : {

  00000	55		 push	 ebp
  00001	8b ec		 mov	 ebp, esp
  00003	83 ec 40	 sub	 esp, 64			; 00000040H
  00006	53		 push	 ebx
  00007	56		 push	 esi
  00008	57		 push	 edi

; 88   : 	memset (&viper_lamps, 0, sizeof (viper_lamp_flags));

  00009	6a 04		 push	 4
  0000b	6a 00		 push	 0
  0000d	68 00 00 00 00	 push	 OFFSET ?viper_lamps@@3UVIPER_LAMP_FLAGS@@A ; viper_lamps
  00012	e8 00 00 00 00	 call	 _memset
  00017	83 c4 0c	 add	 esp, 12			; 0000000cH

; 89   : }

  0001a	5f		 pop	 edi
  0001b	5e		 pop	 esi
  0001c	5b		 pop	 ebx
  0001d	8b e5		 mov	 esp, ebp
  0001f	5d		 pop	 ebp
  00020	c3		 ret	 0
?initialise_viper_lamps@@YGXXZ ENDP			; initialise_viper_lamps
_TEXT	ENDS
END
