; Listing generated by Microsoft (R) Optimizing Compiler Version 19.16.27045.0 

	TITLE	C:\Users\nhv90\Projects\eech\aphavoc\source\gunships\views\vm_event.c
	.686P
	.XMM
	include listing.inc
	.model	flat

INCLUDELIB MSVCRTD
INCLUDELIB OLDNAMES

PUBLIC	?move_view_left_key@@3HA			; move_view_left_key
PUBLIC	?move_view_right_key@@3HA			; move_view_right_key
PUBLIC	?move_view_forward_key@@3HA			; move_view_forward_key
PUBLIC	?move_view_backward_key@@3HA			; move_view_backward_key
PUBLIC	?increase_fov_key_down@@3HA			; increase_fov_key_down
PUBLIC	?decrease_fov_key_down@@3HA			; decrease_fov_key_down
PUBLIC	?adjust_view_left_key@@3HA			; adjust_view_left_key
PUBLIC	?adjust_view_right_key@@3HA			; adjust_view_right_key
PUBLIC	?adjust_view_up_key@@3HA			; adjust_view_up_key
PUBLIC	?adjust_view_down_key@@3HA			; adjust_view_down_key
PUBLIC	?adjust_view_zoom_in_key@@3HA			; adjust_view_zoom_in_key
PUBLIC	?adjust_view_zoom_out_key@@3HA			; adjust_view_zoom_out_key
PUBLIC	?joystick_pov_engage@@3HA			; joystick_pov_engage
PUBLIC	?joystick_pov_disengage@@3HA			; joystick_pov_disengage
PUBLIC	?joystick_pov_centred@@3HA			; joystick_pov_centred
PUBLIC	?joystick_pov_left@@3HA				; joystick_pov_left
PUBLIC	?joystick_pov_right@@3HA			; joystick_pov_right
PUBLIC	?joystick_pov_up@@3HA				; joystick_pov_up
PUBLIC	?joystick_pov_down@@3HA				; joystick_pov_down
_BSS	SEGMENT
?move_view_left_key@@3HA DD 01H DUP (?)			; move_view_left_key
?move_view_right_key@@3HA DD 01H DUP (?)		; move_view_right_key
?move_view_forward_key@@3HA DD 01H DUP (?)		; move_view_forward_key
?move_view_backward_key@@3HA DD 01H DUP (?)		; move_view_backward_key
?increase_fov_key_down@@3HA DD 01H DUP (?)		; increase_fov_key_down
?decrease_fov_key_down@@3HA DD 01H DUP (?)		; decrease_fov_key_down
?adjust_view_left_key@@3HA DD 01H DUP (?)		; adjust_view_left_key
?adjust_view_right_key@@3HA DD 01H DUP (?)		; adjust_view_right_key
?adjust_view_up_key@@3HA DD 01H DUP (?)			; adjust_view_up_key
?adjust_view_down_key@@3HA DD 01H DUP (?)		; adjust_view_down_key
?adjust_view_zoom_in_key@@3HA DD 01H DUP (?)		; adjust_view_zoom_in_key
?adjust_view_zoom_out_key@@3HA DD 01H DUP (?)		; adjust_view_zoom_out_key
?joystick_pov_engage@@3HA DD 01H DUP (?)		; joystick_pov_engage
?joystick_pov_disengage@@3HA DD 01H DUP (?)		; joystick_pov_disengage
?joystick_pov_centred@@3HA DD 01H DUP (?)		; joystick_pov_centred
?joystick_pov_left@@3HA DD 01H DUP (?)			; joystick_pov_left
?joystick_pov_right@@3HA DD 01H DUP (?)			; joystick_pov_right
?joystick_pov_up@@3HA DD 01H DUP (?)			; joystick_pov_up
?joystick_pov_down@@3HA DD 01H DUP (?)			; joystick_pov_down
_BSS	ENDS
PUBLIC	___local_stdio_printf_options
PUBLIC	__vsnprintf_l
PUBLIC	__vsprintf_l
PUBLIC	_sprintf
PUBLIC	?set_view_mode_events@@YGXXZ			; set_view_mode_events
PUBLIC	?set_demo_view_mode_events@@YGXXZ		; set_demo_view_mode_events
PUBLIC	?set_gunship_view_mode_events@@YGXXZ		; set_gunship_view_mode_events
PUBLIC	?initialise_view_events@@YGXXZ			; initialise_view_events
PUBLIC	?push_numpad_cockpit_view_events_overlay@@YGXXZ	; push_numpad_cockpit_view_events_overlay
PUBLIC	?pop_numpad_cockpit_view_events_overlay@@YGXXZ	; pop_numpad_cockpit_view_events_overlay
PUBLIC	?update_joystick_pov_position@@YGXXZ		; update_joystick_pov_position
PUBLIC	?_OptionsStorage@?1??__local_stdio_printf_options@@9@4_KA ; `__local_stdio_printf_options'::`2'::_OptionsStorage
PUBLIC	?__LINE__Var@?0??hokum_pilot_view1_event@@YGXPAUEVENT@@@Z@4JA ; `hokum_pilot_view1_event'::`1'::__LINE__Var
PUBLIC	??_C@_0EG@IIKBEODM@c?3?2users?2nhv90?2projects?2eech?2ap@ ; `string'
PUBLIC	??_C@_0DB@JBFDFAKL@get_global_gunship_type?5?$CI?$CJ?5?$DN?$DN?5G@ ; `string'
PUBLIC	?__LINE__Var@?0??hokum_pilot_view2_event@@YGXPAUEVENT@@@Z@4JA ; `hokum_pilot_view2_event'::`1'::__LINE__Var
PUBLIC	?__LINE__Var@?0??hokum_pilot_view3_event@@YGXPAUEVENT@@@Z@4JA ; `hokum_pilot_view3_event'::`1'::__LINE__Var
PUBLIC	??_C@_05OEHCLJIP@?$CFdx?$CFd@			; `string'
PUBLIC	?__LINE__Var@?0??players_target_event@@YGXPAUEVENT@@@Z@4JA ; `players_target_event'::`1'::__LINE__Var
PUBLIC	?__LINE__Var@?0??set_padlock_view_event@@YGXPAUEVENT@@@Z@4JA ; `set_padlock_view_event'::`1'::__LINE__Var
PUBLIC	??_C@_02DHMHPBFG@ev@				; `string'
PUBLIC	??_C@_0BB@IDBKFGPJ@Inset?5target?5OFF@		; `string'
PUBLIC	??_C@_0BA@JOLFFALK@Inset?5target?5ON@		; `string'
PUBLIC	??_C@_0CE@MODMFNFJ@In?9flight?5intelligence?5messages@ ; `string'
PUBLIC	??_C@_0CD@KNPKINK@In?9flight?5intelligence?5messages@ ; `string'
PUBLIC	?__LINE__Var@?0??set_gunship_view_mode_events@@YGXXZ@4JA ; `set_gunship_view_mode_events'::`1'::__LINE__Var
PUBLIC	??_C@_0BG@EANNPEON@get_gunship_entity?5?$CI?$CJ@ ; `string'
PUBLIC	?__LINE__Var@?0??push_numpad_cockpit_view_events_overlay@@YGXXZ@4JA ; `push_numpad_cockpit_view_events_overlay'::`1'::__LINE__Var
PUBLIC	??_C@_0DK@MHDMJOIO@get_in_flight_game_mode?5?$CI?$CJ?5?$DN?$DN?5I@ ; `string'
PUBLIC	??_C@_0BL@MJNAJJOI@numpad?5cockpit?5view?5events@ ; `string'
PUBLIC	??_C@_0BF@JNEDHLHL@ingame?5screen?5events@	; `string'
PUBLIC	??_C@_0DM@EPAJECLB@get_in_flight_game_mode?5?$CI?$CJ?5?$DN?$DN?5I@ ; `string'
PUBLIC	__real@3c8efa35
PUBLIC	__real@3ecccccd
PUBLIC	__real@3f333333
PUBLIC	__real@3f860a92
PUBLIC	__real@3fa999999999999a
PUBLIC	__real@3fb999999999999a
PUBLIC	__real@3ff0000000000000
PUBLIC	__real@3ff3333333333333
PUBLIC	__real@3ff68f5c28f5c28f
PUBLIC	__real@4034000000000000
PUBLIC	__real@41200000
PUBLIC	__real@43f00000
PUBLIC	__real@44200000
PUBLIC	__real@bd32b8c2
PUBLIC	__real@bd7a35dd
PUBLIC	__real@be348249
PUBLIC	__real@bea9c91f
PUBLIC	__real@bebba866
PUBLIC	__real@bedf66f3
EXTRN	__imp____stdio_common_vsprintf:PROC
EXTRN	?process_assert@@YGXPBD0H@Z:PROC		; process_assert
EXTRN	?reset_absolute_mouse@@YGXXZ:PROC		; reset_absolute_mouse
EXTRN	?set_event@@YGXHHHP6GXPAUEVENT@@@Z@Z:PROC	; set_event
EXTRN	?get_joystick_hat@@YG?AW4JOYSTICK_HAT_POSITION@@PAUJOYSTICK_DEVICE_INFO@@H@Z:PROC ; get_joystick_hat
EXTRN	?push_event@@YGXP6GXXZPBD@Z:PROC		; push_event
EXTRN	?push_event_overlay@@YGXP6GXXZPBD@Z:PROC	; push_event_overlay
EXTRN	?pop_event@@YGXP6GXXZ@Z:PROC			; pop_event
EXTRN	?notify_local_entity@@YAHW4ENTITY_MESSAGES@@PAUENTITY@@1ZZ:PROC ; notify_local_entity
EXTRN	?reset_building_camera_values@@YGXPAUENTITY@@@Z:PROC ; reset_building_camera_values
EXTRN	?get_camera_mode@@YG?AW4CAMERA_MODES@@PAUENTITY@@@Z:PROC ; get_camera_mode
EXTRN	?get_external_view_entity@@YGPAUENTITY@@XZ:PROC	; get_external_view_entity
EXTRN	?get_local_entity_viewable_weapon@@YGPAUENTITY@@PAU1@@Z:PROC ; get_local_entity_viewable_weapon
EXTRN	?set_3d_resolutions@@YGXMM@Z:PROC		; set_3d_resolutions
EXTRN	?increase_3d_resolutions@@YGXPAUEVENT@@@Z:PROC	; increase_3d_resolutions
EXTRN	?decrease_3d_resolutions@@YGXPAUEVENT@@@Z:PROC	; decrease_3d_resolutions
EXTRN	?set_view_angles@@YGXM@Z:PROC			; set_view_angles
EXTRN	?set_status_message@@YGXPBDW4STATUS_MESSAGE_TYPES@@@Z:PROC ; set_status_message
EXTRN	?select_external_view@@YGXXZ:PROC		; select_external_view
EXTRN	?get_rel_fixed_cockpit_view@@YG?AW4VIEW_MODES@@HH@Z:PROC ; get_rel_fixed_cockpit_view
EXTRN	?get_abs_fixed_cockpit_view@@YG?AW4VIEW_MODES@@HH@Z:PROC ; get_abs_fixed_cockpit_view
EXTRN	?get_nearest_fixed_cockpit_view@@YG?AW4VIEW_MODES@@MM@Z:PROC ; get_nearest_fixed_cockpit_view
EXTRN	?get_max_fov@@YGHXZ:PROC			; get_max_fov
EXTRN	?set_view_mode@@YGHW4VIEW_MODES@@@Z:PROC	; set_view_mode
EXTRN	?select_view_menu_next_side@@YGXXZ:PROC		; select_view_menu_next_side
EXTRN	?select_view_menu_previous_side_event@@YGXXZ:PROC ; select_view_menu_previous_side_event
EXTRN	?select_view_menu_next_category@@YGXXZ:PROC	; select_view_menu_next_category
EXTRN	?select_view_menu_previous_category@@YGXXZ:PROC	; select_view_menu_previous_category
EXTRN	?select_view_menu_next_type@@YGXXZ:PROC		; select_view_menu_next_type
EXTRN	?select_view_menu_previous_type@@YGXXZ:PROC	; select_view_menu_previous_type
EXTRN	?select_view_menu_next_object@@YGXXZ:PROC	; select_view_menu_next_object
EXTRN	?select_view_menu_previous_object_event@@YGXXZ:PROC ; select_view_menu_previous_object_event
EXTRN	?select_view_menu_view_players_gunship@@YGHXZ:PROC ; select_view_menu_view_players_gunship
EXTRN	?select_view_menu_view_players_target@@YGHXZ:PROC ; select_view_menu_view_players_target
EXTRN	?select_view_menu_view_players_padlock@@YGHXZ:PROC ; select_view_menu_view_players_padlock
EXTRN	?select_view_menu_view_all@@YGXXZ:PROC		; select_view_menu_view_all
EXTRN	?select_view_menu_view_wingmen@@YGHXZ:PROC	; select_view_menu_view_wingmen
EXTRN	?select_view_menu_view_players@@YGXXZ:PROC	; select_view_menu_view_players
EXTRN	?select_view_menu_view_available_gunships@@YGXXZ:PROC ; select_view_menu_view_available_gunships
EXTRN	?select_next_view_menu_range@@YGXXZ:PROC	; select_next_view_menu_range
EXTRN	?select_previous_view_menu_range@@YGXXZ:PROC	; select_previous_view_menu_range
EXTRN	?set_view_menu_display_visible_status@@YGXH@Z:PROC ; set_view_menu_display_visible_status
EXTRN	?get_view_menu_display_visible_status@@YGHXZ:PROC ; get_view_menu_display_visible_status
EXTRN	?switch_seat_position@@YGXXZ:PROC		; switch_seat_position
EXTRN	?set_pilot_seat_position@@YGXXZ:PROC		; set_pilot_seat_position
EXTRN	?get_padlock_mode@@YG?AW4PADLOCK_MODES@@XZ:PROC	; get_padlock_mode
EXTRN	?select_padlock_view_event@@YGXW4PADLOCK_MODES@@@Z:PROC ; select_padlock_view_event
EXTRN	?select_inset_view_event@@YGXW4PADLOCK_MODES@@@Z:PROC ; select_inset_view_event
EXTRN	?cycle_tsd_map_palette@@YGXXZ:PROC		; cycle_tsd_map_palette
EXTRN	?get_crew_role@@YG?AW4CREW_ROLES@@XZ:PROC	; get_crew_role
EXTRN	?select_next_current_virtual_cockpit_camera@@YGXW4CREW_ROLES@@@Z:PROC ; select_next_current_virtual_cockpit_camera
EXTRN	?cyclic_left@@YGXPAUEVENT@@@Z:PROC		; cyclic_left
EXTRN	?cyclic_right@@YGXPAUEVENT@@@Z:PROC		; cyclic_right
EXTRN	?cyclic_forward@@YGXPAUEVENT@@@Z:PROC		; cyclic_forward
EXTRN	?cyclic_backward@@YGXPAUEVENT@@@Z:PROC		; cyclic_backward
EXTRN	?adjust_pitch_trim@@YGXPAUEVENT@@@Z:PROC	; adjust_pitch_trim
EXTRN	?adjust_roll_trim@@YGXPAUEVENT@@@Z:PROC		; adjust_roll_trim
EXTRN	?get_outgoing_in_flight_message_flag@@YGHXZ:PROC ; get_outgoing_in_flight_message_flag
EXTRN	?stop_messaging_system@@YGXPAUEVENT@@@Z:PROC	; stop_messaging_system
EXTRN	?get_trans@@YGPBDPBD@Z:PROC			; get_trans
EXTRN	?ingame_screen_set_events@@YGXXZ:PROC		; ingame_screen_set_events
EXTRN	?joystick_devices@@3PAUJOYSTICK_DEVICE_INFO@@A:DWORD ; joystick_devices
EXTRN	?event_stack_head@@3PAUEVENT_STACK@@A:DWORD	; event_stack_head
EXTRN	?application_video_colourdepth@@3HA:DWORD	; application_video_colourdepth
EXTRN	?command_line_min_fov@@3HA:DWORD		; command_line_min_fov
EXTRN	?command_line_cyclic_joystick_index@@3HA:DWORD	; command_line_cyclic_joystick_index
EXTRN	?command_line_tsd_render_mode@@3HA:DWORD	; command_line_tsd_render_mode
EXTRN	?command_line_3d_cockpit@@3HA:DWORD		; command_line_3d_cockpit
EXTRN	?global_aphavoc_maps@@3HA:DWORD			; global_aphavoc_maps
EXTRN	?global_hud_size2@@3MA:DWORD			; global_hud_size2
EXTRN	?global_mfd_size@@3MA:DWORD			; global_mfd_size
EXTRN	?in_flight_game_mode@@3W4IN_FLIGHT_GAME_MODES@@A:DWORD ; in_flight_game_mode
EXTRN	?new_gunship@@3QBDB:BYTE			; new_gunship
EXTRN	?null_entity_pointer_message@@3PBDB:DWORD	; null_entity_pointer_message
EXTRN	?hud_code@@3PAY03HA:BYTE			; hud_code
EXTRN	?global_options@@3UGLOBAL_OPTIONS_DATA@@A:BYTE	; global_options
EXTRN	?overload_invalid_list_type_message@@3PBDB:DWORD ; overload_invalid_list_type_message
EXTRN	?fn_get_local_entity_parent@@3PAY0CN@P6GPAUENTITY@@PAU1@W4LIST_TYPES@@@ZA:BYTE ; fn_get_local_entity_parent
EXTRN	?overload_invalid_int_type_message@@3PBDB:DWORD	; overload_invalid_int_type_message
EXTRN	?fn_get_local_entity_int_value@@3PAY0BBH@P6GHPAUENTITY@@W4INT_TYPES@@@ZA:BYTE ; fn_get_local_entity_int_value
EXTRN	?gunship_entity@@3PAUENTITY@@A:DWORD		; gunship_entity
EXTRN	?camera_entity@@3PAUENTITY@@A:DWORD		; camera_entity
EXTRN	?full_screen_hi_res@@3HA:DWORD			; full_screen_hi_res
EXTRN	?view_mode@@3W4VIEW_MODES@@A:DWORD		; view_mode
EXTRN	?in_cockpit@@3HA:DWORD				; in_cockpit
EXTRN	?pilot_head_heading@@3MA:DWORD			; pilot_head_heading
EXTRN	?pilot_head_pitch@@3MA:DWORD			; pilot_head_pitch
EXTRN	?wide_cockpit@@3HA:DWORD			; wide_cockpit
EXTRN	?edit_wide_cockpit@@3HA:DWORD			; edit_wide_cockpit
EXTRN	?wide_cockpit_position@@3PAUCOCKPIT_POSITION@@A:BYTE ; wide_cockpit_position
EXTRN	?wide_cockpit_nr@@3HA:DWORD			; wide_cockpit_nr
EXTRN	?tsd_render_mode@@3W4TSD_RENDER_MODES@@A:DWORD	; tsd_render_mode
EXTRN	?external_view_inset_target@@3HA:DWORD		; external_view_inset_target
EXTRN	?pilot_head_pitch_datum@@3MA:DWORD		; pilot_head_pitch_datum
EXTRN	?co_pilot_head_pitch_datum@@3MA:DWORD		; co_pilot_head_pitch_datum
EXTRN	?game_type@@3W4GAME_TYPES@@A:DWORD		; game_type
EXTRN	__fltused:DWORD
;	COMDAT ?_OptionsStorage@?1??__local_stdio_printf_options@@9@4_KA
_BSS	SEGMENT
?_OptionsStorage@?1??__local_stdio_printf_options@@9@4_KA DQ 01H DUP (?) ; `__local_stdio_printf_options'::`2'::_OptionsStorage
_BSS	ENDS
;	COMDAT __real@bedf66f3
CONST	SEGMENT
__real@bedf66f3 DD 0bedf66f3r			; -0.436332
CONST	ENDS
;	COMDAT __real@bebba866
CONST	SEGMENT
__real@bebba866 DD 0bebba866r			; -0.366519
CONST	ENDS
;	COMDAT __real@bea9c91f
CONST	SEGMENT
__real@bea9c91f DD 0bea9c91fr			; -0.331613
CONST	ENDS
;	COMDAT __real@be348249
CONST	SEGMENT
__real@be348249 DD 0be348249r			; -0.176278
CONST	ENDS
;	COMDAT __real@bd7a35dd
CONST	SEGMENT
__real@bd7a35dd DD 0bd7a35ddr			; -0.0610865
CONST	ENDS
;	COMDAT __real@bd32b8c2
CONST	SEGMENT
__real@bd32b8c2 DD 0bd32b8c2r			; -0.0436332
CONST	ENDS
;	COMDAT __real@44200000
CONST	SEGMENT
__real@44200000 DD 044200000r			; 640
CONST	ENDS
;	COMDAT __real@43f00000
CONST	SEGMENT
__real@43f00000 DD 043f00000r			; 480
CONST	ENDS
;	COMDAT __real@41200000
CONST	SEGMENT
__real@41200000 DD 041200000r			; 10
CONST	ENDS
;	COMDAT __real@4034000000000000
CONST	SEGMENT
__real@4034000000000000 DQ 04034000000000000r	; 20
CONST	ENDS
;	COMDAT __real@3ff68f5c28f5c28f
CONST	SEGMENT
__real@3ff68f5c28f5c28f DQ 03ff68f5c28f5c28fr	; 1.41
CONST	ENDS
;	COMDAT __real@3ff3333333333333
CONST	SEGMENT
__real@3ff3333333333333 DQ 03ff3333333333333r	; 1.2
CONST	ENDS
;	COMDAT __real@3ff0000000000000
CONST	SEGMENT
__real@3ff0000000000000 DQ 03ff0000000000000r	; 1
CONST	ENDS
;	COMDAT __real@3fb999999999999a
CONST	SEGMENT
__real@3fb999999999999a DQ 03fb999999999999ar	; 0.1
CONST	ENDS
;	COMDAT __real@3fa999999999999a
CONST	SEGMENT
__real@3fa999999999999a DQ 03fa999999999999ar	; 0.05
CONST	ENDS
;	COMDAT __real@3f860a92
CONST	SEGMENT
__real@3f860a92 DD 03f860a92r			; 1.0472
CONST	ENDS
;	COMDAT __real@3f333333
CONST	SEGMENT
__real@3f333333 DD 03f333333r			; 0.7
CONST	ENDS
;	COMDAT __real@3ecccccd
CONST	SEGMENT
__real@3ecccccd DD 03ecccccdr			; 0.4
CONST	ENDS
;	COMDAT __real@3c8efa35
CONST	SEGMENT
__real@3c8efa35 DD 03c8efa35r			; 0.0174533
CONST	ENDS
;	COMDAT ??_C@_0DM@EPAJECLB@get_in_flight_game_mode?5?$CI?$CJ?5?$DN?$DN?5I@
CONST	SEGMENT
??_C@_0DM@EPAJECLB@get_in_flight_game_mode?5?$CI?$CJ?5?$DN?$DN?5I@ DB 'ge'
	DB	't_in_flight_game_mode () == IN_FLIGHT_GAME_MODE_SIMULATOR', 00H ; `string'
CONST	ENDS
;	COMDAT ??_C@_0BF@JNEDHLHL@ingame?5screen?5events@
CONST	SEGMENT
??_C@_0BF@JNEDHLHL@ingame?5screen?5events@ DB 'ingame screen events', 00H ; `string'
CONST	ENDS
;	COMDAT ??_C@_0BL@MJNAJJOI@numpad?5cockpit?5view?5events@
CONST	SEGMENT
??_C@_0BL@MJNAJJOI@numpad?5cockpit?5view?5events@ DB 'numpad cockpit view'
	DB	' events', 00H				; `string'
CONST	ENDS
;	COMDAT ??_C@_0DK@MHDMJOIO@get_in_flight_game_mode?5?$CI?$CJ?5?$DN?$DN?5I@
CONST	SEGMENT
??_C@_0DK@MHDMJOIO@get_in_flight_game_mode?5?$CI?$CJ?5?$DN?$DN?5I@ DB 'ge'
	DB	't_in_flight_game_mode () == IN_FLIGHT_GAME_MODE_PLANNER', 00H ; `string'
CONST	ENDS
;	COMDAT ?__LINE__Var@?0??push_numpad_cockpit_view_events_overlay@@YGXXZ@4JA
_DATA	SEGMENT
?__LINE__Var@?0??push_numpad_cockpit_view_events_overlay@@YGXXZ@4JA DD 09ceH ; `push_numpad_cockpit_view_events_overlay'::`1'::__LINE__Var
_DATA	ENDS
;	COMDAT ??_C@_0BG@EANNPEON@get_gunship_entity?5?$CI?$CJ@
CONST	SEGMENT
??_C@_0BG@EANNPEON@get_gunship_entity?5?$CI?$CJ@ DB 'get_gunship_entity ('
	DB	')', 00H					; `string'
CONST	ENDS
;	COMDAT ?__LINE__Var@?0??set_gunship_view_mode_events@@YGXXZ@4JA
_DATA	SEGMENT
?__LINE__Var@?0??set_gunship_view_mode_events@@YGXXZ@4JA DD 0920H ; `set_gunship_view_mode_events'::`1'::__LINE__Var
_DATA	ENDS
;	COMDAT ??_C@_0CD@KNPKINK@In?9flight?5intelligence?5messages@
CONST	SEGMENT
??_C@_0CD@KNPKINK@In?9flight?5intelligence?5messages@ DB 'In-flight intel'
	DB	'ligence messages ON', 00H			; `string'
CONST	ENDS
;	COMDAT ??_C@_0CE@MODMFNFJ@In?9flight?5intelligence?5messages@
CONST	SEGMENT
??_C@_0CE@MODMFNFJ@In?9flight?5intelligence?5messages@ DB 'In-flight inte'
	DB	'lligence messages OFF', 00H			; `string'
CONST	ENDS
;	COMDAT ??_C@_0BA@JOLFFALK@Inset?5target?5ON@
CONST	SEGMENT
??_C@_0BA@JOLFFALK@Inset?5target?5ON@ DB 'Inset target ON', 00H ; `string'
CONST	ENDS
;	COMDAT ??_C@_0BB@IDBKFGPJ@Inset?5target?5OFF@
CONST	SEGMENT
??_C@_0BB@IDBKFGPJ@Inset?5target?5OFF@ DB 'Inset target OFF', 00H ; `string'
CONST	ENDS
;	COMDAT ??_C@_02DHMHPBFG@ev@
CONST	SEGMENT
??_C@_02DHMHPBFG@ev@ DB 'ev', 00H			; `string'
CONST	ENDS
;	COMDAT ?__LINE__Var@?0??set_padlock_view_event@@YGXPAUEVENT@@@Z@4JA
_DATA	SEGMENT
?__LINE__Var@?0??set_padlock_view_event@@YGXPAUEVENT@@@Z@4JA DD 07a7H ; `set_padlock_view_event'::`1'::__LINE__Var
_DATA	ENDS
;	COMDAT ?__LINE__Var@?0??players_target_event@@YGXPAUEVENT@@@Z@4JA
_DATA	SEGMENT
?__LINE__Var@?0??players_target_event@@YGXPAUEVENT@@@Z@4JA DD 0654H ; `players_target_event'::`1'::__LINE__Var
_DATA	ENDS
;	COMDAT ??_C@_05OEHCLJIP@?$CFdx?$CFd@
CONST	SEGMENT
??_C@_05OEHCLJIP@?$CFdx?$CFd@ DB '%dx%d', 00H		; `string'
CONST	ENDS
;	COMDAT ?__LINE__Var@?0??hokum_pilot_view3_event@@YGXPAUEVENT@@@Z@4JA
_DATA	SEGMENT
?__LINE__Var@?0??hokum_pilot_view3_event@@YGXPAUEVENT@@@Z@4JA DD 0515H ; `hokum_pilot_view3_event'::`1'::__LINE__Var
_DATA	ENDS
;	COMDAT ?__LINE__Var@?0??hokum_pilot_view2_event@@YGXPAUEVENT@@@Z@4JA
_DATA	SEGMENT
?__LINE__Var@?0??hokum_pilot_view2_event@@YGXPAUEVENT@@@Z@4JA DD 04f7H ; `hokum_pilot_view2_event'::`1'::__LINE__Var
_DATA	ENDS
;	COMDAT ??_C@_0DB@JBFDFAKL@get_global_gunship_type?5?$CI?$CJ?5?$DN?$DN?5G@
CONST	SEGMENT
??_C@_0DB@JBFDFAKL@get_global_gunship_type?5?$CI?$CJ?5?$DN?$DN?5G@ DB 'ge'
	DB	't_global_gunship_type () == GUNSHIP_TYPE_HOKUM', 00H ; `string'
CONST	ENDS
;	COMDAT ??_C@_0EG@IIKBEODM@c?3?2users?2nhv90?2projects?2eech?2ap@
CONST	SEGMENT
??_C@_0EG@IIKBEODM@c?3?2users?2nhv90?2projects?2eech?2ap@ DB 'c:\users\nh'
	DB	'v90\projects\eech\aphavoc\source\gunships\views\vm_event.c', 00H ; `string'
CONST	ENDS
;	COMDAT ?__LINE__Var@?0??hokum_pilot_view1_event@@YGXPAUEVENT@@@Z@4JA
_DATA	SEGMENT
?__LINE__Var@?0??hokum_pilot_view1_event@@YGXPAUEVENT@@@Z@4JA DD 04d9H ; `hokum_pilot_view1_event'::`1'::__LINE__Var
_DATA	ENDS
; Function compile flags: /Odtp /ZI
; File c:\users\nhv90\projects\eech\aphavoc\source\gunships\views\vm_event.c
;	COMDAT ?set_numpad_cockpit_view_events@@YGXXZ
_TEXT	SEGMENT
?set_numpad_cockpit_view_events@@YGXXZ PROC		; set_numpad_cockpit_view_events, COMDAT

; 2485 : {

  00000	55		 push	 ebp
  00001	8b ec		 mov	 ebp, esp
  00003	83 ec 40	 sub	 esp, 64			; 00000040H
  00006	53		 push	 ebx
  00007	56		 push	 esi
  00008	57		 push	 edi

; 2486 : 	if (get_apache_havoc_gunship ())

  00009	a1 0c 00 00 00	 mov	 eax, DWORD PTR ?global_options@@3UGLOBAL_OPTIONS_DATA@@A+12
  0000e	0f b6 88 00 00
	00 00		 movzx	 ecx, BYTE PTR ?new_gunship@@3QBDB[eax]
  00015	85 c9		 test	 ecx, ecx
  00017	0f 85 80 00 00
	00		 jne	 $LN2@set_numpad

; 2487 : 	{
; 2488 : 		set_event (DIK_NUMPAD4, MODIFIER_LEFT_CONTROL, KEY_STATE_DOWN, look_rel_left_event);

  0001d	68 00 00 00 00	 push	 OFFSET ?look_rel_left_event@@YGXPAUEVENT@@@Z ; look_rel_left_event
  00022	6a 02		 push	 2
  00024	6a 02		 push	 2
  00026	6a 4b		 push	 75			; 0000004bH
  00028	e8 00 00 00 00	 call	 ?set_event@@YGXHHHP6GXPAUEVENT@@@Z@Z ; set_event

; 2489 : 		set_event (DIK_NUMPAD6, MODIFIER_LEFT_CONTROL, KEY_STATE_DOWN, look_rel_right_event);

  0002d	68 00 00 00 00	 push	 OFFSET ?look_rel_right_event@@YGXPAUEVENT@@@Z ; look_rel_right_event
  00032	6a 02		 push	 2
  00034	6a 02		 push	 2
  00036	6a 4d		 push	 77			; 0000004dH
  00038	e8 00 00 00 00	 call	 ?set_event@@YGXHHHP6GXPAUEVENT@@@Z@Z ; set_event

; 2490 : 		set_event (DIK_NUMPAD8, MODIFIER_LEFT_CONTROL, KEY_STATE_DOWN, look_rel_up_event);

  0003d	68 00 00 00 00	 push	 OFFSET ?look_rel_up_event@@YGXPAUEVENT@@@Z ; look_rel_up_event
  00042	6a 02		 push	 2
  00044	6a 02		 push	 2
  00046	6a 48		 push	 72			; 00000048H
  00048	e8 00 00 00 00	 call	 ?set_event@@YGXHHHP6GXPAUEVENT@@@Z@Z ; set_event

; 2491 : 		set_event (DIK_NUMPAD2, MODIFIER_LEFT_CONTROL, KEY_STATE_DOWN, look_rel_down_event);

  0004d	68 00 00 00 00	 push	 OFFSET ?look_rel_down_event@@YGXPAUEVENT@@@Z ; look_rel_down_event
  00052	6a 02		 push	 2
  00054	6a 02		 push	 2
  00056	6a 50		 push	 80			; 00000050H
  00058	e8 00 00 00 00	 call	 ?set_event@@YGXHHHP6GXPAUEVENT@@@Z@Z ; set_event

; 2492 : 
; 2493 : 		set_event (DIK_NUMPAD4, MODIFIER_LEFT_SHIFT, KEY_STATE_DOWN, look_abs_left_event);

  0005d	68 00 00 00 00	 push	 OFFSET ?look_abs_left_event@@YGXPAUEVENT@@@Z ; look_abs_left_event
  00062	6a 02		 push	 2
  00064	6a 01		 push	 1
  00066	6a 4b		 push	 75			; 0000004bH
  00068	e8 00 00 00 00	 call	 ?set_event@@YGXHHHP6GXPAUEVENT@@@Z@Z ; set_event

; 2494 : 		set_event (DIK_NUMPAD6, MODIFIER_LEFT_SHIFT, KEY_STATE_DOWN, look_abs_right_event);

  0006d	68 00 00 00 00	 push	 OFFSET ?look_abs_right_event@@YGXPAUEVENT@@@Z ; look_abs_right_event
  00072	6a 02		 push	 2
  00074	6a 01		 push	 1
  00076	6a 4d		 push	 77			; 0000004dH
  00078	e8 00 00 00 00	 call	 ?set_event@@YGXHHHP6GXPAUEVENT@@@Z@Z ; set_event

; 2495 : 		set_event (DIK_NUMPAD8, MODIFIER_LEFT_SHIFT, KEY_STATE_EITHER, look_abs_up_event);

  0007d	68 00 00 00 00	 push	 OFFSET ?look_abs_up_event@@YGXPAUEVENT@@@Z ; look_abs_up_event
  00082	6a 03		 push	 3
  00084	6a 01		 push	 1
  00086	6a 48		 push	 72			; 00000048H
  00088	e8 00 00 00 00	 call	 ?set_event@@YGXHHHP6GXPAUEVENT@@@Z@Z ; set_event

; 2496 : 		set_event (DIK_NUMPAD2, MODIFIER_LEFT_SHIFT, KEY_STATE_EITHER, look_abs_down_event);

  0008d	68 00 00 00 00	 push	 OFFSET ?look_abs_down_event@@YGXPAUEVENT@@@Z ; look_abs_down_event
  00092	6a 03		 push	 3
  00094	6a 01		 push	 1
  00096	6a 50		 push	 80			; 00000050H
  00098	e8 00 00 00 00	 call	 ?set_event@@YGXHHHP6GXPAUEVENT@@@Z@Z ; set_event
$LN2@set_numpad:

; 2497 : 	}
; 2498 : 
; 2499 : 	set_event (DIK_NUMPAD4, MODIFIER_LEFT_ALT, KEY_STATE_EITHER, adjust_view_left_event);

  0009d	68 00 00 00 00	 push	 OFFSET ?adjust_view_left_event@@YGXPAUEVENT@@@Z ; adjust_view_left_event
  000a2	6a 03		 push	 3
  000a4	6a 03		 push	 3
  000a6	6a 4b		 push	 75			; 0000004bH
  000a8	e8 00 00 00 00	 call	 ?set_event@@YGXHHHP6GXPAUEVENT@@@Z@Z ; set_event

; 2500 : 	set_event (DIK_NUMPAD6, MODIFIER_LEFT_ALT, KEY_STATE_EITHER, adjust_view_right_event);

  000ad	68 00 00 00 00	 push	 OFFSET ?adjust_view_right_event@@YGXPAUEVENT@@@Z ; adjust_view_right_event
  000b2	6a 03		 push	 3
  000b4	6a 03		 push	 3
  000b6	6a 4d		 push	 77			; 0000004dH
  000b8	e8 00 00 00 00	 call	 ?set_event@@YGXHHHP6GXPAUEVENT@@@Z@Z ; set_event

; 2501 : 	set_event (DIK_NUMPAD8, MODIFIER_LEFT_ALT, KEY_STATE_EITHER, adjust_view_up_event);

  000bd	68 00 00 00 00	 push	 OFFSET ?adjust_view_up_event@@YGXPAUEVENT@@@Z ; adjust_view_up_event
  000c2	6a 03		 push	 3
  000c4	6a 03		 push	 3
  000c6	6a 48		 push	 72			; 00000048H
  000c8	e8 00 00 00 00	 call	 ?set_event@@YGXHHHP6GXPAUEVENT@@@Z@Z ; set_event

; 2502 : 	set_event (DIK_NUMPAD2, MODIFIER_LEFT_ALT, KEY_STATE_EITHER, adjust_view_down_event);

  000cd	68 00 00 00 00	 push	 OFFSET ?adjust_view_down_event@@YGXPAUEVENT@@@Z ; adjust_view_down_event
  000d2	6a 03		 push	 3
  000d4	6a 03		 push	 3
  000d6	6a 50		 push	 80			; 00000050H
  000d8	e8 00 00 00 00	 call	 ?set_event@@YGXHHHP6GXPAUEVENT@@@Z@Z ; set_event

; 2503 : }

  000dd	5f		 pop	 edi
  000de	5e		 pop	 esi
  000df	5b		 pop	 ebx
  000e0	8b e5		 mov	 esp, ebp
  000e2	5d		 pop	 ebp
  000e3	c3		 ret	 0
?set_numpad_cockpit_view_events@@YGXXZ ENDP		; set_numpad_cockpit_view_events
_TEXT	ENDS
; Function compile flags: /Odtp /ZI
; File c:\users\nhv90\projects\eech\aphavoc\source\gunships\views\vm_event.c
;	COMDAT ?reset_mouse_event@@YGXPAUEVENT@@@Z
_TEXT	SEGMENT
_ev$ = 8						; size = 4
?reset_mouse_event@@YGXPAUEVENT@@@Z PROC		; reset_mouse_event, COMDAT

; 2187 : {

  00000	55		 push	 ebp
  00001	8b ec		 mov	 ebp, esp
  00003	83 ec 40	 sub	 esp, 64			; 00000040H
  00006	53		 push	 ebx
  00007	56		 push	 esi
  00008	57		 push	 edi

; 2188 : 	reset_absolute_mouse ();

  00009	e8 00 00 00 00	 call	 ?reset_absolute_mouse@@YGXXZ ; reset_absolute_mouse

; 2189 : }

  0000e	5f		 pop	 edi
  0000f	5e		 pop	 esi
  00010	5b		 pop	 ebx
  00011	8b e5		 mov	 esp, ebp
  00013	5d		 pop	 ebp
  00014	c2 04 00	 ret	 4
?reset_mouse_event@@YGXPAUEVENT@@@Z ENDP		; reset_mouse_event
_TEXT	ENDS
; Function compile flags: /Odtp /ZI
; File c:\users\nhv90\projects\eech\aphavoc\source\gunships\views\vm_event.c
;	COMDAT ?decrease_fov_event@@YGXPAUEVENT@@@Z
_TEXT	SEGMENT
tv67 = -68						; size = 4
_ev$ = 8						; size = 4
?decrease_fov_event@@YGXPAUEVENT@@@Z PROC		; decrease_fov_event, COMDAT

; 2182 : {

  00000	55		 push	 ebp
  00001	8b ec		 mov	 ebp, esp
  00003	83 ec 44	 sub	 esp, 68			; 00000044H
  00006	53		 push	 ebx
  00007	56		 push	 esi
  00008	57		 push	 edi

; 2183 : 	decrease_fov_key_down = (ev->state == KEY_STATE_DOWN);

  00009	8b 45 08	 mov	 eax, DWORD PTR _ev$[ebp]
  0000c	0f b7 48 08	 movzx	 ecx, WORD PTR [eax+8]
  00010	83 f9 02	 cmp	 ecx, 2
  00013	75 09		 jne	 SHORT $LN3@decrease_f
  00015	c7 45 bc 01 00
	00 00		 mov	 DWORD PTR tv67[ebp], 1
  0001c	eb 07		 jmp	 SHORT $LN4@decrease_f
$LN3@decrease_f:
  0001e	c7 45 bc 00 00
	00 00		 mov	 DWORD PTR tv67[ebp], 0
$LN4@decrease_f:
  00025	8b 55 bc	 mov	 edx, DWORD PTR tv67[ebp]
  00028	89 15 00 00 00
	00		 mov	 DWORD PTR ?decrease_fov_key_down@@3HA, edx ; decrease_fov_key_down

; 2184 : }

  0002e	5f		 pop	 edi
  0002f	5e		 pop	 esi
  00030	5b		 pop	 ebx
  00031	8b e5		 mov	 esp, ebp
  00033	5d		 pop	 ebp
  00034	c2 04 00	 ret	 4
?decrease_fov_event@@YGXPAUEVENT@@@Z ENDP		; decrease_fov_event
_TEXT	ENDS
; Function compile flags: /Odtp /ZI
; File c:\users\nhv90\projects\eech\aphavoc\source\gunships\views\vm_event.c
;	COMDAT ?increase_fov_event@@YGXPAUEVENT@@@Z
_TEXT	SEGMENT
tv67 = -68						; size = 4
_ev$ = 8						; size = 4
?increase_fov_event@@YGXPAUEVENT@@@Z PROC		; increase_fov_event, COMDAT

; 2177 : {

  00000	55		 push	 ebp
  00001	8b ec		 mov	 ebp, esp
  00003	83 ec 44	 sub	 esp, 68			; 00000044H
  00006	53		 push	 ebx
  00007	56		 push	 esi
  00008	57		 push	 edi

; 2178 : 	increase_fov_key_down = (ev->state == KEY_STATE_DOWN);

  00009	8b 45 08	 mov	 eax, DWORD PTR _ev$[ebp]
  0000c	0f b7 48 08	 movzx	 ecx, WORD PTR [eax+8]
  00010	83 f9 02	 cmp	 ecx, 2
  00013	75 09		 jne	 SHORT $LN3@increase_f
  00015	c7 45 bc 01 00
	00 00		 mov	 DWORD PTR tv67[ebp], 1
  0001c	eb 07		 jmp	 SHORT $LN4@increase_f
$LN3@increase_f:
  0001e	c7 45 bc 00 00
	00 00		 mov	 DWORD PTR tv67[ebp], 0
$LN4@increase_f:
  00025	8b 55 bc	 mov	 edx, DWORD PTR tv67[ebp]
  00028	89 15 00 00 00
	00		 mov	 DWORD PTR ?increase_fov_key_down@@3HA, edx ; increase_fov_key_down

; 2179 : }

  0002e	5f		 pop	 edi
  0002f	5e		 pop	 esi
  00030	5b		 pop	 ebx
  00031	8b e5		 mov	 esp, ebp
  00033	5d		 pop	 ebp
  00034	c2 04 00	 ret	 4
?increase_fov_event@@YGXPAUEVENT@@@Z ENDP		; increase_fov_event
_TEXT	ENDS
; Function compile flags: /Odtp /ZI
; File c:\users\nhv90\projects\eech\aphavoc\source\gunships\views\vm_event.c
;	COMDAT ?hi_fov_event@@YGXPAUEVENT@@@Z
_TEXT	SEGMENT
_ev$ = 8						; size = 4
?hi_fov_event@@YGXPAUEVENT@@@Z PROC			; hi_fov_event, COMDAT

; 2171 : {

  00000	55		 push	 ebp
  00001	8b ec		 mov	 ebp, esp
  00003	83 ec 40	 sub	 esp, 64			; 00000040H
  00006	53		 push	 ebx
  00007	56		 push	 esi
  00008	57		 push	 edi

; 2172 : 	// Casm 08OCT05 Max fov depends on gunship type
; 2173 : 	set_view_angles ( rad (get_max_fov ()) );

  00009	e8 00 00 00 00	 call	 ?get_max_fov@@YGHXZ	; get_max_fov
  0000e	f3 0f 2a c0	 cvtsi2ss xmm0, eax
  00012	f3 0f 59 05 00
	00 00 00	 mulss	 xmm0, DWORD PTR __real@3c8efa35
  0001a	51		 push	 ecx
  0001b	f3 0f 11 04 24	 movss	 DWORD PTR [esp], xmm0
  00020	e8 00 00 00 00	 call	 ?set_view_angles@@YGXM@Z ; set_view_angles

; 2174 : }

  00025	5f		 pop	 edi
  00026	5e		 pop	 esi
  00027	5b		 pop	 ebx
  00028	8b e5		 mov	 esp, ebp
  0002a	5d		 pop	 ebp
  0002b	c2 04 00	 ret	 4
?hi_fov_event@@YGXPAUEVENT@@@Z ENDP			; hi_fov_event
_TEXT	ENDS
; Function compile flags: /Odtp /ZI
; File c:\users\nhv90\projects\eech\aphavoc\source\gunships\views\vm_event.c
;	COMDAT ?std_fov_event@@YGXPAUEVENT@@@Z
_TEXT	SEGMENT
_ev$ = 8						; size = 4
?std_fov_event@@YGXPAUEVENT@@@Z PROC			; std_fov_event, COMDAT

; 2167 : {

  00000	55		 push	 ebp
  00001	8b ec		 mov	 ebp, esp
  00003	83 ec 40	 sub	 esp, 64			; 00000040H
  00006	53		 push	 ebx
  00007	56		 push	 esi
  00008	57		 push	 edi

; 2168 : 	set_view_angles (rad (DEFAULT_FOV));

  00009	51		 push	 ecx
  0000a	f3 0f 10 05 00
	00 00 00	 movss	 xmm0, DWORD PTR __real@3f860a92
  00012	f3 0f 11 04 24	 movss	 DWORD PTR [esp], xmm0
  00017	e8 00 00 00 00	 call	 ?set_view_angles@@YGXM@Z ; set_view_angles

; 2169 : }

  0001c	5f		 pop	 edi
  0001d	5e		 pop	 esi
  0001e	5b		 pop	 ebx
  0001f	8b e5		 mov	 esp, ebp
  00021	5d		 pop	 ebp
  00022	c2 04 00	 ret	 4
?std_fov_event@@YGXPAUEVENT@@@Z ENDP			; std_fov_event
_TEXT	ENDS
; Function compile flags: /Odtp /ZI
; File c:\users\nhv90\projects\eech\aphavoc\source\gunships\views\vm_event.c
;	COMDAT ?lo_fov_event@@YGXPAUEVENT@@@Z
_TEXT	SEGMENT
_ev$ = 8						; size = 4
?lo_fov_event@@YGXPAUEVENT@@@Z PROC			; lo_fov_event, COMDAT

; 2163 : {

  00000	55		 push	 ebp
  00001	8b ec		 mov	 ebp, esp
  00003	83 ec 40	 sub	 esp, 64			; 00000040H
  00006	53		 push	 ebx
  00007	56		 push	 esi
  00008	57		 push	 edi

; 2164 : 	set_view_angles (rad (command_line_min_fov));

  00009	f3 0f 2a 05 00
	00 00 00	 cvtsi2ss xmm0, DWORD PTR ?command_line_min_fov@@3HA ; command_line_min_fov
  00011	f3 0f 59 05 00
	00 00 00	 mulss	 xmm0, DWORD PTR __real@3c8efa35
  00019	51		 push	 ecx
  0001a	f3 0f 11 04 24	 movss	 DWORD PTR [esp], xmm0
  0001f	e8 00 00 00 00	 call	 ?set_view_angles@@YGXM@Z ; set_view_angles

; 2165 : }

  00024	5f		 pop	 edi
  00025	5e		 pop	 esi
  00026	5b		 pop	 ebx
  00027	8b e5		 mov	 esp, ebp
  00029	5d		 pop	 ebp
  0002a	c2 04 00	 ret	 4
?lo_fov_event@@YGXPAUEVENT@@@Z ENDP			; lo_fov_event
_TEXT	ENDS
; Function compile flags: /Odtp /ZI
; File c:\users\nhv90\projects\eech\aphavoc\source\gunships\views\vm_event.c
;	COMDAT ?toggle_display_in_flight_intelligence_messages_event@@YGXPAUEVENT@@@Z
_TEXT	SEGMENT
_ev$ = 8						; size = 4
?toggle_display_in_flight_intelligence_messages_event@@YGXPAUEVENT@@@Z PROC ; toggle_display_in_flight_intelligence_messages_event, COMDAT

; 2142 : {

  00000	55		 push	 ebp
  00001	8b ec		 mov	 ebp, esp
  00003	83 ec 40	 sub	 esp, 64			; 00000040H
  00006	53		 push	 ebx
  00007	56		 push	 esi
  00008	57		 push	 edi

; 2143 : 	if (get_global_display_in_flight_intelligence_messages ())

  00009	83 3d 70 03 00
	00 00		 cmp	 DWORD PTR ?global_options@@3UGLOBAL_OPTIONS_DATA@@A+880, 0
  00010	74 1e		 je	 SHORT $LN2@toggle_dis

; 2144 : 	{
; 2145 : 		set_global_display_in_flight_intelligence_messages (FALSE);

  00012	c7 05 70 03 00
	00 00 00 00 00	 mov	 DWORD PTR ?global_options@@3UGLOBAL_OPTIONS_DATA@@A+880, 0

; 2146 : 
; 2147 : 		set_status_message (get_trans ("In-flight intelligence messages OFF"), STATUS_MESSAGE_TYPE_NONE);

  0001c	6a 00		 push	 0
  0001e	68 00 00 00 00	 push	 OFFSET ??_C@_0CE@MODMFNFJ@In?9flight?5intelligence?5messages@
  00023	e8 00 00 00 00	 call	 ?get_trans@@YGPBDPBD@Z	; get_trans
  00028	50		 push	 eax
  00029	e8 00 00 00 00	 call	 ?set_status_message@@YGXPBDW4STATUS_MESSAGE_TYPES@@@Z ; set_status_message

; 2148 : 	}
; 2149 : 	else

  0002e	eb 1c		 jmp	 SHORT $LN1@toggle_dis
$LN2@toggle_dis:

; 2150 : 	{
; 2151 : 		set_global_display_in_flight_intelligence_messages (TRUE);

  00030	c7 05 70 03 00
	00 01 00 00 00	 mov	 DWORD PTR ?global_options@@3UGLOBAL_OPTIONS_DATA@@A+880, 1

; 2152 : 
; 2153 : 		set_status_message (get_trans ("In-flight intelligence messages ON"), STATUS_MESSAGE_TYPE_NONE);

  0003a	6a 00		 push	 0
  0003c	68 00 00 00 00	 push	 OFFSET ??_C@_0CD@KNPKINK@In?9flight?5intelligence?5messages@
  00041	e8 00 00 00 00	 call	 ?get_trans@@YGPBDPBD@Z	; get_trans
  00046	50		 push	 eax
  00047	e8 00 00 00 00	 call	 ?set_status_message@@YGXPBDW4STATUS_MESSAGE_TYPES@@@Z ; set_status_message
$LN1@toggle_dis:

; 2154 : 	}
; 2155 : }

  0004c	5f		 pop	 edi
  0004d	5e		 pop	 esi
  0004e	5b		 pop	 ebx
  0004f	8b e5		 mov	 esp, ebp
  00051	5d		 pop	 ebp
  00052	c2 04 00	 ret	 4
?toggle_display_in_flight_intelligence_messages_event@@YGXPAUEVENT@@@Z ENDP ; toggle_display_in_flight_intelligence_messages_event
_TEXT	ENDS
; Function compile flags: /Odtp /ZI
; File c:\users\nhv90\projects\eech\aphavoc\source\gunships\views\vm_event.c
;	COMDAT ?toggle_inset_target_event@@YGXPAUEVENT@@@Z
_TEXT	SEGMENT
_ev$ = 8						; size = 4
?toggle_inset_target_event@@YGXPAUEVENT@@@Z PROC	; toggle_inset_target_event, COMDAT

; 2122 : {

  00000	55		 push	 ebp
  00001	8b ec		 mov	 ebp, esp
  00003	83 ec 40	 sub	 esp, 64			; 00000040H
  00006	53		 push	 ebx
  00007	56		 push	 esi
  00008	57		 push	 edi

; 2123 : 	if (external_view_inset_target)

  00009	83 3d 00 00 00
	00 00		 cmp	 DWORD PTR ?external_view_inset_target@@3HA, 0 ; external_view_inset_target
  00010	74 1e		 je	 SHORT $LN2@toggle_ins

; 2124 : 	{
; 2125 : 		external_view_inset_target = FALSE;

  00012	c7 05 00 00 00
	00 00 00 00 00	 mov	 DWORD PTR ?external_view_inset_target@@3HA, 0 ; external_view_inset_target

; 2126 : 
; 2127 : 		set_status_message (get_trans ("Inset target OFF"), STATUS_MESSAGE_TYPE_NONE);

  0001c	6a 00		 push	 0
  0001e	68 00 00 00 00	 push	 OFFSET ??_C@_0BB@IDBKFGPJ@Inset?5target?5OFF@
  00023	e8 00 00 00 00	 call	 ?get_trans@@YGPBDPBD@Z	; get_trans
  00028	50		 push	 eax
  00029	e8 00 00 00 00	 call	 ?set_status_message@@YGXPBDW4STATUS_MESSAGE_TYPES@@@Z ; set_status_message

; 2128 : 	}
; 2129 : 	else

  0002e	eb 1c		 jmp	 SHORT $LN1@toggle_ins
$LN2@toggle_ins:

; 2130 : 	{
; 2131 : 		external_view_inset_target = TRUE;

  00030	c7 05 00 00 00
	00 01 00 00 00	 mov	 DWORD PTR ?external_view_inset_target@@3HA, 1 ; external_view_inset_target

; 2132 : 
; 2133 : 		set_status_message (get_trans ("Inset target ON"), STATUS_MESSAGE_TYPE_NONE);

  0003a	6a 00		 push	 0
  0003c	68 00 00 00 00	 push	 OFFSET ??_C@_0BA@JOLFFALK@Inset?5target?5ON@
  00041	e8 00 00 00 00	 call	 ?get_trans@@YGPBDPBD@Z	; get_trans
  00046	50		 push	 eax
  00047	e8 00 00 00 00	 call	 ?set_status_message@@YGXPBDW4STATUS_MESSAGE_TYPES@@@Z ; set_status_message
$LN1@toggle_ins:

; 2134 : 	}
; 2135 : }

  0004c	5f		 pop	 edi
  0004d	5e		 pop	 esi
  0004e	5b		 pop	 ebx
  0004f	8b e5		 mov	 esp, ebp
  00051	5d		 pop	 ebp
  00052	c2 04 00	 ret	 4
?toggle_inset_target_event@@YGXPAUEVENT@@@Z ENDP	; toggle_inset_target_event
_TEXT	ENDS
; Function compile flags: /Odtp /ZI
; File c:\users\nhv90\projects\eech\aphavoc\source\gunships\views\vm_event.c
;	COMDAT ?toggle_object_text_event@@YGXPAUEVENT@@@Z
_TEXT	SEGMENT
_ev$ = 8						; size = 4
?toggle_object_text_event@@YGXPAUEVENT@@@Z PROC		; toggle_object_text_event, COMDAT

; 2113 : {

  00000	55		 push	 ebp
  00001	8b ec		 mov	 ebp, esp
  00003	83 ec 40	 sub	 esp, 64			; 00000040H
  00006	53		 push	 ebx
  00007	56		 push	 esi
  00008	57		 push	 edi

; 2114 : 	set_global_display_external_view_name (get_global_display_external_view_name () ^ 1);

  00009	a1 20 00 00 00	 mov	 eax, DWORD PTR ?global_options@@3UGLOBAL_OPTIONS_DATA@@A+32
  0000e	83 f0 01	 xor	 eax, 1
  00011	a3 20 00 00 00	 mov	 DWORD PTR ?global_options@@3UGLOBAL_OPTIONS_DATA@@A+32, eax

; 2115 : }

  00016	5f		 pop	 edi
  00017	5e		 pop	 esi
  00018	5b		 pop	 ebx
  00019	8b e5		 mov	 esp, ebp
  0001b	5d		 pop	 ebp
  0001c	c2 04 00	 ret	 4
?toggle_object_text_event@@YGXPAUEVENT@@@Z ENDP		; toggle_object_text_event
_TEXT	ENDS
; Function compile flags: /Odtp /ZI
; File c:\users\nhv90\projects\eech\aphavoc\source\gunships\views\vm_event.c
;	COMDAT ?toggle_view_menu_event@@YGXPAUEVENT@@@Z
_TEXT	SEGMENT
_ev$ = 8						; size = 4
?toggle_view_menu_event@@YGXPAUEVENT@@@Z PROC		; toggle_view_menu_event, COMDAT

; 2083 : {

  00000	55		 push	 ebp
  00001	8b ec		 mov	 ebp, esp
  00003	83 ec 40	 sub	 esp, 64			; 00000040H
  00006	53		 push	 ebx
  00007	56		 push	 esi
  00008	57		 push	 edi

; 2084 : 	if (get_outgoing_in_flight_message_flag ())

  00009	e8 00 00 00 00	 call	 ?get_outgoing_in_flight_message_flag@@YGHXZ ; get_outgoing_in_flight_message_flag
  0000e	85 c0		 test	 eax, eax
  00010	74 02		 je	 SHORT $LN2@toggle_vie

; 2085 : 	{
; 2086 : 		return;

  00012	eb 30		 jmp	 SHORT $LN1@toggle_vie
$LN2@toggle_vie:

; 2087 : 	}
; 2088 : 
; 2089 : 	if (in_cockpit)

  00014	83 3d 00 00 00
	00 00		 cmp	 DWORD PTR ?in_cockpit@@3HA, 0 ; in_cockpit
  0001b	74 09		 je	 SHORT $LN3@toggle_vie

; 2090 : 	{
; 2091 : 		set_view_menu_display_visible_status (TRUE);

  0001d	6a 01		 push	 1
  0001f	e8 00 00 00 00	 call	 ?set_view_menu_display_visible_status@@YGXH@Z ; set_view_menu_display_visible_status

; 2092 : 	}
; 2093 : 	else

  00024	eb 19		 jmp	 SHORT $LN4@toggle_vie
$LN3@toggle_vie:

; 2094 : 	{
; 2095 : 		if (get_view_menu_display_visible_status ())

  00026	e8 00 00 00 00	 call	 ?get_view_menu_display_visible_status@@YGHXZ ; get_view_menu_display_visible_status
  0002b	85 c0		 test	 eax, eax
  0002d	74 09		 je	 SHORT $LN5@toggle_vie

; 2096 : 		{
; 2097 : 			set_view_menu_display_visible_status (FALSE);

  0002f	6a 00		 push	 0
  00031	e8 00 00 00 00	 call	 ?set_view_menu_display_visible_status@@YGXH@Z ; set_view_menu_display_visible_status

; 2098 : 		}
; 2099 : 		else

  00036	eb 07		 jmp	 SHORT $LN4@toggle_vie
$LN5@toggle_vie:

; 2100 : 		{
; 2101 : 			set_view_menu_display_visible_status (TRUE);

  00038	6a 01		 push	 1
  0003a	e8 00 00 00 00	 call	 ?set_view_menu_display_visible_status@@YGXH@Z ; set_view_menu_display_visible_status
$LN4@toggle_vie:

; 2102 : 		}
; 2103 : 	}
; 2104 : 
; 2105 : 	select_external_view ();

  0003f	e8 00 00 00 00	 call	 ?select_external_view@@YGXXZ ; select_external_view
$LN1@toggle_vie:

; 2106 : }

  00044	5f		 pop	 edi
  00045	5e		 pop	 esi
  00046	5b		 pop	 ebx
  00047	8b e5		 mov	 esp, ebp
  00049	5d		 pop	 ebp
  0004a	c2 04 00	 ret	 4
?toggle_view_menu_event@@YGXPAUEVENT@@@Z ENDP		; toggle_view_menu_event
_TEXT	ENDS
; Function compile flags: /Odtp /ZI
; File c:\users\nhv90\projects\eech\aphavoc\source\gunships\views\vm_event.c
;	COMDAT ?set_padlock_view_event@@YGXPAUEVENT@@@Z
_TEXT	SEGMENT
tv83 = -68						; size = 4
tv72 = -68						; size = 4
_ev$ = 8						; size = 4
?set_padlock_view_event@@YGXPAUEVENT@@@Z PROC		; set_padlock_view_event, COMDAT

; 1959 : {

  00000	55		 push	 ebp
  00001	8b ec		 mov	 ebp, esp
  00003	83 ec 44	 sub	 esp, 68			; 00000044H
  00006	53		 push	 ebx
  00007	56		 push	 esi
  00008	57		 push	 edi

; 1960 : 	ASSERT (ev);

  00009	83 7d 08 00	 cmp	 DWORD PTR _ev$[ebp], 0
  0000d	75 18		 jne	 SHORT $LN6@set_padloc
  0000f	a1 00 00 00 00	 mov	 eax, DWORD PTR ?__LINE__Var@?0??set_padlock_view_event@@YGXPAUEVENT@@@Z@4JA
  00014	83 c0 01	 add	 eax, 1
  00017	50		 push	 eax
  00018	68 00 00 00 00	 push	 OFFSET ??_C@_0EG@IIKBEODM@c?3?2users?2nhv90?2projects?2eech?2ap@
  0001d	68 00 00 00 00	 push	 OFFSET ??_C@_02DHMHPBFG@ev@
  00022	e8 00 00 00 00	 call	 ?process_assert@@YGXPBD0H@Z ; process_assert
$LN6@set_padloc:

; 1961 : 
; 1962 : 	if (external_view_inset_target)

  00027	83 3d 00 00 00
	00 00		 cmp	 DWORD PTR ?external_view_inset_target@@3HA, 0 ; external_view_inset_target
  0002e	74 59		 je	 SHORT $LN7@set_padloc

; 1963 : 	{
; 1964 : 		switch (ev->key)

  00030	8b 45 08	 mov	 eax, DWORD PTR _ev$[ebp]
  00033	0f b6 48 06	 movzx	 ecx, BYTE PTR [eax+6]
  00037	89 4d bc	 mov	 DWORD PTR tv72[ebp], ecx
  0003a	8b 55 bc	 mov	 edx, DWORD PTR tv72[ebp]
  0003d	83 ea 03	 sub	 edx, 3
  00040	89 55 bc	 mov	 DWORD PTR tv72[ebp], edx
  00043	83 7d bc 08	 cmp	 DWORD PTR tv72[ebp], 8
  00047	77 3e		 ja	 SHORT $LN2@set_padloc
  00049	8b 45 bc	 mov	 eax, DWORD PTR tv72[ebp]
  0004c	ff 24 85 00 00
	00 00		 jmp	 DWORD PTR $LN22@set_padloc[eax*4]
$LN9@set_padloc:

; 1965 : 		{
; 1966 : 			////////////////////////////////////////
; 1967 : 			case DIK_0:
; 1968 : 			////////////////////////////////////////
; 1969 : 			{
; 1970 : 				select_inset_view_event (PADLOCK_MODE_NONE);

  00053	6a 00		 push	 0
  00055	e8 00 00 00 00	 call	 ?select_inset_view_event@@YGXW4PADLOCK_MODES@@@Z ; select_inset_view_event

; 1971 : 
; 1972 : 				break;

  0005a	eb 2b		 jmp	 SHORT $LN2@set_padloc
$LN10@set_padloc:

; 1973 : 			}
; 1974 : 			////////////////////////////////////////
; 1975 : 			case DIK_2:
; 1976 : 			////////////////////////////////////////
; 1977 : 			{
; 1978 : 				select_inset_view_event (PADLOCK_MODE_WINGMAN);

  0005c	6a 01		 push	 1
  0005e	e8 00 00 00 00	 call	 ?select_inset_view_event@@YGXW4PADLOCK_MODES@@@Z ; select_inset_view_event

; 1979 : 
; 1980 : 				break;

  00063	eb 22		 jmp	 SHORT $LN2@set_padloc
$LN11@set_padloc:

; 1981 : 			}
; 1982 : 			////////////////////////////////////////
; 1983 : 			case DIK_3:
; 1984 : 			////////////////////////////////////////
; 1985 : 			{
; 1986 : 				select_inset_view_event (PADLOCK_MODE_AIR_THREAT);

  00065	6a 02		 push	 2
  00067	e8 00 00 00 00	 call	 ?select_inset_view_event@@YGXW4PADLOCK_MODES@@@Z ; select_inset_view_event

; 1987 : 
; 1988 : 				break;

  0006c	eb 19		 jmp	 SHORT $LN2@set_padloc
$LN12@set_padloc:

; 1989 : 			}
; 1990 : 			////////////////////////////////////////
; 1991 : 			case DIK_4:
; 1992 : 			////////////////////////////////////////
; 1993 : 			{
; 1994 : 				select_inset_view_event (PADLOCK_MODE_GROUND_THREAT);

  0006e	6a 03		 push	 3
  00070	e8 00 00 00 00	 call	 ?select_inset_view_event@@YGXW4PADLOCK_MODES@@@Z ; select_inset_view_event

; 1995 : 
; 1996 : 				break;

  00075	eb 10		 jmp	 SHORT $LN2@set_padloc
$LN13@set_padloc:

; 1997 : 			}
; 1998 : 			////////////////////////////////////////
; 1999 : 			case DIK_5:
; 2000 : 			////////////////////////////////////////
; 2001 : 			{
; 2002 : 				select_inset_view_event (PADLOCK_MODE_MISSILE_THREAT);

  00077	6a 04		 push	 4
  00079	e8 00 00 00 00	 call	 ?select_inset_view_event@@YGXW4PADLOCK_MODES@@@Z ; select_inset_view_event

; 2003 : 
; 2004 : 				break;

  0007e	eb 07		 jmp	 SHORT $LN2@set_padloc
$LN14@set_padloc:

; 2005 : 			}
; 2006 : 			////////////////////////////////////////
; 2007 : 			case DIK_6:
; 2008 : 			////////////////////////////////////////
; 2009 : 			{
; 2010 : 				select_inset_view_event (PADLOCK_MODE_WAYPOINT);

  00080	6a 05		 push	 5
  00082	e8 00 00 00 00	 call	 ?select_inset_view_event@@YGXW4PADLOCK_MODES@@@Z ; select_inset_view_event
$LN2@set_padloc:

; 2011 : 
; 2012 : 				break;
; 2013 : 			}
; 2014 : 		}
; 2015 : 	}
; 2016 : 	else

  00087	eb 57		 jmp	 SHORT $LN1@set_padloc
$LN7@set_padloc:

; 2017 : 	{
; 2018 : 		switch (ev->key)

  00089	8b 45 08	 mov	 eax, DWORD PTR _ev$[ebp]
  0008c	0f b6 48 06	 movzx	 ecx, BYTE PTR [eax+6]
  00090	89 4d bc	 mov	 DWORD PTR tv83[ebp], ecx
  00093	8b 55 bc	 mov	 edx, DWORD PTR tv83[ebp]
  00096	83 ea 03	 sub	 edx, 3
  00099	89 55 bc	 mov	 DWORD PTR tv83[ebp], edx
  0009c	83 7d bc 08	 cmp	 DWORD PTR tv83[ebp], 8
  000a0	77 3e		 ja	 SHORT $LN1@set_padloc
  000a2	8b 45 bc	 mov	 eax, DWORD PTR tv83[ebp]
  000a5	ff 24 85 00 00
	00 00		 jmp	 DWORD PTR $LN23@set_padloc[eax*4]
$LN15@set_padloc:

; 2019 : 		{
; 2020 : 			////////////////////////////////////////
; 2021 : 			case DIK_2:
; 2022 : 			////////////////////////////////////////
; 2023 : 			{
; 2024 : 				select_padlock_view_event (PADLOCK_MODE_WINGMAN);

  000ac	6a 01		 push	 1
  000ae	e8 00 00 00 00	 call	 ?select_padlock_view_event@@YGXW4PADLOCK_MODES@@@Z ; select_padlock_view_event

; 2025 : 
; 2026 : 				break;

  000b3	eb 2b		 jmp	 SHORT $LN1@set_padloc
$LN16@set_padloc:

; 2027 : 			}
; 2028 : 			////////////////////////////////////////
; 2029 : 			case DIK_3:
; 2030 : 			////////////////////////////////////////
; 2031 : 			{
; 2032 : 				select_padlock_view_event (PADLOCK_MODE_AIR_THREAT);

  000b5	6a 02		 push	 2
  000b7	e8 00 00 00 00	 call	 ?select_padlock_view_event@@YGXW4PADLOCK_MODES@@@Z ; select_padlock_view_event

; 2033 : 
; 2034 : 				break;

  000bc	eb 22		 jmp	 SHORT $LN1@set_padloc
$LN17@set_padloc:

; 2035 : 			}
; 2036 : 			////////////////////////////////////////
; 2037 : 			case DIK_4:
; 2038 : 			////////////////////////////////////////
; 2039 : 			{
; 2040 : 				select_padlock_view_event (PADLOCK_MODE_GROUND_THREAT);

  000be	6a 03		 push	 3
  000c0	e8 00 00 00 00	 call	 ?select_padlock_view_event@@YGXW4PADLOCK_MODES@@@Z ; select_padlock_view_event

; 2041 : 
; 2042 : 				break;

  000c5	eb 19		 jmp	 SHORT $LN1@set_padloc
$LN18@set_padloc:

; 2043 : 			}
; 2044 : 			////////////////////////////////////////
; 2045 : 			case DIK_5:
; 2046 : 			////////////////////////////////////////
; 2047 : 			{
; 2048 : 				select_padlock_view_event (PADLOCK_MODE_MISSILE_THREAT);

  000c7	6a 04		 push	 4
  000c9	e8 00 00 00 00	 call	 ?select_padlock_view_event@@YGXW4PADLOCK_MODES@@@Z ; select_padlock_view_event

; 2049 : 
; 2050 : 				break;

  000ce	eb 10		 jmp	 SHORT $LN1@set_padloc
$LN19@set_padloc:

; 2051 : 			}
; 2052 : 			////////////////////////////////////////
; 2053 : 			case DIK_6:
; 2054 : 			////////////////////////////////////////
; 2055 : 			{
; 2056 : 				select_padlock_view_event (PADLOCK_MODE_WAYPOINT);

  000d0	6a 05		 push	 5
  000d2	e8 00 00 00 00	 call	 ?select_padlock_view_event@@YGXW4PADLOCK_MODES@@@Z ; select_padlock_view_event

; 2057 : 
; 2058 : 				break;

  000d7	eb 07		 jmp	 SHORT $LN1@set_padloc
$LN20@set_padloc:

; 2059 : 			}
; 2060 : 			////////////////////////////////////////
; 2061 : 			case DIK_0:
; 2062 : 			////////////////////////////////////////
; 2063 : 			{
; 2064 : 				select_padlock_view_event (PADLOCK_MODE_NONE);

  000d9	6a 00		 push	 0
  000db	e8 00 00 00 00	 call	 ?select_padlock_view_event@@YGXW4PADLOCK_MODES@@@Z ; select_padlock_view_event
$LN1@set_padloc:

; 2065 : 
; 2066 : 				break;
; 2067 : 			}
; 2068 : 		}
; 2069 : 	}
; 2070 : }

  000e0	5f		 pop	 edi
  000e1	5e		 pop	 esi
  000e2	5b		 pop	 ebx
  000e3	8b e5		 mov	 esp, ebp
  000e5	5d		 pop	 ebp
  000e6	c2 04 00	 ret	 4
  000e9	0f 1f 00	 npad	 3
$LN22@set_padloc:
  000ec	00 00 00 00	 DD	 $LN10@set_padloc
  000f0	00 00 00 00	 DD	 $LN11@set_padloc
  000f4	00 00 00 00	 DD	 $LN12@set_padloc
  000f8	00 00 00 00	 DD	 $LN13@set_padloc
  000fc	00 00 00 00	 DD	 $LN14@set_padloc
  00100	00 00 00 00	 DD	 $LN2@set_padloc
  00104	00 00 00 00	 DD	 $LN2@set_padloc
  00108	00 00 00 00	 DD	 $LN2@set_padloc
  0010c	00 00 00 00	 DD	 $LN9@set_padloc
$LN23@set_padloc:
  00110	00 00 00 00	 DD	 $LN15@set_padloc
  00114	00 00 00 00	 DD	 $LN16@set_padloc
  00118	00 00 00 00	 DD	 $LN17@set_padloc
  0011c	00 00 00 00	 DD	 $LN18@set_padloc
  00120	00 00 00 00	 DD	 $LN19@set_padloc
  00124	00 00 00 00	 DD	 $LN1@set_padloc
  00128	00 00 00 00	 DD	 $LN1@set_padloc
  0012c	00 00 00 00	 DD	 $LN1@set_padloc
  00130	00 00 00 00	 DD	 $LN20@set_padloc
?set_padlock_view_event@@YGXPAUEVENT@@@Z ENDP		; set_padlock_view_event
_TEXT	ENDS
; Function compile flags: /Odtp /ZI
; File c:\users\nhv90\projects\eech\aphavoc\source\gunships\views\vm_event.c
;	COMDAT ?crew_camera_event@@YGXPAUEVENT@@@Z
_TEXT	SEGMENT
_ev$ = 8						; size = 4
?crew_camera_event@@YGXPAUEVENT@@@Z PROC		; crew_camera_event, COMDAT

; 1937 : {

  00000	55		 push	 ebp
  00001	8b ec		 mov	 ebp, esp
  00003	83 ec 40	 sub	 esp, 64			; 00000040H
  00006	53		 push	 ebx
  00007	56		 push	 esi
  00008	57		 push	 edi

; 1938 : 	if (get_view_mode () != VIEW_MODE_VIRTUAL_COCKPIT_CREW)

  00009	83 3d 00 00 00
	00 23		 cmp	 DWORD PTR ?view_mode@@3W4VIEW_MODES@@A, 35 ; view_mode, 00000023H
  00010	74 09		 je	 SHORT $LN2@crew_camer

; 1939 : 	{
; 1940 : 		set_view_mode (VIEW_MODE_VIRTUAL_COCKPIT_CREW);

  00012	6a 23		 push	 35			; 00000023H
  00014	e8 00 00 00 00	 call	 ?set_view_mode@@YGHW4VIEW_MODES@@@Z ; set_view_mode

; 1941 : 	}
; 1942 : 	else

  00019	eb 0b		 jmp	 SHORT $LN1@crew_camer
$LN2@crew_camer:

; 1943 : 	{
; 1944 : 		select_next_current_virtual_cockpit_camera (get_crew_role ());

  0001b	e8 00 00 00 00	 call	 ?get_crew_role@@YG?AW4CREW_ROLES@@XZ ; get_crew_role
  00020	50		 push	 eax
  00021	e8 00 00 00 00	 call	 ?select_next_current_virtual_cockpit_camera@@YGXW4CREW_ROLES@@@Z ; select_next_current_virtual_cockpit_camera
$LN1@crew_camer:

; 1945 : 	}
; 1946 : }

  00026	5f		 pop	 edi
  00027	5e		 pop	 esi
  00028	5b		 pop	 ebx
  00029	8b e5		 mov	 esp, ebp
  0002b	5d		 pop	 ebp
  0002c	c2 04 00	 ret	 4
?crew_camera_event@@YGXPAUEVENT@@@Z ENDP		; crew_camera_event
_TEXT	ENDS
; Function compile flags: /Odtp /ZI
; File c:\users\nhv90\projects\eech\aphavoc\source\gunships\views\vm_event.c
;	COMDAT ?cinematic_camera_event@@YGXPAUEVENT@@@Z
_TEXT	SEGMENT
_ev$ = 8						; size = 4
?cinematic_camera_event@@YGXPAUEVENT@@@Z PROC		; cinematic_camera_event, COMDAT

; 1928 : {

  00000	55		 push	 ebp
  00001	8b ec		 mov	 ebp, esp
  00003	83 ec 40	 sub	 esp, 64			; 00000040H
  00006	53		 push	 ebx
  00007	56		 push	 esi
  00008	57		 push	 edi

; 1929 : 	notify_local_entity (ENTITY_MESSAGE_SET_CAMERA_ACTION, get_camera_entity (), NULL, CAMERA_ACTION_CINEMATIC);

  00009	6a 09		 push	 9
  0000b	6a 00		 push	 0
  0000d	a1 00 00 00 00	 mov	 eax, DWORD PTR ?camera_entity@@3PAUENTITY@@A ; camera_entity
  00012	50		 push	 eax
  00013	6a 2f		 push	 47			; 0000002fH
  00015	e8 00 00 00 00	 call	 ?notify_local_entity@@YAHW4ENTITY_MESSAGES@@PAUENTITY@@1ZZ ; notify_local_entity
  0001a	83 c4 10	 add	 esp, 16			; 00000010H

; 1930 : }

  0001d	5f		 pop	 edi
  0001e	5e		 pop	 esi
  0001f	5b		 pop	 ebx
  00020	8b e5		 mov	 esp, ebp
  00022	5d		 pop	 ebp
  00023	c2 04 00	 ret	 4
?cinematic_camera_event@@YGXPAUEVENT@@@Z ENDP		; cinematic_camera_event
_TEXT	ENDS
; Function compile flags: /Odtp /ZI
; File c:\users\nhv90\projects\eech\aphavoc\source\gunships\views\vm_event.c
;	COMDAT ?camera_auto_edit_event@@YGXPAUEVENT@@@Z
_TEXT	SEGMENT
_ev$ = 8						; size = 4
?camera_auto_edit_event@@YGXPAUEVENT@@@Z PROC		; camera_auto_edit_event, COMDAT

; 1919 : {

  00000	55		 push	 ebp
  00001	8b ec		 mov	 ebp, esp
  00003	83 ec 40	 sub	 esp, 64			; 00000040H
  00006	53		 push	 ebx
  00007	56		 push	 esi
  00008	57		 push	 edi

; 1920 : 	notify_local_entity (ENTITY_MESSAGE_SET_CAMERA_ACTION, get_camera_entity (), NULL, CAMERA_ACTION_AUTO_EDIT);

  00009	6a 0d		 push	 13			; 0000000dH
  0000b	6a 00		 push	 0
  0000d	a1 00 00 00 00	 mov	 eax, DWORD PTR ?camera_entity@@3PAUENTITY@@A ; camera_entity
  00012	50		 push	 eax
  00013	6a 2f		 push	 47			; 0000002fH
  00015	e8 00 00 00 00	 call	 ?notify_local_entity@@YAHW4ENTITY_MESSAGES@@PAUENTITY@@1ZZ ; notify_local_entity
  0001a	83 c4 10	 add	 esp, 16			; 00000010H

; 1921 : }

  0001d	5f		 pop	 edi
  0001e	5e		 pop	 esi
  0001f	5b		 pop	 ebx
  00020	8b e5		 mov	 esp, ebp
  00022	5d		 pop	 ebp
  00023	c2 04 00	 ret	 4
?camera_auto_edit_event@@YGXPAUEVENT@@@Z ENDP		; camera_auto_edit_event
_TEXT	ENDS
; Function compile flags: /Odtp /ZI
; File c:\users\nhv90\projects\eech\aphavoc\source\gunships\views\vm_event.c
;	COMDAT ?weapon_camera_event@@YGXPAUEVENT@@@Z
_TEXT	SEGMENT
_ev$ = 8						; size = 4
?weapon_camera_event@@YGXPAUEVENT@@@Z PROC		; weapon_camera_event, COMDAT

; 1910 : {

  00000	55		 push	 ebp
  00001	8b ec		 mov	 ebp, esp
  00003	83 ec 40	 sub	 esp, 64			; 00000040H
  00006	53		 push	 ebx
  00007	56		 push	 esi
  00008	57		 push	 edi

; 1911 : 	notify_local_entity (ENTITY_MESSAGE_SET_CAMERA_ACTION, get_camera_entity (), NULL, CAMERA_ACTION_WEAPON);

  00009	6a 0b		 push	 11			; 0000000bH
  0000b	6a 00		 push	 0
  0000d	a1 00 00 00 00	 mov	 eax, DWORD PTR ?camera_entity@@3PAUENTITY@@A ; camera_entity
  00012	50		 push	 eax
  00013	6a 2f		 push	 47			; 0000002fH
  00015	e8 00 00 00 00	 call	 ?notify_local_entity@@YAHW4ENTITY_MESSAGES@@PAUENTITY@@1ZZ ; notify_local_entity
  0001a	83 c4 10	 add	 esp, 16			; 00000010H

; 1912 : }

  0001d	5f		 pop	 edi
  0001e	5e		 pop	 esi
  0001f	5b		 pop	 ebx
  00020	8b e5		 mov	 esp, ebp
  00022	5d		 pop	 ebp
  00023	c2 04 00	 ret	 4
?weapon_camera_event@@YGXPAUEVENT@@@Z ENDP		; weapon_camera_event
_TEXT	ENDS
; Function compile flags: /Odtp /ZI
; File c:\users\nhv90\projects\eech\aphavoc\source\gunships\views\vm_event.c
;	COMDAT ?satellite_camera_event@@YGXPAUEVENT@@@Z
_TEXT	SEGMENT
_ev$ = 8						; size = 4
?satellite_camera_event@@YGXPAUEVENT@@@Z PROC		; satellite_camera_event, COMDAT

; 1899 : {

  00000	55		 push	 ebp
  00001	8b ec		 mov	 ebp, esp
  00003	83 ec 40	 sub	 esp, 64			; 00000040H
  00006	53		 push	 ebx
  00007	56		 push	 esi
  00008	57		 push	 edi

; 1900 : 	notify_local_entity (ENTITY_MESSAGE_SET_CAMERA_ACTION, get_camera_entity (), NULL, CAMERA_ACTION_SATELLITE);

  00009	6a 06		 push	 6
  0000b	6a 00		 push	 0
  0000d	a1 00 00 00 00	 mov	 eax, DWORD PTR ?camera_entity@@3PAUENTITY@@A ; camera_entity
  00012	50		 push	 eax
  00013	6a 2f		 push	 47			; 0000002fH
  00015	e8 00 00 00 00	 call	 ?notify_local_entity@@YAHW4ENTITY_MESSAGES@@PAUENTITY@@1ZZ ; notify_local_entity
  0001a	83 c4 10	 add	 esp, 16			; 00000010H

; 1901 : }

  0001d	5f		 pop	 edi
  0001e	5e		 pop	 esi
  0001f	5b		 pop	 ebx
  00020	8b e5		 mov	 esp, ebp
  00022	5d		 pop	 ebp
  00023	c2 04 00	 ret	 4
?satellite_camera_event@@YGXPAUEVENT@@@Z ENDP		; satellite_camera_event
_TEXT	ENDS
; Function compile flags: /Odtp /ZI
; File c:\users\nhv90\projects\eech\aphavoc\source\gunships\views\vm_event.c
;	COMDAT ?static_camera_event@@YGXPAUEVENT@@@Z
_TEXT	SEGMENT
_ev$ = 8						; size = 4
?static_camera_event@@YGXPAUEVENT@@@Z PROC		; static_camera_event, COMDAT

; 1892 : {

  00000	55		 push	 ebp
  00001	8b ec		 mov	 ebp, esp
  00003	83 ec 40	 sub	 esp, 64			; 00000040H
  00006	53		 push	 ebx
  00007	56		 push	 esi
  00008	57		 push	 edi

; 1893 : 	notify_local_entity (ENTITY_MESSAGE_SET_CAMERA_ACTION, get_camera_entity (), NULL, CAMERA_ACTION_STATIC);

  00009	6a 05		 push	 5
  0000b	6a 00		 push	 0
  0000d	a1 00 00 00 00	 mov	 eax, DWORD PTR ?camera_entity@@3PAUENTITY@@A ; camera_entity
  00012	50		 push	 eax
  00013	6a 2f		 push	 47			; 0000002fH
  00015	e8 00 00 00 00	 call	 ?notify_local_entity@@YAHW4ENTITY_MESSAGES@@PAUENTITY@@1ZZ ; notify_local_entity
  0001a	83 c4 10	 add	 esp, 16			; 00000010H

; 1894 : }

  0001d	5f		 pop	 edi
  0001e	5e		 pop	 esi
  0001f	5b		 pop	 ebx
  00020	8b e5		 mov	 esp, ebp
  00022	5d		 pop	 ebp
  00023	c2 04 00	 ret	 4
?static_camera_event@@YGXPAUEVENT@@@Z ENDP		; static_camera_event
_TEXT	ENDS
; Function compile flags: /Odtp /ZI
; File c:\users\nhv90\projects\eech\aphavoc\source\gunships\views\vm_event.c
;	COMDAT ?drop_camera_event@@YGXPAUEVENT@@@Z
_TEXT	SEGMENT
_ev$ = 8						; size = 4
?drop_camera_event@@YGXPAUEVENT@@@Z PROC		; drop_camera_event, COMDAT

; 1883 : {

  00000	55		 push	 ebp
  00001	8b ec		 mov	 ebp, esp
  00003	83 ec 40	 sub	 esp, 64			; 00000040H
  00006	53		 push	 ebx
  00007	56		 push	 esi
  00008	57		 push	 edi

; 1884 : 	notify_local_entity (ENTITY_MESSAGE_SET_CAMERA_ACTION, get_camera_entity (), NULL, CAMERA_ACTION_DROP);

  00009	6a 04		 push	 4
  0000b	6a 00		 push	 0
  0000d	a1 00 00 00 00	 mov	 eax, DWORD PTR ?camera_entity@@3PAUENTITY@@A ; camera_entity
  00012	50		 push	 eax
  00013	6a 2f		 push	 47			; 0000002fH
  00015	e8 00 00 00 00	 call	 ?notify_local_entity@@YAHW4ENTITY_MESSAGES@@PAUENTITY@@1ZZ ; notify_local_entity
  0001a	83 c4 10	 add	 esp, 16			; 00000010H

; 1885 : }

  0001d	5f		 pop	 edi
  0001e	5e		 pop	 esi
  0001f	5b		 pop	 ebx
  00020	8b e5		 mov	 esp, ebp
  00022	5d		 pop	 ebp
  00023	c2 04 00	 ret	 4
?drop_camera_event@@YGXPAUEVENT@@@Z ENDP		; drop_camera_event
_TEXT	ENDS
; Function compile flags: /Odtp /ZI
; File c:\users\nhv90\projects\eech\aphavoc\source\gunships\views\vm_event.c
;	COMDAT ?fly_by_camera_event@@YGXPAUEVENT@@@Z
_TEXT	SEGMENT
_ev$ = 8						; size = 4
?fly_by_camera_event@@YGXPAUEVENT@@@Z PROC		; fly_by_camera_event, COMDAT

; 1874 : {

  00000	55		 push	 ebp
  00001	8b ec		 mov	 ebp, esp
  00003	83 ec 40	 sub	 esp, 64			; 00000040H
  00006	53		 push	 ebx
  00007	56		 push	 esi
  00008	57		 push	 edi

; 1875 : 	notify_local_entity (ENTITY_MESSAGE_SET_CAMERA_ACTION, get_camera_entity (), NULL, CAMERA_ACTION_FLY_BY);

  00009	6a 08		 push	 8
  0000b	6a 00		 push	 0
  0000d	a1 00 00 00 00	 mov	 eax, DWORD PTR ?camera_entity@@3PAUENTITY@@A ; camera_entity
  00012	50		 push	 eax
  00013	6a 2f		 push	 47			; 0000002fH
  00015	e8 00 00 00 00	 call	 ?notify_local_entity@@YAHW4ENTITY_MESSAGES@@PAUENTITY@@1ZZ ; notify_local_entity
  0001a	83 c4 10	 add	 esp, 16			; 00000010H

; 1876 : }

  0001d	5f		 pop	 edi
  0001e	5e		 pop	 esi
  0001f	5b		 pop	 ebx
  00020	8b e5		 mov	 esp, ebp
  00022	5d		 pop	 ebp
  00023	c2 04 00	 ret	 4
?fly_by_camera_event@@YGXPAUEVENT@@@Z ENDP		; fly_by_camera_event
_TEXT	ENDS
; Function compile flags: /Odtp /ZI
; File c:\users\nhv90\projects\eech\aphavoc\source\gunships\views\vm_event.c
;	COMDAT ?toggle_chase_camera_lock_rotate_event@@YGXPAUEVENT@@@Z
_TEXT	SEGMENT
_ev$ = 8						; size = 4
?toggle_chase_camera_lock_rotate_event@@YGXPAUEVENT@@@Z PROC ; toggle_chase_camera_lock_rotate_event, COMDAT

; 1865 : {

  00000	55		 push	 ebp
  00001	8b ec		 mov	 ebp, esp
  00003	83 ec 40	 sub	 esp, 64			; 00000040H
  00006	53		 push	 ebx
  00007	56		 push	 esi
  00008	57		 push	 edi

; 1866 : 	notify_local_entity (ENTITY_MESSAGE_SET_CAMERA_ACTION, get_camera_entity (), NULL, CAMERA_ACTION_TOGGLE_CHASE_LOCK_ROTATE);

  00009	6a 02		 push	 2
  0000b	6a 00		 push	 0
  0000d	a1 00 00 00 00	 mov	 eax, DWORD PTR ?camera_entity@@3PAUENTITY@@A ; camera_entity
  00012	50		 push	 eax
  00013	6a 2f		 push	 47			; 0000002fH
  00015	e8 00 00 00 00	 call	 ?notify_local_entity@@YAHW4ENTITY_MESSAGES@@PAUENTITY@@1ZZ ; notify_local_entity
  0001a	83 c4 10	 add	 esp, 16			; 00000010H

; 1867 : }

  0001d	5f		 pop	 edi
  0001e	5e		 pop	 esi
  0001f	5b		 pop	 ebx
  00020	8b e5		 mov	 esp, ebp
  00022	5d		 pop	 ebp
  00023	c2 04 00	 ret	 4
?toggle_chase_camera_lock_rotate_event@@YGXPAUEVENT@@@Z ENDP ; toggle_chase_camera_lock_rotate_event
_TEXT	ENDS
; Function compile flags: /Odtp /ZI
; File c:\users\nhv90\projects\eech\aphavoc\source\gunships\views\vm_event.c
;	COMDAT ?reset_chase_camera_position_event@@YGXPAUEVENT@@@Z
_TEXT	SEGMENT
_ev$ = 8						; size = 4
?reset_chase_camera_position_event@@YGXPAUEVENT@@@Z PROC ; reset_chase_camera_position_event, COMDAT

; 1856 : {

  00000	55		 push	 ebp
  00001	8b ec		 mov	 ebp, esp
  00003	83 ec 40	 sub	 esp, 64			; 00000040H
  00006	53		 push	 ebx
  00007	56		 push	 esi
  00008	57		 push	 edi

; 1857 : 	notify_local_entity (ENTITY_MESSAGE_SET_CAMERA_ACTION, get_camera_entity (), NULL, CAMERA_ACTION_RESET_CHASE_POSITION);

  00009	6a 01		 push	 1
  0000b	6a 00		 push	 0
  0000d	a1 00 00 00 00	 mov	 eax, DWORD PTR ?camera_entity@@3PAUENTITY@@A ; camera_entity
  00012	50		 push	 eax
  00013	6a 2f		 push	 47			; 0000002fH
  00015	e8 00 00 00 00	 call	 ?notify_local_entity@@YAHW4ENTITY_MESSAGES@@PAUENTITY@@1ZZ ; notify_local_entity
  0001a	83 c4 10	 add	 esp, 16			; 00000010H

; 1858 : }

  0001d	5f		 pop	 edi
  0001e	5e		 pop	 esi
  0001f	5b		 pop	 ebx
  00020	8b e5		 mov	 esp, ebp
  00022	5d		 pop	 ebp
  00023	c2 04 00	 ret	 4
?reset_chase_camera_position_event@@YGXPAUEVENT@@@Z ENDP ; reset_chase_camera_position_event
_TEXT	ENDS
; Function compile flags: /Odtp /ZI
; File c:\users\nhv90\projects\eech\aphavoc\source\gunships\views\vm_event.c
;	COMDAT ?chase_camera_event@@YGXPAUEVENT@@@Z
_TEXT	SEGMENT
tv66 = -68						; size = 4
_ev$ = 8						; size = 4
?chase_camera_event@@YGXPAUEVENT@@@Z PROC		; chase_camera_event, COMDAT

; 1838 : {

  00000	55		 push	 ebp
  00001	8b ec		 mov	 ebp, esp
  00003	83 ec 44	 sub	 esp, 68			; 00000044H
  00006	53		 push	 ebx
  00007	56		 push	 esi
  00008	57		 push	 edi

; 1839 : 	switch (get_camera_mode(get_camera_entity()))

  00009	a1 00 00 00 00	 mov	 eax, DWORD PTR ?camera_entity@@3PAUENTITY@@A ; camera_entity
  0000e	50		 push	 eax
  0000f	e8 00 00 00 00	 call	 ?get_camera_mode@@YG?AW4CAMERA_MODES@@PAUENTITY@@@Z ; get_camera_mode
  00014	89 45 bc	 mov	 DWORD PTR tv66[ebp], eax
  00017	83 7d bc 00	 cmp	 DWORD PTR tv66[ebp], 0
  0001b	74 08		 je	 SHORT $LN4@chase_came
  0001d	83 7d bc 09	 cmp	 DWORD PTR tv66[ebp], 9
  00021	74 02		 je	 SHORT $LN4@chase_came
  00023	eb 16		 jmp	 SHORT $LN5@chase_came
$LN4@chase_came:

; 1840 : 	{
; 1841 : 	case CAMERA_MODE_CHASE:
; 1842 : 	case CAMERA_MODE_WEAPON:
; 1843 : 		notify_local_entity (ENTITY_MESSAGE_SET_CAMERA_ACTION, get_camera_entity (), NULL, CAMERA_ACTION_FREE);

  00025	6a 13		 push	 19			; 00000013H
  00027	6a 00		 push	 0
  00029	a1 00 00 00 00	 mov	 eax, DWORD PTR ?camera_entity@@3PAUENTITY@@A ; camera_entity
  0002e	50		 push	 eax
  0002f	6a 2f		 push	 47			; 0000002fH
  00031	e8 00 00 00 00	 call	 ?notify_local_entity@@YAHW4ENTITY_MESSAGES@@PAUENTITY@@1ZZ ; notify_local_entity
  00036	83 c4 10	 add	 esp, 16			; 00000010H

; 1844 : 		break;

  00039	eb 14		 jmp	 SHORT $LN1@chase_came
$LN5@chase_came:

; 1845 : 	default:
; 1846 : 		notify_local_entity (ENTITY_MESSAGE_SET_CAMERA_ACTION, get_camera_entity (), NULL, CAMERA_ACTION_CHASE);

  0003b	6a 00		 push	 0
  0003d	6a 00		 push	 0
  0003f	a1 00 00 00 00	 mov	 eax, DWORD PTR ?camera_entity@@3PAUENTITY@@A ; camera_entity
  00044	50		 push	 eax
  00045	6a 2f		 push	 47			; 0000002fH
  00047	e8 00 00 00 00	 call	 ?notify_local_entity@@YAHW4ENTITY_MESSAGES@@PAUENTITY@@1ZZ ; notify_local_entity
  0004c	83 c4 10	 add	 esp, 16			; 00000010H
$LN1@chase_came:

; 1847 : 		break;
; 1848 : 	}
; 1849 : }

  0004f	5f		 pop	 edi
  00050	5e		 pop	 esi
  00051	5b		 pop	 ebx
  00052	8b e5		 mov	 esp, ebp
  00054	5d		 pop	 ebp
  00055	c2 04 00	 ret	 4
?chase_camera_event@@YGXPAUEVENT@@@Z ENDP		; chase_camera_event
_TEXT	ENDS
; Function compile flags: /Odtp /ZI
; File c:\users\nhv90\projects\eech\aphavoc\source\gunships\views\vm_event.c
;	COMDAT ?key_right_event@@YGXPAUEVENT@@@Z
_TEXT	SEGMENT
_ev$ = 8						; size = 4
?key_right_event@@YGXPAUEVENT@@@Z PROC			; key_right_event, COMDAT

; 1815 : {

  00000	55		 push	 ebp
  00001	8b ec		 mov	 ebp, esp
  00003	83 ec 40	 sub	 esp, 64			; 00000040H
  00006	53		 push	 ebx
  00007	56		 push	 esi
  00008	57		 push	 edi

; 1816 : 	if (get_global_cyclic_input() == KEYBOARD_INPUT)

  00009	83 3d 28 00 00
	00 01		 cmp	 DWORD PTR ?global_options@@3UGLOBAL_OPTIONS_DATA@@A+40, 1
  00010	75 0b		 jne	 SHORT $LN2@key_right_

; 1817 : 		cyclic_right(ev);

  00012	8b 45 08	 mov	 eax, DWORD PTR _ev$[ebp]
  00015	50		 push	 eax
  00016	e8 00 00 00 00	 call	 ?cyclic_right@@YGXPAUEVENT@@@Z ; cyclic_right
  0001b	eb 29		 jmp	 SHORT $LN1@key_right_
$LN2@key_right_:

; 1818 : 	else if (get_view_mode() != VIEW_MODE_EXTERNAL)

  0001d	83 3d 00 00 00
	00 2a		 cmp	 DWORD PTR ?view_mode@@3W4VIEW_MODES@@A, 42 ; view_mode, 0000002aH
  00024	74 17		 je	 SHORT $LN4@key_right_

; 1819 : 	{
; 1820 : 		if (ev->state == KEY_STATE_DOWN)

  00026	8b 45 08	 mov	 eax, DWORD PTR _ev$[ebp]
  00029	0f b7 48 08	 movzx	 ecx, WORD PTR [eax+8]
  0002d	83 f9 02	 cmp	 ecx, 2
  00030	75 09		 jne	 SHORT $LN6@key_right_

; 1821 : 			adjust_roll_trim(ev);

  00032	8b 45 08	 mov	 eax, DWORD PTR _ev$[ebp]
  00035	50		 push	 eax
  00036	e8 00 00 00 00	 call	 ?adjust_roll_trim@@YGXPAUEVENT@@@Z ; adjust_roll_trim
$LN6@key_right_:

; 1822 : 	}
; 1823 : 	else

  0003b	eb 09		 jmp	 SHORT $LN1@key_right_
$LN4@key_right_:

; 1824 : 		move_view_position_right_event(ev);		

  0003d	8b 45 08	 mov	 eax, DWORD PTR _ev$[ebp]
  00040	50		 push	 eax
  00041	e8 00 00 00 00	 call	 ?move_view_position_right_event@@YGXPAUEVENT@@@Z ; move_view_position_right_event
$LN1@key_right_:

; 1825 : }

  00046	5f		 pop	 edi
  00047	5e		 pop	 esi
  00048	5b		 pop	 ebx
  00049	8b e5		 mov	 esp, ebp
  0004b	5d		 pop	 ebp
  0004c	c2 04 00	 ret	 4
?key_right_event@@YGXPAUEVENT@@@Z ENDP			; key_right_event
_TEXT	ENDS
; Function compile flags: /Odtp /ZI
; File c:\users\nhv90\projects\eech\aphavoc\source\gunships\views\vm_event.c
;	COMDAT ?key_left_event@@YGXPAUEVENT@@@Z
_TEXT	SEGMENT
_ev$ = 8						; size = 4
?key_left_event@@YGXPAUEVENT@@@Z PROC			; key_left_event, COMDAT

; 1802 : {

  00000	55		 push	 ebp
  00001	8b ec		 mov	 ebp, esp
  00003	83 ec 40	 sub	 esp, 64			; 00000040H
  00006	53		 push	 ebx
  00007	56		 push	 esi
  00008	57		 push	 edi

; 1803 : 	if (get_global_cyclic_input() == KEYBOARD_INPUT)

  00009	83 3d 28 00 00
	00 01		 cmp	 DWORD PTR ?global_options@@3UGLOBAL_OPTIONS_DATA@@A+40, 1
  00010	75 0b		 jne	 SHORT $LN2@key_left_e

; 1804 : 		cyclic_left(ev);

  00012	8b 45 08	 mov	 eax, DWORD PTR _ev$[ebp]
  00015	50		 push	 eax
  00016	e8 00 00 00 00	 call	 ?cyclic_left@@YGXPAUEVENT@@@Z ; cyclic_left
  0001b	eb 29		 jmp	 SHORT $LN1@key_left_e
$LN2@key_left_e:

; 1805 : 	else if (get_view_mode() != VIEW_MODE_EXTERNAL)

  0001d	83 3d 00 00 00
	00 2a		 cmp	 DWORD PTR ?view_mode@@3W4VIEW_MODES@@A, 42 ; view_mode, 0000002aH
  00024	74 17		 je	 SHORT $LN4@key_left_e

; 1806 : 	{
; 1807 : 		if (ev->state == KEY_STATE_DOWN)

  00026	8b 45 08	 mov	 eax, DWORD PTR _ev$[ebp]
  00029	0f b7 48 08	 movzx	 ecx, WORD PTR [eax+8]
  0002d	83 f9 02	 cmp	 ecx, 2
  00030	75 09		 jne	 SHORT $LN6@key_left_e

; 1808 : 			adjust_roll_trim(ev);

  00032	8b 45 08	 mov	 eax, DWORD PTR _ev$[ebp]
  00035	50		 push	 eax
  00036	e8 00 00 00 00	 call	 ?adjust_roll_trim@@YGXPAUEVENT@@@Z ; adjust_roll_trim
$LN6@key_left_e:

; 1809 : 	}
; 1810 : 	else

  0003b	eb 09		 jmp	 SHORT $LN1@key_left_e
$LN4@key_left_e:

; 1811 : 		move_view_position_left_event(ev);		

  0003d	8b 45 08	 mov	 eax, DWORD PTR _ev$[ebp]
  00040	50		 push	 eax
  00041	e8 00 00 00 00	 call	 ?move_view_position_left_event@@YGXPAUEVENT@@@Z ; move_view_position_left_event
$LN1@key_left_e:

; 1812 : }

  00046	5f		 pop	 edi
  00047	5e		 pop	 esi
  00048	5b		 pop	 ebx
  00049	8b e5		 mov	 esp, ebp
  0004b	5d		 pop	 ebp
  0004c	c2 04 00	 ret	 4
?key_left_event@@YGXPAUEVENT@@@Z ENDP			; key_left_event
_TEXT	ENDS
; Function compile flags: /Odtp /ZI
; File c:\users\nhv90\projects\eech\aphavoc\source\gunships\views\vm_event.c
;	COMDAT ?key_down_event@@YGXPAUEVENT@@@Z
_TEXT	SEGMENT
_ev$ = 8						; size = 4
?key_down_event@@YGXPAUEVENT@@@Z PROC			; key_down_event, COMDAT

; 1789 : {

  00000	55		 push	 ebp
  00001	8b ec		 mov	 ebp, esp
  00003	83 ec 40	 sub	 esp, 64			; 00000040H
  00006	53		 push	 ebx
  00007	56		 push	 esi
  00008	57		 push	 edi

; 1790 : 	if (get_global_cyclic_input() == KEYBOARD_INPUT)

  00009	83 3d 28 00 00
	00 01		 cmp	 DWORD PTR ?global_options@@3UGLOBAL_OPTIONS_DATA@@A+40, 1
  00010	75 0b		 jne	 SHORT $LN2@key_down_e

; 1791 : 		cyclic_backward(ev);

  00012	8b 45 08	 mov	 eax, DWORD PTR _ev$[ebp]
  00015	50		 push	 eax
  00016	e8 00 00 00 00	 call	 ?cyclic_backward@@YGXPAUEVENT@@@Z ; cyclic_backward
  0001b	eb 29		 jmp	 SHORT $LN1@key_down_e
$LN2@key_down_e:

; 1792 : 	else if (get_view_mode() != VIEW_MODE_EXTERNAL)

  0001d	83 3d 00 00 00
	00 2a		 cmp	 DWORD PTR ?view_mode@@3W4VIEW_MODES@@A, 42 ; view_mode, 0000002aH
  00024	74 17		 je	 SHORT $LN4@key_down_e

; 1793 : 	{
; 1794 : 		if (ev->state == KEY_STATE_DOWN)

  00026	8b 45 08	 mov	 eax, DWORD PTR _ev$[ebp]
  00029	0f b7 48 08	 movzx	 ecx, WORD PTR [eax+8]
  0002d	83 f9 02	 cmp	 ecx, 2
  00030	75 09		 jne	 SHORT $LN6@key_down_e

; 1795 : 			adjust_pitch_trim(ev);

  00032	8b 45 08	 mov	 eax, DWORD PTR _ev$[ebp]
  00035	50		 push	 eax
  00036	e8 00 00 00 00	 call	 ?adjust_pitch_trim@@YGXPAUEVENT@@@Z ; adjust_pitch_trim
$LN6@key_down_e:

; 1796 : 	}
; 1797 : 	else

  0003b	eb 09		 jmp	 SHORT $LN1@key_down_e
$LN4@key_down_e:

; 1798 : 		move_view_position_backward_event(ev);		

  0003d	8b 45 08	 mov	 eax, DWORD PTR _ev$[ebp]
  00040	50		 push	 eax
  00041	e8 00 00 00 00	 call	 ?move_view_position_backward_event@@YGXPAUEVENT@@@Z ; move_view_position_backward_event
$LN1@key_down_e:

; 1799 : }

  00046	5f		 pop	 edi
  00047	5e		 pop	 esi
  00048	5b		 pop	 ebx
  00049	8b e5		 mov	 esp, ebp
  0004b	5d		 pop	 ebp
  0004c	c2 04 00	 ret	 4
?key_down_event@@YGXPAUEVENT@@@Z ENDP			; key_down_event
_TEXT	ENDS
; Function compile flags: /Odtp /ZI
; File c:\users\nhv90\projects\eech\aphavoc\source\gunships\views\vm_event.c
;	COMDAT ?key_up_event@@YGXPAUEVENT@@@Z
_TEXT	SEGMENT
_ev$ = 8						; size = 4
?key_up_event@@YGXPAUEVENT@@@Z PROC			; key_up_event, COMDAT

; 1776 : {

  00000	55		 push	 ebp
  00001	8b ec		 mov	 ebp, esp
  00003	83 ec 40	 sub	 esp, 64			; 00000040H
  00006	53		 push	 ebx
  00007	56		 push	 esi
  00008	57		 push	 edi

; 1777 : 	if (get_global_cyclic_input() == KEYBOARD_INPUT)

  00009	83 3d 28 00 00
	00 01		 cmp	 DWORD PTR ?global_options@@3UGLOBAL_OPTIONS_DATA@@A+40, 1
  00010	75 0b		 jne	 SHORT $LN2@key_up_eve

; 1778 : 		cyclic_forward(ev);

  00012	8b 45 08	 mov	 eax, DWORD PTR _ev$[ebp]
  00015	50		 push	 eax
  00016	e8 00 00 00 00	 call	 ?cyclic_forward@@YGXPAUEVENT@@@Z ; cyclic_forward
  0001b	eb 29		 jmp	 SHORT $LN1@key_up_eve
$LN2@key_up_eve:

; 1779 : 	else if (get_view_mode() != VIEW_MODE_EXTERNAL)

  0001d	83 3d 00 00 00
	00 2a		 cmp	 DWORD PTR ?view_mode@@3W4VIEW_MODES@@A, 42 ; view_mode, 0000002aH
  00024	74 17		 je	 SHORT $LN4@key_up_eve

; 1780 : 	{
; 1781 : 		if (ev->state == KEY_STATE_DOWN)

  00026	8b 45 08	 mov	 eax, DWORD PTR _ev$[ebp]
  00029	0f b7 48 08	 movzx	 ecx, WORD PTR [eax+8]
  0002d	83 f9 02	 cmp	 ecx, 2
  00030	75 09		 jne	 SHORT $LN6@key_up_eve

; 1782 : 			adjust_pitch_trim(ev);

  00032	8b 45 08	 mov	 eax, DWORD PTR _ev$[ebp]
  00035	50		 push	 eax
  00036	e8 00 00 00 00	 call	 ?adjust_pitch_trim@@YGXPAUEVENT@@@Z ; adjust_pitch_trim
$LN6@key_up_eve:

; 1783 : 	}
; 1784 : 	else

  0003b	eb 09		 jmp	 SHORT $LN1@key_up_eve
$LN4@key_up_eve:

; 1785 : 		move_view_position_forward_event(ev);		

  0003d	8b 45 08	 mov	 eax, DWORD PTR _ev$[ebp]
  00040	50		 push	 eax
  00041	e8 00 00 00 00	 call	 ?move_view_position_forward_event@@YGXPAUEVENT@@@Z ; move_view_position_forward_event
$LN1@key_up_eve:

; 1786 : }

  00046	5f		 pop	 edi
  00047	5e		 pop	 esi
  00048	5b		 pop	 ebx
  00049	8b e5		 mov	 esp, ebp
  0004b	5d		 pop	 ebp
  0004c	c2 04 00	 ret	 4
?key_up_event@@YGXPAUEVENT@@@Z ENDP			; key_up_event
_TEXT	ENDS
; Function compile flags: /Odtp /ZI
; File c:\users\nhv90\projects\eech\aphavoc\source\gunships\views\vm_event.c
;	COMDAT ?previous_view_range_event@@YGXPAUEVENT@@@Z
_TEXT	SEGMENT
tv71 = -68						; size = 4
_ev$ = 8						; size = 4
?previous_view_range_event@@YGXPAUEVENT@@@Z PROC	; previous_view_range_event, COMDAT

; 1760 : {

  00000	55		 push	 ebp
  00001	8b ec		 mov	 ebp, esp
  00003	83 ec 44	 sub	 esp, 68			; 00000044H
  00006	53		 push	 ebx
  00007	56		 push	 esi
  00008	57		 push	 edi

; 1761 : 	// Jabberwock 031009 Satellite view - keysites are not on menu
; 1762 : 	
; 1763 : 	if (get_local_entity_type(get_external_view_entity()) != ENTITY_TYPE_KEYSITE)

  00009	e8 00 00 00 00	 call	 ?get_external_view_entity@@YGPAUENTITY@@XZ ; get_external_view_entity
  0000e	85 c0		 test	 eax, eax
  00010	74 0c		 je	 SHORT $LN4@previous_v
  00012	e8 00 00 00 00	 call	 ?get_external_view_entity@@YGPAUENTITY@@XZ ; get_external_view_entity
  00017	8b 00		 mov	 eax, DWORD PTR [eax]
  00019	89 45 bc	 mov	 DWORD PTR tv71[ebp], eax
  0001c	eb 1d		 jmp	 SHORT $LN5@previous_v
$LN4@previous_v:
  0001e	68 e3 06 00 00	 push	 1763			; 000006e3H
  00023	68 00 00 00 00	 push	 OFFSET ??_C@_0EG@IIKBEODM@c?3?2users?2nhv90?2projects?2eech?2ap@
  00028	8b 0d 00 00 00
	00		 mov	 ecx, DWORD PTR ?null_entity_pointer_message@@3PBDB ; null_entity_pointer_message
  0002e	51		 push	 ecx
  0002f	e8 00 00 00 00	 call	 ?process_assert@@YGXPBD0H@Z ; process_assert
  00034	c7 45 bc 00 00
	00 00		 mov	 DWORD PTR tv71[ebp], 0
$LN5@previous_v:
  0003b	83 7d bc 0f	 cmp	 DWORD PTR tv71[ebp], 15	; 0000000fH
  0003f	74 0a		 je	 SHORT $LN1@previous_v

; 1764 : 	{
; 1765 : 		select_previous_view_menu_range ();

  00041	e8 00 00 00 00	 call	 ?select_previous_view_menu_range@@YGXXZ ; select_previous_view_menu_range

; 1766 : 
; 1767 : 		select_external_view ();

  00046	e8 00 00 00 00	 call	 ?select_external_view@@YGXXZ ; select_external_view
$LN1@previous_v:

; 1768 : 	}
; 1769 : }

  0004b	5f		 pop	 edi
  0004c	5e		 pop	 esi
  0004d	5b		 pop	 ebx
  0004e	8b e5		 mov	 esp, ebp
  00050	5d		 pop	 ebp
  00051	c2 04 00	 ret	 4
?previous_view_range_event@@YGXPAUEVENT@@@Z ENDP	; previous_view_range_event
_TEXT	ENDS
; Function compile flags: /Odtp /ZI
; File c:\users\nhv90\projects\eech\aphavoc\source\gunships\views\vm_event.c
;	COMDAT ?next_view_range_event@@YGXPAUEVENT@@@Z
_TEXT	SEGMENT
tv71 = -68						; size = 4
_ev$ = 8						; size = 4
?next_view_range_event@@YGXPAUEVENT@@@Z PROC		; next_view_range_event, COMDAT

; 1744 : {

  00000	55		 push	 ebp
  00001	8b ec		 mov	 ebp, esp
  00003	83 ec 44	 sub	 esp, 68			; 00000044H
  00006	53		 push	 ebx
  00007	56		 push	 esi
  00008	57		 push	 edi

; 1745 : 	// Jabberwock 031009 Satellite view - keysites are not on menu
; 1746 : 	
; 1747 : 	if (get_local_entity_type(get_external_view_entity()) != ENTITY_TYPE_KEYSITE)

  00009	e8 00 00 00 00	 call	 ?get_external_view_entity@@YGPAUENTITY@@XZ ; get_external_view_entity
  0000e	85 c0		 test	 eax, eax
  00010	74 0c		 je	 SHORT $LN4@next_view_
  00012	e8 00 00 00 00	 call	 ?get_external_view_entity@@YGPAUENTITY@@XZ ; get_external_view_entity
  00017	8b 00		 mov	 eax, DWORD PTR [eax]
  00019	89 45 bc	 mov	 DWORD PTR tv71[ebp], eax
  0001c	eb 1d		 jmp	 SHORT $LN5@next_view_
$LN4@next_view_:
  0001e	68 d3 06 00 00	 push	 1747			; 000006d3H
  00023	68 00 00 00 00	 push	 OFFSET ??_C@_0EG@IIKBEODM@c?3?2users?2nhv90?2projects?2eech?2ap@
  00028	8b 0d 00 00 00
	00		 mov	 ecx, DWORD PTR ?null_entity_pointer_message@@3PBDB ; null_entity_pointer_message
  0002e	51		 push	 ecx
  0002f	e8 00 00 00 00	 call	 ?process_assert@@YGXPBD0H@Z ; process_assert
  00034	c7 45 bc 00 00
	00 00		 mov	 DWORD PTR tv71[ebp], 0
$LN5@next_view_:
  0003b	83 7d bc 0f	 cmp	 DWORD PTR tv71[ebp], 15	; 0000000fH
  0003f	74 0a		 je	 SHORT $LN1@next_view_

; 1748 : 	{
; 1749 : 		select_next_view_menu_range ();

  00041	e8 00 00 00 00	 call	 ?select_next_view_menu_range@@YGXXZ ; select_next_view_menu_range

; 1750 : 
; 1751 : 		select_external_view ();

  00046	e8 00 00 00 00	 call	 ?select_external_view@@YGXXZ ; select_external_view
$LN1@next_view_:

; 1752 : 	}
; 1753 : }

  0004b	5f		 pop	 edi
  0004c	5e		 pop	 esi
  0004d	5b		 pop	 ebx
  0004e	8b e5		 mov	 esp, ebp
  00050	5d		 pop	 ebp
  00051	c2 04 00	 ret	 4
?next_view_range_event@@YGXPAUEVENT@@@Z ENDP		; next_view_range_event
_TEXT	ENDS
; Function compile flags: /Odtp /ZI
; File c:\users\nhv90\projects\eech\aphavoc\source\gunships\views\vm_event.c
;	COMDAT ?view_available_gunships_event@@YGXPAUEVENT@@@Z
_TEXT	SEGMENT
_ev$ = 8						; size = 4
?view_available_gunships_event@@YGXPAUEVENT@@@Z PROC	; view_available_gunships_event, COMDAT

; 1733 : {

  00000	55		 push	 ebp
  00001	8b ec		 mov	 ebp, esp
  00003	83 ec 40	 sub	 esp, 64			; 00000040H
  00006	53		 push	 ebx
  00007	56		 push	 esi
  00008	57		 push	 edi

; 1734 : 	select_view_menu_view_available_gunships ();

  00009	e8 00 00 00 00	 call	 ?select_view_menu_view_available_gunships@@YGXXZ ; select_view_menu_view_available_gunships

; 1735 : 
; 1736 : 	select_external_view ();

  0000e	e8 00 00 00 00	 call	 ?select_external_view@@YGXXZ ; select_external_view

; 1737 : }

  00013	5f		 pop	 edi
  00014	5e		 pop	 esi
  00015	5b		 pop	 ebx
  00016	8b e5		 mov	 esp, ebp
  00018	5d		 pop	 ebp
  00019	c2 04 00	 ret	 4
?view_available_gunships_event@@YGXPAUEVENT@@@Z ENDP	; view_available_gunships_event
_TEXT	ENDS
; Function compile flags: /Odtp /ZI
; File c:\users\nhv90\projects\eech\aphavoc\source\gunships\views\vm_event.c
;	COMDAT ?view_players_event@@YGXPAUEVENT@@@Z
_TEXT	SEGMENT
_ev$ = 8						; size = 4
?view_players_event@@YGXPAUEVENT@@@Z PROC		; view_players_event, COMDAT

; 1722 : {

  00000	55		 push	 ebp
  00001	8b ec		 mov	 ebp, esp
  00003	83 ec 40	 sub	 esp, 64			; 00000040H
  00006	53		 push	 ebx
  00007	56		 push	 esi
  00008	57		 push	 edi

; 1723 : 	select_view_menu_view_players ();

  00009	e8 00 00 00 00	 call	 ?select_view_menu_view_players@@YGXXZ ; select_view_menu_view_players

; 1724 : 
; 1725 : 	select_external_view ();

  0000e	e8 00 00 00 00	 call	 ?select_external_view@@YGXXZ ; select_external_view

; 1726 : }

  00013	5f		 pop	 edi
  00014	5e		 pop	 esi
  00015	5b		 pop	 ebx
  00016	8b e5		 mov	 esp, ebp
  00018	5d		 pop	 ebp
  00019	c2 04 00	 ret	 4
?view_players_event@@YGXPAUEVENT@@@Z ENDP		; view_players_event
_TEXT	ENDS
; Function compile flags: /Odtp /ZI
; File c:\users\nhv90\projects\eech\aphavoc\source\gunships\views\vm_event.c
;	COMDAT ?view_wingmen_event@@YGXPAUEVENT@@@Z
_TEXT	SEGMENT
_ev$ = 8						; size = 4
?view_wingmen_event@@YGXPAUEVENT@@@Z PROC		; view_wingmen_event, COMDAT

; 1710 : {

  00000	55		 push	 ebp
  00001	8b ec		 mov	 ebp, esp
  00003	83 ec 40	 sub	 esp, 64			; 00000040H
  00006	53		 push	 ebx
  00007	56		 push	 esi
  00008	57		 push	 edi

; 1711 : 	if (select_view_menu_view_wingmen ())

  00009	e8 00 00 00 00	 call	 ?select_view_menu_view_wingmen@@YGHXZ ; select_view_menu_view_wingmen
  0000e	85 c0		 test	 eax, eax
  00010	74 05		 je	 SHORT $LN1@view_wingm

; 1712 : 	{
; 1713 : 		select_external_view ();

  00012	e8 00 00 00 00	 call	 ?select_external_view@@YGXXZ ; select_external_view
$LN1@view_wingm:

; 1714 : 	}
; 1715 : }

  00017	5f		 pop	 edi
  00018	5e		 pop	 esi
  00019	5b		 pop	 ebx
  0001a	8b e5		 mov	 esp, ebp
  0001c	5d		 pop	 ebp
  0001d	c2 04 00	 ret	 4
?view_wingmen_event@@YGXPAUEVENT@@@Z ENDP		; view_wingmen_event
_TEXT	ENDS
; Function compile flags: /Odtp /ZI
; File c:\users\nhv90\projects\eech\aphavoc\source\gunships\views\vm_event.c
;	COMDAT ?view_all_event@@YGXPAUEVENT@@@Z
_TEXT	SEGMENT
tv71 = -68						; size = 4
_ev$ = 8						; size = 4
?view_all_event@@YGXPAUEVENT@@@Z PROC			; view_all_event, COMDAT

; 1694 : {

  00000	55		 push	 ebp
  00001	8b ec		 mov	 ebp, esp
  00003	83 ec 44	 sub	 esp, 68			; 00000044H
  00006	53		 push	 ebx
  00007	56		 push	 esi
  00008	57		 push	 edi

; 1695 : 	// Jabberwock 031009 Satellite view - keysites are not on menu
; 1696 : 	
; 1697 : 	if (get_local_entity_type(get_external_view_entity()) != ENTITY_TYPE_KEYSITE)

  00009	e8 00 00 00 00	 call	 ?get_external_view_entity@@YGPAUENTITY@@XZ ; get_external_view_entity
  0000e	85 c0		 test	 eax, eax
  00010	74 0c		 je	 SHORT $LN4@view_all_e
  00012	e8 00 00 00 00	 call	 ?get_external_view_entity@@YGPAUENTITY@@XZ ; get_external_view_entity
  00017	8b 00		 mov	 eax, DWORD PTR [eax]
  00019	89 45 bc	 mov	 DWORD PTR tv71[ebp], eax
  0001c	eb 1d		 jmp	 SHORT $LN5@view_all_e
$LN4@view_all_e:
  0001e	68 a1 06 00 00	 push	 1697			; 000006a1H
  00023	68 00 00 00 00	 push	 OFFSET ??_C@_0EG@IIKBEODM@c?3?2users?2nhv90?2projects?2eech?2ap@
  00028	8b 0d 00 00 00
	00		 mov	 ecx, DWORD PTR ?null_entity_pointer_message@@3PBDB ; null_entity_pointer_message
  0002e	51		 push	 ecx
  0002f	e8 00 00 00 00	 call	 ?process_assert@@YGXPBD0H@Z ; process_assert
  00034	c7 45 bc 00 00
	00 00		 mov	 DWORD PTR tv71[ebp], 0
$LN5@view_all_e:
  0003b	83 7d bc 0f	 cmp	 DWORD PTR tv71[ebp], 15	; 0000000fH
  0003f	74 0a		 je	 SHORT $LN1@view_all_e

; 1698 : 	{
; 1699 : 		select_view_menu_view_all ();

  00041	e8 00 00 00 00	 call	 ?select_view_menu_view_all@@YGXXZ ; select_view_menu_view_all

; 1700 : 
; 1701 : 		select_external_view ();

  00046	e8 00 00 00 00	 call	 ?select_external_view@@YGXXZ ; select_external_view
$LN1@view_all_e:

; 1702 : 	}
; 1703 : }

  0004b	5f		 pop	 edi
  0004c	5e		 pop	 esi
  0004d	5b		 pop	 ebx
  0004e	8b e5		 mov	 esp, ebp
  00050	5d		 pop	 ebp
  00051	c2 04 00	 ret	 4
?view_all_event@@YGXPAUEVENT@@@Z ENDP			; view_all_event
_TEXT	ENDS
; Function compile flags: /Odtp /ZI
; File c:\users\nhv90\projects\eech\aphavoc\source\gunships\views\vm_event.c
;	COMDAT ?players_padlock_event@@YGXPAUEVENT@@@Z
_TEXT	SEGMENT
_padlock_mode$ = -4					; size = 4
_ev$ = 8						; size = 4
?players_padlock_event@@YGXPAUEVENT@@@Z PROC		; players_padlock_event, COMDAT

; 1672 : {

  00000	55		 push	 ebp
  00001	8b ec		 mov	 ebp, esp
  00003	83 ec 44	 sub	 esp, 68			; 00000044H
  00006	53		 push	 ebx
  00007	56		 push	 esi
  00008	57		 push	 edi

; 1673 : 	padlock_modes
; 1674 : 		padlock_mode;
; 1675 : 
; 1676 : 	padlock_mode = get_padlock_mode ();

  00009	e8 00 00 00 00	 call	 ?get_padlock_mode@@YG?AW4PADLOCK_MODES@@XZ ; get_padlock_mode
  0000e	89 45 fc	 mov	 DWORD PTR _padlock_mode$[ebp], eax

; 1677 : 
; 1678 : 	if (select_view_menu_view_players_padlock ())

  00011	e8 00 00 00 00	 call	 ?select_view_menu_view_players_padlock@@YGHXZ ; select_view_menu_view_players_padlock
  00016	85 c0		 test	 eax, eax
  00018	74 1f		 je	 SHORT $LN1@players_pa

; 1679 : 	{
; 1680 : 		select_external_view ();

  0001a	e8 00 00 00 00	 call	 ?select_external_view@@YGXXZ ; select_external_view

; 1681 : 
; 1682 : 		if (padlock_mode == PADLOCK_MODE_MISSILE_THREAT)

  0001f	83 7d fc 04	 cmp	 DWORD PTR _padlock_mode$[ebp], 4
  00023	75 14		 jne	 SHORT $LN1@players_pa

; 1683 : 		{
; 1684 : 			notify_local_entity (ENTITY_MESSAGE_SET_CAMERA_ACTION, get_camera_entity (), NULL, CAMERA_ACTION_WEAPON);

  00025	6a 0b		 push	 11			; 0000000bH
  00027	6a 00		 push	 0
  00029	a1 00 00 00 00	 mov	 eax, DWORD PTR ?camera_entity@@3PAUENTITY@@A ; camera_entity
  0002e	50		 push	 eax
  0002f	6a 2f		 push	 47			; 0000002fH
  00031	e8 00 00 00 00	 call	 ?notify_local_entity@@YAHW4ENTITY_MESSAGES@@PAUENTITY@@1ZZ ; notify_local_entity
  00036	83 c4 10	 add	 esp, 16			; 00000010H
$LN1@players_pa:

; 1685 : 		}
; 1686 : 	}
; 1687 : }

  00039	5f		 pop	 edi
  0003a	5e		 pop	 esi
  0003b	5b		 pop	 ebx
  0003c	8b e5		 mov	 esp, ebp
  0003e	5d		 pop	 ebp
  0003f	c2 04 00	 ret	 4
?players_padlock_event@@YGXPAUEVENT@@@Z ENDP		; players_padlock_event
_TEXT	ENDS
; Function compile flags: /Odtp /ZI
; File c:\users\nhv90\projects\eech\aphavoc\source\gunships\views\vm_event.c
;	COMDAT ?players_weapon_event@@YGXPAUEVENT@@@Z
_TEXT	SEGMENT
_ev$ = 8						; size = 4
?players_weapon_event@@YGXPAUEVENT@@@Z PROC		; players_weapon_event, COMDAT

; 1655 : {

  00000	55		 push	 ebp
  00001	8b ec		 mov	 ebp, esp
  00003	83 ec 40	 sub	 esp, 64			; 00000040H
  00006	53		 push	 ebx
  00007	56		 push	 esi
  00008	57		 push	 edi

; 1656 : 	if (select_view_menu_view_players_gunship ())

  00009	e8 00 00 00 00	 call	 ?select_view_menu_view_players_gunship@@YGHXZ ; select_view_menu_view_players_gunship
  0000e	85 c0		 test	 eax, eax
  00010	74 28		 je	 SHORT $LN1@players_we

; 1657 : 	{
; 1658 : 		if (get_local_entity_viewable_weapon (get_gunship_entity ()))

  00012	a1 00 00 00 00	 mov	 eax, DWORD PTR ?gunship_entity@@3PAUENTITY@@A ; gunship_entity
  00017	50		 push	 eax
  00018	e8 00 00 00 00	 call	 ?get_local_entity_viewable_weapon@@YGPAUENTITY@@PAU1@@Z ; get_local_entity_viewable_weapon
  0001d	85 c0		 test	 eax, eax
  0001f	74 05		 je	 SHORT $LN3@players_we

; 1659 : 		{
; 1660 : 			select_external_view ();

  00021	e8 00 00 00 00	 call	 ?select_external_view@@YGXXZ ; select_external_view
$LN3@players_we:

; 1661 : 		}
; 1662 : 
; 1663 : 		notify_local_entity (ENTITY_MESSAGE_SET_CAMERA_ACTION, get_camera_entity (), NULL, CAMERA_ACTION_WEAPON);

  00026	6a 0b		 push	 11			; 0000000bH
  00028	6a 00		 push	 0
  0002a	a1 00 00 00 00	 mov	 eax, DWORD PTR ?camera_entity@@3PAUENTITY@@A ; camera_entity
  0002f	50		 push	 eax
  00030	6a 2f		 push	 47			; 0000002fH
  00032	e8 00 00 00 00	 call	 ?notify_local_entity@@YAHW4ENTITY_MESSAGES@@PAUENTITY@@1ZZ ; notify_local_entity
  00037	83 c4 10	 add	 esp, 16			; 00000010H
$LN1@players_we:

; 1664 : 	}
; 1665 : }

  0003a	5f		 pop	 edi
  0003b	5e		 pop	 esi
  0003c	5b		 pop	 ebx
  0003d	8b e5		 mov	 esp, ebp
  0003f	5d		 pop	 ebp
  00040	c2 04 00	 ret	 4
?players_weapon_event@@YGXPAUEVENT@@@Z ENDP		; players_weapon_event
_TEXT	ENDS
; Function compile flags: /Odtp /ZI
; File c:\users\nhv90\projects\eech\aphavoc\source\gunships\views\vm_event.c
;	COMDAT ?players_target_event@@YGXPAUEVENT@@@Z
_TEXT	SEGMENT
tv132 = -80						; size = 4
tv81 = -80						; size = 4
tv93 = -76						; size = 4
tv73 = -76						; size = 4
_target$1 = -8						; size = 4
_source$2 = -4						; size = 4
_ev$ = 8						; size = 4
?players_target_event@@YGXPAUEVENT@@@Z PROC		; players_target_event, COMDAT

; 1620 : {

  00000	55		 push	 ebp
  00001	8b ec		 mov	 ebp, esp
  00003	83 ec 50	 sub	 esp, 80			; 00000050H
  00006	53		 push	 ebx
  00007	56		 push	 esi
  00008	57		 push	 edi

; 1621 : 	if (select_view_menu_view_players_target ())

  00009	e8 00 00 00 00	 call	 ?select_view_menu_view_players_target@@YGHXZ ; select_view_menu_view_players_target
  0000e	85 c0		 test	 eax, eax
  00010	74 0a		 je	 SHORT $LN2@players_ta

; 1622 : 	{
; 1623 : 		select_external_view ();

  00012	e8 00 00 00 00	 call	 ?select_external_view@@YGXXZ ; select_external_view

; 1624 : 	}
; 1625 : 	else

  00017	e9 32 01 00 00	 jmp	 $LN1@players_ta
$LN2@players_ta:

; 1626 : 	{
; 1627 : 		entity
; 1628 : 			*source,
; 1629 : 			*target;
; 1630 : 
; 1631 : 		source = get_gunship_entity ();

  0001c	a1 00 00 00 00	 mov	 eax, DWORD PTR ?gunship_entity@@3PAUENTITY@@A ; gunship_entity
  00021	89 45 fc	 mov	 DWORD PTR _source$2[ebp], eax

; 1632 : 
; 1633 : 		if (source)

  00024	83 7d fc 00	 cmp	 DWORD PTR _source$2[ebp], 0
  00028	0f 84 20 01 00
	00		 je	 $LN1@players_ta

; 1634 : 		{
; 1635 : 			target = get_local_entity_parent (source, LIST_TYPE_TARGET);

  0002e	83 7d fc 00	 cmp	 DWORD PTR _source$2[ebp], 0
  00032	74 0a		 je	 SHORT $LN8@players_ta
  00034	8b 45 fc	 mov	 eax, DWORD PTR _source$2[ebp]
  00037	8b 08		 mov	 ecx, DWORD PTR [eax]
  00039	89 4d b4	 mov	 DWORD PTR tv73[ebp], ecx
  0003c	eb 21		 jmp	 SHORT $LN9@players_ta
$LN8@players_ta:
  0003e	8b 15 00 00 00
	00		 mov	 edx, DWORD PTR ?__LINE__Var@?0??players_target_event@@YGXPAUEVENT@@@Z@4JA
  00044	83 c2 0f	 add	 edx, 15			; 0000000fH
  00047	52		 push	 edx
  00048	68 00 00 00 00	 push	 OFFSET ??_C@_0EG@IIKBEODM@c?3?2users?2nhv90?2projects?2eech?2ap@
  0004d	a1 00 00 00 00	 mov	 eax, DWORD PTR ?null_entity_pointer_message@@3PBDB ; null_entity_pointer_message
  00052	50		 push	 eax
  00053	e8 00 00 00 00	 call	 ?process_assert@@YGXPBD0H@Z ; process_assert
  00058	c7 45 b4 00 00
	00 00		 mov	 DWORD PTR tv73[ebp], 0
$LN9@players_ta:
  0005f	b9 01 00 00 00	 mov	 ecx, 1
  00064	85 c9		 test	 ecx, ecx
  00066	74 09		 je	 SHORT $LN10@players_ta
  00068	c7 45 b0 26 00
	00 00		 mov	 DWORD PTR tv81[ebp], 38	; 00000026H
  0006f	eb 21		 jmp	 SHORT $LN11@players_ta
$LN10@players_ta:
  00071	8b 15 00 00 00
	00		 mov	 edx, DWORD PTR ?__LINE__Var@?0??players_target_event@@YGXPAUEVENT@@@Z@4JA
  00077	83 c2 0f	 add	 edx, 15			; 0000000fH
  0007a	52		 push	 edx
  0007b	68 00 00 00 00	 push	 OFFSET ??_C@_0EG@IIKBEODM@c?3?2users?2nhv90?2projects?2eech?2ap@
  00080	a1 00 00 00 00	 mov	 eax, DWORD PTR ?overload_invalid_list_type_message@@3PBDB ; overload_invalid_list_type_message
  00085	50		 push	 eax
  00086	e8 00 00 00 00	 call	 ?process_assert@@YGXPBD0H@Z ; process_assert
  0008b	c7 45 b0 00 00
	00 00		 mov	 DWORD PTR tv81[ebp], 0
$LN11@players_ta:
  00092	6a 26		 push	 38			; 00000026H
  00094	8b 4d fc	 mov	 ecx, DWORD PTR _source$2[ebp]
  00097	51		 push	 ecx
  00098	69 55 b4 b4 00
	00 00		 imul	 edx, DWORD PTR tv73[ebp], 180
  0009f	8b 45 b0	 mov	 eax, DWORD PTR tv81[ebp]
  000a2	8b 8c 82 00 00
	00 00		 mov	 ecx, DWORD PTR ?fn_get_local_entity_parent@@3PAY0CN@P6GPAUENTITY@@PAU1@W4LIST_TYPES@@@ZA[edx+eax*4]
  000a9	ff d1		 call	 ecx
  000ab	89 45 f8	 mov	 DWORD PTR _target$1[ebp], eax

; 1636 : 
; 1637 : 			if (target)

  000ae	83 7d f8 00	 cmp	 DWORD PTR _target$1[ebp], 0
  000b2	0f 84 96 00 00
	00		 je	 $LN1@players_ta

; 1638 : 			{
; 1639 : 				if (get_local_entity_int_value (target, INT_TYPE_IDENTIFY_FIXED))

  000b8	83 7d f8 00	 cmp	 DWORD PTR _target$1[ebp], 0
  000bc	74 0a		 je	 SHORT $LN12@players_ta
  000be	8b 45 f8	 mov	 eax, DWORD PTR _target$1[ebp]
  000c1	8b 08		 mov	 ecx, DWORD PTR [eax]
  000c3	89 4d b4	 mov	 DWORD PTR tv93[ebp], ecx
  000c6	eb 1d		 jmp	 SHORT $LN13@players_ta
$LN12@players_ta:
  000c8	68 67 06 00 00	 push	 1639			; 00000667H
  000cd	68 00 00 00 00	 push	 OFFSET ??_C@_0EG@IIKBEODM@c?3?2users?2nhv90?2projects?2eech?2ap@
  000d2	8b 15 00 00 00
	00		 mov	 edx, DWORD PTR ?null_entity_pointer_message@@3PBDB ; null_entity_pointer_message
  000d8	52		 push	 edx
  000d9	e8 00 00 00 00	 call	 ?process_assert@@YGXPBD0H@Z ; process_assert
  000de	c7 45 b4 00 00
	00 00		 mov	 DWORD PTR tv93[ebp], 0
$LN13@players_ta:
  000e5	b8 01 00 00 00	 mov	 eax, 1
  000ea	85 c0		 test	 eax, eax
  000ec	74 09		 je	 SHORT $LN14@players_ta
  000ee	c7 45 b0 5a 00
	00 00		 mov	 DWORD PTR tv132[ebp], 90 ; 0000005aH
  000f5	eb 1d		 jmp	 SHORT $LN15@players_ta
$LN14@players_ta:
  000f7	68 67 06 00 00	 push	 1639			; 00000667H
  000fc	68 00 00 00 00	 push	 OFFSET ??_C@_0EG@IIKBEODM@c?3?2users?2nhv90?2projects?2eech?2ap@
  00101	8b 0d 00 00 00
	00		 mov	 ecx, DWORD PTR ?overload_invalid_int_type_message@@3PBDB ; overload_invalid_int_type_message
  00107	51		 push	 ecx
  00108	e8 00 00 00 00	 call	 ?process_assert@@YGXPBD0H@Z ; process_assert
  0010d	c7 45 b0 00 00
	00 00		 mov	 DWORD PTR tv132[ebp], 0
$LN15@players_ta:
  00114	6a 5a		 push	 90			; 0000005aH
  00116	8b 55 f8	 mov	 edx, DWORD PTR _target$1[ebp]
  00119	52		 push	 edx
  0011a	69 45 b4 5c 04
	00 00		 imul	 eax, DWORD PTR tv93[ebp], 1116
  00121	8b 4d b0	 mov	 ecx, DWORD PTR tv132[ebp]
  00124	8b 94 88 00 00
	00 00		 mov	 edx, DWORD PTR ?fn_get_local_entity_int_value@@3PAY0BBH@P6GHPAUENTITY@@W4INT_TYPES@@@ZA[eax+ecx*4]
  0012b	ff d2		 call	 edx
  0012d	85 c0		 test	 eax, eax
  0012f	74 1d		 je	 SHORT $LN1@players_ta

; 1640 : 				{
; 1641 : 					notify_local_entity (ENTITY_MESSAGE_SET_CAMERA_ACTION, get_camera_entity (), NULL, CAMERA_ACTION_BUILDING);

  00131	6a 0a		 push	 10			; 0000000aH
  00133	6a 00		 push	 0
  00135	a1 00 00 00 00	 mov	 eax, DWORD PTR ?camera_entity@@3PAUENTITY@@A ; camera_entity
  0013a	50		 push	 eax
  0013b	6a 2f		 push	 47			; 0000002fH
  0013d	e8 00 00 00 00	 call	 ?notify_local_entity@@YAHW4ENTITY_MESSAGES@@PAUENTITY@@1ZZ ; notify_local_entity
  00142	83 c4 10	 add	 esp, 16			; 00000010H

; 1642 : 
; 1643 : 					reset_building_camera_values (target);

  00145	8b 45 f8	 mov	 eax, DWORD PTR _target$1[ebp]
  00148	50		 push	 eax
  00149	e8 00 00 00 00	 call	 ?reset_building_camera_values@@YGXPAUENTITY@@@Z ; reset_building_camera_values
$LN1@players_ta:

; 1644 : 				}
; 1645 : 			}
; 1646 : 		}
; 1647 : 	}
; 1648 : }

  0014e	5f		 pop	 edi
  0014f	5e		 pop	 esi
  00150	5b		 pop	 ebx
  00151	8b e5		 mov	 esp, ebp
  00153	5d		 pop	 ebp
  00154	c2 04 00	 ret	 4
?players_target_event@@YGXPAUEVENT@@@Z ENDP		; players_target_event
_TEXT	ENDS
; Function compile flags: /Odtp /ZI
; File c:\users\nhv90\projects\eech\aphavoc\source\gunships\views\vm_event.c
;	COMDAT ?players_gunship_event@@YGXPAUEVENT@@@Z
_TEXT	SEGMENT
_ev$ = 8						; size = 4
?players_gunship_event@@YGXPAUEVENT@@@Z PROC		; players_gunship_event, COMDAT

; 1608 : {

  00000	55		 push	 ebp
  00001	8b ec		 mov	 ebp, esp
  00003	83 ec 40	 sub	 esp, 64			; 00000040H
  00006	53		 push	 ebx
  00007	56		 push	 esi
  00008	57		 push	 edi

; 1609 : 	if (select_view_menu_view_players_gunship ())

  00009	e8 00 00 00 00	 call	 ?select_view_menu_view_players_gunship@@YGHXZ ; select_view_menu_view_players_gunship
  0000e	85 c0		 test	 eax, eax
  00010	74 05		 je	 SHORT $LN1@players_gu

; 1610 : 	{
; 1611 : 		select_external_view ();

  00012	e8 00 00 00 00	 call	 ?select_external_view@@YGXXZ ; select_external_view
$LN1@players_gu:

; 1612 : 	}
; 1613 : }

  00017	5f		 pop	 edi
  00018	5e		 pop	 esi
  00019	5b		 pop	 ebx
  0001a	8b e5		 mov	 esp, ebp
  0001c	5d		 pop	 ebp
  0001d	c2 04 00	 ret	 4
?players_gunship_event@@YGXPAUEVENT@@@Z ENDP		; players_gunship_event
_TEXT	ENDS
; Function compile flags: /Odtp /ZI
; File c:\users\nhv90\projects\eech\aphavoc\source\gunships\views\vm_event.c
;	COMDAT ?previous_object_event@@YGXPAUEVENT@@@Z
_TEXT	SEGMENT
tv71 = -68						; size = 4
_ev$ = 8						; size = 4
?previous_object_event@@YGXPAUEVENT@@@Z PROC		; previous_object_event, COMDAT

; 1592 : {

  00000	55		 push	 ebp
  00001	8b ec		 mov	 ebp, esp
  00003	83 ec 44	 sub	 esp, 68			; 00000044H
  00006	53		 push	 ebx
  00007	56		 push	 esi
  00008	57		 push	 edi

; 1593 : 	// Jabberwock 031009 Satellite view - keysites are not on menu
; 1594 : 	
; 1595 : 	if (get_local_entity_type(get_external_view_entity()) != ENTITY_TYPE_KEYSITE)

  00009	e8 00 00 00 00	 call	 ?get_external_view_entity@@YGPAUENTITY@@XZ ; get_external_view_entity
  0000e	85 c0		 test	 eax, eax
  00010	74 0c		 je	 SHORT $LN4@previous_o
  00012	e8 00 00 00 00	 call	 ?get_external_view_entity@@YGPAUENTITY@@XZ ; get_external_view_entity
  00017	8b 00		 mov	 eax, DWORD PTR [eax]
  00019	89 45 bc	 mov	 DWORD PTR tv71[ebp], eax
  0001c	eb 1d		 jmp	 SHORT $LN5@previous_o
$LN4@previous_o:
  0001e	68 3b 06 00 00	 push	 1595			; 0000063bH
  00023	68 00 00 00 00	 push	 OFFSET ??_C@_0EG@IIKBEODM@c?3?2users?2nhv90?2projects?2eech?2ap@
  00028	8b 0d 00 00 00
	00		 mov	 ecx, DWORD PTR ?null_entity_pointer_message@@3PBDB ; null_entity_pointer_message
  0002e	51		 push	 ecx
  0002f	e8 00 00 00 00	 call	 ?process_assert@@YGXPBD0H@Z ; process_assert
  00034	c7 45 bc 00 00
	00 00		 mov	 DWORD PTR tv71[ebp], 0
$LN5@previous_o:
  0003b	83 7d bc 0f	 cmp	 DWORD PTR tv71[ebp], 15	; 0000000fH
  0003f	74 0a		 je	 SHORT $LN1@previous_o

; 1596 : 	{
; 1597 : 		select_view_menu_previous_object_event ();

  00041	e8 00 00 00 00	 call	 ?select_view_menu_previous_object_event@@YGXXZ ; select_view_menu_previous_object_event

; 1598 : 
; 1599 : 		select_external_view ();

  00046	e8 00 00 00 00	 call	 ?select_external_view@@YGXXZ ; select_external_view
$LN1@previous_o:

; 1600 : 	}
; 1601 : }

  0004b	5f		 pop	 edi
  0004c	5e		 pop	 esi
  0004d	5b		 pop	 ebx
  0004e	8b e5		 mov	 esp, ebp
  00050	5d		 pop	 ebp
  00051	c2 04 00	 ret	 4
?previous_object_event@@YGXPAUEVENT@@@Z ENDP		; previous_object_event
_TEXT	ENDS
; Function compile flags: /Odtp /ZI
; File c:\users\nhv90\projects\eech\aphavoc\source\gunships\views\vm_event.c
;	COMDAT ?next_object_event@@YGXPAUEVENT@@@Z
_TEXT	SEGMENT
tv71 = -68						; size = 4
_ev$ = 8						; size = 4
?next_object_event@@YGXPAUEVENT@@@Z PROC		; next_object_event, COMDAT

; 1576 : {

  00000	55		 push	 ebp
  00001	8b ec		 mov	 ebp, esp
  00003	83 ec 44	 sub	 esp, 68			; 00000044H
  00006	53		 push	 ebx
  00007	56		 push	 esi
  00008	57		 push	 edi

; 1577 : 	// Jabberwock 031009 Satellite view - keysites are not on menu
; 1578 : 	
; 1579 : 	if (get_local_entity_type(get_external_view_entity()) != ENTITY_TYPE_KEYSITE)

  00009	e8 00 00 00 00	 call	 ?get_external_view_entity@@YGPAUENTITY@@XZ ; get_external_view_entity
  0000e	85 c0		 test	 eax, eax
  00010	74 0c		 je	 SHORT $LN4@next_objec
  00012	e8 00 00 00 00	 call	 ?get_external_view_entity@@YGPAUENTITY@@XZ ; get_external_view_entity
  00017	8b 00		 mov	 eax, DWORD PTR [eax]
  00019	89 45 bc	 mov	 DWORD PTR tv71[ebp], eax
  0001c	eb 1d		 jmp	 SHORT $LN5@next_objec
$LN4@next_objec:
  0001e	68 2b 06 00 00	 push	 1579			; 0000062bH
  00023	68 00 00 00 00	 push	 OFFSET ??_C@_0EG@IIKBEODM@c?3?2users?2nhv90?2projects?2eech?2ap@
  00028	8b 0d 00 00 00
	00		 mov	 ecx, DWORD PTR ?null_entity_pointer_message@@3PBDB ; null_entity_pointer_message
  0002e	51		 push	 ecx
  0002f	e8 00 00 00 00	 call	 ?process_assert@@YGXPBD0H@Z ; process_assert
  00034	c7 45 bc 00 00
	00 00		 mov	 DWORD PTR tv71[ebp], 0
$LN5@next_objec:
  0003b	83 7d bc 0f	 cmp	 DWORD PTR tv71[ebp], 15	; 0000000fH
  0003f	74 0a		 je	 SHORT $LN1@next_objec

; 1580 : 	{
; 1581 : 		select_view_menu_next_object ();

  00041	e8 00 00 00 00	 call	 ?select_view_menu_next_object@@YGXXZ ; select_view_menu_next_object

; 1582 : 
; 1583 : 		select_external_view ();

  00046	e8 00 00 00 00	 call	 ?select_external_view@@YGXXZ ; select_external_view
$LN1@next_objec:

; 1584 : 	}
; 1585 : }

  0004b	5f		 pop	 edi
  0004c	5e		 pop	 esi
  0004d	5b		 pop	 ebx
  0004e	8b e5		 mov	 esp, ebp
  00050	5d		 pop	 ebp
  00051	c2 04 00	 ret	 4
?next_object_event@@YGXPAUEVENT@@@Z ENDP		; next_object_event
_TEXT	ENDS
; Function compile flags: /Odtp /ZI
; File c:\users\nhv90\projects\eech\aphavoc\source\gunships\views\vm_event.c
;	COMDAT ?previous_type_event@@YGXPAUEVENT@@@Z
_TEXT	SEGMENT
tv71 = -68						; size = 4
_ev$ = 8						; size = 4
?previous_type_event@@YGXPAUEVENT@@@Z PROC		; previous_type_event, COMDAT

; 1560 : {

  00000	55		 push	 ebp
  00001	8b ec		 mov	 ebp, esp
  00003	83 ec 44	 sub	 esp, 68			; 00000044H
  00006	53		 push	 ebx
  00007	56		 push	 esi
  00008	57		 push	 edi

; 1561 : 	// Jabberwock 031009 Satellite view - keysites are not on menu
; 1562 : 	
; 1563 : 	if (get_local_entity_type(get_external_view_entity()) != ENTITY_TYPE_KEYSITE)

  00009	e8 00 00 00 00	 call	 ?get_external_view_entity@@YGPAUENTITY@@XZ ; get_external_view_entity
  0000e	85 c0		 test	 eax, eax
  00010	74 0c		 je	 SHORT $LN4@previous_t
  00012	e8 00 00 00 00	 call	 ?get_external_view_entity@@YGPAUENTITY@@XZ ; get_external_view_entity
  00017	8b 00		 mov	 eax, DWORD PTR [eax]
  00019	89 45 bc	 mov	 DWORD PTR tv71[ebp], eax
  0001c	eb 1d		 jmp	 SHORT $LN5@previous_t
$LN4@previous_t:
  0001e	68 1b 06 00 00	 push	 1563			; 0000061bH
  00023	68 00 00 00 00	 push	 OFFSET ??_C@_0EG@IIKBEODM@c?3?2users?2nhv90?2projects?2eech?2ap@
  00028	8b 0d 00 00 00
	00		 mov	 ecx, DWORD PTR ?null_entity_pointer_message@@3PBDB ; null_entity_pointer_message
  0002e	51		 push	 ecx
  0002f	e8 00 00 00 00	 call	 ?process_assert@@YGXPBD0H@Z ; process_assert
  00034	c7 45 bc 00 00
	00 00		 mov	 DWORD PTR tv71[ebp], 0
$LN5@previous_t:
  0003b	83 7d bc 0f	 cmp	 DWORD PTR tv71[ebp], 15	; 0000000fH
  0003f	74 0a		 je	 SHORT $LN1@previous_t

; 1564 : 	{	
; 1565 : 		select_view_menu_previous_type ();

  00041	e8 00 00 00 00	 call	 ?select_view_menu_previous_type@@YGXXZ ; select_view_menu_previous_type

; 1566 : 
; 1567 : 		select_external_view ();

  00046	e8 00 00 00 00	 call	 ?select_external_view@@YGXXZ ; select_external_view
$LN1@previous_t:

; 1568 : 	}
; 1569 : }

  0004b	5f		 pop	 edi
  0004c	5e		 pop	 esi
  0004d	5b		 pop	 ebx
  0004e	8b e5		 mov	 esp, ebp
  00050	5d		 pop	 ebp
  00051	c2 04 00	 ret	 4
?previous_type_event@@YGXPAUEVENT@@@Z ENDP		; previous_type_event
_TEXT	ENDS
; Function compile flags: /Odtp /ZI
; File c:\users\nhv90\projects\eech\aphavoc\source\gunships\views\vm_event.c
;	COMDAT ?next_type_event@@YGXPAUEVENT@@@Z
_TEXT	SEGMENT
tv71 = -68						; size = 4
_ev$ = 8						; size = 4
?next_type_event@@YGXPAUEVENT@@@Z PROC			; next_type_event, COMDAT

; 1544 : {

  00000	55		 push	 ebp
  00001	8b ec		 mov	 ebp, esp
  00003	83 ec 44	 sub	 esp, 68			; 00000044H
  00006	53		 push	 ebx
  00007	56		 push	 esi
  00008	57		 push	 edi

; 1545 : 	// Jabberwock 031009 Satellite view - keysites are not on menu
; 1546 : 	
; 1547 : 	if (get_local_entity_type(get_external_view_entity()) != ENTITY_TYPE_KEYSITE)

  00009	e8 00 00 00 00	 call	 ?get_external_view_entity@@YGPAUENTITY@@XZ ; get_external_view_entity
  0000e	85 c0		 test	 eax, eax
  00010	74 0c		 je	 SHORT $LN4@next_type_
  00012	e8 00 00 00 00	 call	 ?get_external_view_entity@@YGPAUENTITY@@XZ ; get_external_view_entity
  00017	8b 00		 mov	 eax, DWORD PTR [eax]
  00019	89 45 bc	 mov	 DWORD PTR tv71[ebp], eax
  0001c	eb 1d		 jmp	 SHORT $LN5@next_type_
$LN4@next_type_:
  0001e	68 0b 06 00 00	 push	 1547			; 0000060bH
  00023	68 00 00 00 00	 push	 OFFSET ??_C@_0EG@IIKBEODM@c?3?2users?2nhv90?2projects?2eech?2ap@
  00028	8b 0d 00 00 00
	00		 mov	 ecx, DWORD PTR ?null_entity_pointer_message@@3PBDB ; null_entity_pointer_message
  0002e	51		 push	 ecx
  0002f	e8 00 00 00 00	 call	 ?process_assert@@YGXPBD0H@Z ; process_assert
  00034	c7 45 bc 00 00
	00 00		 mov	 DWORD PTR tv71[ebp], 0
$LN5@next_type_:
  0003b	83 7d bc 0f	 cmp	 DWORD PTR tv71[ebp], 15	; 0000000fH
  0003f	74 0a		 je	 SHORT $LN1@next_type_

; 1548 : 	{
; 1549 : 		select_view_menu_next_type ();

  00041	e8 00 00 00 00	 call	 ?select_view_menu_next_type@@YGXXZ ; select_view_menu_next_type

; 1550 : 
; 1551 : 		select_external_view ();

  00046	e8 00 00 00 00	 call	 ?select_external_view@@YGXXZ ; select_external_view
$LN1@next_type_:

; 1552 : 	}
; 1553 : }

  0004b	5f		 pop	 edi
  0004c	5e		 pop	 esi
  0004d	5b		 pop	 ebx
  0004e	8b e5		 mov	 esp, ebp
  00050	5d		 pop	 ebp
  00051	c2 04 00	 ret	 4
?next_type_event@@YGXPAUEVENT@@@Z ENDP			; next_type_event
_TEXT	ENDS
; Function compile flags: /Odtp /ZI
; File c:\users\nhv90\projects\eech\aphavoc\source\gunships\views\vm_event.c
;	COMDAT ?previous_category_event@@YGXPAUEVENT@@@Z
_TEXT	SEGMENT
tv71 = -68						; size = 4
_ev$ = 8						; size = 4
?previous_category_event@@YGXPAUEVENT@@@Z PROC		; previous_category_event, COMDAT

; 1528 : {

  00000	55		 push	 ebp
  00001	8b ec		 mov	 ebp, esp
  00003	83 ec 44	 sub	 esp, 68			; 00000044H
  00006	53		 push	 ebx
  00007	56		 push	 esi
  00008	57		 push	 edi

; 1529 : 	// Jabberwock 031009 Satellite view - keysites are not on menu
; 1530 : 	
; 1531 : 	if (get_local_entity_type(get_external_view_entity()) != ENTITY_TYPE_KEYSITE)

  00009	e8 00 00 00 00	 call	 ?get_external_view_entity@@YGPAUENTITY@@XZ ; get_external_view_entity
  0000e	85 c0		 test	 eax, eax
  00010	74 0c		 je	 SHORT $LN4@previous_c
  00012	e8 00 00 00 00	 call	 ?get_external_view_entity@@YGPAUENTITY@@XZ ; get_external_view_entity
  00017	8b 00		 mov	 eax, DWORD PTR [eax]
  00019	89 45 bc	 mov	 DWORD PTR tv71[ebp], eax
  0001c	eb 1d		 jmp	 SHORT $LN5@previous_c
$LN4@previous_c:
  0001e	68 fb 05 00 00	 push	 1531			; 000005fbH
  00023	68 00 00 00 00	 push	 OFFSET ??_C@_0EG@IIKBEODM@c?3?2users?2nhv90?2projects?2eech?2ap@
  00028	8b 0d 00 00 00
	00		 mov	 ecx, DWORD PTR ?null_entity_pointer_message@@3PBDB ; null_entity_pointer_message
  0002e	51		 push	 ecx
  0002f	e8 00 00 00 00	 call	 ?process_assert@@YGXPBD0H@Z ; process_assert
  00034	c7 45 bc 00 00
	00 00		 mov	 DWORD PTR tv71[ebp], 0
$LN5@previous_c:
  0003b	83 7d bc 0f	 cmp	 DWORD PTR tv71[ebp], 15	; 0000000fH
  0003f	74 0a		 je	 SHORT $LN1@previous_c

; 1532 : 	{
; 1533 : 		select_view_menu_previous_category ();

  00041	e8 00 00 00 00	 call	 ?select_view_menu_previous_category@@YGXXZ ; select_view_menu_previous_category

; 1534 : 
; 1535 : 		select_external_view ();

  00046	e8 00 00 00 00	 call	 ?select_external_view@@YGXXZ ; select_external_view
$LN1@previous_c:

; 1536 : 	}
; 1537 : }

  0004b	5f		 pop	 edi
  0004c	5e		 pop	 esi
  0004d	5b		 pop	 ebx
  0004e	8b e5		 mov	 esp, ebp
  00050	5d		 pop	 ebp
  00051	c2 04 00	 ret	 4
?previous_category_event@@YGXPAUEVENT@@@Z ENDP		; previous_category_event
_TEXT	ENDS
; Function compile flags: /Odtp /ZI
; File c:\users\nhv90\projects\eech\aphavoc\source\gunships\views\vm_event.c
;	COMDAT ?next_category_event@@YGXPAUEVENT@@@Z
_TEXT	SEGMENT
tv71 = -68						; size = 4
_ev$ = 8						; size = 4
?next_category_event@@YGXPAUEVENT@@@Z PROC		; next_category_event, COMDAT

; 1512 : {

  00000	55		 push	 ebp
  00001	8b ec		 mov	 ebp, esp
  00003	83 ec 44	 sub	 esp, 68			; 00000044H
  00006	53		 push	 ebx
  00007	56		 push	 esi
  00008	57		 push	 edi

; 1513 : 	// Jabberwock 031009 Satellite view - keysites are not on menu
; 1514 : 	
; 1515 : 	if (get_local_entity_type(get_external_view_entity()) != ENTITY_TYPE_KEYSITE)

  00009	e8 00 00 00 00	 call	 ?get_external_view_entity@@YGPAUENTITY@@XZ ; get_external_view_entity
  0000e	85 c0		 test	 eax, eax
  00010	74 0c		 je	 SHORT $LN4@next_categ
  00012	e8 00 00 00 00	 call	 ?get_external_view_entity@@YGPAUENTITY@@XZ ; get_external_view_entity
  00017	8b 00		 mov	 eax, DWORD PTR [eax]
  00019	89 45 bc	 mov	 DWORD PTR tv71[ebp], eax
  0001c	eb 1d		 jmp	 SHORT $LN5@next_categ
$LN4@next_categ:
  0001e	68 eb 05 00 00	 push	 1515			; 000005ebH
  00023	68 00 00 00 00	 push	 OFFSET ??_C@_0EG@IIKBEODM@c?3?2users?2nhv90?2projects?2eech?2ap@
  00028	8b 0d 00 00 00
	00		 mov	 ecx, DWORD PTR ?null_entity_pointer_message@@3PBDB ; null_entity_pointer_message
  0002e	51		 push	 ecx
  0002f	e8 00 00 00 00	 call	 ?process_assert@@YGXPBD0H@Z ; process_assert
  00034	c7 45 bc 00 00
	00 00		 mov	 DWORD PTR tv71[ebp], 0
$LN5@next_categ:
  0003b	83 7d bc 0f	 cmp	 DWORD PTR tv71[ebp], 15	; 0000000fH
  0003f	74 0a		 je	 SHORT $LN1@next_categ

; 1516 : 	{	
; 1517 : 		select_view_menu_next_category ();

  00041	e8 00 00 00 00	 call	 ?select_view_menu_next_category@@YGXXZ ; select_view_menu_next_category

; 1518 : 
; 1519 : 		select_external_view ();

  00046	e8 00 00 00 00	 call	 ?select_external_view@@YGXXZ ; select_external_view
$LN1@next_categ:

; 1520 : 	}
; 1521 : }

  0004b	5f		 pop	 edi
  0004c	5e		 pop	 esi
  0004d	5b		 pop	 ebx
  0004e	8b e5		 mov	 esp, ebp
  00050	5d		 pop	 ebp
  00051	c2 04 00	 ret	 4
?next_category_event@@YGXPAUEVENT@@@Z ENDP		; next_category_event
_TEXT	ENDS
; Function compile flags: /Odtp /ZI
; File c:\users\nhv90\projects\eech\aphavoc\source\gunships\views\vm_event.c
;	COMDAT ?previous_side_event@@YGXPAUEVENT@@@Z
_TEXT	SEGMENT
tv71 = -68						; size = 4
_ev$ = 8						; size = 4
?previous_side_event@@YGXPAUEVENT@@@Z PROC		; previous_side_event, COMDAT

; 1496 : {

  00000	55		 push	 ebp
  00001	8b ec		 mov	 ebp, esp
  00003	83 ec 44	 sub	 esp, 68			; 00000044H
  00006	53		 push	 ebx
  00007	56		 push	 esi
  00008	57		 push	 edi

; 1497 : 	// Jabberwock 031009 Satellite view - keysites are not on menu
; 1498 : 	
; 1499 : 	if (get_local_entity_type(get_external_view_entity()) != ENTITY_TYPE_KEYSITE)

  00009	e8 00 00 00 00	 call	 ?get_external_view_entity@@YGPAUENTITY@@XZ ; get_external_view_entity
  0000e	85 c0		 test	 eax, eax
  00010	74 0c		 je	 SHORT $LN4@previous_s
  00012	e8 00 00 00 00	 call	 ?get_external_view_entity@@YGPAUENTITY@@XZ ; get_external_view_entity
  00017	8b 00		 mov	 eax, DWORD PTR [eax]
  00019	89 45 bc	 mov	 DWORD PTR tv71[ebp], eax
  0001c	eb 1d		 jmp	 SHORT $LN5@previous_s
$LN4@previous_s:
  0001e	68 db 05 00 00	 push	 1499			; 000005dbH
  00023	68 00 00 00 00	 push	 OFFSET ??_C@_0EG@IIKBEODM@c?3?2users?2nhv90?2projects?2eech?2ap@
  00028	8b 0d 00 00 00
	00		 mov	 ecx, DWORD PTR ?null_entity_pointer_message@@3PBDB ; null_entity_pointer_message
  0002e	51		 push	 ecx
  0002f	e8 00 00 00 00	 call	 ?process_assert@@YGXPBD0H@Z ; process_assert
  00034	c7 45 bc 00 00
	00 00		 mov	 DWORD PTR tv71[ebp], 0
$LN5@previous_s:
  0003b	83 7d bc 0f	 cmp	 DWORD PTR tv71[ebp], 15	; 0000000fH
  0003f	74 0a		 je	 SHORT $LN1@previous_s

; 1500 : 	{
; 1501 : 		select_view_menu_previous_side_event ();

  00041	e8 00 00 00 00	 call	 ?select_view_menu_previous_side_event@@YGXXZ ; select_view_menu_previous_side_event

; 1502 : 
; 1503 : 		select_external_view ();

  00046	e8 00 00 00 00	 call	 ?select_external_view@@YGXXZ ; select_external_view
$LN1@previous_s:

; 1504 : 	}
; 1505 : }

  0004b	5f		 pop	 edi
  0004c	5e		 pop	 esi
  0004d	5b		 pop	 ebx
  0004e	8b e5		 mov	 esp, ebp
  00050	5d		 pop	 ebp
  00051	c2 04 00	 ret	 4
?previous_side_event@@YGXPAUEVENT@@@Z ENDP		; previous_side_event
_TEXT	ENDS
; Function compile flags: /Odtp /ZI
; File c:\users\nhv90\projects\eech\aphavoc\source\gunships\views\vm_event.c
;	COMDAT ?next_side_event@@YGXPAUEVENT@@@Z
_TEXT	SEGMENT
tv71 = -68						; size = 4
_ev$ = 8						; size = 4
?next_side_event@@YGXPAUEVENT@@@Z PROC			; next_side_event, COMDAT

; 1480 : {

  00000	55		 push	 ebp
  00001	8b ec		 mov	 ebp, esp
  00003	83 ec 44	 sub	 esp, 68			; 00000044H
  00006	53		 push	 ebx
  00007	56		 push	 esi
  00008	57		 push	 edi

; 1481 : 	// Jabberwock 031009 Satellite view - keysites are not on menu
; 1482 : 	
; 1483 : 	if (get_local_entity_type(get_external_view_entity()) != ENTITY_TYPE_KEYSITE)

  00009	e8 00 00 00 00	 call	 ?get_external_view_entity@@YGPAUENTITY@@XZ ; get_external_view_entity
  0000e	85 c0		 test	 eax, eax
  00010	74 0c		 je	 SHORT $LN4@next_side_
  00012	e8 00 00 00 00	 call	 ?get_external_view_entity@@YGPAUENTITY@@XZ ; get_external_view_entity
  00017	8b 00		 mov	 eax, DWORD PTR [eax]
  00019	89 45 bc	 mov	 DWORD PTR tv71[ebp], eax
  0001c	eb 1d		 jmp	 SHORT $LN5@next_side_
$LN4@next_side_:
  0001e	68 cb 05 00 00	 push	 1483			; 000005cbH
  00023	68 00 00 00 00	 push	 OFFSET ??_C@_0EG@IIKBEODM@c?3?2users?2nhv90?2projects?2eech?2ap@
  00028	8b 0d 00 00 00
	00		 mov	 ecx, DWORD PTR ?null_entity_pointer_message@@3PBDB ; null_entity_pointer_message
  0002e	51		 push	 ecx
  0002f	e8 00 00 00 00	 call	 ?process_assert@@YGXPBD0H@Z ; process_assert
  00034	c7 45 bc 00 00
	00 00		 mov	 DWORD PTR tv71[ebp], 0
$LN5@next_side_:
  0003b	83 7d bc 0f	 cmp	 DWORD PTR tv71[ebp], 15	; 0000000fH
  0003f	74 0a		 je	 SHORT $LN1@next_side_

; 1484 : 	{
; 1485 : 		select_view_menu_next_side ();

  00041	e8 00 00 00 00	 call	 ?select_view_menu_next_side@@YGXXZ ; select_view_menu_next_side

; 1486 : 
; 1487 : 		select_external_view ();

  00046	e8 00 00 00 00	 call	 ?select_external_view@@YGXXZ ; select_external_view
$LN1@next_side_:

; 1488 : 	}
; 1489 : }

  0004b	5f		 pop	 edi
  0004c	5e		 pop	 esi
  0004d	5b		 pop	 ebx
  0004e	8b e5		 mov	 esp, ebp
  00050	5d		 pop	 ebp
  00051	c2 04 00	 ret	 4
?next_side_event@@YGXPAUEVENT@@@Z ENDP			; next_side_event
_TEXT	ENDS
; Function compile flags: /Odtp /ZI
; File c:\users\nhv90\projects\eech\aphavoc\source\gunships\views\vm_event.c
;	COMDAT ?increase_3d_resolutions_event@@YGXPAUEVENT@@@Z
_TEXT	SEGMENT
_ev$ = 8						; size = 4
?increase_3d_resolutions_event@@YGXPAUEVENT@@@Z PROC	; increase_3d_resolutions_event, COMDAT

; 1433 : {

  00000	55		 push	 ebp
  00001	8b ec		 mov	 ebp, esp
  00003	83 ec 40	 sub	 esp, 64			; 00000040H
  00006	53		 push	 ebx
  00007	56		 push	 esi
  00008	57		 push	 edi

; 1434 : 	increase_3d_resolutions (NULL);

  00009	6a 00		 push	 0
  0000b	e8 00 00 00 00	 call	 ?increase_3d_resolutions@@YGXPAUEVENT@@@Z ; increase_3d_resolutions

; 1435 : 
; 1436 : 	set_screen_resolution_status_message ();

  00010	e8 00 00 00 00	 call	 ?set_screen_resolution_status_message@@YGXXZ ; set_screen_resolution_status_message

; 1437 : 
; 1438 : 	if (get_gunship_entity ())

  00015	83 3d 00 00 00
	00 00		 cmp	 DWORD PTR ?gunship_entity@@3PAUENTITY@@A, 0 ; gunship_entity
  0001c	0f 84 8e 00 00
	00		 je	 $LN6@increase_3

; 1439 : 	{
; 1440 : 		if (get_apache_havoc_gunship ())

  00022	a1 0c 00 00 00	 mov	 eax, DWORD PTR ?global_options@@3UGLOBAL_OPTIONS_DATA@@A+12
  00027	0f b6 88 00 00
	00 00		 movzx	 ecx, BYTE PTR ?new_gunship@@3QBDB[eax]
  0002e	85 c9		 test	 ecx, ecx
  00030	75 7e		 jne	 SHORT $LN6@increase_3

; 1441 : 		{
; 1442 : 			if (in_cockpit)

  00032	83 3d 00 00 00
	00 00		 cmp	 DWORD PTR ?in_cockpit@@3HA, 0 ; in_cockpit
  00039	74 75		 je	 SHORT $LN6@increase_3

; 1443 : 			{
; 1444 : //VJ
; 1445 : /*		set_view_mode (VIEW_MODE_VIRTUAL_COCKPIT);
; 1446 : 						set_view_mode (get_nearest_fixed_cockpit_view (pilot_head_heading, pilot_head_pitch));
; 1447 : 		*/
; 1448 : 				if (get_apache_havoc_gunship_fixed_cockpit ())

  0003b	a1 0c 00 00 00	 mov	 eax, DWORD PTR ?global_options@@3UGLOBAL_OPTIONS_DATA@@A+12
  00040	0f b6 88 00 00
	00 00		 movzx	 ecx, BYTE PTR ?new_gunship@@3QBDB[eax]
  00047	85 c9		 test	 ecx, ecx
  00049	75 5a		 jne	 SHORT $LN5@increase_3
  0004b	83 3d 00 00 00
	00 00		 cmp	 DWORD PTR ?full_screen_hi_res@@3HA, 0 ; full_screen_hi_res
  00052	75 51		 jne	 SHORT $LN5@increase_3
  00054	83 3d 00 00 00
	00 10		 cmp	 DWORD PTR ?application_video_colourdepth@@3HA, 16 ; application_video_colourdepth, 00000010H
  0005b	75 48		 jne	 SHORT $LN5@increase_3
  0005d	83 3d 00 00 00
	00 00		 cmp	 DWORD PTR ?global_aphavoc_maps@@3HA, 0 ; global_aphavoc_maps
  00064	74 3f		 je	 SHORT $LN5@increase_3

; 1449 : 				{
; 1450 : 					if (get_view_mode () == VIEW_MODE_VIRTUAL_COCKPIT)

  00066	83 3d 00 00 00
	00 20		 cmp	 DWORD PTR ?view_mode@@3W4VIEW_MODES@@A, 32 ; view_mode, 00000020H
  0006d	75 29		 jne	 SHORT $LN7@increase_3

; 1451 : 					{
; 1452 : 						set_view_mode (get_nearest_fixed_cockpit_view (pilot_head_heading, pilot_head_pitch));

  0006f	51		 push	 ecx
  00070	f3 0f 10 05 00
	00 00 00	 movss	 xmm0, DWORD PTR ?pilot_head_pitch@@3MA
  00078	f3 0f 11 04 24	 movss	 DWORD PTR [esp], xmm0
  0007d	51		 push	 ecx
  0007e	f3 0f 10 05 00
	00 00 00	 movss	 xmm0, DWORD PTR ?pilot_head_heading@@3MA
  00086	f3 0f 11 04 24	 movss	 DWORD PTR [esp], xmm0
  0008b	e8 00 00 00 00	 call	 ?get_nearest_fixed_cockpit_view@@YG?AW4VIEW_MODES@@MM@Z ; get_nearest_fixed_cockpit_view
  00090	50		 push	 eax
  00091	e8 00 00 00 00	 call	 ?set_view_mode@@YGHW4VIEW_MODES@@@Z ; set_view_mode

; 1453 : 					}
; 1454 : 					else

  00096	eb 0b		 jmp	 SHORT $LN8@increase_3
$LN7@increase_3:

; 1455 : 					{
; 1456 : 						set_view_mode (get_view_mode ());

  00098	a1 00 00 00 00	 mov	 eax, DWORD PTR ?view_mode@@3W4VIEW_MODES@@A ; view_mode
  0009d	50		 push	 eax
  0009e	e8 00 00 00 00	 call	 ?set_view_mode@@YGHW4VIEW_MODES@@@Z ; set_view_mode
$LN8@increase_3:

; 1457 : 					}
; 1458 : 				}
; 1459 : 				else

  000a3	eb 0b		 jmp	 SHORT $LN6@increase_3
$LN5@increase_3:

; 1460 : 				{
; 1461 : 					set_view_mode (get_view_mode ());

  000a5	a1 00 00 00 00	 mov	 eax, DWORD PTR ?view_mode@@3W4VIEW_MODES@@A ; view_mode
  000aa	50		 push	 eax
  000ab	e8 00 00 00 00	 call	 ?set_view_mode@@YGHW4VIEW_MODES@@@Z ; set_view_mode
$LN6@increase_3:

; 1462 : 				}
; 1463 : 				
; 1464 : 			}
; 1465 : 		}
; 1466 : 	}
; 1467 : }

  000b0	5f		 pop	 edi
  000b1	5e		 pop	 esi
  000b2	5b		 pop	 ebx
  000b3	8b e5		 mov	 esp, ebp
  000b5	5d		 pop	 ebp
  000b6	c2 04 00	 ret	 4
?increase_3d_resolutions_event@@YGXPAUEVENT@@@Z ENDP	; increase_3d_resolutions_event
_TEXT	ENDS
; Function compile flags: /Odtp /ZI
; File c:\users\nhv90\projects\eech\aphavoc\source\gunships\views\vm_event.c
;	COMDAT ?decrease_3d_resolutions_event@@YGXPAUEVENT@@@Z
_TEXT	SEGMENT
_ev$ = 8						; size = 4
?decrease_3d_resolutions_event@@YGXPAUEVENT@@@Z PROC	; decrease_3d_resolutions_event, COMDAT

; 1391 : {

  00000	55		 push	 ebp
  00001	8b ec		 mov	 ebp, esp
  00003	83 ec 40	 sub	 esp, 64			; 00000040H
  00006	53		 push	 ebx
  00007	56		 push	 esi
  00008	57		 push	 edi

; 1392 : 	decrease_3d_resolutions (NULL);

  00009	6a 00		 push	 0
  0000b	e8 00 00 00 00	 call	 ?decrease_3d_resolutions@@YGXPAUEVENT@@@Z ; decrease_3d_resolutions

; 1393 : 
; 1394 : 	set_screen_resolution_status_message ();

  00010	e8 00 00 00 00	 call	 ?set_screen_resolution_status_message@@YGXXZ ; set_screen_resolution_status_message

; 1395 : 
; 1396 : 	if (get_gunship_entity ())

  00015	83 3d 00 00 00
	00 00		 cmp	 DWORD PTR ?gunship_entity@@3PAUENTITY@@A, 0 ; gunship_entity
  0001c	0f 84 8e 00 00
	00		 je	 $LN6@decrease_3

; 1397 : 	{
; 1398 : 		if (get_apache_havoc_gunship ())

  00022	a1 0c 00 00 00	 mov	 eax, DWORD PTR ?global_options@@3UGLOBAL_OPTIONS_DATA@@A+12
  00027	0f b6 88 00 00
	00 00		 movzx	 ecx, BYTE PTR ?new_gunship@@3QBDB[eax]
  0002e	85 c9		 test	 ecx, ecx
  00030	75 7e		 jne	 SHORT $LN6@decrease_3

; 1399 : 		{
; 1400 : 			if (in_cockpit)

  00032	83 3d 00 00 00
	00 00		 cmp	 DWORD PTR ?in_cockpit@@3HA, 0 ; in_cockpit
  00039	74 75		 je	 SHORT $LN6@decrease_3

; 1401 : 			{
; 1402 : //VJ				
; 1403 : /*
; 1404 : set_view_mode (VIEW_MODE_VIRTUAL_COCKPIT);
; 1405 :              set_view_mode (get_nearest_fixed_cockpit_view (pilot_head_heading, pilot_head_pitch));
; 1406 : */
; 1407 : 				if (get_apache_havoc_gunship_fixed_cockpit ())

  0003b	a1 0c 00 00 00	 mov	 eax, DWORD PTR ?global_options@@3UGLOBAL_OPTIONS_DATA@@A+12
  00040	0f b6 88 00 00
	00 00		 movzx	 ecx, BYTE PTR ?new_gunship@@3QBDB[eax]
  00047	85 c9		 test	 ecx, ecx
  00049	75 5a		 jne	 SHORT $LN5@decrease_3
  0004b	83 3d 00 00 00
	00 00		 cmp	 DWORD PTR ?full_screen_hi_res@@3HA, 0 ; full_screen_hi_res
  00052	75 51		 jne	 SHORT $LN5@decrease_3
  00054	83 3d 00 00 00
	00 10		 cmp	 DWORD PTR ?application_video_colourdepth@@3HA, 16 ; application_video_colourdepth, 00000010H
  0005b	75 48		 jne	 SHORT $LN5@decrease_3
  0005d	83 3d 00 00 00
	00 00		 cmp	 DWORD PTR ?global_aphavoc_maps@@3HA, 0 ; global_aphavoc_maps
  00064	74 3f		 je	 SHORT $LN5@decrease_3

; 1408 : 				{
; 1409 : 					if (get_view_mode () == VIEW_MODE_VIRTUAL_COCKPIT)

  00066	83 3d 00 00 00
	00 20		 cmp	 DWORD PTR ?view_mode@@3W4VIEW_MODES@@A, 32 ; view_mode, 00000020H
  0006d	75 29		 jne	 SHORT $LN7@decrease_3

; 1410 : 					{
; 1411 : 						set_view_mode (get_nearest_fixed_cockpit_view (pilot_head_heading, pilot_head_pitch));

  0006f	51		 push	 ecx
  00070	f3 0f 10 05 00
	00 00 00	 movss	 xmm0, DWORD PTR ?pilot_head_pitch@@3MA
  00078	f3 0f 11 04 24	 movss	 DWORD PTR [esp], xmm0
  0007d	51		 push	 ecx
  0007e	f3 0f 10 05 00
	00 00 00	 movss	 xmm0, DWORD PTR ?pilot_head_heading@@3MA
  00086	f3 0f 11 04 24	 movss	 DWORD PTR [esp], xmm0
  0008b	e8 00 00 00 00	 call	 ?get_nearest_fixed_cockpit_view@@YG?AW4VIEW_MODES@@MM@Z ; get_nearest_fixed_cockpit_view
  00090	50		 push	 eax
  00091	e8 00 00 00 00	 call	 ?set_view_mode@@YGHW4VIEW_MODES@@@Z ; set_view_mode

; 1412 : 					}
; 1413 : 					else

  00096	eb 0b		 jmp	 SHORT $LN8@decrease_3
$LN7@decrease_3:

; 1414 : 					{
; 1415 : 						set_view_mode (get_view_mode ());

  00098	a1 00 00 00 00	 mov	 eax, DWORD PTR ?view_mode@@3W4VIEW_MODES@@A ; view_mode
  0009d	50		 push	 eax
  0009e	e8 00 00 00 00	 call	 ?set_view_mode@@YGHW4VIEW_MODES@@@Z ; set_view_mode
$LN8@decrease_3:

; 1416 : 					}
; 1417 : 				}
; 1418 : 				else

  000a3	eb 0b		 jmp	 SHORT $LN6@decrease_3
$LN5@decrease_3:

; 1419 : 				{
; 1420 : 					set_view_mode (get_view_mode ());

  000a5	a1 00 00 00 00	 mov	 eax, DWORD PTR ?view_mode@@3W4VIEW_MODES@@A ; view_mode
  000aa	50		 push	 eax
  000ab	e8 00 00 00 00	 call	 ?set_view_mode@@YGHW4VIEW_MODES@@@Z ; set_view_mode
$LN6@decrease_3:

; 1421 : 				}
; 1422 : //*/				
; 1423 : 			}
; 1424 : 		}
; 1425 : 	}
; 1426 : }

  000b0	5f		 pop	 edi
  000b1	5e		 pop	 esi
  000b2	5b		 pop	 ebx
  000b3	8b e5		 mov	 esp, ebp
  000b5	5d		 pop	 ebp
  000b6	c2 04 00	 ret	 4
?decrease_3d_resolutions_event@@YGXPAUEVENT@@@Z ENDP	; decrease_3d_resolutions_event
_TEXT	ENDS
; Function compile flags: /Odtp /ZI
; File c:\users\nhv90\projects\eech\aphavoc\source\gunships\views\vm_event.c
;	COMDAT ?set_default_3d_resolutions_event@@YGXPAUEVENT@@@Z
_TEXT	SEGMENT
_ev$ = 8						; size = 4
?set_default_3d_resolutions_event@@YGXPAUEVENT@@@Z PROC	; set_default_3d_resolutions_event, COMDAT

; 1351 : {

  00000	55		 push	 ebp
  00001	8b ec		 mov	 ebp, esp
  00003	83 ec 40	 sub	 esp, 64			; 00000040H
  00006	53		 push	 ebx
  00007	56		 push	 esi
  00008	57		 push	 edi

; 1352 : 	set_3d_resolutions (640.0, 480.0);

  00009	51		 push	 ecx
  0000a	f3 0f 10 05 00
	00 00 00	 movss	 xmm0, DWORD PTR __real@43f00000
  00012	f3 0f 11 04 24	 movss	 DWORD PTR [esp], xmm0
  00017	51		 push	 ecx
  00018	f3 0f 10 05 00
	00 00 00	 movss	 xmm0, DWORD PTR __real@44200000
  00020	f3 0f 11 04 24	 movss	 DWORD PTR [esp], xmm0
  00025	e8 00 00 00 00	 call	 ?set_3d_resolutions@@YGXMM@Z ; set_3d_resolutions

; 1353 : 
; 1354 : 	set_screen_resolution_status_message ();

  0002a	e8 00 00 00 00	 call	 ?set_screen_resolution_status_message@@YGXXZ ; set_screen_resolution_status_message

; 1355 : 
; 1356 : 	if (get_gunship_entity ())

  0002f	83 3d 00 00 00
	00 00		 cmp	 DWORD PTR ?gunship_entity@@3PAUENTITY@@A, 0 ; gunship_entity
  00036	0f 84 a6 00 00
	00		 je	 $LN6@set_defaul

; 1357 : 	{
; 1358 : 		if (get_apache_havoc_gunship ())

  0003c	a1 0c 00 00 00	 mov	 eax, DWORD PTR ?global_options@@3UGLOBAL_OPTIONS_DATA@@A+12
  00041	0f b6 88 00 00
	00 00		 movzx	 ecx, BYTE PTR ?new_gunship@@3QBDB[eax]
  00048	85 c9		 test	 ecx, ecx
  0004a	0f 85 92 00 00
	00		 jne	 $LN6@set_defaul

; 1359 : 		{
; 1360 : 			set_global_draw_cockpit_graphics (TRUE);

  00050	c7 05 b8 01 00
	00 01 00 00 00	 mov	 DWORD PTR ?global_options@@3UGLOBAL_OPTIONS_DATA@@A+440, 1

; 1361 : 
; 1362 : 			set_global_draw_overlaid_instruments (TRUE);

  0005a	c7 05 bc 01 00
	00 01 00 00 00	 mov	 DWORD PTR ?global_options@@3UGLOBAL_OPTIONS_DATA@@A+444, 1

; 1363 : 
; 1364 : 			if (in_cockpit)

  00064	83 3d 00 00 00
	00 00		 cmp	 DWORD PTR ?in_cockpit@@3HA, 0 ; in_cockpit
  0006b	74 75		 je	 SHORT $LN6@set_defaul

; 1365 : 			{
; 1366 : 				if (get_apache_havoc_gunship_fixed_cockpit ())

  0006d	a1 0c 00 00 00	 mov	 eax, DWORD PTR ?global_options@@3UGLOBAL_OPTIONS_DATA@@A+12
  00072	0f b6 88 00 00
	00 00		 movzx	 ecx, BYTE PTR ?new_gunship@@3QBDB[eax]
  00079	85 c9		 test	 ecx, ecx
  0007b	75 5a		 jne	 SHORT $LN5@set_defaul
  0007d	83 3d 00 00 00
	00 00		 cmp	 DWORD PTR ?full_screen_hi_res@@3HA, 0 ; full_screen_hi_res
  00084	75 51		 jne	 SHORT $LN5@set_defaul
  00086	83 3d 00 00 00
	00 10		 cmp	 DWORD PTR ?application_video_colourdepth@@3HA, 16 ; application_video_colourdepth, 00000010H
  0008d	75 48		 jne	 SHORT $LN5@set_defaul
  0008f	83 3d 00 00 00
	00 00		 cmp	 DWORD PTR ?global_aphavoc_maps@@3HA, 0 ; global_aphavoc_maps
  00096	74 3f		 je	 SHORT $LN5@set_defaul

; 1367 : 				{
; 1368 : 					if (get_view_mode () == VIEW_MODE_VIRTUAL_COCKPIT)

  00098	83 3d 00 00 00
	00 20		 cmp	 DWORD PTR ?view_mode@@3W4VIEW_MODES@@A, 32 ; view_mode, 00000020H
  0009f	75 29		 jne	 SHORT $LN7@set_defaul

; 1369 : 					{
; 1370 : 						set_view_mode (get_nearest_fixed_cockpit_view (pilot_head_heading, pilot_head_pitch));

  000a1	51		 push	 ecx
  000a2	f3 0f 10 05 00
	00 00 00	 movss	 xmm0, DWORD PTR ?pilot_head_pitch@@3MA
  000aa	f3 0f 11 04 24	 movss	 DWORD PTR [esp], xmm0
  000af	51		 push	 ecx
  000b0	f3 0f 10 05 00
	00 00 00	 movss	 xmm0, DWORD PTR ?pilot_head_heading@@3MA
  000b8	f3 0f 11 04 24	 movss	 DWORD PTR [esp], xmm0
  000bd	e8 00 00 00 00	 call	 ?get_nearest_fixed_cockpit_view@@YG?AW4VIEW_MODES@@MM@Z ; get_nearest_fixed_cockpit_view
  000c2	50		 push	 eax
  000c3	e8 00 00 00 00	 call	 ?set_view_mode@@YGHW4VIEW_MODES@@@Z ; set_view_mode

; 1371 : 					}
; 1372 : 					else

  000c8	eb 0b		 jmp	 SHORT $LN8@set_defaul
$LN7@set_defaul:

; 1373 : 					{
; 1374 : 						set_view_mode (get_view_mode ());

  000ca	a1 00 00 00 00	 mov	 eax, DWORD PTR ?view_mode@@3W4VIEW_MODES@@A ; view_mode
  000cf	50		 push	 eax
  000d0	e8 00 00 00 00	 call	 ?set_view_mode@@YGHW4VIEW_MODES@@@Z ; set_view_mode
$LN8@set_defaul:

; 1375 : 					}
; 1376 : 				}
; 1377 : 				else

  000d5	eb 0b		 jmp	 SHORT $LN6@set_defaul
$LN5@set_defaul:

; 1378 : 				{
; 1379 : 					set_view_mode (get_view_mode ());

  000d7	a1 00 00 00 00	 mov	 eax, DWORD PTR ?view_mode@@3W4VIEW_MODES@@A ; view_mode
  000dc	50		 push	 eax
  000dd	e8 00 00 00 00	 call	 ?set_view_mode@@YGHW4VIEW_MODES@@@Z ; set_view_mode
$LN6@set_defaul:

; 1380 : 				}
; 1381 : 			}
; 1382 : 		}
; 1383 : 	}
; 1384 : }

  000e2	5f		 pop	 edi
  000e3	5e		 pop	 esi
  000e4	5b		 pop	 ebx
  000e5	8b e5		 mov	 esp, ebp
  000e7	5d		 pop	 ebp
  000e8	c2 04 00	 ret	 4
?set_default_3d_resolutions_event@@YGXPAUEVENT@@@Z ENDP	; set_default_3d_resolutions_event
_TEXT	ENDS
; Function compile flags: /Odtp /ZI
; File c:\users\nhv90\projects\eech\aphavoc\source\gunships\views\vm_event.c
;	COMDAT ?set_screen_resolution_status_message@@YGXXZ
_TEXT	SEGMENT
_buffer$ = -200						; size = 200
?set_screen_resolution_status_message@@YGXXZ PROC	; set_screen_resolution_status_message, COMDAT

; 1337 : {

  00000	55		 push	 ebp
  00001	8b ec		 mov	 ebp, esp
  00003	81 ec 08 01 00
	00		 sub	 esp, 264		; 00000108H
  00009	53		 push	 ebx
  0000a	56		 push	 esi
  0000b	57		 push	 edi

; 1338 : 	char
; 1339 : 		buffer[200];
; 1340 : 
; 1341 : 	sprintf (buffer, "%dx%d", (int) get_global_3d_visual_screen_width (), (int) get_global_3d_visual_screen_height ());

  0000c	f3 0f 2c 05 c8
	01 00 00	 cvttss2si eax, DWORD PTR ?global_options@@3UGLOBAL_OPTIONS_DATA@@A+456
  00014	50		 push	 eax
  00015	f3 0f 2c 0d c4
	01 00 00	 cvttss2si ecx, DWORD PTR ?global_options@@3UGLOBAL_OPTIONS_DATA@@A+452
  0001d	51		 push	 ecx
  0001e	68 00 00 00 00	 push	 OFFSET ??_C@_05OEHCLJIP@?$CFdx?$CFd@
  00023	8d 95 38 ff ff
	ff		 lea	 edx, DWORD PTR _buffer$[ebp]
  00029	52		 push	 edx
  0002a	e8 00 00 00 00	 call	 _sprintf
  0002f	83 c4 10	 add	 esp, 16			; 00000010H

; 1342 : 
; 1343 : 	set_status_message (buffer, STATUS_MESSAGE_TYPE_NONE);

  00032	6a 00		 push	 0
  00034	8d 85 38 ff ff
	ff		 lea	 eax, DWORD PTR _buffer$[ebp]
  0003a	50		 push	 eax
  0003b	e8 00 00 00 00	 call	 ?set_status_message@@YGXPBDW4STATUS_MESSAGE_TYPES@@@Z ; set_status_message

; 1344 : }

  00040	5f		 pop	 edi
  00041	5e		 pop	 esi
  00042	5b		 pop	 ebx
  00043	8b e5		 mov	 esp, ebp
  00045	5d		 pop	 ebp
  00046	c3		 ret	 0
?set_screen_resolution_status_message@@YGXXZ ENDP	; set_screen_resolution_status_message
_TEXT	ENDS
; Function compile flags: /Odtp /ZI
; File c:\users\nhv90\projects\eech\aphavoc\source\gunships\views\vm_event.c
;	COMDAT ?hokum_pilot_view3_event@@YGXPAUEVENT@@@Z
_TEXT	SEGMENT
_ev$ = 8						; size = 4
?hokum_pilot_view3_event@@YGXPAUEVENT@@@Z PROC		; hokum_pilot_view3_event, COMDAT

; 1301 : {

  00000	55		 push	 ebp
  00001	8b ec		 mov	 ebp, esp
  00003	83 ec 40	 sub	 esp, 64			; 00000040H
  00006	53		 push	 ebx
  00007	56		 push	 esi
  00008	57		 push	 edi

; 1302 : 	ASSERT (get_global_gunship_type () == GUNSHIP_TYPE_HOKUM);

  00009	83 3d 0c 00 00
	00 03		 cmp	 DWORD PTR ?global_options@@3UGLOBAL_OPTIONS_DATA@@A+12, 3
  00010	74 18		 je	 SHORT $LN2@hokum_pilo
  00012	a1 00 00 00 00	 mov	 eax, DWORD PTR ?__LINE__Var@?0??hokum_pilot_view3_event@@YGXPAUEVENT@@@Z@4JA
  00017	83 c0 01	 add	 eax, 1
  0001a	50		 push	 eax
  0001b	68 00 00 00 00	 push	 OFFSET ??_C@_0EG@IIKBEODM@c?3?2users?2nhv90?2projects?2eech?2ap@
  00020	68 00 00 00 00	 push	 OFFSET ??_C@_0DB@JBFDFAKL@get_global_gunship_type?5?$CI?$CJ?5?$DN?$DN?5G@
  00025	e8 00 00 00 00	 call	 ?process_assert@@YGXPBD0H@Z ; process_assert
$LN2@hokum_pilo:

; 1303 : 
; 1304 : 	#define HEADING_OFFSET ((float) (rad (-25.0)))
; 1305 : 	#define PITCH_OFFSET ((float) (rad (-21.0)))
; 1306 : 
; 1307 : 	if (get_crew_role () == CREW_ROLE_PILOT)

  0002a	e8 00 00 00 00	 call	 ?get_crew_role@@YG?AW4CREW_ROLES@@XZ ; get_crew_role
  0002f	85 c0		 test	 eax, eax
  00031	75 5a		 jne	 SHORT $LN5@hokum_pilo

; 1308 : 	{
; 1309 : 		if ((pilot_head_heading == HEADING_OFFSET) && (pilot_head_pitch == PITCH_OFFSET))

  00033	f3 0f 10 05 00
	00 00 00	 movss	 xmm0, DWORD PTR ?pilot_head_heading@@3MA
  0003b	0f 2e 05 00 00
	00 00		 ucomiss xmm0, DWORD PTR __real@bedf66f3
  00042	9f		 lahf
  00043	f6 c4 44	 test	 ah, 68			; 00000044H
  00046	7a 1e		 jp	 SHORT $LN4@hokum_pilo
  00048	f3 0f 10 05 00
	00 00 00	 movss	 xmm0, DWORD PTR ?pilot_head_pitch@@3MA
  00050	0f 2e 05 00 00
	00 00		 ucomiss xmm0, DWORD PTR __real@bebba866
  00057	9f		 lahf
  00058	f6 c4 44	 test	 ah, 68			; 00000044H
  0005b	7a 09		 jp	 SHORT $LN4@hokum_pilo

; 1310 : 		{
; 1311 : 			set_view_mode (VIEW_MODE_COCKPIT_PANEL_LEVEL_AHEAD);

  0005d	6a 11		 push	 17			; 00000011H
  0005f	e8 00 00 00 00	 call	 ?set_view_mode@@YGHW4VIEW_MODES@@@Z ; set_view_mode

; 1312 : 		}
; 1313 : 		else

  00064	eb 27		 jmp	 SHORT $LN5@hokum_pilo
$LN4@hokum_pilo:

; 1314 : 		{
; 1315 : 			set_view_mode (VIEW_MODE_COCKPIT_PANEL_LEVEL_AHEAD);

  00066	6a 11		 push	 17			; 00000011H
  00068	e8 00 00 00 00	 call	 ?set_view_mode@@YGHW4VIEW_MODES@@@Z ; set_view_mode

; 1316 : 
; 1317 : 			pilot_head_heading = HEADING_OFFSET;

  0006d	f3 0f 10 05 00
	00 00 00	 movss	 xmm0, DWORD PTR __real@bedf66f3
  00075	f3 0f 11 05 00
	00 00 00	 movss	 DWORD PTR ?pilot_head_heading@@3MA, xmm0

; 1318 : 			pilot_head_pitch = PITCH_OFFSET;

  0007d	f3 0f 10 05 00
	00 00 00	 movss	 xmm0, DWORD PTR __real@bebba866
  00085	f3 0f 11 05 00
	00 00 00	 movss	 DWORD PTR ?pilot_head_pitch@@3MA, xmm0
$LN5@hokum_pilo:

; 1319 : 		}
; 1320 : 	}
; 1321 : 
; 1322 : 	#undef HEADING_OFFSET
; 1323 : 	#undef PITCH_OFFSET
; 1324 : }

  0008d	5f		 pop	 edi
  0008e	5e		 pop	 esi
  0008f	5b		 pop	 ebx
  00090	8b e5		 mov	 esp, ebp
  00092	5d		 pop	 ebp
  00093	c2 04 00	 ret	 4
?hokum_pilot_view3_event@@YGXPAUEVENT@@@Z ENDP		; hokum_pilot_view3_event
_TEXT	ENDS
; Function compile flags: /Odtp /ZI
; File c:\users\nhv90\projects\eech\aphavoc\source\gunships\views\vm_event.c
;	COMDAT ?hokum_pilot_view2_event@@YGXPAUEVENT@@@Z
_TEXT	SEGMENT
_ev$ = 8						; size = 4
?hokum_pilot_view2_event@@YGXPAUEVENT@@@Z PROC		; hokum_pilot_view2_event, COMDAT

; 1271 : {

  00000	55		 push	 ebp
  00001	8b ec		 mov	 ebp, esp
  00003	83 ec 40	 sub	 esp, 64			; 00000040H
  00006	53		 push	 ebx
  00007	56		 push	 esi
  00008	57		 push	 edi

; 1272 : 	ASSERT (get_global_gunship_type () == GUNSHIP_TYPE_HOKUM);

  00009	83 3d 0c 00 00
	00 03		 cmp	 DWORD PTR ?global_options@@3UGLOBAL_OPTIONS_DATA@@A+12, 3
  00010	74 18		 je	 SHORT $LN2@hokum_pilo
  00012	a1 00 00 00 00	 mov	 eax, DWORD PTR ?__LINE__Var@?0??hokum_pilot_view2_event@@YGXPAUEVENT@@@Z@4JA
  00017	83 c0 01	 add	 eax, 1
  0001a	50		 push	 eax
  0001b	68 00 00 00 00	 push	 OFFSET ??_C@_0EG@IIKBEODM@c?3?2users?2nhv90?2projects?2eech?2ap@
  00020	68 00 00 00 00	 push	 OFFSET ??_C@_0DB@JBFDFAKL@get_global_gunship_type?5?$CI?$CJ?5?$DN?$DN?5G@
  00025	e8 00 00 00 00	 call	 ?process_assert@@YGXPBD0H@Z ; process_assert
$LN2@hokum_pilo:

; 1273 : 
; 1274 : 	#define HEADING_OFFSET ((float) (rad (-10.1)))
; 1275 : 	#define PITCH_OFFSET ((float) (rad (-19.0)))
; 1276 : 
; 1277 : 	if (get_crew_role () == CREW_ROLE_PILOT)

  0002a	e8 00 00 00 00	 call	 ?get_crew_role@@YG?AW4CREW_ROLES@@XZ ; get_crew_role
  0002f	85 c0		 test	 eax, eax
  00031	75 5a		 jne	 SHORT $LN5@hokum_pilo

; 1278 : 	{
; 1279 : 		if ((pilot_head_heading == HEADING_OFFSET) && (pilot_head_pitch == PITCH_OFFSET))

  00033	f3 0f 10 05 00
	00 00 00	 movss	 xmm0, DWORD PTR ?pilot_head_heading@@3MA
  0003b	0f 2e 05 00 00
	00 00		 ucomiss xmm0, DWORD PTR __real@be348249
  00042	9f		 lahf
  00043	f6 c4 44	 test	 ah, 68			; 00000044H
  00046	7a 1e		 jp	 SHORT $LN4@hokum_pilo
  00048	f3 0f 10 05 00
	00 00 00	 movss	 xmm0, DWORD PTR ?pilot_head_pitch@@3MA
  00050	0f 2e 05 00 00
	00 00		 ucomiss xmm0, DWORD PTR __real@bea9c91f
  00057	9f		 lahf
  00058	f6 c4 44	 test	 ah, 68			; 00000044H
  0005b	7a 09		 jp	 SHORT $LN4@hokum_pilo

; 1280 : 		{
; 1281 : 			set_view_mode (VIEW_MODE_COCKPIT_PANEL_LEVEL_AHEAD);

  0005d	6a 11		 push	 17			; 00000011H
  0005f	e8 00 00 00 00	 call	 ?set_view_mode@@YGHW4VIEW_MODES@@@Z ; set_view_mode

; 1282 : 		}
; 1283 : 		else

  00064	eb 27		 jmp	 SHORT $LN5@hokum_pilo
$LN4@hokum_pilo:

; 1284 : 		{
; 1285 : 			set_view_mode (VIEW_MODE_COCKPIT_PANEL_LEVEL_AHEAD);

  00066	6a 11		 push	 17			; 00000011H
  00068	e8 00 00 00 00	 call	 ?set_view_mode@@YGHW4VIEW_MODES@@@Z ; set_view_mode

; 1286 : 
; 1287 : 			pilot_head_heading = HEADING_OFFSET;

  0006d	f3 0f 10 05 00
	00 00 00	 movss	 xmm0, DWORD PTR __real@be348249
  00075	f3 0f 11 05 00
	00 00 00	 movss	 DWORD PTR ?pilot_head_heading@@3MA, xmm0

; 1288 : 			pilot_head_pitch = PITCH_OFFSET;

  0007d	f3 0f 10 05 00
	00 00 00	 movss	 xmm0, DWORD PTR __real@bea9c91f
  00085	f3 0f 11 05 00
	00 00 00	 movss	 DWORD PTR ?pilot_head_pitch@@3MA, xmm0
$LN5@hokum_pilo:

; 1289 : 		}
; 1290 : 	}
; 1291 : 
; 1292 : 	#undef HEADING_OFFSET
; 1293 : 	#undef PITCH_OFFSET
; 1294 : }

  0008d	5f		 pop	 edi
  0008e	5e		 pop	 esi
  0008f	5b		 pop	 ebx
  00090	8b e5		 mov	 esp, ebp
  00092	5d		 pop	 ebp
  00093	c2 04 00	 ret	 4
?hokum_pilot_view2_event@@YGXPAUEVENT@@@Z ENDP		; hokum_pilot_view2_event
_TEXT	ENDS
; Function compile flags: /Odtp /ZI
; File c:\users\nhv90\projects\eech\aphavoc\source\gunships\views\vm_event.c
;	COMDAT ?hokum_pilot_view1_event@@YGXPAUEVENT@@@Z
_TEXT	SEGMENT
_ev$ = 8						; size = 4
?hokum_pilot_view1_event@@YGXPAUEVENT@@@Z PROC		; hokum_pilot_view1_event, COMDAT

; 1241 : {

  00000	55		 push	 ebp
  00001	8b ec		 mov	 ebp, esp
  00003	83 ec 40	 sub	 esp, 64			; 00000040H
  00006	53		 push	 ebx
  00007	56		 push	 esi
  00008	57		 push	 edi

; 1242 : 	ASSERT (get_global_gunship_type () == GUNSHIP_TYPE_HOKUM);

  00009	83 3d 0c 00 00
	00 03		 cmp	 DWORD PTR ?global_options@@3UGLOBAL_OPTIONS_DATA@@A+12, 3
  00010	74 18		 je	 SHORT $LN2@hokum_pilo
  00012	a1 00 00 00 00	 mov	 eax, DWORD PTR ?__LINE__Var@?0??hokum_pilot_view1_event@@YGXPAUEVENT@@@Z@4JA
  00017	83 c0 01	 add	 eax, 1
  0001a	50		 push	 eax
  0001b	68 00 00 00 00	 push	 OFFSET ??_C@_0EG@IIKBEODM@c?3?2users?2nhv90?2projects?2eech?2ap@
  00020	68 00 00 00 00	 push	 OFFSET ??_C@_0DB@JBFDFAKL@get_global_gunship_type?5?$CI?$CJ?5?$DN?$DN?5G@
  00025	e8 00 00 00 00	 call	 ?process_assert@@YGXPBD0H@Z ; process_assert
$LN2@hokum_pilo:

; 1243 : 
; 1244 : 	#define HEADING_OFFSET ((float) (rad (-3.5)))
; 1245 : 	#define PITCH_OFFSET ((float) (rad (-2.5)))
; 1246 : 
; 1247 : 	if (get_crew_role () == CREW_ROLE_PILOT)

  0002a	e8 00 00 00 00	 call	 ?get_crew_role@@YG?AW4CREW_ROLES@@XZ ; get_crew_role
  0002f	85 c0		 test	 eax, eax
  00031	75 5a		 jne	 SHORT $LN5@hokum_pilo

; 1248 : 	{
; 1249 : 		if ((pilot_head_heading == HEADING_OFFSET) && (pilot_head_pitch == PITCH_OFFSET))

  00033	f3 0f 10 05 00
	00 00 00	 movss	 xmm0, DWORD PTR ?pilot_head_heading@@3MA
  0003b	0f 2e 05 00 00
	00 00		 ucomiss xmm0, DWORD PTR __real@bd7a35dd
  00042	9f		 lahf
  00043	f6 c4 44	 test	 ah, 68			; 00000044H
  00046	7a 1e		 jp	 SHORT $LN4@hokum_pilo
  00048	f3 0f 10 05 00
	00 00 00	 movss	 xmm0, DWORD PTR ?pilot_head_pitch@@3MA
  00050	0f 2e 05 00 00
	00 00		 ucomiss xmm0, DWORD PTR __real@bd32b8c2
  00057	9f		 lahf
  00058	f6 c4 44	 test	 ah, 68			; 00000044H
  0005b	7a 09		 jp	 SHORT $LN4@hokum_pilo

; 1250 : 		{
; 1251 : 			set_view_mode (VIEW_MODE_COCKPIT_PANEL_LEVEL_AHEAD);

  0005d	6a 11		 push	 17			; 00000011H
  0005f	e8 00 00 00 00	 call	 ?set_view_mode@@YGHW4VIEW_MODES@@@Z ; set_view_mode

; 1252 : 		}
; 1253 : 		else

  00064	eb 27		 jmp	 SHORT $LN5@hokum_pilo
$LN4@hokum_pilo:

; 1254 : 		{
; 1255 : 			set_view_mode (VIEW_MODE_COCKPIT_PANEL_LEVEL_AHEAD);

  00066	6a 11		 push	 17			; 00000011H
  00068	e8 00 00 00 00	 call	 ?set_view_mode@@YGHW4VIEW_MODES@@@Z ; set_view_mode

; 1256 : 
; 1257 : 			pilot_head_heading = HEADING_OFFSET;

  0006d	f3 0f 10 05 00
	00 00 00	 movss	 xmm0, DWORD PTR __real@bd7a35dd
  00075	f3 0f 11 05 00
	00 00 00	 movss	 DWORD PTR ?pilot_head_heading@@3MA, xmm0

; 1258 : 			pilot_head_pitch = PITCH_OFFSET;

  0007d	f3 0f 10 05 00
	00 00 00	 movss	 xmm0, DWORD PTR __real@bd32b8c2
  00085	f3 0f 11 05 00
	00 00 00	 movss	 DWORD PTR ?pilot_head_pitch@@3MA, xmm0
$LN5@hokum_pilo:

; 1259 : 		}
; 1260 : 	}
; 1261 : 
; 1262 : 	#undef HEADING_OFFSET
; 1263 : 	#undef PITCH_OFFSET
; 1264 : }

  0008d	5f		 pop	 edi
  0008e	5e		 pop	 esi
  0008f	5b		 pop	 ebx
  00090	8b e5		 mov	 esp, ebp
  00092	5d		 pop	 ebp
  00093	c2 04 00	 ret	 4
?hokum_pilot_view1_event@@YGXPAUEVENT@@@Z ENDP		; hokum_pilot_view1_event
_TEXT	ENDS
; Function compile flags: /Odtp /ZI
; File c:\users\nhv90\projects\eech\aphavoc\source\gunships\views\vm_event.c
;	COMDAT ?special_cockpit_toggle_event@@YGXPAUEVENT@@@Z
_TEXT	SEGMENT
tv64 = -68						; size = 4
_ev$ = 8						; size = 4
?special_cockpit_toggle_event@@YGXPAUEVENT@@@Z PROC	; special_cockpit_toggle_event, COMDAT

; 1202 : {

  00000	55		 push	 ebp
  00001	8b ec		 mov	 ebp, esp
  00003	83 ec 44	 sub	 esp, 68			; 00000044H
  00006	53		 push	 ebx
  00007	56		 push	 esi
  00008	57		 push	 edi

; 1203 : 	switch (get_global_gunship_type ())

  00009	a1 0c 00 00 00	 mov	 eax, DWORD PTR ?global_options@@3UGLOBAL_OPTIONS_DATA@@A+12
  0000e	89 45 bc	 mov	 DWORD PTR tv64[ebp], eax
  00011	8b 4d bc	 mov	 ecx, DWORD PTR tv64[ebp]
  00014	83 e9 02	 sub	 ecx, 2
  00017	89 4d bc	 mov	 DWORD PTR tv64[ebp], ecx
  0001a	83 7d bc 07	 cmp	 DWORD PTR tv64[ebp], 7
  0001e	77 11		 ja	 SHORT $LN4@special_co
  00020	8b 55 bc	 mov	 edx, DWORD PTR tv64[ebp]
  00023	0f b6 82 00 00
	00 00		 movzx	 eax, BYTE PTR $LN7@special_co[edx]
  0002a	ff 24 85 00 00
	00 00		 jmp	 DWORD PTR $LN8@special_co[eax*4]
$LN4@special_co:

; 1204 : 	{
; 1205 : 		// JB 030313 Fly any aircraft
; 1206 : 		default:
; 1207 : 		case GUNSHIP_TYPE_APACHE:
; 1208 : 		case GUNSHIP_TYPE_HAVOC:
; 1209 : 	////Moje 030521 Start
; 1210 : 		case GUNSHIP_TYPE_BLACKHAWK:
; 1211 : 	////Moje 030521 End
; 1212 : 	////Moje 030612 start
; 1213 : 		case GUNSHIP_TYPE_HIND:
; 1214 : 	////Moje 030612 end
; 1215 : 	////Moje 030816 Start
; 1216 : 		case GUNSHIP_TYPE_AH64A:
; 1217 : 		case GUNSHIP_TYPE_KA50:
; 1218 : 	////Moje 030816 end
; 1219 : 		{
; 1220 : 			set_global_draw_cockpit_graphics (get_global_draw_cockpit_graphics () ^ 1);

  00031	a1 b8 01 00 00	 mov	 eax, DWORD PTR ?global_options@@3UGLOBAL_OPTIONS_DATA@@A+440
  00036	83 f0 01	 xor	 eax, 1
  00039	a3 b8 01 00 00	 mov	 DWORD PTR ?global_options@@3UGLOBAL_OPTIONS_DATA@@A+440, eax

; 1221 : 
; 1222 : 			break;

  0003e	eb 0d		 jmp	 SHORT $LN1@special_co
$LN5@special_co:

; 1223 : 		}
; 1224 : 		case GUNSHIP_TYPE_COMANCHE:
; 1225 : 		case GUNSHIP_TYPE_HOKUM:
; 1226 : 		case GUNSHIP_TYPE_VIPER:
; 1227 : 		case GUNSHIP_TYPE_KIOWA:
; 1228 : 		{
; 1229 :  			set_global_glass_cockpit (get_global_glass_cockpit () ^ 1);

  00040	a1 68 03 00 00	 mov	 eax, DWORD PTR ?global_options@@3UGLOBAL_OPTIONS_DATA@@A+872
  00045	83 f0 01	 xor	 eax, 1
  00048	a3 68 03 00 00	 mov	 DWORD PTR ?global_options@@3UGLOBAL_OPTIONS_DATA@@A+872, eax
$LN1@special_co:

; 1230 : 
; 1231 : 			break;
; 1232 : 		}
; 1233 : 	}
; 1234 : }

  0004d	5f		 pop	 edi
  0004e	5e		 pop	 esi
  0004f	5b		 pop	 ebx
  00050	8b e5		 mov	 esp, ebp
  00052	5d		 pop	 ebp
  00053	c2 04 00	 ret	 4
  00056	66 90		 npad	 2
$LN8@special_co:
  00058	00 00 00 00	 DD	 $LN5@special_co
  0005c	00 00 00 00	 DD	 $LN4@special_co
$LN7@special_co:
  00060	00		 DB	 0
  00061	00		 DB	 0
  00062	01		 DB	 1
  00063	01		 DB	 1
  00064	01		 DB	 1
  00065	01		 DB	 1
  00066	00		 DB	 0
  00067	00		 DB	 0
?special_cockpit_toggle_event@@YGXPAUEVENT@@@Z ENDP	; special_cockpit_toggle_event
_TEXT	ENDS
; Function compile flags: /Odtp /ZI
; File c:\users\nhv90\projects\eech\aphavoc\source\gunships\views\vm_event.c
;	COMDAT ?toggle_wideview_edit_event@@YGXPAUEVENT@@@Z
_TEXT	SEGMENT
_ev$ = 8						; size = 4
?toggle_wideview_edit_event@@YGXPAUEVENT@@@Z PROC	; toggle_wideview_edit_event, COMDAT

; 1177 : {

  00000	55		 push	 ebp
  00001	8b ec		 mov	 ebp, esp
  00003	83 ec 40	 sub	 esp, 64			; 00000040H
  00006	53		 push	 ebx
  00007	56		 push	 esi
  00008	57		 push	 edi

; 1178 : //VJ 050126 save_wide no longer needed, this can toggle
; 1179 : 	if (get_global_wide_cockpit ())

  00009	83 3d 00 00 00
	00 00		 cmp	 DWORD PTR ?wide_cockpit@@3HA, 0 ; wide_cockpit
  00010	74 1f		 je	 SHORT $LN1@toggle_wid

; 1180 : 	{
; 1181 : 		if (edit_wide_cockpit)

  00012	83 3d 00 00 00
	00 00		 cmp	 DWORD PTR ?edit_wide_cockpit@@3HA, 0 ; edit_wide_cockpit
  00019	74 0c		 je	 SHORT $LN3@toggle_wid

; 1182 : 		   edit_wide_cockpit = FALSE;	

  0001b	c7 05 00 00 00
	00 00 00 00 00	 mov	 DWORD PTR ?edit_wide_cockpit@@3HA, 0 ; edit_wide_cockpit

; 1183 : 		else   

  00025	eb 0a		 jmp	 SHORT $LN1@toggle_wid
$LN3@toggle_wid:

; 1184 : 		   edit_wide_cockpit = TRUE;	

  00027	c7 05 00 00 00
	00 01 00 00 00	 mov	 DWORD PTR ?edit_wide_cockpit@@3HA, 1 ; edit_wide_cockpit
$LN1@toggle_wid:

; 1185 : 	}	   
; 1186 : }

  00031	5f		 pop	 edi
  00032	5e		 pop	 esi
  00033	5b		 pop	 ebx
  00034	8b e5		 mov	 esp, ebp
  00036	5d		 pop	 ebp
  00037	c2 04 00	 ret	 4
?toggle_wideview_edit_event@@YGXPAUEVENT@@@Z ENDP	; toggle_wideview_edit_event
_TEXT	ENDS
; Function compile flags: /Odtp /ZI
; File c:\users\nhv90\projects\eech\aphavoc\source\gunships\views\vm_event.c
;	COMDAT ?toggle_wideview_event@@YGXPAUEVENT@@@Z
_TEXT	SEGMENT
_ev$ = 8						; size = 4
?toggle_wideview_event@@YGXPAUEVENT@@@Z PROC		; toggle_wideview_event, COMDAT

; 1141 : {

  00000	55		 push	 ebp
  00001	8b ec		 mov	 ebp, esp
  00003	83 ec 40	 sub	 esp, 64			; 00000040H
  00006	53		 push	 ebx
  00007	56		 push	 esi
  00008	57		 push	 edi

; 1142 : 	if (get_global_gunship_type () == GUNSHIP_TYPE_APACHE)

  00009	83 3d 0c 00 00
	00 00		 cmp	 DWORD PTR ?global_options@@3UGLOBAL_OPTIONS_DATA@@A+12, 0
  00010	75 0f		 jne	 SHORT $LN2@toggle_wid

; 1143 : 	{
; 1144 : 		// wideview always enabled for apache
; 1145 : 		set_global_wide_cockpit(TRUE);

  00012	c7 05 00 00 00
	00 01 00 00 00	 mov	 DWORD PTR ?wide_cockpit@@3HA, 1 ; wide_cockpit

; 1146 : 		return;

  0001c	e9 a5 00 00 00	 jmp	 $LN1@toggle_wid
$LN2@toggle_wid:

; 1147 : 	}
; 1148 : 	
; 1149 : 	set_global_wide_cockpit (get_global_wide_cockpit () ^ 1);

  00021	a1 00 00 00 00	 mov	 eax, DWORD PTR ?wide_cockpit@@3HA ; wide_cockpit
  00026	83 f0 01	 xor	 eax, 1
  00029	a3 00 00 00 00	 mov	 DWORD PTR ?wide_cockpit@@3HA, eax ; wide_cockpit

; 1150 :    edit_wide_cockpit = FALSE;

  0002e	c7 05 00 00 00
	00 00 00 00 00	 mov	 DWORD PTR ?edit_wide_cockpit@@3HA, 0 ; edit_wide_cockpit

; 1151 :    //VJ 050211 restore pitch when switching of wideview
; 1152 :    if (!get_global_wide_cockpit ())

  00038	83 3d 00 00 00
	00 00		 cmp	 DWORD PTR ?wide_cockpit@@3HA, 0 ; wide_cockpit
  0003f	75 35		 jne	 SHORT $LN3@toggle_wid

; 1153 :    {
; 1154 : 		pilot_head_pitch_datum = 0;

  00041	0f 57 c0	 xorps	 xmm0, xmm0
  00044	f3 0f 11 05 00
	00 00 00	 movss	 DWORD PTR ?pilot_head_pitch_datum@@3MA, xmm0

; 1155 : 		co_pilot_head_pitch_datum = 0;

  0004c	0f 57 c0	 xorps	 xmm0, xmm0
  0004f	f3 0f 11 05 00
	00 00 00	 movss	 DWORD PTR ?co_pilot_head_pitch_datum@@3MA, xmm0

; 1156 : 		if (wide_cockpit_nr == WIDEVIEW_APACHE_PILOT ||

  00057	83 3d 00 00 00
	00 04		 cmp	 DWORD PTR ?wide_cockpit_nr@@3HA, 4 ; wide_cockpit_nr
  0005e	74 09		 je	 SHORT $LN6@toggle_wid
  00060	83 3d 00 00 00
	00 06		 cmp	 DWORD PTR ?wide_cockpit_nr@@3HA, 6 ; wide_cockpit_nr
  00067	75 0b		 jne	 SHORT $LN5@toggle_wid
$LN6@toggle_wid:

; 1157 : 			 wide_cockpit_nr == WIDEVIEW_HAVOC_PILOT)
; 1158 : 			pilot_head_pitch = 0;

  00069	0f 57 c0	 xorps	 xmm0, xmm0
  0006c	f3 0f 11 05 00
	00 00 00	 movss	 DWORD PTR ?pilot_head_pitch@@3MA, xmm0
$LN5@toggle_wid:

; 1159 : 	}
; 1160 : 	else

  00074	eb 50		 jmp	 SHORT $LN7@toggle_wid
$LN3@toggle_wid:

; 1161 : 	{
; 1162 : 		if (wide_cockpit_nr == WIDEVIEW_APACHE_PILOT ||

  00076	83 3d 00 00 00
	00 04		 cmp	 DWORD PTR ?wide_cockpit_nr@@3HA, 4 ; wide_cockpit_nr
  0007d	74 09		 je	 SHORT $LN8@toggle_wid
  0007f	83 3d 00 00 00
	00 06		 cmp	 DWORD PTR ?wide_cockpit_nr@@3HA, 6 ; wide_cockpit_nr
  00086	75 3e		 jne	 SHORT $LN7@toggle_wid
$LN8@toggle_wid:

; 1163 : 			 wide_cockpit_nr == WIDEVIEW_HAVOC_PILOT)
; 1164 : 		{	 
; 1165 : 			pilot_head_pitch = rad ( wide_cockpit_position[wide_cockpit_nr].c.p );

  00088	6b 05 00 00 00
	00 24		 imul	 eax, DWORD PTR ?wide_cockpit_nr@@3HA, 36 ; wide_cockpit_nr
  0008f	f3 0f 10 80 20
	00 00 00	 movss	 xmm0, DWORD PTR ?wide_cockpit_position@@3PAUCOCKPIT_POSITION@@A[eax+32]
  00097	f3 0f 59 05 00
	00 00 00	 mulss	 xmm0, DWORD PTR __real@3c8efa35
  0009f	f3 0f 11 05 00
	00 00 00	 movss	 DWORD PTR ?pilot_head_pitch@@3MA, xmm0

; 1166 : 			pilot_head_pitch_datum = rad ( wide_cockpit_position[wide_cockpit_nr].c.p );

  000a7	6b 05 00 00 00
	00 24		 imul	 eax, DWORD PTR ?wide_cockpit_nr@@3HA, 36 ; wide_cockpit_nr
  000ae	f3 0f 10 80 20
	00 00 00	 movss	 xmm0, DWORD PTR ?wide_cockpit_position@@3PAUCOCKPIT_POSITION@@A[eax+32]
  000b6	f3 0f 59 05 00
	00 00 00	 mulss	 xmm0, DWORD PTR __real@3c8efa35
  000be	f3 0f 11 05 00
	00 00 00	 movss	 DWORD PTR ?pilot_head_pitch_datum@@3MA, xmm0
$LN7@toggle_wid:
$LN1@toggle_wid:

; 1167 : 		}	
; 1168 : 	}	
; 1169 : }

  000c6	5f		 pop	 edi
  000c7	5e		 pop	 esi
  000c8	5b		 pop	 ebx
  000c9	8b e5		 mov	 esp, ebp
  000cb	5d		 pop	 ebp
  000cc	c2 04 00	 ret	 4
?toggle_wideview_event@@YGXPAUEVENT@@@Z ENDP		; toggle_wideview_event
_TEXT	ENDS
; Function compile flags: /Odtp /ZI
; File c:\users\nhv90\projects\eech\aphavoc\source\gunships\views\vm_event.c
;	COMDAT ?TSD_render_palette_event@@YGXPAUEVENT@@@Z
_TEXT	SEGMENT
_ev$ = 8						; size = 4
?TSD_render_palette_event@@YGXPAUEVENT@@@Z PROC		; TSD_render_palette_event, COMDAT

; 1130 : {

  00000	55		 push	 ebp
  00001	8b ec		 mov	 ebp, esp
  00003	83 ec 40	 sub	 esp, 64			; 00000040H
  00006	53		 push	 ebx
  00007	56		 push	 esi
  00008	57		 push	 edi

; 1131 : 	cycle_tsd_map_palette();

  00009	e8 00 00 00 00	 call	 ?cycle_tsd_map_palette@@YGXXZ ; cycle_tsd_map_palette

; 1132 : }

  0000e	5f		 pop	 edi
  0000f	5e		 pop	 esi
  00010	5b		 pop	 ebx
  00011	8b e5		 mov	 esp, ebp
  00013	5d		 pop	 ebp
  00014	c2 04 00	 ret	 4
?TSD_render_palette_event@@YGXPAUEVENT@@@Z ENDP		; TSD_render_palette_event
_TEXT	ENDS
; Function compile flags: /Odtp /ZI
; File c:\users\nhv90\projects\eech\aphavoc\source\gunships\views\vm_event.c
;	COMDAT ?TSD_render_event@@YGXPAUEVENT@@@Z
_TEXT	SEGMENT
tv64 = -68						; size = 4
_ev$ = 8						; size = 4
?TSD_render_event@@YGXPAUEVENT@@@Z PROC			; TSD_render_event, COMDAT

; 1101 : {

  00000	55		 push	 ebp
  00001	8b ec		 mov	 ebp, esp
  00003	83 ec 44	 sub	 esp, 68			; 00000044H
  00006	53		 push	 ebx
  00007	56		 push	 esi
  00008	57		 push	 edi

; 1102 : 	switch(tsd_render_mode) {

  00009	a1 00 00 00 00	 mov	 eax, DWORD PTR ?tsd_render_mode@@3W4TSD_RENDER_MODES@@A ; tsd_render_mode
  0000e	89 45 bc	 mov	 DWORD PTR tv64[ebp], eax
  00011	8b 4d bc	 mov	 ecx, DWORD PTR tv64[ebp]
  00014	83 e9 01	 sub	 ecx, 1
  00017	89 4d bc	 mov	 DWORD PTR tv64[ebp], ecx
  0001a	83 7d bc 04	 cmp	 DWORD PTR tv64[ebp], 4
  0001e	77 46		 ja	 SHORT $LN9@TSD_render
  00020	8b 55 bc	 mov	 edx, DWORD PTR tv64[ebp]
  00023	ff 24 95 00 00
	00 00		 jmp	 DWORD PTR $LN11@TSD_render[edx*4]
$LN4@TSD_render:

; 1103 : 		case TSD_RENDER_CONTOUR_MODE :
; 1104 : 	   	set_TSD_render_mode(TSD_RENDER_CONTOUR_RELIEF_MODE);

  0002a	c7 05 00 00 00
	00 02 00 00 00	 mov	 DWORD PTR ?tsd_render_mode@@3W4TSD_RENDER_MODES@@A, 2 ; tsd_render_mode

; 1105 : 	   	break;

  00034	eb 3a		 jmp	 SHORT $LN2@TSD_render
$LN5@TSD_render:

; 1106 : 		case TSD_RENDER_CONTOUR_RELIEF_MODE :
; 1107 : 	   	set_TSD_render_mode(TSD_RENDER_RELIEF_MODE);

  00036	c7 05 00 00 00
	00 03 00 00 00	 mov	 DWORD PTR ?tsd_render_mode@@3W4TSD_RENDER_MODES@@A, 3 ; tsd_render_mode

; 1108 : 	   	break;

  00040	eb 2e		 jmp	 SHORT $LN2@TSD_render
$LN6@TSD_render:

; 1109 : 		case TSD_RENDER_RELIEF_MODE :
; 1110 : 	   	set_TSD_render_mode(TSD_RENDER_CONTOUR_SHADED_RELIEF_MODE);

  00042	c7 05 00 00 00
	00 04 00 00 00	 mov	 DWORD PTR ?tsd_render_mode@@3W4TSD_RENDER_MODES@@A, 4 ; tsd_render_mode

; 1111 : 	   	break;

  0004c	eb 22		 jmp	 SHORT $LN2@TSD_render
$LN7@TSD_render:

; 1112 : 		case TSD_RENDER_CONTOUR_SHADED_RELIEF_MODE:
; 1113 : 	   	set_TSD_render_mode(TSD_RENDER_SHADED_RELIEF_MODE);

  0004e	c7 05 00 00 00
	00 05 00 00 00	 mov	 DWORD PTR ?tsd_render_mode@@3W4TSD_RENDER_MODES@@A, 5 ; tsd_render_mode

; 1114 : 	   	break;	   		   	

  00058	eb 16		 jmp	 SHORT $LN2@TSD_render
$LN8@TSD_render:

; 1115 : 		case TSD_RENDER_SHADED_RELIEF_MODE:
; 1116 : 	   	set_TSD_render_mode(TSD_RENDER_CONTOUR_MODE);

  0005a	c7 05 00 00 00
	00 01 00 00 00	 mov	 DWORD PTR ?tsd_render_mode@@3W4TSD_RENDER_MODES@@A, 1 ; tsd_render_mode

; 1117 : 	   	break;	   		   	

  00064	eb 0a		 jmp	 SHORT $LN2@TSD_render
$LN9@TSD_render:

; 1118 : 	   default:	
; 1119 : 	      set_TSD_render_mode(TSD_RENDER_CONTOUR_MODE);

  00066	c7 05 00 00 00
	00 01 00 00 00	 mov	 DWORD PTR ?tsd_render_mode@@3W4TSD_RENDER_MODES@@A, 1 ; tsd_render_mode
$LN2@TSD_render:

; 1120 : 	}      
; 1121 : 	command_line_tsd_render_mode = tsd_render_mode-1;	   

  00070	a1 00 00 00 00	 mov	 eax, DWORD PTR ?tsd_render_mode@@3W4TSD_RENDER_MODES@@A ; tsd_render_mode
  00075	83 e8 01	 sub	 eax, 1
  00078	a3 00 00 00 00	 mov	 DWORD PTR ?command_line_tsd_render_mode@@3HA, eax ; command_line_tsd_render_mode

; 1122 : }

  0007d	5f		 pop	 edi
  0007e	5e		 pop	 esi
  0007f	5b		 pop	 ebx
  00080	8b e5		 mov	 esp, ebp
  00082	5d		 pop	 ebp
  00083	c2 04 00	 ret	 4
  00086	66 90		 npad	 2
$LN11@TSD_render:
  00088	00 00 00 00	 DD	 $LN4@TSD_render
  0008c	00 00 00 00	 DD	 $LN5@TSD_render
  00090	00 00 00 00	 DD	 $LN6@TSD_render
  00094	00 00 00 00	 DD	 $LN7@TSD_render
  00098	00 00 00 00	 DD	 $LN8@TSD_render
?TSD_render_event@@YGXPAUEVENT@@@Z ENDP			; TSD_render_event
_TEXT	ENDS
; Function compile flags: /Odtp /ZI
; File c:\users\nhv90\projects\eech\aphavoc\source\gunships\views\vm_event.c
;	COMDAT ?increase_cockpit_detail_event@@YGXPAUEVENT@@@Z
_TEXT	SEGMENT
_level$ = -4						; size = 4
_ev$ = 8						; size = 4
?increase_cockpit_detail_event@@YGXPAUEVENT@@@Z PROC	; increase_cockpit_detail_event, COMDAT

; 1077 : {

  00000	55		 push	 ebp
  00001	8b ec		 mov	 ebp, esp
  00003	83 ec 44	 sub	 esp, 68			; 00000044H
  00006	53		 push	 ebx
  00007	56		 push	 esi
  00008	57		 push	 edi

; 1078 : 	cockpit_detail_levels
; 1079 : 		level;
; 1080 : 
; 1081 : 	level = get_global_cockpit_detail_level ();

  00009	a1 78 03 00 00	 mov	 eax, DWORD PTR ?global_options@@3UGLOBAL_OPTIONS_DATA@@A+888
  0000e	89 45 fc	 mov	 DWORD PTR _level$[ebp], eax

; 1082 : 
; 1083 : 	if (level == COCKPIT_DETAIL_LEVEL_LOW)

  00011	83 7d fc 00	 cmp	 DWORD PTR _level$[ebp], 0
  00015	75 09		 jne	 SHORT $LN2@increase_c

; 1084 : 	{
; 1085 : 		level = COCKPIT_DETAIL_LEVEL_MEDIUM;

  00017	c7 45 fc 01 00
	00 00		 mov	 DWORD PTR _level$[ebp], 1
  0001e	eb 0d		 jmp	 SHORT $LN3@increase_c
$LN2@increase_c:

; 1086 : 	}
; 1087 : 	else if (level == COCKPIT_DETAIL_LEVEL_MEDIUM)

  00020	83 7d fc 01	 cmp	 DWORD PTR _level$[ebp], 1
  00024	75 07		 jne	 SHORT $LN3@increase_c

; 1088 : 	{
; 1089 : 		level = COCKPIT_DETAIL_LEVEL_HIGH;

  00026	c7 45 fc 02 00
	00 00		 mov	 DWORD PTR _level$[ebp], 2
$LN3@increase_c:

; 1090 : 	}
; 1091 : 
; 1092 : 	set_global_cockpit_detail_level (level);

  0002d	8b 45 fc	 mov	 eax, DWORD PTR _level$[ebp]
  00030	a3 78 03 00 00	 mov	 DWORD PTR ?global_options@@3UGLOBAL_OPTIONS_DATA@@A+888, eax

; 1093 : }

  00035	5f		 pop	 edi
  00036	5e		 pop	 esi
  00037	5b		 pop	 ebx
  00038	8b e5		 mov	 esp, ebp
  0003a	5d		 pop	 ebp
  0003b	c2 04 00	 ret	 4
?increase_cockpit_detail_event@@YGXPAUEVENT@@@Z ENDP	; increase_cockpit_detail_event
_TEXT	ENDS
; Function compile flags: /Odtp /ZI
; File c:\users\nhv90\projects\eech\aphavoc\source\gunships\views\vm_event.c
;	COMDAT ?decrease_cockpit_detail_event@@YGXPAUEVENT@@@Z
_TEXT	SEGMENT
_level$ = -4						; size = 4
_ev$ = 8						; size = 4
?decrease_cockpit_detail_event@@YGXPAUEVENT@@@Z PROC	; decrease_cockpit_detail_event, COMDAT

; 1054 : {

  00000	55		 push	 ebp
  00001	8b ec		 mov	 ebp, esp
  00003	83 ec 44	 sub	 esp, 68			; 00000044H
  00006	53		 push	 ebx
  00007	56		 push	 esi
  00008	57		 push	 edi

; 1055 : 	cockpit_detail_levels
; 1056 : 		level;
; 1057 : 
; 1058 : 	level = get_global_cockpit_detail_level ();

  00009	a1 78 03 00 00	 mov	 eax, DWORD PTR ?global_options@@3UGLOBAL_OPTIONS_DATA@@A+888
  0000e	89 45 fc	 mov	 DWORD PTR _level$[ebp], eax

; 1059 : 
; 1060 : 	if (level == COCKPIT_DETAIL_LEVEL_HIGH)

  00011	83 7d fc 02	 cmp	 DWORD PTR _level$[ebp], 2
  00015	75 09		 jne	 SHORT $LN2@decrease_c

; 1061 : 	{
; 1062 : 		level = COCKPIT_DETAIL_LEVEL_MEDIUM;

  00017	c7 45 fc 01 00
	00 00		 mov	 DWORD PTR _level$[ebp], 1
  0001e	eb 0d		 jmp	 SHORT $LN3@decrease_c
$LN2@decrease_c:

; 1063 : 	}
; 1064 : 	else if (level == COCKPIT_DETAIL_LEVEL_MEDIUM)

  00020	83 7d fc 01	 cmp	 DWORD PTR _level$[ebp], 1
  00024	75 07		 jne	 SHORT $LN3@decrease_c

; 1065 : 	{
; 1066 : 		level = COCKPIT_DETAIL_LEVEL_LOW;

  00026	c7 45 fc 00 00
	00 00		 mov	 DWORD PTR _level$[ebp], 0
$LN3@decrease_c:

; 1067 : 	}
; 1068 : 
; 1069 : 	set_global_cockpit_detail_level (level);

  0002d	8b 45 fc	 mov	 eax, DWORD PTR _level$[ebp]
  00030	a3 78 03 00 00	 mov	 DWORD PTR ?global_options@@3UGLOBAL_OPTIONS_DATA@@A+888, eax

; 1070 : }

  00035	5f		 pop	 edi
  00036	5e		 pop	 esi
  00037	5b		 pop	 ebx
  00038	8b e5		 mov	 esp, ebp
  0003a	5d		 pop	 ebp
  0003b	c2 04 00	 ret	 4
?decrease_cockpit_detail_event@@YGXPAUEVENT@@@Z ENDP	; decrease_cockpit_detail_event
_TEXT	ENDS
; Function compile flags: /Odtp /ZI
; File c:\users\nhv90\projects\eech\aphavoc\source\gunships\views\vm_event.c
;	COMDAT ?set_next_mfd_size_event@@YGXPAUEVENT@@@Z
_TEXT	SEGMENT
_type$ = -4						; size = 4
_ev$ = 8						; size = 4
?set_next_mfd_size_event@@YGXPAUEVENT@@@Z PROC		; set_next_mfd_size_event, COMDAT

; 1032 : {

  00000	55		 push	 ebp
  00001	8b ec		 mov	 ebp, esp
  00003	83 ec 44	 sub	 esp, 68			; 00000044H
  00006	53		 push	 ebx
  00007	56		 push	 esi
  00008	57		 push	 edi

; 1033 : 	gunship_types type = get_global_gunship_type();

  00009	a1 0c 00 00 00	 mov	 eax, DWORD PTR ?global_options@@3UGLOBAL_OPTIONS_DATA@@A+12
  0000e	89 45 fc	 mov	 DWORD PTR _type$[ebp], eax

; 1034 : 
; 1035 : 	if (type >= (sizeof(hud_code) / sizeof(hud_code[0])))

  00011	83 7d fc 0a	 cmp	 DWORD PTR _type$[ebp], 10 ; 0000000aH
  00015	72 07		 jb	 SHORT $LN2@set_next_m

; 1036 : 	{
; 1037 : 		type = GUNSHIP_TYPE_AH64A;

  00017	c7 45 fc 06 00
	00 00		 mov	 DWORD PTR _type$[ebp], 6
$LN2@set_next_m:

; 1038 : 	}
; 1039 : 
; 1040 : 	global_mfd_size += 0.05;

  0001e	f3 0f 5a 05 00
	00 00 00	 cvtss2sd xmm0, DWORD PTR ?global_mfd_size@@3MA
  00026	f2 0f 58 05 00
	00 00 00	 addsd	 xmm0, QWORD PTR __real@3fa999999999999a
  0002e	f2 0f 5a c0	 cvtsd2ss xmm0, xmm0
  00032	f3 0f 11 05 00
	00 00 00	 movss	 DWORD PTR ?global_mfd_size@@3MA, xmm0

; 1041 : 	if (global_mfd_size >= 1.2)

  0003a	f3 0f 5a 05 00
	00 00 00	 cvtss2sd xmm0, DWORD PTR ?global_mfd_size@@3MA
  00042	66 0f 2f 05 00
	00 00 00	 comisd	 xmm0, QWORD PTR __real@3ff3333333333333
  0004a	72 10		 jb	 SHORT $LN3@set_next_m

; 1042 : 	{
; 1043 : 		global_mfd_size = 0.4;

  0004c	f3 0f 10 05 00
	00 00 00	 movss	 xmm0, DWORD PTR __real@3ecccccd
  00054	f3 0f 11 05 00
	00 00 00	 movss	 DWORD PTR ?global_mfd_size@@3MA, xmm0
$LN3@set_next_m:

; 1044 : 	}
; 1045 : 
; 1046 : 	hud_code[(int)type][HUD_CODES_MFD] = ( int ) ( global_mfd_size * 20.0 );

  0005c	f3 0f 5a 05 00
	00 00 00	 cvtss2sd xmm0, DWORD PTR ?global_mfd_size@@3MA
  00064	f2 0f 59 05 00
	00 00 00	 mulsd	 xmm0, QWORD PTR __real@4034000000000000
  0006c	f2 0f 2c c0	 cvttsd2si eax, xmm0
  00070	8b 4d fc	 mov	 ecx, DWORD PTR _type$[ebp]
  00073	c1 e1 04	 shl	 ecx, 4
  00076	ba 04 00 00 00	 mov	 edx, 4
  0007b	6b d2 03	 imul	 edx, edx, 3
  0007e	89 84 11 00 00
	00 00		 mov	 DWORD PTR ?hud_code@@3PAY03HA[ecx+edx], eax

; 1047 : }

  00085	5f		 pop	 edi
  00086	5e		 pop	 esi
  00087	5b		 pop	 ebx
  00088	8b e5		 mov	 esp, ebp
  0008a	5d		 pop	 ebp
  0008b	c2 04 00	 ret	 4
?set_next_mfd_size_event@@YGXPAUEVENT@@@Z ENDP		; set_next_mfd_size_event
_TEXT	ENDS
; Function compile flags: /Odtp /ZI
; File c:\users\nhv90\projects\eech\aphavoc\source\gunships\views\vm_event.c
;	COMDAT ?toggle_unscaled_displays_event@@YGXPAUEVENT@@@Z
_TEXT	SEGMENT
tv79 = -68						; size = 4
_ev$ = 8						; size = 4
?toggle_unscaled_displays_event@@YGXPAUEVENT@@@Z PROC	; toggle_unscaled_displays_event, COMDAT

; 1014 : {

  00000	55		 push	 ebp
  00001	8b ec		 mov	 ebp, esp
  00003	83 ec 44	 sub	 esp, 68			; 00000044H
  00006	53		 push	 ebx
  00007	56		 push	 esi
  00008	57		 push	 edi

; 1015 : 	//set_global_unscaled_displays (get_global_unscaled_displays () ^ 1);
; 1016 : 	//VJ 050205, 050210, 060913 hud scaling mod
; 1017 : 	global_hud_size2 += 0.1;

  00009	f3 0f 5a 05 00
	00 00 00	 cvtss2sd xmm0, DWORD PTR ?global_hud_size2@@3MA
  00011	f2 0f 58 05 00
	00 00 00	 addsd	 xmm0, QWORD PTR __real@3fb999999999999a
  00019	f2 0f 5a c0	 cvtsd2ss xmm0, xmm0
  0001d	f3 0f 11 05 00
	00 00 00	 movss	 DWORD PTR ?global_hud_size2@@3MA, xmm0

; 1018 : 	if (global_hud_size2 > 1.41)

  00025	f3 0f 5a 05 00
	00 00 00	 cvtss2sd xmm0, DWORD PTR ?global_hud_size2@@3MA
  0002d	66 0f 2f 05 00
	00 00 00	 comisd	 xmm0, QWORD PTR __real@3ff68f5c28f5c28f
  00035	76 10		 jbe	 SHORT $LN2@toggle_uns

; 1019 : 		global_hud_size2 = 0.7;

  00037	f3 0f 10 05 00
	00 00 00	 movss	 xmm0, DWORD PTR __real@3f333333
  0003f	f3 0f 11 05 00
	00 00 00	 movss	 DWORD PTR ?global_hud_size2@@3MA, xmm0
$LN2@toggle_uns:

; 1020 : 
; 1021 : 	//VJ 060211 hud_code: store hud info
; 1022 : 	hud_code[(int)get_global_gunship_type ()][2] = (int)(global_hud_size2*10)+1;

  00047	f3 0f 10 05 00
	00 00 00	 movss	 xmm0, DWORD PTR ?global_hud_size2@@3MA
  0004f	f3 0f 59 05 00
	00 00 00	 mulss	 xmm0, DWORD PTR __real@41200000
  00057	f3 0f 2c c0	 cvttss2si eax, xmm0
  0005b	83 c0 01	 add	 eax, 1
  0005e	8b 0d 0c 00 00
	00		 mov	 ecx, DWORD PTR ?global_options@@3UGLOBAL_OPTIONS_DATA@@A+12
  00064	c1 e1 04	 shl	 ecx, 4
  00067	ba 04 00 00 00	 mov	 edx, 4
  0006c	d1 e2		 shl	 edx, 1
  0006e	89 84 11 00 00
	00 00		 mov	 DWORD PTR ?hud_code@@3PAY03HA[ecx+edx], eax

; 1023 : 
; 1024 : 	set_global_unscaled_displays (global_hud_size2 <= 1.0 ? TRUE : FALSE);

  00075	f3 0f 5a 05 00
	00 00 00	 cvtss2sd xmm0, DWORD PTR ?global_hud_size2@@3MA
  0007d	f2 0f 10 0d 00
	00 00 00	 movsd	 xmm1, QWORD PTR __real@3ff0000000000000
  00085	66 0f 2f c8	 comisd	 xmm1, xmm0
  00089	72 09		 jb	 SHORT $LN4@toggle_uns
  0008b	c7 45 bc 01 00
	00 00		 mov	 DWORD PTR tv79[ebp], 1
  00092	eb 07		 jmp	 SHORT $LN5@toggle_uns
$LN4@toggle_uns:
  00094	c7 45 bc 00 00
	00 00		 mov	 DWORD PTR tv79[ebp], 0
$LN5@toggle_uns:
  0009b	8b 45 bc	 mov	 eax, DWORD PTR tv79[ebp]
  0009e	a3 74 03 00 00	 mov	 DWORD PTR ?global_options@@3UGLOBAL_OPTIONS_DATA@@A+884, eax

; 1025 : }

  000a3	5f		 pop	 edi
  000a4	5e		 pop	 esi
  000a5	5b		 pop	 ebx
  000a6	8b e5		 mov	 esp, ebp
  000a8	5d		 pop	 ebp
  000a9	c2 04 00	 ret	 4
?toggle_unscaled_displays_event@@YGXPAUEVENT@@@Z ENDP	; toggle_unscaled_displays_event
_TEXT	ENDS
; Function compile flags: /Odtp /ZI
; File c:\users\nhv90\projects\eech\aphavoc\source\gunships\views\vm_event.c
;	COMDAT ?toggle_display_hud_on_external_view_event@@YGXPAUEVENT@@@Z
_TEXT	SEGMENT
_ev$ = 8						; size = 4
?toggle_display_hud_on_external_view_event@@YGXPAUEVENT@@@Z PROC ; toggle_display_hud_on_external_view_event, COMDAT

; 1005 : {

  00000	55		 push	 ebp
  00001	8b ec		 mov	 ebp, esp
  00003	83 ec 40	 sub	 esp, 64			; 00000040H
  00006	53		 push	 ebx
  00007	56		 push	 esi
  00008	57		 push	 edi

; 1006 : 	set_global_display_hud_on_external_view (get_global_display_hud_on_external_view () ^ 1);

  00009	a1 b4 01 00 00	 mov	 eax, DWORD PTR ?global_options@@3UGLOBAL_OPTIONS_DATA@@A+436
  0000e	83 f0 01	 xor	 eax, 1
  00011	a3 b4 01 00 00	 mov	 DWORD PTR ?global_options@@3UGLOBAL_OPTIONS_DATA@@A+436, eax

; 1007 : }

  00016	5f		 pop	 edi
  00017	5e		 pop	 esi
  00018	5b		 pop	 ebx
  00019	8b e5		 mov	 esp, ebp
  0001b	5d		 pop	 ebp
  0001c	c2 04 00	 ret	 4
?toggle_display_hud_on_external_view_event@@YGXPAUEVENT@@@Z ENDP ; toggle_display_hud_on_external_view_event
_TEXT	ENDS
; Function compile flags: /Odtp /ZI
; File c:\users\nhv90\projects\eech\aphavoc\source\gunships\views\vm_event.c
;	COMDAT ?toggle_glass_cockpit_event@@YGXPAUEVENT@@@Z
_TEXT	SEGMENT
_ev$ = 8						; size = 4
?toggle_glass_cockpit_event@@YGXPAUEVENT@@@Z PROC	; toggle_glass_cockpit_event, COMDAT

; 989  : {

  00000	55		 push	 ebp
  00001	8b ec		 mov	 ebp, esp
  00003	83 ec 40	 sub	 esp, 64			; 00000040H
  00006	53		 push	 ebx
  00007	56		 push	 esi
  00008	57		 push	 edi

; 990  : 	if (get_global_draw_cockpit_graphics ())

  00009	83 3d b8 01 00
	00 00		 cmp	 DWORD PTR ?global_options@@3UGLOBAL_OPTIONS_DATA@@A+440, 0
  00010	74 0f		 je	 SHORT $LN2@toggle_gla

; 991  : 	{
; 992  : 		set_global_glass_cockpit (get_global_glass_cockpit () ^ 1);

  00012	a1 68 03 00 00	 mov	 eax, DWORD PTR ?global_options@@3UGLOBAL_OPTIONS_DATA@@A+872
  00017	83 f0 01	 xor	 eax, 1
  0001a	a3 68 03 00 00	 mov	 DWORD PTR ?global_options@@3UGLOBAL_OPTIONS_DATA@@A+872, eax

; 993  : 	}
; 994  : 	else

  0001f	eb 0d		 jmp	 SHORT $LN1@toggle_gla
$LN2@toggle_gla:

; 995  : 	{
; 996  : 		set_global_draw_overlaid_instruments (get_global_draw_overlaid_instruments () ^ 1);

  00021	a1 bc 01 00 00	 mov	 eax, DWORD PTR ?global_options@@3UGLOBAL_OPTIONS_DATA@@A+444
  00026	83 f0 01	 xor	 eax, 1
  00029	a3 bc 01 00 00	 mov	 DWORD PTR ?global_options@@3UGLOBAL_OPTIONS_DATA@@A+444, eax
$LN1@toggle_gla:

; 997  : 	}
; 998  : }

  0002e	5f		 pop	 edi
  0002f	5e		 pop	 esi
  00030	5b		 pop	 ebx
  00031	8b e5		 mov	 esp, ebp
  00033	5d		 pop	 ebp
  00034	c2 04 00	 ret	 4
?toggle_glass_cockpit_event@@YGXPAUEVENT@@@Z ENDP	; toggle_glass_cockpit_event
_TEXT	ENDS
; Function compile flags: /Odtp /ZI
; File c:\users\nhv90\projects\eech\aphavoc\source\gunships\views\vm_event.c
;	COMDAT ?toggle_draw_overlaid_instruments_event@@YGXPAUEVENT@@@Z
_TEXT	SEGMENT
_ev$ = 8						; size = 4
?toggle_draw_overlaid_instruments_event@@YGXPAUEVENT@@@Z PROC ; toggle_draw_overlaid_instruments_event, COMDAT

; 980  : {

  00000	55		 push	 ebp
  00001	8b ec		 mov	 ebp, esp
  00003	83 ec 40	 sub	 esp, 64			; 00000040H
  00006	53		 push	 ebx
  00007	56		 push	 esi
  00008	57		 push	 edi

; 981  : 	set_global_draw_overlaid_instruments (get_global_draw_overlaid_instruments () ^ 1);

  00009	a1 bc 01 00 00	 mov	 eax, DWORD PTR ?global_options@@3UGLOBAL_OPTIONS_DATA@@A+444
  0000e	83 f0 01	 xor	 eax, 1
  00011	a3 bc 01 00 00	 mov	 DWORD PTR ?global_options@@3UGLOBAL_OPTIONS_DATA@@A+444, eax

; 982  : }

  00016	5f		 pop	 edi
  00017	5e		 pop	 esi
  00018	5b		 pop	 ebx
  00019	8b e5		 mov	 esp, ebp
  0001b	5d		 pop	 ebp
  0001c	c2 04 00	 ret	 4
?toggle_draw_overlaid_instruments_event@@YGXPAUEVENT@@@Z ENDP ; toggle_draw_overlaid_instruments_event
_TEXT	ENDS
; Function compile flags: /Odtp /ZI
; File c:\users\nhv90\projects\eech\aphavoc\source\gunships\views\vm_event.c
;	COMDAT ?toggle_draw_cockpit_graphics_event@@YGXPAUEVENT@@@Z
_TEXT	SEGMENT
_ev$ = 8						; size = 4
?toggle_draw_cockpit_graphics_event@@YGXPAUEVENT@@@Z PROC ; toggle_draw_cockpit_graphics_event, COMDAT

; 971  : {

  00000	55		 push	 ebp
  00001	8b ec		 mov	 ebp, esp
  00003	83 ec 40	 sub	 esp, 64			; 00000040H
  00006	53		 push	 ebx
  00007	56		 push	 esi
  00008	57		 push	 edi

; 972  : 	set_global_draw_cockpit_graphics (get_global_draw_cockpit_graphics () ^ 1);

  00009	a1 b8 01 00 00	 mov	 eax, DWORD PTR ?global_options@@3UGLOBAL_OPTIONS_DATA@@A+440
  0000e	83 f0 01	 xor	 eax, 1
  00011	a3 b8 01 00 00	 mov	 DWORD PTR ?global_options@@3UGLOBAL_OPTIONS_DATA@@A+440, eax

; 973  : }

  00016	5f		 pop	 edi
  00017	5e		 pop	 esi
  00018	5b		 pop	 ebx
  00019	8b e5		 mov	 esp, ebp
  0001b	5d		 pop	 ebp
  0001c	c2 04 00	 ret	 4
?toggle_draw_cockpit_graphics_event@@YGXPAUEVENT@@@Z ENDP ; toggle_draw_cockpit_graphics_event
_TEXT	ENDS
; Function compile flags: /Odtp /ZI
; File c:\users\nhv90\projects\eech\aphavoc\source\gunships\views\vm_event.c
;	COMDAT ?switch_seat_position_event@@YGXPAUEVENT@@@Z
_TEXT	SEGMENT
_ev$ = 8						; size = 4
?switch_seat_position_event@@YGXPAUEVENT@@@Z PROC	; switch_seat_position_event, COMDAT

; 940  : {

  00000	55		 push	 ebp
  00001	8b ec		 mov	 ebp, esp
  00003	83 ec 40	 sub	 esp, 64			; 00000040H
  00006	53		 push	 ebx
  00007	56		 push	 esi
  00008	57		 push	 edi

; 941  : 	switch_seat_position ();

  00009	e8 00 00 00 00	 call	 ?switch_seat_position@@YGXXZ ; switch_seat_position

; 942  : }

  0000e	5f		 pop	 edi
  0000f	5e		 pop	 esi
  00010	5b		 pop	 ebx
  00011	8b e5		 mov	 esp, ebp
  00013	5d		 pop	 ebp
  00014	c2 04 00	 ret	 4
?switch_seat_position_event@@YGXPAUEVENT@@@Z ENDP	; switch_seat_position_event
_TEXT	ENDS
; Function compile flags: /Odtp /ZI
; File c:\users\nhv90\projects\eech\aphavoc\source\gunships\views\vm_event.c
;	COMDAT ?hud_view_event@@YGXPAUEVENT@@@Z
_TEXT	SEGMENT
_ev$ = 8						; size = 4
?hud_view_event@@YGXPAUEVENT@@@Z PROC			; hud_view_event, COMDAT

; 909  : {

  00000	55		 push	 ebp
  00001	8b ec		 mov	 ebp, esp
  00003	83 ec 40	 sub	 esp, 64			; 00000040H
  00006	53		 push	 ebx
  00007	56		 push	 esi
  00008	57		 push	 edi

; 910  : 	if (get_global_gunship_type () == GUNSHIP_TYPE_HOKUM)

  00009	83 3d 0c 00 00
	00 03		 cmp	 DWORD PTR ?global_options@@3UGLOBAL_OPTIONS_DATA@@A+12, 3
  00010	75 39		 jne	 SHORT $LN1@hud_view_e

; 911  : 	{
; 912  : 		if (get_crew_role () == CREW_ROLE_PILOT)

  00012	e8 00 00 00 00	 call	 ?get_crew_role@@YG?AW4CREW_ROLES@@XZ ; get_crew_role
  00017	85 c0		 test	 eax, eax
  00019	75 1b		 jne	 SHORT $LN3@hud_view_e

; 913  : 		{
; 914  : 			if (view_mode != VIEW_MODE_VIRTUAL_COCKPIT_HUD)

  0001b	83 3d 00 00 00
	00 24		 cmp	 DWORD PTR ?view_mode@@3W4VIEW_MODES@@A, 36 ; view_mode, 00000024H
  00022	74 09		 je	 SHORT $LN5@hud_view_e

; 915  : 			{
; 916  : 				set_view_mode (VIEW_MODE_VIRTUAL_COCKPIT_HUD);

  00024	6a 24		 push	 36			; 00000024H
  00026	e8 00 00 00 00	 call	 ?set_view_mode@@YGHW4VIEW_MODES@@@Z ; set_view_mode

; 917  : 			}
; 918  : 			else

  0002b	eb 07		 jmp	 SHORT $LN6@hud_view_e
$LN5@hud_view_e:

; 919  : 			{
; 920  : 				set_view_mode (VIEW_MODE_COCKPIT_PANEL_LEVEL_AHEAD);

  0002d	6a 11		 push	 17			; 00000011H
  0002f	e8 00 00 00 00	 call	 ?set_view_mode@@YGHW4VIEW_MODES@@@Z ; set_view_mode
$LN6@hud_view_e:

; 921  : 			}
; 922  : 		}
; 923  : 		else

  00034	eb 15		 jmp	 SHORT $LN1@hud_view_e
$LN3@hud_view_e:

; 924  : 		{
; 925  : 			set_pilot_seat_position ();

  00036	e8 00 00 00 00	 call	 ?set_pilot_seat_position@@YGXXZ ; set_pilot_seat_position

; 926  : 
; 927  : 			if (get_crew_role () == CREW_ROLE_PILOT)

  0003b	e8 00 00 00 00	 call	 ?get_crew_role@@YG?AW4CREW_ROLES@@XZ ; get_crew_role
  00040	85 c0		 test	 eax, eax
  00042	75 07		 jne	 SHORT $LN1@hud_view_e

; 928  : 			{
; 929  : 				set_view_mode (VIEW_MODE_VIRTUAL_COCKPIT_HUD);

  00044	6a 24		 push	 36			; 00000024H
  00046	e8 00 00 00 00	 call	 ?set_view_mode@@YGHW4VIEW_MODES@@@Z ; set_view_mode
$LN1@hud_view_e:

; 930  : 			}
; 931  : 		}
; 932  : 	}
; 933  : }

  0004b	5f		 pop	 edi
  0004c	5e		 pop	 esi
  0004d	5b		 pop	 ebx
  0004e	8b e5		 mov	 esp, ebp
  00050	5d		 pop	 ebp
  00051	c2 04 00	 ret	 4
?hud_view_event@@YGXPAUEVENT@@@Z ENDP			; hud_view_event
_TEXT	ENDS
; Function compile flags: /Odtp /ZI
; File c:\users\nhv90\projects\eech\aphavoc\source\gunships\views\vm_event.c
;	COMDAT ?look_at_special2_event@@YGXPAUEVENT@@@Z
_TEXT	SEGMENT
_ev$ = 8						; size = 4
?look_at_special2_event@@YGXPAUEVENT@@@Z PROC		; look_at_special2_event, COMDAT

; 900  : {

  00000	55		 push	 ebp
  00001	8b ec		 mov	 ebp, esp
  00003	83 ec 40	 sub	 esp, 64			; 00000040H
  00006	53		 push	 ebx
  00007	56		 push	 esi
  00008	57		 push	 edi

; 901  : 	set_special2_view_mode ();

  00009	e8 00 00 00 00	 call	 ?set_special2_view_mode@@YGXXZ ; set_special2_view_mode

; 902  : }

  0000e	5f		 pop	 edi
  0000f	5e		 pop	 esi
  00010	5b		 pop	 ebx
  00011	8b e5		 mov	 esp, ebp
  00013	5d		 pop	 ebp
  00014	c2 04 00	 ret	 4
?look_at_special2_event@@YGXPAUEVENT@@@Z ENDP		; look_at_special2_event
_TEXT	ENDS
; Function compile flags: /Odtp /ZI
; File c:\users\nhv90\projects\eech\aphavoc\source\gunships\views\vm_event.c
;	COMDAT ?look_at_special1_event@@YGXPAUEVENT@@@Z
_TEXT	SEGMENT
_ev$ = 8						; size = 4
?look_at_special1_event@@YGXPAUEVENT@@@Z PROC		; look_at_special1_event, COMDAT

; 891  : {

  00000	55		 push	 ebp
  00001	8b ec		 mov	 ebp, esp
  00003	83 ec 40	 sub	 esp, 64			; 00000040H
  00006	53		 push	 ebx
  00007	56		 push	 esi
  00008	57		 push	 edi

; 892  : 	set_special1_view_mode ();

  00009	e8 00 00 00 00	 call	 ?set_special1_view_mode@@YGXXZ ; set_special1_view_mode

; 893  : }

  0000e	5f		 pop	 edi
  0000f	5e		 pop	 esi
  00010	5b		 pop	 ebx
  00011	8b e5		 mov	 esp, ebp
  00013	5d		 pop	 ebp
  00014	c2 04 00	 ret	 4
?look_at_special1_event@@YGXPAUEVENT@@@Z ENDP		; look_at_special1_event
_TEXT	ENDS
; Function compile flags: /Odtp /ZI
; File c:\users\nhv90\projects\eech\aphavoc\source\gunships\views\vm_event.c
;	COMDAT ?instrument_view_event@@YGXPAUEVENT@@@Z
_TEXT	SEGMENT
_ev$ = 8						; size = 4
?instrument_view_event@@YGXPAUEVENT@@@Z PROC		; instrument_view_event, COMDAT

; 882  : {

  00000	55		 push	 ebp
  00001	8b ec		 mov	 ebp, esp
  00003	83 ec 40	 sub	 esp, 64			; 00000040H
  00006	53		 push	 ebx
  00007	56		 push	 esi
  00008	57		 push	 edi

; 883  : 	set_view_mode (VIEW_MODE_COCKPIT_PANEL_DOWN20_AHEAD);

  00009	6a 18		 push	 24			; 00000018H
  0000b	e8 00 00 00 00	 call	 ?set_view_mode@@YGHW4VIEW_MODES@@@Z ; set_view_mode

; 884  : }

  00010	5f		 pop	 edi
  00011	5e		 pop	 esi
  00012	5b		 pop	 ebx
  00013	8b e5		 mov	 esp, ebp
  00015	5d		 pop	 ebp
  00016	c2 04 00	 ret	 4
?instrument_view_event@@YGXPAUEVENT@@@Z ENDP		; instrument_view_event
_TEXT	ENDS
; Function compile flags: /Odtp /ZI
; File c:\users\nhv90\projects\eech\aphavoc\source\gunships\views\vm_event.c
;	COMDAT ?forward_view_event@@YGXPAUEVENT@@@Z
_TEXT	SEGMENT
_ev$ = 8						; size = 4
?forward_view_event@@YGXPAUEVENT@@@Z PROC		; forward_view_event, COMDAT

; 873  : {

  00000	55		 push	 ebp
  00001	8b ec		 mov	 ebp, esp
  00003	83 ec 40	 sub	 esp, 64			; 00000040H
  00006	53		 push	 ebx
  00007	56		 push	 esi
  00008	57		 push	 edi

; 874  : 	set_view_mode (VIEW_MODE_COCKPIT_PANEL_LEVEL_AHEAD);

  00009	6a 11		 push	 17			; 00000011H
  0000b	e8 00 00 00 00	 call	 ?set_view_mode@@YGHW4VIEW_MODES@@@Z ; set_view_mode

; 875  : }

  00010	5f		 pop	 edi
  00011	5e		 pop	 esi
  00012	5b		 pop	 ebx
  00013	8b e5		 mov	 esp, ebp
  00015	5d		 pop	 ebp
  00016	c2 04 00	 ret	 4
?forward_view_event@@YGXPAUEVENT@@@Z ENDP		; forward_view_event
_TEXT	ENDS
; Function compile flags: /Odtp /ZI
; File c:\users\nhv90\projects\eech\aphavoc\source\gunships\views\vm_event.c
;	COMDAT ?adjust_view_zoom_out_event@@YGXPAUEVENT@@@Z
_TEXT	SEGMENT
_ev$ = 8						; size = 4
?adjust_view_zoom_out_event@@YGXPAUEVENT@@@Z PROC	; adjust_view_zoom_out_event, COMDAT

; 851  : {

  00000	55		 push	 ebp
  00001	8b ec		 mov	 ebp, esp
  00003	83 ec 40	 sub	 esp, 64			; 00000040H
  00006	53		 push	 ebx
  00007	56		 push	 esi
  00008	57		 push	 edi

; 852  : 	if (ev->state == KEY_STATE_DOWN)

  00009	8b 45 08	 mov	 eax, DWORD PTR _ev$[ebp]
  0000c	0f b7 48 08	 movzx	 ecx, WORD PTR [eax+8]
  00010	83 f9 02	 cmp	 ecx, 2
  00013	75 0c		 jne	 SHORT $LN2@adjust_vie

; 853  : 	{
; 854  : 		adjust_view_zoom_out_key = TRUE;

  00015	c7 05 00 00 00
	00 01 00 00 00	 mov	 DWORD PTR ?adjust_view_zoom_out_key@@3HA, 1 ; adjust_view_zoom_out_key

; 855  : 	}
; 856  : 	else

  0001f	eb 0a		 jmp	 SHORT $LN1@adjust_vie
$LN2@adjust_vie:

; 857  : 	{
; 858  : 		adjust_view_zoom_out_key = FALSE;

  00021	c7 05 00 00 00
	00 00 00 00 00	 mov	 DWORD PTR ?adjust_view_zoom_out_key@@3HA, 0 ; adjust_view_zoom_out_key
$LN1@adjust_vie:

; 859  : 	}
; 860  : }

  0002b	5f		 pop	 edi
  0002c	5e		 pop	 esi
  0002d	5b		 pop	 ebx
  0002e	8b e5		 mov	 esp, ebp
  00030	5d		 pop	 ebp
  00031	c2 04 00	 ret	 4
?adjust_view_zoom_out_event@@YGXPAUEVENT@@@Z ENDP	; adjust_view_zoom_out_event
_TEXT	ENDS
; Function compile flags: /Odtp /ZI
; File c:\users\nhv90\projects\eech\aphavoc\source\gunships\views\vm_event.c
;	COMDAT ?adjust_view_zoom_in_event@@YGXPAUEVENT@@@Z
_TEXT	SEGMENT
_ev$ = 8						; size = 4
?adjust_view_zoom_in_event@@YGXPAUEVENT@@@Z PROC	; adjust_view_zoom_in_event, COMDAT

; 835  : {

  00000	55		 push	 ebp
  00001	8b ec		 mov	 ebp, esp
  00003	83 ec 40	 sub	 esp, 64			; 00000040H
  00006	53		 push	 ebx
  00007	56		 push	 esi
  00008	57		 push	 edi

; 836  : 	if (ev->state == KEY_STATE_DOWN)

  00009	8b 45 08	 mov	 eax, DWORD PTR _ev$[ebp]
  0000c	0f b7 48 08	 movzx	 ecx, WORD PTR [eax+8]
  00010	83 f9 02	 cmp	 ecx, 2
  00013	75 0c		 jne	 SHORT $LN2@adjust_vie

; 837  : 	{
; 838  : 		adjust_view_zoom_in_key = TRUE;

  00015	c7 05 00 00 00
	00 01 00 00 00	 mov	 DWORD PTR ?adjust_view_zoom_in_key@@3HA, 1 ; adjust_view_zoom_in_key

; 839  : 	}
; 840  : 	else

  0001f	eb 0a		 jmp	 SHORT $LN1@adjust_vie
$LN2@adjust_vie:

; 841  : 	{
; 842  : 		adjust_view_zoom_in_key = FALSE;

  00021	c7 05 00 00 00
	00 00 00 00 00	 mov	 DWORD PTR ?adjust_view_zoom_in_key@@3HA, 0 ; adjust_view_zoom_in_key
$LN1@adjust_vie:

; 843  : 	}
; 844  : }

  0002b	5f		 pop	 edi
  0002c	5e		 pop	 esi
  0002d	5b		 pop	 ebx
  0002e	8b e5		 mov	 esp, ebp
  00030	5d		 pop	 ebp
  00031	c2 04 00	 ret	 4
?adjust_view_zoom_in_event@@YGXPAUEVENT@@@Z ENDP	; adjust_view_zoom_in_event
_TEXT	ENDS
; Function compile flags: /Odtp /ZI
; File c:\users\nhv90\projects\eech\aphavoc\source\gunships\views\vm_event.c
;	COMDAT ?release_virtual_cockpit_event@@YGXPAUEVENT@@@Z
_TEXT	SEGMENT
_ev$ = 8						; size = 4
?release_virtual_cockpit_event@@YGXPAUEVENT@@@Z PROC	; release_virtual_cockpit_event, COMDAT

; 814  : {

  00000	55		 push	 ebp
  00001	8b ec		 mov	 ebp, esp
  00003	83 ec 40	 sub	 esp, 64			; 00000040H
  00006	53		 push	 ebx
  00007	56		 push	 esi
  00008	57		 push	 edi

; 815  : 	if (view_mode == VIEW_MODE_VIRTUAL_COCKPIT)

  00009	83 3d 00 00 00
	00 20		 cmp	 DWORD PTR ?view_mode@@3W4VIEW_MODES@@A, 32 ; view_mode, 00000020H
  00010	75 52		 jne	 SHORT $LN3@release_vi

; 816  : 	{
; 817  : 		if (get_apache_havoc_gunship_fixed_cockpit ())

  00012	a1 0c 00 00 00	 mov	 eax, DWORD PTR ?global_options@@3UGLOBAL_OPTIONS_DATA@@A+12
  00017	0f b6 88 00 00
	00 00		 movzx	 ecx, BYTE PTR ?new_gunship@@3QBDB[eax]
  0001e	85 c9		 test	 ecx, ecx
  00020	75 42		 jne	 SHORT $LN3@release_vi
  00022	83 3d 00 00 00
	00 00		 cmp	 DWORD PTR ?full_screen_hi_res@@3HA, 0 ; full_screen_hi_res
  00029	75 39		 jne	 SHORT $LN3@release_vi
  0002b	83 3d 00 00 00
	00 10		 cmp	 DWORD PTR ?application_video_colourdepth@@3HA, 16 ; application_video_colourdepth, 00000010H
  00032	75 30		 jne	 SHORT $LN3@release_vi
  00034	83 3d 00 00 00
	00 00		 cmp	 DWORD PTR ?global_aphavoc_maps@@3HA, 0 ; global_aphavoc_maps
  0003b	74 27		 je	 SHORT $LN3@release_vi

; 818  : 		{
; 819  : 			set_view_mode (get_nearest_fixed_cockpit_view (pilot_head_heading, pilot_head_pitch));

  0003d	51		 push	 ecx
  0003e	f3 0f 10 05 00
	00 00 00	 movss	 xmm0, DWORD PTR ?pilot_head_pitch@@3MA
  00046	f3 0f 11 04 24	 movss	 DWORD PTR [esp], xmm0
  0004b	51		 push	 ecx
  0004c	f3 0f 10 05 00
	00 00 00	 movss	 xmm0, DWORD PTR ?pilot_head_heading@@3MA
  00054	f3 0f 11 04 24	 movss	 DWORD PTR [esp], xmm0
  00059	e8 00 00 00 00	 call	 ?get_nearest_fixed_cockpit_view@@YG?AW4VIEW_MODES@@MM@Z ; get_nearest_fixed_cockpit_view
  0005e	50		 push	 eax
  0005f	e8 00 00 00 00	 call	 ?set_view_mode@@YGHW4VIEW_MODES@@@Z ; set_view_mode
$LN3@release_vi:

; 820  : 		}
; 821  : 	}
; 822  : }

  00064	5f		 pop	 edi
  00065	5e		 pop	 esi
  00066	5b		 pop	 ebx
  00067	8b e5		 mov	 esp, ebp
  00069	5d		 pop	 ebp
  0006a	c2 04 00	 ret	 4
?release_virtual_cockpit_event@@YGXPAUEVENT@@@Z ENDP	; release_virtual_cockpit_event
_TEXT	ENDS
; Function compile flags: /Odtp /ZI
; File c:\users\nhv90\projects\eech\aphavoc\source\gunships\views\vm_event.c
;	COMDAT ?move_view_position_backward_event@@YGXPAUEVENT@@@Z
_TEXT	SEGMENT
_ev$ = 8						; size = 4
?move_view_position_backward_event@@YGXPAUEVENT@@@Z PROC ; move_view_position_backward_event, COMDAT

; 800  : {

  00000	55		 push	 ebp
  00001	8b ec		 mov	 ebp, esp
  00003	83 ec 40	 sub	 esp, 64			; 00000040H
  00006	53		 push	 ebx
  00007	56		 push	 esi
  00008	57		 push	 edi

; 801  : 	if (ev->state == KEY_STATE_DOWN)

  00009	8b 45 08	 mov	 eax, DWORD PTR _ev$[ebp]
  0000c	0f b7 48 08	 movzx	 ecx, WORD PTR [eax+8]
  00010	83 f9 02	 cmp	 ecx, 2
  00013	75 24		 jne	 SHORT $LN2@move_view_

; 802  : 		if (ev->modifier == MODIFIER_LEFT_SHIFT)

  00015	8b 45 08	 mov	 eax, DWORD PTR _ev$[ebp]
  00018	0f b6 48 04	 movzx	 ecx, BYTE PTR [eax+4]
  0001c	83 f9 01	 cmp	 ecx, 1
  0001f	75 0c		 jne	 SHORT $LN4@move_view_

; 803  : 			move_view_backward_key = 3;

  00021	c7 05 00 00 00
	00 03 00 00 00	 mov	 DWORD PTR ?move_view_backward_key@@3HA, 3 ; move_view_backward_key

; 804  : 		else

  0002b	eb 0a		 jmp	 SHORT $LN5@move_view_
$LN4@move_view_:

; 805  : 			move_view_backward_key = 1;

  0002d	c7 05 00 00 00
	00 01 00 00 00	 mov	 DWORD PTR ?move_view_backward_key@@3HA, 1 ; move_view_backward_key
$LN5@move_view_:

; 806  : 	else

  00037	eb 0a		 jmp	 SHORT $LN1@move_view_
$LN2@move_view_:

; 807  : 		move_view_backward_key = 0;

  00039	c7 05 00 00 00
	00 00 00 00 00	 mov	 DWORD PTR ?move_view_backward_key@@3HA, 0 ; move_view_backward_key
$LN1@move_view_:

; 808  : }

  00043	5f		 pop	 edi
  00044	5e		 pop	 esi
  00045	5b		 pop	 ebx
  00046	8b e5		 mov	 esp, ebp
  00048	5d		 pop	 ebp
  00049	c2 04 00	 ret	 4
?move_view_position_backward_event@@YGXPAUEVENT@@@Z ENDP ; move_view_position_backward_event
_TEXT	ENDS
; Function compile flags: /Odtp /ZI
; File c:\users\nhv90\projects\eech\aphavoc\source\gunships\views\vm_event.c
;	COMDAT ?move_view_position_forward_event@@YGXPAUEVENT@@@Z
_TEXT	SEGMENT
_ev$ = 8						; size = 4
?move_view_position_forward_event@@YGXPAUEVENT@@@Z PROC	; move_view_position_forward_event, COMDAT

; 789  : {

  00000	55		 push	 ebp
  00001	8b ec		 mov	 ebp, esp
  00003	83 ec 40	 sub	 esp, 64			; 00000040H
  00006	53		 push	 ebx
  00007	56		 push	 esi
  00008	57		 push	 edi

; 790  : 	if (ev->state == KEY_STATE_DOWN)

  00009	8b 45 08	 mov	 eax, DWORD PTR _ev$[ebp]
  0000c	0f b7 48 08	 movzx	 ecx, WORD PTR [eax+8]
  00010	83 f9 02	 cmp	 ecx, 2
  00013	75 24		 jne	 SHORT $LN2@move_view_

; 791  : 		if (ev->modifier == MODIFIER_LEFT_SHIFT)

  00015	8b 45 08	 mov	 eax, DWORD PTR _ev$[ebp]
  00018	0f b6 48 04	 movzx	 ecx, BYTE PTR [eax+4]
  0001c	83 f9 01	 cmp	 ecx, 1
  0001f	75 0c		 jne	 SHORT $LN4@move_view_

; 792  : 			move_view_forward_key = 3;

  00021	c7 05 00 00 00
	00 03 00 00 00	 mov	 DWORD PTR ?move_view_forward_key@@3HA, 3 ; move_view_forward_key

; 793  : 		else

  0002b	eb 0a		 jmp	 SHORT $LN5@move_view_
$LN4@move_view_:

; 794  : 			move_view_forward_key = 1;

  0002d	c7 05 00 00 00
	00 01 00 00 00	 mov	 DWORD PTR ?move_view_forward_key@@3HA, 1 ; move_view_forward_key
$LN5@move_view_:

; 795  : 	else

  00037	eb 0a		 jmp	 SHORT $LN1@move_view_
$LN2@move_view_:

; 796  : 		move_view_forward_key = 0;

  00039	c7 05 00 00 00
	00 00 00 00 00	 mov	 DWORD PTR ?move_view_forward_key@@3HA, 0 ; move_view_forward_key
$LN1@move_view_:

; 797  : }

  00043	5f		 pop	 edi
  00044	5e		 pop	 esi
  00045	5b		 pop	 ebx
  00046	8b e5		 mov	 esp, ebp
  00048	5d		 pop	 ebp
  00049	c2 04 00	 ret	 4
?move_view_position_forward_event@@YGXPAUEVENT@@@Z ENDP	; move_view_position_forward_event
_TEXT	ENDS
; Function compile flags: /Odtp /ZI
; File c:\users\nhv90\projects\eech\aphavoc\source\gunships\views\vm_event.c
;	COMDAT ?move_view_position_right_event@@YGXPAUEVENT@@@Z
_TEXT	SEGMENT
tv67 = -68						; size = 4
_ev$ = 8						; size = 4
?move_view_position_right_event@@YGXPAUEVENT@@@Z PROC	; move_view_position_right_event, COMDAT

; 784  : {

  00000	55		 push	 ebp
  00001	8b ec		 mov	 ebp, esp
  00003	83 ec 44	 sub	 esp, 68			; 00000044H
  00006	53		 push	 ebx
  00007	56		 push	 esi
  00008	57		 push	 edi

; 785  : 	move_view_right_key = (ev->state == KEY_STATE_DOWN);

  00009	8b 45 08	 mov	 eax, DWORD PTR _ev$[ebp]
  0000c	0f b7 48 08	 movzx	 ecx, WORD PTR [eax+8]
  00010	83 f9 02	 cmp	 ecx, 2
  00013	75 09		 jne	 SHORT $LN3@move_view_
  00015	c7 45 bc 01 00
	00 00		 mov	 DWORD PTR tv67[ebp], 1
  0001c	eb 07		 jmp	 SHORT $LN4@move_view_
$LN3@move_view_:
  0001e	c7 45 bc 00 00
	00 00		 mov	 DWORD PTR tv67[ebp], 0
$LN4@move_view_:
  00025	8b 55 bc	 mov	 edx, DWORD PTR tv67[ebp]
  00028	89 15 00 00 00
	00		 mov	 DWORD PTR ?move_view_right_key@@3HA, edx ; move_view_right_key

; 786  : }

  0002e	5f		 pop	 edi
  0002f	5e		 pop	 esi
  00030	5b		 pop	 ebx
  00031	8b e5		 mov	 esp, ebp
  00033	5d		 pop	 ebp
  00034	c2 04 00	 ret	 4
?move_view_position_right_event@@YGXPAUEVENT@@@Z ENDP	; move_view_position_right_event
_TEXT	ENDS
; Function compile flags: /Odtp /ZI
; File c:\users\nhv90\projects\eech\aphavoc\source\gunships\views\vm_event.c
;	COMDAT ?move_view_position_left_event@@YGXPAUEVENT@@@Z
_TEXT	SEGMENT
tv67 = -68						; size = 4
_ev$ = 8						; size = 4
?move_view_position_left_event@@YGXPAUEVENT@@@Z PROC	; move_view_position_left_event, COMDAT

; 779  : {

  00000	55		 push	 ebp
  00001	8b ec		 mov	 ebp, esp
  00003	83 ec 44	 sub	 esp, 68			; 00000044H
  00006	53		 push	 ebx
  00007	56		 push	 esi
  00008	57		 push	 edi

; 780  : 	move_view_left_key = (ev->state == KEY_STATE_DOWN);

  00009	8b 45 08	 mov	 eax, DWORD PTR _ev$[ebp]
  0000c	0f b7 48 08	 movzx	 ecx, WORD PTR [eax+8]
  00010	83 f9 02	 cmp	 ecx, 2
  00013	75 09		 jne	 SHORT $LN3@move_view_
  00015	c7 45 bc 01 00
	00 00		 mov	 DWORD PTR tv67[ebp], 1
  0001c	eb 07		 jmp	 SHORT $LN4@move_view_
$LN3@move_view_:
  0001e	c7 45 bc 00 00
	00 00		 mov	 DWORD PTR tv67[ebp], 0
$LN4@move_view_:
  00025	8b 55 bc	 mov	 edx, DWORD PTR tv67[ebp]
  00028	89 15 00 00 00
	00		 mov	 DWORD PTR ?move_view_left_key@@3HA, edx ; move_view_left_key

; 781  : }

  0002e	5f		 pop	 edi
  0002f	5e		 pop	 esi
  00030	5b		 pop	 ebx
  00031	8b e5		 mov	 esp, ebp
  00033	5d		 pop	 ebp
  00034	c2 04 00	 ret	 4
?move_view_position_left_event@@YGXPAUEVENT@@@Z ENDP	; move_view_position_left_event
_TEXT	ENDS
; Function compile flags: /Odtp /ZI
; File c:\users\nhv90\projects\eech\aphavoc\source\gunships\views\vm_event.c
;	COMDAT ?adjust_view_down_event@@YGXPAUEVENT@@@Z
_TEXT	SEGMENT
_ev$ = 8						; size = 4
?adjust_view_down_event@@YGXPAUEVENT@@@Z PROC		; adjust_view_down_event, COMDAT

; 758  : {

  00000	55		 push	 ebp
  00001	8b ec		 mov	 ebp, esp
  00003	83 ec 40	 sub	 esp, 64			; 00000040H
  00006	53		 push	 ebx
  00007	56		 push	 esi
  00008	57		 push	 edi

; 759  : 	if (ev->state == KEY_STATE_DOWN)

  00009	8b 45 08	 mov	 eax, DWORD PTR _ev$[ebp]
  0000c	0f b7 48 08	 movzx	 ecx, WORD PTR [eax+8]
  00010	83 f9 02	 cmp	 ecx, 2
  00013	75 1c		 jne	 SHORT $LN2@adjust_vie

; 760  : 	{
; 761  : 		if (in_cockpit)

  00015	83 3d 00 00 00
	00 00		 cmp	 DWORD PTR ?in_cockpit@@3HA, 0 ; in_cockpit
  0001c	74 07		 je	 SHORT $LN4@adjust_vie

; 762  : 		{
; 763  : 			set_view_mode (VIEW_MODE_VIRTUAL_COCKPIT);

  0001e	6a 20		 push	 32			; 00000020H
  00020	e8 00 00 00 00	 call	 ?set_view_mode@@YGHW4VIEW_MODES@@@Z ; set_view_mode
$LN4@adjust_vie:

; 764  : 		}
; 765  : 
; 766  : 		adjust_view_down_key = TRUE;

  00025	c7 05 00 00 00
	00 01 00 00 00	 mov	 DWORD PTR ?adjust_view_down_key@@3HA, 1 ; adjust_view_down_key

; 767  : 	}
; 768  : 	else

  0002f	eb 0a		 jmp	 SHORT $LN1@adjust_vie
$LN2@adjust_vie:

; 769  : 	{
; 770  : 		adjust_view_down_key = FALSE;

  00031	c7 05 00 00 00
	00 00 00 00 00	 mov	 DWORD PTR ?adjust_view_down_key@@3HA, 0 ; adjust_view_down_key
$LN1@adjust_vie:

; 771  : 	}
; 772  : }

  0003b	5f		 pop	 edi
  0003c	5e		 pop	 esi
  0003d	5b		 pop	 ebx
  0003e	8b e5		 mov	 esp, ebp
  00040	5d		 pop	 ebp
  00041	c2 04 00	 ret	 4
?adjust_view_down_event@@YGXPAUEVENT@@@Z ENDP		; adjust_view_down_event
_TEXT	ENDS
; Function compile flags: /Odtp /ZI
; File c:\users\nhv90\projects\eech\aphavoc\source\gunships\views\vm_event.c
;	COMDAT ?adjust_view_up_event@@YGXPAUEVENT@@@Z
_TEXT	SEGMENT
_ev$ = 8						; size = 4
?adjust_view_up_event@@YGXPAUEVENT@@@Z PROC		; adjust_view_up_event, COMDAT

; 737  : {

  00000	55		 push	 ebp
  00001	8b ec		 mov	 ebp, esp
  00003	83 ec 40	 sub	 esp, 64			; 00000040H
  00006	53		 push	 ebx
  00007	56		 push	 esi
  00008	57		 push	 edi

; 738  : 	if (ev->state == KEY_STATE_DOWN)

  00009	8b 45 08	 mov	 eax, DWORD PTR _ev$[ebp]
  0000c	0f b7 48 08	 movzx	 ecx, WORD PTR [eax+8]
  00010	83 f9 02	 cmp	 ecx, 2
  00013	75 1c		 jne	 SHORT $LN2@adjust_vie

; 739  : 	{
; 740  : 		if (in_cockpit)

  00015	83 3d 00 00 00
	00 00		 cmp	 DWORD PTR ?in_cockpit@@3HA, 0 ; in_cockpit
  0001c	74 07		 je	 SHORT $LN4@adjust_vie

; 741  : 		{
; 742  : 			set_view_mode (VIEW_MODE_VIRTUAL_COCKPIT);

  0001e	6a 20		 push	 32			; 00000020H
  00020	e8 00 00 00 00	 call	 ?set_view_mode@@YGHW4VIEW_MODES@@@Z ; set_view_mode
$LN4@adjust_vie:

; 743  : 		}
; 744  : 
; 745  : 		adjust_view_up_key = TRUE;

  00025	c7 05 00 00 00
	00 01 00 00 00	 mov	 DWORD PTR ?adjust_view_up_key@@3HA, 1 ; adjust_view_up_key

; 746  : 	}
; 747  : 	else

  0002f	eb 0a		 jmp	 SHORT $LN1@adjust_vie
$LN2@adjust_vie:

; 748  : 	{
; 749  : 		adjust_view_up_key = FALSE;

  00031	c7 05 00 00 00
	00 00 00 00 00	 mov	 DWORD PTR ?adjust_view_up_key@@3HA, 0 ; adjust_view_up_key
$LN1@adjust_vie:

; 750  : 	}
; 751  : }

  0003b	5f		 pop	 edi
  0003c	5e		 pop	 esi
  0003d	5b		 pop	 ebx
  0003e	8b e5		 mov	 esp, ebp
  00040	5d		 pop	 ebp
  00041	c2 04 00	 ret	 4
?adjust_view_up_event@@YGXPAUEVENT@@@Z ENDP		; adjust_view_up_event
_TEXT	ENDS
; Function compile flags: /Odtp /ZI
; File c:\users\nhv90\projects\eech\aphavoc\source\gunships\views\vm_event.c
;	COMDAT ?adjust_view_right_event@@YGXPAUEVENT@@@Z
_TEXT	SEGMENT
_ev$ = 8						; size = 4
?adjust_view_right_event@@YGXPAUEVENT@@@Z PROC		; adjust_view_right_event, COMDAT

; 716  : {

  00000	55		 push	 ebp
  00001	8b ec		 mov	 ebp, esp
  00003	83 ec 40	 sub	 esp, 64			; 00000040H
  00006	53		 push	 ebx
  00007	56		 push	 esi
  00008	57		 push	 edi

; 717  : 	if (ev->state == KEY_STATE_DOWN)

  00009	8b 45 08	 mov	 eax, DWORD PTR _ev$[ebp]
  0000c	0f b7 48 08	 movzx	 ecx, WORD PTR [eax+8]
  00010	83 f9 02	 cmp	 ecx, 2
  00013	75 1c		 jne	 SHORT $LN2@adjust_vie

; 718  : 	{
; 719  : 		if (in_cockpit)

  00015	83 3d 00 00 00
	00 00		 cmp	 DWORD PTR ?in_cockpit@@3HA, 0 ; in_cockpit
  0001c	74 07		 je	 SHORT $LN4@adjust_vie

; 720  : 		{
; 721  : 			set_view_mode (VIEW_MODE_VIRTUAL_COCKPIT);

  0001e	6a 20		 push	 32			; 00000020H
  00020	e8 00 00 00 00	 call	 ?set_view_mode@@YGHW4VIEW_MODES@@@Z ; set_view_mode
$LN4@adjust_vie:

; 722  : 		}
; 723  : 
; 724  : 		adjust_view_right_key = TRUE;

  00025	c7 05 00 00 00
	00 01 00 00 00	 mov	 DWORD PTR ?adjust_view_right_key@@3HA, 1 ; adjust_view_right_key

; 725  : 	}
; 726  : 	else

  0002f	eb 0a		 jmp	 SHORT $LN1@adjust_vie
$LN2@adjust_vie:

; 727  : 	{
; 728  : 		adjust_view_right_key = FALSE;

  00031	c7 05 00 00 00
	00 00 00 00 00	 mov	 DWORD PTR ?adjust_view_right_key@@3HA, 0 ; adjust_view_right_key
$LN1@adjust_vie:

; 729  : 	}
; 730  : }

  0003b	5f		 pop	 edi
  0003c	5e		 pop	 esi
  0003d	5b		 pop	 ebx
  0003e	8b e5		 mov	 esp, ebp
  00040	5d		 pop	 ebp
  00041	c2 04 00	 ret	 4
?adjust_view_right_event@@YGXPAUEVENT@@@Z ENDP		; adjust_view_right_event
_TEXT	ENDS
; Function compile flags: /Odtp /ZI
; File c:\users\nhv90\projects\eech\aphavoc\source\gunships\views\vm_event.c
;	COMDAT ?adjust_view_left_event@@YGXPAUEVENT@@@Z
_TEXT	SEGMENT
_ev$ = 8						; size = 4
?adjust_view_left_event@@YGXPAUEVENT@@@Z PROC		; adjust_view_left_event, COMDAT

; 695  : {

  00000	55		 push	 ebp
  00001	8b ec		 mov	 ebp, esp
  00003	83 ec 40	 sub	 esp, 64			; 00000040H
  00006	53		 push	 ebx
  00007	56		 push	 esi
  00008	57		 push	 edi

; 696  : 	if (ev->state == KEY_STATE_DOWN)

  00009	8b 45 08	 mov	 eax, DWORD PTR _ev$[ebp]
  0000c	0f b7 48 08	 movzx	 ecx, WORD PTR [eax+8]
  00010	83 f9 02	 cmp	 ecx, 2
  00013	75 1c		 jne	 SHORT $LN2@adjust_vie

; 697  : 	{
; 698  : 		if (in_cockpit)

  00015	83 3d 00 00 00
	00 00		 cmp	 DWORD PTR ?in_cockpit@@3HA, 0 ; in_cockpit
  0001c	74 07		 je	 SHORT $LN4@adjust_vie

; 699  : 		{
; 700  : 			set_view_mode (VIEW_MODE_VIRTUAL_COCKPIT);

  0001e	6a 20		 push	 32			; 00000020H
  00020	e8 00 00 00 00	 call	 ?set_view_mode@@YGHW4VIEW_MODES@@@Z ; set_view_mode
$LN4@adjust_vie:

; 701  : 		}
; 702  : 
; 703  : 		adjust_view_left_key = TRUE;

  00025	c7 05 00 00 00
	00 01 00 00 00	 mov	 DWORD PTR ?adjust_view_left_key@@3HA, 1 ; adjust_view_left_key

; 704  : 	}
; 705  : 	else

  0002f	eb 0a		 jmp	 SHORT $LN1@adjust_vie
$LN2@adjust_vie:

; 706  : 	{
; 707  : 		adjust_view_left_key = FALSE;

  00031	c7 05 00 00 00
	00 00 00 00 00	 mov	 DWORD PTR ?adjust_view_left_key@@3HA, 0 ; adjust_view_left_key
$LN1@adjust_vie:

; 708  : 	}
; 709  : }

  0003b	5f		 pop	 edi
  0003c	5e		 pop	 esi
  0003d	5b		 pop	 ebx
  0003e	8b e5		 mov	 esp, ebp
  00040	5d		 pop	 ebp
  00041	c2 04 00	 ret	 4
?adjust_view_left_event@@YGXPAUEVENT@@@Z ENDP		; adjust_view_left_event
_TEXT	ENDS
; Function compile flags: /Odtp /ZI
; File c:\users\nhv90\projects\eech\aphavoc\source\gunships\views\vm_event.c
;	COMDAT ?look_abs_down_event@@YGXPAUEVENT@@@Z
_TEXT	SEGMENT
_ev$ = 8						; size = 4
?look_abs_down_event@@YGXPAUEVENT@@@Z PROC		; look_abs_down_event, COMDAT

; 681  : {

  00000	55		 push	 ebp
  00001	8b ec		 mov	 ebp, esp
  00003	83 ec 40	 sub	 esp, 64			; 00000040H
  00006	53		 push	 ebx
  00007	56		 push	 esi
  00008	57		 push	 edi

; 682  : 	if (get_apache_havoc_gunship ())

  00009	a1 0c 00 00 00	 mov	 eax, DWORD PTR ?global_options@@3UGLOBAL_OPTIONS_DATA@@A+12
  0000e	0f b6 88 00 00
	00 00		 movzx	 ecx, BYTE PTR ?new_gunship@@3QBDB[eax]
  00015	85 c9		 test	 ecx, ecx
  00017	75 36		 jne	 SHORT $LN2@look_abs_d

; 683  : 	{
; 684  : 		set_view_mode (get_nearest_fixed_cockpit_view (pilot_head_heading, pilot_head_pitch));

  00019	51		 push	 ecx
  0001a	f3 0f 10 05 00
	00 00 00	 movss	 xmm0, DWORD PTR ?pilot_head_pitch@@3MA
  00022	f3 0f 11 04 24	 movss	 DWORD PTR [esp], xmm0
  00027	51		 push	 ecx
  00028	f3 0f 10 05 00
	00 00 00	 movss	 xmm0, DWORD PTR ?pilot_head_heading@@3MA
  00030	f3 0f 11 04 24	 movss	 DWORD PTR [esp], xmm0
  00035	e8 00 00 00 00	 call	 ?get_nearest_fixed_cockpit_view@@YG?AW4VIEW_MODES@@MM@Z ; get_nearest_fixed_cockpit_view
  0003a	50		 push	 eax
  0003b	e8 00 00 00 00	 call	 ?set_view_mode@@YGHW4VIEW_MODES@@@Z ; set_view_mode

; 685  : 
; 686  : 	   set_view_mode (get_abs_fixed_cockpit_view (DOWN, STATIC));

  00040	6a 00		 push	 0
  00042	6a 01		 push	 1
  00044	e8 00 00 00 00	 call	 ?get_abs_fixed_cockpit_view@@YG?AW4VIEW_MODES@@HH@Z ; get_abs_fixed_cockpit_view
  00049	50		 push	 eax
  0004a	e8 00 00 00 00	 call	 ?set_view_mode@@YGHW4VIEW_MODES@@@Z ; set_view_mode
$LN2@look_abs_d:

; 687  : 	}
; 688  : }

  0004f	5f		 pop	 edi
  00050	5e		 pop	 esi
  00051	5b		 pop	 ebx
  00052	8b e5		 mov	 esp, ebp
  00054	5d		 pop	 ebp
  00055	c2 04 00	 ret	 4
?look_abs_down_event@@YGXPAUEVENT@@@Z ENDP		; look_abs_down_event
_TEXT	ENDS
; Function compile flags: /Odtp /ZI
; File c:\users\nhv90\projects\eech\aphavoc\source\gunships\views\vm_event.c
;	COMDAT ?look_abs_up_event@@YGXPAUEVENT@@@Z
_TEXT	SEGMENT
_ev$ = 8						; size = 4
?look_abs_up_event@@YGXPAUEVENT@@@Z PROC		; look_abs_up_event, COMDAT

; 667  : {

  00000	55		 push	 ebp
  00001	8b ec		 mov	 ebp, esp
  00003	83 ec 40	 sub	 esp, 64			; 00000040H
  00006	53		 push	 ebx
  00007	56		 push	 esi
  00008	57		 push	 edi

; 668  : 	if (get_apache_havoc_gunship ())

  00009	a1 0c 00 00 00	 mov	 eax, DWORD PTR ?global_options@@3UGLOBAL_OPTIONS_DATA@@A+12
  0000e	0f b6 88 00 00
	00 00		 movzx	 ecx, BYTE PTR ?new_gunship@@3QBDB[eax]
  00015	85 c9		 test	 ecx, ecx
  00017	75 36		 jne	 SHORT $LN2@look_abs_u

; 669  : 	{
; 670  : 		set_view_mode (get_nearest_fixed_cockpit_view (pilot_head_heading, pilot_head_pitch));

  00019	51		 push	 ecx
  0001a	f3 0f 10 05 00
	00 00 00	 movss	 xmm0, DWORD PTR ?pilot_head_pitch@@3MA
  00022	f3 0f 11 04 24	 movss	 DWORD PTR [esp], xmm0
  00027	51		 push	 ecx
  00028	f3 0f 10 05 00
	00 00 00	 movss	 xmm0, DWORD PTR ?pilot_head_heading@@3MA
  00030	f3 0f 11 04 24	 movss	 DWORD PTR [esp], xmm0
  00035	e8 00 00 00 00	 call	 ?get_nearest_fixed_cockpit_view@@YG?AW4VIEW_MODES@@MM@Z ; get_nearest_fixed_cockpit_view
  0003a	50		 push	 eax
  0003b	e8 00 00 00 00	 call	 ?set_view_mode@@YGHW4VIEW_MODES@@@Z ; set_view_mode

; 671  : 
; 672  :    	set_view_mode (get_abs_fixed_cockpit_view (UP, STATIC));

  00040	6a 00		 push	 0
  00042	6a ff		 push	 -1
  00044	e8 00 00 00 00	 call	 ?get_abs_fixed_cockpit_view@@YG?AW4VIEW_MODES@@HH@Z ; get_abs_fixed_cockpit_view
  00049	50		 push	 eax
  0004a	e8 00 00 00 00	 call	 ?set_view_mode@@YGHW4VIEW_MODES@@@Z ; set_view_mode
$LN2@look_abs_u:

; 673  : 	}
; 674  : }

  0004f	5f		 pop	 edi
  00050	5e		 pop	 esi
  00051	5b		 pop	 ebx
  00052	8b e5		 mov	 esp, ebp
  00054	5d		 pop	 ebp
  00055	c2 04 00	 ret	 4
?look_abs_up_event@@YGXPAUEVENT@@@Z ENDP		; look_abs_up_event
_TEXT	ENDS
; Function compile flags: /Odtp /ZI
; File c:\users\nhv90\projects\eech\aphavoc\source\gunships\views\vm_event.c
;	COMDAT ?look_abs_right_event@@YGXPAUEVENT@@@Z
_TEXT	SEGMENT
_ev$ = 8						; size = 4
?look_abs_right_event@@YGXPAUEVENT@@@Z PROC		; look_abs_right_event, COMDAT

; 649  : {

  00000	55		 push	 ebp
  00001	8b ec		 mov	 ebp, esp
  00003	83 ec 40	 sub	 esp, 64			; 00000040H
  00006	53		 push	 ebx
  00007	56		 push	 esi
  00008	57		 push	 edi

; 650  : 	if (get_apache_havoc_gunship ())

  00009	a1 0c 00 00 00	 mov	 eax, DWORD PTR ?global_options@@3UGLOBAL_OPTIONS_DATA@@A+12
  0000e	0f b6 88 00 00
	00 00		 movzx	 ecx, BYTE PTR ?new_gunship@@3QBDB[eax]
  00015	85 c9		 test	 ecx, ecx
  00017	75 38		 jne	 SHORT $LN2@look_abs_r

; 651  : 	{
; 652  : 		set_view_mode (get_nearest_fixed_cockpit_view (pilot_head_heading, pilot_head_pitch));

  00019	51		 push	 ecx
  0001a	f3 0f 10 05 00
	00 00 00	 movss	 xmm0, DWORD PTR ?pilot_head_pitch@@3MA
  00022	f3 0f 11 04 24	 movss	 DWORD PTR [esp], xmm0
  00027	51		 push	 ecx
  00028	f3 0f 10 05 00
	00 00 00	 movss	 xmm0, DWORD PTR ?pilot_head_heading@@3MA
  00030	f3 0f 11 04 24	 movss	 DWORD PTR [esp], xmm0
  00035	e8 00 00 00 00	 call	 ?get_nearest_fixed_cockpit_view@@YG?AW4VIEW_MODES@@MM@Z ; get_nearest_fixed_cockpit_view
  0003a	50		 push	 eax
  0003b	e8 00 00 00 00	 call	 ?set_view_mode@@YGHW4VIEW_MODES@@@Z ; set_view_mode

; 653  : 
; 654  : 	   set_view_mode (get_abs_fixed_cockpit_view (STATIC, RIGHT));

  00040	6a 01		 push	 1
  00042	6a 00		 push	 0
  00044	e8 00 00 00 00	 call	 ?get_abs_fixed_cockpit_view@@YG?AW4VIEW_MODES@@HH@Z ; get_abs_fixed_cockpit_view
  00049	50		 push	 eax
  0004a	e8 00 00 00 00	 call	 ?set_view_mode@@YGHW4VIEW_MODES@@@Z ; set_view_mode

; 655  : 	}
; 656  : 	else

  0004f	eb 07		 jmp	 SHORT $LN3@look_abs_r
$LN2@look_abs_r:

; 657  : 	{
; 658  : 		set_view_mode (VIEW_MODE_COCKPIT_PANEL_LEVEL_RIGHT90);

  00051	6a 14		 push	 20			; 00000014H
  00053	e8 00 00 00 00	 call	 ?set_view_mode@@YGHW4VIEW_MODES@@@Z ; set_view_mode
$LN3@look_abs_r:

; 659  : 	}
; 660  : }

  00058	5f		 pop	 edi
  00059	5e		 pop	 esi
  0005a	5b		 pop	 ebx
  0005b	8b e5		 mov	 esp, ebp
  0005d	5d		 pop	 ebp
  0005e	c2 04 00	 ret	 4
?look_abs_right_event@@YGXPAUEVENT@@@Z ENDP		; look_abs_right_event
_TEXT	ENDS
; Function compile flags: /Odtp /ZI
; File c:\users\nhv90\projects\eech\aphavoc\source\gunships\views\vm_event.c
;	COMDAT ?look_abs_left_event@@YGXPAUEVENT@@@Z
_TEXT	SEGMENT
_ev$ = 8						; size = 4
?look_abs_left_event@@YGXPAUEVENT@@@Z PROC		; look_abs_left_event, COMDAT

; 631  : {

  00000	55		 push	 ebp
  00001	8b ec		 mov	 ebp, esp
  00003	83 ec 40	 sub	 esp, 64			; 00000040H
  00006	53		 push	 ebx
  00007	56		 push	 esi
  00008	57		 push	 edi

; 632  : 	if (get_apache_havoc_gunship ())

  00009	a1 0c 00 00 00	 mov	 eax, DWORD PTR ?global_options@@3UGLOBAL_OPTIONS_DATA@@A+12
  0000e	0f b6 88 00 00
	00 00		 movzx	 ecx, BYTE PTR ?new_gunship@@3QBDB[eax]
  00015	85 c9		 test	 ecx, ecx
  00017	75 38		 jne	 SHORT $LN2@look_abs_l

; 633  : 	{
; 634  : 		set_view_mode (get_nearest_fixed_cockpit_view (pilot_head_heading, pilot_head_pitch));

  00019	51		 push	 ecx
  0001a	f3 0f 10 05 00
	00 00 00	 movss	 xmm0, DWORD PTR ?pilot_head_pitch@@3MA
  00022	f3 0f 11 04 24	 movss	 DWORD PTR [esp], xmm0
  00027	51		 push	 ecx
  00028	f3 0f 10 05 00
	00 00 00	 movss	 xmm0, DWORD PTR ?pilot_head_heading@@3MA
  00030	f3 0f 11 04 24	 movss	 DWORD PTR [esp], xmm0
  00035	e8 00 00 00 00	 call	 ?get_nearest_fixed_cockpit_view@@YG?AW4VIEW_MODES@@MM@Z ; get_nearest_fixed_cockpit_view
  0003a	50		 push	 eax
  0003b	e8 00 00 00 00	 call	 ?set_view_mode@@YGHW4VIEW_MODES@@@Z ; set_view_mode

; 635  : 
; 636  :    	set_view_mode (get_abs_fixed_cockpit_view (STATIC, LEFT));

  00040	6a ff		 push	 -1
  00042	6a 00		 push	 0
  00044	e8 00 00 00 00	 call	 ?get_abs_fixed_cockpit_view@@YG?AW4VIEW_MODES@@HH@Z ; get_abs_fixed_cockpit_view
  00049	50		 push	 eax
  0004a	e8 00 00 00 00	 call	 ?set_view_mode@@YGHW4VIEW_MODES@@@Z ; set_view_mode

; 637  : 	}
; 638  : 	else

  0004f	eb 07		 jmp	 SHORT $LN3@look_abs_l
$LN2@look_abs_l:

; 639  : 	{
; 640  : 		set_view_mode (VIEW_MODE_COCKPIT_PANEL_LEVEL_LEFT90);

  00051	6a 0e		 push	 14			; 0000000eH
  00053	e8 00 00 00 00	 call	 ?set_view_mode@@YGHW4VIEW_MODES@@@Z ; set_view_mode
$LN3@look_abs_l:

; 641  : 	}
; 642  : }

  00058	5f		 pop	 edi
  00059	5e		 pop	 esi
  0005a	5b		 pop	 ebx
  0005b	8b e5		 mov	 esp, ebp
  0005d	5d		 pop	 ebp
  0005e	c2 04 00	 ret	 4
?look_abs_left_event@@YGXPAUEVENT@@@Z ENDP		; look_abs_left_event
_TEXT	ENDS
; Function compile flags: /Odtp /ZI
; File c:\users\nhv90\projects\eech\aphavoc\source\gunships\views\vm_event.c
;	COMDAT ?look_rel_down_event@@YGXPAUEVENT@@@Z
_TEXT	SEGMENT
_ev$ = 8						; size = 4
?look_rel_down_event@@YGXPAUEVENT@@@Z PROC		; look_rel_down_event, COMDAT

; 617  : {

  00000	55		 push	 ebp
  00001	8b ec		 mov	 ebp, esp
  00003	83 ec 40	 sub	 esp, 64			; 00000040H
  00006	53		 push	 ebx
  00007	56		 push	 esi
  00008	57		 push	 edi

; 618  : 	if (get_apache_havoc_gunship ())

  00009	a1 0c 00 00 00	 mov	 eax, DWORD PTR ?global_options@@3UGLOBAL_OPTIONS_DATA@@A+12
  0000e	0f b6 88 00 00
	00 00		 movzx	 ecx, BYTE PTR ?new_gunship@@3QBDB[eax]
  00015	85 c9		 test	 ecx, ecx
  00017	75 36		 jne	 SHORT $LN2@look_rel_d

; 619  : 	{
; 620  : 		set_view_mode (get_nearest_fixed_cockpit_view (pilot_head_heading, pilot_head_pitch));

  00019	51		 push	 ecx
  0001a	f3 0f 10 05 00
	00 00 00	 movss	 xmm0, DWORD PTR ?pilot_head_pitch@@3MA
  00022	f3 0f 11 04 24	 movss	 DWORD PTR [esp], xmm0
  00027	51		 push	 ecx
  00028	f3 0f 10 05 00
	00 00 00	 movss	 xmm0, DWORD PTR ?pilot_head_heading@@3MA
  00030	f3 0f 11 04 24	 movss	 DWORD PTR [esp], xmm0
  00035	e8 00 00 00 00	 call	 ?get_nearest_fixed_cockpit_view@@YG?AW4VIEW_MODES@@MM@Z ; get_nearest_fixed_cockpit_view
  0003a	50		 push	 eax
  0003b	e8 00 00 00 00	 call	 ?set_view_mode@@YGHW4VIEW_MODES@@@Z ; set_view_mode

; 621  : 
; 622  :   		set_view_mode (get_rel_fixed_cockpit_view (DOWN, STATIC));

  00040	6a 00		 push	 0
  00042	6a 01		 push	 1
  00044	e8 00 00 00 00	 call	 ?get_rel_fixed_cockpit_view@@YG?AW4VIEW_MODES@@HH@Z ; get_rel_fixed_cockpit_view
  00049	50		 push	 eax
  0004a	e8 00 00 00 00	 call	 ?set_view_mode@@YGHW4VIEW_MODES@@@Z ; set_view_mode
$LN2@look_rel_d:

; 623  : 	}
; 624  : }

  0004f	5f		 pop	 edi
  00050	5e		 pop	 esi
  00051	5b		 pop	 ebx
  00052	8b e5		 mov	 esp, ebp
  00054	5d		 pop	 ebp
  00055	c2 04 00	 ret	 4
?look_rel_down_event@@YGXPAUEVENT@@@Z ENDP		; look_rel_down_event
_TEXT	ENDS
; Function compile flags: /Odtp /ZI
; File c:\users\nhv90\projects\eech\aphavoc\source\gunships\views\vm_event.c
;	COMDAT ?look_rel_up_event@@YGXPAUEVENT@@@Z
_TEXT	SEGMENT
_ev$ = 8						; size = 4
?look_rel_up_event@@YGXPAUEVENT@@@Z PROC		; look_rel_up_event, COMDAT

; 603  : {

  00000	55		 push	 ebp
  00001	8b ec		 mov	 ebp, esp
  00003	83 ec 40	 sub	 esp, 64			; 00000040H
  00006	53		 push	 ebx
  00007	56		 push	 esi
  00008	57		 push	 edi

; 604  : 	if (get_apache_havoc_gunship ())

  00009	a1 0c 00 00 00	 mov	 eax, DWORD PTR ?global_options@@3UGLOBAL_OPTIONS_DATA@@A+12
  0000e	0f b6 88 00 00
	00 00		 movzx	 ecx, BYTE PTR ?new_gunship@@3QBDB[eax]
  00015	85 c9		 test	 ecx, ecx
  00017	75 36		 jne	 SHORT $LN2@look_rel_u

; 605  : 	{
; 606  : 		set_view_mode (get_nearest_fixed_cockpit_view (pilot_head_heading, pilot_head_pitch));

  00019	51		 push	 ecx
  0001a	f3 0f 10 05 00
	00 00 00	 movss	 xmm0, DWORD PTR ?pilot_head_pitch@@3MA
  00022	f3 0f 11 04 24	 movss	 DWORD PTR [esp], xmm0
  00027	51		 push	 ecx
  00028	f3 0f 10 05 00
	00 00 00	 movss	 xmm0, DWORD PTR ?pilot_head_heading@@3MA
  00030	f3 0f 11 04 24	 movss	 DWORD PTR [esp], xmm0
  00035	e8 00 00 00 00	 call	 ?get_nearest_fixed_cockpit_view@@YG?AW4VIEW_MODES@@MM@Z ; get_nearest_fixed_cockpit_view
  0003a	50		 push	 eax
  0003b	e8 00 00 00 00	 call	 ?set_view_mode@@YGHW4VIEW_MODES@@@Z ; set_view_mode

; 607  : 
; 608  :    	set_view_mode (get_rel_fixed_cockpit_view (UP, STATIC));

  00040	6a 00		 push	 0
  00042	6a ff		 push	 -1
  00044	e8 00 00 00 00	 call	 ?get_rel_fixed_cockpit_view@@YG?AW4VIEW_MODES@@HH@Z ; get_rel_fixed_cockpit_view
  00049	50		 push	 eax
  0004a	e8 00 00 00 00	 call	 ?set_view_mode@@YGHW4VIEW_MODES@@@Z ; set_view_mode
$LN2@look_rel_u:

; 609  : 	}
; 610  : }

  0004f	5f		 pop	 edi
  00050	5e		 pop	 esi
  00051	5b		 pop	 ebx
  00052	8b e5		 mov	 esp, ebp
  00054	5d		 pop	 ebp
  00055	c2 04 00	 ret	 4
?look_rel_up_event@@YGXPAUEVENT@@@Z ENDP		; look_rel_up_event
_TEXT	ENDS
; Function compile flags: /Odtp /ZI
; File c:\users\nhv90\projects\eech\aphavoc\source\gunships\views\vm_event.c
;	COMDAT ?look_rel_right_event@@YGXPAUEVENT@@@Z
_TEXT	SEGMENT
_ev$ = 8						; size = 4
?look_rel_right_event@@YGXPAUEVENT@@@Z PROC		; look_rel_right_event, COMDAT

; 589  : {

  00000	55		 push	 ebp
  00001	8b ec		 mov	 ebp, esp
  00003	83 ec 40	 sub	 esp, 64			; 00000040H
  00006	53		 push	 ebx
  00007	56		 push	 esi
  00008	57		 push	 edi

; 590  : 	if (get_apache_havoc_gunship ())

  00009	a1 0c 00 00 00	 mov	 eax, DWORD PTR ?global_options@@3UGLOBAL_OPTIONS_DATA@@A+12
  0000e	0f b6 88 00 00
	00 00		 movzx	 ecx, BYTE PTR ?new_gunship@@3QBDB[eax]
  00015	85 c9		 test	 ecx, ecx
  00017	75 36		 jne	 SHORT $LN2@look_rel_r

; 591  : 	{
; 592  : 		set_view_mode (get_nearest_fixed_cockpit_view (pilot_head_heading, pilot_head_pitch));

  00019	51		 push	 ecx
  0001a	f3 0f 10 05 00
	00 00 00	 movss	 xmm0, DWORD PTR ?pilot_head_pitch@@3MA
  00022	f3 0f 11 04 24	 movss	 DWORD PTR [esp], xmm0
  00027	51		 push	 ecx
  00028	f3 0f 10 05 00
	00 00 00	 movss	 xmm0, DWORD PTR ?pilot_head_heading@@3MA
  00030	f3 0f 11 04 24	 movss	 DWORD PTR [esp], xmm0
  00035	e8 00 00 00 00	 call	 ?get_nearest_fixed_cockpit_view@@YG?AW4VIEW_MODES@@MM@Z ; get_nearest_fixed_cockpit_view
  0003a	50		 push	 eax
  0003b	e8 00 00 00 00	 call	 ?set_view_mode@@YGHW4VIEW_MODES@@@Z ; set_view_mode

; 593  : 
; 594  :    	set_view_mode (get_rel_fixed_cockpit_view (STATIC, RIGHT));

  00040	6a 01		 push	 1
  00042	6a 00		 push	 0
  00044	e8 00 00 00 00	 call	 ?get_rel_fixed_cockpit_view@@YG?AW4VIEW_MODES@@HH@Z ; get_rel_fixed_cockpit_view
  00049	50		 push	 eax
  0004a	e8 00 00 00 00	 call	 ?set_view_mode@@YGHW4VIEW_MODES@@@Z ; set_view_mode
$LN2@look_rel_r:

; 595  : 	}
; 596  : }

  0004f	5f		 pop	 edi
  00050	5e		 pop	 esi
  00051	5b		 pop	 ebx
  00052	8b e5		 mov	 esp, ebp
  00054	5d		 pop	 ebp
  00055	c2 04 00	 ret	 4
?look_rel_right_event@@YGXPAUEVENT@@@Z ENDP		; look_rel_right_event
_TEXT	ENDS
; Function compile flags: /Odtp /ZI
; File c:\users\nhv90\projects\eech\aphavoc\source\gunships\views\vm_event.c
;	COMDAT ?look_rel_left_event@@YGXPAUEVENT@@@Z
_TEXT	SEGMENT
_ev$ = 8						; size = 4
?look_rel_left_event@@YGXPAUEVENT@@@Z PROC		; look_rel_left_event, COMDAT

; 575  : {

  00000	55		 push	 ebp
  00001	8b ec		 mov	 ebp, esp
  00003	83 ec 40	 sub	 esp, 64			; 00000040H
  00006	53		 push	 ebx
  00007	56		 push	 esi
  00008	57		 push	 edi

; 576  : 	if (get_apache_havoc_gunship ())

  00009	a1 0c 00 00 00	 mov	 eax, DWORD PTR ?global_options@@3UGLOBAL_OPTIONS_DATA@@A+12
  0000e	0f b6 88 00 00
	00 00		 movzx	 ecx, BYTE PTR ?new_gunship@@3QBDB[eax]
  00015	85 c9		 test	 ecx, ecx
  00017	75 36		 jne	 SHORT $LN2@look_rel_l

; 577  : 	{
; 578  : 		set_view_mode (get_nearest_fixed_cockpit_view (pilot_head_heading, pilot_head_pitch));

  00019	51		 push	 ecx
  0001a	f3 0f 10 05 00
	00 00 00	 movss	 xmm0, DWORD PTR ?pilot_head_pitch@@3MA
  00022	f3 0f 11 04 24	 movss	 DWORD PTR [esp], xmm0
  00027	51		 push	 ecx
  00028	f3 0f 10 05 00
	00 00 00	 movss	 xmm0, DWORD PTR ?pilot_head_heading@@3MA
  00030	f3 0f 11 04 24	 movss	 DWORD PTR [esp], xmm0
  00035	e8 00 00 00 00	 call	 ?get_nearest_fixed_cockpit_view@@YG?AW4VIEW_MODES@@MM@Z ; get_nearest_fixed_cockpit_view
  0003a	50		 push	 eax
  0003b	e8 00 00 00 00	 call	 ?set_view_mode@@YGHW4VIEW_MODES@@@Z ; set_view_mode

; 579  : 
; 580  : 	  	set_view_mode (get_rel_fixed_cockpit_view (STATIC, LEFT));

  00040	6a ff		 push	 -1
  00042	6a 00		 push	 0
  00044	e8 00 00 00 00	 call	 ?get_rel_fixed_cockpit_view@@YG?AW4VIEW_MODES@@HH@Z ; get_rel_fixed_cockpit_view
  00049	50		 push	 eax
  0004a	e8 00 00 00 00	 call	 ?set_view_mode@@YGHW4VIEW_MODES@@@Z ; set_view_mode
$LN2@look_rel_l:

; 581  : 	}
; 582  : }

  0004f	5f		 pop	 edi
  00050	5e		 pop	 esi
  00051	5b		 pop	 ebx
  00052	8b e5		 mov	 esp, ebp
  00054	5d		 pop	 ebp
  00055	c2 04 00	 ret	 4
?look_rel_left_event@@YGXPAUEVENT@@@Z ENDP		; look_rel_left_event
_TEXT	ENDS
; Function compile flags: /Odtp /ZI
; File c:\users\nhv90\projects\eech\aphavoc\source\gunships\views\vm_event.c
;	COMDAT ?set_special2_view_mode@@YGXXZ
_TEXT	SEGMENT
tv64 = -68						; size = 4
?set_special2_view_mode@@YGXXZ PROC			; set_special2_view_mode, COMDAT

; 369  : {

  00000	55		 push	 ebp
  00001	8b ec		 mov	 ebp, esp
  00003	83 ec 44	 sub	 esp, 68			; 00000044H
  00006	53		 push	 ebx
  00007	56		 push	 esi
  00008	57		 push	 edi

; 370  : 	switch (get_global_gunship_type ())

  00009	a1 0c 00 00 00	 mov	 eax, DWORD PTR ?global_options@@3UGLOBAL_OPTIONS_DATA@@A+12
  0000e	89 45 bc	 mov	 DWORD PTR tv64[ebp], eax
  00011	8b 4d bc	 mov	 ecx, DWORD PTR tv64[ebp]
  00014	83 e9 01	 sub	 ecx, 1
  00017	89 4d bc	 mov	 DWORD PTR tv64[ebp], ecx
  0001a	83 7d bc 08	 cmp	 DWORD PTR tv64[ebp], 8
  0001e	77 0a		 ja	 SHORT $LN4@set_specia
  00020	8b 55 bc	 mov	 edx, DWORD PTR tv64[ebp]
  00023	ff 24 95 00 00
	00 00		 jmp	 DWORD PTR $LN45@set_specia[edx*4]
$LN4@set_specia:

; 371  : 	{
; 372  : 		////////////////////////////////////////
; 373  : 		// JB 030313 Fly any aircraft
; 374  : 		default:
; 375  : 		case GUNSHIP_TYPE_APACHE:
; 376  : 		////////////////////////////////////////
; 377  : 		{
; 378  : 			//VJ 050301 add this to prevent crash when in 3D cockpit
; 379  : 			if (command_line_3d_cockpit)

  0002a	83 3d 00 00 00
	00 00		 cmp	 DWORD PTR ?command_line_3d_cockpit@@3HA, 0 ; command_line_3d_cockpit
  00031	74 05		 je	 SHORT $LN5@set_specia

; 380  : 				break;			

  00033	e9 6c 01 00 00	 jmp	 $LN1@set_specia
$LN5@set_specia:

; 381  : 			if (view_mode != VIEW_MODE_COCKPIT_PANEL_SPECIAL_APACHE_RHS_MFD)

  00038	83 3d 00 00 00
	00 1d		 cmp	 DWORD PTR ?view_mode@@3W4VIEW_MODES@@A, 29 ; view_mode, 0000001dH
  0003f	74 09		 je	 SHORT $LN6@set_specia

; 382  : 			{
; 383  : 				set_view_mode (VIEW_MODE_COCKPIT_PANEL_SPECIAL_APACHE_RHS_MFD);

  00041	6a 1d		 push	 29			; 0000001dH
  00043	e8 00 00 00 00	 call	 ?set_view_mode@@YGHW4VIEW_MODES@@@Z ; set_view_mode

; 384  : 			}
; 385  : 			else

  00048	eb 07		 jmp	 SHORT $LN7@set_specia
$LN6@set_specia:

; 386  : 			{
; 387  : 				set_view_mode (VIEW_MODE_COCKPIT_PANEL_DOWN20_AHEAD);

  0004a	6a 18		 push	 24			; 00000018H
  0004c	e8 00 00 00 00	 call	 ?set_view_mode@@YGHW4VIEW_MODES@@@Z ; set_view_mode
$LN7@set_specia:

; 388  : 			}
; 389  : 
; 390  : 			break;

  00051	e9 4e 01 00 00	 jmp	 $LN1@set_specia
$LN8@set_specia:

; 391  : 		}
; 392  : 		////////////////////////////////////////
; 393  : 		case GUNSHIP_TYPE_HAVOC:
; 394  : 		////////////////////////////////////////
; 395  : 		{
; 396  : 			if (view_mode != VIEW_MODE_COCKPIT_PANEL_SPECIAL_HAVOC_HUD)

  00056	83 3d 00 00 00
	00 1f		 cmp	 DWORD PTR ?view_mode@@3W4VIEW_MODES@@A, 31 ; view_mode, 0000001fH
  0005d	74 09		 je	 SHORT $LN9@set_specia

; 397  : 			{
; 398  : 				set_view_mode (VIEW_MODE_COCKPIT_PANEL_SPECIAL_HAVOC_HUD);

  0005f	6a 1f		 push	 31			; 0000001fH
  00061	e8 00 00 00 00	 call	 ?set_view_mode@@YGHW4VIEW_MODES@@@Z ; set_view_mode

; 399  : 			}
; 400  : 			else

  00066	eb 07		 jmp	 SHORT $LN10@set_specia
$LN9@set_specia:

; 401  : 			{
; 402  : 				set_view_mode (VIEW_MODE_COCKPIT_PANEL_LEVEL_AHEAD);

  00068	6a 11		 push	 17			; 00000011H
  0006a	e8 00 00 00 00	 call	 ?set_view_mode@@YGHW4VIEW_MODES@@@Z ; set_view_mode
$LN10@set_specia:

; 403  : 			}
; 404  : 
; 405  : 			break;

  0006f	e9 30 01 00 00	 jmp	 $LN1@set_specia
$LN11@set_specia:

; 406  : 		}
; 407  : 		////////////////////////////////////////
; 408  : 		case GUNSHIP_TYPE_COMANCHE:
; 409  : 		////////////////////////////////////////
; 410  : 		{
; 411  : 			if (get_crew_role () == CREW_ROLE_PILOT)

  00074	e8 00 00 00 00	 call	 ?get_crew_role@@YG?AW4CREW_ROLES@@XZ ; get_crew_role
  00079	85 c0		 test	 eax, eax
  0007b	75 1b		 jne	 SHORT $LN12@set_specia

; 412  : 			{
; 413  : 				if (view_mode != VIEW_MODE_VIRTUAL_COCKPIT_PILOT_RHS_DISPLAY)

  0007d	83 3d 00 00 00
	00 27		 cmp	 DWORD PTR ?view_mode@@3W4VIEW_MODES@@A, 39 ; view_mode, 00000027H
  00084	74 09		 je	 SHORT $LN14@set_specia

; 414  : 				{
; 415  : 					set_view_mode (VIEW_MODE_VIRTUAL_COCKPIT_PILOT_RHS_DISPLAY);

  00086	6a 27		 push	 39			; 00000027H
  00088	e8 00 00 00 00	 call	 ?set_view_mode@@YGHW4VIEW_MODES@@@Z ; set_view_mode

; 416  : 				}
; 417  : 				else

  0008d	eb 07		 jmp	 SHORT $LN15@set_specia
$LN14@set_specia:

; 418  : 				{
; 419  : 					set_view_mode (VIEW_MODE_COCKPIT_PANEL_DOWN20_AHEAD);

  0008f	6a 18		 push	 24			; 00000018H
  00091	e8 00 00 00 00	 call	 ?set_view_mode@@YGHW4VIEW_MODES@@@Z ; set_view_mode
$LN15@set_specia:

; 420  : 				}
; 421  : 			}
; 422  : 			else

  00096	eb 19		 jmp	 SHORT $LN13@set_specia
$LN12@set_specia:

; 423  : 			{
; 424  : 				if (view_mode != VIEW_MODE_VIRTUAL_COCKPIT_CO_PILOT_RHS_DISPLAY)

  00098	83 3d 00 00 00
	00 29		 cmp	 DWORD PTR ?view_mode@@3W4VIEW_MODES@@A, 41 ; view_mode, 00000029H
  0009f	74 09		 je	 SHORT $LN16@set_specia

; 425  : 				{
; 426  : 					set_view_mode (VIEW_MODE_VIRTUAL_COCKPIT_CO_PILOT_RHS_DISPLAY);

  000a1	6a 29		 push	 41			; 00000029H
  000a3	e8 00 00 00 00	 call	 ?set_view_mode@@YGHW4VIEW_MODES@@@Z ; set_view_mode

; 427  : 				}
; 428  : 				else

  000a8	eb 07		 jmp	 SHORT $LN13@set_specia
$LN16@set_specia:

; 429  : 				{
; 430  : 					set_view_mode (VIEW_MODE_COCKPIT_PANEL_DOWN20_AHEAD);

  000aa	6a 18		 push	 24			; 00000018H
  000ac	e8 00 00 00 00	 call	 ?set_view_mode@@YGHW4VIEW_MODES@@@Z ; set_view_mode
$LN13@set_specia:

; 431  : 				}
; 432  : 			}
; 433  : 
; 434  : 			break;

  000b1	e9 ee 00 00 00	 jmp	 $LN1@set_specia
$LN18@set_specia:

; 435  : 		}
; 436  : 		////////////////////////////////////////
; 437  : 		case GUNSHIP_TYPE_HOKUM:
; 438  : 		////////////////////////////////////////
; 439  : 		{
; 440  : 			if (get_crew_role () == CREW_ROLE_PILOT)

  000b6	e8 00 00 00 00	 call	 ?get_crew_role@@YG?AW4CREW_ROLES@@XZ ; get_crew_role
  000bb	85 c0		 test	 eax, eax
  000bd	75 1b		 jne	 SHORT $LN19@set_specia

; 441  : 			{
; 442  : 				if (view_mode != VIEW_MODE_VIRTUAL_COCKPIT_PILOT_RHS_DISPLAY)

  000bf	83 3d 00 00 00
	00 27		 cmp	 DWORD PTR ?view_mode@@3W4VIEW_MODES@@A, 39 ; view_mode, 00000027H
  000c6	74 09		 je	 SHORT $LN21@set_specia

; 443  : 				{
; 444  : 					set_view_mode (VIEW_MODE_VIRTUAL_COCKPIT_PILOT_RHS_DISPLAY);

  000c8	6a 27		 push	 39			; 00000027H
  000ca	e8 00 00 00 00	 call	 ?set_view_mode@@YGHW4VIEW_MODES@@@Z ; set_view_mode

; 445  : 				}
; 446  : 				else

  000cf	eb 07		 jmp	 SHORT $LN22@set_specia
$LN21@set_specia:

; 447  : 				{
; 448  : 					set_view_mode (VIEW_MODE_COCKPIT_PANEL_DOWN20_AHEAD);

  000d1	6a 18		 push	 24			; 00000018H
  000d3	e8 00 00 00 00	 call	 ?set_view_mode@@YGHW4VIEW_MODES@@@Z ; set_view_mode
$LN22@set_specia:

; 449  : 				}
; 450  : 			}
; 451  : 			else

  000d8	eb 19		 jmp	 SHORT $LN20@set_specia
$LN19@set_specia:

; 452  : 			{
; 453  : 				if (view_mode != VIEW_MODE_VIRTUAL_COCKPIT_CO_PILOT_RHS_DISPLAY)

  000da	83 3d 00 00 00
	00 29		 cmp	 DWORD PTR ?view_mode@@3W4VIEW_MODES@@A, 41 ; view_mode, 00000029H
  000e1	74 09		 je	 SHORT $LN23@set_specia

; 454  : 				{
; 455  : 					set_view_mode (VIEW_MODE_VIRTUAL_COCKPIT_CO_PILOT_RHS_DISPLAY);

  000e3	6a 29		 push	 41			; 00000029H
  000e5	e8 00 00 00 00	 call	 ?set_view_mode@@YGHW4VIEW_MODES@@@Z ; set_view_mode

; 456  : 				}
; 457  : 				else

  000ea	eb 07		 jmp	 SHORT $LN20@set_specia
$LN23@set_specia:

; 458  : 				{
; 459  : 					set_view_mode (VIEW_MODE_COCKPIT_PANEL_DOWN20_AHEAD);

  000ec	6a 18		 push	 24			; 00000018H
  000ee	e8 00 00 00 00	 call	 ?set_view_mode@@YGHW4VIEW_MODES@@@Z ; set_view_mode
$LN20@set_specia:

; 460  : 				}
; 461  : 			}
; 462  : 
; 463  : 			break;

  000f3	e9 ac 00 00 00	 jmp	 $LN1@set_specia
$LN25@set_specia:

; 464  : 		}
; 465  : 		////Moje 030518 Start
; 466  : 		case GUNSHIP_TYPE_BLACKHAWK:
; 467  : 		////////////////////////////////////////
; 468  : 		{
; 469  : 			if (view_mode != VIEW_MODE_COCKPIT_PANEL_SPECIAL_APACHE_RHS_MFD)

  000f8	83 3d 00 00 00
	00 1d		 cmp	 DWORD PTR ?view_mode@@3W4VIEW_MODES@@A, 29 ; view_mode, 0000001dH
  000ff	74 09		 je	 SHORT $LN26@set_specia

; 470  : 			{
; 471  : 				set_view_mode (VIEW_MODE_COCKPIT_PANEL_SPECIAL_APACHE_RHS_MFD);

  00101	6a 1d		 push	 29			; 0000001dH
  00103	e8 00 00 00 00	 call	 ?set_view_mode@@YGHW4VIEW_MODES@@@Z ; set_view_mode

; 472  : 			}
; 473  : 			else

  00108	eb 07		 jmp	 SHORT $LN27@set_specia
$LN26@set_specia:

; 474  : 			{
; 475  : 				set_view_mode (VIEW_MODE_COCKPIT_PANEL_DOWN20_AHEAD);

  0010a	6a 18		 push	 24			; 00000018H
  0010c	e8 00 00 00 00	 call	 ?set_view_mode@@YGHW4VIEW_MODES@@@Z ; set_view_mode
$LN27@set_specia:

; 476  : 			}
; 477  : 
; 478  : 			break;

  00111	e9 8e 00 00 00	 jmp	 $LN1@set_specia
$LN28@set_specia:

; 479  : 		}
; 480  : 		////Moje 030518 End
; 481  : 		////Moje 036012 start
; 482  : 		////////////////////////////////////////
; 483  : 		case GUNSHIP_TYPE_HIND:
; 484  : 		////////////////////////////////////////
; 485  : 		{
; 486  : 			if (view_mode != VIEW_MODE_COCKPIT_PANEL_SPECIAL_HAVOC_TV)

  00116	83 3d 00 00 00
	00 1e		 cmp	 DWORD PTR ?view_mode@@3W4VIEW_MODES@@A, 30 ; view_mode, 0000001eH
  0011d	74 09		 je	 SHORT $LN29@set_specia

; 487  : 			{
; 488  : 				set_view_mode (VIEW_MODE_COCKPIT_PANEL_SPECIAL_HAVOC_TV);

  0011f	6a 1e		 push	 30			; 0000001eH
  00121	e8 00 00 00 00	 call	 ?set_view_mode@@YGHW4VIEW_MODES@@@Z ; set_view_mode

; 489  : 			}
; 490  : 			else

  00126	eb 07		 jmp	 SHORT $LN30@set_specia
$LN29@set_specia:

; 491  : 			{
; 492  : 				set_view_mode (VIEW_MODE_COCKPIT_PANEL_LEVEL_AHEAD);

  00128	6a 11		 push	 17			; 00000011H
  0012a	e8 00 00 00 00	 call	 ?set_view_mode@@YGHW4VIEW_MODES@@@Z ; set_view_mode
$LN30@set_specia:

; 493  : 			}
; 494  : 
; 495  : 			break;

  0012f	eb 73		 jmp	 SHORT $LN1@set_specia
$LN31@set_specia:

; 496  : 		}
; 497  : 		////Moje 03061 2end
; 498  : 		////Moje 030816 Start
; 499  : 		case GUNSHIP_TYPE_AH64A:
; 500  : 		////////////////////////////////////////
; 501  : 		{
; 502  : 			if (view_mode != VIEW_MODE_COCKPIT_PANEL_SPECIAL_APACHE_RHS_MFD)

  00131	83 3d 00 00 00
	00 1d		 cmp	 DWORD PTR ?view_mode@@3W4VIEW_MODES@@A, 29 ; view_mode, 0000001dH
  00138	74 09		 je	 SHORT $LN32@set_specia

; 503  : 			{
; 504  : 				set_view_mode (VIEW_MODE_COCKPIT_PANEL_SPECIAL_APACHE_RHS_MFD);

  0013a	6a 1d		 push	 29			; 0000001dH
  0013c	e8 00 00 00 00	 call	 ?set_view_mode@@YGHW4VIEW_MODES@@@Z ; set_view_mode

; 505  : 			}
; 506  : 			else

  00141	eb 07		 jmp	 SHORT $LN33@set_specia
$LN32@set_specia:

; 507  : 			{
; 508  : 				set_view_mode (VIEW_MODE_COCKPIT_PANEL_DOWN20_AHEAD);

  00143	6a 18		 push	 24			; 00000018H
  00145	e8 00 00 00 00	 call	 ?set_view_mode@@YGHW4VIEW_MODES@@@Z ; set_view_mode
$LN33@set_specia:

; 509  : 			}
; 510  : 
; 511  : 			break;

  0014a	eb 58		 jmp	 SHORT $LN1@set_specia
$LN34@set_specia:

; 512  : 		}
; 513  : 		////////////////////////////////////////
; 514  : 		case GUNSHIP_TYPE_KA50:
; 515  : 		////////////////////////////////////////
; 516  : 		{
; 517  : 			if (view_mode != VIEW_MODE_VIRTUAL_COCKPIT_PILOT_RHS_DISPLAY)

  0014c	83 3d 00 00 00
	00 27		 cmp	 DWORD PTR ?view_mode@@3W4VIEW_MODES@@A, 39 ; view_mode, 00000027H
  00153	74 09		 je	 SHORT $LN35@set_specia

; 518  : 			{
; 519  : 				set_view_mode (VIEW_MODE_VIRTUAL_COCKPIT_PILOT_RHS_DISPLAY);

  00155	6a 27		 push	 39			; 00000027H
  00157	e8 00 00 00 00	 call	 ?set_view_mode@@YGHW4VIEW_MODES@@@Z ; set_view_mode

; 520  : 			}
; 521  : 			else

  0015c	eb 07		 jmp	 SHORT $LN36@set_specia
$LN35@set_specia:

; 522  : 			{
; 523  : 				set_view_mode (VIEW_MODE_COCKPIT_PANEL_LEVEL_AHEAD);

  0015e	6a 11		 push	 17			; 00000011H
  00160	e8 00 00 00 00	 call	 ?set_view_mode@@YGHW4VIEW_MODES@@@Z ; set_view_mode
$LN36@set_specia:

; 524  : 			}
; 525  : 
; 526  : 			break;

  00165	eb 3d		 jmp	 SHORT $LN1@set_specia
$LN37@set_specia:

; 527  : 		}
; 528  : 		////Moje 030816 end
; 529  : 		////////////////////////////////////////
; 530  : 		case GUNSHIP_TYPE_VIPER:
; 531  : 		////////////////////////////////////////
; 532  : 		case GUNSHIP_TYPE_KIOWA:
; 533  : 		////////////////////////////////////////
; 534  : 		{
; 535  : 			if (get_crew_role () == CREW_ROLE_PILOT)

  00167	e8 00 00 00 00	 call	 ?get_crew_role@@YG?AW4CREW_ROLES@@XZ ; get_crew_role
  0016c	85 c0		 test	 eax, eax
  0016e	75 1b		 jne	 SHORT $LN38@set_specia

; 536  : 			{
; 537  : 				if (view_mode != VIEW_MODE_VIRTUAL_COCKPIT_PILOT_RHS_DISPLAY)

  00170	83 3d 00 00 00
	00 27		 cmp	 DWORD PTR ?view_mode@@3W4VIEW_MODES@@A, 39 ; view_mode, 00000027H
  00177	74 09		 je	 SHORT $LN40@set_specia

; 538  : 				{
; 539  : 					set_view_mode (VIEW_MODE_VIRTUAL_COCKPIT_PILOT_RHS_DISPLAY);

  00179	6a 27		 push	 39			; 00000027H
  0017b	e8 00 00 00 00	 call	 ?set_view_mode@@YGHW4VIEW_MODES@@@Z ; set_view_mode

; 540  : 				}
; 541  : 				else

  00180	eb 07		 jmp	 SHORT $LN41@set_specia
$LN40@set_specia:

; 542  : 				{
; 543  : 					set_view_mode (VIEW_MODE_COCKPIT_PANEL_DOWN20_AHEAD);

  00182	6a 18		 push	 24			; 00000018H
  00184	e8 00 00 00 00	 call	 ?set_view_mode@@YGHW4VIEW_MODES@@@Z ; set_view_mode
$LN41@set_specia:

; 544  : 				}
; 545  : 			}
; 546  : 			else

  00189	eb 19		 jmp	 SHORT $LN1@set_specia
$LN38@set_specia:

; 547  : 			{
; 548  : 				if (view_mode != VIEW_MODE_VIRTUAL_COCKPIT_CO_PILOT_RHS_DISPLAY)

  0018b	83 3d 00 00 00
	00 29		 cmp	 DWORD PTR ?view_mode@@3W4VIEW_MODES@@A, 41 ; view_mode, 00000029H
  00192	74 09		 je	 SHORT $LN42@set_specia

; 549  : 				{
; 550  : 					set_view_mode (VIEW_MODE_VIRTUAL_COCKPIT_CO_PILOT_RHS_DISPLAY);

  00194	6a 29		 push	 41			; 00000029H
  00196	e8 00 00 00 00	 call	 ?set_view_mode@@YGHW4VIEW_MODES@@@Z ; set_view_mode

; 551  : 				}
; 552  : 				else

  0019b	eb 07		 jmp	 SHORT $LN1@set_specia
$LN42@set_specia:

; 553  : 				{
; 554  : 					set_view_mode (VIEW_MODE_COCKPIT_PANEL_DOWN20_AHEAD);

  0019d	6a 18		 push	 24			; 00000018H
  0019f	e8 00 00 00 00	 call	 ?set_view_mode@@YGHW4VIEW_MODES@@@Z ; set_view_mode
$LN1@set_specia:

; 555  : 				}
; 556  : 			}
; 557  : 
; 558  : 			break;
; 559  : 		}
; 560  : 		////////////////////////////////////////
; 561  : 	}
; 562  : }

  001a4	5f		 pop	 edi
  001a5	5e		 pop	 esi
  001a6	5b		 pop	 ebx
  001a7	8b e5		 mov	 esp, ebp
  001a9	5d		 pop	 ebp
  001aa	c3		 ret	 0
  001ab	90		 npad	 1
$LN45@set_specia:
  001ac	00 00 00 00	 DD	 $LN8@set_specia
  001b0	00 00 00 00	 DD	 $LN11@set_specia
  001b4	00 00 00 00	 DD	 $LN18@set_specia
  001b8	00 00 00 00	 DD	 $LN25@set_specia
  001bc	00 00 00 00	 DD	 $LN28@set_specia
  001c0	00 00 00 00	 DD	 $LN31@set_specia
  001c4	00 00 00 00	 DD	 $LN34@set_specia
  001c8	00 00 00 00	 DD	 $LN37@set_specia
  001cc	00 00 00 00	 DD	 $LN37@set_specia
?set_special2_view_mode@@YGXXZ ENDP			; set_special2_view_mode
_TEXT	ENDS
; Function compile flags: /Odtp /ZI
; File c:\users\nhv90\projects\eech\aphavoc\source\gunships\views\vm_event.c
;	COMDAT ?set_special1_view_mode@@YGXXZ
_TEXT	SEGMENT
tv64 = -68						; size = 4
?set_special1_view_mode@@YGXXZ PROC			; set_special1_view_mode, COMDAT

; 169  : {

  00000	55		 push	 ebp
  00001	8b ec		 mov	 ebp, esp
  00003	83 ec 44	 sub	 esp, 68			; 00000044H
  00006	53		 push	 ebx
  00007	56		 push	 esi
  00008	57		 push	 edi

; 170  : 	switch (get_global_gunship_type ())

  00009	a1 0c 00 00 00	 mov	 eax, DWORD PTR ?global_options@@3UGLOBAL_OPTIONS_DATA@@A+12
  0000e	89 45 bc	 mov	 DWORD PTR tv64[ebp], eax
  00011	8b 4d bc	 mov	 ecx, DWORD PTR tv64[ebp]
  00014	83 e9 01	 sub	 ecx, 1
  00017	89 4d bc	 mov	 DWORD PTR tv64[ebp], ecx
  0001a	83 7d bc 08	 cmp	 DWORD PTR tv64[ebp], 8
  0001e	77 0a		 ja	 SHORT $LN4@set_specia
  00020	8b 55 bc	 mov	 edx, DWORD PTR tv64[ebp]
  00023	ff 24 95 00 00
	00 00		 jmp	 DWORD PTR $LN45@set_specia[edx*4]
$LN4@set_specia:

; 171  : 	{
; 172  : 		////////////////////////////////////////
; 173  : 		// JB 030313 Fly any aircraft
; 174  : 		default:
; 175  : 		case GUNSHIP_TYPE_APACHE:
; 176  : 		////////////////////////////////////////
; 177  : 		{
; 178  : 			//VJ 050301 add this to prevent crash when in 3D cockpit
; 179  : 			if (command_line_3d_cockpit)

  0002a	83 3d 00 00 00
	00 00		 cmp	 DWORD PTR ?command_line_3d_cockpit@@3HA, 0 ; command_line_3d_cockpit
  00031	74 05		 je	 SHORT $LN5@set_specia

; 180  : 				break;

  00033	e9 6c 01 00 00	 jmp	 $LN1@set_specia
$LN5@set_specia:

; 181  : 			if (view_mode != VIEW_MODE_COCKPIT_PANEL_SPECIAL_APACHE_LHS_MFD)

  00038	83 3d 00 00 00
	00 1c		 cmp	 DWORD PTR ?view_mode@@3W4VIEW_MODES@@A, 28 ; view_mode, 0000001cH
  0003f	74 09		 je	 SHORT $LN6@set_specia

; 182  : 			{
; 183  : 				set_view_mode (VIEW_MODE_COCKPIT_PANEL_SPECIAL_APACHE_LHS_MFD);

  00041	6a 1c		 push	 28			; 0000001cH
  00043	e8 00 00 00 00	 call	 ?set_view_mode@@YGHW4VIEW_MODES@@@Z ; set_view_mode

; 184  : 			}
; 185  : 			else

  00048	eb 07		 jmp	 SHORT $LN7@set_specia
$LN6@set_specia:

; 186  : 			{
; 187  : 				set_view_mode (VIEW_MODE_COCKPIT_PANEL_DOWN20_AHEAD);

  0004a	6a 18		 push	 24			; 00000018H
  0004c	e8 00 00 00 00	 call	 ?set_view_mode@@YGHW4VIEW_MODES@@@Z ; set_view_mode
$LN7@set_specia:

; 188  : 			}
; 189  : 
; 190  : 			break;

  00051	e9 4e 01 00 00	 jmp	 $LN1@set_specia
$LN8@set_specia:

; 191  : 		}
; 192  : 		////////////////////////////////////////
; 193  : 		case GUNSHIP_TYPE_HAVOC:
; 194  : 		////////////////////////////////////////
; 195  : 		{
; 196  : 			if (view_mode != VIEW_MODE_COCKPIT_PANEL_SPECIAL_HAVOC_TV)

  00056	83 3d 00 00 00
	00 1e		 cmp	 DWORD PTR ?view_mode@@3W4VIEW_MODES@@A, 30 ; view_mode, 0000001eH
  0005d	74 09		 je	 SHORT $LN9@set_specia

; 197  : 			{
; 198  : 				set_view_mode (VIEW_MODE_COCKPIT_PANEL_SPECIAL_HAVOC_TV);

  0005f	6a 1e		 push	 30			; 0000001eH
  00061	e8 00 00 00 00	 call	 ?set_view_mode@@YGHW4VIEW_MODES@@@Z ; set_view_mode

; 199  : 			}
; 200  : 			else

  00066	eb 07		 jmp	 SHORT $LN10@set_specia
$LN9@set_specia:

; 201  : 			{
; 202  : 				set_view_mode (VIEW_MODE_COCKPIT_PANEL_DOWN20_AHEAD);

  00068	6a 18		 push	 24			; 00000018H
  0006a	e8 00 00 00 00	 call	 ?set_view_mode@@YGHW4VIEW_MODES@@@Z ; set_view_mode
$LN10@set_specia:

; 203  : 			}
; 204  : 
; 205  : 			break;

  0006f	e9 30 01 00 00	 jmp	 $LN1@set_specia
$LN11@set_specia:

; 206  : 		}
; 207  : 		////////////////////////////////////////
; 208  : 		case GUNSHIP_TYPE_COMANCHE:
; 209  : 		////////////////////////////////////////
; 210  : 		{
; 211  : 			if (get_crew_role () == CREW_ROLE_PILOT)

  00074	e8 00 00 00 00	 call	 ?get_crew_role@@YG?AW4CREW_ROLES@@XZ ; get_crew_role
  00079	85 c0		 test	 eax, eax
  0007b	75 1b		 jne	 SHORT $LN12@set_specia

; 212  : 			{
; 213  : 				if (view_mode != VIEW_MODE_VIRTUAL_COCKPIT_PILOT_LHS_DISPLAY)

  0007d	83 3d 00 00 00
	00 26		 cmp	 DWORD PTR ?view_mode@@3W4VIEW_MODES@@A, 38 ; view_mode, 00000026H
  00084	74 09		 je	 SHORT $LN14@set_specia

; 214  : 				{
; 215  : 					set_view_mode (VIEW_MODE_VIRTUAL_COCKPIT_PILOT_LHS_DISPLAY);

  00086	6a 26		 push	 38			; 00000026H
  00088	e8 00 00 00 00	 call	 ?set_view_mode@@YGHW4VIEW_MODES@@@Z ; set_view_mode

; 216  : 				}
; 217  : 				else

  0008d	eb 07		 jmp	 SHORT $LN15@set_specia
$LN14@set_specia:

; 218  : 				{
; 219  : 					set_view_mode (VIEW_MODE_COCKPIT_PANEL_DOWN20_AHEAD);

  0008f	6a 18		 push	 24			; 00000018H
  00091	e8 00 00 00 00	 call	 ?set_view_mode@@YGHW4VIEW_MODES@@@Z ; set_view_mode
$LN15@set_specia:

; 220  : 				}
; 221  : 			}
; 222  : 			else

  00096	eb 19		 jmp	 SHORT $LN13@set_specia
$LN12@set_specia:

; 223  : 			{
; 224  : 				if (view_mode != VIEW_MODE_VIRTUAL_COCKPIT_CO_PILOT_LHS_DISPLAY)

  00098	83 3d 00 00 00
	00 28		 cmp	 DWORD PTR ?view_mode@@3W4VIEW_MODES@@A, 40 ; view_mode, 00000028H
  0009f	74 09		 je	 SHORT $LN16@set_specia

; 225  : 				{
; 226  : 					set_view_mode (VIEW_MODE_VIRTUAL_COCKPIT_CO_PILOT_LHS_DISPLAY);

  000a1	6a 28		 push	 40			; 00000028H
  000a3	e8 00 00 00 00	 call	 ?set_view_mode@@YGHW4VIEW_MODES@@@Z ; set_view_mode

; 227  : 				}
; 228  : 				else

  000a8	eb 07		 jmp	 SHORT $LN13@set_specia
$LN16@set_specia:

; 229  : 				{
; 230  : 					set_view_mode (VIEW_MODE_COCKPIT_PANEL_DOWN20_AHEAD);

  000aa	6a 18		 push	 24			; 00000018H
  000ac	e8 00 00 00 00	 call	 ?set_view_mode@@YGHW4VIEW_MODES@@@Z ; set_view_mode
$LN13@set_specia:

; 231  : 				}
; 232  : 			}
; 233  : 
; 234  : 			break;

  000b1	e9 ee 00 00 00	 jmp	 $LN1@set_specia
$LN18@set_specia:

; 235  : 		}
; 236  : 		////////////////////////////////////////
; 237  : 		case GUNSHIP_TYPE_HOKUM:
; 238  : 		////////////////////////////////////////
; 239  : 		{
; 240  : 			if (get_crew_role () == CREW_ROLE_PILOT)

  000b6	e8 00 00 00 00	 call	 ?get_crew_role@@YG?AW4CREW_ROLES@@XZ ; get_crew_role
  000bb	85 c0		 test	 eax, eax
  000bd	75 1b		 jne	 SHORT $LN19@set_specia

; 241  : 			{
; 242  : 				if (view_mode != VIEW_MODE_VIRTUAL_COCKPIT_PILOT_LHS_DISPLAY)

  000bf	83 3d 00 00 00
	00 26		 cmp	 DWORD PTR ?view_mode@@3W4VIEW_MODES@@A, 38 ; view_mode, 00000026H
  000c6	74 09		 je	 SHORT $LN21@set_specia

; 243  : 				{
; 244  : 					set_view_mode (VIEW_MODE_VIRTUAL_COCKPIT_PILOT_LHS_DISPLAY);

  000c8	6a 26		 push	 38			; 00000026H
  000ca	e8 00 00 00 00	 call	 ?set_view_mode@@YGHW4VIEW_MODES@@@Z ; set_view_mode

; 245  : 				}
; 246  : 				else

  000cf	eb 07		 jmp	 SHORT $LN22@set_specia
$LN21@set_specia:

; 247  : 				{
; 248  : 					set_view_mode (VIEW_MODE_COCKPIT_PANEL_DOWN20_AHEAD);

  000d1	6a 18		 push	 24			; 00000018H
  000d3	e8 00 00 00 00	 call	 ?set_view_mode@@YGHW4VIEW_MODES@@@Z ; set_view_mode
$LN22@set_specia:

; 249  : 				}
; 250  : 			}
; 251  : 			else

  000d8	eb 19		 jmp	 SHORT $LN20@set_specia
$LN19@set_specia:

; 252  : 			{
; 253  : 				if (view_mode != VIEW_MODE_VIRTUAL_COCKPIT_CO_PILOT_LHS_DISPLAY)

  000da	83 3d 00 00 00
	00 28		 cmp	 DWORD PTR ?view_mode@@3W4VIEW_MODES@@A, 40 ; view_mode, 00000028H
  000e1	74 09		 je	 SHORT $LN23@set_specia

; 254  : 				{
; 255  : 					set_view_mode (VIEW_MODE_VIRTUAL_COCKPIT_CO_PILOT_LHS_DISPLAY);

  000e3	6a 28		 push	 40			; 00000028H
  000e5	e8 00 00 00 00	 call	 ?set_view_mode@@YGHW4VIEW_MODES@@@Z ; set_view_mode

; 256  : 				}
; 257  : 				else

  000ea	eb 07		 jmp	 SHORT $LN20@set_specia
$LN23@set_specia:

; 258  : 				{
; 259  : 					set_view_mode (VIEW_MODE_COCKPIT_PANEL_DOWN20_AHEAD);

  000ec	6a 18		 push	 24			; 00000018H
  000ee	e8 00 00 00 00	 call	 ?set_view_mode@@YGHW4VIEW_MODES@@@Z ; set_view_mode
$LN20@set_specia:

; 260  : 				}
; 261  : 			}
; 262  : 
; 263  : 			break;

  000f3	e9 ac 00 00 00	 jmp	 $LN1@set_specia
$LN25@set_specia:

; 264  : 		}
; 265  : 		////Moje 030518 Start
; 266  : 		case GUNSHIP_TYPE_BLACKHAWK:
; 267  : 		////////////////////////////////////////
; 268  : 		{
; 269  : 			if (view_mode != VIEW_MODE_COCKPIT_PANEL_SPECIAL_APACHE_LHS_MFD)

  000f8	83 3d 00 00 00
	00 1c		 cmp	 DWORD PTR ?view_mode@@3W4VIEW_MODES@@A, 28 ; view_mode, 0000001cH
  000ff	74 09		 je	 SHORT $LN26@set_specia

; 270  : 			{
; 271  : 				set_view_mode (VIEW_MODE_COCKPIT_PANEL_SPECIAL_APACHE_LHS_MFD);

  00101	6a 1c		 push	 28			; 0000001cH
  00103	e8 00 00 00 00	 call	 ?set_view_mode@@YGHW4VIEW_MODES@@@Z ; set_view_mode

; 272  : 			}
; 273  : 			else

  00108	eb 07		 jmp	 SHORT $LN27@set_specia
$LN26@set_specia:

; 274  : 			{
; 275  : 				set_view_mode (VIEW_MODE_COCKPIT_PANEL_DOWN20_AHEAD);

  0010a	6a 18		 push	 24			; 00000018H
  0010c	e8 00 00 00 00	 call	 ?set_view_mode@@YGHW4VIEW_MODES@@@Z ; set_view_mode
$LN27@set_specia:

; 276  : 			}
; 277  : 
; 278  : 			break;

  00111	e9 8e 00 00 00	 jmp	 $LN1@set_specia
$LN28@set_specia:

; 279  : 		}
; 280  : 		////Moje 030518 End
; 281  : 		////Moje 030612 start
; 282  : 		////////////////////////////////////////
; 283  : 		case GUNSHIP_TYPE_HIND:
; 284  : 		////////////////////////////////////////
; 285  : 		{
; 286  : 			if (view_mode != VIEW_MODE_COCKPIT_PANEL_SPECIAL_HAVOC_HUD)

  00116	83 3d 00 00 00
	00 1f		 cmp	 DWORD PTR ?view_mode@@3W4VIEW_MODES@@A, 31 ; view_mode, 0000001fH
  0011d	74 09		 je	 SHORT $LN29@set_specia

; 287  : 			{
; 288  : 				set_view_mode (VIEW_MODE_COCKPIT_PANEL_SPECIAL_HAVOC_HUD);

  0011f	6a 1f		 push	 31			; 0000001fH
  00121	e8 00 00 00 00	 call	 ?set_view_mode@@YGHW4VIEW_MODES@@@Z ; set_view_mode

; 289  : 			}
; 290  : 			else

  00126	eb 07		 jmp	 SHORT $LN30@set_specia
$LN29@set_specia:

; 291  : 			{
; 292  : 				set_view_mode (VIEW_MODE_COCKPIT_PANEL_DOWN20_AHEAD);

  00128	6a 18		 push	 24			; 00000018H
  0012a	e8 00 00 00 00	 call	 ?set_view_mode@@YGHW4VIEW_MODES@@@Z ; set_view_mode
$LN30@set_specia:

; 293  : 			}
; 294  : 
; 295  : 			break;

  0012f	eb 73		 jmp	 SHORT $LN1@set_specia
$LN31@set_specia:

; 296  : 		}
; 297  : 		////Moje 030612 end
; 298  : 		////Moje 030816 Start
; 299  : 		case GUNSHIP_TYPE_AH64A:
; 300  : 		////////////////////////////////////////
; 301  : 		{
; 302  : 			if (view_mode != VIEW_MODE_COCKPIT_PANEL_SPECIAL_APACHE_LHS_MFD)

  00131	83 3d 00 00 00
	00 1c		 cmp	 DWORD PTR ?view_mode@@3W4VIEW_MODES@@A, 28 ; view_mode, 0000001cH
  00138	74 09		 je	 SHORT $LN32@set_specia

; 303  : 			{
; 304  : 				set_view_mode (VIEW_MODE_COCKPIT_PANEL_SPECIAL_APACHE_LHS_MFD);

  0013a	6a 1c		 push	 28			; 0000001cH
  0013c	e8 00 00 00 00	 call	 ?set_view_mode@@YGHW4VIEW_MODES@@@Z ; set_view_mode

; 305  : 			}
; 306  : 			else

  00141	eb 07		 jmp	 SHORT $LN33@set_specia
$LN32@set_specia:

; 307  : 			{
; 308  : 				set_view_mode (VIEW_MODE_COCKPIT_PANEL_DOWN20_AHEAD);

  00143	6a 18		 push	 24			; 00000018H
  00145	e8 00 00 00 00	 call	 ?set_view_mode@@YGHW4VIEW_MODES@@@Z ; set_view_mode
$LN33@set_specia:

; 309  : 			}
; 310  : 
; 311  : 			break;

  0014a	eb 58		 jmp	 SHORT $LN1@set_specia
$LN34@set_specia:

; 312  : 		}
; 313  : 		////////////////////////////////////////
; 314  : 		case GUNSHIP_TYPE_KA50:
; 315  : 		////////////////////////////////////////
; 316  : 		{
; 317  : 			if (view_mode != VIEW_MODE_VIRTUAL_COCKPIT_PILOT_LHS_DISPLAY)

  0014c	83 3d 00 00 00
	00 26		 cmp	 DWORD PTR ?view_mode@@3W4VIEW_MODES@@A, 38 ; view_mode, 00000026H
  00153	74 09		 je	 SHORT $LN35@set_specia

; 318  : 			{
; 319  : 				set_view_mode (VIEW_MODE_VIRTUAL_COCKPIT_PILOT_LHS_DISPLAY);

  00155	6a 26		 push	 38			; 00000026H
  00157	e8 00 00 00 00	 call	 ?set_view_mode@@YGHW4VIEW_MODES@@@Z ; set_view_mode

; 320  : 			}
; 321  : 			else

  0015c	eb 07		 jmp	 SHORT $LN36@set_specia
$LN35@set_specia:

; 322  : 			{
; 323  : 				set_view_mode (VIEW_MODE_COCKPIT_PANEL_DOWN20_AHEAD);

  0015e	6a 18		 push	 24			; 00000018H
  00160	e8 00 00 00 00	 call	 ?set_view_mode@@YGHW4VIEW_MODES@@@Z ; set_view_mode
$LN36@set_specia:

; 324  : 			}
; 325  : 
; 326  : 			break;

  00165	eb 3d		 jmp	 SHORT $LN1@set_specia
$LN37@set_specia:

; 327  : 		}
; 328  : 		////Moje 030816 end
; 329  : 		////////////////////////////////////////
; 330  : 		case GUNSHIP_TYPE_VIPER:
; 331  : 		////////////////////////////////////////
; 332  : 		case GUNSHIP_TYPE_KIOWA:
; 333  : 		////////////////////////////////////////
; 334  : 		{
; 335  : 			if (get_crew_role () == CREW_ROLE_PILOT)

  00167	e8 00 00 00 00	 call	 ?get_crew_role@@YG?AW4CREW_ROLES@@XZ ; get_crew_role
  0016c	85 c0		 test	 eax, eax
  0016e	75 1b		 jne	 SHORT $LN38@set_specia

; 336  : 			{
; 337  : 				if (view_mode != VIEW_MODE_VIRTUAL_COCKPIT_PILOT_LHS_DISPLAY)

  00170	83 3d 00 00 00
	00 26		 cmp	 DWORD PTR ?view_mode@@3W4VIEW_MODES@@A, 38 ; view_mode, 00000026H
  00177	74 09		 je	 SHORT $LN40@set_specia

; 338  : 				{
; 339  : 					set_view_mode (VIEW_MODE_VIRTUAL_COCKPIT_PILOT_LHS_DISPLAY);

  00179	6a 26		 push	 38			; 00000026H
  0017b	e8 00 00 00 00	 call	 ?set_view_mode@@YGHW4VIEW_MODES@@@Z ; set_view_mode

; 340  : 				}
; 341  : 				else

  00180	eb 07		 jmp	 SHORT $LN41@set_specia
$LN40@set_specia:

; 342  : 				{
; 343  : 					set_view_mode (VIEW_MODE_COCKPIT_PANEL_DOWN20_AHEAD);

  00182	6a 18		 push	 24			; 00000018H
  00184	e8 00 00 00 00	 call	 ?set_view_mode@@YGHW4VIEW_MODES@@@Z ; set_view_mode
$LN41@set_specia:

; 344  : 				}
; 345  : 			}
; 346  : 			else

  00189	eb 19		 jmp	 SHORT $LN1@set_specia
$LN38@set_specia:

; 347  : 			{
; 348  : 				if (view_mode != VIEW_MODE_VIRTUAL_COCKPIT_CO_PILOT_LHS_DISPLAY)

  0018b	83 3d 00 00 00
	00 28		 cmp	 DWORD PTR ?view_mode@@3W4VIEW_MODES@@A, 40 ; view_mode, 00000028H
  00192	74 09		 je	 SHORT $LN42@set_specia

; 349  : 				{
; 350  : 					set_view_mode (VIEW_MODE_VIRTUAL_COCKPIT_CO_PILOT_LHS_DISPLAY);

  00194	6a 28		 push	 40			; 00000028H
  00196	e8 00 00 00 00	 call	 ?set_view_mode@@YGHW4VIEW_MODES@@@Z ; set_view_mode

; 351  : 				}
; 352  : 				else

  0019b	eb 07		 jmp	 SHORT $LN1@set_specia
$LN42@set_specia:

; 353  : 				{
; 354  : 					set_view_mode (VIEW_MODE_COCKPIT_PANEL_DOWN20_AHEAD);

  0019d	6a 18		 push	 24			; 00000018H
  0019f	e8 00 00 00 00	 call	 ?set_view_mode@@YGHW4VIEW_MODES@@@Z ; set_view_mode
$LN1@set_specia:

; 355  : 				}
; 356  : 			}
; 357  : 
; 358  : 			break;
; 359  : 		}
; 360  : 		////////////////////////////////////////
; 361  : 	}
; 362  : }

  001a4	5f		 pop	 edi
  001a5	5e		 pop	 esi
  001a6	5b		 pop	 ebx
  001a7	8b e5		 mov	 esp, ebp
  001a9	5d		 pop	 ebp
  001aa	c3		 ret	 0
  001ab	90		 npad	 1
$LN45@set_specia:
  001ac	00 00 00 00	 DD	 $LN8@set_specia
  001b0	00 00 00 00	 DD	 $LN11@set_specia
  001b4	00 00 00 00	 DD	 $LN18@set_specia
  001b8	00 00 00 00	 DD	 $LN25@set_specia
  001bc	00 00 00 00	 DD	 $LN28@set_specia
  001c0	00 00 00 00	 DD	 $LN31@set_specia
  001c4	00 00 00 00	 DD	 $LN34@set_specia
  001c8	00 00 00 00	 DD	 $LN37@set_specia
  001cc	00 00 00 00	 DD	 $LN37@set_specia
?set_special1_view_mode@@YGXXZ ENDP			; set_special1_view_mode
_TEXT	ENDS
; Function compile flags: /Odtp /ZI
; File c:\users\nhv90\projects\eech\aphavoc\source\gunships\views\vm_event.c
;	COMDAT ?update_joystick_pov_position@@YGXXZ
_TEXT	SEGMENT
tv76 = -76						; size = 4
_previous_joystick_pov_centred$ = -8			; size = 4
_joystick_pov_position$ = -4				; size = 4
?update_joystick_pov_position@@YGXXZ PROC		; update_joystick_pov_position, COMDAT

; 2545 : {

  00000	55		 push	 ebp
  00001	8b ec		 mov	 ebp, esp
  00003	83 ec 4c	 sub	 esp, 76			; 0000004cH
  00006	53		 push	 ebx
  00007	56		 push	 esi
  00008	57		 push	 edi

; 2546 : 	joystick_hat_position
; 2547 : 		joystick_pov_position;
; 2548 : 
; 2549 : 	int
; 2550 : 		previous_joystick_pov_centred;
; 2551 : 
; 2552 : 	previous_joystick_pov_centred = joystick_pov_centred;

  00009	a1 00 00 00 00	 mov	 eax, DWORD PTR ?joystick_pov_centred@@3HA ; joystick_pov_centred
  0000e	89 45 f8	 mov	 DWORD PTR _previous_joystick_pov_centred$[ebp], eax

; 2553 : 
; 2554 : 	joystick_pov_engage = FALSE;

  00011	c7 05 00 00 00
	00 00 00 00 00	 mov	 DWORD PTR ?joystick_pov_engage@@3HA, 0 ; joystick_pov_engage

; 2555 : 
; 2556 : 	joystick_pov_disengage = FALSE;

  0001b	c7 05 00 00 00
	00 00 00 00 00	 mov	 DWORD PTR ?joystick_pov_disengage@@3HA, 0 ; joystick_pov_disengage

; 2557 : 
; 2558 : 	joystick_pov_centred = FALSE;

  00025	c7 05 00 00 00
	00 00 00 00 00	 mov	 DWORD PTR ?joystick_pov_centred@@3HA, 0 ; joystick_pov_centred

; 2559 : 
; 2560 : 	joystick_pov_left = FALSE;

  0002f	c7 05 00 00 00
	00 00 00 00 00	 mov	 DWORD PTR ?joystick_pov_left@@3HA, 0 ; joystick_pov_left

; 2561 : 
; 2562 : 	joystick_pov_right = FALSE;

  00039	c7 05 00 00 00
	00 00 00 00 00	 mov	 DWORD PTR ?joystick_pov_right@@3HA, 0 ; joystick_pov_right

; 2563 : 
; 2564 : 	joystick_pov_up = FALSE;

  00043	c7 05 00 00 00
	00 00 00 00 00	 mov	 DWORD PTR ?joystick_pov_up@@3HA, 0 ; joystick_pov_up

; 2565 : 
; 2566 : 	joystick_pov_down = FALSE;

  0004d	c7 05 00 00 00
	00 00 00 00 00	 mov	 DWORD PTR ?joystick_pov_down@@3HA, 0 ; joystick_pov_down

; 2567 : 
; 2568 : 	if (get_global_cyclic_input () == JOYSTICK_INPUT)

  00057	83 3d 28 00 00
	00 02		 cmp	 DWORD PTR ?global_options@@3UGLOBAL_OPTIONS_DATA@@A+40, 2
  0005e	0f 85 d3 00 00
	00		 jne	 $LN4@update_joy

; 2569 : 	{
; 2570 : #ifdef WIN32
; 2571 : // Retro_dead_18Jul2004		if (joystick_devices[global_options.joystick_device_index].joystick_has_pov)
; 2572 : 		if (joystick_devices[command_line_cyclic_joystick_index].joystick_has_pov)

  00064	69 05 00 00 00
	00 b0 08 00 00	 imul	 eax, DWORD PTR ?command_line_cyclic_joystick_index@@3HA, 2224 ; command_line_cyclic_joystick_index
  0006e	8b 0d 00 00 00
	00		 mov	 ecx, DWORD PTR ?joystick_devices@@3PAUJOYSTICK_DEVICE_INFO@@A ; joystick_devices
  00074	8b 54 01 08	 mov	 edx, DWORD PTR [ecx+eax+8]
  00078	c1 ea 09	 shr	 edx, 9
  0007b	83 e2 01	 and	 edx, 1
  0007e	0f 84 a7 00 00
	00		 je	 $LN6@update_joy

; 2573 : #else
; 2574 : // Retro_dead_18Jul2004		if (joystick_devices[global_options.joystick_device_index].number_of_hats > 0)
; 2575 : 		if (joystick_devices[command_line_cyclic_joystick_index].number_of_hats > 0)
; 2576 : #endif
; 2577 : 		{
; 2578 : // Retro_dead_18Jul2004			joystick_pov_position = get_joystick_hat( &joystick_devices[global_options.joystick_device_index], 0 );
; 2579 : 			joystick_pov_position = get_joystick_hat( &joystick_devices[command_line_cyclic_joystick_index], 0 );

  00084	6a 00		 push	 0
  00086	69 05 00 00 00
	00 b0 08 00 00	 imul	 eax, DWORD PTR ?command_line_cyclic_joystick_index@@3HA, 2224 ; command_line_cyclic_joystick_index
  00090	03 05 00 00 00
	00		 add	 eax, DWORD PTR ?joystick_devices@@3PAUJOYSTICK_DEVICE_INFO@@A ; joystick_devices
  00096	50		 push	 eax
  00097	e8 00 00 00 00	 call	 ?get_joystick_hat@@YG?AW4JOYSTICK_HAT_POSITION@@PAUJOYSTICK_DEVICE_INFO@@H@Z ; get_joystick_hat
  0009c	89 45 fc	 mov	 DWORD PTR _joystick_pov_position$[ebp], eax

; 2580 : 
; 2581 : 			switch(joystick_pov_position) {

  0009f	8b 45 fc	 mov	 eax, DWORD PTR _joystick_pov_position$[ebp]
  000a2	89 45 b4	 mov	 DWORD PTR tv76[ebp], eax
  000a5	83 7d b4 04	 cmp	 DWORD PTR tv76[ebp], 4
  000a9	77 46		 ja	 SHORT $LN13@update_joy
  000ab	8b 4d b4	 mov	 ecx, DWORD PTR tv76[ebp]
  000ae	ff 24 8d 00 00
	00 00		 jmp	 DWORD PTR $LN19@update_joy[ecx*4]
$LN8@update_joy:

; 2582 : 			case HAT_CENTERED:
; 2583 : 				joystick_pov_centred = TRUE;

  000b5	c7 05 00 00 00
	00 01 00 00 00	 mov	 DWORD PTR ?joystick_pov_centred@@3HA, 1 ; joystick_pov_centred

; 2584 : 				break;

  000bf	eb 3a		 jmp	 SHORT $LN2@update_joy
$LN9@update_joy:

; 2585 : 			case HAT_UP:
; 2586 : 				joystick_pov_up = TRUE;

  000c1	c7 05 00 00 00
	00 01 00 00 00	 mov	 DWORD PTR ?joystick_pov_up@@3HA, 1 ; joystick_pov_up

; 2587 : 				break;

  000cb	eb 2e		 jmp	 SHORT $LN2@update_joy
$LN10@update_joy:

; 2588 : 			case HAT_RIGHT:
; 2589 : 				joystick_pov_right = TRUE;

  000cd	c7 05 00 00 00
	00 01 00 00 00	 mov	 DWORD PTR ?joystick_pov_right@@3HA, 1 ; joystick_pov_right

; 2590 : 				break;

  000d7	eb 22		 jmp	 SHORT $LN2@update_joy
$LN11@update_joy:

; 2591 : 			case HAT_DOWN:
; 2592 : 				joystick_pov_down = TRUE;

  000d9	c7 05 00 00 00
	00 01 00 00 00	 mov	 DWORD PTR ?joystick_pov_down@@3HA, 1 ; joystick_pov_down

; 2593 : 				break;

  000e3	eb 16		 jmp	 SHORT $LN2@update_joy
$LN12@update_joy:

; 2594 : 			case HAT_LEFT:
; 2595 : 				joystick_pov_left = TRUE;

  000e5	c7 05 00 00 00
	00 01 00 00 00	 mov	 DWORD PTR ?joystick_pov_left@@3HA, 1 ; joystick_pov_left

; 2596 : 				break;

  000ef	eb 0a		 jmp	 SHORT $LN2@update_joy
$LN13@update_joy:

; 2597 : 			default:
; 2598 : 				joystick_pov_up = TRUE;

  000f1	c7 05 00 00 00
	00 01 00 00 00	 mov	 DWORD PTR ?joystick_pov_up@@3HA, 1 ; joystick_pov_up
$LN2@update_joy:

; 2599 : 			}
; 2600 : 
; 2601 : 			if (previous_joystick_pov_centred)

  000fb	83 7d f8 00	 cmp	 DWORD PTR _previous_joystick_pov_centred$[ebp], 0
  000ff	74 15		 je	 SHORT $LN14@update_joy

; 2602 : 			{
; 2603 : 				if (!joystick_pov_centred)

  00101	83 3d 00 00 00
	00 00		 cmp	 DWORD PTR ?joystick_pov_centred@@3HA, 0 ; joystick_pov_centred
  00108	75 0a		 jne	 SHORT $LN16@update_joy

; 2604 : 				{
; 2605 : 					joystick_pov_engage = TRUE;

  0010a	c7 05 00 00 00
	00 01 00 00 00	 mov	 DWORD PTR ?joystick_pov_engage@@3HA, 1 ; joystick_pov_engage
$LN16@update_joy:

; 2606 : 				}
; 2607 : 			}
; 2608 : 			else

  00114	eb 13		 jmp	 SHORT $LN15@update_joy
$LN14@update_joy:

; 2609 : 			{
; 2610 : 				if (joystick_pov_centred)

  00116	83 3d 00 00 00
	00 00		 cmp	 DWORD PTR ?joystick_pov_centred@@3HA, 0 ; joystick_pov_centred
  0011d	74 0a		 je	 SHORT $LN15@update_joy

; 2611 : 				{
; 2612 : 					joystick_pov_disengage = TRUE;

  0011f	c7 05 00 00 00
	00 01 00 00 00	 mov	 DWORD PTR ?joystick_pov_disengage@@3HA, 1 ; joystick_pov_disengage
$LN15@update_joy:

; 2613 : 				}
; 2614 : 			}
; 2615 : 		}
; 2616 : 		else

  00129	eb 0a		 jmp	 SHORT $LN7@update_joy
$LN6@update_joy:

; 2617 : 		{
; 2618 : 			joystick_pov_centred = TRUE;

  0012b	c7 05 00 00 00
	00 01 00 00 00	 mov	 DWORD PTR ?joystick_pov_centred@@3HA, 1 ; joystick_pov_centred
$LN7@update_joy:

; 2619 : 		}
; 2620 : 	}
; 2621 : 	else

  00135	eb 0a		 jmp	 SHORT $LN1@update_joy
$LN4@update_joy:

; 2622 : 	{
; 2623 : 		joystick_pov_centred = TRUE;

  00137	c7 05 00 00 00
	00 01 00 00 00	 mov	 DWORD PTR ?joystick_pov_centred@@3HA, 1 ; joystick_pov_centred
$LN1@update_joy:

; 2624 : 	}
; 2625 : }

  00141	5f		 pop	 edi
  00142	5e		 pop	 esi
  00143	5b		 pop	 ebx
  00144	8b e5		 mov	 esp, ebp
  00146	5d		 pop	 ebp
  00147	c3		 ret	 0
$LN19@update_joy:
  00148	00 00 00 00	 DD	 $LN8@update_joy
  0014c	00 00 00 00	 DD	 $LN9@update_joy
  00150	00 00 00 00	 DD	 $LN10@update_joy
  00154	00 00 00 00	 DD	 $LN11@update_joy
  00158	00 00 00 00	 DD	 $LN12@update_joy
?update_joystick_pov_position@@YGXXZ ENDP		; update_joystick_pov_position
_TEXT	ENDS
; Function compile flags: /Odtp /ZI
; File c:\users\nhv90\projects\eech\aphavoc\source\gunships\views\vm_event.c
;	COMDAT ?pop_numpad_cockpit_view_events_overlay@@YGXXZ
_TEXT	SEGMENT
?pop_numpad_cockpit_view_events_overlay@@YGXXZ PROC	; pop_numpad_cockpit_view_events_overlay, COMDAT

; 2536 : {

  00000	55		 push	 ebp
  00001	8b ec		 mov	 ebp, esp
  00003	83 ec 40	 sub	 esp, 64			; 00000040H
  00006	53		 push	 ebx
  00007	56		 push	 esi
  00008	57		 push	 edi

; 2537 : 	pop_event (set_numpad_cockpit_view_events);

  00009	68 00 00 00 00	 push	 OFFSET ?set_numpad_cockpit_view_events@@YGXXZ ; set_numpad_cockpit_view_events
  0000e	e8 00 00 00 00	 call	 ?pop_event@@YGXP6GXXZ@Z	; pop_event

; 2538 : }

  00013	5f		 pop	 edi
  00014	5e		 pop	 esi
  00015	5b		 pop	 ebx
  00016	8b e5		 mov	 esp, ebp
  00018	5d		 pop	 ebp
  00019	c3		 ret	 0
?pop_numpad_cockpit_view_events_overlay@@YGXXZ ENDP	; pop_numpad_cockpit_view_events_overlay
_TEXT	ENDS
; Function compile flags: /Odtp /ZI
; File c:\users\nhv90\projects\eech\aphavoc\source\gunships\views\vm_event.c
;	COMDAT ?push_numpad_cockpit_view_events_overlay@@YGXXZ
_TEXT	SEGMENT
?push_numpad_cockpit_view_events_overlay@@YGXXZ PROC	; push_numpad_cockpit_view_events_overlay, COMDAT

; 2510 : {

  00000	55		 push	 ebp
  00001	8b ec		 mov	 ebp, esp
  00003	83 ec 40	 sub	 esp, 64			; 00000040H
  00006	53		 push	 ebx
  00007	56		 push	 esi
  00008	57		 push	 edi

; 2511 : 	stop_messaging_system (NULL);

  00009	6a 00		 push	 0
  0000b	e8 00 00 00 00	 call	 ?stop_messaging_system@@YGXPAUEVENT@@@Z ; stop_messaging_system

; 2512 : 
; 2513 : 	if (get_event_stack_head_function () == ingame_screen_set_events)

  00010	a1 00 00 00 00	 mov	 eax, DWORD PTR ?event_stack_head@@3PAUEVENT_STACK@@A ; event_stack_head
  00015	81 78 08 00 00
	00 00		 cmp	 DWORD PTR [eax+8], OFFSET ?ingame_screen_set_events@@YGXXZ ; ingame_screen_set_events
  0001c	75 4b		 jne	 SHORT $LN2@push_numpa

; 2514 : 	{
; 2515 : 		ASSERT (get_in_flight_game_mode () == IN_FLIGHT_GAME_MODE_PLANNER);

  0001e	83 3d 00 00 00
	00 01		 cmp	 DWORD PTR ?in_flight_game_mode@@3W4IN_FLIGHT_GAME_MODES@@A, 1 ; in_flight_game_mode
  00025	74 18		 je	 SHORT $LN4@push_numpa
  00027	a1 00 00 00 00	 mov	 eax, DWORD PTR ?__LINE__Var@?0??push_numpad_cockpit_view_events_overlay@@YGXXZ@4JA
  0002c	83 c0 05	 add	 eax, 5
  0002f	50		 push	 eax
  00030	68 00 00 00 00	 push	 OFFSET ??_C@_0EG@IIKBEODM@c?3?2users?2nhv90?2projects?2eech?2ap@
  00035	68 00 00 00 00	 push	 OFFSET ??_C@_0DK@MHDMJOIO@get_in_flight_game_mode?5?$CI?$CJ?5?$DN?$DN?5I@
  0003a	e8 00 00 00 00	 call	 ?process_assert@@YGXPBD0H@Z ; process_assert
$LN4@push_numpa:

; 2516 : 
; 2517 : 		pop_event (ingame_screen_set_events);

  0003f	68 00 00 00 00	 push	 OFFSET ?ingame_screen_set_events@@YGXXZ ; ingame_screen_set_events
  00044	e8 00 00 00 00	 call	 ?pop_event@@YGXP6GXXZ@Z	; pop_event

; 2518 : 
; 2519 : 		push_event_overlay (set_numpad_cockpit_view_events, "numpad cockpit view events");

  00049	68 00 00 00 00	 push	 OFFSET ??_C@_0BL@MJNAJJOI@numpad?5cockpit?5view?5events@
  0004e	68 00 00 00 00	 push	 OFFSET ?set_numpad_cockpit_view_events@@YGXXZ ; set_numpad_cockpit_view_events
  00053	e8 00 00 00 00	 call	 ?push_event_overlay@@YGXP6GXXZPBD@Z ; push_event_overlay

; 2520 : 
; 2521 : 		push_event (ingame_screen_set_events, "ingame screen events");

  00058	68 00 00 00 00	 push	 OFFSET ??_C@_0BF@JNEDHLHL@ingame?5screen?5events@
  0005d	68 00 00 00 00	 push	 OFFSET ?ingame_screen_set_events@@YGXXZ ; ingame_screen_set_events
  00062	e8 00 00 00 00	 call	 ?push_event@@YGXP6GXXZPBD@Z ; push_event

; 2522 : 	}
; 2523 : 	else

  00067	eb 30		 jmp	 SHORT $LN1@push_numpa
$LN2@push_numpa:

; 2524 : 	{
; 2525 : 		ASSERT (get_in_flight_game_mode () == IN_FLIGHT_GAME_MODE_SIMULATOR);

  00069	83 3d 00 00 00
	00 00		 cmp	 DWORD PTR ?in_flight_game_mode@@3W4IN_FLIGHT_GAME_MODES@@A, 0 ; in_flight_game_mode
  00070	74 18		 je	 SHORT $LN5@push_numpa
  00072	a1 00 00 00 00	 mov	 eax, DWORD PTR ?__LINE__Var@?0??push_numpad_cockpit_view_events_overlay@@YGXXZ@4JA
  00077	83 c0 0f	 add	 eax, 15			; 0000000fH
  0007a	50		 push	 eax
  0007b	68 00 00 00 00	 push	 OFFSET ??_C@_0EG@IIKBEODM@c?3?2users?2nhv90?2projects?2eech?2ap@
  00080	68 00 00 00 00	 push	 OFFSET ??_C@_0DM@EPAJECLB@get_in_flight_game_mode?5?$CI?$CJ?5?$DN?$DN?5I@
  00085	e8 00 00 00 00	 call	 ?process_assert@@YGXPBD0H@Z ; process_assert
$LN5@push_numpa:

; 2526 : 
; 2527 : 		push_event_overlay (set_numpad_cockpit_view_events, "numpad cockpit view events");

  0008a	68 00 00 00 00	 push	 OFFSET ??_C@_0BL@MJNAJJOI@numpad?5cockpit?5view?5events@
  0008f	68 00 00 00 00	 push	 OFFSET ?set_numpad_cockpit_view_events@@YGXXZ ; set_numpad_cockpit_view_events
  00094	e8 00 00 00 00	 call	 ?push_event_overlay@@YGXP6GXXZPBD@Z ; push_event_overlay
$LN1@push_numpa:

; 2528 : 	}
; 2529 : }

  00099	5f		 pop	 edi
  0009a	5e		 pop	 esi
  0009b	5b		 pop	 ebx
  0009c	8b e5		 mov	 esp, ebp
  0009e	5d		 pop	 ebp
  0009f	c3		 ret	 0
?push_numpad_cockpit_view_events_overlay@@YGXXZ ENDP	; push_numpad_cockpit_view_events_overlay
_TEXT	ENDS
; Function compile flags: /Odtp /ZI
; File c:\users\nhv90\projects\eech\aphavoc\source\gunships\views\vm_event.c
;	COMDAT ?initialise_view_events@@YGXXZ
_TEXT	SEGMENT
?initialise_view_events@@YGXXZ PROC			; initialise_view_events, COMDAT

; 123  : {

  00000	55		 push	 ebp
  00001	8b ec		 mov	 ebp, esp
  00003	83 ec 40	 sub	 esp, 64			; 00000040H
  00006	53		 push	 ebx
  00007	56		 push	 esi
  00008	57		 push	 edi

; 124  :    adjust_view_left_key = FALSE;

  00009	c7 05 00 00 00
	00 00 00 00 00	 mov	 DWORD PTR ?adjust_view_left_key@@3HA, 0 ; adjust_view_left_key

; 125  : 
; 126  :    adjust_view_right_key = FALSE;

  00013	c7 05 00 00 00
	00 00 00 00 00	 mov	 DWORD PTR ?adjust_view_right_key@@3HA, 0 ; adjust_view_right_key

; 127  : 
; 128  :    adjust_view_up_key = FALSE;

  0001d	c7 05 00 00 00
	00 00 00 00 00	 mov	 DWORD PTR ?adjust_view_up_key@@3HA, 0 ; adjust_view_up_key

; 129  : 
; 130  :    adjust_view_down_key = FALSE;

  00027	c7 05 00 00 00
	00 00 00 00 00	 mov	 DWORD PTR ?adjust_view_down_key@@3HA, 0 ; adjust_view_down_key

; 131  : 
; 132  : 	adjust_view_zoom_in_key = FALSE;

  00031	c7 05 00 00 00
	00 00 00 00 00	 mov	 DWORD PTR ?adjust_view_zoom_in_key@@3HA, 0 ; adjust_view_zoom_in_key

; 133  : 
; 134  : 	adjust_view_zoom_out_key = FALSE;

  0003b	c7 05 00 00 00
	00 00 00 00 00	 mov	 DWORD PTR ?adjust_view_zoom_out_key@@3HA, 0 ; adjust_view_zoom_out_key

; 135  : 
; 136  : 	joystick_pov_engage = FALSE;

  00045	c7 05 00 00 00
	00 00 00 00 00	 mov	 DWORD PTR ?joystick_pov_engage@@3HA, 0 ; joystick_pov_engage

; 137  : 
; 138  : 	joystick_pov_disengage = FALSE;

  0004f	c7 05 00 00 00
	00 00 00 00 00	 mov	 DWORD PTR ?joystick_pov_disengage@@3HA, 0 ; joystick_pov_disengage

; 139  : 
; 140  : 	joystick_pov_centred = TRUE;

  00059	c7 05 00 00 00
	00 01 00 00 00	 mov	 DWORD PTR ?joystick_pov_centred@@3HA, 1 ; joystick_pov_centred

; 141  : 
; 142  : 	joystick_pov_left = FALSE;

  00063	c7 05 00 00 00
	00 00 00 00 00	 mov	 DWORD PTR ?joystick_pov_left@@3HA, 0 ; joystick_pov_left

; 143  : 
; 144  : 	joystick_pov_right = FALSE;

  0006d	c7 05 00 00 00
	00 00 00 00 00	 mov	 DWORD PTR ?joystick_pov_right@@3HA, 0 ; joystick_pov_right

; 145  : 
; 146  : 	joystick_pov_up = FALSE;

  00077	c7 05 00 00 00
	00 00 00 00 00	 mov	 DWORD PTR ?joystick_pov_up@@3HA, 0 ; joystick_pov_up

; 147  : 
; 148  : 	joystick_pov_down = FALSE;

  00081	c7 05 00 00 00
	00 00 00 00 00	 mov	 DWORD PTR ?joystick_pov_down@@3HA, 0 ; joystick_pov_down

; 149  : 	
; 150  : //VJ 030318 wideview mod
; 151  :   	edit_wide_cockpit = FALSE;

  0008b	c7 05 00 00 00
	00 00 00 00 00	 mov	 DWORD PTR ?edit_wide_cockpit@@3HA, 0 ; edit_wide_cockpit

; 152  : 	set_global_wide_cockpit (FALSE);	

  00095	c7 05 00 00 00
	00 00 00 00 00	 mov	 DWORD PTR ?wide_cockpit@@3HA, 0 ; wide_cockpit

; 153  : 
; 154  : //VJ 030511 TSD render mod, linked to eech.ini
; 155  : 	tsd_render_mode = (tsd_render_modes) (command_line_tsd_render_mode + 1);

  0009f	a1 00 00 00 00	 mov	 eax, DWORD PTR ?command_line_tsd_render_mode@@3HA ; command_line_tsd_render_mode
  000a4	83 c0 01	 add	 eax, 1
  000a7	a3 00 00 00 00	 mov	 DWORD PTR ?tsd_render_mode@@3W4TSD_RENDER_MODES@@A, eax ; tsd_render_mode

; 156  : }

  000ac	5f		 pop	 edi
  000ad	5e		 pop	 esi
  000ae	5b		 pop	 ebx
  000af	8b e5		 mov	 esp, ebp
  000b1	5d		 pop	 ebp
  000b2	c3		 ret	 0
?initialise_view_events@@YGXXZ ENDP			; initialise_view_events
_TEXT	ENDS
; Function compile flags: /Odtp /ZI
; File c:\users\nhv90\projects\eech\aphavoc\source\gunships\views\vm_event.c
;	COMDAT ?set_gunship_view_mode_events@@YGXXZ
_TEXT	SEGMENT
?set_gunship_view_mode_events@@YGXXZ PROC		; set_gunship_view_mode_events, COMDAT

; 2336 : {

  00000	55		 push	 ebp
  00001	8b ec		 mov	 ebp, esp
  00003	83 ec 40	 sub	 esp, 64			; 00000040H
  00006	53		 push	 ebx
  00007	56		 push	 esi
  00008	57		 push	 edi

; 2337 : 	ASSERT (get_gunship_entity ());

  00009	83 3d 00 00 00
	00 00		 cmp	 DWORD PTR ?gunship_entity@@3PAUENTITY@@A, 0 ; gunship_entity
  00010	75 18		 jne	 SHORT $LN2@set_gunshi
  00012	a1 00 00 00 00	 mov	 eax, DWORD PTR ?__LINE__Var@?0??set_gunship_view_mode_events@@YGXXZ@4JA
  00017	83 c0 01	 add	 eax, 1
  0001a	50		 push	 eax
  0001b	68 00 00 00 00	 push	 OFFSET ??_C@_0EG@IIKBEODM@c?3?2users?2nhv90?2projects?2eech?2ap@
  00020	68 00 00 00 00	 push	 OFFSET ??_C@_0BG@EANNPEON@get_gunship_entity?5?$CI?$CJ@
  00025	e8 00 00 00 00	 call	 ?process_assert@@YGXPBD0H@Z ; process_assert
$LN2@set_gunshi:

; 2338 : 
; 2339 : 	////////////////////////////////////////
; 2340 : 	//
; 2341 : 	// pan
; 2342 : 	//
; 2343 : 	////////////////////////////////////////
; 2344 : 
; 2345 : 	if (get_apache_havoc_gunship ())

  0002a	a1 0c 00 00 00	 mov	 eax, DWORD PTR ?global_options@@3UGLOBAL_OPTIONS_DATA@@A+12
  0002f	0f b6 88 00 00
	00 00		 movzx	 ecx, BYTE PTR ?new_gunship@@3QBDB[eax]
  00036	85 c9		 test	 ecx, ecx
  00038	75 4c		 jne	 SHORT $LN3@set_gunshi

; 2346 : 	{
; 2347 : 		set_event (DIK_LEFT, MODIFIER_LEFT_CONTROL, KEY_STATE_DOWN, look_rel_left_event);

  0003a	68 00 00 00 00	 push	 OFFSET ?look_rel_left_event@@YGXPAUEVENT@@@Z ; look_rel_left_event
  0003f	6a 02		 push	 2
  00041	6a 02		 push	 2
  00043	68 cb 00 00 00	 push	 203			; 000000cbH
  00048	e8 00 00 00 00	 call	 ?set_event@@YGXHHHP6GXPAUEVENT@@@Z@Z ; set_event

; 2348 : 		set_event (DIK_RIGHT, MODIFIER_LEFT_CONTROL, KEY_STATE_DOWN, look_rel_right_event);

  0004d	68 00 00 00 00	 push	 OFFSET ?look_rel_right_event@@YGXPAUEVENT@@@Z ; look_rel_right_event
  00052	6a 02		 push	 2
  00054	6a 02		 push	 2
  00056	68 cd 00 00 00	 push	 205			; 000000cdH
  0005b	e8 00 00 00 00	 call	 ?set_event@@YGXHHHP6GXPAUEVENT@@@Z@Z ; set_event

; 2349 : 		set_event (DIK_UP, MODIFIER_LEFT_CONTROL, KEY_STATE_DOWN, look_rel_up_event);

  00060	68 00 00 00 00	 push	 OFFSET ?look_rel_up_event@@YGXPAUEVENT@@@Z ; look_rel_up_event
  00065	6a 02		 push	 2
  00067	6a 02		 push	 2
  00069	68 c8 00 00 00	 push	 200			; 000000c8H
  0006e	e8 00 00 00 00	 call	 ?set_event@@YGXHHHP6GXPAUEVENT@@@Z@Z ; set_event

; 2350 : 		set_event (DIK_DOWN, MODIFIER_LEFT_CONTROL, KEY_STATE_DOWN, look_rel_down_event);

  00073	68 00 00 00 00	 push	 OFFSET ?look_rel_down_event@@YGXPAUEVENT@@@Z ; look_rel_down_event
  00078	6a 02		 push	 2
  0007a	6a 02		 push	 2
  0007c	68 d0 00 00 00	 push	 208			; 000000d0H
  00081	e8 00 00 00 00	 call	 ?set_event@@YGXHHHP6GXPAUEVENT@@@Z@Z ; set_event
$LN3@set_gunshi:

; 2351 : /*
; 2352 : 		set_event (DIK_LEFT, MODIFIER_LEFT_SHIFT, KEY_STATE_DOWN, look_abs_left_event);
; 2353 : 		set_event (DIK_RIGHT, MODIFIER_LEFT_SHIFT, KEY_STATE_DOWN, look_abs_right_event);
; 2354 : 		set_event (DIK_UP, MODIFIER_LEFT_SHIFT, KEY_STATE_EITHER, look_abs_up_event);
; 2355 : 		set_event (DIK_DOWN, MODIFIER_LEFT_SHIFT, KEY_STATE_EITHER, look_abs_down_event);
; 2356 : */
; 2357 : 	}
; 2358 : 
; 2359 : 	set_event (DIK_LALT, MODIFIER_LEFT_ALT, KEY_STATE_UP, release_virtual_cockpit_event);

  00086	68 00 00 00 00	 push	 OFFSET ?release_virtual_cockpit_event@@YGXPAUEVENT@@@Z ; release_virtual_cockpit_event
  0008b	6a 01		 push	 1
  0008d	6a 03		 push	 3
  0008f	6a 38		 push	 56			; 00000038H
  00091	e8 00 00 00 00	 call	 ?set_event@@YGXHHHP6GXPAUEVENT@@@Z@Z ; set_event

; 2360 : 
; 2361 : 	////////////////////////////////////////
; 2362 : 	//
; 2363 : 	// main cockpit views
; 2364 : 	//
; 2365 : 	////////////////////////////////////////
; 2366 : 
; 2367 : 	set_event (DIK_F1, MODIFIER_NONE, KEY_STATE_DOWN, forward_view_event);

  00096	68 00 00 00 00	 push	 OFFSET ?forward_view_event@@YGXPAUEVENT@@@Z ; forward_view_event
  0009b	6a 02		 push	 2
  0009d	6a 00		 push	 0
  0009f	6a 3b		 push	 59			; 0000003bH
  000a1	e8 00 00 00 00	 call	 ?set_event@@YGXHHHP6GXPAUEVENT@@@Z@Z ; set_event

; 2368 : 	set_event (DIK_F1, MODIFIER_LEFT_CONTROL, KEY_STATE_DOWN, toggle_draw_cockpit_graphics_event);

  000a6	68 00 00 00 00	 push	 OFFSET ?toggle_draw_cockpit_graphics_event@@YGXPAUEVENT@@@Z ; toggle_draw_cockpit_graphics_event
  000ab	6a 02		 push	 2
  000ad	6a 02		 push	 2
  000af	6a 3b		 push	 59			; 0000003bH
  000b1	e8 00 00 00 00	 call	 ?set_event@@YGXHHHP6GXPAUEVENT@@@Z@Z ; set_event

; 2369 : 	set_event (DIK_F1, MODIFIER_LEFT_ALT, KEY_STATE_DOWN, toggle_unscaled_displays_event);

  000b6	68 00 00 00 00	 push	 OFFSET ?toggle_unscaled_displays_event@@YGXPAUEVENT@@@Z ; toggle_unscaled_displays_event
  000bb	6a 02		 push	 2
  000bd	6a 03		 push	 3
  000bf	6a 3b		 push	 59			; 0000003bH
  000c1	e8 00 00 00 00	 call	 ?set_event@@YGXHHHP6GXPAUEVENT@@@Z@Z ; set_event

; 2370 : 
; 2371 : 	set_event (DIK_F2, MODIFIER_NONE, KEY_STATE_DOWN, instrument_view_event);

  000c6	68 00 00 00 00	 push	 OFFSET ?instrument_view_event@@YGXPAUEVENT@@@Z ; instrument_view_event
  000cb	6a 02		 push	 2
  000cd	6a 00		 push	 0
  000cf	6a 3c		 push	 60			; 0000003cH
  000d1	e8 00 00 00 00	 call	 ?set_event@@YGXHHHP6GXPAUEVENT@@@Z@Z ; set_event

; 2372 : 	set_event (DIK_F2, MODIFIER_LEFT_ALT, KEY_STATE_DOWN, toggle_display_hud_on_external_view_event);

  000d6	68 00 00 00 00	 push	 OFFSET ?toggle_display_hud_on_external_view_event@@YGXPAUEVENT@@@Z ; toggle_display_hud_on_external_view_event
  000db	6a 02		 push	 2
  000dd	6a 03		 push	 3
  000df	6a 3c		 push	 60			; 0000003cH
  000e1	e8 00 00 00 00	 call	 ?set_event@@YGXHHHP6GXPAUEVENT@@@Z@Z ; set_event

; 2373 : 
; 2374 : 	if (get_apache_havoc_gunship ())

  000e6	a1 0c 00 00 00	 mov	 eax, DWORD PTR ?global_options@@3UGLOBAL_OPTIONS_DATA@@A+12
  000eb	0f b6 88 00 00
	00 00		 movzx	 ecx, BYTE PTR ?new_gunship@@3QBDB[eax]
  000f2	85 c9		 test	 ecx, ecx
  000f4	75 12		 jne	 SHORT $LN4@set_gunshi

; 2375 : 	{
; 2376 : 		set_event (DIK_F2, MODIFIER_LEFT_CONTROL, KEY_STATE_DOWN, toggle_draw_overlaid_instruments_event);

  000f6	68 00 00 00 00	 push	 OFFSET ?toggle_draw_overlaid_instruments_event@@YGXPAUEVENT@@@Z ; toggle_draw_overlaid_instruments_event
  000fb	6a 02		 push	 2
  000fd	6a 02		 push	 2
  000ff	6a 3c		 push	 60			; 0000003cH
  00101	e8 00 00 00 00	 call	 ?set_event@@YGXHHHP6GXPAUEVENT@@@Z@Z ; set_event

; 2377 : 	}
; 2378 : 	else

  00106	eb 40		 jmp	 SHORT $LN5@set_gunshi
$LN4@set_gunshi:

; 2379 : 	{
; 2380 : 		set_event (DIK_F2, MODIFIER_LEFT_CONTROL, KEY_STATE_DOWN, toggle_glass_cockpit_event);

  00108	68 00 00 00 00	 push	 OFFSET ?toggle_glass_cockpit_event@@YGXPAUEVENT@@@Z ; toggle_glass_cockpit_event
  0010d	6a 02		 push	 2
  0010f	6a 02		 push	 2
  00111	6a 3c		 push	 60			; 0000003cH
  00113	e8 00 00 00 00	 call	 ?set_event@@YGXHHHP6GXPAUEVENT@@@Z@Z ; set_event

; 2381 : 
; 2382 : 		set_event (DIK_F2, MODIFIER_LEFT_SHIFT, KEY_STATE_DOWN, hud_view_event);

  00118	68 00 00 00 00	 push	 OFFSET ?hud_view_event@@YGXPAUEVENT@@@Z ; hud_view_event
  0011d	6a 02		 push	 2
  0011f	6a 01		 push	 1
  00121	6a 3c		 push	 60			; 0000003cH
  00123	e8 00 00 00 00	 call	 ?set_event@@YGXHHHP6GXPAUEVENT@@@Z@Z ; set_event

; 2383 : 
; 2384 : 		set_event (DIK_F3, MODIFIER_LEFT_CONTROL, KEY_STATE_DOWN, decrease_cockpit_detail_event);

  00128	68 00 00 00 00	 push	 OFFSET ?decrease_cockpit_detail_event@@YGXPAUEVENT@@@Z ; decrease_cockpit_detail_event
  0012d	6a 02		 push	 2
  0012f	6a 02		 push	 2
  00131	6a 3d		 push	 61			; 0000003dH
  00133	e8 00 00 00 00	 call	 ?set_event@@YGXHHHP6GXPAUEVENT@@@Z@Z ; set_event

; 2385 : 		set_event (DIK_F4, MODIFIER_LEFT_CONTROL, KEY_STATE_DOWN, increase_cockpit_detail_event);

  00138	68 00 00 00 00	 push	 OFFSET ?increase_cockpit_detail_event@@YGXPAUEVENT@@@Z ; increase_cockpit_detail_event
  0013d	6a 02		 push	 2
  0013f	6a 02		 push	 2
  00141	6a 3e		 push	 62			; 0000003eH
  00143	e8 00 00 00 00	 call	 ?set_event@@YGXHHHP6GXPAUEVENT@@@Z@Z ; set_event
$LN5@set_gunshi:

; 2386 : 	}
; 2387 : 
; 2388 : 	set_event (DIK_F3, MODIFIER_LEFT_ALT, KEY_STATE_EITHER, decrease_fov_event);

  00148	68 00 00 00 00	 push	 OFFSET ?decrease_fov_event@@YGXPAUEVENT@@@Z ; decrease_fov_event
  0014d	6a 03		 push	 3
  0014f	6a 03		 push	 3
  00151	6a 3d		 push	 61			; 0000003dH
  00153	e8 00 00 00 00	 call	 ?set_event@@YGXHHHP6GXPAUEVENT@@@Z@Z ; set_event

; 2389 : 	set_event (DIK_F4, MODIFIER_LEFT_ALT, KEY_STATE_EITHER, increase_fov_event);

  00158	68 00 00 00 00	 push	 OFFSET ?increase_fov_event@@YGXPAUEVENT@@@Z ; increase_fov_event
  0015d	6a 03		 push	 3
  0015f	6a 03		 push	 3
  00161	6a 3e		 push	 62			; 0000003eH
  00163	e8 00 00 00 00	 call	 ?set_event@@YGXHHHP6GXPAUEVENT@@@Z@Z ; set_event

; 2390 : 	set_event (DIK_F3, MODIFIER_NONE, KEY_STATE_UP, decrease_fov_event);

  00168	68 00 00 00 00	 push	 OFFSET ?decrease_fov_event@@YGXPAUEVENT@@@Z ; decrease_fov_event
  0016d	6a 01		 push	 1
  0016f	6a 00		 push	 0
  00171	6a 3d		 push	 61			; 0000003dH
  00173	e8 00 00 00 00	 call	 ?set_event@@YGXHHHP6GXPAUEVENT@@@Z@Z ; set_event

; 2391 : 	set_event (DIK_F4, MODIFIER_NONE, KEY_STATE_UP, increase_fov_event);

  00178	68 00 00 00 00	 push	 OFFSET ?increase_fov_event@@YGXPAUEVENT@@@Z ; increase_fov_event
  0017d	6a 01		 push	 1
  0017f	6a 00		 push	 0
  00181	6a 3e		 push	 62			; 0000003eH
  00183	e8 00 00 00 00	 call	 ?set_event@@YGXHHHP6GXPAUEVENT@@@Z@Z ; set_event

; 2392 : 
; 2393 : 	set_event (DIK_F3, MODIFIER_NONE, KEY_STATE_DOWN, look_at_special1_event);

  00188	68 00 00 00 00	 push	 OFFSET ?look_at_special1_event@@YGXPAUEVENT@@@Z ; look_at_special1_event
  0018d	6a 02		 push	 2
  0018f	6a 00		 push	 0
  00191	6a 3d		 push	 61			; 0000003dH
  00193	e8 00 00 00 00	 call	 ?set_event@@YGXHHHP6GXPAUEVENT@@@Z@Z ; set_event

; 2394 : 	set_event (DIK_F4, MODIFIER_NONE, KEY_STATE_DOWN, look_at_special2_event);

  00198	68 00 00 00 00	 push	 OFFSET ?look_at_special2_event@@YGXPAUEVENT@@@Z ; look_at_special2_event
  0019d	6a 02		 push	 2
  0019f	6a 00		 push	 0
  001a1	6a 3e		 push	 62			; 0000003eH
  001a3	e8 00 00 00 00	 call	 ?set_event@@YGXHHHP6GXPAUEVENT@@@Z@Z ; set_event

; 2395 : 
; 2396 : 	if (get_comanche_hokum_gunship ())

  001a8	a1 0c 00 00 00	 mov	 eax, DWORD PTR ?global_options@@3UGLOBAL_OPTIONS_DATA@@A+12
  001ad	0f b6 88 00 00
	00 00		 movzx	 ecx, BYTE PTR ?new_gunship@@3QBDB[eax]
  001b4	85 c9		 test	 ecx, ecx
  001b6	74 4c		 je	 SHORT $LN6@set_gunshi

; 2397 : 	{
; 2398 : 		set_event (DIK_LEFT, MODIFIER_LEFT_CONTROL, KEY_STATE_DOWN, look_abs_left_event);

  001b8	68 00 00 00 00	 push	 OFFSET ?look_abs_left_event@@YGXPAUEVENT@@@Z ; look_abs_left_event
  001bd	6a 02		 push	 2
  001bf	6a 02		 push	 2
  001c1	68 cb 00 00 00	 push	 203			; 000000cbH
  001c6	e8 00 00 00 00	 call	 ?set_event@@YGXHHHP6GXPAUEVENT@@@Z@Z ; set_event

; 2399 : 		set_event (DIK_RIGHT, MODIFIER_LEFT_CONTROL, KEY_STATE_DOWN, look_abs_right_event);

  001cb	68 00 00 00 00	 push	 OFFSET ?look_abs_right_event@@YGXPAUEVENT@@@Z ; look_abs_right_event
  001d0	6a 02		 push	 2
  001d2	6a 02		 push	 2
  001d4	68 cd 00 00 00	 push	 205			; 000000cdH
  001d9	e8 00 00 00 00	 call	 ?set_event@@YGXHHHP6GXPAUEVENT@@@Z@Z ; set_event

; 2400 : 		set_event (DIK_UP, MODIFIER_LEFT_CONTROL, KEY_STATE_DOWN, forward_view_event);

  001de	68 00 00 00 00	 push	 OFFSET ?forward_view_event@@YGXPAUEVENT@@@Z ; forward_view_event
  001e3	6a 02		 push	 2
  001e5	6a 02		 push	 2
  001e7	68 c8 00 00 00	 push	 200			; 000000c8H
  001ec	e8 00 00 00 00	 call	 ?set_event@@YGXHHHP6GXPAUEVENT@@@Z@Z ; set_event

; 2401 : 		set_event (DIK_DOWN, MODIFIER_LEFT_CONTROL, KEY_STATE_DOWN, instrument_view_event);

  001f1	68 00 00 00 00	 push	 OFFSET ?instrument_view_event@@YGXPAUEVENT@@@Z ; instrument_view_event
  001f6	6a 02		 push	 2
  001f8	6a 02		 push	 2
  001fa	68 d0 00 00 00	 push	 208			; 000000d0H
  001ff	e8 00 00 00 00	 call	 ?set_event@@YGXHHHP6GXPAUEVENT@@@Z@Z ; set_event
$LN6@set_gunshi:

; 2402 : 
; 2403 : /*
; 2404 : 		set_event (DIK_LEFT, MODIFIER_LEFT_SHIFT, KEY_STATE_DOWN, look_at_special1_event);
; 2405 : 		set_event (DIK_RIGHT, MODIFIER_LEFT_SHIFT, KEY_STATE_DOWN, look_at_special2_event);
; 2406 : 		set_event (DIK_UP, MODIFIER_LEFT_SHIFT, KEY_STATE_DOWN, set_pilot_seat_position_event);
; 2407 : 		set_event (DIK_DOWN, MODIFIER_LEFT_SHIFT, KEY_STATE_DOWN, set_co_pilot_seat_position_event);
; 2408 : */
; 2409 : 	}
; 2410 : 
; 2411 : 	if (get_comanche_hokum_gunship () && get_global_gunship_type () != GUNSHIP_TYPE_KA50)

  00204	a1 0c 00 00 00	 mov	 eax, DWORD PTR ?global_options@@3UGLOBAL_OPTIONS_DATA@@A+12
  00209	0f b6 88 00 00
	00 00		 movzx	 ecx, BYTE PTR ?new_gunship@@3QBDB[eax]
  00210	85 c9		 test	 ecx, ecx
  00212	74 19		 je	 SHORT $LN7@set_gunshi
  00214	83 3d 0c 00 00
	00 07		 cmp	 DWORD PTR ?global_options@@3UGLOBAL_OPTIONS_DATA@@A+12, 7
  0021b	74 10		 je	 SHORT $LN7@set_gunshi

; 2412 : 	{
; 2413 : 		set_event (DIK_ESCAPE, MODIFIER_NONE, KEY_STATE_DOWN, switch_seat_position_event);

  0021d	68 00 00 00 00	 push	 OFFSET ?switch_seat_position_event@@YGXPAUEVENT@@@Z ; switch_seat_position_event
  00222	6a 02		 push	 2
  00224	6a 00		 push	 0
  00226	6a 01		 push	 1
  00228	e8 00 00 00 00	 call	 ?set_event@@YGXHHHP6GXPAUEVENT@@@Z@Z ; set_event
$LN7@set_gunshi:

; 2414 : 	}
; 2415 : 
; 2416 : 	set_event (DIK_0, MODIFIER_LEFT_SHIFT, KEY_STATE_DOWN, special_cockpit_toggle_event);

  0022d	68 00 00 00 00	 push	 OFFSET ?special_cockpit_toggle_event@@YGXPAUEVENT@@@Z ; special_cockpit_toggle_event
  00232	6a 02		 push	 2
  00234	6a 01		 push	 1
  00236	6a 0b		 push	 11			; 0000000bH
  00238	e8 00 00 00 00	 call	 ?set_event@@YGXHHHP6GXPAUEVENT@@@Z@Z ; set_event

; 2417 : 
; 2418 : //VJ wideview mod, date: 18-mar-03	
; 2419 : 	set_event (DIK_BACKSLASH, MODIFIER_NONE, KEY_STATE_DOWN, toggle_wideview_event);

  0023d	68 00 00 00 00	 push	 OFFSET ?toggle_wideview_event@@YGXPAUEVENT@@@Z ; toggle_wideview_event
  00242	6a 02		 push	 2
  00244	6a 00		 push	 0
  00246	6a 2b		 push	 43			; 0000002bH
  00248	e8 00 00 00 00	 call	 ?set_event@@YGXHHHP6GXPAUEVENT@@@Z@Z ; set_event

; 2420 : 	set_event (DIK_BACKSLASH, MODIFIER_LEFT_CONTROL, KEY_STATE_DOWN, toggle_wideview_edit_event);

  0024d	68 00 00 00 00	 push	 OFFSET ?toggle_wideview_edit_event@@YGXPAUEVENT@@@Z ; toggle_wideview_edit_event
  00252	6a 02		 push	 2
  00254	6a 02		 push	 2
  00256	6a 2b		 push	 43			; 0000002bH
  00258	e8 00 00 00 00	 call	 ?set_event@@YGXHHHP6GXPAUEVENT@@@Z@Z ; set_event

; 2421 : 
; 2422 : 	if (get_global_gunship_type () == GUNSHIP_TYPE_HOKUM)

  0025d	83 3d 0c 00 00
	00 03		 cmp	 DWORD PTR ?global_options@@3UGLOBAL_OPTIONS_DATA@@A+12, 3
  00264	75 69		 jne	 SHORT $LN8@set_gunshi

; 2423 : 	{
; 2424 : 		set_event (DIK_DELETE, MODIFIER_LEFT_ALT, KEY_STATE_DOWN, hokum_pilot_view1_event);

  00266	68 00 00 00 00	 push	 OFFSET ?hokum_pilot_view1_event@@YGXPAUEVENT@@@Z ; hokum_pilot_view1_event
  0026b	6a 02		 push	 2
  0026d	6a 03		 push	 3
  0026f	68 d3 00 00 00	 push	 211			; 000000d3H
  00274	e8 00 00 00 00	 call	 ?set_event@@YGXHHHP6GXPAUEVENT@@@Z@Z ; set_event

; 2425 : 		set_event (DIK_END, MODIFIER_LEFT_ALT, KEY_STATE_DOWN, hokum_pilot_view2_event);

  00279	68 00 00 00 00	 push	 OFFSET ?hokum_pilot_view2_event@@YGXPAUEVENT@@@Z ; hokum_pilot_view2_event
  0027e	6a 02		 push	 2
  00280	6a 03		 push	 3
  00282	68 cf 00 00 00	 push	 207			; 000000cfH
  00287	e8 00 00 00 00	 call	 ?set_event@@YGXHHHP6GXPAUEVENT@@@Z@Z ; set_event

; 2426 : 		set_event (DIK_NEXT, MODIFIER_LEFT_ALT, KEY_STATE_DOWN, hokum_pilot_view3_event);

  0028c	68 00 00 00 00	 push	 OFFSET ?hokum_pilot_view3_event@@YGXPAUEVENT@@@Z ; hokum_pilot_view3_event
  00291	6a 02		 push	 2
  00293	6a 03		 push	 3
  00295	68 d1 00 00 00	 push	 209			; 000000d1H
  0029a	e8 00 00 00 00	 call	 ?set_event@@YGXHHHP6GXPAUEVENT@@@Z@Z ; set_event

; 2427 : 
; 2428 : 		set_event (DIK_V, MODIFIER_LEFT_ALT, KEY_STATE_DOWN, hokum_pilot_view1_event);

  0029f	68 00 00 00 00	 push	 OFFSET ?hokum_pilot_view1_event@@YGXPAUEVENT@@@Z ; hokum_pilot_view1_event
  002a4	6a 02		 push	 2
  002a6	6a 03		 push	 3
  002a8	6a 2f		 push	 47			; 0000002fH
  002aa	e8 00 00 00 00	 call	 ?set_event@@YGXHHHP6GXPAUEVENT@@@Z@Z ; set_event

; 2429 : 		set_event (DIK_B, MODIFIER_LEFT_ALT, KEY_STATE_DOWN, hokum_pilot_view2_event);

  002af	68 00 00 00 00	 push	 OFFSET ?hokum_pilot_view2_event@@YGXPAUEVENT@@@Z ; hokum_pilot_view2_event
  002b4	6a 02		 push	 2
  002b6	6a 03		 push	 3
  002b8	6a 30		 push	 48			; 00000030H
  002ba	e8 00 00 00 00	 call	 ?set_event@@YGXHHHP6GXPAUEVENT@@@Z@Z ; set_event

; 2430 : 		set_event (DIK_N, MODIFIER_LEFT_ALT, KEY_STATE_DOWN, hokum_pilot_view3_event);

  002bf	68 00 00 00 00	 push	 OFFSET ?hokum_pilot_view3_event@@YGXPAUEVENT@@@Z ; hokum_pilot_view3_event
  002c4	6a 02		 push	 2
  002c6	6a 03		 push	 3
  002c8	6a 31		 push	 49			; 00000031H
  002ca	e8 00 00 00 00	 call	 ?set_event@@YGXHHHP6GXPAUEVENT@@@Z@Z ; set_event
$LN8@set_gunshi:

; 2431 : 	}
; 2432 : 
; 2433 : 	////////////////////////////////////////
; 2434 : 	//
; 2435 : 	// select object to view
; 2436 : 	//
; 2437 : 	////////////////////////////////////////
; 2438 : 
; 2439 : 	set_event (DIK_F5, MODIFIER_NONE, KEY_STATE_DOWN, players_gunship_event);

  002cf	68 00 00 00 00	 push	 OFFSET ?players_gunship_event@@YGXPAUEVENT@@@Z ; players_gunship_event
  002d4	6a 02		 push	 2
  002d6	6a 00		 push	 0
  002d8	6a 3f		 push	 63			; 0000003fH
  002da	e8 00 00 00 00	 call	 ?set_event@@YGXHHHP6GXPAUEVENT@@@Z@Z ; set_event

; 2440 : 
; 2441 : 	set_event (DIK_F6, MODIFIER_NONE, KEY_STATE_DOWN, players_target_event);

  002df	68 00 00 00 00	 push	 OFFSET ?players_target_event@@YGXPAUEVENT@@@Z ; players_target_event
  002e4	6a 02		 push	 2
  002e6	6a 00		 push	 0
  002e8	6a 40		 push	 64			; 00000040H
  002ea	e8 00 00 00 00	 call	 ?set_event@@YGXHHHP6GXPAUEVENT@@@Z@Z ; set_event

; 2442 : 	set_event (DIK_F6, MODIFIER_LEFT_ALT, KEY_STATE_DOWN, view_wingmen_event);

  002ef	68 00 00 00 00	 push	 OFFSET ?view_wingmen_event@@YGXPAUEVENT@@@Z ; view_wingmen_event
  002f4	6a 02		 push	 2
  002f6	6a 03		 push	 3
  002f8	6a 40		 push	 64			; 00000040H
  002fa	e8 00 00 00 00	 call	 ?set_event@@YGXHHHP6GXPAUEVENT@@@Z@Z ; set_event

; 2443 : 
; 2444 : 	set_event (DIK_F7, MODIFIER_NONE, KEY_STATE_DOWN, players_weapon_event);

  002ff	68 00 00 00 00	 push	 OFFSET ?players_weapon_event@@YGXPAUEVENT@@@Z ; players_weapon_event
  00304	6a 02		 push	 2
  00306	6a 00		 push	 0
  00308	6a 41		 push	 65			; 00000041H
  0030a	e8 00 00 00 00	 call	 ?set_event@@YGXHHHP6GXPAUEVENT@@@Z@Z ; set_event

; 2445 : 
; 2446 : 	set_event (DIK_F8, MODIFIER_NONE, KEY_STATE_DOWN, players_padlock_event);

  0030f	68 00 00 00 00	 push	 OFFSET ?players_padlock_event@@YGXPAUEVENT@@@Z ; players_padlock_event
  00314	6a 02		 push	 2
  00316	6a 00		 push	 0
  00318	6a 42		 push	 66			; 00000042H
  0031a	e8 00 00 00 00	 call	 ?set_event@@YGXHHHP6GXPAUEVENT@@@Z@Z ; set_event

; 2447 : 
; 2448 : 	set_event (DIK_EQUALS, MODIFIER_LEFT_ALT, KEY_STATE_DOWN, next_view_range_event);

  0031f	68 00 00 00 00	 push	 OFFSET ?next_view_range_event@@YGXPAUEVENT@@@Z ; next_view_range_event
  00324	6a 02		 push	 2
  00326	6a 03		 push	 3
  00328	6a 0d		 push	 13			; 0000000dH
  0032a	e8 00 00 00 00	 call	 ?set_event@@YGXHHHP6GXPAUEVENT@@@Z@Z ; set_event

; 2449 : 	set_event (DIK_MINUS, MODIFIER_LEFT_ALT, KEY_STATE_DOWN, previous_view_range_event);

  0032f	68 00 00 00 00	 push	 OFFSET ?previous_view_range_event@@YGXPAUEVENT@@@Z ; previous_view_range_event
  00334	6a 02		 push	 2
  00336	6a 03		 push	 3
  00338	6a 0c		 push	 12			; 0000000cH
  0033a	e8 00 00 00 00	 call	 ?set_event@@YGXHHHP6GXPAUEVENT@@@Z@Z ; set_event

; 2450 : 
; 2451 : 	set_event (DIK_NUMPADPLUS, MODIFIER_LEFT_ALT, KEY_STATE_DOWN, next_view_range_event);

  0033f	68 00 00 00 00	 push	 OFFSET ?next_view_range_event@@YGXPAUEVENT@@@Z ; next_view_range_event
  00344	6a 02		 push	 2
  00346	6a 03		 push	 3
  00348	6a 4e		 push	 78			; 0000004eH
  0034a	e8 00 00 00 00	 call	 ?set_event@@YGXHHHP6GXPAUEVENT@@@Z@Z ; set_event

; 2452 : 	set_event (DIK_NUMPADMINUS, MODIFIER_LEFT_ALT, KEY_STATE_DOWN, previous_view_range_event);

  0034f	68 00 00 00 00	 push	 OFFSET ?previous_view_range_event@@YGXPAUEVENT@@@Z ; previous_view_range_event
  00354	6a 02		 push	 2
  00356	6a 03		 push	 3
  00358	6a 4a		 push	 74			; 0000004aH
  0035a	e8 00 00 00 00	 call	 ?set_event@@YGXHHHP6GXPAUEVENT@@@Z@Z ; set_event

; 2453 : 
; 2454 : 	////////////////////////////////////////
; 2455 : 	//
; 2456 : 	// select camera
; 2457 : 	//
; 2458 : 	////////////////////////////////////////
; 2459 : 
; 2460 : 	if (get_comanche_hokum_gunship ())

  0035f	a1 0c 00 00 00	 mov	 eax, DWORD PTR ?global_options@@3UGLOBAL_OPTIONS_DATA@@A+12
  00364	0f b6 88 00 00
	00 00		 movzx	 ecx, BYTE PTR ?new_gunship@@3QBDB[eax]
  0036b	85 c9		 test	 ecx, ecx
  0036d	74 10		 je	 SHORT $LN9@set_gunshi

; 2461 : 	{
; 2462 : 		set_event (DIK_F11, MODIFIER_LEFT_CONTROL, KEY_STATE_DOWN, crew_camera_event);

  0036f	68 00 00 00 00	 push	 OFFSET ?crew_camera_event@@YGXPAUEVENT@@@Z ; crew_camera_event
  00374	6a 02		 push	 2
  00376	6a 02		 push	 2
  00378	6a 57		 push	 87			; 00000057H
  0037a	e8 00 00 00 00	 call	 ?set_event@@YGXHHHP6GXPAUEVENT@@@Z@Z ; set_event
$LN9@set_gunshi:

; 2463 : 	}
; 2464 : 
; 2465 : 	////////////////////////////////////////
; 2466 : 	//
; 2467 : 	// padlock views
; 2468 : 	//
; 2469 : 	////////////////////////////////////////
; 2470 : 
; 2471 : 	set_event (DIK_2, MODIFIER_NONE, KEY_STATE_DOWN, set_padlock_view_event);

  0037f	68 00 00 00 00	 push	 OFFSET ?set_padlock_view_event@@YGXPAUEVENT@@@Z ; set_padlock_view_event
  00384	6a 02		 push	 2
  00386	6a 00		 push	 0
  00388	6a 03		 push	 3
  0038a	e8 00 00 00 00	 call	 ?set_event@@YGXHHHP6GXPAUEVENT@@@Z@Z ; set_event

; 2472 : 	set_event (DIK_3, MODIFIER_NONE, KEY_STATE_DOWN, set_padlock_view_event);

  0038f	68 00 00 00 00	 push	 OFFSET ?set_padlock_view_event@@YGXPAUEVENT@@@Z ; set_padlock_view_event
  00394	6a 02		 push	 2
  00396	6a 00		 push	 0
  00398	6a 04		 push	 4
  0039a	e8 00 00 00 00	 call	 ?set_event@@YGXHHHP6GXPAUEVENT@@@Z@Z ; set_event

; 2473 : 	set_event (DIK_4, MODIFIER_NONE, KEY_STATE_DOWN, set_padlock_view_event);

  0039f	68 00 00 00 00	 push	 OFFSET ?set_padlock_view_event@@YGXPAUEVENT@@@Z ; set_padlock_view_event
  003a4	6a 02		 push	 2
  003a6	6a 00		 push	 0
  003a8	6a 05		 push	 5
  003aa	e8 00 00 00 00	 call	 ?set_event@@YGXHHHP6GXPAUEVENT@@@Z@Z ; set_event

; 2474 : 	set_event (DIK_5, MODIFIER_NONE, KEY_STATE_DOWN, set_padlock_view_event);

  003af	68 00 00 00 00	 push	 OFFSET ?set_padlock_view_event@@YGXPAUEVENT@@@Z ; set_padlock_view_event
  003b4	6a 02		 push	 2
  003b6	6a 00		 push	 0
  003b8	6a 06		 push	 6
  003ba	e8 00 00 00 00	 call	 ?set_event@@YGXHHHP6GXPAUEVENT@@@Z@Z ; set_event

; 2475 : 	set_event (DIK_6, MODIFIER_NONE, KEY_STATE_DOWN, set_padlock_view_event);

  003bf	68 00 00 00 00	 push	 OFFSET ?set_padlock_view_event@@YGXPAUEVENT@@@Z ; set_padlock_view_event
  003c4	6a 02		 push	 2
  003c6	6a 00		 push	 0
  003c8	6a 07		 push	 7
  003ca	e8 00 00 00 00	 call	 ?set_event@@YGXHHHP6GXPAUEVENT@@@Z@Z ; set_event

; 2476 : 	set_event (DIK_0, MODIFIER_NONE, KEY_STATE_DOWN, set_padlock_view_event);

  003cf	68 00 00 00 00	 push	 OFFSET ?set_padlock_view_event@@YGXPAUEVENT@@@Z ; set_padlock_view_event
  003d4	6a 02		 push	 2
  003d6	6a 00		 push	 0
  003d8	6a 0b		 push	 11			; 0000000bH
  003da	e8 00 00 00 00	 call	 ?set_event@@YGXHHHP6GXPAUEVENT@@@Z@Z ; set_event

; 2477 : 
; 2478 : }

  003df	5f		 pop	 edi
  003e0	5e		 pop	 esi
  003e1	5b		 pop	 ebx
  003e2	8b e5		 mov	 esp, ebp
  003e4	5d		 pop	 ebp
  003e5	c3		 ret	 0
?set_gunship_view_mode_events@@YGXXZ ENDP		; set_gunship_view_mode_events
_TEXT	ENDS
; Function compile flags: /Odtp /ZI
; File c:\users\nhv90\projects\eech\aphavoc\source\gunships\views\vm_event.c
;	COMDAT ?set_demo_view_mode_events@@YGXXZ
_TEXT	SEGMENT
?set_demo_view_mode_events@@YGXXZ PROC			; set_demo_view_mode_events, COMDAT

; 2327 : {

  00000	55		 push	 ebp
  00001	8b ec		 mov	 ebp, esp
  00003	83 ec 40	 sub	 esp, 64			; 00000040H
  00006	53		 push	 ebx
  00007	56		 push	 esi
  00008	57		 push	 edi

; 2328 : 	set_view_mode_events ();

  00009	e8 00 00 00 00	 call	 ?set_view_mode_events@@YGXXZ ; set_view_mode_events

; 2329 : }

  0000e	5f		 pop	 edi
  0000f	5e		 pop	 esi
  00010	5b		 pop	 ebx
  00011	8b e5		 mov	 esp, ebp
  00013	5d		 pop	 ebp
  00014	c3		 ret	 0
?set_demo_view_mode_events@@YGXXZ ENDP			; set_demo_view_mode_events
_TEXT	ENDS
; Function compile flags: /Odtp /ZI
; File c:\users\nhv90\projects\eech\aphavoc\source\gunships\views\vm_event.c
;	COMDAT ?set_view_mode_events@@YGXXZ
_TEXT	SEGMENT
?set_view_mode_events@@YGXXZ PROC			; set_view_mode_events, COMDAT

; 2202 : {

  00000	55		 push	 ebp
  00001	8b ec		 mov	 ebp, esp
  00003	83 ec 40	 sub	 esp, 64			; 00000040H
  00006	53		 push	 ebx
  00007	56		 push	 esi
  00008	57		 push	 edi

; 2203 : 	////////////////////////////////////////
; 2204 : 	//
; 2205 : 	// pan
; 2206 : 	//
; 2207 : 	////////////////////////////////////////
; 2208 : 
; 2209 : 	set_event (DIK_LEFT, MODIFIER_LEFT_ALT, KEY_STATE_EITHER, adjust_view_left_event);

  00009	68 00 00 00 00	 push	 OFFSET ?adjust_view_left_event@@YGXPAUEVENT@@@Z ; adjust_view_left_event
  0000e	6a 03		 push	 3
  00010	6a 03		 push	 3
  00012	68 cb 00 00 00	 push	 203			; 000000cbH
  00017	e8 00 00 00 00	 call	 ?set_event@@YGXHHHP6GXPAUEVENT@@@Z@Z ; set_event

; 2210 : 	set_event (DIK_RIGHT, MODIFIER_LEFT_ALT, KEY_STATE_EITHER, adjust_view_right_event);

  0001c	68 00 00 00 00	 push	 OFFSET ?adjust_view_right_event@@YGXPAUEVENT@@@Z ; adjust_view_right_event
  00021	6a 03		 push	 3
  00023	6a 03		 push	 3
  00025	68 cd 00 00 00	 push	 205			; 000000cdH
  0002a	e8 00 00 00 00	 call	 ?set_event@@YGXHHHP6GXPAUEVENT@@@Z@Z ; set_event

; 2211 : 	set_event (DIK_UP, MODIFIER_LEFT_ALT, KEY_STATE_EITHER, adjust_view_up_event);

  0002f	68 00 00 00 00	 push	 OFFSET ?adjust_view_up_event@@YGXPAUEVENT@@@Z ; adjust_view_up_event
  00034	6a 03		 push	 3
  00036	6a 03		 push	 3
  00038	68 c8 00 00 00	 push	 200			; 000000c8H
  0003d	e8 00 00 00 00	 call	 ?set_event@@YGXHHHP6GXPAUEVENT@@@Z@Z ; set_event

; 2212 : 	set_event (DIK_DOWN, MODIFIER_LEFT_ALT, KEY_STATE_EITHER, adjust_view_down_event);

  00042	68 00 00 00 00	 push	 OFFSET ?adjust_view_down_event@@YGXPAUEVENT@@@Z ; adjust_view_down_event
  00047	6a 03		 push	 3
  00049	6a 03		 push	 3
  0004b	68 d0 00 00 00	 push	 208			; 000000d0H
  00050	e8 00 00 00 00	 call	 ?set_event@@YGXHHHP6GXPAUEVENT@@@Z@Z ; set_event

; 2213 : 
; 2214 : 	////////////////////////////////////////
; 2215 : 	//
; 2216 : 	// zoom
; 2217 : 	//
; 2218 : 	////////////////////////////////////////
; 2219 : 
; 2220 : 	set_event (DIK_PERIOD, MODIFIER_LEFT_ALT, KEY_STATE_EITHER, adjust_view_zoom_in_event);

  00055	68 00 00 00 00	 push	 OFFSET ?adjust_view_zoom_in_event@@YGXPAUEVENT@@@Z ; adjust_view_zoom_in_event
  0005a	6a 03		 push	 3
  0005c	6a 03		 push	 3
  0005e	6a 34		 push	 52			; 00000034H
  00060	e8 00 00 00 00	 call	 ?set_event@@YGXHHHP6GXPAUEVENT@@@Z@Z ; set_event

; 2221 : 	set_event (DIK_COMMA, MODIFIER_LEFT_ALT, KEY_STATE_EITHER, adjust_view_zoom_out_event);

  00065	68 00 00 00 00	 push	 OFFSET ?adjust_view_zoom_out_event@@YGXPAUEVENT@@@Z ; adjust_view_zoom_out_event
  0006a	6a 03		 push	 3
  0006c	6a 03		 push	 3
  0006e	6a 33		 push	 51			; 00000033H
  00070	e8 00 00 00 00	 call	 ?set_event@@YGXHHHP6GXPAUEVENT@@@Z@Z ; set_event

; 2222 : 
; 2223 : 	////////////////////////////////////////
; 2224 : 	//
; 2225 : 	// move
; 2226 : 	//
; 2227 : 	////////////////////////////////////////
; 2228 : 
; 2229 : 	set_event (DIK_LEFT, MODIFIER_LEFT_SHIFT, KEY_STATE_EITHER, key_left_event);

  00075	68 00 00 00 00	 push	 OFFSET ?key_left_event@@YGXPAUEVENT@@@Z ; key_left_event
  0007a	6a 03		 push	 3
  0007c	6a 01		 push	 1
  0007e	68 cb 00 00 00	 push	 203			; 000000cbH
  00083	e8 00 00 00 00	 call	 ?set_event@@YGXHHHP6GXPAUEVENT@@@Z@Z ; set_event

; 2230 : 	set_event (DIK_RIGHT, MODIFIER_LEFT_SHIFT, KEY_STATE_EITHER, key_right_event);

  00088	68 00 00 00 00	 push	 OFFSET ?key_right_event@@YGXPAUEVENT@@@Z ; key_right_event
  0008d	6a 03		 push	 3
  0008f	6a 01		 push	 1
  00091	68 cd 00 00 00	 push	 205			; 000000cdH
  00096	e8 00 00 00 00	 call	 ?set_event@@YGXHHHP6GXPAUEVENT@@@Z@Z ; set_event

; 2231 : 	set_event (DIK_UP, MODIFIER_LEFT_SHIFT, KEY_STATE_EITHER, key_up_event);

  0009b	68 00 00 00 00	 push	 OFFSET ?key_up_event@@YGXPAUEVENT@@@Z ; key_up_event
  000a0	6a 03		 push	 3
  000a2	6a 01		 push	 1
  000a4	68 c8 00 00 00	 push	 200			; 000000c8H
  000a9	e8 00 00 00 00	 call	 ?set_event@@YGXHHHP6GXPAUEVENT@@@Z@Z ; set_event

; 2232 : 	set_event (DIK_DOWN, MODIFIER_LEFT_SHIFT, KEY_STATE_EITHER, key_down_event);

  000ae	68 00 00 00 00	 push	 OFFSET ?key_down_event@@YGXPAUEVENT@@@Z ; key_down_event
  000b3	6a 03		 push	 3
  000b5	6a 01		 push	 1
  000b7	68 d0 00 00 00	 push	 208			; 000000d0H
  000bc	e8 00 00 00 00	 call	 ?set_event@@YGXHHHP6GXPAUEVENT@@@Z@Z ; set_event

; 2233 : 	set_event (DIK_LEFT, MODIFIER_NONE, KEY_STATE_EITHER, key_left_event);

  000c1	68 00 00 00 00	 push	 OFFSET ?key_left_event@@YGXPAUEVENT@@@Z ; key_left_event
  000c6	6a 03		 push	 3
  000c8	6a 00		 push	 0
  000ca	68 cb 00 00 00	 push	 203			; 000000cbH
  000cf	e8 00 00 00 00	 call	 ?set_event@@YGXHHHP6GXPAUEVENT@@@Z@Z ; set_event

; 2234 : 	set_event (DIK_RIGHT, MODIFIER_NONE, KEY_STATE_EITHER, key_right_event);

  000d4	68 00 00 00 00	 push	 OFFSET ?key_right_event@@YGXPAUEVENT@@@Z ; key_right_event
  000d9	6a 03		 push	 3
  000db	6a 00		 push	 0
  000dd	68 cd 00 00 00	 push	 205			; 000000cdH
  000e2	e8 00 00 00 00	 call	 ?set_event@@YGXHHHP6GXPAUEVENT@@@Z@Z ; set_event

; 2235 : 	set_event (DIK_UP, MODIFIER_NONE, KEY_STATE_EITHER, key_up_event);

  000e7	68 00 00 00 00	 push	 OFFSET ?key_up_event@@YGXPAUEVENT@@@Z ; key_up_event
  000ec	6a 03		 push	 3
  000ee	6a 00		 push	 0
  000f0	68 c8 00 00 00	 push	 200			; 000000c8H
  000f5	e8 00 00 00 00	 call	 ?set_event@@YGXHHHP6GXPAUEVENT@@@Z@Z ; set_event

; 2236 : 	set_event (DIK_DOWN, MODIFIER_NONE, KEY_STATE_EITHER, key_down_event);

  000fa	68 00 00 00 00	 push	 OFFSET ?key_down_event@@YGXPAUEVENT@@@Z ; key_down_event
  000ff	6a 03		 push	 3
  00101	6a 00		 push	 0
  00103	68 d0 00 00 00	 push	 208			; 000000d0H
  00108	e8 00 00 00 00	 call	 ?set_event@@YGXHHHP6GXPAUEVENT@@@Z@Z ; set_event

; 2237 : 
; 2238 : 	////////////////////////////////////////
; 2239 : 	//
; 2240 : 	// hi-res support
; 2241 : 	//
; 2242 : 	////////////////////////////////////////
; 2243 : 
; 2244 : 	set_event (DIK_F1, MODIFIER_LEFT_SHIFT, KEY_STATE_DOWN, set_default_3d_resolutions_event);

  0010d	68 00 00 00 00	 push	 OFFSET ?set_default_3d_resolutions_event@@YGXPAUEVENT@@@Z ; set_default_3d_resolutions_event
  00112	6a 02		 push	 2
  00114	6a 01		 push	 1
  00116	6a 3b		 push	 59			; 0000003bH
  00118	e8 00 00 00 00	 call	 ?set_event@@YGXHHHP6GXPAUEVENT@@@Z@Z ; set_event

; 2245 : 
; 2246 : 	set_event (DIK_F3, MODIFIER_LEFT_SHIFT, KEY_STATE_DOWN, decrease_3d_resolutions_event);

  0011d	68 00 00 00 00	 push	 OFFSET ?decrease_3d_resolutions_event@@YGXPAUEVENT@@@Z ; decrease_3d_resolutions_event
  00122	6a 02		 push	 2
  00124	6a 01		 push	 1
  00126	6a 3d		 push	 61			; 0000003dH
  00128	e8 00 00 00 00	 call	 ?set_event@@YGXHHHP6GXPAUEVENT@@@Z@Z ; set_event

; 2247 : 
; 2248 : 	set_event (DIK_F4, MODIFIER_LEFT_SHIFT, KEY_STATE_DOWN, increase_3d_resolutions_event);

  0012d	68 00 00 00 00	 push	 OFFSET ?increase_3d_resolutions_event@@YGXPAUEVENT@@@Z ; increase_3d_resolutions_event
  00132	6a 02		 push	 2
  00134	6a 01		 push	 1
  00136	6a 3e		 push	 62			; 0000003eH
  00138	e8 00 00 00 00	 call	 ?set_event@@YGXHHHP6GXPAUEVENT@@@Z@Z ; set_event

; 2249 : 
; 2250 : 	////////////////////////////////////////
; 2251 : 	//
; 2252 : 	// select object to view
; 2253 : 	//
; 2254 : 	////////////////////////////////////////
; 2255 : 
; 2256 : 	set_event (DIK_F5, MODIFIER_LEFT_CONTROL, KEY_STATE_DOWN, next_side_event);

  0013d	68 00 00 00 00	 push	 OFFSET ?next_side_event@@YGXPAUEVENT@@@Z ; next_side_event
  00142	6a 02		 push	 2
  00144	6a 02		 push	 2
  00146	6a 3f		 push	 63			; 0000003fH
  00148	e8 00 00 00 00	 call	 ?set_event@@YGXHHHP6GXPAUEVENT@@@Z@Z ; set_event

; 2257 : 	set_event (DIK_F5, MODIFIER_LEFT_SHIFT, KEY_STATE_DOWN, previous_side_event);

  0014d	68 00 00 00 00	 push	 OFFSET ?previous_side_event@@YGXPAUEVENT@@@Z ; previous_side_event
  00152	6a 02		 push	 2
  00154	6a 01		 push	 1
  00156	6a 3f		 push	 63			; 0000003fH
  00158	e8 00 00 00 00	 call	 ?set_event@@YGXHHHP6GXPAUEVENT@@@Z@Z ; set_event

; 2258 : 	set_event (DIK_F5, MODIFIER_LEFT_ALT, KEY_STATE_DOWN, view_all_event);

  0015d	68 00 00 00 00	 push	 OFFSET ?view_all_event@@YGXPAUEVENT@@@Z ; view_all_event
  00162	6a 02		 push	 2
  00164	6a 03		 push	 3
  00166	6a 3f		 push	 63			; 0000003fH
  00168	e8 00 00 00 00	 call	 ?set_event@@YGXHHHP6GXPAUEVENT@@@Z@Z ; set_event

; 2259 : 
; 2260 : 	set_event (DIK_F6, MODIFIER_LEFT_CONTROL, KEY_STATE_DOWN, next_category_event);

  0016d	68 00 00 00 00	 push	 OFFSET ?next_category_event@@YGXPAUEVENT@@@Z ; next_category_event
  00172	6a 02		 push	 2
  00174	6a 02		 push	 2
  00176	6a 40		 push	 64			; 00000040H
  00178	e8 00 00 00 00	 call	 ?set_event@@YGXHHHP6GXPAUEVENT@@@Z@Z ; set_event

; 2261 : 	set_event (DIK_F6, MODIFIER_LEFT_SHIFT, KEY_STATE_DOWN, previous_category_event);

  0017d	68 00 00 00 00	 push	 OFFSET ?previous_category_event@@YGXPAUEVENT@@@Z ; previous_category_event
  00182	6a 02		 push	 2
  00184	6a 01		 push	 1
  00186	6a 40		 push	 64			; 00000040H
  00188	e8 00 00 00 00	 call	 ?set_event@@YGXHHHP6GXPAUEVENT@@@Z@Z ; set_event

; 2262 : 
; 2263 : 	set_event (DIK_F7, MODIFIER_LEFT_CONTROL, KEY_STATE_DOWN, next_type_event);

  0018d	68 00 00 00 00	 push	 OFFSET ?next_type_event@@YGXPAUEVENT@@@Z ; next_type_event
  00192	6a 02		 push	 2
  00194	6a 02		 push	 2
  00196	6a 41		 push	 65			; 00000041H
  00198	e8 00 00 00 00	 call	 ?set_event@@YGXHHHP6GXPAUEVENT@@@Z@Z ; set_event

; 2264 : 	set_event (DIK_F7, MODIFIER_LEFT_SHIFT, KEY_STATE_DOWN, previous_type_event);

  0019d	68 00 00 00 00	 push	 OFFSET ?previous_type_event@@YGXPAUEVENT@@@Z ; previous_type_event
  001a2	6a 02		 push	 2
  001a4	6a 01		 push	 1
  001a6	6a 41		 push	 65			; 00000041H
  001a8	e8 00 00 00 00	 call	 ?set_event@@YGXHHHP6GXPAUEVENT@@@Z@Z ; set_event

; 2265 : 	set_event (DIK_F7, MODIFIER_LEFT_ALT, KEY_STATE_DOWN, view_players_event);

  001ad	68 00 00 00 00	 push	 OFFSET ?view_players_event@@YGXPAUEVENT@@@Z ; view_players_event
  001b2	6a 02		 push	 2
  001b4	6a 03		 push	 3
  001b6	6a 41		 push	 65			; 00000041H
  001b8	e8 00 00 00 00	 call	 ?set_event@@YGXHHHP6GXPAUEVENT@@@Z@Z ; set_event

; 2266 : 
; 2267 : 	set_event (DIK_F8, MODIFIER_LEFT_CONTROL, KEY_STATE_DOWN, next_object_event);

  001bd	68 00 00 00 00	 push	 OFFSET ?next_object_event@@YGXPAUEVENT@@@Z ; next_object_event
  001c2	6a 02		 push	 2
  001c4	6a 02		 push	 2
  001c6	6a 42		 push	 66			; 00000042H
  001c8	e8 00 00 00 00	 call	 ?set_event@@YGXHHHP6GXPAUEVENT@@@Z@Z ; set_event

; 2268 : 	set_event (DIK_F8, MODIFIER_LEFT_SHIFT, KEY_STATE_DOWN, previous_object_event);

  001cd	68 00 00 00 00	 push	 OFFSET ?previous_object_event@@YGXPAUEVENT@@@Z ; previous_object_event
  001d2	6a 02		 push	 2
  001d4	6a 01		 push	 1
  001d6	6a 42		 push	 66			; 00000042H
  001d8	e8 00 00 00 00	 call	 ?set_event@@YGXHHHP6GXPAUEVENT@@@Z@Z ; set_event

; 2269 : 
; 2270 : 	if (get_game_type () != GAME_TYPE_DEMO)

  001dd	83 3d 00 00 00
	00 04		 cmp	 DWORD PTR ?game_type@@3W4GAME_TYPES@@A, 4 ; game_type
  001e4	74 10		 je	 SHORT $LN2@set_view_m

; 2271 : 	{
; 2272 : 		set_event (DIK_F8, MODIFIER_LEFT_ALT, KEY_STATE_DOWN, view_available_gunships_event);

  001e6	68 00 00 00 00	 push	 OFFSET ?view_available_gunships_event@@YGXPAUEVENT@@@Z ; view_available_gunships_event
  001eb	6a 02		 push	 2
  001ed	6a 03		 push	 3
  001ef	6a 42		 push	 66			; 00000042H
  001f1	e8 00 00 00 00	 call	 ?set_event@@YGXHHHP6GXPAUEVENT@@@Z@Z ; set_event
$LN2@set_view_m:

; 2273 : 	}
; 2274 : 
; 2275 : 	////////////////////////////////////////
; 2276 : 	//
; 2277 : 	// select camera
; 2278 : 	//
; 2279 : 	////////////////////////////////////////
; 2280 : 
; 2281 : 	set_event (DIK_F9, MODIFIER_NONE, KEY_STATE_DOWN, chase_camera_event);

  001f6	68 00 00 00 00	 push	 OFFSET ?chase_camera_event@@YGXPAUEVENT@@@Z ; chase_camera_event
  001fb	6a 02		 push	 2
  001fd	6a 00		 push	 0
  001ff	6a 43		 push	 67			; 00000043H
  00201	e8 00 00 00 00	 call	 ?set_event@@YGXHHHP6GXPAUEVENT@@@Z@Z ; set_event

; 2282 : 	set_event (DIK_F9, MODIFIER_LEFT_SHIFT, KEY_STATE_DOWN, reset_chase_camera_position_event);

  00206	68 00 00 00 00	 push	 OFFSET ?reset_chase_camera_position_event@@YGXPAUEVENT@@@Z ; reset_chase_camera_position_event
  0020b	6a 02		 push	 2
  0020d	6a 01		 push	 1
  0020f	6a 43		 push	 67			; 00000043H
  00211	e8 00 00 00 00	 call	 ?set_event@@YGXHHHP6GXPAUEVENT@@@Z@Z ; set_event

; 2283 : 	set_event (DIK_F9, MODIFIER_LEFT_ALT, KEY_STATE_DOWN, toggle_chase_camera_lock_rotate_event);

  00216	68 00 00 00 00	 push	 OFFSET ?toggle_chase_camera_lock_rotate_event@@YGXPAUEVENT@@@Z ; toggle_chase_camera_lock_rotate_event
  0021b	6a 02		 push	 2
  0021d	6a 03		 push	 3
  0021f	6a 43		 push	 67			; 00000043H
  00221	e8 00 00 00 00	 call	 ?set_event@@YGXHHHP6GXPAUEVENT@@@Z@Z ; set_event

; 2284 : 	set_event (DIK_F9, MODIFIER_LEFT_CONTROL, KEY_STATE_DOWN, satellite_camera_event); // Jabberwock 031009 Satellite view

  00226	68 00 00 00 00	 push	 OFFSET ?satellite_camera_event@@YGXPAUEVENT@@@Z ; satellite_camera_event
  0022b	6a 02		 push	 2
  0022d	6a 02		 push	 2
  0022f	6a 43		 push	 67			; 00000043H
  00231	e8 00 00 00 00	 call	 ?set_event@@YGXHHHP6GXPAUEVENT@@@Z@Z ; set_event

; 2285 : 
; 2286 : 	set_event (DIK_F10, MODIFIER_NONE, KEY_STATE_DOWN, fly_by_camera_event);

  00236	68 00 00 00 00	 push	 OFFSET ?fly_by_camera_event@@YGXPAUEVENT@@@Z ; fly_by_camera_event
  0023b	6a 02		 push	 2
  0023d	6a 00		 push	 0
  0023f	6a 44		 push	 68			; 00000044H
  00241	e8 00 00 00 00	 call	 ?set_event@@YGXHHHP6GXPAUEVENT@@@Z@Z ; set_event

; 2287 : 	set_event (DIK_F10, MODIFIER_LEFT_SHIFT, KEY_STATE_DOWN, drop_camera_event);

  00246	68 00 00 00 00	 push	 OFFSET ?drop_camera_event@@YGXPAUEVENT@@@Z ; drop_camera_event
  0024b	6a 02		 push	 2
  0024d	6a 01		 push	 1
  0024f	6a 44		 push	 68			; 00000044H
  00251	e8 00 00 00 00	 call	 ?set_event@@YGXHHHP6GXPAUEVENT@@@Z@Z ; set_event

; 2288 : 	set_event (DIK_F10, MODIFIER_LEFT_CONTROL, KEY_STATE_DOWN, static_camera_event);

  00256	68 00 00 00 00	 push	 OFFSET ?static_camera_event@@YGXPAUEVENT@@@Z ; static_camera_event
  0025b	6a 02		 push	 2
  0025d	6a 02		 push	 2
  0025f	6a 44		 push	 68			; 00000044H
  00261	e8 00 00 00 00	 call	 ?set_event@@YGXHHHP6GXPAUEVENT@@@Z@Z ; set_event

; 2289 : 	set_event (DIK_F10, MODIFIER_LEFT_ALT, KEY_STATE_DOWN, weapon_camera_event);

  00266	68 00 00 00 00	 push	 OFFSET ?weapon_camera_event@@YGXPAUEVENT@@@Z ; weapon_camera_event
  0026b	6a 02		 push	 2
  0026d	6a 03		 push	 3
  0026f	6a 44		 push	 68			; 00000044H
  00271	e8 00 00 00 00	 call	 ?set_event@@YGXHHHP6GXPAUEVENT@@@Z@Z ; set_event

; 2290 : 
; 2291 : 	set_event (DIK_F11, MODIFIER_NONE, KEY_STATE_DOWN, camera_auto_edit_event);

  00276	68 00 00 00 00	 push	 OFFSET ?camera_auto_edit_event@@YGXPAUEVENT@@@Z ; camera_auto_edit_event
  0027b	6a 02		 push	 2
  0027d	6a 00		 push	 0
  0027f	6a 57		 push	 87			; 00000057H
  00281	e8 00 00 00 00	 call	 ?set_event@@YGXHHHP6GXPAUEVENT@@@Z@Z ; set_event

; 2292 : 	set_event (DIK_F11, MODIFIER_LEFT_SHIFT, KEY_STATE_DOWN, cinematic_camera_event);

  00286	68 00 00 00 00	 push	 OFFSET ?cinematic_camera_event@@YGXPAUEVENT@@@Z ; cinematic_camera_event
  0028b	6a 02		 push	 2
  0028d	6a 01		 push	 1
  0028f	6a 57		 push	 87			; 00000057H
  00291	e8 00 00 00 00	 call	 ?set_event@@YGXHHHP6GXPAUEVENT@@@Z@Z ; set_event

; 2293 : 	set_event (DIK_F11, MODIFIER_LEFT_ALT, KEY_STATE_DOWN, set_next_mfd_size_event);

  00296	68 00 00 00 00	 push	 OFFSET ?set_next_mfd_size_event@@YGXPAUEVENT@@@Z ; set_next_mfd_size_event
  0029b	6a 02		 push	 2
  0029d	6a 03		 push	 3
  0029f	6a 57		 push	 87			; 00000057H
  002a1	e8 00 00 00 00	 call	 ?set_event@@YGXHHHP6GXPAUEVENT@@@Z@Z ; set_event

; 2294 : 
; 2295 : 	////////////////////////////////////////
; 2296 : 	//
; 2297 : 	// miscellaneous
; 2298 : 	//
; 2299 : 	////////////////////////////////////////
; 2300 : 
; 2301 : 	set_event (DIK_F12, MODIFIER_NONE, KEY_STATE_DOWN, toggle_view_menu_event);

  002a6	68 00 00 00 00	 push	 OFFSET ?toggle_view_menu_event@@YGXPAUEVENT@@@Z ; toggle_view_menu_event
  002ab	6a 02		 push	 2
  002ad	6a 00		 push	 0
  002af	6a 58		 push	 88			; 00000058H
  002b1	e8 00 00 00 00	 call	 ?set_event@@YGXHHHP6GXPAUEVENT@@@Z@Z ; set_event

; 2302 : 	set_event (DIK_F12, MODIFIER_LEFT_CONTROL, KEY_STATE_DOWN, toggle_object_text_event);

  002b6	68 00 00 00 00	 push	 OFFSET ?toggle_object_text_event@@YGXPAUEVENT@@@Z ; toggle_object_text_event
  002bb	6a 02		 push	 2
  002bd	6a 02		 push	 2
  002bf	6a 58		 push	 88			; 00000058H
  002c1	e8 00 00 00 00	 call	 ?set_event@@YGXHHHP6GXPAUEVENT@@@Z@Z ; set_event

; 2303 : 	set_event (DIK_F12, MODIFIER_LEFT_ALT, KEY_STATE_DOWN, toggle_inset_target_event);

  002c6	68 00 00 00 00	 push	 OFFSET ?toggle_inset_target_event@@YGXPAUEVENT@@@Z ; toggle_inset_target_event
  002cb	6a 02		 push	 2
  002cd	6a 03		 push	 3
  002cf	6a 58		 push	 88			; 00000058H
  002d1	e8 00 00 00 00	 call	 ?set_event@@YGXHHHP6GXPAUEVENT@@@Z@Z ; set_event

; 2304 : 
; 2305 : 	set_event (DIK_I, MODIFIER_LEFT_CONTROL, KEY_STATE_DOWN, toggle_display_in_flight_intelligence_messages_event);

  002d6	68 00 00 00 00	 push	 OFFSET ?toggle_display_in_flight_intelligence_messages_event@@YGXPAUEVENT@@@Z ; toggle_display_in_flight_intelligence_messages_event
  002db	6a 02		 push	 2
  002dd	6a 02		 push	 2
  002df	6a 17		 push	 23			; 00000017H
  002e1	e8 00 00 00 00	 call	 ?set_event@@YGXHHHP6GXPAUEVENT@@@Z@Z ; set_event

; 2306 : 
; 2307 : 	// Retro 030317 start
; 2308 : 	// see above
; 2309 : 	set_event (DIK_7, MODIFIER_NONE, KEY_STATE_DOWN, lo_fov_event);

  002e6	68 00 00 00 00	 push	 OFFSET ?lo_fov_event@@YGXPAUEVENT@@@Z ; lo_fov_event
  002eb	6a 02		 push	 2
  002ed	6a 00		 push	 0
  002ef	6a 08		 push	 8
  002f1	e8 00 00 00 00	 call	 ?set_event@@YGXHHHP6GXPAUEVENT@@@Z@Z ; set_event

; 2310 : 	set_event (DIK_8, MODIFIER_NONE, KEY_STATE_DOWN, std_fov_event);

  002f6	68 00 00 00 00	 push	 OFFSET ?std_fov_event@@YGXPAUEVENT@@@Z ; std_fov_event
  002fb	6a 02		 push	 2
  002fd	6a 00		 push	 0
  002ff	6a 09		 push	 9
  00301	e8 00 00 00 00	 call	 ?set_event@@YGXHHHP6GXPAUEVENT@@@Z@Z ; set_event

; 2311 : 	set_event (DIK_9, MODIFIER_NONE, KEY_STATE_DOWN, hi_fov_event);

  00306	68 00 00 00 00	 push	 OFFSET ?hi_fov_event@@YGXPAUEVENT@@@Z ; hi_fov_event
  0030b	6a 02		 push	 2
  0030d	6a 00		 push	 0
  0030f	6a 0a		 push	 10			; 0000000aH
  00311	e8 00 00 00 00	 call	 ?set_event@@YGXHHHP6GXPAUEVENT@@@Z@Z ; set_event

; 2312 : 
; 2313 : 	set_event (MOUSE_LEFT_BUTTON, MODIFIER_NONE, BUTTON_STATE_EITHER, reset_mouse_event);

  00316	68 00 00 00 00	 push	 OFFSET ?reset_mouse_event@@YGXPAUEVENT@@@Z ; reset_mouse_event
  0031b	6a 03		 push	 3
  0031d	6a 00		 push	 0
  0031f	68 00 01 00 00	 push	 256			; 00000100H
  00324	e8 00 00 00 00	 call	 ?set_event@@YGXHHHP6GXPAUEVENT@@@Z@Z ; set_event

; 2314 : 	// Retro 030317 end
; 2315 : 	
; 2316 : 	set_event(DIK_D, MODIFIER_LEFT_CONTROL, KEY_STATE_DOWN, TSD_render_event);

  00329	68 00 00 00 00	 push	 OFFSET ?TSD_render_event@@YGXPAUEVENT@@@Z ; TSD_render_event
  0032e	6a 02		 push	 2
  00330	6a 02		 push	 2
  00332	6a 20		 push	 32			; 00000020H
  00334	e8 00 00 00 00	 call	 ?set_event@@YGXHHHP6GXPAUEVENT@@@Z@Z ; set_event

; 2317 : 	//VJ 020423 TSD render mod
; 2318 : 	set_event(DIK_D, MODIFIER_LEFT_ALT, KEY_STATE_DOWN, TSD_render_palette_event);

  00339	68 00 00 00 00	 push	 OFFSET ?TSD_render_palette_event@@YGXPAUEVENT@@@Z ; TSD_render_palette_event
  0033e	6a 02		 push	 2
  00340	6a 03		 push	 3
  00342	6a 20		 push	 32			; 00000020H
  00344	e8 00 00 00 00	 call	 ?set_event@@YGXHHHP6GXPAUEVENT@@@Z@Z ; set_event

; 2319 : 	//VJ 020429 TSD render mod
; 2320 : }

  00349	5f		 pop	 edi
  0034a	5e		 pop	 esi
  0034b	5b		 pop	 ebx
  0034c	8b e5		 mov	 esp, ebp
  0034e	5d		 pop	 ebp
  0034f	c3		 ret	 0
?set_view_mode_events@@YGXXZ ENDP			; set_view_mode_events
_TEXT	ENDS
; Function compile flags: /Odtp /ZI
; File c:\program files (x86)\windows kits\10\include\10.0.18362.0\ucrt\stdio.h
;	COMDAT _sprintf
_TEXT	SEGMENT
__ArgList$ = -8						; size = 4
__Result$ = -4						; size = 4
__Buffer$ = 8						; size = 4
__Format$ = 12						; size = 4
_sprintf PROC						; COMDAT

; 1781 :     {

  00000	55		 push	 ebp
  00001	8b ec		 mov	 ebp, esp
  00003	83 ec 4c	 sub	 esp, 76			; 0000004cH
  00006	53		 push	 ebx
  00007	56		 push	 esi
  00008	57		 push	 edi

; 1782 :         int _Result;
; 1783 :         va_list _ArgList;
; 1784 :         __crt_va_start(_ArgList, _Format);

  00009	8d 45 10	 lea	 eax, DWORD PTR __Format$[ebp+4]
  0000c	89 45 f8	 mov	 DWORD PTR __ArgList$[ebp], eax

; 1785 : 
; 1786 :         #pragma warning(push)
; 1787 :         #pragma warning(disable: 4996) // Deprecation
; 1788 :         _Result = _vsprintf_l(_Buffer, _Format, NULL, _ArgList);

  0000f	8b 45 f8	 mov	 eax, DWORD PTR __ArgList$[ebp]
  00012	50		 push	 eax
  00013	6a 00		 push	 0
  00015	8b 4d 0c	 mov	 ecx, DWORD PTR __Format$[ebp]
  00018	51		 push	 ecx
  00019	8b 55 08	 mov	 edx, DWORD PTR __Buffer$[ebp]
  0001c	52		 push	 edx
  0001d	e8 00 00 00 00	 call	 __vsprintf_l
  00022	83 c4 10	 add	 esp, 16			; 00000010H
  00025	89 45 fc	 mov	 DWORD PTR __Result$[ebp], eax

; 1789 :         #pragma warning(pop)
; 1790 : 
; 1791 :         __crt_va_end(_ArgList);

  00028	c7 45 f8 00 00
	00 00		 mov	 DWORD PTR __ArgList$[ebp], 0

; 1792 :         return _Result;

  0002f	8b 45 fc	 mov	 eax, DWORD PTR __Result$[ebp]

; 1793 :     }

  00032	5f		 pop	 edi
  00033	5e		 pop	 esi
  00034	5b		 pop	 ebx
  00035	8b e5		 mov	 esp, ebp
  00037	5d		 pop	 ebp
  00038	c3		 ret	 0
_sprintf ENDP
_TEXT	ENDS
; Function compile flags: /Odtp /ZI
; File c:\program files (x86)\windows kits\10\include\10.0.18362.0\ucrt\stdio.h
;	COMDAT __vsprintf_l
_TEXT	SEGMENT
__Buffer$ = 8						; size = 4
__Format$ = 12						; size = 4
__Locale$ = 16						; size = 4
__ArgList$ = 20						; size = 4
__vsprintf_l PROC					; COMDAT

; 1459 :     {

  00000	55		 push	 ebp
  00001	8b ec		 mov	 ebp, esp
  00003	83 ec 40	 sub	 esp, 64			; 00000040H
  00006	53		 push	 ebx
  00007	56		 push	 esi
  00008	57		 push	 edi

; 1460 :         #pragma warning(push)
; 1461 :         #pragma warning(disable: 4996) // Deprecation
; 1462 :         return _vsnprintf_l(_Buffer, (size_t)-1, _Format, _Locale, _ArgList);

  00009	8b 45 14	 mov	 eax, DWORD PTR __ArgList$[ebp]
  0000c	50		 push	 eax
  0000d	8b 4d 10	 mov	 ecx, DWORD PTR __Locale$[ebp]
  00010	51		 push	 ecx
  00011	8b 55 0c	 mov	 edx, DWORD PTR __Format$[ebp]
  00014	52		 push	 edx
  00015	6a ff		 push	 -1
  00017	8b 45 08	 mov	 eax, DWORD PTR __Buffer$[ebp]
  0001a	50		 push	 eax
  0001b	e8 00 00 00 00	 call	 __vsnprintf_l
  00020	83 c4 14	 add	 esp, 20			; 00000014H

; 1463 :         #pragma warning(pop)
; 1464 :     }

  00023	5f		 pop	 edi
  00024	5e		 pop	 esi
  00025	5b		 pop	 ebx
  00026	8b e5		 mov	 esp, ebp
  00028	5d		 pop	 ebp
  00029	c3		 ret	 0
__vsprintf_l ENDP
_TEXT	ENDS
; Function compile flags: /Odtp /ZI
; File c:\program files (x86)\windows kits\10\include\10.0.18362.0\ucrt\stdio.h
;	COMDAT __vsnprintf_l
_TEXT	SEGMENT
tv74 = -72						; size = 4
__Result$ = -4						; size = 4
__Buffer$ = 8						; size = 4
__BufferCount$ = 12					; size = 4
__Format$ = 16						; size = 4
__Locale$ = 20						; size = 4
__ArgList$ = 24						; size = 4
__vsnprintf_l PROC					; COMDAT

; 1389 :     {

  00000	55		 push	 ebp
  00001	8b ec		 mov	 ebp, esp
  00003	83 ec 48	 sub	 esp, 72			; 00000048H
  00006	53		 push	 ebx
  00007	56		 push	 esi
  00008	57		 push	 edi

; 1390 :         int const _Result = __stdio_common_vsprintf(

  00009	8b 45 18	 mov	 eax, DWORD PTR __ArgList$[ebp]
  0000c	50		 push	 eax
  0000d	8b 4d 14	 mov	 ecx, DWORD PTR __Locale$[ebp]
  00010	51		 push	 ecx
  00011	8b 55 10	 mov	 edx, DWORD PTR __Format$[ebp]
  00014	52		 push	 edx
  00015	8b 45 0c	 mov	 eax, DWORD PTR __BufferCount$[ebp]
  00018	50		 push	 eax
  00019	8b 4d 08	 mov	 ecx, DWORD PTR __Buffer$[ebp]
  0001c	51		 push	 ecx
  0001d	e8 00 00 00 00	 call	 ___local_stdio_printf_options
  00022	8b 10		 mov	 edx, DWORD PTR [eax]
  00024	83 ca 01	 or	 edx, 1
  00027	8b 40 04	 mov	 eax, DWORD PTR [eax+4]
  0002a	50		 push	 eax
  0002b	52		 push	 edx
  0002c	ff 15 00 00 00
	00		 call	 DWORD PTR __imp____stdio_common_vsprintf
  00032	83 c4 1c	 add	 esp, 28			; 0000001cH
  00035	89 45 fc	 mov	 DWORD PTR __Result$[ebp], eax

; 1391 :             _CRT_INTERNAL_LOCAL_PRINTF_OPTIONS | _CRT_INTERNAL_PRINTF_LEGACY_VSPRINTF_NULL_TERMINATION,
; 1392 :             _Buffer, _BufferCount, _Format, _Locale, _ArgList);
; 1393 : 
; 1394 :         return _Result < 0 ? -1 : _Result;

  00038	83 7d fc 00	 cmp	 DWORD PTR __Result$[ebp], 0
  0003c	7d 09		 jge	 SHORT $LN3@vsnprintf_
  0003e	c7 45 b8 ff ff
	ff ff		 mov	 DWORD PTR tv74[ebp], -1
  00045	eb 06		 jmp	 SHORT $LN4@vsnprintf_
$LN3@vsnprintf_:
  00047	8b 45 fc	 mov	 eax, DWORD PTR __Result$[ebp]
  0004a	89 45 b8	 mov	 DWORD PTR tv74[ebp], eax
$LN4@vsnprintf_:
  0004d	8b 45 b8	 mov	 eax, DWORD PTR tv74[ebp]

; 1395 :     }

  00050	5f		 pop	 edi
  00051	5e		 pop	 esi
  00052	5b		 pop	 ebx
  00053	8b e5		 mov	 esp, ebp
  00055	5d		 pop	 ebp
  00056	c3		 ret	 0
__vsnprintf_l ENDP
_TEXT	ENDS
; Function compile flags: /Odtp /ZI
; File c:\program files (x86)\windows kits\10\include\10.0.18362.0\ucrt\corecrt_stdio_config.h
;	COMDAT ___local_stdio_printf_options
_TEXT	SEGMENT
___local_stdio_printf_options PROC			; COMDAT

; 86   :     {

  00000	55		 push	 ebp
  00001	8b ec		 mov	 ebp, esp
  00003	83 ec 40	 sub	 esp, 64			; 00000040H
  00006	53		 push	 ebx
  00007	56		 push	 esi
  00008	57		 push	 edi

; 87   :         static unsigned __int64 _OptionsStorage;
; 88   :         return &_OptionsStorage;

  00009	b8 00 00 00 00	 mov	 eax, OFFSET ?_OptionsStorage@?1??__local_stdio_printf_options@@9@4_KA ; `__local_stdio_printf_options'::`2'::_OptionsStorage

; 89   :     }

  0000e	5f		 pop	 edi
  0000f	5e		 pop	 esi
  00010	5b		 pop	 ebx
  00011	8b e5		 mov	 esp, ebp
  00013	5d		 pop	 ebp
  00014	c3		 ret	 0
___local_stdio_printf_options ENDP
_TEXT	ENDS
END
