; Listing generated by Microsoft (R) Optimizing Compiler Version 19.16.27045.0 

	TITLE	C:\Users\nhv90\Projects\eech\aphavoc\source\gunships\views\vm_main.c
	.686P
	.XMM
	include listing.inc
	.model	flat

INCLUDELIB MSVCRTD
INCLUDELIB OLDNAMES

PUBLIC	___local_stdio_printf_options
PUBLIC	__vsnprintf_l
PUBLIC	__vsprintf_l
PUBLIC	_sprintf
PUBLIC	?get_max_fov@@YGHXZ				; get_max_fov
PUBLIC	?set_view_mode@@YGHW4VIEW_MODES@@@Z		; set_view_mode
PUBLIC	?get_viewed_entity@@YGPAUENTITY@@XZ		; get_viewed_entity
PUBLIC	?_OptionsStorage@?1??__local_stdio_printf_options@@9@4_KA ; `__local_stdio_printf_options'::`2'::_OptionsStorage
PUBLIC	?__LINE__Var@?0??view_mode_available@@YGHW4VIEW_MODES@@@Z@4JA ; `view_mode_available'::`1'::__LINE__Var
PUBLIC	??_C@_0EF@LBJPOBFB@c?3?2users?2nhv90?2projects?2eech?2ap@ ; `string'
PUBLIC	??_C@_0BH@KFJLEDAI@Invalid?5view?5mode?5?$DN?5?$CFd@ ; `string'
PUBLIC	?__LINE__Var@?0??enter_view_mode@@YGXW4VIEW_MODES@@@Z@4JA ; `enter_view_mode'::`1'::__LINE__Var
PUBLIC	??_C@_0BG@EANNPEON@get_gunship_entity?5?$CI?$CJ@ ; `string'
PUBLIC	??_C@_06JJLAMBGK@target@			; `string'
PUBLIC	??_C@_0P@HBOKKGHN@Padlock?5target@		; `string'
PUBLIC	??_C@_05DNIIFBMG@?$CFs?5?$CFs@			; `string'
PUBLIC	?__LINE__Var@?0??set_view_mode@@YGHW4VIEW_MODES@@@Z@4JA ; `set_view_mode'::`1'::__LINE__Var
PUBLIC	??_C@_0CH@NOEHHLJO@?$CImode?5?$DO?$DN?50?$CJ?5?$CG?$CG?5?$CImode?5?$DM?5NUM_VIEW@ ; `string'
PUBLIC	__real@beb2b8c2
PUBLIC	__real@befa35dd
EXTRN	__imp____stdio_common_vsprintf:PROC
EXTRN	?process_assert@@YGXPBD0H@Z:PROC		; process_assert
EXTRN	?debug_fatal@@YAXPBDZZ:PROC			; debug_fatal
EXTRN	?get_external_view_entity@@YGPAUENTITY@@XZ:PROC	; get_external_view_entity
EXTRN	?set_main_3d_full_screen_params@@YGXW4DISPLAY_3D_TINTS@@W4DISPLAY_3D_LIGHT_LEVELS@@W4DISPLAY_3D_NOISE_LEVELS@@@Z:PROC ; set_main_3d_full_screen_params
EXTRN	?set_status_message@@YGXPBDW4STATUS_MESSAGE_TYPES@@@Z:PROC ; set_status_message
EXTRN	?get_status_message_type@@YG?AW4STATUS_MESSAGE_TYPES@@XZ:PROC ; get_status_message_type
EXTRN	?leave_seat_position@@YGXW4VIEW_MODES@@0@Z:PROC	; leave_seat_position
EXTRN	?leave_padlock_view@@YGXXZ:PROC			; leave_padlock_view
EXTRN	?select_apache_target_acquisition_system@@YGXW4TARGET_ACQUISITION_SYSTEMS@@@Z:PROC ; select_apache_target_acquisition_system
EXTRN	?get_crew_role@@YG?AW4CREW_ROLES@@XZ:PROC	; get_crew_role
EXTRN	?get_num_virtual_cockpit_cameras@@YGHW4CREW_ROLES@@@Z:PROC ; get_num_virtual_cockpit_cameras
EXTRN	?get_time_acceleration@@YGHXZ:PROC		; get_time_acceleration
EXTRN	?get_trans@@YGPBDPBD@Z:PROC			; get_trans
EXTRN	?application_video_colourdepth@@3HA:DWORD	; application_video_colourdepth
EXTRN	?command_line_max_fov0@@3HA:DWORD		; command_line_max_fov0
EXTRN	?command_line_max_fov1@@3HA:DWORD		; command_line_max_fov1
EXTRN	?command_line_max_fov2@@3HA:DWORD		; command_line_max_fov2
EXTRN	?command_line_max_fov3@@3HA:DWORD		; command_line_max_fov3
EXTRN	?command_line_max_fov4@@3HA:DWORD		; command_line_max_fov4
EXTRN	?command_line_max_fov5@@3HA:DWORD		; command_line_max_fov5
EXTRN	?command_line_max_fov6@@3HA:DWORD		; command_line_max_fov6
EXTRN	?command_line_max_fov7@@3HA:DWORD		; command_line_max_fov7
EXTRN	?global_aphavoc_maps@@3HA:DWORD			; global_aphavoc_maps
EXTRN	?new_gunship@@3QBDB:BYTE			; new_gunship
EXTRN	?null_entity_pointer_message@@3PBDB:DWORD	; null_entity_pointer_message
EXTRN	?global_options@@3UGLOBAL_OPTIONS_DATA@@A:BYTE	; global_options
EXTRN	?overload_invalid_list_type_message@@3PBDB:DWORD ; overload_invalid_list_type_message
EXTRN	?fn_get_local_entity_first_child@@3PAY0CN@P6GPAUENTITY@@PAU1@W4LIST_TYPES@@@ZA:BYTE ; fn_get_local_entity_first_child
EXTRN	?fn_get_local_entity_parent@@3PAY0CN@P6GPAUENTITY@@PAU1@W4LIST_TYPES@@@ZA:BYTE ; fn_get_local_entity_parent
EXTRN	?overload_invalid_int_type_message@@3PBDB:DWORD	; overload_invalid_int_type_message
EXTRN	?fn_get_local_entity_int_value@@3PAY0BBH@P6GHPAUENTITY@@W4INT_TYPES@@@ZA:BYTE ; fn_get_local_entity_int_value
EXTRN	?overload_invalid_string_type_message@@3PBDB:DWORD ; overload_invalid_string_type_message
EXTRN	?fn_get_local_entity_string@@3PAY0N@P6GPBDPAUENTITY@@W4STRING_TYPES@@@ZA:BYTE ; fn_get_local_entity_string
EXTRN	?gunship_entity@@3PAUENTITY@@A:DWORD		; gunship_entity
EXTRN	?camera_entity@@3PAUENTITY@@A:DWORD		; camera_entity
EXTRN	?pilot_entity@@3PAUENTITY@@A:DWORD		; pilot_entity
EXTRN	?full_screen_hi_res@@3HA:DWORD			; full_screen_hi_res
EXTRN	?view_mode@@3W4VIEW_MODES@@A:DWORD		; view_mode
EXTRN	?in_cockpit_flags@@3PAHA:BYTE			; in_cockpit_flags
EXTRN	?in_cockpit@@3HA:DWORD				; in_cockpit
EXTRN	?cockpit_panorama_row_values@@3PAHA:BYTE	; cockpit_panorama_row_values
EXTRN	?cockpit_panorama_row@@3HA:DWORD		; cockpit_panorama_row
EXTRN	?cockpit_panorama_col_values@@3PAHA:BYTE	; cockpit_panorama_col_values
EXTRN	?cockpit_panorama_col@@3HA:DWORD		; cockpit_panorama_col
EXTRN	?pilot_head_heading_values@@3PAMA:BYTE		; pilot_head_heading_values
EXTRN	?pilot_head_heading@@3MA:DWORD			; pilot_head_heading
EXTRN	?pilot_head_pitch_values@@3PAMA:BYTE		; pilot_head_pitch_values
EXTRN	?pilot_head_pitch@@3MA:DWORD			; pilot_head_pitch
EXTRN	?target_acquisition_system@@3W4TARGET_ACQUISITION_SYSTEMS@@A:DWORD ; target_acquisition_system
EXTRN	?pilot_head_pitch_datum@@3MA:DWORD		; pilot_head_pitch_datum
EXTRN	?co_pilot_head_pitch_datum@@3MA:DWORD		; co_pilot_head_pitch_datum
EXTRN	__fltused:DWORD
;	COMDAT ?_OptionsStorage@?1??__local_stdio_printf_options@@9@4_KA
_BSS	SEGMENT
?_OptionsStorage@?1??__local_stdio_printf_options@@9@4_KA DQ 01H DUP (?) ; `__local_stdio_printf_options'::`2'::_OptionsStorage
_BSS	ENDS
;	COMDAT __real@befa35dd
CONST	SEGMENT
__real@befa35dd DD 0befa35ddr			; -0.488692
CONST	ENDS
;	COMDAT __real@beb2b8c2
CONST	SEGMENT
__real@beb2b8c2 DD 0beb2b8c2r			; -0.349066
CONST	ENDS
;	COMDAT ??_C@_0CH@NOEHHLJO@?$CImode?5?$DO?$DN?50?$CJ?5?$CG?$CG?5?$CImode?5?$DM?5NUM_VIEW@
CONST	SEGMENT
??_C@_0CH@NOEHHLJO@?$CImode?5?$DO?$DN?50?$CJ?5?$CG?$CG?5?$CImode?5?$DM?5NUM_VIEW@ DB '('
	DB	'mode >= 0) && (mode < NUM_VIEW_MODES)', 00H	; `string'
CONST	ENDS
;	COMDAT ?__LINE__Var@?0??set_view_mode@@YGHW4VIEW_MODES@@@Z@4JA
_DATA	SEGMENT
?__LINE__Var@?0??set_view_mode@@YGHW4VIEW_MODES@@@Z@4JA DD 0625H ; `set_view_mode'::`1'::__LINE__Var
_DATA	ENDS
;	COMDAT ??_C@_05DNIIFBMG@?$CFs?5?$CFs@
CONST	SEGMENT
??_C@_05DNIIFBMG@?$CFs?5?$CFs@ DB '%s %s', 00H		; `string'
CONST	ENDS
;	COMDAT ??_C@_0P@HBOKKGHN@Padlock?5target@
CONST	SEGMENT
??_C@_0P@HBOKKGHN@Padlock?5target@ DB 'Padlock target', 00H ; `string'
CONST	ENDS
;	COMDAT ??_C@_06JJLAMBGK@target@
CONST	SEGMENT
??_C@_06JJLAMBGK@target@ DB 'target', 00H		; `string'
CONST	ENDS
;	COMDAT ??_C@_0BG@EANNPEON@get_gunship_entity?5?$CI?$CJ@
CONST	SEGMENT
??_C@_0BG@EANNPEON@get_gunship_entity?5?$CI?$CJ@ DB 'get_gunship_entity ('
	DB	')', 00H					; `string'
CONST	ENDS
;	COMDAT ?__LINE__Var@?0??enter_view_mode@@YGXW4VIEW_MODES@@@Z@4JA
_DATA	SEGMENT
?__LINE__Var@?0??enter_view_mode@@YGXW4VIEW_MODES@@@Z@4JA DD 0349H ; `enter_view_mode'::`1'::__LINE__Var
_DATA	ENDS
;	COMDAT ??_C@_0BH@KFJLEDAI@Invalid?5view?5mode?5?$DN?5?$CFd@
CONST	SEGMENT
??_C@_0BH@KFJLEDAI@Invalid?5view?5mode?5?$DN?5?$CFd@ DB 'Invalid view mod'
	DB	'e = %d', 00H				; `string'
CONST	ENDS
;	COMDAT ??_C@_0EF@LBJPOBFB@c?3?2users?2nhv90?2projects?2eech?2ap@
CONST	SEGMENT
??_C@_0EF@LBJPOBFB@c?3?2users?2nhv90?2projects?2eech?2ap@ DB 'c:\users\nh'
	DB	'v90\projects\eech\aphavoc\source\gunships\views\vm_main.c', 00H ; `string'
CONST	ENDS
;	COMDAT ?__LINE__Var@?0??view_mode_available@@YGHW4VIEW_MODES@@@Z@4JA
_DATA	SEGMENT
?__LINE__Var@?0??view_mode_available@@YGHW4VIEW_MODES@@@Z@4JA DD 078H ; `view_mode_available'::`1'::__LINE__Var
_DATA	ENDS
; Function compile flags: /Odtp /ZI
; File c:\users\nhv90\projects\eech\aphavoc\source\gunships\views\vm_main.c
;	COMDAT ?enter_view_mode@@YGXW4VIEW_MODES@@@Z
_TEXT	SEGMENT
tv550 = -280						; size = 4
tv524 = -280						; size = 4
tv319 = -280						; size = 4
tv542 = -276						; size = 4
tv516 = -276						; size = 4
tv394 = -276						; size = 4
tv312 = -276						; size = 4
tv306 = -276						; size = 4
tv75 = -276						; size = 4
_target$1 = -208					; size = 4
_s$2 = -204						; size = 200
_type$3 = -4						; size = 4
_mode$ = 8						; size = 4
?enter_view_mode@@YGXW4VIEW_MODES@@@Z PROC		; enter_view_mode, COMDAT

; 841  : {

  00000	55		 push	 ebp
  00001	8b ec		 mov	 ebp, esp
  00003	81 ec 18 01 00
	00		 sub	 esp, 280		; 00000118H
  00009	53		 push	 ebx
  0000a	56		 push	 esi
  0000b	57		 push	 edi

; 842  : 	in_cockpit = in_cockpit_flags[mode];

  0000c	8b 45 08	 mov	 eax, DWORD PTR _mode$[ebp]
  0000f	8b 0c 85 00 00
	00 00		 mov	 ecx, DWORD PTR ?in_cockpit_flags@@3PAHA[eax*4]
  00016	89 0d 00 00 00
	00		 mov	 DWORD PTR ?in_cockpit@@3HA, ecx ; in_cockpit

; 843  : 
; 844  : 	cockpit_panorama_row = cockpit_panorama_row_values[mode];

  0001c	8b 45 08	 mov	 eax, DWORD PTR _mode$[ebp]
  0001f	8b 0c 85 00 00
	00 00		 mov	 ecx, DWORD PTR ?cockpit_panorama_row_values@@3PAHA[eax*4]
  00026	89 0d 00 00 00
	00		 mov	 DWORD PTR ?cockpit_panorama_row@@3HA, ecx ; cockpit_panorama_row

; 845  : 	cockpit_panorama_col = cockpit_panorama_col_values[mode];

  0002c	8b 45 08	 mov	 eax, DWORD PTR _mode$[ebp]
  0002f	8b 0c 85 00 00
	00 00		 mov	 ecx, DWORD PTR ?cockpit_panorama_col_values@@3PAHA[eax*4]
  00036	89 0d 00 00 00
	00		 mov	 DWORD PTR ?cockpit_panorama_col@@3HA, ecx ; cockpit_panorama_col

; 846  : 
; 847  : 	leave_seat_position (mode, view_mode);

  0003c	a1 00 00 00 00	 mov	 eax, DWORD PTR ?view_mode@@3W4VIEW_MODES@@A ; view_mode
  00041	50		 push	 eax
  00042	8b 4d 08	 mov	 ecx, DWORD PTR _mode$[ebp]
  00045	51		 push	 ecx
  00046	e8 00 00 00 00	 call	 ?leave_seat_position@@YGXW4VIEW_MODES@@0@Z ; leave_seat_position

; 848  : 
; 849  : 	set_main_3d_full_screen_params (DISPLAY_3D_TINT_CLEAR, DISPLAY_3D_LIGHT_LEVEL_HIGH, DISPLAY_3D_NOISE_LEVEL_NONE); // Jabberwock 031009 Clear fog

  0004b	6a 00		 push	 0
  0004d	6a 02		 push	 2
  0004f	6a 00		 push	 0
  00051	e8 00 00 00 00	 call	 ?set_main_3d_full_screen_params@@YGXW4DISPLAY_3D_TINTS@@W4DISPLAY_3D_LIGHT_LEVELS@@W4DISPLAY_3D_NOISE_LEVELS@@@Z ; set_main_3d_full_screen_params

; 850  : 
; 851  : 	switch (mode)

  00056	8b 45 08	 mov	 eax, DWORD PTR _mode$[ebp]
  00059	89 85 ec fe ff
	ff		 mov	 DWORD PTR tv75[ebp], eax
  0005f	83 bd ec fe ff
	ff 2b		 cmp	 DWORD PTR tv75[ebp], 43	; 0000002bH
  00066	0f 87 b0 10 00
	00		 ja	 $LN134@enter_view
  0006c	8b 8d ec fe ff
	ff		 mov	 ecx, DWORD PTR tv75[ebp]
  00072	ff 24 8d 00 00
	00 00		 jmp	 DWORD PTR $LN149@enter_view[ecx*4]
$LN8@enter_view:

; 852  : 	{
; 853  : 		////////////////////////////////////////
; 854  : 		case VIEW_MODE_COCKPIT_PANEL_UP40_LEFT90:
; 855  : 		////////////////////////////////////////
; 856  : 		{
; 857  : 			pilot_head_heading = pilot_head_heading_values[mode];

  00079	8b 45 08	 mov	 eax, DWORD PTR _mode$[ebp]
  0007c	f3 0f 10 04 85
	00 00 00 00	 movss	 xmm0, DWORD PTR ?pilot_head_heading_values@@3PAMA[eax*4]
  00085	f3 0f 11 05 00
	00 00 00	 movss	 DWORD PTR ?pilot_head_heading@@3MA, xmm0

; 858  : 
; 859  : 			pilot_head_pitch = pilot_head_pitch_values[mode];

  0008d	8b 45 08	 mov	 eax, DWORD PTR _mode$[ebp]
  00090	f3 0f 10 04 85
	00 00 00 00	 movss	 xmm0, DWORD PTR ?pilot_head_pitch_values@@3PAMA[eax*4]
  00099	f3 0f 11 05 00
	00 00 00	 movss	 DWORD PTR ?pilot_head_pitch@@3MA, xmm0

; 860  : 
; 861  : 			if (!get_apache_havoc_gunship_fixed_cockpit ())

  000a1	a1 0c 00 00 00	 mov	 eax, DWORD PTR ?global_options@@3UGLOBAL_OPTIONS_DATA@@A+12
  000a6	0f b6 88 00 00
	00 00		 movzx	 ecx, BYTE PTR ?new_gunship@@3QBDB[eax]
  000ad	85 c9		 test	 ecx, ecx
  000af	75 1b		 jne	 SHORT $LN10@enter_view
  000b1	83 3d 00 00 00
	00 00		 cmp	 DWORD PTR ?full_screen_hi_res@@3HA, 0 ; full_screen_hi_res
  000b8	75 12		 jne	 SHORT $LN10@enter_view
  000ba	83 3d 00 00 00
	00 10		 cmp	 DWORD PTR ?application_video_colourdepth@@3HA, 16 ; application_video_colourdepth, 00000010H
  000c1	75 09		 jne	 SHORT $LN10@enter_view
  000c3	83 3d 00 00 00
	00 00		 cmp	 DWORD PTR ?global_aphavoc_maps@@3HA, 0 ; global_aphavoc_maps
  000ca	75 07		 jne	 SHORT $LN9@enter_view
$LN10@enter_view:

; 862  : 			{
; 863  : 				mode = VIEW_MODE_VIRTUAL_COCKPIT;

  000cc	c7 45 08 20 00
	00 00		 mov	 DWORD PTR _mode$[ebp], 32 ; 00000020H
$LN9@enter_view:

; 864  : 			}
; 865  : 
; 866  : 			break;

  000d3	e9 55 10 00 00	 jmp	 $LN2@enter_view
$LN11@enter_view:

; 867  : 		}
; 868  : 		////////////////////////////////////////
; 869  : 		case VIEW_MODE_COCKPIT_PANEL_UP40_LEFT60:
; 870  : 		////////////////////////////////////////
; 871  : 		{
; 872  : 			pilot_head_heading = pilot_head_heading_values[mode];

  000d8	8b 45 08	 mov	 eax, DWORD PTR _mode$[ebp]
  000db	f3 0f 10 04 85
	00 00 00 00	 movss	 xmm0, DWORD PTR ?pilot_head_heading_values@@3PAMA[eax*4]
  000e4	f3 0f 11 05 00
	00 00 00	 movss	 DWORD PTR ?pilot_head_heading@@3MA, xmm0

; 873  : 
; 874  : 			pilot_head_pitch = pilot_head_pitch_values[mode];

  000ec	8b 45 08	 mov	 eax, DWORD PTR _mode$[ebp]
  000ef	f3 0f 10 04 85
	00 00 00 00	 movss	 xmm0, DWORD PTR ?pilot_head_pitch_values@@3PAMA[eax*4]
  000f8	f3 0f 11 05 00
	00 00 00	 movss	 DWORD PTR ?pilot_head_pitch@@3MA, xmm0

; 875  : 
; 876  : 			if (!get_apache_havoc_gunship_fixed_cockpit ())

  00100	a1 0c 00 00 00	 mov	 eax, DWORD PTR ?global_options@@3UGLOBAL_OPTIONS_DATA@@A+12
  00105	0f b6 88 00 00
	00 00		 movzx	 ecx, BYTE PTR ?new_gunship@@3QBDB[eax]
  0010c	85 c9		 test	 ecx, ecx
  0010e	75 1b		 jne	 SHORT $LN13@enter_view
  00110	83 3d 00 00 00
	00 00		 cmp	 DWORD PTR ?full_screen_hi_res@@3HA, 0 ; full_screen_hi_res
  00117	75 12		 jne	 SHORT $LN13@enter_view
  00119	83 3d 00 00 00
	00 10		 cmp	 DWORD PTR ?application_video_colourdepth@@3HA, 16 ; application_video_colourdepth, 00000010H
  00120	75 09		 jne	 SHORT $LN13@enter_view
  00122	83 3d 00 00 00
	00 00		 cmp	 DWORD PTR ?global_aphavoc_maps@@3HA, 0 ; global_aphavoc_maps
  00129	75 07		 jne	 SHORT $LN12@enter_view
$LN13@enter_view:

; 877  : 			{
; 878  : 				mode = VIEW_MODE_VIRTUAL_COCKPIT;

  0012b	c7 45 08 20 00
	00 00		 mov	 DWORD PTR _mode$[ebp], 32 ; 00000020H
$LN12@enter_view:

; 879  : 			}
; 880  : 
; 881  : 			break;

  00132	e9 f6 0f 00 00	 jmp	 $LN2@enter_view
$LN14@enter_view:

; 882  : 		}
; 883  : 		////////////////////////////////////////
; 884  : 		case VIEW_MODE_COCKPIT_PANEL_UP40_LEFT30:
; 885  : 		////////////////////////////////////////
; 886  : 		{
; 887  : 			pilot_head_heading = pilot_head_heading_values[mode];

  00137	8b 45 08	 mov	 eax, DWORD PTR _mode$[ebp]
  0013a	f3 0f 10 04 85
	00 00 00 00	 movss	 xmm0, DWORD PTR ?pilot_head_heading_values@@3PAMA[eax*4]
  00143	f3 0f 11 05 00
	00 00 00	 movss	 DWORD PTR ?pilot_head_heading@@3MA, xmm0

; 888  : 
; 889  : 			pilot_head_pitch = pilot_head_pitch_values[mode];

  0014b	8b 45 08	 mov	 eax, DWORD PTR _mode$[ebp]
  0014e	f3 0f 10 04 85
	00 00 00 00	 movss	 xmm0, DWORD PTR ?pilot_head_pitch_values@@3PAMA[eax*4]
  00157	f3 0f 11 05 00
	00 00 00	 movss	 DWORD PTR ?pilot_head_pitch@@3MA, xmm0

; 890  : 
; 891  : 			if (!get_apache_havoc_gunship_fixed_cockpit ())

  0015f	a1 0c 00 00 00	 mov	 eax, DWORD PTR ?global_options@@3UGLOBAL_OPTIONS_DATA@@A+12
  00164	0f b6 88 00 00
	00 00		 movzx	 ecx, BYTE PTR ?new_gunship@@3QBDB[eax]
  0016b	85 c9		 test	 ecx, ecx
  0016d	75 1b		 jne	 SHORT $LN16@enter_view
  0016f	83 3d 00 00 00
	00 00		 cmp	 DWORD PTR ?full_screen_hi_res@@3HA, 0 ; full_screen_hi_res
  00176	75 12		 jne	 SHORT $LN16@enter_view
  00178	83 3d 00 00 00
	00 10		 cmp	 DWORD PTR ?application_video_colourdepth@@3HA, 16 ; application_video_colourdepth, 00000010H
  0017f	75 09		 jne	 SHORT $LN16@enter_view
  00181	83 3d 00 00 00
	00 00		 cmp	 DWORD PTR ?global_aphavoc_maps@@3HA, 0 ; global_aphavoc_maps
  00188	75 07		 jne	 SHORT $LN15@enter_view
$LN16@enter_view:

; 892  : 			{
; 893  : 				mode = VIEW_MODE_VIRTUAL_COCKPIT;

  0018a	c7 45 08 20 00
	00 00		 mov	 DWORD PTR _mode$[ebp], 32 ; 00000020H
$LN15@enter_view:

; 894  : 			}
; 895  : 
; 896  : 			break;

  00191	e9 97 0f 00 00	 jmp	 $LN2@enter_view
$LN17@enter_view:

; 897  : 		}
; 898  : 		////////////////////////////////////////
; 899  : 		case VIEW_MODE_COCKPIT_PANEL_UP40_AHEAD:
; 900  : 		////////////////////////////////////////
; 901  : 		{
; 902  : 			pilot_head_heading = pilot_head_heading_values[mode];

  00196	8b 45 08	 mov	 eax, DWORD PTR _mode$[ebp]
  00199	f3 0f 10 04 85
	00 00 00 00	 movss	 xmm0, DWORD PTR ?pilot_head_heading_values@@3PAMA[eax*4]
  001a2	f3 0f 11 05 00
	00 00 00	 movss	 DWORD PTR ?pilot_head_heading@@3MA, xmm0

; 903  : 
; 904  : 			pilot_head_pitch = pilot_head_pitch_values[mode];

  001aa	8b 45 08	 mov	 eax, DWORD PTR _mode$[ebp]
  001ad	f3 0f 10 04 85
	00 00 00 00	 movss	 xmm0, DWORD PTR ?pilot_head_pitch_values@@3PAMA[eax*4]
  001b6	f3 0f 11 05 00
	00 00 00	 movss	 DWORD PTR ?pilot_head_pitch@@3MA, xmm0

; 905  : 
; 906  : 			if (!get_apache_havoc_gunship_fixed_cockpit ())

  001be	a1 0c 00 00 00	 mov	 eax, DWORD PTR ?global_options@@3UGLOBAL_OPTIONS_DATA@@A+12
  001c3	0f b6 88 00 00
	00 00		 movzx	 ecx, BYTE PTR ?new_gunship@@3QBDB[eax]
  001ca	85 c9		 test	 ecx, ecx
  001cc	75 1b		 jne	 SHORT $LN19@enter_view
  001ce	83 3d 00 00 00
	00 00		 cmp	 DWORD PTR ?full_screen_hi_res@@3HA, 0 ; full_screen_hi_res
  001d5	75 12		 jne	 SHORT $LN19@enter_view
  001d7	83 3d 00 00 00
	00 10		 cmp	 DWORD PTR ?application_video_colourdepth@@3HA, 16 ; application_video_colourdepth, 00000010H
  001de	75 09		 jne	 SHORT $LN19@enter_view
  001e0	83 3d 00 00 00
	00 00		 cmp	 DWORD PTR ?global_aphavoc_maps@@3HA, 0 ; global_aphavoc_maps
  001e7	75 07		 jne	 SHORT $LN18@enter_view
$LN19@enter_view:

; 907  : 			{
; 908  : 				mode = VIEW_MODE_VIRTUAL_COCKPIT;

  001e9	c7 45 08 20 00
	00 00		 mov	 DWORD PTR _mode$[ebp], 32 ; 00000020H
$LN18@enter_view:

; 909  : 			}
; 910  : 
; 911  : 			break;

  001f0	e9 38 0f 00 00	 jmp	 $LN2@enter_view
$LN20@enter_view:

; 912  : 		}
; 913  : 		////////////////////////////////////////
; 914  : 		case VIEW_MODE_COCKPIT_PANEL_UP40_RIGHT30:
; 915  : 		////////////////////////////////////////
; 916  : 		{
; 917  : 			pilot_head_heading = pilot_head_heading_values[mode];

  001f5	8b 45 08	 mov	 eax, DWORD PTR _mode$[ebp]
  001f8	f3 0f 10 04 85
	00 00 00 00	 movss	 xmm0, DWORD PTR ?pilot_head_heading_values@@3PAMA[eax*4]
  00201	f3 0f 11 05 00
	00 00 00	 movss	 DWORD PTR ?pilot_head_heading@@3MA, xmm0

; 918  : 
; 919  : 			pilot_head_pitch = pilot_head_pitch_values[mode];

  00209	8b 45 08	 mov	 eax, DWORD PTR _mode$[ebp]
  0020c	f3 0f 10 04 85
	00 00 00 00	 movss	 xmm0, DWORD PTR ?pilot_head_pitch_values@@3PAMA[eax*4]
  00215	f3 0f 11 05 00
	00 00 00	 movss	 DWORD PTR ?pilot_head_pitch@@3MA, xmm0

; 920  : 
; 921  : 			if (!get_apache_havoc_gunship_fixed_cockpit ())

  0021d	a1 0c 00 00 00	 mov	 eax, DWORD PTR ?global_options@@3UGLOBAL_OPTIONS_DATA@@A+12
  00222	0f b6 88 00 00
	00 00		 movzx	 ecx, BYTE PTR ?new_gunship@@3QBDB[eax]
  00229	85 c9		 test	 ecx, ecx
  0022b	75 1b		 jne	 SHORT $LN22@enter_view
  0022d	83 3d 00 00 00
	00 00		 cmp	 DWORD PTR ?full_screen_hi_res@@3HA, 0 ; full_screen_hi_res
  00234	75 12		 jne	 SHORT $LN22@enter_view
  00236	83 3d 00 00 00
	00 10		 cmp	 DWORD PTR ?application_video_colourdepth@@3HA, 16 ; application_video_colourdepth, 00000010H
  0023d	75 09		 jne	 SHORT $LN22@enter_view
  0023f	83 3d 00 00 00
	00 00		 cmp	 DWORD PTR ?global_aphavoc_maps@@3HA, 0 ; global_aphavoc_maps
  00246	75 07		 jne	 SHORT $LN21@enter_view
$LN22@enter_view:

; 922  : 			{
; 923  : 				mode = VIEW_MODE_VIRTUAL_COCKPIT;

  00248	c7 45 08 20 00
	00 00		 mov	 DWORD PTR _mode$[ebp], 32 ; 00000020H
$LN21@enter_view:

; 924  : 			}
; 925  : 
; 926  : 			break;

  0024f	e9 d9 0e 00 00	 jmp	 $LN2@enter_view
$LN23@enter_view:

; 927  : 		}
; 928  : 		////////////////////////////////////////
; 929  : 		case VIEW_MODE_COCKPIT_PANEL_UP40_RIGHT60:
; 930  : 		////////////////////////////////////////
; 931  : 		{
; 932  : 			pilot_head_heading = pilot_head_heading_values[mode];

  00254	8b 45 08	 mov	 eax, DWORD PTR _mode$[ebp]
  00257	f3 0f 10 04 85
	00 00 00 00	 movss	 xmm0, DWORD PTR ?pilot_head_heading_values@@3PAMA[eax*4]
  00260	f3 0f 11 05 00
	00 00 00	 movss	 DWORD PTR ?pilot_head_heading@@3MA, xmm0

; 933  : 
; 934  : 			pilot_head_pitch = pilot_head_pitch_values[mode];

  00268	8b 45 08	 mov	 eax, DWORD PTR _mode$[ebp]
  0026b	f3 0f 10 04 85
	00 00 00 00	 movss	 xmm0, DWORD PTR ?pilot_head_pitch_values@@3PAMA[eax*4]
  00274	f3 0f 11 05 00
	00 00 00	 movss	 DWORD PTR ?pilot_head_pitch@@3MA, xmm0

; 935  : 
; 936  : 			if (!get_apache_havoc_gunship_fixed_cockpit ())

  0027c	a1 0c 00 00 00	 mov	 eax, DWORD PTR ?global_options@@3UGLOBAL_OPTIONS_DATA@@A+12
  00281	0f b6 88 00 00
	00 00		 movzx	 ecx, BYTE PTR ?new_gunship@@3QBDB[eax]
  00288	85 c9		 test	 ecx, ecx
  0028a	75 1b		 jne	 SHORT $LN25@enter_view
  0028c	83 3d 00 00 00
	00 00		 cmp	 DWORD PTR ?full_screen_hi_res@@3HA, 0 ; full_screen_hi_res
  00293	75 12		 jne	 SHORT $LN25@enter_view
  00295	83 3d 00 00 00
	00 10		 cmp	 DWORD PTR ?application_video_colourdepth@@3HA, 16 ; application_video_colourdepth, 00000010H
  0029c	75 09		 jne	 SHORT $LN25@enter_view
  0029e	83 3d 00 00 00
	00 00		 cmp	 DWORD PTR ?global_aphavoc_maps@@3HA, 0 ; global_aphavoc_maps
  002a5	75 07		 jne	 SHORT $LN24@enter_view
$LN25@enter_view:

; 937  : 			{
; 938  : 				mode = VIEW_MODE_VIRTUAL_COCKPIT;

  002a7	c7 45 08 20 00
	00 00		 mov	 DWORD PTR _mode$[ebp], 32 ; 00000020H
$LN24@enter_view:

; 939  : 			}
; 940  : 
; 941  : 			break;

  002ae	e9 7a 0e 00 00	 jmp	 $LN2@enter_view
$LN26@enter_view:

; 942  : 		}
; 943  : 		////////////////////////////////////////
; 944  : 		case VIEW_MODE_COCKPIT_PANEL_UP40_RIGHT90:
; 945  : 		////////////////////////////////////////
; 946  : 		{
; 947  : 			pilot_head_heading = pilot_head_heading_values[mode];

  002b3	8b 45 08	 mov	 eax, DWORD PTR _mode$[ebp]
  002b6	f3 0f 10 04 85
	00 00 00 00	 movss	 xmm0, DWORD PTR ?pilot_head_heading_values@@3PAMA[eax*4]
  002bf	f3 0f 11 05 00
	00 00 00	 movss	 DWORD PTR ?pilot_head_heading@@3MA, xmm0

; 948  : 
; 949  : 			pilot_head_pitch = pilot_head_pitch_values[mode];

  002c7	8b 45 08	 mov	 eax, DWORD PTR _mode$[ebp]
  002ca	f3 0f 10 04 85
	00 00 00 00	 movss	 xmm0, DWORD PTR ?pilot_head_pitch_values@@3PAMA[eax*4]
  002d3	f3 0f 11 05 00
	00 00 00	 movss	 DWORD PTR ?pilot_head_pitch@@3MA, xmm0

; 950  : 
; 951  : 			if (!get_apache_havoc_gunship_fixed_cockpit ())

  002db	a1 0c 00 00 00	 mov	 eax, DWORD PTR ?global_options@@3UGLOBAL_OPTIONS_DATA@@A+12
  002e0	0f b6 88 00 00
	00 00		 movzx	 ecx, BYTE PTR ?new_gunship@@3QBDB[eax]
  002e7	85 c9		 test	 ecx, ecx
  002e9	75 1b		 jne	 SHORT $LN28@enter_view
  002eb	83 3d 00 00 00
	00 00		 cmp	 DWORD PTR ?full_screen_hi_res@@3HA, 0 ; full_screen_hi_res
  002f2	75 12		 jne	 SHORT $LN28@enter_view
  002f4	83 3d 00 00 00
	00 10		 cmp	 DWORD PTR ?application_video_colourdepth@@3HA, 16 ; application_video_colourdepth, 00000010H
  002fb	75 09		 jne	 SHORT $LN28@enter_view
  002fd	83 3d 00 00 00
	00 00		 cmp	 DWORD PTR ?global_aphavoc_maps@@3HA, 0 ; global_aphavoc_maps
  00304	75 07		 jne	 SHORT $LN27@enter_view
$LN28@enter_view:

; 952  : 			{
; 953  : 				mode = VIEW_MODE_VIRTUAL_COCKPIT;

  00306	c7 45 08 20 00
	00 00		 mov	 DWORD PTR _mode$[ebp], 32 ; 00000020H
$LN27@enter_view:

; 954  : 			}
; 955  : 
; 956  : 			break;

  0030d	e9 1b 0e 00 00	 jmp	 $LN2@enter_view
$LN29@enter_view:

; 957  : 		}
; 958  : 		////////////////////////////////////////
; 959  : 		case VIEW_MODE_COCKPIT_PANEL_UP20_LEFT90:
; 960  : 		////////////////////////////////////////
; 961  : 		{
; 962  : 			pilot_head_heading = pilot_head_heading_values[mode];

  00312	8b 45 08	 mov	 eax, DWORD PTR _mode$[ebp]
  00315	f3 0f 10 04 85
	00 00 00 00	 movss	 xmm0, DWORD PTR ?pilot_head_heading_values@@3PAMA[eax*4]
  0031e	f3 0f 11 05 00
	00 00 00	 movss	 DWORD PTR ?pilot_head_heading@@3MA, xmm0

; 963  : 
; 964  : 			pilot_head_pitch = pilot_head_pitch_values[mode];

  00326	8b 45 08	 mov	 eax, DWORD PTR _mode$[ebp]
  00329	f3 0f 10 04 85
	00 00 00 00	 movss	 xmm0, DWORD PTR ?pilot_head_pitch_values@@3PAMA[eax*4]
  00332	f3 0f 11 05 00
	00 00 00	 movss	 DWORD PTR ?pilot_head_pitch@@3MA, xmm0

; 965  : 
; 966  : 			if (!get_apache_havoc_gunship_fixed_cockpit ())

  0033a	a1 0c 00 00 00	 mov	 eax, DWORD PTR ?global_options@@3UGLOBAL_OPTIONS_DATA@@A+12
  0033f	0f b6 88 00 00
	00 00		 movzx	 ecx, BYTE PTR ?new_gunship@@3QBDB[eax]
  00346	85 c9		 test	 ecx, ecx
  00348	75 1b		 jne	 SHORT $LN31@enter_view
  0034a	83 3d 00 00 00
	00 00		 cmp	 DWORD PTR ?full_screen_hi_res@@3HA, 0 ; full_screen_hi_res
  00351	75 12		 jne	 SHORT $LN31@enter_view
  00353	83 3d 00 00 00
	00 10		 cmp	 DWORD PTR ?application_video_colourdepth@@3HA, 16 ; application_video_colourdepth, 00000010H
  0035a	75 09		 jne	 SHORT $LN31@enter_view
  0035c	83 3d 00 00 00
	00 00		 cmp	 DWORD PTR ?global_aphavoc_maps@@3HA, 0 ; global_aphavoc_maps
  00363	75 07		 jne	 SHORT $LN30@enter_view
$LN31@enter_view:

; 967  : 			{
; 968  : 				mode = VIEW_MODE_VIRTUAL_COCKPIT;

  00365	c7 45 08 20 00
	00 00		 mov	 DWORD PTR _mode$[ebp], 32 ; 00000020H
$LN30@enter_view:

; 969  : 			}
; 970  : 
; 971  : 			break;

  0036c	e9 bc 0d 00 00	 jmp	 $LN2@enter_view
$LN32@enter_view:

; 972  : 		}
; 973  : 		////////////////////////////////////////
; 974  : 		case VIEW_MODE_COCKPIT_PANEL_UP20_LEFT60:
; 975  : 		////////////////////////////////////////
; 976  : 		{
; 977  : 			pilot_head_heading = pilot_head_heading_values[mode];

  00371	8b 45 08	 mov	 eax, DWORD PTR _mode$[ebp]
  00374	f3 0f 10 04 85
	00 00 00 00	 movss	 xmm0, DWORD PTR ?pilot_head_heading_values@@3PAMA[eax*4]
  0037d	f3 0f 11 05 00
	00 00 00	 movss	 DWORD PTR ?pilot_head_heading@@3MA, xmm0

; 978  : 
; 979  : 			pilot_head_pitch = pilot_head_pitch_values[mode];

  00385	8b 45 08	 mov	 eax, DWORD PTR _mode$[ebp]
  00388	f3 0f 10 04 85
	00 00 00 00	 movss	 xmm0, DWORD PTR ?pilot_head_pitch_values@@3PAMA[eax*4]
  00391	f3 0f 11 05 00
	00 00 00	 movss	 DWORD PTR ?pilot_head_pitch@@3MA, xmm0

; 980  : 
; 981  : 			if (!get_apache_havoc_gunship_fixed_cockpit ())

  00399	a1 0c 00 00 00	 mov	 eax, DWORD PTR ?global_options@@3UGLOBAL_OPTIONS_DATA@@A+12
  0039e	0f b6 88 00 00
	00 00		 movzx	 ecx, BYTE PTR ?new_gunship@@3QBDB[eax]
  003a5	85 c9		 test	 ecx, ecx
  003a7	75 1b		 jne	 SHORT $LN34@enter_view
  003a9	83 3d 00 00 00
	00 00		 cmp	 DWORD PTR ?full_screen_hi_res@@3HA, 0 ; full_screen_hi_res
  003b0	75 12		 jne	 SHORT $LN34@enter_view
  003b2	83 3d 00 00 00
	00 10		 cmp	 DWORD PTR ?application_video_colourdepth@@3HA, 16 ; application_video_colourdepth, 00000010H
  003b9	75 09		 jne	 SHORT $LN34@enter_view
  003bb	83 3d 00 00 00
	00 00		 cmp	 DWORD PTR ?global_aphavoc_maps@@3HA, 0 ; global_aphavoc_maps
  003c2	75 07		 jne	 SHORT $LN33@enter_view
$LN34@enter_view:

; 982  : 			{
; 983  : 				mode = VIEW_MODE_VIRTUAL_COCKPIT;

  003c4	c7 45 08 20 00
	00 00		 mov	 DWORD PTR _mode$[ebp], 32 ; 00000020H
$LN33@enter_view:

; 984  : 			}
; 985  : 
; 986  : 			break;

  003cb	e9 5d 0d 00 00	 jmp	 $LN2@enter_view
$LN35@enter_view:

; 987  : 		}
; 988  : 		////////////////////////////////////////
; 989  : 		case VIEW_MODE_COCKPIT_PANEL_UP20_LEFT30:
; 990  : 		////////////////////////////////////////
; 991  : 		{
; 992  : 			pilot_head_heading = pilot_head_heading_values[mode];

  003d0	8b 45 08	 mov	 eax, DWORD PTR _mode$[ebp]
  003d3	f3 0f 10 04 85
	00 00 00 00	 movss	 xmm0, DWORD PTR ?pilot_head_heading_values@@3PAMA[eax*4]
  003dc	f3 0f 11 05 00
	00 00 00	 movss	 DWORD PTR ?pilot_head_heading@@3MA, xmm0

; 993  : 
; 994  : 			pilot_head_pitch = pilot_head_pitch_values[mode];

  003e4	8b 45 08	 mov	 eax, DWORD PTR _mode$[ebp]
  003e7	f3 0f 10 04 85
	00 00 00 00	 movss	 xmm0, DWORD PTR ?pilot_head_pitch_values@@3PAMA[eax*4]
  003f0	f3 0f 11 05 00
	00 00 00	 movss	 DWORD PTR ?pilot_head_pitch@@3MA, xmm0

; 995  : 
; 996  : 			if (!get_apache_havoc_gunship_fixed_cockpit ())

  003f8	a1 0c 00 00 00	 mov	 eax, DWORD PTR ?global_options@@3UGLOBAL_OPTIONS_DATA@@A+12
  003fd	0f b6 88 00 00
	00 00		 movzx	 ecx, BYTE PTR ?new_gunship@@3QBDB[eax]
  00404	85 c9		 test	 ecx, ecx
  00406	75 1b		 jne	 SHORT $LN37@enter_view
  00408	83 3d 00 00 00
	00 00		 cmp	 DWORD PTR ?full_screen_hi_res@@3HA, 0 ; full_screen_hi_res
  0040f	75 12		 jne	 SHORT $LN37@enter_view
  00411	83 3d 00 00 00
	00 10		 cmp	 DWORD PTR ?application_video_colourdepth@@3HA, 16 ; application_video_colourdepth, 00000010H
  00418	75 09		 jne	 SHORT $LN37@enter_view
  0041a	83 3d 00 00 00
	00 00		 cmp	 DWORD PTR ?global_aphavoc_maps@@3HA, 0 ; global_aphavoc_maps
  00421	75 07		 jne	 SHORT $LN36@enter_view
$LN37@enter_view:

; 997  : 			{
; 998  : 				mode = VIEW_MODE_VIRTUAL_COCKPIT;

  00423	c7 45 08 20 00
	00 00		 mov	 DWORD PTR _mode$[ebp], 32 ; 00000020H
$LN36@enter_view:

; 999  : 			}
; 1000 : 
; 1001 : 			break;

  0042a	e9 fe 0c 00 00	 jmp	 $LN2@enter_view
$LN38@enter_view:

; 1002 : 		}
; 1003 : 		////////////////////////////////////////
; 1004 : 		case VIEW_MODE_COCKPIT_PANEL_UP20_AHEAD:
; 1005 : 		////////////////////////////////////////
; 1006 : 		{
; 1007 : 			pilot_head_heading = pilot_head_heading_values[mode];

  0042f	8b 45 08	 mov	 eax, DWORD PTR _mode$[ebp]
  00432	f3 0f 10 04 85
	00 00 00 00	 movss	 xmm0, DWORD PTR ?pilot_head_heading_values@@3PAMA[eax*4]
  0043b	f3 0f 11 05 00
	00 00 00	 movss	 DWORD PTR ?pilot_head_heading@@3MA, xmm0

; 1008 : 
; 1009 : 			pilot_head_pitch = pilot_head_pitch_values[mode];

  00443	8b 45 08	 mov	 eax, DWORD PTR _mode$[ebp]
  00446	f3 0f 10 04 85
	00 00 00 00	 movss	 xmm0, DWORD PTR ?pilot_head_pitch_values@@3PAMA[eax*4]
  0044f	f3 0f 11 05 00
	00 00 00	 movss	 DWORD PTR ?pilot_head_pitch@@3MA, xmm0

; 1010 : 
; 1011 : 			if (!get_apache_havoc_gunship_fixed_cockpit ())

  00457	a1 0c 00 00 00	 mov	 eax, DWORD PTR ?global_options@@3UGLOBAL_OPTIONS_DATA@@A+12
  0045c	0f b6 88 00 00
	00 00		 movzx	 ecx, BYTE PTR ?new_gunship@@3QBDB[eax]
  00463	85 c9		 test	 ecx, ecx
  00465	75 1b		 jne	 SHORT $LN40@enter_view
  00467	83 3d 00 00 00
	00 00		 cmp	 DWORD PTR ?full_screen_hi_res@@3HA, 0 ; full_screen_hi_res
  0046e	75 12		 jne	 SHORT $LN40@enter_view
  00470	83 3d 00 00 00
	00 10		 cmp	 DWORD PTR ?application_video_colourdepth@@3HA, 16 ; application_video_colourdepth, 00000010H
  00477	75 09		 jne	 SHORT $LN40@enter_view
  00479	83 3d 00 00 00
	00 00		 cmp	 DWORD PTR ?global_aphavoc_maps@@3HA, 0 ; global_aphavoc_maps
  00480	75 07		 jne	 SHORT $LN39@enter_view
$LN40@enter_view:

; 1012 : 			{
; 1013 : 				mode = VIEW_MODE_VIRTUAL_COCKPIT;

  00482	c7 45 08 20 00
	00 00		 mov	 DWORD PTR _mode$[ebp], 32 ; 00000020H
$LN39@enter_view:

; 1014 : 			}
; 1015 : 
; 1016 : 			break;

  00489	e9 9f 0c 00 00	 jmp	 $LN2@enter_view
$LN41@enter_view:

; 1017 : 		}
; 1018 : 		////////////////////////////////////////
; 1019 : 		case VIEW_MODE_COCKPIT_PANEL_UP20_RIGHT30:
; 1020 : 		////////////////////////////////////////
; 1021 : 		{
; 1022 : 			pilot_head_heading = pilot_head_heading_values[mode];

  0048e	8b 45 08	 mov	 eax, DWORD PTR _mode$[ebp]
  00491	f3 0f 10 04 85
	00 00 00 00	 movss	 xmm0, DWORD PTR ?pilot_head_heading_values@@3PAMA[eax*4]
  0049a	f3 0f 11 05 00
	00 00 00	 movss	 DWORD PTR ?pilot_head_heading@@3MA, xmm0

; 1023 : 
; 1024 : 			pilot_head_pitch = pilot_head_pitch_values[mode];

  004a2	8b 45 08	 mov	 eax, DWORD PTR _mode$[ebp]
  004a5	f3 0f 10 04 85
	00 00 00 00	 movss	 xmm0, DWORD PTR ?pilot_head_pitch_values@@3PAMA[eax*4]
  004ae	f3 0f 11 05 00
	00 00 00	 movss	 DWORD PTR ?pilot_head_pitch@@3MA, xmm0

; 1025 : 
; 1026 : 			if (!get_apache_havoc_gunship_fixed_cockpit ())

  004b6	a1 0c 00 00 00	 mov	 eax, DWORD PTR ?global_options@@3UGLOBAL_OPTIONS_DATA@@A+12
  004bb	0f b6 88 00 00
	00 00		 movzx	 ecx, BYTE PTR ?new_gunship@@3QBDB[eax]
  004c2	85 c9		 test	 ecx, ecx
  004c4	75 1b		 jne	 SHORT $LN43@enter_view
  004c6	83 3d 00 00 00
	00 00		 cmp	 DWORD PTR ?full_screen_hi_res@@3HA, 0 ; full_screen_hi_res
  004cd	75 12		 jne	 SHORT $LN43@enter_view
  004cf	83 3d 00 00 00
	00 10		 cmp	 DWORD PTR ?application_video_colourdepth@@3HA, 16 ; application_video_colourdepth, 00000010H
  004d6	75 09		 jne	 SHORT $LN43@enter_view
  004d8	83 3d 00 00 00
	00 00		 cmp	 DWORD PTR ?global_aphavoc_maps@@3HA, 0 ; global_aphavoc_maps
  004df	75 07		 jne	 SHORT $LN42@enter_view
$LN43@enter_view:

; 1027 : 			{
; 1028 : 				mode = VIEW_MODE_VIRTUAL_COCKPIT;

  004e1	c7 45 08 20 00
	00 00		 mov	 DWORD PTR _mode$[ebp], 32 ; 00000020H
$LN42@enter_view:

; 1029 : 			}
; 1030 : 
; 1031 : 			break;

  004e8	e9 40 0c 00 00	 jmp	 $LN2@enter_view
$LN44@enter_view:

; 1032 : 		}
; 1033 : 		////////////////////////////////////////
; 1034 : 		case VIEW_MODE_COCKPIT_PANEL_UP20_RIGHT60:
; 1035 : 		////////////////////////////////////////
; 1036 : 		{
; 1037 : 			pilot_head_heading = pilot_head_heading_values[mode];

  004ed	8b 45 08	 mov	 eax, DWORD PTR _mode$[ebp]
  004f0	f3 0f 10 04 85
	00 00 00 00	 movss	 xmm0, DWORD PTR ?pilot_head_heading_values@@3PAMA[eax*4]
  004f9	f3 0f 11 05 00
	00 00 00	 movss	 DWORD PTR ?pilot_head_heading@@3MA, xmm0

; 1038 : 
; 1039 : 			pilot_head_pitch = pilot_head_pitch_values[mode];

  00501	8b 45 08	 mov	 eax, DWORD PTR _mode$[ebp]
  00504	f3 0f 10 04 85
	00 00 00 00	 movss	 xmm0, DWORD PTR ?pilot_head_pitch_values@@3PAMA[eax*4]
  0050d	f3 0f 11 05 00
	00 00 00	 movss	 DWORD PTR ?pilot_head_pitch@@3MA, xmm0

; 1040 : 
; 1041 : 			if (!get_apache_havoc_gunship_fixed_cockpit ())

  00515	a1 0c 00 00 00	 mov	 eax, DWORD PTR ?global_options@@3UGLOBAL_OPTIONS_DATA@@A+12
  0051a	0f b6 88 00 00
	00 00		 movzx	 ecx, BYTE PTR ?new_gunship@@3QBDB[eax]
  00521	85 c9		 test	 ecx, ecx
  00523	75 1b		 jne	 SHORT $LN46@enter_view
  00525	83 3d 00 00 00
	00 00		 cmp	 DWORD PTR ?full_screen_hi_res@@3HA, 0 ; full_screen_hi_res
  0052c	75 12		 jne	 SHORT $LN46@enter_view
  0052e	83 3d 00 00 00
	00 10		 cmp	 DWORD PTR ?application_video_colourdepth@@3HA, 16 ; application_video_colourdepth, 00000010H
  00535	75 09		 jne	 SHORT $LN46@enter_view
  00537	83 3d 00 00 00
	00 00		 cmp	 DWORD PTR ?global_aphavoc_maps@@3HA, 0 ; global_aphavoc_maps
  0053e	75 07		 jne	 SHORT $LN45@enter_view
$LN46@enter_view:

; 1042 : 			{
; 1043 : 				mode = VIEW_MODE_VIRTUAL_COCKPIT;

  00540	c7 45 08 20 00
	00 00		 mov	 DWORD PTR _mode$[ebp], 32 ; 00000020H
$LN45@enter_view:

; 1044 : 			}
; 1045 : 
; 1046 : 			break;

  00547	e9 e1 0b 00 00	 jmp	 $LN2@enter_view
$LN47@enter_view:

; 1047 : 		}
; 1048 : 		////////////////////////////////////////
; 1049 : 		case VIEW_MODE_COCKPIT_PANEL_UP20_RIGHT90:
; 1050 : 		////////////////////////////////////////
; 1051 : 		{
; 1052 : 			pilot_head_heading = pilot_head_heading_values[mode];

  0054c	8b 45 08	 mov	 eax, DWORD PTR _mode$[ebp]
  0054f	f3 0f 10 04 85
	00 00 00 00	 movss	 xmm0, DWORD PTR ?pilot_head_heading_values@@3PAMA[eax*4]
  00558	f3 0f 11 05 00
	00 00 00	 movss	 DWORD PTR ?pilot_head_heading@@3MA, xmm0

; 1053 : 
; 1054 : 			pilot_head_pitch = pilot_head_pitch_values[mode];

  00560	8b 45 08	 mov	 eax, DWORD PTR _mode$[ebp]
  00563	f3 0f 10 04 85
	00 00 00 00	 movss	 xmm0, DWORD PTR ?pilot_head_pitch_values@@3PAMA[eax*4]
  0056c	f3 0f 11 05 00
	00 00 00	 movss	 DWORD PTR ?pilot_head_pitch@@3MA, xmm0

; 1055 : 
; 1056 : 			if (!get_apache_havoc_gunship_fixed_cockpit ())

  00574	a1 0c 00 00 00	 mov	 eax, DWORD PTR ?global_options@@3UGLOBAL_OPTIONS_DATA@@A+12
  00579	0f b6 88 00 00
	00 00		 movzx	 ecx, BYTE PTR ?new_gunship@@3QBDB[eax]
  00580	85 c9		 test	 ecx, ecx
  00582	75 1b		 jne	 SHORT $LN49@enter_view
  00584	83 3d 00 00 00
	00 00		 cmp	 DWORD PTR ?full_screen_hi_res@@3HA, 0 ; full_screen_hi_res
  0058b	75 12		 jne	 SHORT $LN49@enter_view
  0058d	83 3d 00 00 00
	00 10		 cmp	 DWORD PTR ?application_video_colourdepth@@3HA, 16 ; application_video_colourdepth, 00000010H
  00594	75 09		 jne	 SHORT $LN49@enter_view
  00596	83 3d 00 00 00
	00 00		 cmp	 DWORD PTR ?global_aphavoc_maps@@3HA, 0 ; global_aphavoc_maps
  0059d	75 07		 jne	 SHORT $LN48@enter_view
$LN49@enter_view:

; 1057 : 			{
; 1058 : 				mode = VIEW_MODE_VIRTUAL_COCKPIT;

  0059f	c7 45 08 20 00
	00 00		 mov	 DWORD PTR _mode$[ebp], 32 ; 00000020H
$LN48@enter_view:

; 1059 : 			}
; 1060 : 
; 1061 : 			break;

  005a6	e9 82 0b 00 00	 jmp	 $LN2@enter_view
$LN50@enter_view:

; 1062 : 		}
; 1063 : 		////////////////////////////////////////
; 1064 : 		case VIEW_MODE_COCKPIT_PANEL_LEVEL_LEFT90:
; 1065 : 		////////////////////////////////////////
; 1066 : 		{
; 1067 : 			pilot_head_heading = pilot_head_heading_values[mode];

  005ab	8b 45 08	 mov	 eax, DWORD PTR _mode$[ebp]
  005ae	f3 0f 10 04 85
	00 00 00 00	 movss	 xmm0, DWORD PTR ?pilot_head_heading_values@@3PAMA[eax*4]
  005b7	f3 0f 11 05 00
	00 00 00	 movss	 DWORD PTR ?pilot_head_heading@@3MA, xmm0

; 1068 : 
; 1069 : 			pilot_head_pitch = pilot_head_pitch_values[mode];

  005bf	8b 45 08	 mov	 eax, DWORD PTR _mode$[ebp]
  005c2	f3 0f 10 04 85
	00 00 00 00	 movss	 xmm0, DWORD PTR ?pilot_head_pitch_values@@3PAMA[eax*4]
  005cb	f3 0f 11 05 00
	00 00 00	 movss	 DWORD PTR ?pilot_head_pitch@@3MA, xmm0

; 1070 : 
; 1071 : 			if (!get_apache_havoc_gunship_fixed_cockpit ())

  005d3	a1 0c 00 00 00	 mov	 eax, DWORD PTR ?global_options@@3UGLOBAL_OPTIONS_DATA@@A+12
  005d8	0f b6 88 00 00
	00 00		 movzx	 ecx, BYTE PTR ?new_gunship@@3QBDB[eax]
  005df	85 c9		 test	 ecx, ecx
  005e1	75 1b		 jne	 SHORT $LN52@enter_view
  005e3	83 3d 00 00 00
	00 00		 cmp	 DWORD PTR ?full_screen_hi_res@@3HA, 0 ; full_screen_hi_res
  005ea	75 12		 jne	 SHORT $LN52@enter_view
  005ec	83 3d 00 00 00
	00 10		 cmp	 DWORD PTR ?application_video_colourdepth@@3HA, 16 ; application_video_colourdepth, 00000010H
  005f3	75 09		 jne	 SHORT $LN52@enter_view
  005f5	83 3d 00 00 00
	00 00		 cmp	 DWORD PTR ?global_aphavoc_maps@@3HA, 0 ; global_aphavoc_maps
  005fc	75 07		 jne	 SHORT $LN51@enter_view
$LN52@enter_view:

; 1072 : 			{
; 1073 : 				mode = VIEW_MODE_VIRTUAL_COCKPIT;

  005fe	c7 45 08 20 00
	00 00		 mov	 DWORD PTR _mode$[ebp], 32 ; 00000020H
$LN51@enter_view:

; 1074 : 			}
; 1075 : 
; 1076 : 			break;

  00605	e9 23 0b 00 00	 jmp	 $LN2@enter_view
$LN53@enter_view:

; 1077 : 		}
; 1078 : 		////////////////////////////////////////
; 1079 : 		case VIEW_MODE_COCKPIT_PANEL_LEVEL_LEFT60:
; 1080 : 		////////////////////////////////////////
; 1081 : 		{
; 1082 : 			pilot_head_heading = pilot_head_heading_values[mode];

  0060a	8b 45 08	 mov	 eax, DWORD PTR _mode$[ebp]
  0060d	f3 0f 10 04 85
	00 00 00 00	 movss	 xmm0, DWORD PTR ?pilot_head_heading_values@@3PAMA[eax*4]
  00616	f3 0f 11 05 00
	00 00 00	 movss	 DWORD PTR ?pilot_head_heading@@3MA, xmm0

; 1083 : 
; 1084 : 			pilot_head_pitch = pilot_head_pitch_values[mode];

  0061e	8b 45 08	 mov	 eax, DWORD PTR _mode$[ebp]
  00621	f3 0f 10 04 85
	00 00 00 00	 movss	 xmm0, DWORD PTR ?pilot_head_pitch_values@@3PAMA[eax*4]
  0062a	f3 0f 11 05 00
	00 00 00	 movss	 DWORD PTR ?pilot_head_pitch@@3MA, xmm0

; 1085 : 
; 1086 : 			if (!get_apache_havoc_gunship_fixed_cockpit ())

  00632	a1 0c 00 00 00	 mov	 eax, DWORD PTR ?global_options@@3UGLOBAL_OPTIONS_DATA@@A+12
  00637	0f b6 88 00 00
	00 00		 movzx	 ecx, BYTE PTR ?new_gunship@@3QBDB[eax]
  0063e	85 c9		 test	 ecx, ecx
  00640	75 1b		 jne	 SHORT $LN55@enter_view
  00642	83 3d 00 00 00
	00 00		 cmp	 DWORD PTR ?full_screen_hi_res@@3HA, 0 ; full_screen_hi_res
  00649	75 12		 jne	 SHORT $LN55@enter_view
  0064b	83 3d 00 00 00
	00 10		 cmp	 DWORD PTR ?application_video_colourdepth@@3HA, 16 ; application_video_colourdepth, 00000010H
  00652	75 09		 jne	 SHORT $LN55@enter_view
  00654	83 3d 00 00 00
	00 00		 cmp	 DWORD PTR ?global_aphavoc_maps@@3HA, 0 ; global_aphavoc_maps
  0065b	75 07		 jne	 SHORT $LN54@enter_view
$LN55@enter_view:

; 1087 : 			{
; 1088 : 				mode = VIEW_MODE_VIRTUAL_COCKPIT;

  0065d	c7 45 08 20 00
	00 00		 mov	 DWORD PTR _mode$[ebp], 32 ; 00000020H
$LN54@enter_view:

; 1089 : 			}
; 1090 : 
; 1091 : 			break;

  00664	e9 c4 0a 00 00	 jmp	 $LN2@enter_view
$LN56@enter_view:

; 1092 : 		}
; 1093 : 		////////////////////////////////////////
; 1094 : 		case VIEW_MODE_COCKPIT_PANEL_LEVEL_LEFT30:
; 1095 : 		////////////////////////////////////////
; 1096 : 		{
; 1097 : 			pilot_head_heading = pilot_head_heading_values[mode];

  00669	8b 45 08	 mov	 eax, DWORD PTR _mode$[ebp]
  0066c	f3 0f 10 04 85
	00 00 00 00	 movss	 xmm0, DWORD PTR ?pilot_head_heading_values@@3PAMA[eax*4]
  00675	f3 0f 11 05 00
	00 00 00	 movss	 DWORD PTR ?pilot_head_heading@@3MA, xmm0

; 1098 : 
; 1099 : 			pilot_head_pitch = pilot_head_pitch_values[mode];

  0067d	8b 45 08	 mov	 eax, DWORD PTR _mode$[ebp]
  00680	f3 0f 10 04 85
	00 00 00 00	 movss	 xmm0, DWORD PTR ?pilot_head_pitch_values@@3PAMA[eax*4]
  00689	f3 0f 11 05 00
	00 00 00	 movss	 DWORD PTR ?pilot_head_pitch@@3MA, xmm0

; 1100 : 
; 1101 : 			if (!get_apache_havoc_gunship_fixed_cockpit ())

  00691	a1 0c 00 00 00	 mov	 eax, DWORD PTR ?global_options@@3UGLOBAL_OPTIONS_DATA@@A+12
  00696	0f b6 88 00 00
	00 00		 movzx	 ecx, BYTE PTR ?new_gunship@@3QBDB[eax]
  0069d	85 c9		 test	 ecx, ecx
  0069f	75 1b		 jne	 SHORT $LN58@enter_view
  006a1	83 3d 00 00 00
	00 00		 cmp	 DWORD PTR ?full_screen_hi_res@@3HA, 0 ; full_screen_hi_res
  006a8	75 12		 jne	 SHORT $LN58@enter_view
  006aa	83 3d 00 00 00
	00 10		 cmp	 DWORD PTR ?application_video_colourdepth@@3HA, 16 ; application_video_colourdepth, 00000010H
  006b1	75 09		 jne	 SHORT $LN58@enter_view
  006b3	83 3d 00 00 00
	00 00		 cmp	 DWORD PTR ?global_aphavoc_maps@@3HA, 0 ; global_aphavoc_maps
  006ba	75 07		 jne	 SHORT $LN57@enter_view
$LN58@enter_view:

; 1102 : 			{
; 1103 : 				mode = VIEW_MODE_VIRTUAL_COCKPIT;

  006bc	c7 45 08 20 00
	00 00		 mov	 DWORD PTR _mode$[ebp], 32 ; 00000020H
$LN57@enter_view:

; 1104 : 			}
; 1105 : 
; 1106 : 			break;

  006c3	e9 65 0a 00 00	 jmp	 $LN2@enter_view
$LN59@enter_view:

; 1107 : 		}
; 1108 : 		////////////////////////////////////////
; 1109 : 		case VIEW_MODE_COCKPIT_PANEL_LEVEL_AHEAD:
; 1110 : 		////////////////////////////////////////
; 1111 : 		{
; 1112 : 			pilot_head_heading = pilot_head_heading_values[mode];

  006c8	8b 45 08	 mov	 eax, DWORD PTR _mode$[ebp]
  006cb	f3 0f 10 04 85
	00 00 00 00	 movss	 xmm0, DWORD PTR ?pilot_head_heading_values@@3PAMA[eax*4]
  006d4	f3 0f 11 05 00
	00 00 00	 movss	 DWORD PTR ?pilot_head_heading@@3MA, xmm0

; 1113 : 
; 1114 : 			pilot_head_pitch = pilot_head_pitch_values[mode];

  006dc	8b 45 08	 mov	 eax, DWORD PTR _mode$[ebp]
  006df	f3 0f 10 04 85
	00 00 00 00	 movss	 xmm0, DWORD PTR ?pilot_head_pitch_values@@3PAMA[eax*4]
  006e8	f3 0f 11 05 00
	00 00 00	 movss	 DWORD PTR ?pilot_head_pitch@@3MA, xmm0

; 1115 : 
; 1116 : 			if (!get_apache_havoc_gunship_fixed_cockpit ())

  006f0	a1 0c 00 00 00	 mov	 eax, DWORD PTR ?global_options@@3UGLOBAL_OPTIONS_DATA@@A+12
  006f5	0f b6 88 00 00
	00 00		 movzx	 ecx, BYTE PTR ?new_gunship@@3QBDB[eax]
  006fc	85 c9		 test	 ecx, ecx
  006fe	75 1f		 jne	 SHORT $LN61@enter_view
  00700	83 3d 00 00 00
	00 00		 cmp	 DWORD PTR ?full_screen_hi_res@@3HA, 0 ; full_screen_hi_res
  00707	75 16		 jne	 SHORT $LN61@enter_view
  00709	83 3d 00 00 00
	00 10		 cmp	 DWORD PTR ?application_video_colourdepth@@3HA, 16 ; application_video_colourdepth, 00000010H
  00710	75 0d		 jne	 SHORT $LN61@enter_view
  00712	83 3d 00 00 00
	00 00		 cmp	 DWORD PTR ?global_aphavoc_maps@@3HA, 0 ; global_aphavoc_maps
  00719	0f 85 ff 00 00
	00		 jne	 $LN60@enter_view
$LN61@enter_view:

; 1117 : 			{
; 1118 : 				gunship_types type = get_global_gunship_type();

  0071f	a1 0c 00 00 00	 mov	 eax, DWORD PTR ?global_options@@3UGLOBAL_OPTIONS_DATA@@A+12
  00724	89 45 fc	 mov	 DWORD PTR _type$3[ebp], eax

; 1119 : 				//VJ 050211 needed for wideview pitch setting
; 1120 : 				//VJ 060910 use correct pitch in comanche and hokum
; 1121 : 				// arneh - adjusted for helicopter types which have several crew positions
; 1122 : 				switch (type)

  00727	8b 45 fc	 mov	 eax, DWORD PTR _type$3[ebp]
  0072a	89 85 ec fe ff
	ff		 mov	 DWORD PTR tv306[ebp], eax
  00730	8b 8d ec fe ff
	ff		 mov	 ecx, DWORD PTR tv306[ebp]
  00736	83 e9 02	 sub	 ecx, 2
  00739	89 8d ec fe ff
	ff		 mov	 DWORD PTR tv306[ebp], ecx
  0073f	83 bd ec fe ff
	ff 07		 cmp	 DWORD PTR tv306[ebp], 7
  00746	77 19		 ja	 SHORT $LN63@enter_view
  00748	8b 95 ec fe ff
	ff		 mov	 edx, DWORD PTR tv306[ebp]
  0074e	0f b6 82 00 00
	00 00		 movzx	 eax, BYTE PTR $LN148@enter_view[edx]
  00755	ff 24 85 00 00
	00 00		 jmp	 DWORD PTR $LN150@enter_view[eax*4]
$LN62@enter_view:

; 1123 : 				{
; 1124 : 					case GUNSHIP_TYPE_COMANCHE:
; 1125 : 					case GUNSHIP_TYPE_HOKUM:
; 1126 : 					case GUNSHIP_TYPE_VIPER:
; 1127 : 					case GUNSHIP_TYPE_KIOWA:
; 1128 : 					{
; 1129 : 						break;

  0075c	e9 b6 00 00 00	 jmp	 $LN4@enter_view
$LN63@enter_view:

; 1130 : 					}
; 1131 : 					default:
; 1132 : 					{
; 1133 : 						if (get_local_entity_int_value (get_pilot_entity (), INT_TYPE_CREW_ROLE) == CREW_ROLE_CO_PILOT)

  00761	83 3d 00 00 00
	00 00		 cmp	 DWORD PTR ?pilot_entity@@3PAUENTITY@@A, 0 ; pilot_entity
  00768	74 0f		 je	 SHORT $LN136@enter_view
  0076a	a1 00 00 00 00	 mov	 eax, DWORD PTR ?pilot_entity@@3PAUENTITY@@A ; pilot_entity
  0076f	8b 08		 mov	 ecx, DWORD PTR [eax]
  00771	89 8d ec fe ff
	ff		 mov	 DWORD PTR tv312[ebp], ecx
  00777	eb 20		 jmp	 SHORT $LN137@enter_view
$LN136@enter_view:
  00779	68 6d 04 00 00	 push	 1133			; 0000046dH
  0077e	68 00 00 00 00	 push	 OFFSET ??_C@_0EF@LBJPOBFB@c?3?2users?2nhv90?2projects?2eech?2ap@
  00783	8b 15 00 00 00
	00		 mov	 edx, DWORD PTR ?null_entity_pointer_message@@3PBDB ; null_entity_pointer_message
  00789	52		 push	 edx
  0078a	e8 00 00 00 00	 call	 ?process_assert@@YGXPBD0H@Z ; process_assert
  0078f	c7 85 ec fe ff
	ff 00 00 00 00	 mov	 DWORD PTR tv312[ebp], 0
$LN137@enter_view:
  00799	b8 01 00 00 00	 mov	 eax, 1
  0079e	85 c0		 test	 eax, eax
  007a0	74 0c		 je	 SHORT $LN138@enter_view
  007a2	c7 85 e8 fe ff
	ff 23 00 00 00	 mov	 DWORD PTR tv319[ebp], 35 ; 00000023H
  007ac	eb 20		 jmp	 SHORT $LN139@enter_view
$LN138@enter_view:
  007ae	68 6d 04 00 00	 push	 1133			; 0000046dH
  007b3	68 00 00 00 00	 push	 OFFSET ??_C@_0EF@LBJPOBFB@c?3?2users?2nhv90?2projects?2eech?2ap@
  007b8	8b 0d 00 00 00
	00		 mov	 ecx, DWORD PTR ?overload_invalid_int_type_message@@3PBDB ; overload_invalid_int_type_message
  007be	51		 push	 ecx
  007bf	e8 00 00 00 00	 call	 ?process_assert@@YGXPBD0H@Z ; process_assert
  007c4	c7 85 e8 fe ff
	ff 00 00 00 00	 mov	 DWORD PTR tv319[ebp], 0
$LN139@enter_view:
  007ce	6a 23		 push	 35			; 00000023H
  007d0	8b 15 00 00 00
	00		 mov	 edx, DWORD PTR ?pilot_entity@@3PAUENTITY@@A ; pilot_entity
  007d6	52		 push	 edx
  007d7	69 85 ec fe ff
	ff 5c 04 00 00	 imul	 eax, DWORD PTR tv312[ebp], 1116
  007e1	8b 8d e8 fe ff
	ff		 mov	 ecx, DWORD PTR tv319[ebp]
  007e7	8b 94 88 00 00
	00 00		 mov	 edx, DWORD PTR ?fn_get_local_entity_int_value@@3PAY0BBH@P6GHPAUENTITY@@W4INT_TYPES@@@ZA[eax+ecx*4]
  007ee	ff d2		 call	 edx
  007f0	83 f8 01	 cmp	 eax, 1
  007f3	75 12		 jne	 SHORT $LN64@enter_view

; 1134 : 							pilot_head_pitch = co_pilot_head_pitch_datum;

  007f5	f3 0f 10 05 00
	00 00 00	 movss	 xmm0, DWORD PTR ?co_pilot_head_pitch_datum@@3MA
  007fd	f3 0f 11 05 00
	00 00 00	 movss	 DWORD PTR ?pilot_head_pitch@@3MA, xmm0

; 1135 : 						else

  00805	eb 10		 jmp	 SHORT $LN65@enter_view
$LN64@enter_view:

; 1136 : 							pilot_head_pitch = pilot_head_pitch_datum;

  00807	f3 0f 10 05 00
	00 00 00	 movss	 xmm0, DWORD PTR ?pilot_head_pitch_datum@@3MA
  0080f	f3 0f 11 05 00
	00 00 00	 movss	 DWORD PTR ?pilot_head_pitch@@3MA, xmm0
$LN65@enter_view:
$LN4@enter_view:

; 1137 : 						break;
; 1138 : 					}
; 1139 : 				}
; 1140 : 
; 1141 : 				mode = VIEW_MODE_VIRTUAL_COCKPIT;

  00817	c7 45 08 20 00
	00 00		 mov	 DWORD PTR _mode$[ebp], 32 ; 00000020H
$LN60@enter_view:

; 1142 : 			}
; 1143 : 
; 1144 : 			break;

  0081e	e9 0a 09 00 00	 jmp	 $LN2@enter_view
$LN66@enter_view:

; 1145 : 		}
; 1146 : 		////////////////////////////////////////
; 1147 : 		case VIEW_MODE_COCKPIT_PANEL_LEVEL_RIGHT30:
; 1148 : 		////////////////////////////////////////
; 1149 : 		{
; 1150 : 			pilot_head_heading = pilot_head_heading_values[mode];

  00823	8b 45 08	 mov	 eax, DWORD PTR _mode$[ebp]
  00826	f3 0f 10 04 85
	00 00 00 00	 movss	 xmm0, DWORD PTR ?pilot_head_heading_values@@3PAMA[eax*4]
  0082f	f3 0f 11 05 00
	00 00 00	 movss	 DWORD PTR ?pilot_head_heading@@3MA, xmm0

; 1151 : 
; 1152 : 			pilot_head_pitch = pilot_head_pitch_values[mode];

  00837	8b 45 08	 mov	 eax, DWORD PTR _mode$[ebp]
  0083a	f3 0f 10 04 85
	00 00 00 00	 movss	 xmm0, DWORD PTR ?pilot_head_pitch_values@@3PAMA[eax*4]
  00843	f3 0f 11 05 00
	00 00 00	 movss	 DWORD PTR ?pilot_head_pitch@@3MA, xmm0

; 1153 : 
; 1154 : 			if (!get_apache_havoc_gunship_fixed_cockpit ())

  0084b	a1 0c 00 00 00	 mov	 eax, DWORD PTR ?global_options@@3UGLOBAL_OPTIONS_DATA@@A+12
  00850	0f b6 88 00 00
	00 00		 movzx	 ecx, BYTE PTR ?new_gunship@@3QBDB[eax]
  00857	85 c9		 test	 ecx, ecx
  00859	75 1b		 jne	 SHORT $LN68@enter_view
  0085b	83 3d 00 00 00
	00 00		 cmp	 DWORD PTR ?full_screen_hi_res@@3HA, 0 ; full_screen_hi_res
  00862	75 12		 jne	 SHORT $LN68@enter_view
  00864	83 3d 00 00 00
	00 10		 cmp	 DWORD PTR ?application_video_colourdepth@@3HA, 16 ; application_video_colourdepth, 00000010H
  0086b	75 09		 jne	 SHORT $LN68@enter_view
  0086d	83 3d 00 00 00
	00 00		 cmp	 DWORD PTR ?global_aphavoc_maps@@3HA, 0 ; global_aphavoc_maps
  00874	75 07		 jne	 SHORT $LN67@enter_view
$LN68@enter_view:

; 1155 : 			{
; 1156 : 				mode = VIEW_MODE_VIRTUAL_COCKPIT;

  00876	c7 45 08 20 00
	00 00		 mov	 DWORD PTR _mode$[ebp], 32 ; 00000020H
$LN67@enter_view:

; 1157 : 			}
; 1158 : 
; 1159 : 			break;

  0087d	e9 ab 08 00 00	 jmp	 $LN2@enter_view
$LN69@enter_view:

; 1160 : 		}
; 1161 : 		////////////////////////////////////////
; 1162 : 		case VIEW_MODE_COCKPIT_PANEL_LEVEL_RIGHT60:
; 1163 : 		////////////////////////////////////////
; 1164 : 		{
; 1165 : 			pilot_head_heading = pilot_head_heading_values[mode];

  00882	8b 45 08	 mov	 eax, DWORD PTR _mode$[ebp]
  00885	f3 0f 10 04 85
	00 00 00 00	 movss	 xmm0, DWORD PTR ?pilot_head_heading_values@@3PAMA[eax*4]
  0088e	f3 0f 11 05 00
	00 00 00	 movss	 DWORD PTR ?pilot_head_heading@@3MA, xmm0

; 1166 : 
; 1167 : 			pilot_head_pitch = pilot_head_pitch_values[mode];

  00896	8b 45 08	 mov	 eax, DWORD PTR _mode$[ebp]
  00899	f3 0f 10 04 85
	00 00 00 00	 movss	 xmm0, DWORD PTR ?pilot_head_pitch_values@@3PAMA[eax*4]
  008a2	f3 0f 11 05 00
	00 00 00	 movss	 DWORD PTR ?pilot_head_pitch@@3MA, xmm0

; 1168 : 
; 1169 : 			if (!get_apache_havoc_gunship_fixed_cockpit ())

  008aa	a1 0c 00 00 00	 mov	 eax, DWORD PTR ?global_options@@3UGLOBAL_OPTIONS_DATA@@A+12
  008af	0f b6 88 00 00
	00 00		 movzx	 ecx, BYTE PTR ?new_gunship@@3QBDB[eax]
  008b6	85 c9		 test	 ecx, ecx
  008b8	75 1b		 jne	 SHORT $LN71@enter_view
  008ba	83 3d 00 00 00
	00 00		 cmp	 DWORD PTR ?full_screen_hi_res@@3HA, 0 ; full_screen_hi_res
  008c1	75 12		 jne	 SHORT $LN71@enter_view
  008c3	83 3d 00 00 00
	00 10		 cmp	 DWORD PTR ?application_video_colourdepth@@3HA, 16 ; application_video_colourdepth, 00000010H
  008ca	75 09		 jne	 SHORT $LN71@enter_view
  008cc	83 3d 00 00 00
	00 00		 cmp	 DWORD PTR ?global_aphavoc_maps@@3HA, 0 ; global_aphavoc_maps
  008d3	75 07		 jne	 SHORT $LN70@enter_view
$LN71@enter_view:

; 1170 : 			{
; 1171 : 				mode = VIEW_MODE_VIRTUAL_COCKPIT;

  008d5	c7 45 08 20 00
	00 00		 mov	 DWORD PTR _mode$[ebp], 32 ; 00000020H
$LN70@enter_view:

; 1172 : 			}
; 1173 : 
; 1174 : 			break;

  008dc	e9 4c 08 00 00	 jmp	 $LN2@enter_view
$LN72@enter_view:

; 1175 : 		}
; 1176 : 		////////////////////////////////////////
; 1177 : 		case VIEW_MODE_COCKPIT_PANEL_LEVEL_RIGHT90:
; 1178 : 		////////////////////////////////////////
; 1179 : 		{
; 1180 : 			pilot_head_heading = pilot_head_heading_values[mode];

  008e1	8b 45 08	 mov	 eax, DWORD PTR _mode$[ebp]
  008e4	f3 0f 10 04 85
	00 00 00 00	 movss	 xmm0, DWORD PTR ?pilot_head_heading_values@@3PAMA[eax*4]
  008ed	f3 0f 11 05 00
	00 00 00	 movss	 DWORD PTR ?pilot_head_heading@@3MA, xmm0

; 1181 : 
; 1182 : 			pilot_head_pitch = pilot_head_pitch_values[mode];

  008f5	8b 45 08	 mov	 eax, DWORD PTR _mode$[ebp]
  008f8	f3 0f 10 04 85
	00 00 00 00	 movss	 xmm0, DWORD PTR ?pilot_head_pitch_values@@3PAMA[eax*4]
  00901	f3 0f 11 05 00
	00 00 00	 movss	 DWORD PTR ?pilot_head_pitch@@3MA, xmm0

; 1183 : 
; 1184 : 			if (!get_apache_havoc_gunship_fixed_cockpit ())

  00909	a1 0c 00 00 00	 mov	 eax, DWORD PTR ?global_options@@3UGLOBAL_OPTIONS_DATA@@A+12
  0090e	0f b6 88 00 00
	00 00		 movzx	 ecx, BYTE PTR ?new_gunship@@3QBDB[eax]
  00915	85 c9		 test	 ecx, ecx
  00917	75 1b		 jne	 SHORT $LN74@enter_view
  00919	83 3d 00 00 00
	00 00		 cmp	 DWORD PTR ?full_screen_hi_res@@3HA, 0 ; full_screen_hi_res
  00920	75 12		 jne	 SHORT $LN74@enter_view
  00922	83 3d 00 00 00
	00 10		 cmp	 DWORD PTR ?application_video_colourdepth@@3HA, 16 ; application_video_colourdepth, 00000010H
  00929	75 09		 jne	 SHORT $LN74@enter_view
  0092b	83 3d 00 00 00
	00 00		 cmp	 DWORD PTR ?global_aphavoc_maps@@3HA, 0 ; global_aphavoc_maps
  00932	75 07		 jne	 SHORT $LN73@enter_view
$LN74@enter_view:

; 1185 : 			{
; 1186 : 				mode = VIEW_MODE_VIRTUAL_COCKPIT;

  00934	c7 45 08 20 00
	00 00		 mov	 DWORD PTR _mode$[ebp], 32 ; 00000020H
$LN73@enter_view:

; 1187 : 			}
; 1188 : 
; 1189 : 			break;

  0093b	e9 ed 07 00 00	 jmp	 $LN2@enter_view
$LN75@enter_view:

; 1190 : 		}
; 1191 : 		////////////////////////////////////////
; 1192 : 		case VIEW_MODE_COCKPIT_PANEL_DOWN20_LEFT90:
; 1193 : 		////////////////////////////////////////
; 1194 : 		{
; 1195 : 			pilot_head_heading = pilot_head_heading_values[mode];

  00940	8b 45 08	 mov	 eax, DWORD PTR _mode$[ebp]
  00943	f3 0f 10 04 85
	00 00 00 00	 movss	 xmm0, DWORD PTR ?pilot_head_heading_values@@3PAMA[eax*4]
  0094c	f3 0f 11 05 00
	00 00 00	 movss	 DWORD PTR ?pilot_head_heading@@3MA, xmm0

; 1196 : 
; 1197 : 			pilot_head_pitch = pilot_head_pitch_values[mode];

  00954	8b 45 08	 mov	 eax, DWORD PTR _mode$[ebp]
  00957	f3 0f 10 04 85
	00 00 00 00	 movss	 xmm0, DWORD PTR ?pilot_head_pitch_values@@3PAMA[eax*4]
  00960	f3 0f 11 05 00
	00 00 00	 movss	 DWORD PTR ?pilot_head_pitch@@3MA, xmm0

; 1198 : 
; 1199 : 			if (!get_apache_havoc_gunship_fixed_cockpit ())

  00968	a1 0c 00 00 00	 mov	 eax, DWORD PTR ?global_options@@3UGLOBAL_OPTIONS_DATA@@A+12
  0096d	0f b6 88 00 00
	00 00		 movzx	 ecx, BYTE PTR ?new_gunship@@3QBDB[eax]
  00974	85 c9		 test	 ecx, ecx
  00976	75 1b		 jne	 SHORT $LN77@enter_view
  00978	83 3d 00 00 00
	00 00		 cmp	 DWORD PTR ?full_screen_hi_res@@3HA, 0 ; full_screen_hi_res
  0097f	75 12		 jne	 SHORT $LN77@enter_view
  00981	83 3d 00 00 00
	00 10		 cmp	 DWORD PTR ?application_video_colourdepth@@3HA, 16 ; application_video_colourdepth, 00000010H
  00988	75 09		 jne	 SHORT $LN77@enter_view
  0098a	83 3d 00 00 00
	00 00		 cmp	 DWORD PTR ?global_aphavoc_maps@@3HA, 0 ; global_aphavoc_maps
  00991	75 07		 jne	 SHORT $LN76@enter_view
$LN77@enter_view:

; 1200 : 			{
; 1201 : 				mode = VIEW_MODE_VIRTUAL_COCKPIT;

  00993	c7 45 08 20 00
	00 00		 mov	 DWORD PTR _mode$[ebp], 32 ; 00000020H
$LN76@enter_view:

; 1202 : 			}
; 1203 : 
; 1204 : 			break;

  0099a	e9 8e 07 00 00	 jmp	 $LN2@enter_view
$LN78@enter_view:

; 1205 : 		}
; 1206 : 		////////////////////////////////////////
; 1207 : 		case VIEW_MODE_COCKPIT_PANEL_DOWN20_LEFT60:
; 1208 : 		////////////////////////////////////////
; 1209 : 		{
; 1210 : 			pilot_head_heading = pilot_head_heading_values[mode];

  0099f	8b 45 08	 mov	 eax, DWORD PTR _mode$[ebp]
  009a2	f3 0f 10 04 85
	00 00 00 00	 movss	 xmm0, DWORD PTR ?pilot_head_heading_values@@3PAMA[eax*4]
  009ab	f3 0f 11 05 00
	00 00 00	 movss	 DWORD PTR ?pilot_head_heading@@3MA, xmm0

; 1211 : 
; 1212 : 			pilot_head_pitch = pilot_head_pitch_values[mode];

  009b3	8b 45 08	 mov	 eax, DWORD PTR _mode$[ebp]
  009b6	f3 0f 10 04 85
	00 00 00 00	 movss	 xmm0, DWORD PTR ?pilot_head_pitch_values@@3PAMA[eax*4]
  009bf	f3 0f 11 05 00
	00 00 00	 movss	 DWORD PTR ?pilot_head_pitch@@3MA, xmm0

; 1213 : 
; 1214 : 			if (!get_apache_havoc_gunship_fixed_cockpit ())

  009c7	a1 0c 00 00 00	 mov	 eax, DWORD PTR ?global_options@@3UGLOBAL_OPTIONS_DATA@@A+12
  009cc	0f b6 88 00 00
	00 00		 movzx	 ecx, BYTE PTR ?new_gunship@@3QBDB[eax]
  009d3	85 c9		 test	 ecx, ecx
  009d5	75 1b		 jne	 SHORT $LN80@enter_view
  009d7	83 3d 00 00 00
	00 00		 cmp	 DWORD PTR ?full_screen_hi_res@@3HA, 0 ; full_screen_hi_res
  009de	75 12		 jne	 SHORT $LN80@enter_view
  009e0	83 3d 00 00 00
	00 10		 cmp	 DWORD PTR ?application_video_colourdepth@@3HA, 16 ; application_video_colourdepth, 00000010H
  009e7	75 09		 jne	 SHORT $LN80@enter_view
  009e9	83 3d 00 00 00
	00 00		 cmp	 DWORD PTR ?global_aphavoc_maps@@3HA, 0 ; global_aphavoc_maps
  009f0	75 07		 jne	 SHORT $LN79@enter_view
$LN80@enter_view:

; 1215 : 			{
; 1216 : 				mode = VIEW_MODE_VIRTUAL_COCKPIT;

  009f2	c7 45 08 20 00
	00 00		 mov	 DWORD PTR _mode$[ebp], 32 ; 00000020H
$LN79@enter_view:

; 1217 : 			}
; 1218 : 
; 1219 : 			break;

  009f9	e9 2f 07 00 00	 jmp	 $LN2@enter_view
$LN81@enter_view:

; 1220 : 		}
; 1221 : 		////////////////////////////////////////
; 1222 : 		case VIEW_MODE_COCKPIT_PANEL_DOWN20_LEFT30:
; 1223 : 		////////////////////////////////////////
; 1224 : 		{
; 1225 : 			pilot_head_heading = pilot_head_heading_values[mode];

  009fe	8b 45 08	 mov	 eax, DWORD PTR _mode$[ebp]
  00a01	f3 0f 10 04 85
	00 00 00 00	 movss	 xmm0, DWORD PTR ?pilot_head_heading_values@@3PAMA[eax*4]
  00a0a	f3 0f 11 05 00
	00 00 00	 movss	 DWORD PTR ?pilot_head_heading@@3MA, xmm0

; 1226 : 
; 1227 : 			pilot_head_pitch = pilot_head_pitch_values[mode];

  00a12	8b 45 08	 mov	 eax, DWORD PTR _mode$[ebp]
  00a15	f3 0f 10 04 85
	00 00 00 00	 movss	 xmm0, DWORD PTR ?pilot_head_pitch_values@@3PAMA[eax*4]
  00a1e	f3 0f 11 05 00
	00 00 00	 movss	 DWORD PTR ?pilot_head_pitch@@3MA, xmm0

; 1228 : 
; 1229 : 			if (!get_apache_havoc_gunship_fixed_cockpit ())

  00a26	a1 0c 00 00 00	 mov	 eax, DWORD PTR ?global_options@@3UGLOBAL_OPTIONS_DATA@@A+12
  00a2b	0f b6 88 00 00
	00 00		 movzx	 ecx, BYTE PTR ?new_gunship@@3QBDB[eax]
  00a32	85 c9		 test	 ecx, ecx
  00a34	75 1b		 jne	 SHORT $LN83@enter_view
  00a36	83 3d 00 00 00
	00 00		 cmp	 DWORD PTR ?full_screen_hi_res@@3HA, 0 ; full_screen_hi_res
  00a3d	75 12		 jne	 SHORT $LN83@enter_view
  00a3f	83 3d 00 00 00
	00 10		 cmp	 DWORD PTR ?application_video_colourdepth@@3HA, 16 ; application_video_colourdepth, 00000010H
  00a46	75 09		 jne	 SHORT $LN83@enter_view
  00a48	83 3d 00 00 00
	00 00		 cmp	 DWORD PTR ?global_aphavoc_maps@@3HA, 0 ; global_aphavoc_maps
  00a4f	75 07		 jne	 SHORT $LN82@enter_view
$LN83@enter_view:

; 1230 : 			{
; 1231 : 				mode = VIEW_MODE_VIRTUAL_COCKPIT;

  00a51	c7 45 08 20 00
	00 00		 mov	 DWORD PTR _mode$[ebp], 32 ; 00000020H
$LN82@enter_view:

; 1232 : 			}
; 1233 : 
; 1234 : 			break;

  00a58	e9 d0 06 00 00	 jmp	 $LN2@enter_view
$LN84@enter_view:

; 1235 : 		}
; 1236 : 		////////////////////////////////////////
; 1237 : 		case VIEW_MODE_COCKPIT_PANEL_DOWN20_AHEAD:
; 1238 : 		////////////////////////////////////////
; 1239 : 		{
; 1240 : 			switch (get_global_gunship_type ())

  00a5d	a1 0c 00 00 00	 mov	 eax, DWORD PTR ?global_options@@3UGLOBAL_OPTIONS_DATA@@A+12
  00a62	89 85 ec fe ff
	ff		 mov	 DWORD PTR tv394[ebp], eax
  00a68	8b 8d ec fe ff
	ff		 mov	 ecx, DWORD PTR tv394[ebp]
  00a6e	83 e9 01	 sub	 ecx, 1
  00a71	89 8d ec fe ff
	ff		 mov	 DWORD PTR tv394[ebp], ecx
  00a77	83 bd ec fe ff
	ff 08		 cmp	 DWORD PTR tv394[ebp], 8
  00a7e	77 0d		 ja	 SHORT $LN85@enter_view
  00a80	8b 95 ec fe ff
	ff		 mov	 edx, DWORD PTR tv394[ebp]
  00a86	ff 24 95 00 00
	00 00		 jmp	 DWORD PTR $LN151@enter_view[edx*4]
$LN85@enter_view:

; 1241 : 			{
; 1242 : 				// JB 030313 Fly any aircraft
; 1243 : 				default:
; 1244 : 				case GUNSHIP_TYPE_APACHE:
; 1245 : 				{
; 1246 : 					pilot_head_heading = pilot_head_heading_values[mode];

  00a8d	8b 45 08	 mov	 eax, DWORD PTR _mode$[ebp]
  00a90	f3 0f 10 04 85
	00 00 00 00	 movss	 xmm0, DWORD PTR ?pilot_head_heading_values@@3PAMA[eax*4]
  00a99	f3 0f 11 05 00
	00 00 00	 movss	 DWORD PTR ?pilot_head_heading@@3MA, xmm0

; 1247 : 
; 1248 : 					pilot_head_pitch = pilot_head_pitch_values[mode];

  00aa1	8b 45 08	 mov	 eax, DWORD PTR _mode$[ebp]
  00aa4	f3 0f 10 04 85
	00 00 00 00	 movss	 xmm0, DWORD PTR ?pilot_head_pitch_values@@3PAMA[eax*4]
  00aad	f3 0f 11 05 00
	00 00 00	 movss	 DWORD PTR ?pilot_head_pitch@@3MA, xmm0

; 1249 : 
; 1250 : 					if (!get_apache_havoc_gunship_fixed_cockpit ())

  00ab5	a1 0c 00 00 00	 mov	 eax, DWORD PTR ?global_options@@3UGLOBAL_OPTIONS_DATA@@A+12
  00aba	0f b6 88 00 00
	00 00		 movzx	 ecx, BYTE PTR ?new_gunship@@3QBDB[eax]
  00ac1	85 c9		 test	 ecx, ecx
  00ac3	75 1b		 jne	 SHORT $LN87@enter_view
  00ac5	83 3d 00 00 00
	00 00		 cmp	 DWORD PTR ?full_screen_hi_res@@3HA, 0 ; full_screen_hi_res
  00acc	75 12		 jne	 SHORT $LN87@enter_view
  00ace	83 3d 00 00 00
	00 10		 cmp	 DWORD PTR ?application_video_colourdepth@@3HA, 16 ; application_video_colourdepth, 00000010H
  00ad5	75 09		 jne	 SHORT $LN87@enter_view
  00ad7	83 3d 00 00 00
	00 00		 cmp	 DWORD PTR ?global_aphavoc_maps@@3HA, 0 ; global_aphavoc_maps
  00ade	75 07		 jne	 SHORT $LN86@enter_view
$LN87@enter_view:

; 1251 : 					{
; 1252 : 						mode = VIEW_MODE_VIRTUAL_COCKPIT;

  00ae0	c7 45 08 20 00
	00 00		 mov	 DWORD PTR _mode$[ebp], 32 ; 00000020H
$LN86@enter_view:

; 1253 : 					}
; 1254 : 
; 1255 : 					break;

  00ae7	e9 3e 02 00 00	 jmp	 $LN6@enter_view
$LN88@enter_view:

; 1256 : 				}
; 1257 : 				case GUNSHIP_TYPE_HAVOC:
; 1258 : 				{
; 1259 : 					pilot_head_heading = pilot_head_heading_values[mode];

  00aec	8b 45 08	 mov	 eax, DWORD PTR _mode$[ebp]
  00aef	f3 0f 10 04 85
	00 00 00 00	 movss	 xmm0, DWORD PTR ?pilot_head_heading_values@@3PAMA[eax*4]
  00af8	f3 0f 11 05 00
	00 00 00	 movss	 DWORD PTR ?pilot_head_heading@@3MA, xmm0

; 1260 : 
; 1261 : 					pilot_head_pitch = pilot_head_pitch_values[mode];

  00b00	8b 45 08	 mov	 eax, DWORD PTR _mode$[ebp]
  00b03	f3 0f 10 04 85
	00 00 00 00	 movss	 xmm0, DWORD PTR ?pilot_head_pitch_values@@3PAMA[eax*4]
  00b0c	f3 0f 11 05 00
	00 00 00	 movss	 DWORD PTR ?pilot_head_pitch@@3MA, xmm0

; 1262 : 
; 1263 : 					if (!get_apache_havoc_gunship_fixed_cockpit ())

  00b14	a1 0c 00 00 00	 mov	 eax, DWORD PTR ?global_options@@3UGLOBAL_OPTIONS_DATA@@A+12
  00b19	0f b6 88 00 00
	00 00		 movzx	 ecx, BYTE PTR ?new_gunship@@3QBDB[eax]
  00b20	85 c9		 test	 ecx, ecx
  00b22	75 1b		 jne	 SHORT $LN90@enter_view
  00b24	83 3d 00 00 00
	00 00		 cmp	 DWORD PTR ?full_screen_hi_res@@3HA, 0 ; full_screen_hi_res
  00b2b	75 12		 jne	 SHORT $LN90@enter_view
  00b2d	83 3d 00 00 00
	00 10		 cmp	 DWORD PTR ?application_video_colourdepth@@3HA, 16 ; application_video_colourdepth, 00000010H
  00b34	75 09		 jne	 SHORT $LN90@enter_view
  00b36	83 3d 00 00 00
	00 00		 cmp	 DWORD PTR ?global_aphavoc_maps@@3HA, 0 ; global_aphavoc_maps
  00b3d	75 07		 jne	 SHORT $LN89@enter_view
$LN90@enter_view:

; 1264 : 					{
; 1265 : 						mode = VIEW_MODE_VIRTUAL_COCKPIT;

  00b3f	c7 45 08 20 00
	00 00		 mov	 DWORD PTR _mode$[ebp], 32 ; 00000020H
$LN89@enter_view:

; 1266 : 					}
; 1267 : 
; 1268 : 					break;

  00b46	e9 df 01 00 00	 jmp	 $LN6@enter_view
$LN91@enter_view:

; 1269 : 				}
; 1270 : 				case GUNSHIP_TYPE_COMANCHE:
; 1271 : 				{
; 1272 : 					pilot_head_heading = COMANCHE_INSTRUMENT_VIEW_HEADING;

  00b4b	0f 57 c0	 xorps	 xmm0, xmm0
  00b4e	f3 0f 11 05 00
	00 00 00	 movss	 DWORD PTR ?pilot_head_heading@@3MA, xmm0

; 1273 : 
; 1274 : 					pilot_head_pitch = COMANCHE_INSTRUMENT_VIEW_PITCH;

  00b56	f3 0f 10 05 00
	00 00 00	 movss	 xmm0, DWORD PTR __real@befa35dd
  00b5e	f3 0f 11 05 00
	00 00 00	 movss	 DWORD PTR ?pilot_head_pitch@@3MA, xmm0

; 1275 : 
; 1276 : 					mode = VIEW_MODE_VIRTUAL_COCKPIT;

  00b66	c7 45 08 20 00
	00 00		 mov	 DWORD PTR _mode$[ebp], 32 ; 00000020H

; 1277 : 
; 1278 : 					break;

  00b6d	e9 b8 01 00 00	 jmp	 $LN6@enter_view
$LN92@enter_view:

; 1279 : 				}
; 1280 : 				case GUNSHIP_TYPE_HOKUM:
; 1281 : 				{
; 1282 : 					pilot_head_heading = HOKUM_INSTRUMENT_VIEW_HEADING;

  00b72	0f 57 c0	 xorps	 xmm0, xmm0
  00b75	f3 0f 11 05 00
	00 00 00	 movss	 DWORD PTR ?pilot_head_heading@@3MA, xmm0

; 1283 : 
; 1284 : 					pilot_head_pitch = HOKUM_INSTRUMENT_VIEW_PITCH;

  00b7d	f3 0f 10 05 00
	00 00 00	 movss	 xmm0, DWORD PTR __real@beb2b8c2
  00b85	f3 0f 11 05 00
	00 00 00	 movss	 DWORD PTR ?pilot_head_pitch@@3MA, xmm0

; 1285 : 
; 1286 : 					mode = VIEW_MODE_VIRTUAL_COCKPIT;

  00b8d	c7 45 08 20 00
	00 00		 mov	 DWORD PTR _mode$[ebp], 32 ; 00000020H

; 1287 : 
; 1288 : 					break;

  00b94	e9 91 01 00 00	 jmp	 $LN6@enter_view
$LN93@enter_view:

; 1289 : 				}
; 1290 : 				////Moje 030518 Start
; 1291 : 				case GUNSHIP_TYPE_BLACKHAWK:
; 1292 : 				{
; 1293 : 					pilot_head_heading = pilot_head_heading_values[mode];

  00b99	8b 45 08	 mov	 eax, DWORD PTR _mode$[ebp]
  00b9c	f3 0f 10 04 85
	00 00 00 00	 movss	 xmm0, DWORD PTR ?pilot_head_heading_values@@3PAMA[eax*4]
  00ba5	f3 0f 11 05 00
	00 00 00	 movss	 DWORD PTR ?pilot_head_heading@@3MA, xmm0

; 1294 : 
; 1295 : 					pilot_head_pitch = pilot_head_pitch_values[mode];

  00bad	8b 45 08	 mov	 eax, DWORD PTR _mode$[ebp]
  00bb0	f3 0f 10 04 85
	00 00 00 00	 movss	 xmm0, DWORD PTR ?pilot_head_pitch_values@@3PAMA[eax*4]
  00bb9	f3 0f 11 05 00
	00 00 00	 movss	 DWORD PTR ?pilot_head_pitch@@3MA, xmm0

; 1296 : 
; 1297 : 					if (!get_apache_havoc_gunship_fixed_cockpit ())

  00bc1	a1 0c 00 00 00	 mov	 eax, DWORD PTR ?global_options@@3UGLOBAL_OPTIONS_DATA@@A+12
  00bc6	0f b6 88 00 00
	00 00		 movzx	 ecx, BYTE PTR ?new_gunship@@3QBDB[eax]
  00bcd	85 c9		 test	 ecx, ecx
  00bcf	75 1b		 jne	 SHORT $LN95@enter_view
  00bd1	83 3d 00 00 00
	00 00		 cmp	 DWORD PTR ?full_screen_hi_res@@3HA, 0 ; full_screen_hi_res
  00bd8	75 12		 jne	 SHORT $LN95@enter_view
  00bda	83 3d 00 00 00
	00 10		 cmp	 DWORD PTR ?application_video_colourdepth@@3HA, 16 ; application_video_colourdepth, 00000010H
  00be1	75 09		 jne	 SHORT $LN95@enter_view
  00be3	83 3d 00 00 00
	00 00		 cmp	 DWORD PTR ?global_aphavoc_maps@@3HA, 0 ; global_aphavoc_maps
  00bea	75 07		 jne	 SHORT $LN94@enter_view
$LN95@enter_view:

; 1298 : 					{
; 1299 : 						mode = VIEW_MODE_VIRTUAL_COCKPIT;

  00bec	c7 45 08 20 00
	00 00		 mov	 DWORD PTR _mode$[ebp], 32 ; 00000020H
$LN94@enter_view:

; 1300 : 					}
; 1301 : 
; 1302 : 					break;

  00bf3	e9 32 01 00 00	 jmp	 $LN6@enter_view
$LN96@enter_view:

; 1303 : 				}
; 1304 : 				////Moje 030518 End
; 1305 : 				////Moje 030612 Start
; 1306 : 				case GUNSHIP_TYPE_HIND:
; 1307 : 				{
; 1308 : 					pilot_head_heading = pilot_head_heading_values[mode];

  00bf8	8b 45 08	 mov	 eax, DWORD PTR _mode$[ebp]
  00bfb	f3 0f 10 04 85
	00 00 00 00	 movss	 xmm0, DWORD PTR ?pilot_head_heading_values@@3PAMA[eax*4]
  00c04	f3 0f 11 05 00
	00 00 00	 movss	 DWORD PTR ?pilot_head_heading@@3MA, xmm0

; 1309 : 
; 1310 : 					pilot_head_pitch = pilot_head_pitch_values[mode];

  00c0c	8b 45 08	 mov	 eax, DWORD PTR _mode$[ebp]
  00c0f	f3 0f 10 04 85
	00 00 00 00	 movss	 xmm0, DWORD PTR ?pilot_head_pitch_values@@3PAMA[eax*4]
  00c18	f3 0f 11 05 00
	00 00 00	 movss	 DWORD PTR ?pilot_head_pitch@@3MA, xmm0

; 1311 : 
; 1312 : 					if (!get_apache_havoc_gunship_fixed_cockpit ())

  00c20	a1 0c 00 00 00	 mov	 eax, DWORD PTR ?global_options@@3UGLOBAL_OPTIONS_DATA@@A+12
  00c25	0f b6 88 00 00
	00 00		 movzx	 ecx, BYTE PTR ?new_gunship@@3QBDB[eax]
  00c2c	85 c9		 test	 ecx, ecx
  00c2e	75 1b		 jne	 SHORT $LN98@enter_view
  00c30	83 3d 00 00 00
	00 00		 cmp	 DWORD PTR ?full_screen_hi_res@@3HA, 0 ; full_screen_hi_res
  00c37	75 12		 jne	 SHORT $LN98@enter_view
  00c39	83 3d 00 00 00
	00 10		 cmp	 DWORD PTR ?application_video_colourdepth@@3HA, 16 ; application_video_colourdepth, 00000010H
  00c40	75 09		 jne	 SHORT $LN98@enter_view
  00c42	83 3d 00 00 00
	00 00		 cmp	 DWORD PTR ?global_aphavoc_maps@@3HA, 0 ; global_aphavoc_maps
  00c49	75 07		 jne	 SHORT $LN97@enter_view
$LN98@enter_view:

; 1313 : 					{
; 1314 : 						mode = VIEW_MODE_VIRTUAL_COCKPIT;

  00c4b	c7 45 08 20 00
	00 00		 mov	 DWORD PTR _mode$[ebp], 32 ; 00000020H
$LN97@enter_view:

; 1315 : 					}
; 1316 : 
; 1317 : 					break;

  00c52	e9 d3 00 00 00	 jmp	 $LN6@enter_view
$LN99@enter_view:

; 1318 : 				}
; 1319 : 				////Moje 030612 End
; 1320 : 				////Moje 030816 Start
; 1321 : 				case GUNSHIP_TYPE_AH64A:
; 1322 : 				{
; 1323 : 					pilot_head_heading = pilot_head_heading_values[mode];

  00c57	8b 45 08	 mov	 eax, DWORD PTR _mode$[ebp]
  00c5a	f3 0f 10 04 85
	00 00 00 00	 movss	 xmm0, DWORD PTR ?pilot_head_heading_values@@3PAMA[eax*4]
  00c63	f3 0f 11 05 00
	00 00 00	 movss	 DWORD PTR ?pilot_head_heading@@3MA, xmm0

; 1324 : 
; 1325 : 					pilot_head_pitch = pilot_head_pitch_values[mode];

  00c6b	8b 45 08	 mov	 eax, DWORD PTR _mode$[ebp]
  00c6e	f3 0f 10 04 85
	00 00 00 00	 movss	 xmm0, DWORD PTR ?pilot_head_pitch_values@@3PAMA[eax*4]
  00c77	f3 0f 11 05 00
	00 00 00	 movss	 DWORD PTR ?pilot_head_pitch@@3MA, xmm0

; 1326 : 
; 1327 : 					if (!get_apache_havoc_gunship_fixed_cockpit ())

  00c7f	a1 0c 00 00 00	 mov	 eax, DWORD PTR ?global_options@@3UGLOBAL_OPTIONS_DATA@@A+12
  00c84	0f b6 88 00 00
	00 00		 movzx	 ecx, BYTE PTR ?new_gunship@@3QBDB[eax]
  00c8b	85 c9		 test	 ecx, ecx
  00c8d	75 1b		 jne	 SHORT $LN101@enter_view
  00c8f	83 3d 00 00 00
	00 00		 cmp	 DWORD PTR ?full_screen_hi_res@@3HA, 0 ; full_screen_hi_res
  00c96	75 12		 jne	 SHORT $LN101@enter_view
  00c98	83 3d 00 00 00
	00 10		 cmp	 DWORD PTR ?application_video_colourdepth@@3HA, 16 ; application_video_colourdepth, 00000010H
  00c9f	75 09		 jne	 SHORT $LN101@enter_view
  00ca1	83 3d 00 00 00
	00 00		 cmp	 DWORD PTR ?global_aphavoc_maps@@3HA, 0 ; global_aphavoc_maps
  00ca8	75 07		 jne	 SHORT $LN100@enter_view
$LN101@enter_view:

; 1328 : 					{
; 1329 : 						mode = VIEW_MODE_VIRTUAL_COCKPIT;

  00caa	c7 45 08 20 00
	00 00		 mov	 DWORD PTR _mode$[ebp], 32 ; 00000020H
$LN100@enter_view:

; 1330 : 					}
; 1331 : 
; 1332 : 					break;

  00cb1	eb 77		 jmp	 SHORT $LN6@enter_view
$LN102@enter_view:

; 1333 : 				}
; 1334 : 				case GUNSHIP_TYPE_KA50:
; 1335 : 				{
; 1336 : 					pilot_head_heading = pilot_head_heading_values[mode];

  00cb3	8b 45 08	 mov	 eax, DWORD PTR _mode$[ebp]
  00cb6	f3 0f 10 04 85
	00 00 00 00	 movss	 xmm0, DWORD PTR ?pilot_head_heading_values@@3PAMA[eax*4]
  00cbf	f3 0f 11 05 00
	00 00 00	 movss	 DWORD PTR ?pilot_head_heading@@3MA, xmm0

; 1337 : 
; 1338 : 					pilot_head_pitch = pilot_head_pitch_values[mode];

  00cc7	8b 45 08	 mov	 eax, DWORD PTR _mode$[ebp]
  00cca	f3 0f 10 04 85
	00 00 00 00	 movss	 xmm0, DWORD PTR ?pilot_head_pitch_values@@3PAMA[eax*4]
  00cd3	f3 0f 11 05 00
	00 00 00	 movss	 DWORD PTR ?pilot_head_pitch@@3MA, xmm0

; 1339 : 
; 1340 : 					mode = VIEW_MODE_VIRTUAL_COCKPIT;

  00cdb	c7 45 08 20 00
	00 00		 mov	 DWORD PTR _mode$[ebp], 32 ; 00000020H

; 1341 : 
; 1342 : 					break;

  00ce2	eb 46		 jmp	 SHORT $LN6@enter_view
$LN103@enter_view:

; 1343 : 				}
; 1344 : 				////Moje 030816 End
; 1345 : 				case GUNSHIP_TYPE_VIPER:
; 1346 : 				{
; 1347 : 					pilot_head_heading = VIPER_INSTRUMENT_VIEW_HEADING;

  00ce4	0f 57 c0	 xorps	 xmm0, xmm0
  00ce7	f3 0f 11 05 00
	00 00 00	 movss	 DWORD PTR ?pilot_head_heading@@3MA, xmm0

; 1348 : 
; 1349 : 					pilot_head_pitch = VIPER_INSTRUMENT_VIEW_PITCH;

  00cef	f3 0f 10 05 00
	00 00 00	 movss	 xmm0, DWORD PTR __real@befa35dd
  00cf7	f3 0f 11 05 00
	00 00 00	 movss	 DWORD PTR ?pilot_head_pitch@@3MA, xmm0

; 1350 : 
; 1351 : 					mode = VIEW_MODE_VIRTUAL_COCKPIT;

  00cff	c7 45 08 20 00
	00 00		 mov	 DWORD PTR _mode$[ebp], 32 ; 00000020H

; 1352 : 
; 1353 : 					break;

  00d06	eb 22		 jmp	 SHORT $LN6@enter_view
$LN104@enter_view:

; 1354 : 				}
; 1355 : 				case GUNSHIP_TYPE_KIOWA:
; 1356 : 				{
; 1357 : 					pilot_head_heading = KIOWA_INSTRUMENT_VIEW_HEADING;

  00d08	0f 57 c0	 xorps	 xmm0, xmm0
  00d0b	f3 0f 11 05 00
	00 00 00	 movss	 DWORD PTR ?pilot_head_heading@@3MA, xmm0

; 1358 : 
; 1359 : 					pilot_head_pitch = KIOWA_INSTRUMENT_VIEW_PITCH;

  00d13	f3 0f 10 05 00
	00 00 00	 movss	 xmm0, DWORD PTR __real@befa35dd
  00d1b	f3 0f 11 05 00
	00 00 00	 movss	 DWORD PTR ?pilot_head_pitch@@3MA, xmm0

; 1360 : 
; 1361 : 					mode = VIEW_MODE_VIRTUAL_COCKPIT;

  00d23	c7 45 08 20 00
	00 00		 mov	 DWORD PTR _mode$[ebp], 32 ; 00000020H
$LN6@enter_view:

; 1362 : 
; 1363 : 					break;
; 1364 : 				}
; 1365 : 			}
; 1366 : 
; 1367 : 			break;

  00d2a	e9 fe 03 00 00	 jmp	 $LN2@enter_view
$LN105@enter_view:

; 1368 : 		}
; 1369 : 		////////////////////////////////////////
; 1370 : 		case VIEW_MODE_COCKPIT_PANEL_DOWN20_RIGHT30:
; 1371 : 		////////////////////////////////////////
; 1372 : 		{
; 1373 : 			pilot_head_heading = pilot_head_heading_values[mode];

  00d2f	8b 45 08	 mov	 eax, DWORD PTR _mode$[ebp]
  00d32	f3 0f 10 04 85
	00 00 00 00	 movss	 xmm0, DWORD PTR ?pilot_head_heading_values@@3PAMA[eax*4]
  00d3b	f3 0f 11 05 00
	00 00 00	 movss	 DWORD PTR ?pilot_head_heading@@3MA, xmm0

; 1374 : 
; 1375 : 			pilot_head_pitch = pilot_head_pitch_values[mode];

  00d43	8b 45 08	 mov	 eax, DWORD PTR _mode$[ebp]
  00d46	f3 0f 10 04 85
	00 00 00 00	 movss	 xmm0, DWORD PTR ?pilot_head_pitch_values@@3PAMA[eax*4]
  00d4f	f3 0f 11 05 00
	00 00 00	 movss	 DWORD PTR ?pilot_head_pitch@@3MA, xmm0

; 1376 : 
; 1377 : 			if (!get_apache_havoc_gunship_fixed_cockpit ())

  00d57	a1 0c 00 00 00	 mov	 eax, DWORD PTR ?global_options@@3UGLOBAL_OPTIONS_DATA@@A+12
  00d5c	0f b6 88 00 00
	00 00		 movzx	 ecx, BYTE PTR ?new_gunship@@3QBDB[eax]
  00d63	85 c9		 test	 ecx, ecx
  00d65	75 1b		 jne	 SHORT $LN107@enter_view
  00d67	83 3d 00 00 00
	00 00		 cmp	 DWORD PTR ?full_screen_hi_res@@3HA, 0 ; full_screen_hi_res
  00d6e	75 12		 jne	 SHORT $LN107@enter_view
  00d70	83 3d 00 00 00
	00 10		 cmp	 DWORD PTR ?application_video_colourdepth@@3HA, 16 ; application_video_colourdepth, 00000010H
  00d77	75 09		 jne	 SHORT $LN107@enter_view
  00d79	83 3d 00 00 00
	00 00		 cmp	 DWORD PTR ?global_aphavoc_maps@@3HA, 0 ; global_aphavoc_maps
  00d80	75 07		 jne	 SHORT $LN106@enter_view
$LN107@enter_view:

; 1378 : 			{
; 1379 : 				mode = VIEW_MODE_VIRTUAL_COCKPIT;

  00d82	c7 45 08 20 00
	00 00		 mov	 DWORD PTR _mode$[ebp], 32 ; 00000020H
$LN106@enter_view:

; 1380 : 			}
; 1381 : 
; 1382 : 			break;

  00d89	e9 9f 03 00 00	 jmp	 $LN2@enter_view
$LN108@enter_view:

; 1383 : 		}
; 1384 : 		////////////////////////////////////////
; 1385 : 		case VIEW_MODE_COCKPIT_PANEL_DOWN20_RIGHT60:
; 1386 : 		////////////////////////////////////////
; 1387 : 		{
; 1388 : 			pilot_head_heading = pilot_head_heading_values[mode];

  00d8e	8b 45 08	 mov	 eax, DWORD PTR _mode$[ebp]
  00d91	f3 0f 10 04 85
	00 00 00 00	 movss	 xmm0, DWORD PTR ?pilot_head_heading_values@@3PAMA[eax*4]
  00d9a	f3 0f 11 05 00
	00 00 00	 movss	 DWORD PTR ?pilot_head_heading@@3MA, xmm0

; 1389 : 
; 1390 : 			pilot_head_pitch = pilot_head_pitch_values[mode];

  00da2	8b 45 08	 mov	 eax, DWORD PTR _mode$[ebp]
  00da5	f3 0f 10 04 85
	00 00 00 00	 movss	 xmm0, DWORD PTR ?pilot_head_pitch_values@@3PAMA[eax*4]
  00dae	f3 0f 11 05 00
	00 00 00	 movss	 DWORD PTR ?pilot_head_pitch@@3MA, xmm0

; 1391 : 
; 1392 : 			if (!get_apache_havoc_gunship_fixed_cockpit ())

  00db6	a1 0c 00 00 00	 mov	 eax, DWORD PTR ?global_options@@3UGLOBAL_OPTIONS_DATA@@A+12
  00dbb	0f b6 88 00 00
	00 00		 movzx	 ecx, BYTE PTR ?new_gunship@@3QBDB[eax]
  00dc2	85 c9		 test	 ecx, ecx
  00dc4	75 1b		 jne	 SHORT $LN110@enter_view
  00dc6	83 3d 00 00 00
	00 00		 cmp	 DWORD PTR ?full_screen_hi_res@@3HA, 0 ; full_screen_hi_res
  00dcd	75 12		 jne	 SHORT $LN110@enter_view
  00dcf	83 3d 00 00 00
	00 10		 cmp	 DWORD PTR ?application_video_colourdepth@@3HA, 16 ; application_video_colourdepth, 00000010H
  00dd6	75 09		 jne	 SHORT $LN110@enter_view
  00dd8	83 3d 00 00 00
	00 00		 cmp	 DWORD PTR ?global_aphavoc_maps@@3HA, 0 ; global_aphavoc_maps
  00ddf	75 07		 jne	 SHORT $LN109@enter_view
$LN110@enter_view:

; 1393 : 			{
; 1394 : 				mode = VIEW_MODE_VIRTUAL_COCKPIT;

  00de1	c7 45 08 20 00
	00 00		 mov	 DWORD PTR _mode$[ebp], 32 ; 00000020H
$LN109@enter_view:

; 1395 : 			}
; 1396 : 
; 1397 : 			break;

  00de8	e9 40 03 00 00	 jmp	 $LN2@enter_view
$LN111@enter_view:

; 1398 : 		}
; 1399 : 		////////////////////////////////////////
; 1400 : 		case VIEW_MODE_COCKPIT_PANEL_DOWN20_RIGHT90:
; 1401 : 		////////////////////////////////////////
; 1402 : 		{
; 1403 : 			pilot_head_heading = pilot_head_heading_values[mode];

  00ded	8b 45 08	 mov	 eax, DWORD PTR _mode$[ebp]
  00df0	f3 0f 10 04 85
	00 00 00 00	 movss	 xmm0, DWORD PTR ?pilot_head_heading_values@@3PAMA[eax*4]
  00df9	f3 0f 11 05 00
	00 00 00	 movss	 DWORD PTR ?pilot_head_heading@@3MA, xmm0

; 1404 : 
; 1405 : 			pilot_head_pitch = pilot_head_pitch_values[mode];

  00e01	8b 45 08	 mov	 eax, DWORD PTR _mode$[ebp]
  00e04	f3 0f 10 04 85
	00 00 00 00	 movss	 xmm0, DWORD PTR ?pilot_head_pitch_values@@3PAMA[eax*4]
  00e0d	f3 0f 11 05 00
	00 00 00	 movss	 DWORD PTR ?pilot_head_pitch@@3MA, xmm0

; 1406 : 
; 1407 : 			if (!get_apache_havoc_gunship_fixed_cockpit ())

  00e15	a1 0c 00 00 00	 mov	 eax, DWORD PTR ?global_options@@3UGLOBAL_OPTIONS_DATA@@A+12
  00e1a	0f b6 88 00 00
	00 00		 movzx	 ecx, BYTE PTR ?new_gunship@@3QBDB[eax]
  00e21	85 c9		 test	 ecx, ecx
  00e23	75 1b		 jne	 SHORT $LN113@enter_view
  00e25	83 3d 00 00 00
	00 00		 cmp	 DWORD PTR ?full_screen_hi_res@@3HA, 0 ; full_screen_hi_res
  00e2c	75 12		 jne	 SHORT $LN113@enter_view
  00e2e	83 3d 00 00 00
	00 10		 cmp	 DWORD PTR ?application_video_colourdepth@@3HA, 16 ; application_video_colourdepth, 00000010H
  00e35	75 09		 jne	 SHORT $LN113@enter_view
  00e37	83 3d 00 00 00
	00 00		 cmp	 DWORD PTR ?global_aphavoc_maps@@3HA, 0 ; global_aphavoc_maps
  00e3e	75 07		 jne	 SHORT $LN112@enter_view
$LN113@enter_view:

; 1408 : 			{
; 1409 : 				mode = VIEW_MODE_VIRTUAL_COCKPIT;

  00e40	c7 45 08 20 00
	00 00		 mov	 DWORD PTR _mode$[ebp], 32 ; 00000020H
$LN112@enter_view:

; 1410 : 			}
; 1411 : 
; 1412 : 			break;

  00e47	e9 e1 02 00 00	 jmp	 $LN2@enter_view
$LN114@enter_view:

; 1413 : 		}
; 1414 : 		////////////////////////////////////////
; 1415 : 		case VIEW_MODE_COCKPIT_PANEL_SPECIAL_APACHE_LHS_MFD:
; 1416 : 		////////////////////////////////////////
; 1417 : 		{
; 1418 : 			pilot_head_heading = pilot_head_heading_values[mode];

  00e4c	8b 45 08	 mov	 eax, DWORD PTR _mode$[ebp]
  00e4f	f3 0f 10 04 85
	00 00 00 00	 movss	 xmm0, DWORD PTR ?pilot_head_heading_values@@3PAMA[eax*4]
  00e58	f3 0f 11 05 00
	00 00 00	 movss	 DWORD PTR ?pilot_head_heading@@3MA, xmm0

; 1419 : 
; 1420 : 			pilot_head_pitch = pilot_head_pitch_values[mode];

  00e60	8b 45 08	 mov	 eax, DWORD PTR _mode$[ebp]
  00e63	f3 0f 10 04 85
	00 00 00 00	 movss	 xmm0, DWORD PTR ?pilot_head_pitch_values@@3PAMA[eax*4]
  00e6c	f3 0f 11 05 00
	00 00 00	 movss	 DWORD PTR ?pilot_head_pitch@@3MA, xmm0

; 1421 : 
; 1422 : 			break;

  00e74	e9 b4 02 00 00	 jmp	 $LN2@enter_view
$LN115@enter_view:

; 1423 : 		}
; 1424 : 		////////////////////////////////////////
; 1425 : 		case VIEW_MODE_COCKPIT_PANEL_SPECIAL_APACHE_RHS_MFD:
; 1426 : 		////////////////////////////////////////
; 1427 : 		{
; 1428 : 			pilot_head_heading = pilot_head_heading_values[mode];

  00e79	8b 45 08	 mov	 eax, DWORD PTR _mode$[ebp]
  00e7c	f3 0f 10 04 85
	00 00 00 00	 movss	 xmm0, DWORD PTR ?pilot_head_heading_values@@3PAMA[eax*4]
  00e85	f3 0f 11 05 00
	00 00 00	 movss	 DWORD PTR ?pilot_head_heading@@3MA, xmm0

; 1429 : 
; 1430 : 			pilot_head_pitch = pilot_head_pitch_values[mode];

  00e8d	8b 45 08	 mov	 eax, DWORD PTR _mode$[ebp]
  00e90	f3 0f 10 04 85
	00 00 00 00	 movss	 xmm0, DWORD PTR ?pilot_head_pitch_values@@3PAMA[eax*4]
  00e99	f3 0f 11 05 00
	00 00 00	 movss	 DWORD PTR ?pilot_head_pitch@@3MA, xmm0

; 1431 : 
; 1432 : 			break;

  00ea1	e9 87 02 00 00	 jmp	 $LN2@enter_view
$LN116@enter_view:

; 1433 : 		}
; 1434 : 		////////////////////////////////////////
; 1435 : 		case VIEW_MODE_COCKPIT_PANEL_SPECIAL_HAVOC_TV:
; 1436 : 		////////////////////////////////////////
; 1437 : 		{
; 1438 : 			pilot_head_heading = pilot_head_heading_values[mode];

  00ea6	8b 45 08	 mov	 eax, DWORD PTR _mode$[ebp]
  00ea9	f3 0f 10 04 85
	00 00 00 00	 movss	 xmm0, DWORD PTR ?pilot_head_heading_values@@3PAMA[eax*4]
  00eb2	f3 0f 11 05 00
	00 00 00	 movss	 DWORD PTR ?pilot_head_heading@@3MA, xmm0

; 1439 : 
; 1440 : 			pilot_head_pitch = pilot_head_pitch_values[mode];

  00eba	8b 45 08	 mov	 eax, DWORD PTR _mode$[ebp]
  00ebd	f3 0f 10 04 85
	00 00 00 00	 movss	 xmm0, DWORD PTR ?pilot_head_pitch_values@@3PAMA[eax*4]
  00ec6	f3 0f 11 05 00
	00 00 00	 movss	 DWORD PTR ?pilot_head_pitch@@3MA, xmm0

; 1441 : 
; 1442 : 			break;

  00ece	e9 5a 02 00 00	 jmp	 $LN2@enter_view
$LN117@enter_view:

; 1443 : 		}
; 1444 : 		////////////////////////////////////////
; 1445 : 		case VIEW_MODE_COCKPIT_PANEL_SPECIAL_HAVOC_HUD:
; 1446 : 		////////////////////////////////////////
; 1447 : 		{
; 1448 : 			pilot_head_heading = pilot_head_heading_values[mode];

  00ed3	8b 45 08	 mov	 eax, DWORD PTR _mode$[ebp]
  00ed6	f3 0f 10 04 85
	00 00 00 00	 movss	 xmm0, DWORD PTR ?pilot_head_heading_values@@3PAMA[eax*4]
  00edf	f3 0f 11 05 00
	00 00 00	 movss	 DWORD PTR ?pilot_head_heading@@3MA, xmm0

; 1449 : 
; 1450 : 			pilot_head_pitch = pilot_head_pitch_values[mode];

  00ee7	8b 45 08	 mov	 eax, DWORD PTR _mode$[ebp]
  00eea	f3 0f 10 04 85
	00 00 00 00	 movss	 xmm0, DWORD PTR ?pilot_head_pitch_values@@3PAMA[eax*4]
  00ef3	f3 0f 11 05 00
	00 00 00	 movss	 DWORD PTR ?pilot_head_pitch@@3MA, xmm0

; 1451 : 
; 1452 : 			break;

  00efb	e9 2d 02 00 00	 jmp	 $LN2@enter_view
$LN118@enter_view:

; 1453 : 		}
; 1454 : 		////////////////////////////////////////
; 1455 : 		case VIEW_MODE_VIRTUAL_COCKPIT:
; 1456 : 		////////////////////////////////////////
; 1457 : 		{
; 1458 : 			break;

  00f00	e9 28 02 00 00	 jmp	 $LN2@enter_view
$LN119@enter_view:

; 1459 : 		}
; 1460 : 		////////////////////////////////////////
; 1461 : 		case VIEW_MODE_VIRTUAL_COCKPIT_PADLOCK:
; 1462 : 		////////////////////////////////////////
; 1463 : 		{
; 1464 : 			break;

  00f05	e9 23 02 00 00	 jmp	 $LN2@enter_view
$LN120@enter_view:

; 1465 : 		}
; 1466 : 		////////////////////////////////////////
; 1467 : 		case VIEW_MODE_VIRTUAL_COCKPIT_TRACK_TARGET:
; 1468 : 		////////////////////////////////////////
; 1469 : 		{
; 1470 : 			char
; 1471 : 				s[200];
; 1472 : 
; 1473 : 			entity
; 1474 : 				*target;
; 1475 : 
; 1476 : 			ASSERT (get_gunship_entity ());

  00f0a	83 3d 00 00 00
	00 00		 cmp	 DWORD PTR ?gunship_entity@@3PAUENTITY@@A, 0 ; gunship_entity
  00f11	75 1a		 jne	 SHORT $LN121@enter_view
  00f13	a1 00 00 00 00	 mov	 eax, DWORD PTR ?__LINE__Var@?0??enter_view_mode@@YGXW4VIEW_MODES@@@Z@4JA
  00f18	05 7b 02 00 00	 add	 eax, 635		; 0000027bH
  00f1d	50		 push	 eax
  00f1e	68 00 00 00 00	 push	 OFFSET ??_C@_0EF@LBJPOBFB@c?3?2users?2nhv90?2projects?2eech?2ap@
  00f23	68 00 00 00 00	 push	 OFFSET ??_C@_0BG@EANNPEON@get_gunship_entity?5?$CI?$CJ@
  00f28	e8 00 00 00 00	 call	 ?process_assert@@YGXPBD0H@Z ; process_assert
$LN121@enter_view:

; 1477 : 
; 1478 : 			target = get_local_entity_parent (get_gunship_entity (), LIST_TYPE_TARGET);

  00f2d	83 3d 00 00 00
	00 00		 cmp	 DWORD PTR ?gunship_entity@@3PAUENTITY@@A, 0 ; gunship_entity
  00f34	74 0f		 je	 SHORT $LN140@enter_view
  00f36	a1 00 00 00 00	 mov	 eax, DWORD PTR ?gunship_entity@@3PAUENTITY@@A ; gunship_entity
  00f3b	8b 08		 mov	 ecx, DWORD PTR [eax]
  00f3d	89 8d ec fe ff
	ff		 mov	 DWORD PTR tv516[ebp], ecx
  00f43	eb 27		 jmp	 SHORT $LN141@enter_view
$LN140@enter_view:
  00f45	8b 15 00 00 00
	00		 mov	 edx, DWORD PTR ?__LINE__Var@?0??enter_view_mode@@YGXW4VIEW_MODES@@@Z@4JA
  00f4b	81 c2 7d 02 00
	00		 add	 edx, 637		; 0000027dH
  00f51	52		 push	 edx
  00f52	68 00 00 00 00	 push	 OFFSET ??_C@_0EF@LBJPOBFB@c?3?2users?2nhv90?2projects?2eech?2ap@
  00f57	a1 00 00 00 00	 mov	 eax, DWORD PTR ?null_entity_pointer_message@@3PBDB ; null_entity_pointer_message
  00f5c	50		 push	 eax
  00f5d	e8 00 00 00 00	 call	 ?process_assert@@YGXPBD0H@Z ; process_assert
  00f62	c7 85 ec fe ff
	ff 00 00 00 00	 mov	 DWORD PTR tv516[ebp], 0
$LN141@enter_view:
  00f6c	b9 01 00 00 00	 mov	 ecx, 1
  00f71	85 c9		 test	 ecx, ecx
  00f73	74 0c		 je	 SHORT $LN142@enter_view
  00f75	c7 85 e8 fe ff
	ff 26 00 00 00	 mov	 DWORD PTR tv524[ebp], 38 ; 00000026H
  00f7f	eb 27		 jmp	 SHORT $LN143@enter_view
$LN142@enter_view:
  00f81	8b 15 00 00 00
	00		 mov	 edx, DWORD PTR ?__LINE__Var@?0??enter_view_mode@@YGXW4VIEW_MODES@@@Z@4JA
  00f87	81 c2 7d 02 00
	00		 add	 edx, 637		; 0000027dH
  00f8d	52		 push	 edx
  00f8e	68 00 00 00 00	 push	 OFFSET ??_C@_0EF@LBJPOBFB@c?3?2users?2nhv90?2projects?2eech?2ap@
  00f93	a1 00 00 00 00	 mov	 eax, DWORD PTR ?overload_invalid_list_type_message@@3PBDB ; overload_invalid_list_type_message
  00f98	50		 push	 eax
  00f99	e8 00 00 00 00	 call	 ?process_assert@@YGXPBD0H@Z ; process_assert
  00f9e	c7 85 e8 fe ff
	ff 00 00 00 00	 mov	 DWORD PTR tv524[ebp], 0
$LN143@enter_view:
  00fa8	6a 26		 push	 38			; 00000026H
  00faa	8b 0d 00 00 00
	00		 mov	 ecx, DWORD PTR ?gunship_entity@@3PAUENTITY@@A ; gunship_entity
  00fb0	51		 push	 ecx
  00fb1	69 95 ec fe ff
	ff b4 00 00 00	 imul	 edx, DWORD PTR tv516[ebp], 180
  00fbb	8b 85 e8 fe ff
	ff		 mov	 eax, DWORD PTR tv524[ebp]
  00fc1	8b 8c 82 00 00
	00 00		 mov	 ecx, DWORD PTR ?fn_get_local_entity_parent@@3PAY0CN@P6GPAUENTITY@@PAU1@W4LIST_TYPES@@@ZA[edx+eax*4]
  00fc8	ff d1		 call	 ecx
  00fca	89 85 30 ff ff
	ff		 mov	 DWORD PTR _target$1[ebp], eax

; 1479 : 
; 1480 : 			ASSERT (target);

  00fd0	83 bd 30 ff ff
	ff 00		 cmp	 DWORD PTR _target$1[ebp], 0
  00fd7	75 1a		 jne	 SHORT $LN122@enter_view
  00fd9	a1 00 00 00 00	 mov	 eax, DWORD PTR ?__LINE__Var@?0??enter_view_mode@@YGXW4VIEW_MODES@@@Z@4JA
  00fde	05 7f 02 00 00	 add	 eax, 639		; 0000027fH
  00fe3	50		 push	 eax
  00fe4	68 00 00 00 00	 push	 OFFSET ??_C@_0EF@LBJPOBFB@c?3?2users?2nhv90?2projects?2eech?2ap@
  00fe9	68 00 00 00 00	 push	 OFFSET ??_C@_06JJLAMBGK@target@
  00fee	e8 00 00 00 00	 call	 ?process_assert@@YGXPBD0H@Z ; process_assert
$LN122@enter_view:

; 1481 : 
; 1482 : 			sprintf (s, "%s %s", get_trans ("Padlock target"), get_local_entity_string (target, STRING_TYPE_FULL_NAME));

  00ff3	83 bd 30 ff ff
	ff 00		 cmp	 DWORD PTR _target$1[ebp], 0
  00ffa	74 10		 je	 SHORT $LN144@enter_view
  00ffc	8b 85 30 ff ff
	ff		 mov	 eax, DWORD PTR _target$1[ebp]
  01002	8b 08		 mov	 ecx, DWORD PTR [eax]
  01004	89 8d ec fe ff
	ff		 mov	 DWORD PTR tv542[ebp], ecx
  0100a	eb 27		 jmp	 SHORT $LN145@enter_view
$LN144@enter_view:
  0100c	8b 15 00 00 00
	00		 mov	 edx, DWORD PTR ?__LINE__Var@?0??enter_view_mode@@YGXW4VIEW_MODES@@@Z@4JA
  01012	81 c2 81 02 00
	00		 add	 edx, 641		; 00000281H
  01018	52		 push	 edx
  01019	68 00 00 00 00	 push	 OFFSET ??_C@_0EF@LBJPOBFB@c?3?2users?2nhv90?2projects?2eech?2ap@
  0101e	a1 00 00 00 00	 mov	 eax, DWORD PTR ?null_entity_pointer_message@@3PBDB ; null_entity_pointer_message
  01023	50		 push	 eax
  01024	e8 00 00 00 00	 call	 ?process_assert@@YGXPBD0H@Z ; process_assert
  01029	c7 85 ec fe ff
	ff 00 00 00 00	 mov	 DWORD PTR tv542[ebp], 0
$LN145@enter_view:
  01033	b9 01 00 00 00	 mov	 ecx, 1
  01038	85 c9		 test	 ecx, ecx
  0103a	74 0c		 je	 SHORT $LN146@enter_view
  0103c	c7 85 e8 fe ff
	ff 03 00 00 00	 mov	 DWORD PTR tv550[ebp], 3
  01046	eb 27		 jmp	 SHORT $LN147@enter_view
$LN146@enter_view:
  01048	8b 15 00 00 00
	00		 mov	 edx, DWORD PTR ?__LINE__Var@?0??enter_view_mode@@YGXW4VIEW_MODES@@@Z@4JA
  0104e	81 c2 81 02 00
	00		 add	 edx, 641		; 00000281H
  01054	52		 push	 edx
  01055	68 00 00 00 00	 push	 OFFSET ??_C@_0EF@LBJPOBFB@c?3?2users?2nhv90?2projects?2eech?2ap@
  0105a	a1 00 00 00 00	 mov	 eax, DWORD PTR ?overload_invalid_string_type_message@@3PBDB ; overload_invalid_string_type_message
  0105f	50		 push	 eax
  01060	e8 00 00 00 00	 call	 ?process_assert@@YGXPBD0H@Z ; process_assert
  01065	c7 85 e8 fe ff
	ff 00 00 00 00	 mov	 DWORD PTR tv550[ebp], 0
$LN147@enter_view:
  0106f	6a 03		 push	 3
  01071	8b 8d 30 ff ff
	ff		 mov	 ecx, DWORD PTR _target$1[ebp]
  01077	51		 push	 ecx
  01078	6b 95 ec fe ff
	ff 34		 imul	 edx, DWORD PTR tv542[ebp], 52
  0107f	8b 85 e8 fe ff
	ff		 mov	 eax, DWORD PTR tv550[ebp]
  01085	8b 8c 82 00 00
	00 00		 mov	 ecx, DWORD PTR ?fn_get_local_entity_string@@3PAY0N@P6GPBDPAUENTITY@@W4STRING_TYPES@@@ZA[edx+eax*4]
  0108c	ff d1		 call	 ecx
  0108e	50		 push	 eax
  0108f	68 00 00 00 00	 push	 OFFSET ??_C@_0P@HBOKKGHN@Padlock?5target@
  01094	e8 00 00 00 00	 call	 ?get_trans@@YGPBDPBD@Z	; get_trans
  01099	50		 push	 eax
  0109a	68 00 00 00 00	 push	 OFFSET ??_C@_05DNIIFBMG@?$CFs?5?$CFs@
  0109f	8d 95 34 ff ff
	ff		 lea	 edx, DWORD PTR _s$2[ebp]
  010a5	52		 push	 edx
  010a6	e8 00 00 00 00	 call	 _sprintf
  010ab	83 c4 10	 add	 esp, 16			; 00000010H

; 1483 : 
; 1484 : 			set_status_message (s, STATUS_MESSAGE_TYPE_NONE);

  010ae	6a 00		 push	 0
  010b0	8d 85 34 ff ff
	ff		 lea	 eax, DWORD PTR _s$2[ebp]
  010b6	50		 push	 eax
  010b7	e8 00 00 00 00	 call	 ?set_status_message@@YGXPBDW4STATUS_MESSAGE_TYPES@@@Z ; set_status_message

; 1485 : 
; 1486 : 			break;

  010bc	eb 6f		 jmp	 SHORT $LN2@enter_view
$LN123@enter_view:

; 1487 : 		}
; 1488 : 		////////////////////////////////////////
; 1489 : 		case VIEW_MODE_VIRTUAL_COCKPIT_CREW:
; 1490 : 		////////////////////////////////////////
; 1491 : 		{
; 1492 : 			break;

  010be	eb 6d		 jmp	 SHORT $LN2@enter_view
$LN124@enter_view:

; 1493 : 		}
; 1494 : 		////////////////////////////////////////
; 1495 : 		case VIEW_MODE_VIRTUAL_COCKPIT_HUD:
; 1496 : 		////////////////////////////////////////
; 1497 : 		{
; 1498 : 			pilot_head_heading = 0.0;

  010c0	0f 57 c0	 xorps	 xmm0, xmm0
  010c3	f3 0f 11 05 00
	00 00 00	 movss	 DWORD PTR ?pilot_head_heading@@3MA, xmm0

; 1499 : 
; 1500 : 			pilot_head_pitch = 0.0;

  010cb	0f 57 c0	 xorps	 xmm0, xmm0
  010ce	f3 0f 11 05 00
	00 00 00	 movss	 DWORD PTR ?pilot_head_pitch@@3MA, xmm0

; 1501 : 
; 1502 : 			break;

  010d6	eb 55		 jmp	 SHORT $LN2@enter_view
$LN125@enter_view:

; 1503 : 		}
; 1504 : 		////////////////////////////////////////
; 1505 : 		case VIEW_MODE_VIRTUAL_COCKPIT_PERISCOPE:
; 1506 : 		////////////////////////////////////////
; 1507 : 		{
; 1508 : 			if (get_global_gunship_type () == GUNSHIP_TYPE_HOKUM
; 1509 : 				|| get_global_gunship_type () == GUNSHIP_TYPE_HIND
; 1510 : 				|| get_global_gunship_type () == GUNSHIP_TYPE_APACHE)

  010d8	83 3d 0c 00 00
	00 03		 cmp	 DWORD PTR ?global_options@@3UGLOBAL_OPTIONS_DATA@@A+12, 3
  010df	74 12		 je	 SHORT $LN127@enter_view
  010e1	83 3d 0c 00 00
	00 05		 cmp	 DWORD PTR ?global_options@@3UGLOBAL_OPTIONS_DATA@@A+12, 5
  010e8	74 09		 je	 SHORT $LN127@enter_view
  010ea	83 3d 0c 00 00
	00 00		 cmp	 DWORD PTR ?global_options@@3UGLOBAL_OPTIONS_DATA@@A+12, 0
  010f1	75 1b		 jne	 SHORT $LN126@enter_view
$LN127@enter_view:

; 1511 : 			{
; 1512 : 				pilot_head_heading = HOKUM_INSTRUMENT_VIEW_HEADING;

  010f3	0f 57 c0	 xorps	 xmm0, xmm0
  010f6	f3 0f 11 05 00
	00 00 00	 movss	 DWORD PTR ?pilot_head_heading@@3MA, xmm0

; 1513 : 
; 1514 : 				pilot_head_pitch = HOKUM_INSTRUMENT_VIEW_PITCH;

  010fe	f3 0f 10 05 00
	00 00 00	 movss	 xmm0, DWORD PTR __real@beb2b8c2
  01106	f3 0f 11 05 00
	00 00 00	 movss	 DWORD PTR ?pilot_head_pitch@@3MA, xmm0
$LN126@enter_view:

; 1515 : 			}
; 1516 : 
; 1517 : 			break;

  0110e	eb 1d		 jmp	 SHORT $LN2@enter_view
$LN128@enter_view:

; 1518 : 		}
; 1519 : 		////////////////////////////////////////
; 1520 : 		case VIEW_MODE_VIRTUAL_COCKPIT_PILOT_LHS_DISPLAY:
; 1521 : 		////////////////////////////////////////
; 1522 : 		{
; 1523 : 			break;

  01110	eb 1b		 jmp	 SHORT $LN2@enter_view
$LN129@enter_view:

; 1524 : 		}
; 1525 : 		////////////////////////////////////////
; 1526 : 		case VIEW_MODE_VIRTUAL_COCKPIT_PILOT_RHS_DISPLAY:
; 1527 : 		////////////////////////////////////////
; 1528 : 		{
; 1529 : 			break;

  01112	eb 19		 jmp	 SHORT $LN2@enter_view
$LN130@enter_view:

; 1530 : 		}
; 1531 : 		////////////////////////////////////////
; 1532 : 		case VIEW_MODE_VIRTUAL_COCKPIT_CO_PILOT_LHS_DISPLAY:
; 1533 : 		////////////////////////////////////////
; 1534 : 		{
; 1535 : 			break;

  01114	eb 17		 jmp	 SHORT $LN2@enter_view
$LN131@enter_view:

; 1536 : 		}
; 1537 : 		////////////////////////////////////////
; 1538 : 		case VIEW_MODE_VIRTUAL_COCKPIT_CO_PILOT_RHS_DISPLAY:
; 1539 : 		////////////////////////////////////////
; 1540 : 		{
; 1541 : 			break;

  01116	eb 15		 jmp	 SHORT $LN2@enter_view
$LN132@enter_view:

; 1542 : 		}
; 1543 : 		////////////////////////////////////////
; 1544 : 		case VIEW_MODE_EXTERNAL:
; 1545 : 		////////////////////////////////////////
; 1546 : 		{
; 1547 : 			break;

  01118	eb 13		 jmp	 SHORT $LN2@enter_view
$LN133@enter_view:

; 1548 : 		}
; 1549 : 		////////////////////////////////////////
; 1550 : 		case VIEW_MODE_SAFE:
; 1551 : 		////////////////////////////////////////
; 1552 : 		{
; 1553 : 			break;

  0111a	eb 11		 jmp	 SHORT $LN2@enter_view
$LN134@enter_view:

; 1554 : 		}
; 1555 : 		////////////////////////////////////////
; 1556 : 		default:
; 1557 : 		////////////////////////////////////////
; 1558 : 		{
; 1559 : 			debug_fatal ("Invalid view mode = %d", mode);

  0111c	8b 45 08	 mov	 eax, DWORD PTR _mode$[ebp]
  0111f	50		 push	 eax
  01120	68 00 00 00 00	 push	 OFFSET ??_C@_0BH@KFJLEDAI@Invalid?5view?5mode?5?$DN?5?$CFd@
  01125	e8 00 00 00 00	 call	 ?debug_fatal@@YAXPBDZZ	; debug_fatal
  0112a	83 c4 08	 add	 esp, 8
$LN2@enter_view:

; 1560 : 
; 1561 : 			break;
; 1562 : 		}
; 1563 : 	}
; 1564 : 
; 1565 : 	view_mode = mode;

  0112d	8b 45 08	 mov	 eax, DWORD PTR _mode$[ebp]
  01130	a3 00 00 00 00	 mov	 DWORD PTR ?view_mode@@3W4VIEW_MODES@@A, eax ; view_mode

; 1566 : }

  01135	5f		 pop	 edi
  01136	5e		 pop	 esi
  01137	5b		 pop	 ebx
  01138	8b e5		 mov	 esp, ebp
  0113a	5d		 pop	 ebp
  0113b	c2 04 00	 ret	 4
  0113e	66 90		 npad	 2
$LN149@enter_view:
  01140	00 00 00 00	 DD	 $LN8@enter_view
  01144	00 00 00 00	 DD	 $LN11@enter_view
  01148	00 00 00 00	 DD	 $LN14@enter_view
  0114c	00 00 00 00	 DD	 $LN17@enter_view
  01150	00 00 00 00	 DD	 $LN20@enter_view
  01154	00 00 00 00	 DD	 $LN23@enter_view
  01158	00 00 00 00	 DD	 $LN26@enter_view
  0115c	00 00 00 00	 DD	 $LN29@enter_view
  01160	00 00 00 00	 DD	 $LN32@enter_view
  01164	00 00 00 00	 DD	 $LN35@enter_view
  01168	00 00 00 00	 DD	 $LN38@enter_view
  0116c	00 00 00 00	 DD	 $LN41@enter_view
  01170	00 00 00 00	 DD	 $LN44@enter_view
  01174	00 00 00 00	 DD	 $LN47@enter_view
  01178	00 00 00 00	 DD	 $LN50@enter_view
  0117c	00 00 00 00	 DD	 $LN53@enter_view
  01180	00 00 00 00	 DD	 $LN56@enter_view
  01184	00 00 00 00	 DD	 $LN59@enter_view
  01188	00 00 00 00	 DD	 $LN66@enter_view
  0118c	00 00 00 00	 DD	 $LN69@enter_view
  01190	00 00 00 00	 DD	 $LN72@enter_view
  01194	00 00 00 00	 DD	 $LN75@enter_view
  01198	00 00 00 00	 DD	 $LN78@enter_view
  0119c	00 00 00 00	 DD	 $LN81@enter_view
  011a0	00 00 00 00	 DD	 $LN84@enter_view
  011a4	00 00 00 00	 DD	 $LN105@enter_view
  011a8	00 00 00 00	 DD	 $LN108@enter_view
  011ac	00 00 00 00	 DD	 $LN111@enter_view
  011b0	00 00 00 00	 DD	 $LN114@enter_view
  011b4	00 00 00 00	 DD	 $LN115@enter_view
  011b8	00 00 00 00	 DD	 $LN116@enter_view
  011bc	00 00 00 00	 DD	 $LN117@enter_view
  011c0	00 00 00 00	 DD	 $LN118@enter_view
  011c4	00 00 00 00	 DD	 $LN119@enter_view
  011c8	00 00 00 00	 DD	 $LN120@enter_view
  011cc	00 00 00 00	 DD	 $LN123@enter_view
  011d0	00 00 00 00	 DD	 $LN124@enter_view
  011d4	00 00 00 00	 DD	 $LN125@enter_view
  011d8	00 00 00 00	 DD	 $LN128@enter_view
  011dc	00 00 00 00	 DD	 $LN129@enter_view
  011e0	00 00 00 00	 DD	 $LN130@enter_view
  011e4	00 00 00 00	 DD	 $LN131@enter_view
  011e8	00 00 00 00	 DD	 $LN132@enter_view
  011ec	00 00 00 00	 DD	 $LN133@enter_view
$LN150@enter_view:
  011f0	00 00 00 00	 DD	 $LN62@enter_view
  011f4	00 00 00 00	 DD	 $LN63@enter_view
$LN148@enter_view:
  011f8	00		 DB	 0
  011f9	00		 DB	 0
  011fa	01		 DB	 1
  011fb	01		 DB	 1
  011fc	01		 DB	 1
  011fd	01		 DB	 1
  011fe	00		 DB	 0
  011ff	00		 DB	 0
$LN151@enter_view:
  01200	00 00 00 00	 DD	 $LN88@enter_view
  01204	00 00 00 00	 DD	 $LN91@enter_view
  01208	00 00 00 00	 DD	 $LN92@enter_view
  0120c	00 00 00 00	 DD	 $LN93@enter_view
  01210	00 00 00 00	 DD	 $LN96@enter_view
  01214	00 00 00 00	 DD	 $LN99@enter_view
  01218	00 00 00 00	 DD	 $LN102@enter_view
  0121c	00 00 00 00	 DD	 $LN103@enter_view
  01220	00 00 00 00	 DD	 $LN104@enter_view
?enter_view_mode@@YGXW4VIEW_MODES@@@Z ENDP		; enter_view_mode
_TEXT	ENDS
; Function compile flags: /Odtp /ZI
; File c:\users\nhv90\projects\eech\aphavoc\source\gunships\views\vm_main.c
;	COMDAT ?leave_view_mode@@YGXW4VIEW_MODES@@@Z
_TEXT	SEGMENT
tv64 = -68						; size = 4
_mode$ = 8						; size = 4
?leave_view_mode@@YGXW4VIEW_MODES@@@Z PROC		; leave_view_mode, COMDAT

; 548  : {

  00000	55		 push	 ebp
  00001	8b ec		 mov	 ebp, esp
  00003	83 ec 44	 sub	 esp, 68			; 00000044H
  00006	53		 push	 ebx
  00007	56		 push	 esi
  00008	57		 push	 edi

; 549  : 	switch (mode)

  00009	8b 45 08	 mov	 eax, DWORD PTR _mode$[ebp]
  0000c	89 45 bc	 mov	 DWORD PTR tv64[ebp], eax
  0000f	83 7d bc 2b	 cmp	 DWORD PTR tv64[ebp], 43	; 0000002bH
  00013	0f 87 a1 00 00
	00		 ja	 $LN49@leave_view
  00019	8b 4d bc	 mov	 ecx, DWORD PTR tv64[ebp]
  0001c	ff 24 8d 00 00
	00 00		 jmp	 DWORD PTR $LN51@leave_view[ecx*4]
$LN4@leave_view:

; 550  : 	{
; 551  : 		////////////////////////////////////////
; 552  : 		case VIEW_MODE_COCKPIT_PANEL_UP40_LEFT90:
; 553  : 		////////////////////////////////////////
; 554  : 		{
; 555  : 			break;

  00023	e9 a3 00 00 00	 jmp	 $LN1@leave_view
$LN5@leave_view:

; 556  : 		}
; 557  : 		////////////////////////////////////////
; 558  : 		case VIEW_MODE_COCKPIT_PANEL_UP40_LEFT60:
; 559  : 		////////////////////////////////////////
; 560  : 		{
; 561  : 			break;

  00028	e9 9e 00 00 00	 jmp	 $LN1@leave_view
$LN6@leave_view:

; 562  : 		}
; 563  : 		////////////////////////////////////////
; 564  : 		case VIEW_MODE_COCKPIT_PANEL_UP40_LEFT30:
; 565  : 		////////////////////////////////////////
; 566  : 		{
; 567  : 			break;

  0002d	e9 99 00 00 00	 jmp	 $LN1@leave_view
$LN7@leave_view:

; 568  : 		}
; 569  : 		////////////////////////////////////////
; 570  : 		case VIEW_MODE_COCKPIT_PANEL_UP40_AHEAD:
; 571  : 		////////////////////////////////////////
; 572  : 		{
; 573  : 			break;

  00032	e9 94 00 00 00	 jmp	 $LN1@leave_view
$LN8@leave_view:

; 574  : 		}
; 575  : 		////////////////////////////////////////
; 576  : 		case VIEW_MODE_COCKPIT_PANEL_UP40_RIGHT30:
; 577  : 		////////////////////////////////////////
; 578  : 		{
; 579  : 			break;

  00037	e9 8f 00 00 00	 jmp	 $LN1@leave_view
$LN9@leave_view:

; 580  : 		}
; 581  : 		////////////////////////////////////////
; 582  : 		case VIEW_MODE_COCKPIT_PANEL_UP40_RIGHT60:
; 583  : 		////////////////////////////////////////
; 584  : 		{
; 585  : 			break;

  0003c	e9 8a 00 00 00	 jmp	 $LN1@leave_view
$LN10@leave_view:

; 586  : 		}
; 587  : 		////////////////////////////////////////
; 588  : 		case VIEW_MODE_COCKPIT_PANEL_UP40_RIGHT90:
; 589  : 		////////////////////////////////////////
; 590  : 		{
; 591  : 			break;

  00041	e9 85 00 00 00	 jmp	 $LN1@leave_view
$LN11@leave_view:

; 592  : 		}
; 593  : 		////////////////////////////////////////
; 594  : 		case VIEW_MODE_COCKPIT_PANEL_UP20_LEFT90:
; 595  : 		////////////////////////////////////////
; 596  : 		{
; 597  : 			break;

  00046	e9 80 00 00 00	 jmp	 $LN1@leave_view
$LN12@leave_view:

; 598  : 		}
; 599  : 		////////////////////////////////////////
; 600  : 		case VIEW_MODE_COCKPIT_PANEL_UP20_LEFT60:
; 601  : 		////////////////////////////////////////
; 602  : 		{
; 603  : 			break;

  0004b	eb 7e		 jmp	 SHORT $LN1@leave_view
$LN13@leave_view:

; 604  : 		}
; 605  : 		////////////////////////////////////////
; 606  : 		case VIEW_MODE_COCKPIT_PANEL_UP20_LEFT30:
; 607  : 		////////////////////////////////////////
; 608  : 		{
; 609  : 			break;

  0004d	eb 7c		 jmp	 SHORT $LN1@leave_view
$LN14@leave_view:

; 610  : 		}
; 611  : 		////////////////////////////////////////
; 612  : 		case VIEW_MODE_COCKPIT_PANEL_UP20_AHEAD:
; 613  : 		////////////////////////////////////////
; 614  : 		{
; 615  : 			break;

  0004f	eb 7a		 jmp	 SHORT $LN1@leave_view
$LN15@leave_view:

; 616  : 		}
; 617  : 		////////////////////////////////////////
; 618  : 		case VIEW_MODE_COCKPIT_PANEL_UP20_RIGHT30:
; 619  : 		////////////////////////////////////////
; 620  : 		{
; 621  : 			break;

  00051	eb 78		 jmp	 SHORT $LN1@leave_view
$LN16@leave_view:

; 622  : 		}
; 623  : 		////////////////////////////////////////
; 624  : 		case VIEW_MODE_COCKPIT_PANEL_UP20_RIGHT60:
; 625  : 		////////////////////////////////////////
; 626  : 		{
; 627  : 			break;

  00053	eb 76		 jmp	 SHORT $LN1@leave_view
$LN17@leave_view:

; 628  : 		}
; 629  : 		////////////////////////////////////////
; 630  : 		case VIEW_MODE_COCKPIT_PANEL_UP20_RIGHT90:
; 631  : 		////////////////////////////////////////
; 632  : 		{
; 633  : 			break;

  00055	eb 74		 jmp	 SHORT $LN1@leave_view
$LN18@leave_view:

; 634  : 		}
; 635  : 		////////////////////////////////////////
; 636  : 		case VIEW_MODE_COCKPIT_PANEL_LEVEL_LEFT90:
; 637  : 		////////////////////////////////////////
; 638  : 		{
; 639  : 			break;

  00057	eb 72		 jmp	 SHORT $LN1@leave_view
$LN19@leave_view:

; 640  : 		}
; 641  : 		////////////////////////////////////////
; 642  : 		case VIEW_MODE_COCKPIT_PANEL_LEVEL_LEFT60:
; 643  : 		////////////////////////////////////////
; 644  : 		{
; 645  : 			break;

  00059	eb 70		 jmp	 SHORT $LN1@leave_view
$LN20@leave_view:

; 646  : 		}
; 647  : 		////////////////////////////////////////
; 648  : 		case VIEW_MODE_COCKPIT_PANEL_LEVEL_LEFT30:
; 649  : 		////////////////////////////////////////
; 650  : 		{
; 651  : 			break;

  0005b	eb 6e		 jmp	 SHORT $LN1@leave_view
$LN21@leave_view:

; 652  : 		}
; 653  : 		////////////////////////////////////////
; 654  : 		case VIEW_MODE_COCKPIT_PANEL_LEVEL_AHEAD:
; 655  : 		////////////////////////////////////////
; 656  : 		{
; 657  : 			break;

  0005d	eb 6c		 jmp	 SHORT $LN1@leave_view
$LN22@leave_view:

; 658  : 		}
; 659  : 		////////////////////////////////////////
; 660  : 		case VIEW_MODE_COCKPIT_PANEL_LEVEL_RIGHT30:
; 661  : 		////////////////////////////////////////
; 662  : 		{
; 663  : 			break;

  0005f	eb 6a		 jmp	 SHORT $LN1@leave_view
$LN23@leave_view:

; 664  : 		}
; 665  : 		////////////////////////////////////////
; 666  : 		case VIEW_MODE_COCKPIT_PANEL_LEVEL_RIGHT60:
; 667  : 		////////////////////////////////////////
; 668  : 		{
; 669  : 			break;

  00061	eb 68		 jmp	 SHORT $LN1@leave_view
$LN24@leave_view:

; 670  : 		}
; 671  : 		////////////////////////////////////////
; 672  : 		case VIEW_MODE_COCKPIT_PANEL_LEVEL_RIGHT90:
; 673  : 		////////////////////////////////////////
; 674  : 		{
; 675  : 			break;

  00063	eb 66		 jmp	 SHORT $LN1@leave_view
$LN25@leave_view:

; 676  : 		}
; 677  : 		////////////////////////////////////////
; 678  : 		case VIEW_MODE_COCKPIT_PANEL_DOWN20_LEFT90:
; 679  : 		////////////////////////////////////////
; 680  : 		{
; 681  : 			break;

  00065	eb 64		 jmp	 SHORT $LN1@leave_view
$LN26@leave_view:

; 682  : 		}
; 683  : 		////////////////////////////////////////
; 684  : 		case VIEW_MODE_COCKPIT_PANEL_DOWN20_LEFT60:
; 685  : 		////////////////////////////////////////
; 686  : 		{
; 687  : 			break;

  00067	eb 62		 jmp	 SHORT $LN1@leave_view
$LN27@leave_view:

; 688  : 		}
; 689  : 		////////////////////////////////////////
; 690  : 		case VIEW_MODE_COCKPIT_PANEL_DOWN20_LEFT30:
; 691  : 		////////////////////////////////////////
; 692  : 		{
; 693  : 			break;

  00069	eb 60		 jmp	 SHORT $LN1@leave_view
$LN28@leave_view:

; 694  : 		}
; 695  : 		////////////////////////////////////////
; 696  : 		case VIEW_MODE_COCKPIT_PANEL_DOWN20_AHEAD:
; 697  : 		////////////////////////////////////////
; 698  : 		{
; 699  : 			break;

  0006b	eb 5e		 jmp	 SHORT $LN1@leave_view
$LN29@leave_view:

; 700  : 		}
; 701  : 		////////////////////////////////////////
; 702  : 		case VIEW_MODE_COCKPIT_PANEL_DOWN20_RIGHT30:
; 703  : 		////////////////////////////////////////
; 704  : 		{
; 705  : 			break;

  0006d	eb 5c		 jmp	 SHORT $LN1@leave_view
$LN30@leave_view:

; 706  : 		}
; 707  : 		////////////////////////////////////////
; 708  : 		case VIEW_MODE_COCKPIT_PANEL_DOWN20_RIGHT60:
; 709  : 		////////////////////////////////////////
; 710  : 		{
; 711  : 			break;

  0006f	eb 5a		 jmp	 SHORT $LN1@leave_view
$LN31@leave_view:

; 712  : 		}
; 713  : 		////////////////////////////////////////
; 714  : 		case VIEW_MODE_COCKPIT_PANEL_DOWN20_RIGHT90:
; 715  : 		////////////////////////////////////////
; 716  : 		{
; 717  : 			break;

  00071	eb 58		 jmp	 SHORT $LN1@leave_view
$LN32@leave_view:

; 718  : 		}
; 719  : 		////////////////////////////////////////
; 720  : 		case VIEW_MODE_COCKPIT_PANEL_SPECIAL_APACHE_LHS_MFD:
; 721  : 		////////////////////////////////////////
; 722  : 		{
; 723  : 			break;

  00073	eb 56		 jmp	 SHORT $LN1@leave_view
$LN33@leave_view:

; 724  : 		}
; 725  : 		////////////////////////////////////////
; 726  : 		case VIEW_MODE_COCKPIT_PANEL_SPECIAL_APACHE_RHS_MFD:
; 727  : 		////////////////////////////////////////
; 728  : 		{
; 729  : 			break;

  00075	eb 54		 jmp	 SHORT $LN1@leave_view
$LN34@leave_view:

; 730  : 		}
; 731  : 		////////////////////////////////////////
; 732  : 		case VIEW_MODE_COCKPIT_PANEL_SPECIAL_HAVOC_TV:
; 733  : 		////////////////////////////////////////
; 734  : 		{
; 735  : 			break;

  00077	eb 52		 jmp	 SHORT $LN1@leave_view
$LN35@leave_view:

; 736  : 		}
; 737  : 		////////////////////////////////////////
; 738  : 		case VIEW_MODE_COCKPIT_PANEL_SPECIAL_HAVOC_HUD:
; 739  : 		////////////////////////////////////////
; 740  : 		{
; 741  : 			break;

  00079	eb 50		 jmp	 SHORT $LN1@leave_view
$LN36@leave_view:

; 742  : 		}
; 743  : 		////////////////////////////////////////
; 744  : 		case VIEW_MODE_VIRTUAL_COCKPIT:
; 745  : 		////////////////////////////////////////
; 746  : 		{
; 747  : 			break;

  0007b	eb 4e		 jmp	 SHORT $LN1@leave_view
$LN37@leave_view:

; 748  : 		}
; 749  : 		////////////////////////////////////////
; 750  : 		case VIEW_MODE_VIRTUAL_COCKPIT_PADLOCK:
; 751  : 		////////////////////////////////////////
; 752  : 		{
; 753  : 			leave_padlock_view ();

  0007d	e8 00 00 00 00	 call	 ?leave_padlock_view@@YGXXZ ; leave_padlock_view

; 754  : 
; 755  : 			break;

  00082	eb 47		 jmp	 SHORT $LN1@leave_view
$LN38@leave_view:

; 756  : 		}
; 757  : 		////////////////////////////////////////
; 758  : 		case VIEW_MODE_VIRTUAL_COCKPIT_TRACK_TARGET:
; 759  : 		////////////////////////////////////////
; 760  : 		{
; 761  : 			break;

  00084	eb 45		 jmp	 SHORT $LN1@leave_view
$LN39@leave_view:

; 762  : 		}
; 763  : 		////////////////////////////////////////
; 764  : 		case VIEW_MODE_VIRTUAL_COCKPIT_CREW:
; 765  : 		////////////////////////////////////////
; 766  : 		{
; 767  : 			break;

  00086	eb 43		 jmp	 SHORT $LN1@leave_view
$LN40@leave_view:

; 768  : 		}
; 769  : 		////////////////////////////////////////
; 770  : 		case VIEW_MODE_VIRTUAL_COCKPIT_HUD:
; 771  : 		////////////////////////////////////////
; 772  : 		{
; 773  : 			break;

  00088	eb 41		 jmp	 SHORT $LN1@leave_view
$LN41@leave_view:

; 774  : 		}
; 775  : 		////////////////////////////////////////
; 776  : 		case VIEW_MODE_VIRTUAL_COCKPIT_PERISCOPE:
; 777  : 		////////////////////////////////////////
; 778  : 		{
; 779  : 			// DVO only available in ORT view
; 780  : 			if (get_global_gunship_type() == GUNSHIP_TYPE_APACHE
; 781  : 				&& !get_global_simple_avionics ()
; 782  : 				&& target_acquisition_system == TARGET_ACQUISITION_SYSTEM_DVO)

  0008a	83 3d 0c 00 00
	00 00		 cmp	 DWORD PTR ?global_options@@3UGLOBAL_OPTIONS_DATA@@A+12, 0
  00091	75 19		 jne	 SHORT $LN42@leave_view
  00093	83 3d 6c 03 00
	00 00		 cmp	 DWORD PTR ?global_options@@3UGLOBAL_OPTIONS_DATA@@A+876, 0
  0009a	75 10		 jne	 SHORT $LN42@leave_view
  0009c	83 3d 00 00 00
	00 05		 cmp	 DWORD PTR ?target_acquisition_system@@3W4TARGET_ACQUISITION_SYSTEMS@@A, 5 ; target_acquisition_system
  000a3	75 07		 jne	 SHORT $LN42@leave_view

; 783  : 			{
; 784  : 				select_apache_target_acquisition_system (TARGET_ACQUISITION_SYSTEM_DTV);

  000a5	6a 04		 push	 4
  000a7	e8 00 00 00 00	 call	 ?select_apache_target_acquisition_system@@YGXW4TARGET_ACQUISITION_SYSTEMS@@@Z ; select_apache_target_acquisition_system
$LN42@leave_view:

; 785  : 			}
; 786  : 
; 787  : 			break;

  000ac	eb 1d		 jmp	 SHORT $LN1@leave_view
$LN43@leave_view:

; 788  : 		}
; 789  : 		////////////////////////////////////////
; 790  : 		case VIEW_MODE_VIRTUAL_COCKPIT_PILOT_LHS_DISPLAY:
; 791  : 		////////////////////////////////////////
; 792  : 		{
; 793  : 			break;

  000ae	eb 1b		 jmp	 SHORT $LN1@leave_view
$LN44@leave_view:

; 794  : 		}
; 795  : 		////////////////////////////////////////
; 796  : 		case VIEW_MODE_VIRTUAL_COCKPIT_PILOT_RHS_DISPLAY:
; 797  : 		////////////////////////////////////////
; 798  : 		{
; 799  : 			break;

  000b0	eb 19		 jmp	 SHORT $LN1@leave_view
$LN45@leave_view:

; 800  : 		}
; 801  : 		////////////////////////////////////////
; 802  : 		case VIEW_MODE_VIRTUAL_COCKPIT_CO_PILOT_LHS_DISPLAY:
; 803  : 		////////////////////////////////////////
; 804  : 		{
; 805  : 			break;

  000b2	eb 17		 jmp	 SHORT $LN1@leave_view
$LN46@leave_view:

; 806  : 		}
; 807  : 		////////////////////////////////////////
; 808  : 		case VIEW_MODE_VIRTUAL_COCKPIT_CO_PILOT_RHS_DISPLAY:
; 809  : 		////////////////////////////////////////
; 810  : 		{
; 811  : 			break;

  000b4	eb 15		 jmp	 SHORT $LN1@leave_view
$LN47@leave_view:

; 812  : 		}
; 813  : 		////////////////////////////////////////
; 814  : 		case VIEW_MODE_EXTERNAL:
; 815  : 		////////////////////////////////////////
; 816  : 		{
; 817  : 			break;

  000b6	eb 13		 jmp	 SHORT $LN1@leave_view
$LN48@leave_view:

; 818  : 		}
; 819  : 		////////////////////////////////////////
; 820  : 		case VIEW_MODE_SAFE:
; 821  : 		////////////////////////////////////////
; 822  : 		{
; 823  : 			break;

  000b8	eb 11		 jmp	 SHORT $LN1@leave_view
$LN49@leave_view:

; 824  : 		}
; 825  : 		////////////////////////////////////////
; 826  : 		default:
; 827  : 		////////////////////////////////////////
; 828  : 		{
; 829  : 			debug_fatal ("Invalid view mode = %d", mode);

  000ba	8b 45 08	 mov	 eax, DWORD PTR _mode$[ebp]
  000bd	50		 push	 eax
  000be	68 00 00 00 00	 push	 OFFSET ??_C@_0BH@KFJLEDAI@Invalid?5view?5mode?5?$DN?5?$CFd@
  000c3	e8 00 00 00 00	 call	 ?debug_fatal@@YAXPBDZZ	; debug_fatal
  000c8	83 c4 08	 add	 esp, 8
$LN1@leave_view:

; 830  : 
; 831  : 			break;
; 832  : 		}
; 833  : 	}
; 834  : }

  000cb	5f		 pop	 edi
  000cc	5e		 pop	 esi
  000cd	5b		 pop	 ebx
  000ce	8b e5		 mov	 esp, ebp
  000d0	5d		 pop	 ebp
  000d1	c2 04 00	 ret	 4
$LN51@leave_view:
  000d4	00 00 00 00	 DD	 $LN4@leave_view
  000d8	00 00 00 00	 DD	 $LN5@leave_view
  000dc	00 00 00 00	 DD	 $LN6@leave_view
  000e0	00 00 00 00	 DD	 $LN7@leave_view
  000e4	00 00 00 00	 DD	 $LN8@leave_view
  000e8	00 00 00 00	 DD	 $LN9@leave_view
  000ec	00 00 00 00	 DD	 $LN10@leave_view
  000f0	00 00 00 00	 DD	 $LN11@leave_view
  000f4	00 00 00 00	 DD	 $LN12@leave_view
  000f8	00 00 00 00	 DD	 $LN13@leave_view
  000fc	00 00 00 00	 DD	 $LN14@leave_view
  00100	00 00 00 00	 DD	 $LN15@leave_view
  00104	00 00 00 00	 DD	 $LN16@leave_view
  00108	00 00 00 00	 DD	 $LN17@leave_view
  0010c	00 00 00 00	 DD	 $LN18@leave_view
  00110	00 00 00 00	 DD	 $LN19@leave_view
  00114	00 00 00 00	 DD	 $LN20@leave_view
  00118	00 00 00 00	 DD	 $LN21@leave_view
  0011c	00 00 00 00	 DD	 $LN22@leave_view
  00120	00 00 00 00	 DD	 $LN23@leave_view
  00124	00 00 00 00	 DD	 $LN24@leave_view
  00128	00 00 00 00	 DD	 $LN25@leave_view
  0012c	00 00 00 00	 DD	 $LN26@leave_view
  00130	00 00 00 00	 DD	 $LN27@leave_view
  00134	00 00 00 00	 DD	 $LN28@leave_view
  00138	00 00 00 00	 DD	 $LN29@leave_view
  0013c	00 00 00 00	 DD	 $LN30@leave_view
  00140	00 00 00 00	 DD	 $LN31@leave_view
  00144	00 00 00 00	 DD	 $LN32@leave_view
  00148	00 00 00 00	 DD	 $LN33@leave_view
  0014c	00 00 00 00	 DD	 $LN34@leave_view
  00150	00 00 00 00	 DD	 $LN35@leave_view
  00154	00 00 00 00	 DD	 $LN36@leave_view
  00158	00 00 00 00	 DD	 $LN37@leave_view
  0015c	00 00 00 00	 DD	 $LN38@leave_view
  00160	00 00 00 00	 DD	 $LN39@leave_view
  00164	00 00 00 00	 DD	 $LN40@leave_view
  00168	00 00 00 00	 DD	 $LN41@leave_view
  0016c	00 00 00 00	 DD	 $LN43@leave_view
  00170	00 00 00 00	 DD	 $LN44@leave_view
  00174	00 00 00 00	 DD	 $LN45@leave_view
  00178	00 00 00 00	 DD	 $LN46@leave_view
  0017c	00 00 00 00	 DD	 $LN47@leave_view
  00180	00 00 00 00	 DD	 $LN48@leave_view
?leave_view_mode@@YGXW4VIEW_MODES@@@Z ENDP		; leave_view_mode
_TEXT	ENDS
; Function compile flags: /Odtp /ZI
; File c:\users\nhv90\projects\eech\aphavoc\source\gunships\views\vm_main.c
;	COMDAT ?view_mode_available@@YGHW4VIEW_MODES@@@Z
_TEXT	SEGMENT
tv927 = -88						; size = 4
tv920 = -84						; size = 4
tv1121 = -80						; size = 4
tv1098 = -80						; size = 4
tv1075 = -80						; size = 4
tv1052 = -80						; size = 4
tv1029 = -80						; size = 4
tv954 = -80						; size = 4
tv912 = -80						; size = 4
tv883 = -80						; size = 4
tv860 = -80						; size = 4
tv837 = -80						; size = 4
tv814 = -80						; size = 4
tv791 = -80						; size = 4
tv768 = -80						; size = 4
tv745 = -80						; size = 4
tv722 = -80						; size = 4
tv699 = -80						; size = 4
tv676 = -80						; size = 4
tv653 = -80						; size = 4
tv630 = -80						; size = 4
tv607 = -80						; size = 4
tv584 = -80						; size = 4
tv561 = -80						; size = 4
tv538 = -80						; size = 4
tv515 = -80						; size = 4
tv492 = -80						; size = 4
tv469 = -80						; size = 4
tv446 = -80						; size = 4
tv423 = -80						; size = 4
tv400 = -80						; size = 4
tv377 = -80						; size = 4
tv354 = -80						; size = 4
tv331 = -80						; size = 4
tv308 = -80						; size = 4
tv285 = -80						; size = 4
tv262 = -80						; size = 4
tv239 = -80						; size = 4
tv216 = -80						; size = 4
tv193 = -80						; size = 4
tv170 = -80						; size = 4
tv147 = -80						; size = 4
tv92 = -80						; size = 4
tv1114 = -76						; size = 4
tv1090 = -76						; size = 4
tv1067 = -76						; size = 4
tv1044 = -76						; size = 4
tv1021 = -76						; size = 4
tv993 = -76						; size = 4
tv968 = -76						; size = 4
tv947 = -76						; size = 4
tv898 = -76						; size = 4
tv875 = -76						; size = 4
tv852 = -76						; size = 4
tv829 = -76						; size = 4
tv806 = -76						; size = 4
tv783 = -76						; size = 4
tv760 = -76						; size = 4
tv737 = -76						; size = 4
tv714 = -76						; size = 4
tv691 = -76						; size = 4
tv668 = -76						; size = 4
tv645 = -76						; size = 4
tv622 = -76						; size = 4
tv599 = -76						; size = 4
tv576 = -76						; size = 4
tv553 = -76						; size = 4
tv530 = -76						; size = 4
tv507 = -76						; size = 4
tv484 = -76						; size = 4
tv461 = -76						; size = 4
tv438 = -76						; size = 4
tv415 = -76						; size = 4
tv392 = -76						; size = 4
tv369 = -76						; size = 4
tv346 = -76						; size = 4
tv323 = -76						; size = 4
tv300 = -76						; size = 4
tv277 = -76						; size = 4
tv254 = -76						; size = 4
tv231 = -76						; size = 4
tv208 = -76						; size = 4
tv185 = -76						; size = 4
tv162 = -76						; size = 4
tv139 = -76						; size = 4
tv84 = -76						; size = 4
tv1106 = -72						; size = 4
tv1082 = -72						; size = 4
tv1059 = -72						; size = 4
tv1036 = -72						; size = 4
tv1013 = -72						; size = 4
tv986 = -72						; size = 4
tv975 = -72						; size = 4
tv961 = -72						; size = 4
tv939 = -72						; size = 4
tv890 = -72						; size = 4
tv867 = -72						; size = 4
tv844 = -72						; size = 4
tv821 = -72						; size = 4
tv798 = -72						; size = 4
tv775 = -72						; size = 4
tv752 = -72						; size = 4
tv729 = -72						; size = 4
tv706 = -72						; size = 4
tv683 = -72						; size = 4
tv660 = -72						; size = 4
tv637 = -72						; size = 4
tv614 = -72						; size = 4
tv591 = -72						; size = 4
tv568 = -72						; size = 4
tv545 = -72						; size = 4
tv522 = -72						; size = 4
tv499 = -72						; size = 4
tv476 = -72						; size = 4
tv453 = -72						; size = 4
tv430 = -72						; size = 4
tv407 = -72						; size = 4
tv384 = -72						; size = 4
tv361 = -72						; size = 4
tv338 = -72						; size = 4
tv315 = -72						; size = 4
tv292 = -72						; size = 4
tv269 = -72						; size = 4
tv246 = -72						; size = 4
tv223 = -72						; size = 4
tv200 = -72						; size = 4
tv177 = -72						; size = 4
tv154 = -72						; size = 4
tv131 = -72						; size = 4
tv76 = -72						; size = 4
tv69 = -72						; size = 4
_available$ = -4					; size = 4
_mode$ = 8						; size = 4
?view_mode_available@@YGHW4VIEW_MODES@@@Z PROC		; view_mode_available, COMDAT

; 120  : {

  00000	55		 push	 ebp
  00001	8b ec		 mov	 ebp, esp
  00003	83 ec 58	 sub	 esp, 88			; 00000058H
  00006	53		 push	 ebx
  00007	56		 push	 esi
  00008	57		 push	 edi

; 121  : 	int
; 122  : 		available;
; 123  : 
; 124  : 	if (get_time_acceleration () == 0)

  00009	e8 00 00 00 00	 call	 ?get_time_acceleration@@YGHXZ ; get_time_acceleration
  0000e	85 c0		 test	 eax, eax
  00010	75 14		 jne	 SHORT $LN6@view_mode_

; 125  : 	{
; 126  : 		if (in_cockpit_flags[mode])

  00012	8b 45 08	 mov	 eax, DWORD PTR _mode$[ebp]
  00015	83 3c 85 00 00
	00 00 00	 cmp	 DWORD PTR ?in_cockpit_flags@@3PAHA[eax*4], 0
  0001d	74 07		 je	 SHORT $LN6@view_mode_

; 127  : 		{
; 128  : 			return (FALSE);

  0001f	33 c0		 xor	 eax, eax
  00021	e9 81 1f 00 00	 jmp	 $LN1@view_mode_
$LN6@view_mode_:

; 129  : 		}
; 130  : 	}
; 131  : 
; 132  : 	switch (mode)

  00026	8b 45 08	 mov	 eax, DWORD PTR _mode$[ebp]
  00029	89 45 b8	 mov	 DWORD PTR tv69[ebp], eax
  0002c	83 7d b8 2b	 cmp	 DWORD PTR tv69[ebp], 43	; 0000002bH
  00030	0f 87 5d 1f 00
	00		 ja	 $LN66@view_mode_
  00036	8b 4d b8	 mov	 ecx, DWORD PTR tv69[ebp]
  00039	ff 24 8d 00 00
	00 00		 jmp	 DWORD PTR $LN326@view_mode_[ecx*4]
$LN8@view_mode_:

; 133  : 	{
; 134  : 		////////////////////////////////////////
; 135  : 		case VIEW_MODE_COCKPIT_PANEL_UP40_LEFT90:
; 136  : 		////////////////////////////////////////
; 137  : 		{
; 138  : 			available = get_gunship_entity () && get_local_entity_int_value (get_gunship_entity (), INT_TYPE_ALIVE);

  00040	83 3d 00 00 00
	00 00		 cmp	 DWORD PTR ?gunship_entity@@3PAUENTITY@@A, 0 ; gunship_entity
  00047	0f 84 92 00 00
	00		 je	 $LN72@view_mode_
  0004d	83 3d 00 00 00
	00 00		 cmp	 DWORD PTR ?gunship_entity@@3PAUENTITY@@A, 0 ; gunship_entity
  00054	74 0c		 je	 SHORT $LN68@view_mode_
  00056	a1 00 00 00 00	 mov	 eax, DWORD PTR ?gunship_entity@@3PAUENTITY@@A ; gunship_entity
  0005b	8b 08		 mov	 ecx, DWORD PTR [eax]
  0005d	89 4d b8	 mov	 DWORD PTR tv76[ebp], ecx
  00060	eb 21		 jmp	 SHORT $LN69@view_mode_
$LN68@view_mode_:
  00062	8b 15 00 00 00
	00		 mov	 edx, DWORD PTR ?__LINE__Var@?0??view_mode_available@@YGHW4VIEW_MODES@@@Z@4JA
  00068	83 c2 12	 add	 edx, 18			; 00000012H
  0006b	52		 push	 edx
  0006c	68 00 00 00 00	 push	 OFFSET ??_C@_0EF@LBJPOBFB@c?3?2users?2nhv90?2projects?2eech?2ap@
  00071	a1 00 00 00 00	 mov	 eax, DWORD PTR ?null_entity_pointer_message@@3PBDB ; null_entity_pointer_message
  00076	50		 push	 eax
  00077	e8 00 00 00 00	 call	 ?process_assert@@YGXPBD0H@Z ; process_assert
  0007c	c7 45 b8 00 00
	00 00		 mov	 DWORD PTR tv76[ebp], 0
$LN69@view_mode_:
  00083	b9 01 00 00 00	 mov	 ecx, 1
  00088	85 c9		 test	 ecx, ecx
  0008a	74 09		 je	 SHORT $LN70@view_mode_
  0008c	c7 45 b4 07 00
	00 00		 mov	 DWORD PTR tv84[ebp], 7
  00093	eb 21		 jmp	 SHORT $LN71@view_mode_
$LN70@view_mode_:
  00095	8b 15 00 00 00
	00		 mov	 edx, DWORD PTR ?__LINE__Var@?0??view_mode_available@@YGHW4VIEW_MODES@@@Z@4JA
  0009b	83 c2 12	 add	 edx, 18			; 00000012H
  0009e	52		 push	 edx
  0009f	68 00 00 00 00	 push	 OFFSET ??_C@_0EF@LBJPOBFB@c?3?2users?2nhv90?2projects?2eech?2ap@
  000a4	a1 00 00 00 00	 mov	 eax, DWORD PTR ?overload_invalid_int_type_message@@3PBDB ; overload_invalid_int_type_message
  000a9	50		 push	 eax
  000aa	e8 00 00 00 00	 call	 ?process_assert@@YGXPBD0H@Z ; process_assert
  000af	c7 45 b4 00 00
	00 00		 mov	 DWORD PTR tv84[ebp], 0
$LN71@view_mode_:
  000b6	6a 07		 push	 7
  000b8	8b 0d 00 00 00
	00		 mov	 ecx, DWORD PTR ?gunship_entity@@3PAUENTITY@@A ; gunship_entity
  000be	51		 push	 ecx
  000bf	69 55 b8 5c 04
	00 00		 imul	 edx, DWORD PTR tv76[ebp], 1116
  000c6	8b 45 b4	 mov	 eax, DWORD PTR tv84[ebp]
  000c9	8b 8c 82 00 00
	00 00		 mov	 ecx, DWORD PTR ?fn_get_local_entity_int_value@@3PAY0BBH@P6GHPAUENTITY@@W4INT_TYPES@@@ZA[edx+eax*4]
  000d0	ff d1		 call	 ecx
  000d2	85 c0		 test	 eax, eax
  000d4	74 09		 je	 SHORT $LN72@view_mode_
  000d6	c7 45 b0 01 00
	00 00		 mov	 DWORD PTR tv92[ebp], 1
  000dd	eb 07		 jmp	 SHORT $LN73@view_mode_
$LN72@view_mode_:
  000df	c7 45 b0 00 00
	00 00		 mov	 DWORD PTR tv92[ebp], 0
$LN73@view_mode_:
  000e6	8b 55 b0	 mov	 edx, DWORD PTR tv92[ebp]
  000e9	89 55 fc	 mov	 DWORD PTR _available$[ebp], edx

; 139  : 
; 140  : 			break;

  000ec	e9 b3 1e 00 00	 jmp	 $LN2@view_mode_
$LN9@view_mode_:

; 141  : 		}
; 142  : 		////////////////////////////////////////
; 143  : 		case VIEW_MODE_COCKPIT_PANEL_UP40_LEFT60:
; 144  : 		////////////////////////////////////////
; 145  : 		{
; 146  : 			available = get_gunship_entity () && get_local_entity_int_value (get_gunship_entity (), INT_TYPE_ALIVE);

  000f1	83 3d 00 00 00
	00 00		 cmp	 DWORD PTR ?gunship_entity@@3PAUENTITY@@A, 0 ; gunship_entity
  000f8	0f 84 92 00 00
	00		 je	 $LN78@view_mode_
  000fe	83 3d 00 00 00
	00 00		 cmp	 DWORD PTR ?gunship_entity@@3PAUENTITY@@A, 0 ; gunship_entity
  00105	74 0c		 je	 SHORT $LN74@view_mode_
  00107	a1 00 00 00 00	 mov	 eax, DWORD PTR ?gunship_entity@@3PAUENTITY@@A ; gunship_entity
  0010c	8b 08		 mov	 ecx, DWORD PTR [eax]
  0010e	89 4d b8	 mov	 DWORD PTR tv131[ebp], ecx
  00111	eb 21		 jmp	 SHORT $LN75@view_mode_
$LN74@view_mode_:
  00113	8b 15 00 00 00
	00		 mov	 edx, DWORD PTR ?__LINE__Var@?0??view_mode_available@@YGHW4VIEW_MODES@@@Z@4JA
  00119	83 c2 1a	 add	 edx, 26			; 0000001aH
  0011c	52		 push	 edx
  0011d	68 00 00 00 00	 push	 OFFSET ??_C@_0EF@LBJPOBFB@c?3?2users?2nhv90?2projects?2eech?2ap@
  00122	a1 00 00 00 00	 mov	 eax, DWORD PTR ?null_entity_pointer_message@@3PBDB ; null_entity_pointer_message
  00127	50		 push	 eax
  00128	e8 00 00 00 00	 call	 ?process_assert@@YGXPBD0H@Z ; process_assert
  0012d	c7 45 b8 00 00
	00 00		 mov	 DWORD PTR tv131[ebp], 0
$LN75@view_mode_:
  00134	b9 01 00 00 00	 mov	 ecx, 1
  00139	85 c9		 test	 ecx, ecx
  0013b	74 09		 je	 SHORT $LN76@view_mode_
  0013d	c7 45 b4 07 00
	00 00		 mov	 DWORD PTR tv139[ebp], 7
  00144	eb 21		 jmp	 SHORT $LN77@view_mode_
$LN76@view_mode_:
  00146	8b 15 00 00 00
	00		 mov	 edx, DWORD PTR ?__LINE__Var@?0??view_mode_available@@YGHW4VIEW_MODES@@@Z@4JA
  0014c	83 c2 1a	 add	 edx, 26			; 0000001aH
  0014f	52		 push	 edx
  00150	68 00 00 00 00	 push	 OFFSET ??_C@_0EF@LBJPOBFB@c?3?2users?2nhv90?2projects?2eech?2ap@
  00155	a1 00 00 00 00	 mov	 eax, DWORD PTR ?overload_invalid_int_type_message@@3PBDB ; overload_invalid_int_type_message
  0015a	50		 push	 eax
  0015b	e8 00 00 00 00	 call	 ?process_assert@@YGXPBD0H@Z ; process_assert
  00160	c7 45 b4 00 00
	00 00		 mov	 DWORD PTR tv139[ebp], 0
$LN77@view_mode_:
  00167	6a 07		 push	 7
  00169	8b 0d 00 00 00
	00		 mov	 ecx, DWORD PTR ?gunship_entity@@3PAUENTITY@@A ; gunship_entity
  0016f	51		 push	 ecx
  00170	69 55 b8 5c 04
	00 00		 imul	 edx, DWORD PTR tv131[ebp], 1116
  00177	8b 45 b4	 mov	 eax, DWORD PTR tv139[ebp]
  0017a	8b 8c 82 00 00
	00 00		 mov	 ecx, DWORD PTR ?fn_get_local_entity_int_value@@3PAY0BBH@P6GHPAUENTITY@@W4INT_TYPES@@@ZA[edx+eax*4]
  00181	ff d1		 call	 ecx
  00183	85 c0		 test	 eax, eax
  00185	74 09		 je	 SHORT $LN78@view_mode_
  00187	c7 45 b0 01 00
	00 00		 mov	 DWORD PTR tv147[ebp], 1
  0018e	eb 07		 jmp	 SHORT $LN79@view_mode_
$LN78@view_mode_:
  00190	c7 45 b0 00 00
	00 00		 mov	 DWORD PTR tv147[ebp], 0
$LN79@view_mode_:
  00197	8b 55 b0	 mov	 edx, DWORD PTR tv147[ebp]
  0019a	89 55 fc	 mov	 DWORD PTR _available$[ebp], edx

; 147  : 
; 148  : 			break;

  0019d	e9 02 1e 00 00	 jmp	 $LN2@view_mode_
$LN10@view_mode_:

; 149  : 		}
; 150  : 		////////////////////////////////////////
; 151  : 		case VIEW_MODE_COCKPIT_PANEL_UP40_LEFT30:
; 152  : 		////////////////////////////////////////
; 153  : 		{
; 154  : 			available = get_gunship_entity () && get_local_entity_int_value (get_gunship_entity (), INT_TYPE_ALIVE);

  001a2	83 3d 00 00 00
	00 00		 cmp	 DWORD PTR ?gunship_entity@@3PAUENTITY@@A, 0 ; gunship_entity
  001a9	0f 84 92 00 00
	00		 je	 $LN84@view_mode_
  001af	83 3d 00 00 00
	00 00		 cmp	 DWORD PTR ?gunship_entity@@3PAUENTITY@@A, 0 ; gunship_entity
  001b6	74 0c		 je	 SHORT $LN80@view_mode_
  001b8	a1 00 00 00 00	 mov	 eax, DWORD PTR ?gunship_entity@@3PAUENTITY@@A ; gunship_entity
  001bd	8b 08		 mov	 ecx, DWORD PTR [eax]
  001bf	89 4d b8	 mov	 DWORD PTR tv154[ebp], ecx
  001c2	eb 21		 jmp	 SHORT $LN81@view_mode_
$LN80@view_mode_:
  001c4	8b 15 00 00 00
	00		 mov	 edx, DWORD PTR ?__LINE__Var@?0??view_mode_available@@YGHW4VIEW_MODES@@@Z@4JA
  001ca	83 c2 22	 add	 edx, 34			; 00000022H
  001cd	52		 push	 edx
  001ce	68 00 00 00 00	 push	 OFFSET ??_C@_0EF@LBJPOBFB@c?3?2users?2nhv90?2projects?2eech?2ap@
  001d3	a1 00 00 00 00	 mov	 eax, DWORD PTR ?null_entity_pointer_message@@3PBDB ; null_entity_pointer_message
  001d8	50		 push	 eax
  001d9	e8 00 00 00 00	 call	 ?process_assert@@YGXPBD0H@Z ; process_assert
  001de	c7 45 b8 00 00
	00 00		 mov	 DWORD PTR tv154[ebp], 0
$LN81@view_mode_:
  001e5	b9 01 00 00 00	 mov	 ecx, 1
  001ea	85 c9		 test	 ecx, ecx
  001ec	74 09		 je	 SHORT $LN82@view_mode_
  001ee	c7 45 b4 07 00
	00 00		 mov	 DWORD PTR tv162[ebp], 7
  001f5	eb 21		 jmp	 SHORT $LN83@view_mode_
$LN82@view_mode_:
  001f7	8b 15 00 00 00
	00		 mov	 edx, DWORD PTR ?__LINE__Var@?0??view_mode_available@@YGHW4VIEW_MODES@@@Z@4JA
  001fd	83 c2 22	 add	 edx, 34			; 00000022H
  00200	52		 push	 edx
  00201	68 00 00 00 00	 push	 OFFSET ??_C@_0EF@LBJPOBFB@c?3?2users?2nhv90?2projects?2eech?2ap@
  00206	a1 00 00 00 00	 mov	 eax, DWORD PTR ?overload_invalid_int_type_message@@3PBDB ; overload_invalid_int_type_message
  0020b	50		 push	 eax
  0020c	e8 00 00 00 00	 call	 ?process_assert@@YGXPBD0H@Z ; process_assert
  00211	c7 45 b4 00 00
	00 00		 mov	 DWORD PTR tv162[ebp], 0
$LN83@view_mode_:
  00218	6a 07		 push	 7
  0021a	8b 0d 00 00 00
	00		 mov	 ecx, DWORD PTR ?gunship_entity@@3PAUENTITY@@A ; gunship_entity
  00220	51		 push	 ecx
  00221	69 55 b8 5c 04
	00 00		 imul	 edx, DWORD PTR tv154[ebp], 1116
  00228	8b 45 b4	 mov	 eax, DWORD PTR tv162[ebp]
  0022b	8b 8c 82 00 00
	00 00		 mov	 ecx, DWORD PTR ?fn_get_local_entity_int_value@@3PAY0BBH@P6GHPAUENTITY@@W4INT_TYPES@@@ZA[edx+eax*4]
  00232	ff d1		 call	 ecx
  00234	85 c0		 test	 eax, eax
  00236	74 09		 je	 SHORT $LN84@view_mode_
  00238	c7 45 b0 01 00
	00 00		 mov	 DWORD PTR tv170[ebp], 1
  0023f	eb 07		 jmp	 SHORT $LN85@view_mode_
$LN84@view_mode_:
  00241	c7 45 b0 00 00
	00 00		 mov	 DWORD PTR tv170[ebp], 0
$LN85@view_mode_:
  00248	8b 55 b0	 mov	 edx, DWORD PTR tv170[ebp]
  0024b	89 55 fc	 mov	 DWORD PTR _available$[ebp], edx

; 155  : 
; 156  : 			break;

  0024e	e9 51 1d 00 00	 jmp	 $LN2@view_mode_
$LN11@view_mode_:

; 157  : 		}
; 158  : 		////////////////////////////////////////
; 159  : 		case VIEW_MODE_COCKPIT_PANEL_UP40_AHEAD:
; 160  : 		////////////////////////////////////////
; 161  : 		{
; 162  : 			available = get_gunship_entity () && get_local_entity_int_value (get_gunship_entity (), INT_TYPE_ALIVE);

  00253	83 3d 00 00 00
	00 00		 cmp	 DWORD PTR ?gunship_entity@@3PAUENTITY@@A, 0 ; gunship_entity
  0025a	0f 84 92 00 00
	00		 je	 $LN90@view_mode_
  00260	83 3d 00 00 00
	00 00		 cmp	 DWORD PTR ?gunship_entity@@3PAUENTITY@@A, 0 ; gunship_entity
  00267	74 0c		 je	 SHORT $LN86@view_mode_
  00269	a1 00 00 00 00	 mov	 eax, DWORD PTR ?gunship_entity@@3PAUENTITY@@A ; gunship_entity
  0026e	8b 08		 mov	 ecx, DWORD PTR [eax]
  00270	89 4d b8	 mov	 DWORD PTR tv177[ebp], ecx
  00273	eb 21		 jmp	 SHORT $LN87@view_mode_
$LN86@view_mode_:
  00275	8b 15 00 00 00
	00		 mov	 edx, DWORD PTR ?__LINE__Var@?0??view_mode_available@@YGHW4VIEW_MODES@@@Z@4JA
  0027b	83 c2 2a	 add	 edx, 42			; 0000002aH
  0027e	52		 push	 edx
  0027f	68 00 00 00 00	 push	 OFFSET ??_C@_0EF@LBJPOBFB@c?3?2users?2nhv90?2projects?2eech?2ap@
  00284	a1 00 00 00 00	 mov	 eax, DWORD PTR ?null_entity_pointer_message@@3PBDB ; null_entity_pointer_message
  00289	50		 push	 eax
  0028a	e8 00 00 00 00	 call	 ?process_assert@@YGXPBD0H@Z ; process_assert
  0028f	c7 45 b8 00 00
	00 00		 mov	 DWORD PTR tv177[ebp], 0
$LN87@view_mode_:
  00296	b9 01 00 00 00	 mov	 ecx, 1
  0029b	85 c9		 test	 ecx, ecx
  0029d	74 09		 je	 SHORT $LN88@view_mode_
  0029f	c7 45 b4 07 00
	00 00		 mov	 DWORD PTR tv185[ebp], 7
  002a6	eb 21		 jmp	 SHORT $LN89@view_mode_
$LN88@view_mode_:
  002a8	8b 15 00 00 00
	00		 mov	 edx, DWORD PTR ?__LINE__Var@?0??view_mode_available@@YGHW4VIEW_MODES@@@Z@4JA
  002ae	83 c2 2a	 add	 edx, 42			; 0000002aH
  002b1	52		 push	 edx
  002b2	68 00 00 00 00	 push	 OFFSET ??_C@_0EF@LBJPOBFB@c?3?2users?2nhv90?2projects?2eech?2ap@
  002b7	a1 00 00 00 00	 mov	 eax, DWORD PTR ?overload_invalid_int_type_message@@3PBDB ; overload_invalid_int_type_message
  002bc	50		 push	 eax
  002bd	e8 00 00 00 00	 call	 ?process_assert@@YGXPBD0H@Z ; process_assert
  002c2	c7 45 b4 00 00
	00 00		 mov	 DWORD PTR tv185[ebp], 0
$LN89@view_mode_:
  002c9	6a 07		 push	 7
  002cb	8b 0d 00 00 00
	00		 mov	 ecx, DWORD PTR ?gunship_entity@@3PAUENTITY@@A ; gunship_entity
  002d1	51		 push	 ecx
  002d2	69 55 b8 5c 04
	00 00		 imul	 edx, DWORD PTR tv177[ebp], 1116
  002d9	8b 45 b4	 mov	 eax, DWORD PTR tv185[ebp]
  002dc	8b 8c 82 00 00
	00 00		 mov	 ecx, DWORD PTR ?fn_get_local_entity_int_value@@3PAY0BBH@P6GHPAUENTITY@@W4INT_TYPES@@@ZA[edx+eax*4]
  002e3	ff d1		 call	 ecx
  002e5	85 c0		 test	 eax, eax
  002e7	74 09		 je	 SHORT $LN90@view_mode_
  002e9	c7 45 b0 01 00
	00 00		 mov	 DWORD PTR tv193[ebp], 1
  002f0	eb 07		 jmp	 SHORT $LN91@view_mode_
$LN90@view_mode_:
  002f2	c7 45 b0 00 00
	00 00		 mov	 DWORD PTR tv193[ebp], 0
$LN91@view_mode_:
  002f9	8b 55 b0	 mov	 edx, DWORD PTR tv193[ebp]
  002fc	89 55 fc	 mov	 DWORD PTR _available$[ebp], edx

; 163  : 
; 164  : 			break;

  002ff	e9 a0 1c 00 00	 jmp	 $LN2@view_mode_
$LN12@view_mode_:

; 165  : 		}
; 166  : 		////////////////////////////////////////
; 167  : 		case VIEW_MODE_COCKPIT_PANEL_UP40_RIGHT30:
; 168  : 		////////////////////////////////////////
; 169  : 		{
; 170  : 			available = get_gunship_entity () && get_local_entity_int_value (get_gunship_entity (), INT_TYPE_ALIVE);

  00304	83 3d 00 00 00
	00 00		 cmp	 DWORD PTR ?gunship_entity@@3PAUENTITY@@A, 0 ; gunship_entity
  0030b	0f 84 92 00 00
	00		 je	 $LN96@view_mode_
  00311	83 3d 00 00 00
	00 00		 cmp	 DWORD PTR ?gunship_entity@@3PAUENTITY@@A, 0 ; gunship_entity
  00318	74 0c		 je	 SHORT $LN92@view_mode_
  0031a	a1 00 00 00 00	 mov	 eax, DWORD PTR ?gunship_entity@@3PAUENTITY@@A ; gunship_entity
  0031f	8b 08		 mov	 ecx, DWORD PTR [eax]
  00321	89 4d b8	 mov	 DWORD PTR tv200[ebp], ecx
  00324	eb 21		 jmp	 SHORT $LN93@view_mode_
$LN92@view_mode_:
  00326	8b 15 00 00 00
	00		 mov	 edx, DWORD PTR ?__LINE__Var@?0??view_mode_available@@YGHW4VIEW_MODES@@@Z@4JA
  0032c	83 c2 32	 add	 edx, 50			; 00000032H
  0032f	52		 push	 edx
  00330	68 00 00 00 00	 push	 OFFSET ??_C@_0EF@LBJPOBFB@c?3?2users?2nhv90?2projects?2eech?2ap@
  00335	a1 00 00 00 00	 mov	 eax, DWORD PTR ?null_entity_pointer_message@@3PBDB ; null_entity_pointer_message
  0033a	50		 push	 eax
  0033b	e8 00 00 00 00	 call	 ?process_assert@@YGXPBD0H@Z ; process_assert
  00340	c7 45 b8 00 00
	00 00		 mov	 DWORD PTR tv200[ebp], 0
$LN93@view_mode_:
  00347	b9 01 00 00 00	 mov	 ecx, 1
  0034c	85 c9		 test	 ecx, ecx
  0034e	74 09		 je	 SHORT $LN94@view_mode_
  00350	c7 45 b4 07 00
	00 00		 mov	 DWORD PTR tv208[ebp], 7
  00357	eb 21		 jmp	 SHORT $LN95@view_mode_
$LN94@view_mode_:
  00359	8b 15 00 00 00
	00		 mov	 edx, DWORD PTR ?__LINE__Var@?0??view_mode_available@@YGHW4VIEW_MODES@@@Z@4JA
  0035f	83 c2 32	 add	 edx, 50			; 00000032H
  00362	52		 push	 edx
  00363	68 00 00 00 00	 push	 OFFSET ??_C@_0EF@LBJPOBFB@c?3?2users?2nhv90?2projects?2eech?2ap@
  00368	a1 00 00 00 00	 mov	 eax, DWORD PTR ?overload_invalid_int_type_message@@3PBDB ; overload_invalid_int_type_message
  0036d	50		 push	 eax
  0036e	e8 00 00 00 00	 call	 ?process_assert@@YGXPBD0H@Z ; process_assert
  00373	c7 45 b4 00 00
	00 00		 mov	 DWORD PTR tv208[ebp], 0
$LN95@view_mode_:
  0037a	6a 07		 push	 7
  0037c	8b 0d 00 00 00
	00		 mov	 ecx, DWORD PTR ?gunship_entity@@3PAUENTITY@@A ; gunship_entity
  00382	51		 push	 ecx
  00383	69 55 b8 5c 04
	00 00		 imul	 edx, DWORD PTR tv200[ebp], 1116
  0038a	8b 45 b4	 mov	 eax, DWORD PTR tv208[ebp]
  0038d	8b 8c 82 00 00
	00 00		 mov	 ecx, DWORD PTR ?fn_get_local_entity_int_value@@3PAY0BBH@P6GHPAUENTITY@@W4INT_TYPES@@@ZA[edx+eax*4]
  00394	ff d1		 call	 ecx
  00396	85 c0		 test	 eax, eax
  00398	74 09		 je	 SHORT $LN96@view_mode_
  0039a	c7 45 b0 01 00
	00 00		 mov	 DWORD PTR tv216[ebp], 1
  003a1	eb 07		 jmp	 SHORT $LN97@view_mode_
$LN96@view_mode_:
  003a3	c7 45 b0 00 00
	00 00		 mov	 DWORD PTR tv216[ebp], 0
$LN97@view_mode_:
  003aa	8b 55 b0	 mov	 edx, DWORD PTR tv216[ebp]
  003ad	89 55 fc	 mov	 DWORD PTR _available$[ebp], edx

; 171  : 
; 172  : 			break;

  003b0	e9 ef 1b 00 00	 jmp	 $LN2@view_mode_
$LN13@view_mode_:

; 173  : 		}
; 174  : 		////////////////////////////////////////
; 175  : 		case VIEW_MODE_COCKPIT_PANEL_UP40_RIGHT60:
; 176  : 		////////////////////////////////////////
; 177  : 		{
; 178  : 			available = get_gunship_entity () && get_local_entity_int_value (get_gunship_entity (), INT_TYPE_ALIVE);

  003b5	83 3d 00 00 00
	00 00		 cmp	 DWORD PTR ?gunship_entity@@3PAUENTITY@@A, 0 ; gunship_entity
  003bc	0f 84 92 00 00
	00		 je	 $LN102@view_mode_
  003c2	83 3d 00 00 00
	00 00		 cmp	 DWORD PTR ?gunship_entity@@3PAUENTITY@@A, 0 ; gunship_entity
  003c9	74 0c		 je	 SHORT $LN98@view_mode_
  003cb	a1 00 00 00 00	 mov	 eax, DWORD PTR ?gunship_entity@@3PAUENTITY@@A ; gunship_entity
  003d0	8b 08		 mov	 ecx, DWORD PTR [eax]
  003d2	89 4d b8	 mov	 DWORD PTR tv223[ebp], ecx
  003d5	eb 21		 jmp	 SHORT $LN99@view_mode_
$LN98@view_mode_:
  003d7	8b 15 00 00 00
	00		 mov	 edx, DWORD PTR ?__LINE__Var@?0??view_mode_available@@YGHW4VIEW_MODES@@@Z@4JA
  003dd	83 c2 3a	 add	 edx, 58			; 0000003aH
  003e0	52		 push	 edx
  003e1	68 00 00 00 00	 push	 OFFSET ??_C@_0EF@LBJPOBFB@c?3?2users?2nhv90?2projects?2eech?2ap@
  003e6	a1 00 00 00 00	 mov	 eax, DWORD PTR ?null_entity_pointer_message@@3PBDB ; null_entity_pointer_message
  003eb	50		 push	 eax
  003ec	e8 00 00 00 00	 call	 ?process_assert@@YGXPBD0H@Z ; process_assert
  003f1	c7 45 b8 00 00
	00 00		 mov	 DWORD PTR tv223[ebp], 0
$LN99@view_mode_:
  003f8	b9 01 00 00 00	 mov	 ecx, 1
  003fd	85 c9		 test	 ecx, ecx
  003ff	74 09		 je	 SHORT $LN100@view_mode_
  00401	c7 45 b4 07 00
	00 00		 mov	 DWORD PTR tv231[ebp], 7
  00408	eb 21		 jmp	 SHORT $LN101@view_mode_
$LN100@view_mode_:
  0040a	8b 15 00 00 00
	00		 mov	 edx, DWORD PTR ?__LINE__Var@?0??view_mode_available@@YGHW4VIEW_MODES@@@Z@4JA
  00410	83 c2 3a	 add	 edx, 58			; 0000003aH
  00413	52		 push	 edx
  00414	68 00 00 00 00	 push	 OFFSET ??_C@_0EF@LBJPOBFB@c?3?2users?2nhv90?2projects?2eech?2ap@
  00419	a1 00 00 00 00	 mov	 eax, DWORD PTR ?overload_invalid_int_type_message@@3PBDB ; overload_invalid_int_type_message
  0041e	50		 push	 eax
  0041f	e8 00 00 00 00	 call	 ?process_assert@@YGXPBD0H@Z ; process_assert
  00424	c7 45 b4 00 00
	00 00		 mov	 DWORD PTR tv231[ebp], 0
$LN101@view_mode_:
  0042b	6a 07		 push	 7
  0042d	8b 0d 00 00 00
	00		 mov	 ecx, DWORD PTR ?gunship_entity@@3PAUENTITY@@A ; gunship_entity
  00433	51		 push	 ecx
  00434	69 55 b8 5c 04
	00 00		 imul	 edx, DWORD PTR tv223[ebp], 1116
  0043b	8b 45 b4	 mov	 eax, DWORD PTR tv231[ebp]
  0043e	8b 8c 82 00 00
	00 00		 mov	 ecx, DWORD PTR ?fn_get_local_entity_int_value@@3PAY0BBH@P6GHPAUENTITY@@W4INT_TYPES@@@ZA[edx+eax*4]
  00445	ff d1		 call	 ecx
  00447	85 c0		 test	 eax, eax
  00449	74 09		 je	 SHORT $LN102@view_mode_
  0044b	c7 45 b0 01 00
	00 00		 mov	 DWORD PTR tv239[ebp], 1
  00452	eb 07		 jmp	 SHORT $LN103@view_mode_
$LN102@view_mode_:
  00454	c7 45 b0 00 00
	00 00		 mov	 DWORD PTR tv239[ebp], 0
$LN103@view_mode_:
  0045b	8b 55 b0	 mov	 edx, DWORD PTR tv239[ebp]
  0045e	89 55 fc	 mov	 DWORD PTR _available$[ebp], edx

; 179  : 
; 180  : 			break;

  00461	e9 3e 1b 00 00	 jmp	 $LN2@view_mode_
$LN14@view_mode_:

; 181  : 		}
; 182  : 		////////////////////////////////////////
; 183  : 		case VIEW_MODE_COCKPIT_PANEL_UP40_RIGHT90:
; 184  : 		////////////////////////////////////////
; 185  : 		{
; 186  : 			available = get_gunship_entity () && get_local_entity_int_value (get_gunship_entity (), INT_TYPE_ALIVE);

  00466	83 3d 00 00 00
	00 00		 cmp	 DWORD PTR ?gunship_entity@@3PAUENTITY@@A, 0 ; gunship_entity
  0046d	0f 84 92 00 00
	00		 je	 $LN108@view_mode_
  00473	83 3d 00 00 00
	00 00		 cmp	 DWORD PTR ?gunship_entity@@3PAUENTITY@@A, 0 ; gunship_entity
  0047a	74 0c		 je	 SHORT $LN104@view_mode_
  0047c	a1 00 00 00 00	 mov	 eax, DWORD PTR ?gunship_entity@@3PAUENTITY@@A ; gunship_entity
  00481	8b 08		 mov	 ecx, DWORD PTR [eax]
  00483	89 4d b8	 mov	 DWORD PTR tv246[ebp], ecx
  00486	eb 21		 jmp	 SHORT $LN105@view_mode_
$LN104@view_mode_:
  00488	8b 15 00 00 00
	00		 mov	 edx, DWORD PTR ?__LINE__Var@?0??view_mode_available@@YGHW4VIEW_MODES@@@Z@4JA
  0048e	83 c2 42	 add	 edx, 66			; 00000042H
  00491	52		 push	 edx
  00492	68 00 00 00 00	 push	 OFFSET ??_C@_0EF@LBJPOBFB@c?3?2users?2nhv90?2projects?2eech?2ap@
  00497	a1 00 00 00 00	 mov	 eax, DWORD PTR ?null_entity_pointer_message@@3PBDB ; null_entity_pointer_message
  0049c	50		 push	 eax
  0049d	e8 00 00 00 00	 call	 ?process_assert@@YGXPBD0H@Z ; process_assert
  004a2	c7 45 b8 00 00
	00 00		 mov	 DWORD PTR tv246[ebp], 0
$LN105@view_mode_:
  004a9	b9 01 00 00 00	 mov	 ecx, 1
  004ae	85 c9		 test	 ecx, ecx
  004b0	74 09		 je	 SHORT $LN106@view_mode_
  004b2	c7 45 b4 07 00
	00 00		 mov	 DWORD PTR tv254[ebp], 7
  004b9	eb 21		 jmp	 SHORT $LN107@view_mode_
$LN106@view_mode_:
  004bb	8b 15 00 00 00
	00		 mov	 edx, DWORD PTR ?__LINE__Var@?0??view_mode_available@@YGHW4VIEW_MODES@@@Z@4JA
  004c1	83 c2 42	 add	 edx, 66			; 00000042H
  004c4	52		 push	 edx
  004c5	68 00 00 00 00	 push	 OFFSET ??_C@_0EF@LBJPOBFB@c?3?2users?2nhv90?2projects?2eech?2ap@
  004ca	a1 00 00 00 00	 mov	 eax, DWORD PTR ?overload_invalid_int_type_message@@3PBDB ; overload_invalid_int_type_message
  004cf	50		 push	 eax
  004d0	e8 00 00 00 00	 call	 ?process_assert@@YGXPBD0H@Z ; process_assert
  004d5	c7 45 b4 00 00
	00 00		 mov	 DWORD PTR tv254[ebp], 0
$LN107@view_mode_:
  004dc	6a 07		 push	 7
  004de	8b 0d 00 00 00
	00		 mov	 ecx, DWORD PTR ?gunship_entity@@3PAUENTITY@@A ; gunship_entity
  004e4	51		 push	 ecx
  004e5	69 55 b8 5c 04
	00 00		 imul	 edx, DWORD PTR tv246[ebp], 1116
  004ec	8b 45 b4	 mov	 eax, DWORD PTR tv254[ebp]
  004ef	8b 8c 82 00 00
	00 00		 mov	 ecx, DWORD PTR ?fn_get_local_entity_int_value@@3PAY0BBH@P6GHPAUENTITY@@W4INT_TYPES@@@ZA[edx+eax*4]
  004f6	ff d1		 call	 ecx
  004f8	85 c0		 test	 eax, eax
  004fa	74 09		 je	 SHORT $LN108@view_mode_
  004fc	c7 45 b0 01 00
	00 00		 mov	 DWORD PTR tv262[ebp], 1
  00503	eb 07		 jmp	 SHORT $LN109@view_mode_
$LN108@view_mode_:
  00505	c7 45 b0 00 00
	00 00		 mov	 DWORD PTR tv262[ebp], 0
$LN109@view_mode_:
  0050c	8b 55 b0	 mov	 edx, DWORD PTR tv262[ebp]
  0050f	89 55 fc	 mov	 DWORD PTR _available$[ebp], edx

; 187  : 
; 188  : 			break;

  00512	e9 8d 1a 00 00	 jmp	 $LN2@view_mode_
$LN15@view_mode_:

; 189  : 		}
; 190  : 		////////////////////////////////////////
; 191  : 		case VIEW_MODE_COCKPIT_PANEL_UP20_LEFT90:
; 192  : 		////////////////////////////////////////
; 193  : 		{
; 194  : 			available = get_gunship_entity () && get_local_entity_int_value (get_gunship_entity (), INT_TYPE_ALIVE);

  00517	83 3d 00 00 00
	00 00		 cmp	 DWORD PTR ?gunship_entity@@3PAUENTITY@@A, 0 ; gunship_entity
  0051e	0f 84 92 00 00
	00		 je	 $LN114@view_mode_
  00524	83 3d 00 00 00
	00 00		 cmp	 DWORD PTR ?gunship_entity@@3PAUENTITY@@A, 0 ; gunship_entity
  0052b	74 0c		 je	 SHORT $LN110@view_mode_
  0052d	a1 00 00 00 00	 mov	 eax, DWORD PTR ?gunship_entity@@3PAUENTITY@@A ; gunship_entity
  00532	8b 08		 mov	 ecx, DWORD PTR [eax]
  00534	89 4d b8	 mov	 DWORD PTR tv269[ebp], ecx
  00537	eb 21		 jmp	 SHORT $LN111@view_mode_
$LN110@view_mode_:
  00539	8b 15 00 00 00
	00		 mov	 edx, DWORD PTR ?__LINE__Var@?0??view_mode_available@@YGHW4VIEW_MODES@@@Z@4JA
  0053f	83 c2 4a	 add	 edx, 74			; 0000004aH
  00542	52		 push	 edx
  00543	68 00 00 00 00	 push	 OFFSET ??_C@_0EF@LBJPOBFB@c?3?2users?2nhv90?2projects?2eech?2ap@
  00548	a1 00 00 00 00	 mov	 eax, DWORD PTR ?null_entity_pointer_message@@3PBDB ; null_entity_pointer_message
  0054d	50		 push	 eax
  0054e	e8 00 00 00 00	 call	 ?process_assert@@YGXPBD0H@Z ; process_assert
  00553	c7 45 b8 00 00
	00 00		 mov	 DWORD PTR tv269[ebp], 0
$LN111@view_mode_:
  0055a	b9 01 00 00 00	 mov	 ecx, 1
  0055f	85 c9		 test	 ecx, ecx
  00561	74 09		 je	 SHORT $LN112@view_mode_
  00563	c7 45 b4 07 00
	00 00		 mov	 DWORD PTR tv277[ebp], 7
  0056a	eb 21		 jmp	 SHORT $LN113@view_mode_
$LN112@view_mode_:
  0056c	8b 15 00 00 00
	00		 mov	 edx, DWORD PTR ?__LINE__Var@?0??view_mode_available@@YGHW4VIEW_MODES@@@Z@4JA
  00572	83 c2 4a	 add	 edx, 74			; 0000004aH
  00575	52		 push	 edx
  00576	68 00 00 00 00	 push	 OFFSET ??_C@_0EF@LBJPOBFB@c?3?2users?2nhv90?2projects?2eech?2ap@
  0057b	a1 00 00 00 00	 mov	 eax, DWORD PTR ?overload_invalid_int_type_message@@3PBDB ; overload_invalid_int_type_message
  00580	50		 push	 eax
  00581	e8 00 00 00 00	 call	 ?process_assert@@YGXPBD0H@Z ; process_assert
  00586	c7 45 b4 00 00
	00 00		 mov	 DWORD PTR tv277[ebp], 0
$LN113@view_mode_:
  0058d	6a 07		 push	 7
  0058f	8b 0d 00 00 00
	00		 mov	 ecx, DWORD PTR ?gunship_entity@@3PAUENTITY@@A ; gunship_entity
  00595	51		 push	 ecx
  00596	69 55 b8 5c 04
	00 00		 imul	 edx, DWORD PTR tv269[ebp], 1116
  0059d	8b 45 b4	 mov	 eax, DWORD PTR tv277[ebp]
  005a0	8b 8c 82 00 00
	00 00		 mov	 ecx, DWORD PTR ?fn_get_local_entity_int_value@@3PAY0BBH@P6GHPAUENTITY@@W4INT_TYPES@@@ZA[edx+eax*4]
  005a7	ff d1		 call	 ecx
  005a9	85 c0		 test	 eax, eax
  005ab	74 09		 je	 SHORT $LN114@view_mode_
  005ad	c7 45 b0 01 00
	00 00		 mov	 DWORD PTR tv285[ebp], 1
  005b4	eb 07		 jmp	 SHORT $LN115@view_mode_
$LN114@view_mode_:
  005b6	c7 45 b0 00 00
	00 00		 mov	 DWORD PTR tv285[ebp], 0
$LN115@view_mode_:
  005bd	8b 55 b0	 mov	 edx, DWORD PTR tv285[ebp]
  005c0	89 55 fc	 mov	 DWORD PTR _available$[ebp], edx

; 195  : 
; 196  : 			break;

  005c3	e9 dc 19 00 00	 jmp	 $LN2@view_mode_
$LN16@view_mode_:

; 197  : 		}
; 198  : 		////////////////////////////////////////
; 199  : 		case VIEW_MODE_COCKPIT_PANEL_UP20_LEFT60:
; 200  : 		////////////////////////////////////////
; 201  : 		{
; 202  : 			available = get_gunship_entity () && get_local_entity_int_value (get_gunship_entity (), INT_TYPE_ALIVE);

  005c8	83 3d 00 00 00
	00 00		 cmp	 DWORD PTR ?gunship_entity@@3PAUENTITY@@A, 0 ; gunship_entity
  005cf	0f 84 92 00 00
	00		 je	 $LN120@view_mode_
  005d5	83 3d 00 00 00
	00 00		 cmp	 DWORD PTR ?gunship_entity@@3PAUENTITY@@A, 0 ; gunship_entity
  005dc	74 0c		 je	 SHORT $LN116@view_mode_
  005de	a1 00 00 00 00	 mov	 eax, DWORD PTR ?gunship_entity@@3PAUENTITY@@A ; gunship_entity
  005e3	8b 08		 mov	 ecx, DWORD PTR [eax]
  005e5	89 4d b8	 mov	 DWORD PTR tv292[ebp], ecx
  005e8	eb 21		 jmp	 SHORT $LN117@view_mode_
$LN116@view_mode_:
  005ea	8b 15 00 00 00
	00		 mov	 edx, DWORD PTR ?__LINE__Var@?0??view_mode_available@@YGHW4VIEW_MODES@@@Z@4JA
  005f0	83 c2 52	 add	 edx, 82			; 00000052H
  005f3	52		 push	 edx
  005f4	68 00 00 00 00	 push	 OFFSET ??_C@_0EF@LBJPOBFB@c?3?2users?2nhv90?2projects?2eech?2ap@
  005f9	a1 00 00 00 00	 mov	 eax, DWORD PTR ?null_entity_pointer_message@@3PBDB ; null_entity_pointer_message
  005fe	50		 push	 eax
  005ff	e8 00 00 00 00	 call	 ?process_assert@@YGXPBD0H@Z ; process_assert
  00604	c7 45 b8 00 00
	00 00		 mov	 DWORD PTR tv292[ebp], 0
$LN117@view_mode_:
  0060b	b9 01 00 00 00	 mov	 ecx, 1
  00610	85 c9		 test	 ecx, ecx
  00612	74 09		 je	 SHORT $LN118@view_mode_
  00614	c7 45 b4 07 00
	00 00		 mov	 DWORD PTR tv300[ebp], 7
  0061b	eb 21		 jmp	 SHORT $LN119@view_mode_
$LN118@view_mode_:
  0061d	8b 15 00 00 00
	00		 mov	 edx, DWORD PTR ?__LINE__Var@?0??view_mode_available@@YGHW4VIEW_MODES@@@Z@4JA
  00623	83 c2 52	 add	 edx, 82			; 00000052H
  00626	52		 push	 edx
  00627	68 00 00 00 00	 push	 OFFSET ??_C@_0EF@LBJPOBFB@c?3?2users?2nhv90?2projects?2eech?2ap@
  0062c	a1 00 00 00 00	 mov	 eax, DWORD PTR ?overload_invalid_int_type_message@@3PBDB ; overload_invalid_int_type_message
  00631	50		 push	 eax
  00632	e8 00 00 00 00	 call	 ?process_assert@@YGXPBD0H@Z ; process_assert
  00637	c7 45 b4 00 00
	00 00		 mov	 DWORD PTR tv300[ebp], 0
$LN119@view_mode_:
  0063e	6a 07		 push	 7
  00640	8b 0d 00 00 00
	00		 mov	 ecx, DWORD PTR ?gunship_entity@@3PAUENTITY@@A ; gunship_entity
  00646	51		 push	 ecx
  00647	69 55 b8 5c 04
	00 00		 imul	 edx, DWORD PTR tv292[ebp], 1116
  0064e	8b 45 b4	 mov	 eax, DWORD PTR tv300[ebp]
  00651	8b 8c 82 00 00
	00 00		 mov	 ecx, DWORD PTR ?fn_get_local_entity_int_value@@3PAY0BBH@P6GHPAUENTITY@@W4INT_TYPES@@@ZA[edx+eax*4]
  00658	ff d1		 call	 ecx
  0065a	85 c0		 test	 eax, eax
  0065c	74 09		 je	 SHORT $LN120@view_mode_
  0065e	c7 45 b0 01 00
	00 00		 mov	 DWORD PTR tv308[ebp], 1
  00665	eb 07		 jmp	 SHORT $LN121@view_mode_
$LN120@view_mode_:
  00667	c7 45 b0 00 00
	00 00		 mov	 DWORD PTR tv308[ebp], 0
$LN121@view_mode_:
  0066e	8b 55 b0	 mov	 edx, DWORD PTR tv308[ebp]
  00671	89 55 fc	 mov	 DWORD PTR _available$[ebp], edx

; 203  : 
; 204  : 			break;

  00674	e9 2b 19 00 00	 jmp	 $LN2@view_mode_
$LN17@view_mode_:

; 205  : 		}
; 206  : 		////////////////////////////////////////
; 207  : 		case VIEW_MODE_COCKPIT_PANEL_UP20_LEFT30:
; 208  : 		////////////////////////////////////////
; 209  : 		{
; 210  : 			available = get_gunship_entity () && get_local_entity_int_value (get_gunship_entity (), INT_TYPE_ALIVE);

  00679	83 3d 00 00 00
	00 00		 cmp	 DWORD PTR ?gunship_entity@@3PAUENTITY@@A, 0 ; gunship_entity
  00680	0f 84 92 00 00
	00		 je	 $LN126@view_mode_
  00686	83 3d 00 00 00
	00 00		 cmp	 DWORD PTR ?gunship_entity@@3PAUENTITY@@A, 0 ; gunship_entity
  0068d	74 0c		 je	 SHORT $LN122@view_mode_
  0068f	a1 00 00 00 00	 mov	 eax, DWORD PTR ?gunship_entity@@3PAUENTITY@@A ; gunship_entity
  00694	8b 08		 mov	 ecx, DWORD PTR [eax]
  00696	89 4d b8	 mov	 DWORD PTR tv315[ebp], ecx
  00699	eb 21		 jmp	 SHORT $LN123@view_mode_
$LN122@view_mode_:
  0069b	8b 15 00 00 00
	00		 mov	 edx, DWORD PTR ?__LINE__Var@?0??view_mode_available@@YGHW4VIEW_MODES@@@Z@4JA
  006a1	83 c2 5a	 add	 edx, 90			; 0000005aH
  006a4	52		 push	 edx
  006a5	68 00 00 00 00	 push	 OFFSET ??_C@_0EF@LBJPOBFB@c?3?2users?2nhv90?2projects?2eech?2ap@
  006aa	a1 00 00 00 00	 mov	 eax, DWORD PTR ?null_entity_pointer_message@@3PBDB ; null_entity_pointer_message
  006af	50		 push	 eax
  006b0	e8 00 00 00 00	 call	 ?process_assert@@YGXPBD0H@Z ; process_assert
  006b5	c7 45 b8 00 00
	00 00		 mov	 DWORD PTR tv315[ebp], 0
$LN123@view_mode_:
  006bc	b9 01 00 00 00	 mov	 ecx, 1
  006c1	85 c9		 test	 ecx, ecx
  006c3	74 09		 je	 SHORT $LN124@view_mode_
  006c5	c7 45 b4 07 00
	00 00		 mov	 DWORD PTR tv323[ebp], 7
  006cc	eb 21		 jmp	 SHORT $LN125@view_mode_
$LN124@view_mode_:
  006ce	8b 15 00 00 00
	00		 mov	 edx, DWORD PTR ?__LINE__Var@?0??view_mode_available@@YGHW4VIEW_MODES@@@Z@4JA
  006d4	83 c2 5a	 add	 edx, 90			; 0000005aH
  006d7	52		 push	 edx
  006d8	68 00 00 00 00	 push	 OFFSET ??_C@_0EF@LBJPOBFB@c?3?2users?2nhv90?2projects?2eech?2ap@
  006dd	a1 00 00 00 00	 mov	 eax, DWORD PTR ?overload_invalid_int_type_message@@3PBDB ; overload_invalid_int_type_message
  006e2	50		 push	 eax
  006e3	e8 00 00 00 00	 call	 ?process_assert@@YGXPBD0H@Z ; process_assert
  006e8	c7 45 b4 00 00
	00 00		 mov	 DWORD PTR tv323[ebp], 0
$LN125@view_mode_:
  006ef	6a 07		 push	 7
  006f1	8b 0d 00 00 00
	00		 mov	 ecx, DWORD PTR ?gunship_entity@@3PAUENTITY@@A ; gunship_entity
  006f7	51		 push	 ecx
  006f8	69 55 b8 5c 04
	00 00		 imul	 edx, DWORD PTR tv315[ebp], 1116
  006ff	8b 45 b4	 mov	 eax, DWORD PTR tv323[ebp]
  00702	8b 8c 82 00 00
	00 00		 mov	 ecx, DWORD PTR ?fn_get_local_entity_int_value@@3PAY0BBH@P6GHPAUENTITY@@W4INT_TYPES@@@ZA[edx+eax*4]
  00709	ff d1		 call	 ecx
  0070b	85 c0		 test	 eax, eax
  0070d	74 09		 je	 SHORT $LN126@view_mode_
  0070f	c7 45 b0 01 00
	00 00		 mov	 DWORD PTR tv331[ebp], 1
  00716	eb 07		 jmp	 SHORT $LN127@view_mode_
$LN126@view_mode_:
  00718	c7 45 b0 00 00
	00 00		 mov	 DWORD PTR tv331[ebp], 0
$LN127@view_mode_:
  0071f	8b 55 b0	 mov	 edx, DWORD PTR tv331[ebp]
  00722	89 55 fc	 mov	 DWORD PTR _available$[ebp], edx

; 211  : 
; 212  : 			break;

  00725	e9 7a 18 00 00	 jmp	 $LN2@view_mode_
$LN18@view_mode_:

; 213  : 		}
; 214  : 		////////////////////////////////////////
; 215  : 		case VIEW_MODE_COCKPIT_PANEL_UP20_AHEAD:
; 216  : 		////////////////////////////////////////
; 217  : 		{
; 218  : 			available = get_gunship_entity () && get_local_entity_int_value (get_gunship_entity (), INT_TYPE_ALIVE);

  0072a	83 3d 00 00 00
	00 00		 cmp	 DWORD PTR ?gunship_entity@@3PAUENTITY@@A, 0 ; gunship_entity
  00731	0f 84 92 00 00
	00		 je	 $LN132@view_mode_
  00737	83 3d 00 00 00
	00 00		 cmp	 DWORD PTR ?gunship_entity@@3PAUENTITY@@A, 0 ; gunship_entity
  0073e	74 0c		 je	 SHORT $LN128@view_mode_
  00740	a1 00 00 00 00	 mov	 eax, DWORD PTR ?gunship_entity@@3PAUENTITY@@A ; gunship_entity
  00745	8b 08		 mov	 ecx, DWORD PTR [eax]
  00747	89 4d b8	 mov	 DWORD PTR tv338[ebp], ecx
  0074a	eb 21		 jmp	 SHORT $LN129@view_mode_
$LN128@view_mode_:
  0074c	8b 15 00 00 00
	00		 mov	 edx, DWORD PTR ?__LINE__Var@?0??view_mode_available@@YGHW4VIEW_MODES@@@Z@4JA
  00752	83 c2 62	 add	 edx, 98			; 00000062H
  00755	52		 push	 edx
  00756	68 00 00 00 00	 push	 OFFSET ??_C@_0EF@LBJPOBFB@c?3?2users?2nhv90?2projects?2eech?2ap@
  0075b	a1 00 00 00 00	 mov	 eax, DWORD PTR ?null_entity_pointer_message@@3PBDB ; null_entity_pointer_message
  00760	50		 push	 eax
  00761	e8 00 00 00 00	 call	 ?process_assert@@YGXPBD0H@Z ; process_assert
  00766	c7 45 b8 00 00
	00 00		 mov	 DWORD PTR tv338[ebp], 0
$LN129@view_mode_:
  0076d	b9 01 00 00 00	 mov	 ecx, 1
  00772	85 c9		 test	 ecx, ecx
  00774	74 09		 je	 SHORT $LN130@view_mode_
  00776	c7 45 b4 07 00
	00 00		 mov	 DWORD PTR tv346[ebp], 7
  0077d	eb 21		 jmp	 SHORT $LN131@view_mode_
$LN130@view_mode_:
  0077f	8b 15 00 00 00
	00		 mov	 edx, DWORD PTR ?__LINE__Var@?0??view_mode_available@@YGHW4VIEW_MODES@@@Z@4JA
  00785	83 c2 62	 add	 edx, 98			; 00000062H
  00788	52		 push	 edx
  00789	68 00 00 00 00	 push	 OFFSET ??_C@_0EF@LBJPOBFB@c?3?2users?2nhv90?2projects?2eech?2ap@
  0078e	a1 00 00 00 00	 mov	 eax, DWORD PTR ?overload_invalid_int_type_message@@3PBDB ; overload_invalid_int_type_message
  00793	50		 push	 eax
  00794	e8 00 00 00 00	 call	 ?process_assert@@YGXPBD0H@Z ; process_assert
  00799	c7 45 b4 00 00
	00 00		 mov	 DWORD PTR tv346[ebp], 0
$LN131@view_mode_:
  007a0	6a 07		 push	 7
  007a2	8b 0d 00 00 00
	00		 mov	 ecx, DWORD PTR ?gunship_entity@@3PAUENTITY@@A ; gunship_entity
  007a8	51		 push	 ecx
  007a9	69 55 b8 5c 04
	00 00		 imul	 edx, DWORD PTR tv338[ebp], 1116
  007b0	8b 45 b4	 mov	 eax, DWORD PTR tv346[ebp]
  007b3	8b 8c 82 00 00
	00 00		 mov	 ecx, DWORD PTR ?fn_get_local_entity_int_value@@3PAY0BBH@P6GHPAUENTITY@@W4INT_TYPES@@@ZA[edx+eax*4]
  007ba	ff d1		 call	 ecx
  007bc	85 c0		 test	 eax, eax
  007be	74 09		 je	 SHORT $LN132@view_mode_
  007c0	c7 45 b0 01 00
	00 00		 mov	 DWORD PTR tv354[ebp], 1
  007c7	eb 07		 jmp	 SHORT $LN133@view_mode_
$LN132@view_mode_:
  007c9	c7 45 b0 00 00
	00 00		 mov	 DWORD PTR tv354[ebp], 0
$LN133@view_mode_:
  007d0	8b 55 b0	 mov	 edx, DWORD PTR tv354[ebp]
  007d3	89 55 fc	 mov	 DWORD PTR _available$[ebp], edx

; 219  : 
; 220  : 			break;

  007d6	e9 c9 17 00 00	 jmp	 $LN2@view_mode_
$LN19@view_mode_:

; 221  : 		}
; 222  : 		////////////////////////////////////////
; 223  : 		case VIEW_MODE_COCKPIT_PANEL_UP20_RIGHT30:
; 224  : 		////////////////////////////////////////
; 225  : 		{
; 226  : 			available = get_gunship_entity () && get_local_entity_int_value (get_gunship_entity (), INT_TYPE_ALIVE);

  007db	83 3d 00 00 00
	00 00		 cmp	 DWORD PTR ?gunship_entity@@3PAUENTITY@@A, 0 ; gunship_entity
  007e2	0f 84 92 00 00
	00		 je	 $LN138@view_mode_
  007e8	83 3d 00 00 00
	00 00		 cmp	 DWORD PTR ?gunship_entity@@3PAUENTITY@@A, 0 ; gunship_entity
  007ef	74 0c		 je	 SHORT $LN134@view_mode_
  007f1	a1 00 00 00 00	 mov	 eax, DWORD PTR ?gunship_entity@@3PAUENTITY@@A ; gunship_entity
  007f6	8b 08		 mov	 ecx, DWORD PTR [eax]
  007f8	89 4d b8	 mov	 DWORD PTR tv361[ebp], ecx
  007fb	eb 21		 jmp	 SHORT $LN135@view_mode_
$LN134@view_mode_:
  007fd	8b 15 00 00 00
	00		 mov	 edx, DWORD PTR ?__LINE__Var@?0??view_mode_available@@YGHW4VIEW_MODES@@@Z@4JA
  00803	83 c2 6a	 add	 edx, 106		; 0000006aH
  00806	52		 push	 edx
  00807	68 00 00 00 00	 push	 OFFSET ??_C@_0EF@LBJPOBFB@c?3?2users?2nhv90?2projects?2eech?2ap@
  0080c	a1 00 00 00 00	 mov	 eax, DWORD PTR ?null_entity_pointer_message@@3PBDB ; null_entity_pointer_message
  00811	50		 push	 eax
  00812	e8 00 00 00 00	 call	 ?process_assert@@YGXPBD0H@Z ; process_assert
  00817	c7 45 b8 00 00
	00 00		 mov	 DWORD PTR tv361[ebp], 0
$LN135@view_mode_:
  0081e	b9 01 00 00 00	 mov	 ecx, 1
  00823	85 c9		 test	 ecx, ecx
  00825	74 09		 je	 SHORT $LN136@view_mode_
  00827	c7 45 b4 07 00
	00 00		 mov	 DWORD PTR tv369[ebp], 7
  0082e	eb 21		 jmp	 SHORT $LN137@view_mode_
$LN136@view_mode_:
  00830	8b 15 00 00 00
	00		 mov	 edx, DWORD PTR ?__LINE__Var@?0??view_mode_available@@YGHW4VIEW_MODES@@@Z@4JA
  00836	83 c2 6a	 add	 edx, 106		; 0000006aH
  00839	52		 push	 edx
  0083a	68 00 00 00 00	 push	 OFFSET ??_C@_0EF@LBJPOBFB@c?3?2users?2nhv90?2projects?2eech?2ap@
  0083f	a1 00 00 00 00	 mov	 eax, DWORD PTR ?overload_invalid_int_type_message@@3PBDB ; overload_invalid_int_type_message
  00844	50		 push	 eax
  00845	e8 00 00 00 00	 call	 ?process_assert@@YGXPBD0H@Z ; process_assert
  0084a	c7 45 b4 00 00
	00 00		 mov	 DWORD PTR tv369[ebp], 0
$LN137@view_mode_:
  00851	6a 07		 push	 7
  00853	8b 0d 00 00 00
	00		 mov	 ecx, DWORD PTR ?gunship_entity@@3PAUENTITY@@A ; gunship_entity
  00859	51		 push	 ecx
  0085a	69 55 b8 5c 04
	00 00		 imul	 edx, DWORD PTR tv361[ebp], 1116
  00861	8b 45 b4	 mov	 eax, DWORD PTR tv369[ebp]
  00864	8b 8c 82 00 00
	00 00		 mov	 ecx, DWORD PTR ?fn_get_local_entity_int_value@@3PAY0BBH@P6GHPAUENTITY@@W4INT_TYPES@@@ZA[edx+eax*4]
  0086b	ff d1		 call	 ecx
  0086d	85 c0		 test	 eax, eax
  0086f	74 09		 je	 SHORT $LN138@view_mode_
  00871	c7 45 b0 01 00
	00 00		 mov	 DWORD PTR tv377[ebp], 1
  00878	eb 07		 jmp	 SHORT $LN139@view_mode_
$LN138@view_mode_:
  0087a	c7 45 b0 00 00
	00 00		 mov	 DWORD PTR tv377[ebp], 0
$LN139@view_mode_:
  00881	8b 55 b0	 mov	 edx, DWORD PTR tv377[ebp]
  00884	89 55 fc	 mov	 DWORD PTR _available$[ebp], edx

; 227  : 
; 228  : 			break;

  00887	e9 18 17 00 00	 jmp	 $LN2@view_mode_
$LN20@view_mode_:

; 229  : 		}
; 230  : 		////////////////////////////////////////
; 231  : 		case VIEW_MODE_COCKPIT_PANEL_UP20_RIGHT60:
; 232  : 		////////////////////////////////////////
; 233  : 		{
; 234  : 			available = get_gunship_entity () && get_local_entity_int_value (get_gunship_entity (), INT_TYPE_ALIVE);

  0088c	83 3d 00 00 00
	00 00		 cmp	 DWORD PTR ?gunship_entity@@3PAUENTITY@@A, 0 ; gunship_entity
  00893	0f 84 92 00 00
	00		 je	 $LN144@view_mode_
  00899	83 3d 00 00 00
	00 00		 cmp	 DWORD PTR ?gunship_entity@@3PAUENTITY@@A, 0 ; gunship_entity
  008a0	74 0c		 je	 SHORT $LN140@view_mode_
  008a2	a1 00 00 00 00	 mov	 eax, DWORD PTR ?gunship_entity@@3PAUENTITY@@A ; gunship_entity
  008a7	8b 08		 mov	 ecx, DWORD PTR [eax]
  008a9	89 4d b8	 mov	 DWORD PTR tv384[ebp], ecx
  008ac	eb 21		 jmp	 SHORT $LN141@view_mode_
$LN140@view_mode_:
  008ae	8b 15 00 00 00
	00		 mov	 edx, DWORD PTR ?__LINE__Var@?0??view_mode_available@@YGHW4VIEW_MODES@@@Z@4JA
  008b4	83 c2 72	 add	 edx, 114		; 00000072H
  008b7	52		 push	 edx
  008b8	68 00 00 00 00	 push	 OFFSET ??_C@_0EF@LBJPOBFB@c?3?2users?2nhv90?2projects?2eech?2ap@
  008bd	a1 00 00 00 00	 mov	 eax, DWORD PTR ?null_entity_pointer_message@@3PBDB ; null_entity_pointer_message
  008c2	50		 push	 eax
  008c3	e8 00 00 00 00	 call	 ?process_assert@@YGXPBD0H@Z ; process_assert
  008c8	c7 45 b8 00 00
	00 00		 mov	 DWORD PTR tv384[ebp], 0
$LN141@view_mode_:
  008cf	b9 01 00 00 00	 mov	 ecx, 1
  008d4	85 c9		 test	 ecx, ecx
  008d6	74 09		 je	 SHORT $LN142@view_mode_
  008d8	c7 45 b4 07 00
	00 00		 mov	 DWORD PTR tv392[ebp], 7
  008df	eb 21		 jmp	 SHORT $LN143@view_mode_
$LN142@view_mode_:
  008e1	8b 15 00 00 00
	00		 mov	 edx, DWORD PTR ?__LINE__Var@?0??view_mode_available@@YGHW4VIEW_MODES@@@Z@4JA
  008e7	83 c2 72	 add	 edx, 114		; 00000072H
  008ea	52		 push	 edx
  008eb	68 00 00 00 00	 push	 OFFSET ??_C@_0EF@LBJPOBFB@c?3?2users?2nhv90?2projects?2eech?2ap@
  008f0	a1 00 00 00 00	 mov	 eax, DWORD PTR ?overload_invalid_int_type_message@@3PBDB ; overload_invalid_int_type_message
  008f5	50		 push	 eax
  008f6	e8 00 00 00 00	 call	 ?process_assert@@YGXPBD0H@Z ; process_assert
  008fb	c7 45 b4 00 00
	00 00		 mov	 DWORD PTR tv392[ebp], 0
$LN143@view_mode_:
  00902	6a 07		 push	 7
  00904	8b 0d 00 00 00
	00		 mov	 ecx, DWORD PTR ?gunship_entity@@3PAUENTITY@@A ; gunship_entity
  0090a	51		 push	 ecx
  0090b	69 55 b8 5c 04
	00 00		 imul	 edx, DWORD PTR tv384[ebp], 1116
  00912	8b 45 b4	 mov	 eax, DWORD PTR tv392[ebp]
  00915	8b 8c 82 00 00
	00 00		 mov	 ecx, DWORD PTR ?fn_get_local_entity_int_value@@3PAY0BBH@P6GHPAUENTITY@@W4INT_TYPES@@@ZA[edx+eax*4]
  0091c	ff d1		 call	 ecx
  0091e	85 c0		 test	 eax, eax
  00920	74 09		 je	 SHORT $LN144@view_mode_
  00922	c7 45 b0 01 00
	00 00		 mov	 DWORD PTR tv400[ebp], 1
  00929	eb 07		 jmp	 SHORT $LN145@view_mode_
$LN144@view_mode_:
  0092b	c7 45 b0 00 00
	00 00		 mov	 DWORD PTR tv400[ebp], 0
$LN145@view_mode_:
  00932	8b 55 b0	 mov	 edx, DWORD PTR tv400[ebp]
  00935	89 55 fc	 mov	 DWORD PTR _available$[ebp], edx

; 235  : 
; 236  : 			break;

  00938	e9 67 16 00 00	 jmp	 $LN2@view_mode_
$LN21@view_mode_:

; 237  : 		}
; 238  : 		////////////////////////////////////////
; 239  : 		case VIEW_MODE_COCKPIT_PANEL_UP20_RIGHT90:
; 240  : 		////////////////////////////////////////
; 241  : 		{
; 242  : 			available = get_gunship_entity () && get_local_entity_int_value (get_gunship_entity (), INT_TYPE_ALIVE);

  0093d	83 3d 00 00 00
	00 00		 cmp	 DWORD PTR ?gunship_entity@@3PAUENTITY@@A, 0 ; gunship_entity
  00944	0f 84 92 00 00
	00		 je	 $LN150@view_mode_
  0094a	83 3d 00 00 00
	00 00		 cmp	 DWORD PTR ?gunship_entity@@3PAUENTITY@@A, 0 ; gunship_entity
  00951	74 0c		 je	 SHORT $LN146@view_mode_
  00953	a1 00 00 00 00	 mov	 eax, DWORD PTR ?gunship_entity@@3PAUENTITY@@A ; gunship_entity
  00958	8b 08		 mov	 ecx, DWORD PTR [eax]
  0095a	89 4d b8	 mov	 DWORD PTR tv407[ebp], ecx
  0095d	eb 21		 jmp	 SHORT $LN147@view_mode_
$LN146@view_mode_:
  0095f	8b 15 00 00 00
	00		 mov	 edx, DWORD PTR ?__LINE__Var@?0??view_mode_available@@YGHW4VIEW_MODES@@@Z@4JA
  00965	83 c2 7a	 add	 edx, 122		; 0000007aH
  00968	52		 push	 edx
  00969	68 00 00 00 00	 push	 OFFSET ??_C@_0EF@LBJPOBFB@c?3?2users?2nhv90?2projects?2eech?2ap@
  0096e	a1 00 00 00 00	 mov	 eax, DWORD PTR ?null_entity_pointer_message@@3PBDB ; null_entity_pointer_message
  00973	50		 push	 eax
  00974	e8 00 00 00 00	 call	 ?process_assert@@YGXPBD0H@Z ; process_assert
  00979	c7 45 b8 00 00
	00 00		 mov	 DWORD PTR tv407[ebp], 0
$LN147@view_mode_:
  00980	b9 01 00 00 00	 mov	 ecx, 1
  00985	85 c9		 test	 ecx, ecx
  00987	74 09		 je	 SHORT $LN148@view_mode_
  00989	c7 45 b4 07 00
	00 00		 mov	 DWORD PTR tv415[ebp], 7
  00990	eb 21		 jmp	 SHORT $LN149@view_mode_
$LN148@view_mode_:
  00992	8b 15 00 00 00
	00		 mov	 edx, DWORD PTR ?__LINE__Var@?0??view_mode_available@@YGHW4VIEW_MODES@@@Z@4JA
  00998	83 c2 7a	 add	 edx, 122		; 0000007aH
  0099b	52		 push	 edx
  0099c	68 00 00 00 00	 push	 OFFSET ??_C@_0EF@LBJPOBFB@c?3?2users?2nhv90?2projects?2eech?2ap@
  009a1	a1 00 00 00 00	 mov	 eax, DWORD PTR ?overload_invalid_int_type_message@@3PBDB ; overload_invalid_int_type_message
  009a6	50		 push	 eax
  009a7	e8 00 00 00 00	 call	 ?process_assert@@YGXPBD0H@Z ; process_assert
  009ac	c7 45 b4 00 00
	00 00		 mov	 DWORD PTR tv415[ebp], 0
$LN149@view_mode_:
  009b3	6a 07		 push	 7
  009b5	8b 0d 00 00 00
	00		 mov	 ecx, DWORD PTR ?gunship_entity@@3PAUENTITY@@A ; gunship_entity
  009bb	51		 push	 ecx
  009bc	69 55 b8 5c 04
	00 00		 imul	 edx, DWORD PTR tv407[ebp], 1116
  009c3	8b 45 b4	 mov	 eax, DWORD PTR tv415[ebp]
  009c6	8b 8c 82 00 00
	00 00		 mov	 ecx, DWORD PTR ?fn_get_local_entity_int_value@@3PAY0BBH@P6GHPAUENTITY@@W4INT_TYPES@@@ZA[edx+eax*4]
  009cd	ff d1		 call	 ecx
  009cf	85 c0		 test	 eax, eax
  009d1	74 09		 je	 SHORT $LN150@view_mode_
  009d3	c7 45 b0 01 00
	00 00		 mov	 DWORD PTR tv423[ebp], 1
  009da	eb 07		 jmp	 SHORT $LN151@view_mode_
$LN150@view_mode_:
  009dc	c7 45 b0 00 00
	00 00		 mov	 DWORD PTR tv423[ebp], 0
$LN151@view_mode_:
  009e3	8b 55 b0	 mov	 edx, DWORD PTR tv423[ebp]
  009e6	89 55 fc	 mov	 DWORD PTR _available$[ebp], edx

; 243  : 
; 244  : 			break;

  009e9	e9 b6 15 00 00	 jmp	 $LN2@view_mode_
$LN22@view_mode_:

; 245  : 		}
; 246  : 		////////////////////////////////////////
; 247  : 		case VIEW_MODE_COCKPIT_PANEL_LEVEL_LEFT90:
; 248  : 		////////////////////////////////////////
; 249  : 		{
; 250  : 			available = get_gunship_entity () && get_local_entity_int_value (get_gunship_entity (), INT_TYPE_ALIVE);

  009ee	83 3d 00 00 00
	00 00		 cmp	 DWORD PTR ?gunship_entity@@3PAUENTITY@@A, 0 ; gunship_entity
  009f5	0f 84 98 00 00
	00		 je	 $LN156@view_mode_
  009fb	83 3d 00 00 00
	00 00		 cmp	 DWORD PTR ?gunship_entity@@3PAUENTITY@@A, 0 ; gunship_entity
  00a02	74 0c		 je	 SHORT $LN152@view_mode_
  00a04	a1 00 00 00 00	 mov	 eax, DWORD PTR ?gunship_entity@@3PAUENTITY@@A ; gunship_entity
  00a09	8b 08		 mov	 ecx, DWORD PTR [eax]
  00a0b	89 4d b8	 mov	 DWORD PTR tv430[ebp], ecx
  00a0e	eb 24		 jmp	 SHORT $LN153@view_mode_
$LN152@view_mode_:
  00a10	8b 15 00 00 00
	00		 mov	 edx, DWORD PTR ?__LINE__Var@?0??view_mode_available@@YGHW4VIEW_MODES@@@Z@4JA
  00a16	81 c2 82 00 00
	00		 add	 edx, 130		; 00000082H
  00a1c	52		 push	 edx
  00a1d	68 00 00 00 00	 push	 OFFSET ??_C@_0EF@LBJPOBFB@c?3?2users?2nhv90?2projects?2eech?2ap@
  00a22	a1 00 00 00 00	 mov	 eax, DWORD PTR ?null_entity_pointer_message@@3PBDB ; null_entity_pointer_message
  00a27	50		 push	 eax
  00a28	e8 00 00 00 00	 call	 ?process_assert@@YGXPBD0H@Z ; process_assert
  00a2d	c7 45 b8 00 00
	00 00		 mov	 DWORD PTR tv430[ebp], 0
$LN153@view_mode_:
  00a34	b9 01 00 00 00	 mov	 ecx, 1
  00a39	85 c9		 test	 ecx, ecx
  00a3b	74 09		 je	 SHORT $LN154@view_mode_
  00a3d	c7 45 b4 07 00
	00 00		 mov	 DWORD PTR tv438[ebp], 7
  00a44	eb 24		 jmp	 SHORT $LN155@view_mode_
$LN154@view_mode_:
  00a46	8b 15 00 00 00
	00		 mov	 edx, DWORD PTR ?__LINE__Var@?0??view_mode_available@@YGHW4VIEW_MODES@@@Z@4JA
  00a4c	81 c2 82 00 00
	00		 add	 edx, 130		; 00000082H
  00a52	52		 push	 edx
  00a53	68 00 00 00 00	 push	 OFFSET ??_C@_0EF@LBJPOBFB@c?3?2users?2nhv90?2projects?2eech?2ap@
  00a58	a1 00 00 00 00	 mov	 eax, DWORD PTR ?overload_invalid_int_type_message@@3PBDB ; overload_invalid_int_type_message
  00a5d	50		 push	 eax
  00a5e	e8 00 00 00 00	 call	 ?process_assert@@YGXPBD0H@Z ; process_assert
  00a63	c7 45 b4 00 00
	00 00		 mov	 DWORD PTR tv438[ebp], 0
$LN155@view_mode_:
  00a6a	6a 07		 push	 7
  00a6c	8b 0d 00 00 00
	00		 mov	 ecx, DWORD PTR ?gunship_entity@@3PAUENTITY@@A ; gunship_entity
  00a72	51		 push	 ecx
  00a73	69 55 b8 5c 04
	00 00		 imul	 edx, DWORD PTR tv430[ebp], 1116
  00a7a	8b 45 b4	 mov	 eax, DWORD PTR tv438[ebp]
  00a7d	8b 8c 82 00 00
	00 00		 mov	 ecx, DWORD PTR ?fn_get_local_entity_int_value@@3PAY0BBH@P6GHPAUENTITY@@W4INT_TYPES@@@ZA[edx+eax*4]
  00a84	ff d1		 call	 ecx
  00a86	85 c0		 test	 eax, eax
  00a88	74 09		 je	 SHORT $LN156@view_mode_
  00a8a	c7 45 b0 01 00
	00 00		 mov	 DWORD PTR tv446[ebp], 1
  00a91	eb 07		 jmp	 SHORT $LN157@view_mode_
$LN156@view_mode_:
  00a93	c7 45 b0 00 00
	00 00		 mov	 DWORD PTR tv446[ebp], 0
$LN157@view_mode_:
  00a9a	8b 55 b0	 mov	 edx, DWORD PTR tv446[ebp]
  00a9d	89 55 fc	 mov	 DWORD PTR _available$[ebp], edx

; 251  : 
; 252  : 			break;

  00aa0	e9 ff 14 00 00	 jmp	 $LN2@view_mode_
$LN23@view_mode_:

; 253  : 		}
; 254  : 		////////////////////////////////////////
; 255  : 		case VIEW_MODE_COCKPIT_PANEL_LEVEL_LEFT60:
; 256  : 		////////////////////////////////////////
; 257  : 		{
; 258  : 			available = get_gunship_entity () && get_local_entity_int_value (get_gunship_entity (), INT_TYPE_ALIVE);

  00aa5	83 3d 00 00 00
	00 00		 cmp	 DWORD PTR ?gunship_entity@@3PAUENTITY@@A, 0 ; gunship_entity
  00aac	0f 84 98 00 00
	00		 je	 $LN162@view_mode_
  00ab2	83 3d 00 00 00
	00 00		 cmp	 DWORD PTR ?gunship_entity@@3PAUENTITY@@A, 0 ; gunship_entity
  00ab9	74 0c		 je	 SHORT $LN158@view_mode_
  00abb	a1 00 00 00 00	 mov	 eax, DWORD PTR ?gunship_entity@@3PAUENTITY@@A ; gunship_entity
  00ac0	8b 08		 mov	 ecx, DWORD PTR [eax]
  00ac2	89 4d b8	 mov	 DWORD PTR tv453[ebp], ecx
  00ac5	eb 24		 jmp	 SHORT $LN159@view_mode_
$LN158@view_mode_:
  00ac7	8b 15 00 00 00
	00		 mov	 edx, DWORD PTR ?__LINE__Var@?0??view_mode_available@@YGHW4VIEW_MODES@@@Z@4JA
  00acd	81 c2 8a 00 00
	00		 add	 edx, 138		; 0000008aH
  00ad3	52		 push	 edx
  00ad4	68 00 00 00 00	 push	 OFFSET ??_C@_0EF@LBJPOBFB@c?3?2users?2nhv90?2projects?2eech?2ap@
  00ad9	a1 00 00 00 00	 mov	 eax, DWORD PTR ?null_entity_pointer_message@@3PBDB ; null_entity_pointer_message
  00ade	50		 push	 eax
  00adf	e8 00 00 00 00	 call	 ?process_assert@@YGXPBD0H@Z ; process_assert
  00ae4	c7 45 b8 00 00
	00 00		 mov	 DWORD PTR tv453[ebp], 0
$LN159@view_mode_:
  00aeb	b9 01 00 00 00	 mov	 ecx, 1
  00af0	85 c9		 test	 ecx, ecx
  00af2	74 09		 je	 SHORT $LN160@view_mode_
  00af4	c7 45 b4 07 00
	00 00		 mov	 DWORD PTR tv461[ebp], 7
  00afb	eb 24		 jmp	 SHORT $LN161@view_mode_
$LN160@view_mode_:
  00afd	8b 15 00 00 00
	00		 mov	 edx, DWORD PTR ?__LINE__Var@?0??view_mode_available@@YGHW4VIEW_MODES@@@Z@4JA
  00b03	81 c2 8a 00 00
	00		 add	 edx, 138		; 0000008aH
  00b09	52		 push	 edx
  00b0a	68 00 00 00 00	 push	 OFFSET ??_C@_0EF@LBJPOBFB@c?3?2users?2nhv90?2projects?2eech?2ap@
  00b0f	a1 00 00 00 00	 mov	 eax, DWORD PTR ?overload_invalid_int_type_message@@3PBDB ; overload_invalid_int_type_message
  00b14	50		 push	 eax
  00b15	e8 00 00 00 00	 call	 ?process_assert@@YGXPBD0H@Z ; process_assert
  00b1a	c7 45 b4 00 00
	00 00		 mov	 DWORD PTR tv461[ebp], 0
$LN161@view_mode_:
  00b21	6a 07		 push	 7
  00b23	8b 0d 00 00 00
	00		 mov	 ecx, DWORD PTR ?gunship_entity@@3PAUENTITY@@A ; gunship_entity
  00b29	51		 push	 ecx
  00b2a	69 55 b8 5c 04
	00 00		 imul	 edx, DWORD PTR tv453[ebp], 1116
  00b31	8b 45 b4	 mov	 eax, DWORD PTR tv461[ebp]
  00b34	8b 8c 82 00 00
	00 00		 mov	 ecx, DWORD PTR ?fn_get_local_entity_int_value@@3PAY0BBH@P6GHPAUENTITY@@W4INT_TYPES@@@ZA[edx+eax*4]
  00b3b	ff d1		 call	 ecx
  00b3d	85 c0		 test	 eax, eax
  00b3f	74 09		 je	 SHORT $LN162@view_mode_
  00b41	c7 45 b0 01 00
	00 00		 mov	 DWORD PTR tv469[ebp], 1
  00b48	eb 07		 jmp	 SHORT $LN163@view_mode_
$LN162@view_mode_:
  00b4a	c7 45 b0 00 00
	00 00		 mov	 DWORD PTR tv469[ebp], 0
$LN163@view_mode_:
  00b51	8b 55 b0	 mov	 edx, DWORD PTR tv469[ebp]
  00b54	89 55 fc	 mov	 DWORD PTR _available$[ebp], edx

; 259  : 
; 260  : 			break;

  00b57	e9 48 14 00 00	 jmp	 $LN2@view_mode_
$LN24@view_mode_:

; 261  : 		}
; 262  : 		////////////////////////////////////////
; 263  : 		case VIEW_MODE_COCKPIT_PANEL_LEVEL_LEFT30:
; 264  : 		////////////////////////////////////////
; 265  : 		{
; 266  : 			available = get_gunship_entity () && get_local_entity_int_value (get_gunship_entity (), INT_TYPE_ALIVE);

  00b5c	83 3d 00 00 00
	00 00		 cmp	 DWORD PTR ?gunship_entity@@3PAUENTITY@@A, 0 ; gunship_entity
  00b63	0f 84 98 00 00
	00		 je	 $LN168@view_mode_
  00b69	83 3d 00 00 00
	00 00		 cmp	 DWORD PTR ?gunship_entity@@3PAUENTITY@@A, 0 ; gunship_entity
  00b70	74 0c		 je	 SHORT $LN164@view_mode_
  00b72	a1 00 00 00 00	 mov	 eax, DWORD PTR ?gunship_entity@@3PAUENTITY@@A ; gunship_entity
  00b77	8b 08		 mov	 ecx, DWORD PTR [eax]
  00b79	89 4d b8	 mov	 DWORD PTR tv476[ebp], ecx
  00b7c	eb 24		 jmp	 SHORT $LN165@view_mode_
$LN164@view_mode_:
  00b7e	8b 15 00 00 00
	00		 mov	 edx, DWORD PTR ?__LINE__Var@?0??view_mode_available@@YGHW4VIEW_MODES@@@Z@4JA
  00b84	81 c2 92 00 00
	00		 add	 edx, 146		; 00000092H
  00b8a	52		 push	 edx
  00b8b	68 00 00 00 00	 push	 OFFSET ??_C@_0EF@LBJPOBFB@c?3?2users?2nhv90?2projects?2eech?2ap@
  00b90	a1 00 00 00 00	 mov	 eax, DWORD PTR ?null_entity_pointer_message@@3PBDB ; null_entity_pointer_message
  00b95	50		 push	 eax
  00b96	e8 00 00 00 00	 call	 ?process_assert@@YGXPBD0H@Z ; process_assert
  00b9b	c7 45 b8 00 00
	00 00		 mov	 DWORD PTR tv476[ebp], 0
$LN165@view_mode_:
  00ba2	b9 01 00 00 00	 mov	 ecx, 1
  00ba7	85 c9		 test	 ecx, ecx
  00ba9	74 09		 je	 SHORT $LN166@view_mode_
  00bab	c7 45 b4 07 00
	00 00		 mov	 DWORD PTR tv484[ebp], 7
  00bb2	eb 24		 jmp	 SHORT $LN167@view_mode_
$LN166@view_mode_:
  00bb4	8b 15 00 00 00
	00		 mov	 edx, DWORD PTR ?__LINE__Var@?0??view_mode_available@@YGHW4VIEW_MODES@@@Z@4JA
  00bba	81 c2 92 00 00
	00		 add	 edx, 146		; 00000092H
  00bc0	52		 push	 edx
  00bc1	68 00 00 00 00	 push	 OFFSET ??_C@_0EF@LBJPOBFB@c?3?2users?2nhv90?2projects?2eech?2ap@
  00bc6	a1 00 00 00 00	 mov	 eax, DWORD PTR ?overload_invalid_int_type_message@@3PBDB ; overload_invalid_int_type_message
  00bcb	50		 push	 eax
  00bcc	e8 00 00 00 00	 call	 ?process_assert@@YGXPBD0H@Z ; process_assert
  00bd1	c7 45 b4 00 00
	00 00		 mov	 DWORD PTR tv484[ebp], 0
$LN167@view_mode_:
  00bd8	6a 07		 push	 7
  00bda	8b 0d 00 00 00
	00		 mov	 ecx, DWORD PTR ?gunship_entity@@3PAUENTITY@@A ; gunship_entity
  00be0	51		 push	 ecx
  00be1	69 55 b8 5c 04
	00 00		 imul	 edx, DWORD PTR tv476[ebp], 1116
  00be8	8b 45 b4	 mov	 eax, DWORD PTR tv484[ebp]
  00beb	8b 8c 82 00 00
	00 00		 mov	 ecx, DWORD PTR ?fn_get_local_entity_int_value@@3PAY0BBH@P6GHPAUENTITY@@W4INT_TYPES@@@ZA[edx+eax*4]
  00bf2	ff d1		 call	 ecx
  00bf4	85 c0		 test	 eax, eax
  00bf6	74 09		 je	 SHORT $LN168@view_mode_
  00bf8	c7 45 b0 01 00
	00 00		 mov	 DWORD PTR tv492[ebp], 1
  00bff	eb 07		 jmp	 SHORT $LN169@view_mode_
$LN168@view_mode_:
  00c01	c7 45 b0 00 00
	00 00		 mov	 DWORD PTR tv492[ebp], 0
$LN169@view_mode_:
  00c08	8b 55 b0	 mov	 edx, DWORD PTR tv492[ebp]
  00c0b	89 55 fc	 mov	 DWORD PTR _available$[ebp], edx

; 267  : 
; 268  : 			break;

  00c0e	e9 91 13 00 00	 jmp	 $LN2@view_mode_
$LN25@view_mode_:

; 269  : 		}
; 270  : 		////////////////////////////////////////
; 271  : 		case VIEW_MODE_COCKPIT_PANEL_LEVEL_AHEAD:
; 272  : 		////////////////////////////////////////
; 273  : 		{
; 274  : 			available = get_gunship_entity () && get_local_entity_int_value (get_gunship_entity (), INT_TYPE_ALIVE);

  00c13	83 3d 00 00 00
	00 00		 cmp	 DWORD PTR ?gunship_entity@@3PAUENTITY@@A, 0 ; gunship_entity
  00c1a	0f 84 98 00 00
	00		 je	 $LN174@view_mode_
  00c20	83 3d 00 00 00
	00 00		 cmp	 DWORD PTR ?gunship_entity@@3PAUENTITY@@A, 0 ; gunship_entity
  00c27	74 0c		 je	 SHORT $LN170@view_mode_
  00c29	a1 00 00 00 00	 mov	 eax, DWORD PTR ?gunship_entity@@3PAUENTITY@@A ; gunship_entity
  00c2e	8b 08		 mov	 ecx, DWORD PTR [eax]
  00c30	89 4d b8	 mov	 DWORD PTR tv499[ebp], ecx
  00c33	eb 24		 jmp	 SHORT $LN171@view_mode_
$LN170@view_mode_:
  00c35	8b 15 00 00 00
	00		 mov	 edx, DWORD PTR ?__LINE__Var@?0??view_mode_available@@YGHW4VIEW_MODES@@@Z@4JA
  00c3b	81 c2 9a 00 00
	00		 add	 edx, 154		; 0000009aH
  00c41	52		 push	 edx
  00c42	68 00 00 00 00	 push	 OFFSET ??_C@_0EF@LBJPOBFB@c?3?2users?2nhv90?2projects?2eech?2ap@
  00c47	a1 00 00 00 00	 mov	 eax, DWORD PTR ?null_entity_pointer_message@@3PBDB ; null_entity_pointer_message
  00c4c	50		 push	 eax
  00c4d	e8 00 00 00 00	 call	 ?process_assert@@YGXPBD0H@Z ; process_assert
  00c52	c7 45 b8 00 00
	00 00		 mov	 DWORD PTR tv499[ebp], 0
$LN171@view_mode_:
  00c59	b9 01 00 00 00	 mov	 ecx, 1
  00c5e	85 c9		 test	 ecx, ecx
  00c60	74 09		 je	 SHORT $LN172@view_mode_
  00c62	c7 45 b4 07 00
	00 00		 mov	 DWORD PTR tv507[ebp], 7
  00c69	eb 24		 jmp	 SHORT $LN173@view_mode_
$LN172@view_mode_:
  00c6b	8b 15 00 00 00
	00		 mov	 edx, DWORD PTR ?__LINE__Var@?0??view_mode_available@@YGHW4VIEW_MODES@@@Z@4JA
  00c71	81 c2 9a 00 00
	00		 add	 edx, 154		; 0000009aH
  00c77	52		 push	 edx
  00c78	68 00 00 00 00	 push	 OFFSET ??_C@_0EF@LBJPOBFB@c?3?2users?2nhv90?2projects?2eech?2ap@
  00c7d	a1 00 00 00 00	 mov	 eax, DWORD PTR ?overload_invalid_int_type_message@@3PBDB ; overload_invalid_int_type_message
  00c82	50		 push	 eax
  00c83	e8 00 00 00 00	 call	 ?process_assert@@YGXPBD0H@Z ; process_assert
  00c88	c7 45 b4 00 00
	00 00		 mov	 DWORD PTR tv507[ebp], 0
$LN173@view_mode_:
  00c8f	6a 07		 push	 7
  00c91	8b 0d 00 00 00
	00		 mov	 ecx, DWORD PTR ?gunship_entity@@3PAUENTITY@@A ; gunship_entity
  00c97	51		 push	 ecx
  00c98	69 55 b8 5c 04
	00 00		 imul	 edx, DWORD PTR tv499[ebp], 1116
  00c9f	8b 45 b4	 mov	 eax, DWORD PTR tv507[ebp]
  00ca2	8b 8c 82 00 00
	00 00		 mov	 ecx, DWORD PTR ?fn_get_local_entity_int_value@@3PAY0BBH@P6GHPAUENTITY@@W4INT_TYPES@@@ZA[edx+eax*4]
  00ca9	ff d1		 call	 ecx
  00cab	85 c0		 test	 eax, eax
  00cad	74 09		 je	 SHORT $LN174@view_mode_
  00caf	c7 45 b0 01 00
	00 00		 mov	 DWORD PTR tv515[ebp], 1
  00cb6	eb 07		 jmp	 SHORT $LN175@view_mode_
$LN174@view_mode_:
  00cb8	c7 45 b0 00 00
	00 00		 mov	 DWORD PTR tv515[ebp], 0
$LN175@view_mode_:
  00cbf	8b 55 b0	 mov	 edx, DWORD PTR tv515[ebp]
  00cc2	89 55 fc	 mov	 DWORD PTR _available$[ebp], edx

; 275  : 
; 276  : 			break;

  00cc5	e9 da 12 00 00	 jmp	 $LN2@view_mode_
$LN26@view_mode_:

; 277  : 		}
; 278  : 		////////////////////////////////////////
; 279  : 		case VIEW_MODE_COCKPIT_PANEL_LEVEL_RIGHT30:
; 280  : 		////////////////////////////////////////
; 281  : 		{
; 282  : 			available = get_gunship_entity () && get_local_entity_int_value (get_gunship_entity (), INT_TYPE_ALIVE);

  00cca	83 3d 00 00 00
	00 00		 cmp	 DWORD PTR ?gunship_entity@@3PAUENTITY@@A, 0 ; gunship_entity
  00cd1	0f 84 98 00 00
	00		 je	 $LN180@view_mode_
  00cd7	83 3d 00 00 00
	00 00		 cmp	 DWORD PTR ?gunship_entity@@3PAUENTITY@@A, 0 ; gunship_entity
  00cde	74 0c		 je	 SHORT $LN176@view_mode_
  00ce0	a1 00 00 00 00	 mov	 eax, DWORD PTR ?gunship_entity@@3PAUENTITY@@A ; gunship_entity
  00ce5	8b 08		 mov	 ecx, DWORD PTR [eax]
  00ce7	89 4d b8	 mov	 DWORD PTR tv522[ebp], ecx
  00cea	eb 24		 jmp	 SHORT $LN177@view_mode_
$LN176@view_mode_:
  00cec	8b 15 00 00 00
	00		 mov	 edx, DWORD PTR ?__LINE__Var@?0??view_mode_available@@YGHW4VIEW_MODES@@@Z@4JA
  00cf2	81 c2 a2 00 00
	00		 add	 edx, 162		; 000000a2H
  00cf8	52		 push	 edx
  00cf9	68 00 00 00 00	 push	 OFFSET ??_C@_0EF@LBJPOBFB@c?3?2users?2nhv90?2projects?2eech?2ap@
  00cfe	a1 00 00 00 00	 mov	 eax, DWORD PTR ?null_entity_pointer_message@@3PBDB ; null_entity_pointer_message
  00d03	50		 push	 eax
  00d04	e8 00 00 00 00	 call	 ?process_assert@@YGXPBD0H@Z ; process_assert
  00d09	c7 45 b8 00 00
	00 00		 mov	 DWORD PTR tv522[ebp], 0
$LN177@view_mode_:
  00d10	b9 01 00 00 00	 mov	 ecx, 1
  00d15	85 c9		 test	 ecx, ecx
  00d17	74 09		 je	 SHORT $LN178@view_mode_
  00d19	c7 45 b4 07 00
	00 00		 mov	 DWORD PTR tv530[ebp], 7
  00d20	eb 24		 jmp	 SHORT $LN179@view_mode_
$LN178@view_mode_:
  00d22	8b 15 00 00 00
	00		 mov	 edx, DWORD PTR ?__LINE__Var@?0??view_mode_available@@YGHW4VIEW_MODES@@@Z@4JA
  00d28	81 c2 a2 00 00
	00		 add	 edx, 162		; 000000a2H
  00d2e	52		 push	 edx
  00d2f	68 00 00 00 00	 push	 OFFSET ??_C@_0EF@LBJPOBFB@c?3?2users?2nhv90?2projects?2eech?2ap@
  00d34	a1 00 00 00 00	 mov	 eax, DWORD PTR ?overload_invalid_int_type_message@@3PBDB ; overload_invalid_int_type_message
  00d39	50		 push	 eax
  00d3a	e8 00 00 00 00	 call	 ?process_assert@@YGXPBD0H@Z ; process_assert
  00d3f	c7 45 b4 00 00
	00 00		 mov	 DWORD PTR tv530[ebp], 0
$LN179@view_mode_:
  00d46	6a 07		 push	 7
  00d48	8b 0d 00 00 00
	00		 mov	 ecx, DWORD PTR ?gunship_entity@@3PAUENTITY@@A ; gunship_entity
  00d4e	51		 push	 ecx
  00d4f	69 55 b8 5c 04
	00 00		 imul	 edx, DWORD PTR tv522[ebp], 1116
  00d56	8b 45 b4	 mov	 eax, DWORD PTR tv530[ebp]
  00d59	8b 8c 82 00 00
	00 00		 mov	 ecx, DWORD PTR ?fn_get_local_entity_int_value@@3PAY0BBH@P6GHPAUENTITY@@W4INT_TYPES@@@ZA[edx+eax*4]
  00d60	ff d1		 call	 ecx
  00d62	85 c0		 test	 eax, eax
  00d64	74 09		 je	 SHORT $LN180@view_mode_
  00d66	c7 45 b0 01 00
	00 00		 mov	 DWORD PTR tv538[ebp], 1
  00d6d	eb 07		 jmp	 SHORT $LN181@view_mode_
$LN180@view_mode_:
  00d6f	c7 45 b0 00 00
	00 00		 mov	 DWORD PTR tv538[ebp], 0
$LN181@view_mode_:
  00d76	8b 55 b0	 mov	 edx, DWORD PTR tv538[ebp]
  00d79	89 55 fc	 mov	 DWORD PTR _available$[ebp], edx

; 283  : 
; 284  : 			break;

  00d7c	e9 23 12 00 00	 jmp	 $LN2@view_mode_
$LN27@view_mode_:

; 285  : 		}
; 286  : 		////////////////////////////////////////
; 287  : 		case VIEW_MODE_COCKPIT_PANEL_LEVEL_RIGHT60:
; 288  : 		////////////////////////////////////////
; 289  : 		{
; 290  : 			available = get_gunship_entity () && get_local_entity_int_value (get_gunship_entity (), INT_TYPE_ALIVE);

  00d81	83 3d 00 00 00
	00 00		 cmp	 DWORD PTR ?gunship_entity@@3PAUENTITY@@A, 0 ; gunship_entity
  00d88	0f 84 98 00 00
	00		 je	 $LN186@view_mode_
  00d8e	83 3d 00 00 00
	00 00		 cmp	 DWORD PTR ?gunship_entity@@3PAUENTITY@@A, 0 ; gunship_entity
  00d95	74 0c		 je	 SHORT $LN182@view_mode_
  00d97	a1 00 00 00 00	 mov	 eax, DWORD PTR ?gunship_entity@@3PAUENTITY@@A ; gunship_entity
  00d9c	8b 08		 mov	 ecx, DWORD PTR [eax]
  00d9e	89 4d b8	 mov	 DWORD PTR tv545[ebp], ecx
  00da1	eb 24		 jmp	 SHORT $LN183@view_mode_
$LN182@view_mode_:
  00da3	8b 15 00 00 00
	00		 mov	 edx, DWORD PTR ?__LINE__Var@?0??view_mode_available@@YGHW4VIEW_MODES@@@Z@4JA
  00da9	81 c2 aa 00 00
	00		 add	 edx, 170		; 000000aaH
  00daf	52		 push	 edx
  00db0	68 00 00 00 00	 push	 OFFSET ??_C@_0EF@LBJPOBFB@c?3?2users?2nhv90?2projects?2eech?2ap@
  00db5	a1 00 00 00 00	 mov	 eax, DWORD PTR ?null_entity_pointer_message@@3PBDB ; null_entity_pointer_message
  00dba	50		 push	 eax
  00dbb	e8 00 00 00 00	 call	 ?process_assert@@YGXPBD0H@Z ; process_assert
  00dc0	c7 45 b8 00 00
	00 00		 mov	 DWORD PTR tv545[ebp], 0
$LN183@view_mode_:
  00dc7	b9 01 00 00 00	 mov	 ecx, 1
  00dcc	85 c9		 test	 ecx, ecx
  00dce	74 09		 je	 SHORT $LN184@view_mode_
  00dd0	c7 45 b4 07 00
	00 00		 mov	 DWORD PTR tv553[ebp], 7
  00dd7	eb 24		 jmp	 SHORT $LN185@view_mode_
$LN184@view_mode_:
  00dd9	8b 15 00 00 00
	00		 mov	 edx, DWORD PTR ?__LINE__Var@?0??view_mode_available@@YGHW4VIEW_MODES@@@Z@4JA
  00ddf	81 c2 aa 00 00
	00		 add	 edx, 170		; 000000aaH
  00de5	52		 push	 edx
  00de6	68 00 00 00 00	 push	 OFFSET ??_C@_0EF@LBJPOBFB@c?3?2users?2nhv90?2projects?2eech?2ap@
  00deb	a1 00 00 00 00	 mov	 eax, DWORD PTR ?overload_invalid_int_type_message@@3PBDB ; overload_invalid_int_type_message
  00df0	50		 push	 eax
  00df1	e8 00 00 00 00	 call	 ?process_assert@@YGXPBD0H@Z ; process_assert
  00df6	c7 45 b4 00 00
	00 00		 mov	 DWORD PTR tv553[ebp], 0
$LN185@view_mode_:
  00dfd	6a 07		 push	 7
  00dff	8b 0d 00 00 00
	00		 mov	 ecx, DWORD PTR ?gunship_entity@@3PAUENTITY@@A ; gunship_entity
  00e05	51		 push	 ecx
  00e06	69 55 b8 5c 04
	00 00		 imul	 edx, DWORD PTR tv545[ebp], 1116
  00e0d	8b 45 b4	 mov	 eax, DWORD PTR tv553[ebp]
  00e10	8b 8c 82 00 00
	00 00		 mov	 ecx, DWORD PTR ?fn_get_local_entity_int_value@@3PAY0BBH@P6GHPAUENTITY@@W4INT_TYPES@@@ZA[edx+eax*4]
  00e17	ff d1		 call	 ecx
  00e19	85 c0		 test	 eax, eax
  00e1b	74 09		 je	 SHORT $LN186@view_mode_
  00e1d	c7 45 b0 01 00
	00 00		 mov	 DWORD PTR tv561[ebp], 1
  00e24	eb 07		 jmp	 SHORT $LN187@view_mode_
$LN186@view_mode_:
  00e26	c7 45 b0 00 00
	00 00		 mov	 DWORD PTR tv561[ebp], 0
$LN187@view_mode_:
  00e2d	8b 55 b0	 mov	 edx, DWORD PTR tv561[ebp]
  00e30	89 55 fc	 mov	 DWORD PTR _available$[ebp], edx

; 291  : 
; 292  : 			break;

  00e33	e9 6c 11 00 00	 jmp	 $LN2@view_mode_
$LN28@view_mode_:

; 293  : 		}
; 294  : 		////////////////////////////////////////
; 295  : 		case VIEW_MODE_COCKPIT_PANEL_LEVEL_RIGHT90:
; 296  : 		////////////////////////////////////////
; 297  : 		{
; 298  : 			available = get_gunship_entity () && get_local_entity_int_value (get_gunship_entity (), INT_TYPE_ALIVE);

  00e38	83 3d 00 00 00
	00 00		 cmp	 DWORD PTR ?gunship_entity@@3PAUENTITY@@A, 0 ; gunship_entity
  00e3f	0f 84 98 00 00
	00		 je	 $LN192@view_mode_
  00e45	83 3d 00 00 00
	00 00		 cmp	 DWORD PTR ?gunship_entity@@3PAUENTITY@@A, 0 ; gunship_entity
  00e4c	74 0c		 je	 SHORT $LN188@view_mode_
  00e4e	a1 00 00 00 00	 mov	 eax, DWORD PTR ?gunship_entity@@3PAUENTITY@@A ; gunship_entity
  00e53	8b 08		 mov	 ecx, DWORD PTR [eax]
  00e55	89 4d b8	 mov	 DWORD PTR tv568[ebp], ecx
  00e58	eb 24		 jmp	 SHORT $LN189@view_mode_
$LN188@view_mode_:
  00e5a	8b 15 00 00 00
	00		 mov	 edx, DWORD PTR ?__LINE__Var@?0??view_mode_available@@YGHW4VIEW_MODES@@@Z@4JA
  00e60	81 c2 b2 00 00
	00		 add	 edx, 178		; 000000b2H
  00e66	52		 push	 edx
  00e67	68 00 00 00 00	 push	 OFFSET ??_C@_0EF@LBJPOBFB@c?3?2users?2nhv90?2projects?2eech?2ap@
  00e6c	a1 00 00 00 00	 mov	 eax, DWORD PTR ?null_entity_pointer_message@@3PBDB ; null_entity_pointer_message
  00e71	50		 push	 eax
  00e72	e8 00 00 00 00	 call	 ?process_assert@@YGXPBD0H@Z ; process_assert
  00e77	c7 45 b8 00 00
	00 00		 mov	 DWORD PTR tv568[ebp], 0
$LN189@view_mode_:
  00e7e	b9 01 00 00 00	 mov	 ecx, 1
  00e83	85 c9		 test	 ecx, ecx
  00e85	74 09		 je	 SHORT $LN190@view_mode_
  00e87	c7 45 b4 07 00
	00 00		 mov	 DWORD PTR tv576[ebp], 7
  00e8e	eb 24		 jmp	 SHORT $LN191@view_mode_
$LN190@view_mode_:
  00e90	8b 15 00 00 00
	00		 mov	 edx, DWORD PTR ?__LINE__Var@?0??view_mode_available@@YGHW4VIEW_MODES@@@Z@4JA
  00e96	81 c2 b2 00 00
	00		 add	 edx, 178		; 000000b2H
  00e9c	52		 push	 edx
  00e9d	68 00 00 00 00	 push	 OFFSET ??_C@_0EF@LBJPOBFB@c?3?2users?2nhv90?2projects?2eech?2ap@
  00ea2	a1 00 00 00 00	 mov	 eax, DWORD PTR ?overload_invalid_int_type_message@@3PBDB ; overload_invalid_int_type_message
  00ea7	50		 push	 eax
  00ea8	e8 00 00 00 00	 call	 ?process_assert@@YGXPBD0H@Z ; process_assert
  00ead	c7 45 b4 00 00
	00 00		 mov	 DWORD PTR tv576[ebp], 0
$LN191@view_mode_:
  00eb4	6a 07		 push	 7
  00eb6	8b 0d 00 00 00
	00		 mov	 ecx, DWORD PTR ?gunship_entity@@3PAUENTITY@@A ; gunship_entity
  00ebc	51		 push	 ecx
  00ebd	69 55 b8 5c 04
	00 00		 imul	 edx, DWORD PTR tv568[ebp], 1116
  00ec4	8b 45 b4	 mov	 eax, DWORD PTR tv576[ebp]
  00ec7	8b 8c 82 00 00
	00 00		 mov	 ecx, DWORD PTR ?fn_get_local_entity_int_value@@3PAY0BBH@P6GHPAUENTITY@@W4INT_TYPES@@@ZA[edx+eax*4]
  00ece	ff d1		 call	 ecx
  00ed0	85 c0		 test	 eax, eax
  00ed2	74 09		 je	 SHORT $LN192@view_mode_
  00ed4	c7 45 b0 01 00
	00 00		 mov	 DWORD PTR tv584[ebp], 1
  00edb	eb 07		 jmp	 SHORT $LN193@view_mode_
$LN192@view_mode_:
  00edd	c7 45 b0 00 00
	00 00		 mov	 DWORD PTR tv584[ebp], 0
$LN193@view_mode_:
  00ee4	8b 55 b0	 mov	 edx, DWORD PTR tv584[ebp]
  00ee7	89 55 fc	 mov	 DWORD PTR _available$[ebp], edx

; 299  : 
; 300  : 			break;

  00eea	e9 b5 10 00 00	 jmp	 $LN2@view_mode_
$LN29@view_mode_:

; 301  : 		}
; 302  : 		////////////////////////////////////////
; 303  : 		case VIEW_MODE_COCKPIT_PANEL_DOWN20_LEFT90:
; 304  : 		////////////////////////////////////////
; 305  : 		{
; 306  : 			available = get_gunship_entity () && get_local_entity_int_value (get_gunship_entity (), INT_TYPE_ALIVE);

  00eef	83 3d 00 00 00
	00 00		 cmp	 DWORD PTR ?gunship_entity@@3PAUENTITY@@A, 0 ; gunship_entity
  00ef6	0f 84 98 00 00
	00		 je	 $LN198@view_mode_
  00efc	83 3d 00 00 00
	00 00		 cmp	 DWORD PTR ?gunship_entity@@3PAUENTITY@@A, 0 ; gunship_entity
  00f03	74 0c		 je	 SHORT $LN194@view_mode_
  00f05	a1 00 00 00 00	 mov	 eax, DWORD PTR ?gunship_entity@@3PAUENTITY@@A ; gunship_entity
  00f0a	8b 08		 mov	 ecx, DWORD PTR [eax]
  00f0c	89 4d b8	 mov	 DWORD PTR tv591[ebp], ecx
  00f0f	eb 24		 jmp	 SHORT $LN195@view_mode_
$LN194@view_mode_:
  00f11	8b 15 00 00 00
	00		 mov	 edx, DWORD PTR ?__LINE__Var@?0??view_mode_available@@YGHW4VIEW_MODES@@@Z@4JA
  00f17	81 c2 ba 00 00
	00		 add	 edx, 186		; 000000baH
  00f1d	52		 push	 edx
  00f1e	68 00 00 00 00	 push	 OFFSET ??_C@_0EF@LBJPOBFB@c?3?2users?2nhv90?2projects?2eech?2ap@
  00f23	a1 00 00 00 00	 mov	 eax, DWORD PTR ?null_entity_pointer_message@@3PBDB ; null_entity_pointer_message
  00f28	50		 push	 eax
  00f29	e8 00 00 00 00	 call	 ?process_assert@@YGXPBD0H@Z ; process_assert
  00f2e	c7 45 b8 00 00
	00 00		 mov	 DWORD PTR tv591[ebp], 0
$LN195@view_mode_:
  00f35	b9 01 00 00 00	 mov	 ecx, 1
  00f3a	85 c9		 test	 ecx, ecx
  00f3c	74 09		 je	 SHORT $LN196@view_mode_
  00f3e	c7 45 b4 07 00
	00 00		 mov	 DWORD PTR tv599[ebp], 7
  00f45	eb 24		 jmp	 SHORT $LN197@view_mode_
$LN196@view_mode_:
  00f47	8b 15 00 00 00
	00		 mov	 edx, DWORD PTR ?__LINE__Var@?0??view_mode_available@@YGHW4VIEW_MODES@@@Z@4JA
  00f4d	81 c2 ba 00 00
	00		 add	 edx, 186		; 000000baH
  00f53	52		 push	 edx
  00f54	68 00 00 00 00	 push	 OFFSET ??_C@_0EF@LBJPOBFB@c?3?2users?2nhv90?2projects?2eech?2ap@
  00f59	a1 00 00 00 00	 mov	 eax, DWORD PTR ?overload_invalid_int_type_message@@3PBDB ; overload_invalid_int_type_message
  00f5e	50		 push	 eax
  00f5f	e8 00 00 00 00	 call	 ?process_assert@@YGXPBD0H@Z ; process_assert
  00f64	c7 45 b4 00 00
	00 00		 mov	 DWORD PTR tv599[ebp], 0
$LN197@view_mode_:
  00f6b	6a 07		 push	 7
  00f6d	8b 0d 00 00 00
	00		 mov	 ecx, DWORD PTR ?gunship_entity@@3PAUENTITY@@A ; gunship_entity
  00f73	51		 push	 ecx
  00f74	69 55 b8 5c 04
	00 00		 imul	 edx, DWORD PTR tv591[ebp], 1116
  00f7b	8b 45 b4	 mov	 eax, DWORD PTR tv599[ebp]
  00f7e	8b 8c 82 00 00
	00 00		 mov	 ecx, DWORD PTR ?fn_get_local_entity_int_value@@3PAY0BBH@P6GHPAUENTITY@@W4INT_TYPES@@@ZA[edx+eax*4]
  00f85	ff d1		 call	 ecx
  00f87	85 c0		 test	 eax, eax
  00f89	74 09		 je	 SHORT $LN198@view_mode_
  00f8b	c7 45 b0 01 00
	00 00		 mov	 DWORD PTR tv607[ebp], 1
  00f92	eb 07		 jmp	 SHORT $LN199@view_mode_
$LN198@view_mode_:
  00f94	c7 45 b0 00 00
	00 00		 mov	 DWORD PTR tv607[ebp], 0
$LN199@view_mode_:
  00f9b	8b 55 b0	 mov	 edx, DWORD PTR tv607[ebp]
  00f9e	89 55 fc	 mov	 DWORD PTR _available$[ebp], edx

; 307  : 
; 308  : 			break;

  00fa1	e9 fe 0f 00 00	 jmp	 $LN2@view_mode_
$LN30@view_mode_:

; 309  : 		}
; 310  : 		////////////////////////////////////////
; 311  : 		case VIEW_MODE_COCKPIT_PANEL_DOWN20_LEFT60:
; 312  : 		////////////////////////////////////////
; 313  : 		{
; 314  : 			available = get_gunship_entity () && get_local_entity_int_value (get_gunship_entity (), INT_TYPE_ALIVE);

  00fa6	83 3d 00 00 00
	00 00		 cmp	 DWORD PTR ?gunship_entity@@3PAUENTITY@@A, 0 ; gunship_entity
  00fad	0f 84 98 00 00
	00		 je	 $LN204@view_mode_
  00fb3	83 3d 00 00 00
	00 00		 cmp	 DWORD PTR ?gunship_entity@@3PAUENTITY@@A, 0 ; gunship_entity
  00fba	74 0c		 je	 SHORT $LN200@view_mode_
  00fbc	a1 00 00 00 00	 mov	 eax, DWORD PTR ?gunship_entity@@3PAUENTITY@@A ; gunship_entity
  00fc1	8b 08		 mov	 ecx, DWORD PTR [eax]
  00fc3	89 4d b8	 mov	 DWORD PTR tv614[ebp], ecx
  00fc6	eb 24		 jmp	 SHORT $LN201@view_mode_
$LN200@view_mode_:
  00fc8	8b 15 00 00 00
	00		 mov	 edx, DWORD PTR ?__LINE__Var@?0??view_mode_available@@YGHW4VIEW_MODES@@@Z@4JA
  00fce	81 c2 c2 00 00
	00		 add	 edx, 194		; 000000c2H
  00fd4	52		 push	 edx
  00fd5	68 00 00 00 00	 push	 OFFSET ??_C@_0EF@LBJPOBFB@c?3?2users?2nhv90?2projects?2eech?2ap@
  00fda	a1 00 00 00 00	 mov	 eax, DWORD PTR ?null_entity_pointer_message@@3PBDB ; null_entity_pointer_message
  00fdf	50		 push	 eax
  00fe0	e8 00 00 00 00	 call	 ?process_assert@@YGXPBD0H@Z ; process_assert
  00fe5	c7 45 b8 00 00
	00 00		 mov	 DWORD PTR tv614[ebp], 0
$LN201@view_mode_:
  00fec	b9 01 00 00 00	 mov	 ecx, 1
  00ff1	85 c9		 test	 ecx, ecx
  00ff3	74 09		 je	 SHORT $LN202@view_mode_
  00ff5	c7 45 b4 07 00
	00 00		 mov	 DWORD PTR tv622[ebp], 7
  00ffc	eb 24		 jmp	 SHORT $LN203@view_mode_
$LN202@view_mode_:
  00ffe	8b 15 00 00 00
	00		 mov	 edx, DWORD PTR ?__LINE__Var@?0??view_mode_available@@YGHW4VIEW_MODES@@@Z@4JA
  01004	81 c2 c2 00 00
	00		 add	 edx, 194		; 000000c2H
  0100a	52		 push	 edx
  0100b	68 00 00 00 00	 push	 OFFSET ??_C@_0EF@LBJPOBFB@c?3?2users?2nhv90?2projects?2eech?2ap@
  01010	a1 00 00 00 00	 mov	 eax, DWORD PTR ?overload_invalid_int_type_message@@3PBDB ; overload_invalid_int_type_message
  01015	50		 push	 eax
  01016	e8 00 00 00 00	 call	 ?process_assert@@YGXPBD0H@Z ; process_assert
  0101b	c7 45 b4 00 00
	00 00		 mov	 DWORD PTR tv622[ebp], 0
$LN203@view_mode_:
  01022	6a 07		 push	 7
  01024	8b 0d 00 00 00
	00		 mov	 ecx, DWORD PTR ?gunship_entity@@3PAUENTITY@@A ; gunship_entity
  0102a	51		 push	 ecx
  0102b	69 55 b8 5c 04
	00 00		 imul	 edx, DWORD PTR tv614[ebp], 1116
  01032	8b 45 b4	 mov	 eax, DWORD PTR tv622[ebp]
  01035	8b 8c 82 00 00
	00 00		 mov	 ecx, DWORD PTR ?fn_get_local_entity_int_value@@3PAY0BBH@P6GHPAUENTITY@@W4INT_TYPES@@@ZA[edx+eax*4]
  0103c	ff d1		 call	 ecx
  0103e	85 c0		 test	 eax, eax
  01040	74 09		 je	 SHORT $LN204@view_mode_
  01042	c7 45 b0 01 00
	00 00		 mov	 DWORD PTR tv630[ebp], 1
  01049	eb 07		 jmp	 SHORT $LN205@view_mode_
$LN204@view_mode_:
  0104b	c7 45 b0 00 00
	00 00		 mov	 DWORD PTR tv630[ebp], 0
$LN205@view_mode_:
  01052	8b 55 b0	 mov	 edx, DWORD PTR tv630[ebp]
  01055	89 55 fc	 mov	 DWORD PTR _available$[ebp], edx

; 315  : 
; 316  : 			break;

  01058	e9 47 0f 00 00	 jmp	 $LN2@view_mode_
$LN31@view_mode_:

; 317  : 		}
; 318  : 		////////////////////////////////////////
; 319  : 		case VIEW_MODE_COCKPIT_PANEL_DOWN20_LEFT30:
; 320  : 		////////////////////////////////////////
; 321  : 		{
; 322  : 			available = get_gunship_entity () && get_local_entity_int_value (get_gunship_entity (), INT_TYPE_ALIVE);

  0105d	83 3d 00 00 00
	00 00		 cmp	 DWORD PTR ?gunship_entity@@3PAUENTITY@@A, 0 ; gunship_entity
  01064	0f 84 98 00 00
	00		 je	 $LN210@view_mode_
  0106a	83 3d 00 00 00
	00 00		 cmp	 DWORD PTR ?gunship_entity@@3PAUENTITY@@A, 0 ; gunship_entity
  01071	74 0c		 je	 SHORT $LN206@view_mode_
  01073	a1 00 00 00 00	 mov	 eax, DWORD PTR ?gunship_entity@@3PAUENTITY@@A ; gunship_entity
  01078	8b 08		 mov	 ecx, DWORD PTR [eax]
  0107a	89 4d b8	 mov	 DWORD PTR tv637[ebp], ecx
  0107d	eb 24		 jmp	 SHORT $LN207@view_mode_
$LN206@view_mode_:
  0107f	8b 15 00 00 00
	00		 mov	 edx, DWORD PTR ?__LINE__Var@?0??view_mode_available@@YGHW4VIEW_MODES@@@Z@4JA
  01085	81 c2 ca 00 00
	00		 add	 edx, 202		; 000000caH
  0108b	52		 push	 edx
  0108c	68 00 00 00 00	 push	 OFFSET ??_C@_0EF@LBJPOBFB@c?3?2users?2nhv90?2projects?2eech?2ap@
  01091	a1 00 00 00 00	 mov	 eax, DWORD PTR ?null_entity_pointer_message@@3PBDB ; null_entity_pointer_message
  01096	50		 push	 eax
  01097	e8 00 00 00 00	 call	 ?process_assert@@YGXPBD0H@Z ; process_assert
  0109c	c7 45 b8 00 00
	00 00		 mov	 DWORD PTR tv637[ebp], 0
$LN207@view_mode_:
  010a3	b9 01 00 00 00	 mov	 ecx, 1
  010a8	85 c9		 test	 ecx, ecx
  010aa	74 09		 je	 SHORT $LN208@view_mode_
  010ac	c7 45 b4 07 00
	00 00		 mov	 DWORD PTR tv645[ebp], 7
  010b3	eb 24		 jmp	 SHORT $LN209@view_mode_
$LN208@view_mode_:
  010b5	8b 15 00 00 00
	00		 mov	 edx, DWORD PTR ?__LINE__Var@?0??view_mode_available@@YGHW4VIEW_MODES@@@Z@4JA
  010bb	81 c2 ca 00 00
	00		 add	 edx, 202		; 000000caH
  010c1	52		 push	 edx
  010c2	68 00 00 00 00	 push	 OFFSET ??_C@_0EF@LBJPOBFB@c?3?2users?2nhv90?2projects?2eech?2ap@
  010c7	a1 00 00 00 00	 mov	 eax, DWORD PTR ?overload_invalid_int_type_message@@3PBDB ; overload_invalid_int_type_message
  010cc	50		 push	 eax
  010cd	e8 00 00 00 00	 call	 ?process_assert@@YGXPBD0H@Z ; process_assert
  010d2	c7 45 b4 00 00
	00 00		 mov	 DWORD PTR tv645[ebp], 0
$LN209@view_mode_:
  010d9	6a 07		 push	 7
  010db	8b 0d 00 00 00
	00		 mov	 ecx, DWORD PTR ?gunship_entity@@3PAUENTITY@@A ; gunship_entity
  010e1	51		 push	 ecx
  010e2	69 55 b8 5c 04
	00 00		 imul	 edx, DWORD PTR tv637[ebp], 1116
  010e9	8b 45 b4	 mov	 eax, DWORD PTR tv645[ebp]
  010ec	8b 8c 82 00 00
	00 00		 mov	 ecx, DWORD PTR ?fn_get_local_entity_int_value@@3PAY0BBH@P6GHPAUENTITY@@W4INT_TYPES@@@ZA[edx+eax*4]
  010f3	ff d1		 call	 ecx
  010f5	85 c0		 test	 eax, eax
  010f7	74 09		 je	 SHORT $LN210@view_mode_
  010f9	c7 45 b0 01 00
	00 00		 mov	 DWORD PTR tv653[ebp], 1
  01100	eb 07		 jmp	 SHORT $LN211@view_mode_
$LN210@view_mode_:
  01102	c7 45 b0 00 00
	00 00		 mov	 DWORD PTR tv653[ebp], 0
$LN211@view_mode_:
  01109	8b 55 b0	 mov	 edx, DWORD PTR tv653[ebp]
  0110c	89 55 fc	 mov	 DWORD PTR _available$[ebp], edx

; 323  : 
; 324  : 			break;

  0110f	e9 90 0e 00 00	 jmp	 $LN2@view_mode_
$LN32@view_mode_:

; 325  : 		}
; 326  : 		////////////////////////////////////////
; 327  : 		case VIEW_MODE_COCKPIT_PANEL_DOWN20_AHEAD:
; 328  : 		////////////////////////////////////////
; 329  : 		{
; 330  : 			available = get_gunship_entity () && get_local_entity_int_value (get_gunship_entity (), INT_TYPE_ALIVE);

  01114	83 3d 00 00 00
	00 00		 cmp	 DWORD PTR ?gunship_entity@@3PAUENTITY@@A, 0 ; gunship_entity
  0111b	0f 84 98 00 00
	00		 je	 $LN216@view_mode_
  01121	83 3d 00 00 00
	00 00		 cmp	 DWORD PTR ?gunship_entity@@3PAUENTITY@@A, 0 ; gunship_entity
  01128	74 0c		 je	 SHORT $LN212@view_mode_
  0112a	a1 00 00 00 00	 mov	 eax, DWORD PTR ?gunship_entity@@3PAUENTITY@@A ; gunship_entity
  0112f	8b 08		 mov	 ecx, DWORD PTR [eax]
  01131	89 4d b8	 mov	 DWORD PTR tv660[ebp], ecx
  01134	eb 24		 jmp	 SHORT $LN213@view_mode_
$LN212@view_mode_:
  01136	8b 15 00 00 00
	00		 mov	 edx, DWORD PTR ?__LINE__Var@?0??view_mode_available@@YGHW4VIEW_MODES@@@Z@4JA
  0113c	81 c2 d2 00 00
	00		 add	 edx, 210		; 000000d2H
  01142	52		 push	 edx
  01143	68 00 00 00 00	 push	 OFFSET ??_C@_0EF@LBJPOBFB@c?3?2users?2nhv90?2projects?2eech?2ap@
  01148	a1 00 00 00 00	 mov	 eax, DWORD PTR ?null_entity_pointer_message@@3PBDB ; null_entity_pointer_message
  0114d	50		 push	 eax
  0114e	e8 00 00 00 00	 call	 ?process_assert@@YGXPBD0H@Z ; process_assert
  01153	c7 45 b8 00 00
	00 00		 mov	 DWORD PTR tv660[ebp], 0
$LN213@view_mode_:
  0115a	b9 01 00 00 00	 mov	 ecx, 1
  0115f	85 c9		 test	 ecx, ecx
  01161	74 09		 je	 SHORT $LN214@view_mode_
  01163	c7 45 b4 07 00
	00 00		 mov	 DWORD PTR tv668[ebp], 7
  0116a	eb 24		 jmp	 SHORT $LN215@view_mode_
$LN214@view_mode_:
  0116c	8b 15 00 00 00
	00		 mov	 edx, DWORD PTR ?__LINE__Var@?0??view_mode_available@@YGHW4VIEW_MODES@@@Z@4JA
  01172	81 c2 d2 00 00
	00		 add	 edx, 210		; 000000d2H
  01178	52		 push	 edx
  01179	68 00 00 00 00	 push	 OFFSET ??_C@_0EF@LBJPOBFB@c?3?2users?2nhv90?2projects?2eech?2ap@
  0117e	a1 00 00 00 00	 mov	 eax, DWORD PTR ?overload_invalid_int_type_message@@3PBDB ; overload_invalid_int_type_message
  01183	50		 push	 eax
  01184	e8 00 00 00 00	 call	 ?process_assert@@YGXPBD0H@Z ; process_assert
  01189	c7 45 b4 00 00
	00 00		 mov	 DWORD PTR tv668[ebp], 0
$LN215@view_mode_:
  01190	6a 07		 push	 7
  01192	8b 0d 00 00 00
	00		 mov	 ecx, DWORD PTR ?gunship_entity@@3PAUENTITY@@A ; gunship_entity
  01198	51		 push	 ecx
  01199	69 55 b8 5c 04
	00 00		 imul	 edx, DWORD PTR tv660[ebp], 1116
  011a0	8b 45 b4	 mov	 eax, DWORD PTR tv668[ebp]
  011a3	8b 8c 82 00 00
	00 00		 mov	 ecx, DWORD PTR ?fn_get_local_entity_int_value@@3PAY0BBH@P6GHPAUENTITY@@W4INT_TYPES@@@ZA[edx+eax*4]
  011aa	ff d1		 call	 ecx
  011ac	85 c0		 test	 eax, eax
  011ae	74 09		 je	 SHORT $LN216@view_mode_
  011b0	c7 45 b0 01 00
	00 00		 mov	 DWORD PTR tv676[ebp], 1
  011b7	eb 07		 jmp	 SHORT $LN217@view_mode_
$LN216@view_mode_:
  011b9	c7 45 b0 00 00
	00 00		 mov	 DWORD PTR tv676[ebp], 0
$LN217@view_mode_:
  011c0	8b 55 b0	 mov	 edx, DWORD PTR tv676[ebp]
  011c3	89 55 fc	 mov	 DWORD PTR _available$[ebp], edx

; 331  : 
; 332  : 			break;

  011c6	e9 d9 0d 00 00	 jmp	 $LN2@view_mode_
$LN33@view_mode_:

; 333  : 		}
; 334  : 		////////////////////////////////////////
; 335  : 		case VIEW_MODE_COCKPIT_PANEL_DOWN20_RIGHT30:
; 336  : 		////////////////////////////////////////
; 337  : 		{
; 338  : 			available = get_gunship_entity () && get_local_entity_int_value (get_gunship_entity (), INT_TYPE_ALIVE);

  011cb	83 3d 00 00 00
	00 00		 cmp	 DWORD PTR ?gunship_entity@@3PAUENTITY@@A, 0 ; gunship_entity
  011d2	0f 84 98 00 00
	00		 je	 $LN222@view_mode_
  011d8	83 3d 00 00 00
	00 00		 cmp	 DWORD PTR ?gunship_entity@@3PAUENTITY@@A, 0 ; gunship_entity
  011df	74 0c		 je	 SHORT $LN218@view_mode_
  011e1	a1 00 00 00 00	 mov	 eax, DWORD PTR ?gunship_entity@@3PAUENTITY@@A ; gunship_entity
  011e6	8b 08		 mov	 ecx, DWORD PTR [eax]
  011e8	89 4d b8	 mov	 DWORD PTR tv683[ebp], ecx
  011eb	eb 24		 jmp	 SHORT $LN219@view_mode_
$LN218@view_mode_:
  011ed	8b 15 00 00 00
	00		 mov	 edx, DWORD PTR ?__LINE__Var@?0??view_mode_available@@YGHW4VIEW_MODES@@@Z@4JA
  011f3	81 c2 da 00 00
	00		 add	 edx, 218		; 000000daH
  011f9	52		 push	 edx
  011fa	68 00 00 00 00	 push	 OFFSET ??_C@_0EF@LBJPOBFB@c?3?2users?2nhv90?2projects?2eech?2ap@
  011ff	a1 00 00 00 00	 mov	 eax, DWORD PTR ?null_entity_pointer_message@@3PBDB ; null_entity_pointer_message
  01204	50		 push	 eax
  01205	e8 00 00 00 00	 call	 ?process_assert@@YGXPBD0H@Z ; process_assert
  0120a	c7 45 b8 00 00
	00 00		 mov	 DWORD PTR tv683[ebp], 0
$LN219@view_mode_:
  01211	b9 01 00 00 00	 mov	 ecx, 1
  01216	85 c9		 test	 ecx, ecx
  01218	74 09		 je	 SHORT $LN220@view_mode_
  0121a	c7 45 b4 07 00
	00 00		 mov	 DWORD PTR tv691[ebp], 7
  01221	eb 24		 jmp	 SHORT $LN221@view_mode_
$LN220@view_mode_:
  01223	8b 15 00 00 00
	00		 mov	 edx, DWORD PTR ?__LINE__Var@?0??view_mode_available@@YGHW4VIEW_MODES@@@Z@4JA
  01229	81 c2 da 00 00
	00		 add	 edx, 218		; 000000daH
  0122f	52		 push	 edx
  01230	68 00 00 00 00	 push	 OFFSET ??_C@_0EF@LBJPOBFB@c?3?2users?2nhv90?2projects?2eech?2ap@
  01235	a1 00 00 00 00	 mov	 eax, DWORD PTR ?overload_invalid_int_type_message@@3PBDB ; overload_invalid_int_type_message
  0123a	50		 push	 eax
  0123b	e8 00 00 00 00	 call	 ?process_assert@@YGXPBD0H@Z ; process_assert
  01240	c7 45 b4 00 00
	00 00		 mov	 DWORD PTR tv691[ebp], 0
$LN221@view_mode_:
  01247	6a 07		 push	 7
  01249	8b 0d 00 00 00
	00		 mov	 ecx, DWORD PTR ?gunship_entity@@3PAUENTITY@@A ; gunship_entity
  0124f	51		 push	 ecx
  01250	69 55 b8 5c 04
	00 00		 imul	 edx, DWORD PTR tv683[ebp], 1116
  01257	8b 45 b4	 mov	 eax, DWORD PTR tv691[ebp]
  0125a	8b 8c 82 00 00
	00 00		 mov	 ecx, DWORD PTR ?fn_get_local_entity_int_value@@3PAY0BBH@P6GHPAUENTITY@@W4INT_TYPES@@@ZA[edx+eax*4]
  01261	ff d1		 call	 ecx
  01263	85 c0		 test	 eax, eax
  01265	74 09		 je	 SHORT $LN222@view_mode_
  01267	c7 45 b0 01 00
	00 00		 mov	 DWORD PTR tv699[ebp], 1
  0126e	eb 07		 jmp	 SHORT $LN223@view_mode_
$LN222@view_mode_:
  01270	c7 45 b0 00 00
	00 00		 mov	 DWORD PTR tv699[ebp], 0
$LN223@view_mode_:
  01277	8b 55 b0	 mov	 edx, DWORD PTR tv699[ebp]
  0127a	89 55 fc	 mov	 DWORD PTR _available$[ebp], edx

; 339  : 
; 340  : 			break;

  0127d	e9 22 0d 00 00	 jmp	 $LN2@view_mode_
$LN34@view_mode_:

; 341  : 		}
; 342  : 		////////////////////////////////////////
; 343  : 		case VIEW_MODE_COCKPIT_PANEL_DOWN20_RIGHT60:
; 344  : 		////////////////////////////////////////
; 345  : 		{
; 346  : 			available = get_gunship_entity () && get_local_entity_int_value (get_gunship_entity (), INT_TYPE_ALIVE);

  01282	83 3d 00 00 00
	00 00		 cmp	 DWORD PTR ?gunship_entity@@3PAUENTITY@@A, 0 ; gunship_entity
  01289	0f 84 98 00 00
	00		 je	 $LN228@view_mode_
  0128f	83 3d 00 00 00
	00 00		 cmp	 DWORD PTR ?gunship_entity@@3PAUENTITY@@A, 0 ; gunship_entity
  01296	74 0c		 je	 SHORT $LN224@view_mode_
  01298	a1 00 00 00 00	 mov	 eax, DWORD PTR ?gunship_entity@@3PAUENTITY@@A ; gunship_entity
  0129d	8b 08		 mov	 ecx, DWORD PTR [eax]
  0129f	89 4d b8	 mov	 DWORD PTR tv706[ebp], ecx
  012a2	eb 24		 jmp	 SHORT $LN225@view_mode_
$LN224@view_mode_:
  012a4	8b 15 00 00 00
	00		 mov	 edx, DWORD PTR ?__LINE__Var@?0??view_mode_available@@YGHW4VIEW_MODES@@@Z@4JA
  012aa	81 c2 e2 00 00
	00		 add	 edx, 226		; 000000e2H
  012b0	52		 push	 edx
  012b1	68 00 00 00 00	 push	 OFFSET ??_C@_0EF@LBJPOBFB@c?3?2users?2nhv90?2projects?2eech?2ap@
  012b6	a1 00 00 00 00	 mov	 eax, DWORD PTR ?null_entity_pointer_message@@3PBDB ; null_entity_pointer_message
  012bb	50		 push	 eax
  012bc	e8 00 00 00 00	 call	 ?process_assert@@YGXPBD0H@Z ; process_assert
  012c1	c7 45 b8 00 00
	00 00		 mov	 DWORD PTR tv706[ebp], 0
$LN225@view_mode_:
  012c8	b9 01 00 00 00	 mov	 ecx, 1
  012cd	85 c9		 test	 ecx, ecx
  012cf	74 09		 je	 SHORT $LN226@view_mode_
  012d1	c7 45 b4 07 00
	00 00		 mov	 DWORD PTR tv714[ebp], 7
  012d8	eb 24		 jmp	 SHORT $LN227@view_mode_
$LN226@view_mode_:
  012da	8b 15 00 00 00
	00		 mov	 edx, DWORD PTR ?__LINE__Var@?0??view_mode_available@@YGHW4VIEW_MODES@@@Z@4JA
  012e0	81 c2 e2 00 00
	00		 add	 edx, 226		; 000000e2H
  012e6	52		 push	 edx
  012e7	68 00 00 00 00	 push	 OFFSET ??_C@_0EF@LBJPOBFB@c?3?2users?2nhv90?2projects?2eech?2ap@
  012ec	a1 00 00 00 00	 mov	 eax, DWORD PTR ?overload_invalid_int_type_message@@3PBDB ; overload_invalid_int_type_message
  012f1	50		 push	 eax
  012f2	e8 00 00 00 00	 call	 ?process_assert@@YGXPBD0H@Z ; process_assert
  012f7	c7 45 b4 00 00
	00 00		 mov	 DWORD PTR tv714[ebp], 0
$LN227@view_mode_:
  012fe	6a 07		 push	 7
  01300	8b 0d 00 00 00
	00		 mov	 ecx, DWORD PTR ?gunship_entity@@3PAUENTITY@@A ; gunship_entity
  01306	51		 push	 ecx
  01307	69 55 b8 5c 04
	00 00		 imul	 edx, DWORD PTR tv706[ebp], 1116
  0130e	8b 45 b4	 mov	 eax, DWORD PTR tv714[ebp]
  01311	8b 8c 82 00 00
	00 00		 mov	 ecx, DWORD PTR ?fn_get_local_entity_int_value@@3PAY0BBH@P6GHPAUENTITY@@W4INT_TYPES@@@ZA[edx+eax*4]
  01318	ff d1		 call	 ecx
  0131a	85 c0		 test	 eax, eax
  0131c	74 09		 je	 SHORT $LN228@view_mode_
  0131e	c7 45 b0 01 00
	00 00		 mov	 DWORD PTR tv722[ebp], 1
  01325	eb 07		 jmp	 SHORT $LN229@view_mode_
$LN228@view_mode_:
  01327	c7 45 b0 00 00
	00 00		 mov	 DWORD PTR tv722[ebp], 0
$LN229@view_mode_:
  0132e	8b 55 b0	 mov	 edx, DWORD PTR tv722[ebp]
  01331	89 55 fc	 mov	 DWORD PTR _available$[ebp], edx

; 347  : 
; 348  : 			break;

  01334	e9 6b 0c 00 00	 jmp	 $LN2@view_mode_
$LN35@view_mode_:

; 349  : 		}
; 350  : 		////////////////////////////////////////
; 351  : 		case VIEW_MODE_COCKPIT_PANEL_DOWN20_RIGHT90:
; 352  : 		////////////////////////////////////////
; 353  : 		{
; 354  : 			available = get_gunship_entity () && get_local_entity_int_value (get_gunship_entity (), INT_TYPE_ALIVE);

  01339	83 3d 00 00 00
	00 00		 cmp	 DWORD PTR ?gunship_entity@@3PAUENTITY@@A, 0 ; gunship_entity
  01340	0f 84 98 00 00
	00		 je	 $LN234@view_mode_
  01346	83 3d 00 00 00
	00 00		 cmp	 DWORD PTR ?gunship_entity@@3PAUENTITY@@A, 0 ; gunship_entity
  0134d	74 0c		 je	 SHORT $LN230@view_mode_
  0134f	a1 00 00 00 00	 mov	 eax, DWORD PTR ?gunship_entity@@3PAUENTITY@@A ; gunship_entity
  01354	8b 08		 mov	 ecx, DWORD PTR [eax]
  01356	89 4d b8	 mov	 DWORD PTR tv729[ebp], ecx
  01359	eb 24		 jmp	 SHORT $LN231@view_mode_
$LN230@view_mode_:
  0135b	8b 15 00 00 00
	00		 mov	 edx, DWORD PTR ?__LINE__Var@?0??view_mode_available@@YGHW4VIEW_MODES@@@Z@4JA
  01361	81 c2 ea 00 00
	00		 add	 edx, 234		; 000000eaH
  01367	52		 push	 edx
  01368	68 00 00 00 00	 push	 OFFSET ??_C@_0EF@LBJPOBFB@c?3?2users?2nhv90?2projects?2eech?2ap@
  0136d	a1 00 00 00 00	 mov	 eax, DWORD PTR ?null_entity_pointer_message@@3PBDB ; null_entity_pointer_message
  01372	50		 push	 eax
  01373	e8 00 00 00 00	 call	 ?process_assert@@YGXPBD0H@Z ; process_assert
  01378	c7 45 b8 00 00
	00 00		 mov	 DWORD PTR tv729[ebp], 0
$LN231@view_mode_:
  0137f	b9 01 00 00 00	 mov	 ecx, 1
  01384	85 c9		 test	 ecx, ecx
  01386	74 09		 je	 SHORT $LN232@view_mode_
  01388	c7 45 b4 07 00
	00 00		 mov	 DWORD PTR tv737[ebp], 7
  0138f	eb 24		 jmp	 SHORT $LN233@view_mode_
$LN232@view_mode_:
  01391	8b 15 00 00 00
	00		 mov	 edx, DWORD PTR ?__LINE__Var@?0??view_mode_available@@YGHW4VIEW_MODES@@@Z@4JA
  01397	81 c2 ea 00 00
	00		 add	 edx, 234		; 000000eaH
  0139d	52		 push	 edx
  0139e	68 00 00 00 00	 push	 OFFSET ??_C@_0EF@LBJPOBFB@c?3?2users?2nhv90?2projects?2eech?2ap@
  013a3	a1 00 00 00 00	 mov	 eax, DWORD PTR ?overload_invalid_int_type_message@@3PBDB ; overload_invalid_int_type_message
  013a8	50		 push	 eax
  013a9	e8 00 00 00 00	 call	 ?process_assert@@YGXPBD0H@Z ; process_assert
  013ae	c7 45 b4 00 00
	00 00		 mov	 DWORD PTR tv737[ebp], 0
$LN233@view_mode_:
  013b5	6a 07		 push	 7
  013b7	8b 0d 00 00 00
	00		 mov	 ecx, DWORD PTR ?gunship_entity@@3PAUENTITY@@A ; gunship_entity
  013bd	51		 push	 ecx
  013be	69 55 b8 5c 04
	00 00		 imul	 edx, DWORD PTR tv729[ebp], 1116
  013c5	8b 45 b4	 mov	 eax, DWORD PTR tv737[ebp]
  013c8	8b 8c 82 00 00
	00 00		 mov	 ecx, DWORD PTR ?fn_get_local_entity_int_value@@3PAY0BBH@P6GHPAUENTITY@@W4INT_TYPES@@@ZA[edx+eax*4]
  013cf	ff d1		 call	 ecx
  013d1	85 c0		 test	 eax, eax
  013d3	74 09		 je	 SHORT $LN234@view_mode_
  013d5	c7 45 b0 01 00
	00 00		 mov	 DWORD PTR tv745[ebp], 1
  013dc	eb 07		 jmp	 SHORT $LN235@view_mode_
$LN234@view_mode_:
  013de	c7 45 b0 00 00
	00 00		 mov	 DWORD PTR tv745[ebp], 0
$LN235@view_mode_:
  013e5	8b 55 b0	 mov	 edx, DWORD PTR tv745[ebp]
  013e8	89 55 fc	 mov	 DWORD PTR _available$[ebp], edx

; 355  : 
; 356  : 			break;

  013eb	e9 b4 0b 00 00	 jmp	 $LN2@view_mode_
$LN36@view_mode_:

; 357  : 		}
; 358  : 		////////////////////////////////////////
; 359  : 		case VIEW_MODE_COCKPIT_PANEL_SPECIAL_APACHE_LHS_MFD:
; 360  : 		////////////////////////////////////////
; 361  : 		{
; 362  : 			available = get_gunship_entity () && get_local_entity_int_value (get_gunship_entity (), INT_TYPE_ALIVE);

  013f0	83 3d 00 00 00
	00 00		 cmp	 DWORD PTR ?gunship_entity@@3PAUENTITY@@A, 0 ; gunship_entity
  013f7	0f 84 98 00 00
	00		 je	 $LN240@view_mode_
  013fd	83 3d 00 00 00
	00 00		 cmp	 DWORD PTR ?gunship_entity@@3PAUENTITY@@A, 0 ; gunship_entity
  01404	74 0c		 je	 SHORT $LN236@view_mode_
  01406	a1 00 00 00 00	 mov	 eax, DWORD PTR ?gunship_entity@@3PAUENTITY@@A ; gunship_entity
  0140b	8b 08		 mov	 ecx, DWORD PTR [eax]
  0140d	89 4d b8	 mov	 DWORD PTR tv752[ebp], ecx
  01410	eb 24		 jmp	 SHORT $LN237@view_mode_
$LN236@view_mode_:
  01412	8b 15 00 00 00
	00		 mov	 edx, DWORD PTR ?__LINE__Var@?0??view_mode_available@@YGHW4VIEW_MODES@@@Z@4JA
  01418	81 c2 f2 00 00
	00		 add	 edx, 242		; 000000f2H
  0141e	52		 push	 edx
  0141f	68 00 00 00 00	 push	 OFFSET ??_C@_0EF@LBJPOBFB@c?3?2users?2nhv90?2projects?2eech?2ap@
  01424	a1 00 00 00 00	 mov	 eax, DWORD PTR ?null_entity_pointer_message@@3PBDB ; null_entity_pointer_message
  01429	50		 push	 eax
  0142a	e8 00 00 00 00	 call	 ?process_assert@@YGXPBD0H@Z ; process_assert
  0142f	c7 45 b8 00 00
	00 00		 mov	 DWORD PTR tv752[ebp], 0
$LN237@view_mode_:
  01436	b9 01 00 00 00	 mov	 ecx, 1
  0143b	85 c9		 test	 ecx, ecx
  0143d	74 09		 je	 SHORT $LN238@view_mode_
  0143f	c7 45 b4 07 00
	00 00		 mov	 DWORD PTR tv760[ebp], 7
  01446	eb 24		 jmp	 SHORT $LN239@view_mode_
$LN238@view_mode_:
  01448	8b 15 00 00 00
	00		 mov	 edx, DWORD PTR ?__LINE__Var@?0??view_mode_available@@YGHW4VIEW_MODES@@@Z@4JA
  0144e	81 c2 f2 00 00
	00		 add	 edx, 242		; 000000f2H
  01454	52		 push	 edx
  01455	68 00 00 00 00	 push	 OFFSET ??_C@_0EF@LBJPOBFB@c?3?2users?2nhv90?2projects?2eech?2ap@
  0145a	a1 00 00 00 00	 mov	 eax, DWORD PTR ?overload_invalid_int_type_message@@3PBDB ; overload_invalid_int_type_message
  0145f	50		 push	 eax
  01460	e8 00 00 00 00	 call	 ?process_assert@@YGXPBD0H@Z ; process_assert
  01465	c7 45 b4 00 00
	00 00		 mov	 DWORD PTR tv760[ebp], 0
$LN239@view_mode_:
  0146c	6a 07		 push	 7
  0146e	8b 0d 00 00 00
	00		 mov	 ecx, DWORD PTR ?gunship_entity@@3PAUENTITY@@A ; gunship_entity
  01474	51		 push	 ecx
  01475	69 55 b8 5c 04
	00 00		 imul	 edx, DWORD PTR tv752[ebp], 1116
  0147c	8b 45 b4	 mov	 eax, DWORD PTR tv760[ebp]
  0147f	8b 8c 82 00 00
	00 00		 mov	 ecx, DWORD PTR ?fn_get_local_entity_int_value@@3PAY0BBH@P6GHPAUENTITY@@W4INT_TYPES@@@ZA[edx+eax*4]
  01486	ff d1		 call	 ecx
  01488	85 c0		 test	 eax, eax
  0148a	74 09		 je	 SHORT $LN240@view_mode_
  0148c	c7 45 b0 01 00
	00 00		 mov	 DWORD PTR tv768[ebp], 1
  01493	eb 07		 jmp	 SHORT $LN241@view_mode_
$LN240@view_mode_:
  01495	c7 45 b0 00 00
	00 00		 mov	 DWORD PTR tv768[ebp], 0
$LN241@view_mode_:
  0149c	8b 55 b0	 mov	 edx, DWORD PTR tv768[ebp]
  0149f	89 55 fc	 mov	 DWORD PTR _available$[ebp], edx

; 363  : 
; 364  : 			break;

  014a2	e9 fd 0a 00 00	 jmp	 $LN2@view_mode_
$LN37@view_mode_:

; 365  : 		}
; 366  : 		////////////////////////////////////////
; 367  : 		case VIEW_MODE_COCKPIT_PANEL_SPECIAL_APACHE_RHS_MFD:
; 368  : 		////////////////////////////////////////
; 369  : 		{
; 370  : 			available = get_gunship_entity () && get_local_entity_int_value (get_gunship_entity (), INT_TYPE_ALIVE);

  014a7	83 3d 00 00 00
	00 00		 cmp	 DWORD PTR ?gunship_entity@@3PAUENTITY@@A, 0 ; gunship_entity
  014ae	0f 84 98 00 00
	00		 je	 $LN246@view_mode_
  014b4	83 3d 00 00 00
	00 00		 cmp	 DWORD PTR ?gunship_entity@@3PAUENTITY@@A, 0 ; gunship_entity
  014bb	74 0c		 je	 SHORT $LN242@view_mode_
  014bd	a1 00 00 00 00	 mov	 eax, DWORD PTR ?gunship_entity@@3PAUENTITY@@A ; gunship_entity
  014c2	8b 08		 mov	 ecx, DWORD PTR [eax]
  014c4	89 4d b8	 mov	 DWORD PTR tv775[ebp], ecx
  014c7	eb 24		 jmp	 SHORT $LN243@view_mode_
$LN242@view_mode_:
  014c9	8b 15 00 00 00
	00		 mov	 edx, DWORD PTR ?__LINE__Var@?0??view_mode_available@@YGHW4VIEW_MODES@@@Z@4JA
  014cf	81 c2 fa 00 00
	00		 add	 edx, 250		; 000000faH
  014d5	52		 push	 edx
  014d6	68 00 00 00 00	 push	 OFFSET ??_C@_0EF@LBJPOBFB@c?3?2users?2nhv90?2projects?2eech?2ap@
  014db	a1 00 00 00 00	 mov	 eax, DWORD PTR ?null_entity_pointer_message@@3PBDB ; null_entity_pointer_message
  014e0	50		 push	 eax
  014e1	e8 00 00 00 00	 call	 ?process_assert@@YGXPBD0H@Z ; process_assert
  014e6	c7 45 b8 00 00
	00 00		 mov	 DWORD PTR tv775[ebp], 0
$LN243@view_mode_:
  014ed	b9 01 00 00 00	 mov	 ecx, 1
  014f2	85 c9		 test	 ecx, ecx
  014f4	74 09		 je	 SHORT $LN244@view_mode_
  014f6	c7 45 b4 07 00
	00 00		 mov	 DWORD PTR tv783[ebp], 7
  014fd	eb 24		 jmp	 SHORT $LN245@view_mode_
$LN244@view_mode_:
  014ff	8b 15 00 00 00
	00		 mov	 edx, DWORD PTR ?__LINE__Var@?0??view_mode_available@@YGHW4VIEW_MODES@@@Z@4JA
  01505	81 c2 fa 00 00
	00		 add	 edx, 250		; 000000faH
  0150b	52		 push	 edx
  0150c	68 00 00 00 00	 push	 OFFSET ??_C@_0EF@LBJPOBFB@c?3?2users?2nhv90?2projects?2eech?2ap@
  01511	a1 00 00 00 00	 mov	 eax, DWORD PTR ?overload_invalid_int_type_message@@3PBDB ; overload_invalid_int_type_message
  01516	50		 push	 eax
  01517	e8 00 00 00 00	 call	 ?process_assert@@YGXPBD0H@Z ; process_assert
  0151c	c7 45 b4 00 00
	00 00		 mov	 DWORD PTR tv783[ebp], 0
$LN245@view_mode_:
  01523	6a 07		 push	 7
  01525	8b 0d 00 00 00
	00		 mov	 ecx, DWORD PTR ?gunship_entity@@3PAUENTITY@@A ; gunship_entity
  0152b	51		 push	 ecx
  0152c	69 55 b8 5c 04
	00 00		 imul	 edx, DWORD PTR tv775[ebp], 1116
  01533	8b 45 b4	 mov	 eax, DWORD PTR tv783[ebp]
  01536	8b 8c 82 00 00
	00 00		 mov	 ecx, DWORD PTR ?fn_get_local_entity_int_value@@3PAY0BBH@P6GHPAUENTITY@@W4INT_TYPES@@@ZA[edx+eax*4]
  0153d	ff d1		 call	 ecx
  0153f	85 c0		 test	 eax, eax
  01541	74 09		 je	 SHORT $LN246@view_mode_
  01543	c7 45 b0 01 00
	00 00		 mov	 DWORD PTR tv791[ebp], 1
  0154a	eb 07		 jmp	 SHORT $LN247@view_mode_
$LN246@view_mode_:
  0154c	c7 45 b0 00 00
	00 00		 mov	 DWORD PTR tv791[ebp], 0
$LN247@view_mode_:
  01553	8b 55 b0	 mov	 edx, DWORD PTR tv791[ebp]
  01556	89 55 fc	 mov	 DWORD PTR _available$[ebp], edx

; 371  : 
; 372  : 			break;

  01559	e9 46 0a 00 00	 jmp	 $LN2@view_mode_
$LN38@view_mode_:

; 373  : 		}
; 374  : 		////////////////////////////////////////
; 375  : 		case VIEW_MODE_COCKPIT_PANEL_SPECIAL_HAVOC_TV:
; 376  : 		////////////////////////////////////////
; 377  : 		{
; 378  : 			available = get_gunship_entity () && get_local_entity_int_value (get_gunship_entity (), INT_TYPE_ALIVE);

  0155e	83 3d 00 00 00
	00 00		 cmp	 DWORD PTR ?gunship_entity@@3PAUENTITY@@A, 0 ; gunship_entity
  01565	0f 84 98 00 00
	00		 je	 $LN252@view_mode_
  0156b	83 3d 00 00 00
	00 00		 cmp	 DWORD PTR ?gunship_entity@@3PAUENTITY@@A, 0 ; gunship_entity
  01572	74 0c		 je	 SHORT $LN248@view_mode_
  01574	a1 00 00 00 00	 mov	 eax, DWORD PTR ?gunship_entity@@3PAUENTITY@@A ; gunship_entity
  01579	8b 08		 mov	 ecx, DWORD PTR [eax]
  0157b	89 4d b8	 mov	 DWORD PTR tv798[ebp], ecx
  0157e	eb 24		 jmp	 SHORT $LN249@view_mode_
$LN248@view_mode_:
  01580	8b 15 00 00 00
	00		 mov	 edx, DWORD PTR ?__LINE__Var@?0??view_mode_available@@YGHW4VIEW_MODES@@@Z@4JA
  01586	81 c2 02 01 00
	00		 add	 edx, 258		; 00000102H
  0158c	52		 push	 edx
  0158d	68 00 00 00 00	 push	 OFFSET ??_C@_0EF@LBJPOBFB@c?3?2users?2nhv90?2projects?2eech?2ap@
  01592	a1 00 00 00 00	 mov	 eax, DWORD PTR ?null_entity_pointer_message@@3PBDB ; null_entity_pointer_message
  01597	50		 push	 eax
  01598	e8 00 00 00 00	 call	 ?process_assert@@YGXPBD0H@Z ; process_assert
  0159d	c7 45 b8 00 00
	00 00		 mov	 DWORD PTR tv798[ebp], 0
$LN249@view_mode_:
  015a4	b9 01 00 00 00	 mov	 ecx, 1
  015a9	85 c9		 test	 ecx, ecx
  015ab	74 09		 je	 SHORT $LN250@view_mode_
  015ad	c7 45 b4 07 00
	00 00		 mov	 DWORD PTR tv806[ebp], 7
  015b4	eb 24		 jmp	 SHORT $LN251@view_mode_
$LN250@view_mode_:
  015b6	8b 15 00 00 00
	00		 mov	 edx, DWORD PTR ?__LINE__Var@?0??view_mode_available@@YGHW4VIEW_MODES@@@Z@4JA
  015bc	81 c2 02 01 00
	00		 add	 edx, 258		; 00000102H
  015c2	52		 push	 edx
  015c3	68 00 00 00 00	 push	 OFFSET ??_C@_0EF@LBJPOBFB@c?3?2users?2nhv90?2projects?2eech?2ap@
  015c8	a1 00 00 00 00	 mov	 eax, DWORD PTR ?overload_invalid_int_type_message@@3PBDB ; overload_invalid_int_type_message
  015cd	50		 push	 eax
  015ce	e8 00 00 00 00	 call	 ?process_assert@@YGXPBD0H@Z ; process_assert
  015d3	c7 45 b4 00 00
	00 00		 mov	 DWORD PTR tv806[ebp], 0
$LN251@view_mode_:
  015da	6a 07		 push	 7
  015dc	8b 0d 00 00 00
	00		 mov	 ecx, DWORD PTR ?gunship_entity@@3PAUENTITY@@A ; gunship_entity
  015e2	51		 push	 ecx
  015e3	69 55 b8 5c 04
	00 00		 imul	 edx, DWORD PTR tv798[ebp], 1116
  015ea	8b 45 b4	 mov	 eax, DWORD PTR tv806[ebp]
  015ed	8b 8c 82 00 00
	00 00		 mov	 ecx, DWORD PTR ?fn_get_local_entity_int_value@@3PAY0BBH@P6GHPAUENTITY@@W4INT_TYPES@@@ZA[edx+eax*4]
  015f4	ff d1		 call	 ecx
  015f6	85 c0		 test	 eax, eax
  015f8	74 09		 je	 SHORT $LN252@view_mode_
  015fa	c7 45 b0 01 00
	00 00		 mov	 DWORD PTR tv814[ebp], 1
  01601	eb 07		 jmp	 SHORT $LN253@view_mode_
$LN252@view_mode_:
  01603	c7 45 b0 00 00
	00 00		 mov	 DWORD PTR tv814[ebp], 0
$LN253@view_mode_:
  0160a	8b 55 b0	 mov	 edx, DWORD PTR tv814[ebp]
  0160d	89 55 fc	 mov	 DWORD PTR _available$[ebp], edx

; 379  : 
; 380  : 			break;

  01610	e9 8f 09 00 00	 jmp	 $LN2@view_mode_
$LN39@view_mode_:

; 381  : 		}
; 382  : 		////////////////////////////////////////
; 383  : 		case VIEW_MODE_COCKPIT_PANEL_SPECIAL_HAVOC_HUD:
; 384  : 		////////////////////////////////////////
; 385  : 		{
; 386  : 			available = get_gunship_entity () && get_local_entity_int_value (get_gunship_entity (), INT_TYPE_ALIVE);

  01615	83 3d 00 00 00
	00 00		 cmp	 DWORD PTR ?gunship_entity@@3PAUENTITY@@A, 0 ; gunship_entity
  0161c	0f 84 98 00 00
	00		 je	 $LN258@view_mode_
  01622	83 3d 00 00 00
	00 00		 cmp	 DWORD PTR ?gunship_entity@@3PAUENTITY@@A, 0 ; gunship_entity
  01629	74 0c		 je	 SHORT $LN254@view_mode_
  0162b	a1 00 00 00 00	 mov	 eax, DWORD PTR ?gunship_entity@@3PAUENTITY@@A ; gunship_entity
  01630	8b 08		 mov	 ecx, DWORD PTR [eax]
  01632	89 4d b8	 mov	 DWORD PTR tv821[ebp], ecx
  01635	eb 24		 jmp	 SHORT $LN255@view_mode_
$LN254@view_mode_:
  01637	8b 15 00 00 00
	00		 mov	 edx, DWORD PTR ?__LINE__Var@?0??view_mode_available@@YGHW4VIEW_MODES@@@Z@4JA
  0163d	81 c2 0a 01 00
	00		 add	 edx, 266		; 0000010aH
  01643	52		 push	 edx
  01644	68 00 00 00 00	 push	 OFFSET ??_C@_0EF@LBJPOBFB@c?3?2users?2nhv90?2projects?2eech?2ap@
  01649	a1 00 00 00 00	 mov	 eax, DWORD PTR ?null_entity_pointer_message@@3PBDB ; null_entity_pointer_message
  0164e	50		 push	 eax
  0164f	e8 00 00 00 00	 call	 ?process_assert@@YGXPBD0H@Z ; process_assert
  01654	c7 45 b8 00 00
	00 00		 mov	 DWORD PTR tv821[ebp], 0
$LN255@view_mode_:
  0165b	b9 01 00 00 00	 mov	 ecx, 1
  01660	85 c9		 test	 ecx, ecx
  01662	74 09		 je	 SHORT $LN256@view_mode_
  01664	c7 45 b4 07 00
	00 00		 mov	 DWORD PTR tv829[ebp], 7
  0166b	eb 24		 jmp	 SHORT $LN257@view_mode_
$LN256@view_mode_:
  0166d	8b 15 00 00 00
	00		 mov	 edx, DWORD PTR ?__LINE__Var@?0??view_mode_available@@YGHW4VIEW_MODES@@@Z@4JA
  01673	81 c2 0a 01 00
	00		 add	 edx, 266		; 0000010aH
  01679	52		 push	 edx
  0167a	68 00 00 00 00	 push	 OFFSET ??_C@_0EF@LBJPOBFB@c?3?2users?2nhv90?2projects?2eech?2ap@
  0167f	a1 00 00 00 00	 mov	 eax, DWORD PTR ?overload_invalid_int_type_message@@3PBDB ; overload_invalid_int_type_message
  01684	50		 push	 eax
  01685	e8 00 00 00 00	 call	 ?process_assert@@YGXPBD0H@Z ; process_assert
  0168a	c7 45 b4 00 00
	00 00		 mov	 DWORD PTR tv829[ebp], 0
$LN257@view_mode_:
  01691	6a 07		 push	 7
  01693	8b 0d 00 00 00
	00		 mov	 ecx, DWORD PTR ?gunship_entity@@3PAUENTITY@@A ; gunship_entity
  01699	51		 push	 ecx
  0169a	69 55 b8 5c 04
	00 00		 imul	 edx, DWORD PTR tv821[ebp], 1116
  016a1	8b 45 b4	 mov	 eax, DWORD PTR tv829[ebp]
  016a4	8b 8c 82 00 00
	00 00		 mov	 ecx, DWORD PTR ?fn_get_local_entity_int_value@@3PAY0BBH@P6GHPAUENTITY@@W4INT_TYPES@@@ZA[edx+eax*4]
  016ab	ff d1		 call	 ecx
  016ad	85 c0		 test	 eax, eax
  016af	74 09		 je	 SHORT $LN258@view_mode_
  016b1	c7 45 b0 01 00
	00 00		 mov	 DWORD PTR tv837[ebp], 1
  016b8	eb 07		 jmp	 SHORT $LN259@view_mode_
$LN258@view_mode_:
  016ba	c7 45 b0 00 00
	00 00		 mov	 DWORD PTR tv837[ebp], 0
$LN259@view_mode_:
  016c1	8b 55 b0	 mov	 edx, DWORD PTR tv837[ebp]
  016c4	89 55 fc	 mov	 DWORD PTR _available$[ebp], edx

; 387  : 
; 388  : 			break;

  016c7	e9 d8 08 00 00	 jmp	 $LN2@view_mode_
$LN40@view_mode_:

; 389  : 		}
; 390  : 		////////////////////////////////////////
; 391  : 		case VIEW_MODE_VIRTUAL_COCKPIT:
; 392  : 		////////////////////////////////////////
; 393  : 		{
; 394  : 			available = get_gunship_entity () && get_local_entity_int_value (get_gunship_entity (), INT_TYPE_ALIVE);

  016cc	83 3d 00 00 00
	00 00		 cmp	 DWORD PTR ?gunship_entity@@3PAUENTITY@@A, 0 ; gunship_entity
  016d3	0f 84 98 00 00
	00		 je	 $LN264@view_mode_
  016d9	83 3d 00 00 00
	00 00		 cmp	 DWORD PTR ?gunship_entity@@3PAUENTITY@@A, 0 ; gunship_entity
  016e0	74 0c		 je	 SHORT $LN260@view_mode_
  016e2	a1 00 00 00 00	 mov	 eax, DWORD PTR ?gunship_entity@@3PAUENTITY@@A ; gunship_entity
  016e7	8b 08		 mov	 ecx, DWORD PTR [eax]
  016e9	89 4d b8	 mov	 DWORD PTR tv844[ebp], ecx
  016ec	eb 24		 jmp	 SHORT $LN261@view_mode_
$LN260@view_mode_:
  016ee	8b 15 00 00 00
	00		 mov	 edx, DWORD PTR ?__LINE__Var@?0??view_mode_available@@YGHW4VIEW_MODES@@@Z@4JA
  016f4	81 c2 12 01 00
	00		 add	 edx, 274		; 00000112H
  016fa	52		 push	 edx
  016fb	68 00 00 00 00	 push	 OFFSET ??_C@_0EF@LBJPOBFB@c?3?2users?2nhv90?2projects?2eech?2ap@
  01700	a1 00 00 00 00	 mov	 eax, DWORD PTR ?null_entity_pointer_message@@3PBDB ; null_entity_pointer_message
  01705	50		 push	 eax
  01706	e8 00 00 00 00	 call	 ?process_assert@@YGXPBD0H@Z ; process_assert
  0170b	c7 45 b8 00 00
	00 00		 mov	 DWORD PTR tv844[ebp], 0
$LN261@view_mode_:
  01712	b9 01 00 00 00	 mov	 ecx, 1
  01717	85 c9		 test	 ecx, ecx
  01719	74 09		 je	 SHORT $LN262@view_mode_
  0171b	c7 45 b4 07 00
	00 00		 mov	 DWORD PTR tv852[ebp], 7
  01722	eb 24		 jmp	 SHORT $LN263@view_mode_
$LN262@view_mode_:
  01724	8b 15 00 00 00
	00		 mov	 edx, DWORD PTR ?__LINE__Var@?0??view_mode_available@@YGHW4VIEW_MODES@@@Z@4JA
  0172a	81 c2 12 01 00
	00		 add	 edx, 274		; 00000112H
  01730	52		 push	 edx
  01731	68 00 00 00 00	 push	 OFFSET ??_C@_0EF@LBJPOBFB@c?3?2users?2nhv90?2projects?2eech?2ap@
  01736	a1 00 00 00 00	 mov	 eax, DWORD PTR ?overload_invalid_int_type_message@@3PBDB ; overload_invalid_int_type_message
  0173b	50		 push	 eax
  0173c	e8 00 00 00 00	 call	 ?process_assert@@YGXPBD0H@Z ; process_assert
  01741	c7 45 b4 00 00
	00 00		 mov	 DWORD PTR tv852[ebp], 0
$LN263@view_mode_:
  01748	6a 07		 push	 7
  0174a	8b 0d 00 00 00
	00		 mov	 ecx, DWORD PTR ?gunship_entity@@3PAUENTITY@@A ; gunship_entity
  01750	51		 push	 ecx
  01751	69 55 b8 5c 04
	00 00		 imul	 edx, DWORD PTR tv844[ebp], 1116
  01758	8b 45 b4	 mov	 eax, DWORD PTR tv852[ebp]
  0175b	8b 8c 82 00 00
	00 00		 mov	 ecx, DWORD PTR ?fn_get_local_entity_int_value@@3PAY0BBH@P6GHPAUENTITY@@W4INT_TYPES@@@ZA[edx+eax*4]
  01762	ff d1		 call	 ecx
  01764	85 c0		 test	 eax, eax
  01766	74 09		 je	 SHORT $LN264@view_mode_
  01768	c7 45 b0 01 00
	00 00		 mov	 DWORD PTR tv860[ebp], 1
  0176f	eb 07		 jmp	 SHORT $LN265@view_mode_
$LN264@view_mode_:
  01771	c7 45 b0 00 00
	00 00		 mov	 DWORD PTR tv860[ebp], 0
$LN265@view_mode_:
  01778	8b 55 b0	 mov	 edx, DWORD PTR tv860[ebp]
  0177b	89 55 fc	 mov	 DWORD PTR _available$[ebp], edx

; 395  : 
; 396  : 			break;

  0177e	e9 21 08 00 00	 jmp	 $LN2@view_mode_
$LN41@view_mode_:

; 397  : 		}
; 398  : 		////////////////////////////////////////
; 399  : 		case VIEW_MODE_VIRTUAL_COCKPIT_PADLOCK:
; 400  : 		////////////////////////////////////////
; 401  : 		{
; 402  : 			available = get_gunship_entity () && get_local_entity_int_value (get_gunship_entity (), INT_TYPE_ALIVE);

  01783	83 3d 00 00 00
	00 00		 cmp	 DWORD PTR ?gunship_entity@@3PAUENTITY@@A, 0 ; gunship_entity
  0178a	0f 84 98 00 00
	00		 je	 $LN270@view_mode_
  01790	83 3d 00 00 00
	00 00		 cmp	 DWORD PTR ?gunship_entity@@3PAUENTITY@@A, 0 ; gunship_entity
  01797	74 0c		 je	 SHORT $LN266@view_mode_
  01799	a1 00 00 00 00	 mov	 eax, DWORD PTR ?gunship_entity@@3PAUENTITY@@A ; gunship_entity
  0179e	8b 08		 mov	 ecx, DWORD PTR [eax]
  017a0	89 4d b8	 mov	 DWORD PTR tv867[ebp], ecx
  017a3	eb 24		 jmp	 SHORT $LN267@view_mode_
$LN266@view_mode_:
  017a5	8b 15 00 00 00
	00		 mov	 edx, DWORD PTR ?__LINE__Var@?0??view_mode_available@@YGHW4VIEW_MODES@@@Z@4JA
  017ab	81 c2 1a 01 00
	00		 add	 edx, 282		; 0000011aH
  017b1	52		 push	 edx
  017b2	68 00 00 00 00	 push	 OFFSET ??_C@_0EF@LBJPOBFB@c?3?2users?2nhv90?2projects?2eech?2ap@
  017b7	a1 00 00 00 00	 mov	 eax, DWORD PTR ?null_entity_pointer_message@@3PBDB ; null_entity_pointer_message
  017bc	50		 push	 eax
  017bd	e8 00 00 00 00	 call	 ?process_assert@@YGXPBD0H@Z ; process_assert
  017c2	c7 45 b8 00 00
	00 00		 mov	 DWORD PTR tv867[ebp], 0
$LN267@view_mode_:
  017c9	b9 01 00 00 00	 mov	 ecx, 1
  017ce	85 c9		 test	 ecx, ecx
  017d0	74 09		 je	 SHORT $LN268@view_mode_
  017d2	c7 45 b4 07 00
	00 00		 mov	 DWORD PTR tv875[ebp], 7
  017d9	eb 24		 jmp	 SHORT $LN269@view_mode_
$LN268@view_mode_:
  017db	8b 15 00 00 00
	00		 mov	 edx, DWORD PTR ?__LINE__Var@?0??view_mode_available@@YGHW4VIEW_MODES@@@Z@4JA
  017e1	81 c2 1a 01 00
	00		 add	 edx, 282		; 0000011aH
  017e7	52		 push	 edx
  017e8	68 00 00 00 00	 push	 OFFSET ??_C@_0EF@LBJPOBFB@c?3?2users?2nhv90?2projects?2eech?2ap@
  017ed	a1 00 00 00 00	 mov	 eax, DWORD PTR ?overload_invalid_int_type_message@@3PBDB ; overload_invalid_int_type_message
  017f2	50		 push	 eax
  017f3	e8 00 00 00 00	 call	 ?process_assert@@YGXPBD0H@Z ; process_assert
  017f8	c7 45 b4 00 00
	00 00		 mov	 DWORD PTR tv875[ebp], 0
$LN269@view_mode_:
  017ff	6a 07		 push	 7
  01801	8b 0d 00 00 00
	00		 mov	 ecx, DWORD PTR ?gunship_entity@@3PAUENTITY@@A ; gunship_entity
  01807	51		 push	 ecx
  01808	69 55 b8 5c 04
	00 00		 imul	 edx, DWORD PTR tv867[ebp], 1116
  0180f	8b 45 b4	 mov	 eax, DWORD PTR tv875[ebp]
  01812	8b 8c 82 00 00
	00 00		 mov	 ecx, DWORD PTR ?fn_get_local_entity_int_value@@3PAY0BBH@P6GHPAUENTITY@@W4INT_TYPES@@@ZA[edx+eax*4]
  01819	ff d1		 call	 ecx
  0181b	85 c0		 test	 eax, eax
  0181d	74 09		 je	 SHORT $LN270@view_mode_
  0181f	c7 45 b0 01 00
	00 00		 mov	 DWORD PTR tv883[ebp], 1
  01826	eb 07		 jmp	 SHORT $LN271@view_mode_
$LN270@view_mode_:
  01828	c7 45 b0 00 00
	00 00		 mov	 DWORD PTR tv883[ebp], 0
$LN271@view_mode_:
  0182f	8b 55 b0	 mov	 edx, DWORD PTR tv883[ebp]
  01832	89 55 fc	 mov	 DWORD PTR _available$[ebp], edx

; 403  : 
; 404  : 			break;

  01835	e9 6a 07 00 00	 jmp	 $LN2@view_mode_
$LN42@view_mode_:

; 405  : 		}
; 406  : 		////////////////////////////////////////
; 407  : 		case VIEW_MODE_VIRTUAL_COCKPIT_TRACK_TARGET:
; 408  : 		////////////////////////////////////////
; 409  : 		{
; 410  : 			available =

  0183a	83 3d 00 00 00
	00 00		 cmp	 DWORD PTR ?gunship_entity@@3PAUENTITY@@A, 0 ; gunship_entity
  01841	0f 84 2d 01 00
	00		 je	 $LN276@view_mode_
  01847	83 3d 00 00 00
	00 00		 cmp	 DWORD PTR ?gunship_entity@@3PAUENTITY@@A, 0 ; gunship_entity
  0184e	74 0c		 je	 SHORT $LN272@view_mode_
  01850	a1 00 00 00 00	 mov	 eax, DWORD PTR ?gunship_entity@@3PAUENTITY@@A ; gunship_entity
  01855	8b 08		 mov	 ecx, DWORD PTR [eax]
  01857	89 4d b8	 mov	 DWORD PTR tv890[ebp], ecx
  0185a	eb 24		 jmp	 SHORT $LN273@view_mode_
$LN272@view_mode_:
  0185c	8b 15 00 00 00
	00		 mov	 edx, DWORD PTR ?__LINE__Var@?0??view_mode_available@@YGHW4VIEW_MODES@@@Z@4JA
  01862	81 c2 25 01 00
	00		 add	 edx, 293		; 00000125H
  01868	52		 push	 edx
  01869	68 00 00 00 00	 push	 OFFSET ??_C@_0EF@LBJPOBFB@c?3?2users?2nhv90?2projects?2eech?2ap@
  0186e	a1 00 00 00 00	 mov	 eax, DWORD PTR ?null_entity_pointer_message@@3PBDB ; null_entity_pointer_message
  01873	50		 push	 eax
  01874	e8 00 00 00 00	 call	 ?process_assert@@YGXPBD0H@Z ; process_assert
  01879	c7 45 b8 00 00
	00 00		 mov	 DWORD PTR tv890[ebp], 0
$LN273@view_mode_:
  01880	b9 01 00 00 00	 mov	 ecx, 1
  01885	85 c9		 test	 ecx, ecx
  01887	74 09		 je	 SHORT $LN274@view_mode_
  01889	c7 45 b4 07 00
	00 00		 mov	 DWORD PTR tv898[ebp], 7
  01890	eb 24		 jmp	 SHORT $LN275@view_mode_
$LN274@view_mode_:
  01892	8b 15 00 00 00
	00		 mov	 edx, DWORD PTR ?__LINE__Var@?0??view_mode_available@@YGHW4VIEW_MODES@@@Z@4JA
  01898	81 c2 25 01 00
	00		 add	 edx, 293		; 00000125H
  0189e	52		 push	 edx
  0189f	68 00 00 00 00	 push	 OFFSET ??_C@_0EF@LBJPOBFB@c?3?2users?2nhv90?2projects?2eech?2ap@
  018a4	a1 00 00 00 00	 mov	 eax, DWORD PTR ?overload_invalid_int_type_message@@3PBDB ; overload_invalid_int_type_message
  018a9	50		 push	 eax
  018aa	e8 00 00 00 00	 call	 ?process_assert@@YGXPBD0H@Z ; process_assert
  018af	c7 45 b4 00 00
	00 00		 mov	 DWORD PTR tv898[ebp], 0
$LN275@view_mode_:
  018b6	6a 07		 push	 7
  018b8	8b 0d 00 00 00
	00		 mov	 ecx, DWORD PTR ?gunship_entity@@3PAUENTITY@@A ; gunship_entity
  018be	51		 push	 ecx
  018bf	69 55 b8 5c 04
	00 00		 imul	 edx, DWORD PTR tv890[ebp], 1116
  018c6	8b 45 b4	 mov	 eax, DWORD PTR tv898[ebp]
  018c9	8b 8c 82 00 00
	00 00		 mov	 ecx, DWORD PTR ?fn_get_local_entity_int_value@@3PAY0BBH@P6GHPAUENTITY@@W4INT_TYPES@@@ZA[edx+eax*4]
  018d0	ff d1		 call	 ecx
  018d2	85 c0		 test	 eax, eax
  018d4	0f 84 9a 00 00
	00		 je	 $LN276@view_mode_
  018da	83 3d 00 00 00
	00 00		 cmp	 DWORD PTR ?gunship_entity@@3PAUENTITY@@A, 0 ; gunship_entity
  018e1	74 0d		 je	 SHORT $LN277@view_mode_
  018e3	8b 15 00 00 00
	00		 mov	 edx, DWORD PTR ?gunship_entity@@3PAUENTITY@@A ; gunship_entity
  018e9	8b 02		 mov	 eax, DWORD PTR [edx]
  018eb	89 45 b0	 mov	 DWORD PTR tv912[ebp], eax
  018ee	eb 25		 jmp	 SHORT $LN278@view_mode_
$LN277@view_mode_:
  018f0	8b 0d 00 00 00
	00		 mov	 ecx, DWORD PTR ?__LINE__Var@?0??view_mode_available@@YGHW4VIEW_MODES@@@Z@4JA
  018f6	81 c1 26 01 00
	00		 add	 ecx, 294		; 00000126H
  018fc	51		 push	 ecx
  018fd	68 00 00 00 00	 push	 OFFSET ??_C@_0EF@LBJPOBFB@c?3?2users?2nhv90?2projects?2eech?2ap@
  01902	8b 15 00 00 00
	00		 mov	 edx, DWORD PTR ?null_entity_pointer_message@@3PBDB ; null_entity_pointer_message
  01908	52		 push	 edx
  01909	e8 00 00 00 00	 call	 ?process_assert@@YGXPBD0H@Z ; process_assert
  0190e	c7 45 b0 00 00
	00 00		 mov	 DWORD PTR tv912[ebp], 0
$LN278@view_mode_:
  01915	b8 01 00 00 00	 mov	 eax, 1
  0191a	85 c0		 test	 eax, eax
  0191c	74 09		 je	 SHORT $LN279@view_mode_
  0191e	c7 45 ac 26 00
	00 00		 mov	 DWORD PTR tv920[ebp], 38 ; 00000026H
  01925	eb 25		 jmp	 SHORT $LN280@view_mode_
$LN279@view_mode_:
  01927	8b 0d 00 00 00
	00		 mov	 ecx, DWORD PTR ?__LINE__Var@?0??view_mode_available@@YGHW4VIEW_MODES@@@Z@4JA
  0192d	81 c1 26 01 00
	00		 add	 ecx, 294		; 00000126H
  01933	51		 push	 ecx
  01934	68 00 00 00 00	 push	 OFFSET ??_C@_0EF@LBJPOBFB@c?3?2users?2nhv90?2projects?2eech?2ap@
  01939	8b 15 00 00 00
	00		 mov	 edx, DWORD PTR ?overload_invalid_list_type_message@@3PBDB ; overload_invalid_list_type_message
  0193f	52		 push	 edx
  01940	e8 00 00 00 00	 call	 ?process_assert@@YGXPBD0H@Z ; process_assert
  01945	c7 45 ac 00 00
	00 00		 mov	 DWORD PTR tv920[ebp], 0
$LN280@view_mode_:
  0194c	6a 26		 push	 38			; 00000026H
  0194e	a1 00 00 00 00	 mov	 eax, DWORD PTR ?gunship_entity@@3PAUENTITY@@A ; gunship_entity
  01953	50		 push	 eax
  01954	69 4d b0 b4 00
	00 00		 imul	 ecx, DWORD PTR tv912[ebp], 180
  0195b	8b 55 ac	 mov	 edx, DWORD PTR tv920[ebp]
  0195e	8b 84 91 00 00
	00 00		 mov	 eax, DWORD PTR ?fn_get_local_entity_parent@@3PAY0CN@P6GPAUENTITY@@PAU1@W4LIST_TYPES@@@ZA[ecx+edx*4]
  01965	ff d0		 call	 eax
  01967	85 c0		 test	 eax, eax
  01969	74 09		 je	 SHORT $LN276@view_mode_
  0196b	c7 45 a8 01 00
	00 00		 mov	 DWORD PTR tv927[ebp], 1
  01972	eb 07		 jmp	 SHORT $LN281@view_mode_
$LN276@view_mode_:
  01974	c7 45 a8 00 00
	00 00		 mov	 DWORD PTR tv927[ebp], 0
$LN281@view_mode_:
  0197b	8b 4d a8	 mov	 ecx, DWORD PTR tv927[ebp]
  0197e	89 4d fc	 mov	 DWORD PTR _available$[ebp], ecx

; 411  : 			(
; 412  : 				get_gunship_entity () &&
; 413  : 				get_local_entity_int_value (get_gunship_entity (), INT_TYPE_ALIVE) &&
; 414  : 				get_local_entity_parent (get_gunship_entity (), LIST_TYPE_TARGET)
; 415  : 			);
; 416  : 
; 417  : 			break;

  01981	e9 1e 06 00 00	 jmp	 $LN2@view_mode_
$LN43@view_mode_:

; 418  : 		}
; 419  : 		////////////////////////////////////////
; 420  : 		case VIEW_MODE_VIRTUAL_COCKPIT_CREW:
; 421  : 		////////////////////////////////////////
; 422  : 		{
; 423  : 			available = get_gunship_entity () && (get_num_virtual_cockpit_cameras (get_crew_role ()) > 0) && get_local_entity_int_value (get_gunship_entity (), INT_TYPE_ALIVE);

  01986	83 3d 00 00 00
	00 00		 cmp	 DWORD PTR ?gunship_entity@@3PAUENTITY@@A, 0 ; gunship_entity
  0198d	0f 84 ab 00 00
	00		 je	 $LN282@view_mode_
  01993	e8 00 00 00 00	 call	 ?get_crew_role@@YG?AW4CREW_ROLES@@XZ ; get_crew_role
  01998	50		 push	 eax
  01999	e8 00 00 00 00	 call	 ?get_num_virtual_cockpit_cameras@@YGHW4CREW_ROLES@@@Z ; get_num_virtual_cockpit_cameras
  0199e	85 c0		 test	 eax, eax
  019a0	0f 8e 98 00 00
	00		 jle	 $LN282@view_mode_
  019a6	83 3d 00 00 00
	00 00		 cmp	 DWORD PTR ?gunship_entity@@3PAUENTITY@@A, 0 ; gunship_entity
  019ad	74 0c		 je	 SHORT $LN283@view_mode_
  019af	a1 00 00 00 00	 mov	 eax, DWORD PTR ?gunship_entity@@3PAUENTITY@@A ; gunship_entity
  019b4	8b 08		 mov	 ecx, DWORD PTR [eax]
  019b6	89 4d b8	 mov	 DWORD PTR tv939[ebp], ecx
  019b9	eb 24		 jmp	 SHORT $LN284@view_mode_
$LN283@view_mode_:
  019bb	8b 15 00 00 00
	00		 mov	 edx, DWORD PTR ?__LINE__Var@?0??view_mode_available@@YGHW4VIEW_MODES@@@Z@4JA
  019c1	81 c2 2f 01 00
	00		 add	 edx, 303		; 0000012fH
  019c7	52		 push	 edx
  019c8	68 00 00 00 00	 push	 OFFSET ??_C@_0EF@LBJPOBFB@c?3?2users?2nhv90?2projects?2eech?2ap@
  019cd	a1 00 00 00 00	 mov	 eax, DWORD PTR ?null_entity_pointer_message@@3PBDB ; null_entity_pointer_message
  019d2	50		 push	 eax
  019d3	e8 00 00 00 00	 call	 ?process_assert@@YGXPBD0H@Z ; process_assert
  019d8	c7 45 b8 00 00
	00 00		 mov	 DWORD PTR tv939[ebp], 0
$LN284@view_mode_:
  019df	b9 01 00 00 00	 mov	 ecx, 1
  019e4	85 c9		 test	 ecx, ecx
  019e6	74 09		 je	 SHORT $LN285@view_mode_
  019e8	c7 45 b4 07 00
	00 00		 mov	 DWORD PTR tv947[ebp], 7
  019ef	eb 24		 jmp	 SHORT $LN286@view_mode_
$LN285@view_mode_:
  019f1	8b 15 00 00 00
	00		 mov	 edx, DWORD PTR ?__LINE__Var@?0??view_mode_available@@YGHW4VIEW_MODES@@@Z@4JA
  019f7	81 c2 2f 01 00
	00		 add	 edx, 303		; 0000012fH
  019fd	52		 push	 edx
  019fe	68 00 00 00 00	 push	 OFFSET ??_C@_0EF@LBJPOBFB@c?3?2users?2nhv90?2projects?2eech?2ap@
  01a03	a1 00 00 00 00	 mov	 eax, DWORD PTR ?overload_invalid_int_type_message@@3PBDB ; overload_invalid_int_type_message
  01a08	50		 push	 eax
  01a09	e8 00 00 00 00	 call	 ?process_assert@@YGXPBD0H@Z ; process_assert
  01a0e	c7 45 b4 00 00
	00 00		 mov	 DWORD PTR tv947[ebp], 0
$LN286@view_mode_:
  01a15	6a 07		 push	 7
  01a17	8b 0d 00 00 00
	00		 mov	 ecx, DWORD PTR ?gunship_entity@@3PAUENTITY@@A ; gunship_entity
  01a1d	51		 push	 ecx
  01a1e	69 55 b8 5c 04
	00 00		 imul	 edx, DWORD PTR tv939[ebp], 1116
  01a25	8b 45 b4	 mov	 eax, DWORD PTR tv947[ebp]
  01a28	8b 8c 82 00 00
	00 00		 mov	 ecx, DWORD PTR ?fn_get_local_entity_int_value@@3PAY0BBH@P6GHPAUENTITY@@W4INT_TYPES@@@ZA[edx+eax*4]
  01a2f	ff d1		 call	 ecx
  01a31	85 c0		 test	 eax, eax
  01a33	74 09		 je	 SHORT $LN282@view_mode_
  01a35	c7 45 b0 01 00
	00 00		 mov	 DWORD PTR tv954[ebp], 1
  01a3c	eb 07		 jmp	 SHORT $LN287@view_mode_
$LN282@view_mode_:
  01a3e	c7 45 b0 00 00
	00 00		 mov	 DWORD PTR tv954[ebp], 0
$LN287@view_mode_:
  01a45	8b 55 b0	 mov	 edx, DWORD PTR tv954[ebp]
  01a48	89 55 fc	 mov	 DWORD PTR _available$[ebp], edx

; 424  : 
; 425  : 			break;

  01a4b	e9 54 05 00 00	 jmp	 $LN2@view_mode_
$LN44@view_mode_:

; 426  : 		}
; 427  : 		////////////////////////////////////////
; 428  : 		case VIEW_MODE_VIRTUAL_COCKPIT_HUD:
; 429  : 		////////////////////////////////////////
; 430  : 		{
; 431  : 			available = FALSE;

  01a50	c7 45 fc 00 00
	00 00		 mov	 DWORD PTR _available$[ebp], 0

; 432  : 
; 433  : 			if (get_gunship_entity ())

  01a57	83 3d 00 00 00
	00 00		 cmp	 DWORD PTR ?gunship_entity@@3PAUENTITY@@A, 0 ; gunship_entity
  01a5e	0f 84 b0 00 00
	00		 je	 $LN45@view_mode_

; 434  : 			{
; 435  : 				if (get_local_entity_int_value (get_gunship_entity (), INT_TYPE_ALIVE))

  01a64	83 3d 00 00 00
	00 00		 cmp	 DWORD PTR ?gunship_entity@@3PAUENTITY@@A, 0 ; gunship_entity
  01a6b	74 0c		 je	 SHORT $LN288@view_mode_
  01a6d	a1 00 00 00 00	 mov	 eax, DWORD PTR ?gunship_entity@@3PAUENTITY@@A ; gunship_entity
  01a72	8b 08		 mov	 ecx, DWORD PTR [eax]
  01a74	89 4d b8	 mov	 DWORD PTR tv961[ebp], ecx
  01a77	eb 1d		 jmp	 SHORT $LN289@view_mode_
$LN288@view_mode_:
  01a79	68 b3 01 00 00	 push	 435			; 000001b3H
  01a7e	68 00 00 00 00	 push	 OFFSET ??_C@_0EF@LBJPOBFB@c?3?2users?2nhv90?2projects?2eech?2ap@
  01a83	8b 15 00 00 00
	00		 mov	 edx, DWORD PTR ?null_entity_pointer_message@@3PBDB ; null_entity_pointer_message
  01a89	52		 push	 edx
  01a8a	e8 00 00 00 00	 call	 ?process_assert@@YGXPBD0H@Z ; process_assert
  01a8f	c7 45 b8 00 00
	00 00		 mov	 DWORD PTR tv961[ebp], 0
$LN289@view_mode_:
  01a96	b8 01 00 00 00	 mov	 eax, 1
  01a9b	85 c0		 test	 eax, eax
  01a9d	74 09		 je	 SHORT $LN290@view_mode_
  01a9f	c7 45 b4 07 00
	00 00		 mov	 DWORD PTR tv968[ebp], 7
  01aa6	eb 1d		 jmp	 SHORT $LN291@view_mode_
$LN290@view_mode_:
  01aa8	68 b3 01 00 00	 push	 435			; 000001b3H
  01aad	68 00 00 00 00	 push	 OFFSET ??_C@_0EF@LBJPOBFB@c?3?2users?2nhv90?2projects?2eech?2ap@
  01ab2	8b 0d 00 00 00
	00		 mov	 ecx, DWORD PTR ?overload_invalid_int_type_message@@3PBDB ; overload_invalid_int_type_message
  01ab8	51		 push	 ecx
  01ab9	e8 00 00 00 00	 call	 ?process_assert@@YGXPBD0H@Z ; process_assert
  01abe	c7 45 b4 00 00
	00 00		 mov	 DWORD PTR tv968[ebp], 0
$LN291@view_mode_:
  01ac5	6a 07		 push	 7
  01ac7	8b 15 00 00 00
	00		 mov	 edx, DWORD PTR ?gunship_entity@@3PAUENTITY@@A ; gunship_entity
  01acd	52		 push	 edx
  01ace	69 45 b8 5c 04
	00 00		 imul	 eax, DWORD PTR tv961[ebp], 1116
  01ad5	8b 4d b4	 mov	 ecx, DWORD PTR tv968[ebp]
  01ad8	8b 94 88 00 00
	00 00		 mov	 edx, DWORD PTR ?fn_get_local_entity_int_value@@3PAY0BBH@P6GHPAUENTITY@@W4INT_TYPES@@@ZA[eax+ecx*4]
  01adf	ff d2		 call	 edx
  01ae1	85 c0		 test	 eax, eax
  01ae3	74 2f		 je	 SHORT $LN45@view_mode_

; 436  : 				{
; 437  : 					switch (get_global_gunship_type ())

  01ae5	a1 0c 00 00 00	 mov	 eax, DWORD PTR ?global_options@@3UGLOBAL_OPTIONS_DATA@@A+12
  01aea	89 45 b8	 mov	 DWORD PTR tv975[ebp], eax
  01aed	83 7d b8 03	 cmp	 DWORD PTR tv975[ebp], 3
  01af1	74 08		 je	 SHORT $LN47@view_mode_
  01af3	83 7d b8 07	 cmp	 DWORD PTR tv975[ebp], 7
  01af7	74 14		 je	 SHORT $LN49@view_mode_
  01af9	eb 19		 jmp	 SHORT $LN45@view_mode_
$LN47@view_mode_:

; 438  : 					{
; 439  : 					case GUNSHIP_TYPE_HOKUM:
; 440  : 						{
; 441  : 							if (get_crew_role () == CREW_ROLE_PILOT)

  01afb	e8 00 00 00 00	 call	 ?get_crew_role@@YG?AW4CREW_ROLES@@XZ ; get_crew_role
  01b00	85 c0		 test	 eax, eax
  01b02	75 07		 jne	 SHORT $LN48@view_mode_

; 442  : 							{
; 443  : 								available = TRUE;

  01b04	c7 45 fc 01 00
	00 00		 mov	 DWORD PTR _available$[ebp], 1
$LN48@view_mode_:

; 444  : 							}
; 445  : 							break;

  01b0b	eb 07		 jmp	 SHORT $LN45@view_mode_
$LN49@view_mode_:

; 446  : 						}
; 447  : 					case GUNSHIP_TYPE_KA50:
; 448  : 						{
; 449  : 							available = TRUE;

  01b0d	c7 45 fc 01 00
	00 00		 mov	 DWORD PTR _available$[ebp], 1
$LN45@view_mode_:

; 450  : 							break;
; 451  : 						}
; 452  : 					}
; 453  : 				}
; 454  : 			}
; 455  : 
; 456  : 			break;

  01b14	e9 8b 04 00 00	 jmp	 $LN2@view_mode_
$LN50@view_mode_:

; 457  : 		}
; 458  : 		////////////////////////////////////////
; 459  : 		case VIEW_MODE_VIRTUAL_COCKPIT_PERISCOPE:
; 460  : 		////////////////////////////////////////
; 461  : 		{
; 462  : 			available = FALSE;

  01b19	c7 45 fc 00 00
	00 00		 mov	 DWORD PTR _available$[ebp], 0

; 463  : 
; 464  : 			if (get_gunship_entity ())

  01b20	83 3d 00 00 00
	00 00		 cmp	 DWORD PTR ?gunship_entity@@3PAUENTITY@@A, 0 ; gunship_entity
  01b27	0f 84 c8 00 00
	00		 je	 $LN51@view_mode_

; 465  : 			{
; 466  : 				if (get_local_entity_int_value (get_gunship_entity (), INT_TYPE_ALIVE))

  01b2d	83 3d 00 00 00
	00 00		 cmp	 DWORD PTR ?gunship_entity@@3PAUENTITY@@A, 0 ; gunship_entity
  01b34	74 0c		 je	 SHORT $LN292@view_mode_
  01b36	a1 00 00 00 00	 mov	 eax, DWORD PTR ?gunship_entity@@3PAUENTITY@@A ; gunship_entity
  01b3b	8b 08		 mov	 ecx, DWORD PTR [eax]
  01b3d	89 4d b8	 mov	 DWORD PTR tv986[ebp], ecx
  01b40	eb 1d		 jmp	 SHORT $LN293@view_mode_
$LN292@view_mode_:
  01b42	68 d2 01 00 00	 push	 466			; 000001d2H
  01b47	68 00 00 00 00	 push	 OFFSET ??_C@_0EF@LBJPOBFB@c?3?2users?2nhv90?2projects?2eech?2ap@
  01b4c	8b 15 00 00 00
	00		 mov	 edx, DWORD PTR ?null_entity_pointer_message@@3PBDB ; null_entity_pointer_message
  01b52	52		 push	 edx
  01b53	e8 00 00 00 00	 call	 ?process_assert@@YGXPBD0H@Z ; process_assert
  01b58	c7 45 b8 00 00
	00 00		 mov	 DWORD PTR tv986[ebp], 0
$LN293@view_mode_:
  01b5f	b8 01 00 00 00	 mov	 eax, 1
  01b64	85 c0		 test	 eax, eax
  01b66	74 09		 je	 SHORT $LN294@view_mode_
  01b68	c7 45 b4 07 00
	00 00		 mov	 DWORD PTR tv993[ebp], 7
  01b6f	eb 1d		 jmp	 SHORT $LN295@view_mode_
$LN294@view_mode_:
  01b71	68 d2 01 00 00	 push	 466			; 000001d2H
  01b76	68 00 00 00 00	 push	 OFFSET ??_C@_0EF@LBJPOBFB@c?3?2users?2nhv90?2projects?2eech?2ap@
  01b7b	8b 0d 00 00 00
	00		 mov	 ecx, DWORD PTR ?overload_invalid_int_type_message@@3PBDB ; overload_invalid_int_type_message
  01b81	51		 push	 ecx
  01b82	e8 00 00 00 00	 call	 ?process_assert@@YGXPBD0H@Z ; process_assert
  01b87	c7 45 b4 00 00
	00 00		 mov	 DWORD PTR tv993[ebp], 0
$LN295@view_mode_:
  01b8e	6a 07		 push	 7
  01b90	8b 15 00 00 00
	00		 mov	 edx, DWORD PTR ?gunship_entity@@3PAUENTITY@@A ; gunship_entity
  01b96	52		 push	 edx
  01b97	69 45 b8 5c 04
	00 00		 imul	 eax, DWORD PTR tv986[ebp], 1116
  01b9e	8b 4d b4	 mov	 ecx, DWORD PTR tv993[ebp]
  01ba1	8b 94 88 00 00
	00 00		 mov	 edx, DWORD PTR ?fn_get_local_entity_int_value@@3PAY0BBH@P6GHPAUENTITY@@W4INT_TYPES@@@ZA[eax+ecx*4]
  01ba8	ff d2		 call	 edx
  01baa	85 c0		 test	 eax, eax
  01bac	74 47		 je	 SHORT $LN51@view_mode_

; 467  : 				{
; 468  : 					if (get_global_gunship_type () == GUNSHIP_TYPE_HOKUM
; 469  : 						|| get_global_gunship_type () == GUNSHIP_TYPE_APACHE)

  01bae	83 3d 0c 00 00
	00 03		 cmp	 DWORD PTR ?global_options@@3UGLOBAL_OPTIONS_DATA@@A+12, 3
  01bb5	74 09		 je	 SHORT $LN55@view_mode_
  01bb7	83 3d 0c 00 00
	00 00		 cmp	 DWORD PTR ?global_options@@3UGLOBAL_OPTIONS_DATA@@A+12, 0
  01bbe	75 25		 jne	 SHORT $LN53@view_mode_
$LN55@view_mode_:

; 470  : 					{
; 471  : 						if (get_crew_role () == CREW_ROLE_CO_PILOT)

  01bc0	e8 00 00 00 00	 call	 ?get_crew_role@@YG?AW4CREW_ROLES@@XZ ; get_crew_role
  01bc5	83 f8 01	 cmp	 eax, 1
  01bc8	75 19		 jne	 SHORT $LN56@view_mode_

; 472  : 							if (get_global_gunship_type () == GUNSHIP_TYPE_APACHE || target_acquisition_system == TARGET_ACQUISITION_SYSTEM_PERISCOPE)

  01bca	83 3d 0c 00 00
	00 00		 cmp	 DWORD PTR ?global_options@@3UGLOBAL_OPTIONS_DATA@@A+12, 0
  01bd1	74 09		 je	 SHORT $LN58@view_mode_
  01bd3	83 3d 00 00 00
	00 07		 cmp	 DWORD PTR ?target_acquisition_system@@3W4TARGET_ACQUISITION_SYSTEMS@@A, 7 ; target_acquisition_system
  01bda	75 07		 jne	 SHORT $LN56@view_mode_
$LN58@view_mode_:

; 473  : 								available = TRUE;

  01bdc	c7 45 fc 01 00
	00 00		 mov	 DWORD PTR _available$[ebp], 1
$LN56@view_mode_:

; 474  : 					}

  01be3	eb 10		 jmp	 SHORT $LN51@view_mode_
$LN53@view_mode_:

; 475  : 					else if (get_global_gunship_type () == GUNSHIP_TYPE_HIND)

  01be5	83 3d 0c 00 00
	00 05		 cmp	 DWORD PTR ?global_options@@3UGLOBAL_OPTIONS_DATA@@A+12, 5
  01bec	75 07		 jne	 SHORT $LN51@view_mode_

; 476  : 						available = TRUE;

  01bee	c7 45 fc 01 00
	00 00		 mov	 DWORD PTR _available$[ebp], 1
$LN51@view_mode_:

; 477  : 				}
; 478  : 			}
; 479  : 
; 480  : 			break;

  01bf5	e9 aa 03 00 00	 jmp	 $LN2@view_mode_
$LN60@view_mode_:

; 481  : 		}
; 482  : 		////////////////////////////////////////
; 483  : 		case VIEW_MODE_VIRTUAL_COCKPIT_PILOT_LHS_DISPLAY:
; 484  : 		////////////////////////////////////////
; 485  : 		{
; 486  : 			available = get_gunship_entity () && get_local_entity_int_value (get_gunship_entity (), INT_TYPE_ALIVE);

  01bfa	83 3d 00 00 00
	00 00		 cmp	 DWORD PTR ?gunship_entity@@3PAUENTITY@@A, 0 ; gunship_entity
  01c01	0f 84 98 00 00
	00		 je	 $LN300@view_mode_
  01c07	83 3d 00 00 00
	00 00		 cmp	 DWORD PTR ?gunship_entity@@3PAUENTITY@@A, 0 ; gunship_entity
  01c0e	74 0c		 je	 SHORT $LN296@view_mode_
  01c10	a1 00 00 00 00	 mov	 eax, DWORD PTR ?gunship_entity@@3PAUENTITY@@A ; gunship_entity
  01c15	8b 08		 mov	 ecx, DWORD PTR [eax]
  01c17	89 4d b8	 mov	 DWORD PTR tv1013[ebp], ecx
  01c1a	eb 24		 jmp	 SHORT $LN297@view_mode_
$LN296@view_mode_:
  01c1c	8b 15 00 00 00
	00		 mov	 edx, DWORD PTR ?__LINE__Var@?0??view_mode_available@@YGHW4VIEW_MODES@@@Z@4JA
  01c22	81 c2 6e 01 00
	00		 add	 edx, 366		; 0000016eH
  01c28	52		 push	 edx
  01c29	68 00 00 00 00	 push	 OFFSET ??_C@_0EF@LBJPOBFB@c?3?2users?2nhv90?2projects?2eech?2ap@
  01c2e	a1 00 00 00 00	 mov	 eax, DWORD PTR ?null_entity_pointer_message@@3PBDB ; null_entity_pointer_message
  01c33	50		 push	 eax
  01c34	e8 00 00 00 00	 call	 ?process_assert@@YGXPBD0H@Z ; process_assert
  01c39	c7 45 b8 00 00
	00 00		 mov	 DWORD PTR tv1013[ebp], 0
$LN297@view_mode_:
  01c40	b9 01 00 00 00	 mov	 ecx, 1
  01c45	85 c9		 test	 ecx, ecx
  01c47	74 09		 je	 SHORT $LN298@view_mode_
  01c49	c7 45 b4 07 00
	00 00		 mov	 DWORD PTR tv1021[ebp], 7
  01c50	eb 24		 jmp	 SHORT $LN299@view_mode_
$LN298@view_mode_:
  01c52	8b 15 00 00 00
	00		 mov	 edx, DWORD PTR ?__LINE__Var@?0??view_mode_available@@YGHW4VIEW_MODES@@@Z@4JA
  01c58	81 c2 6e 01 00
	00		 add	 edx, 366		; 0000016eH
  01c5e	52		 push	 edx
  01c5f	68 00 00 00 00	 push	 OFFSET ??_C@_0EF@LBJPOBFB@c?3?2users?2nhv90?2projects?2eech?2ap@
  01c64	a1 00 00 00 00	 mov	 eax, DWORD PTR ?overload_invalid_int_type_message@@3PBDB ; overload_invalid_int_type_message
  01c69	50		 push	 eax
  01c6a	e8 00 00 00 00	 call	 ?process_assert@@YGXPBD0H@Z ; process_assert
  01c6f	c7 45 b4 00 00
	00 00		 mov	 DWORD PTR tv1021[ebp], 0
$LN299@view_mode_:
  01c76	6a 07		 push	 7
  01c78	8b 0d 00 00 00
	00		 mov	 ecx, DWORD PTR ?gunship_entity@@3PAUENTITY@@A ; gunship_entity
  01c7e	51		 push	 ecx
  01c7f	69 55 b8 5c 04
	00 00		 imul	 edx, DWORD PTR tv1013[ebp], 1116
  01c86	8b 45 b4	 mov	 eax, DWORD PTR tv1021[ebp]
  01c89	8b 8c 82 00 00
	00 00		 mov	 ecx, DWORD PTR ?fn_get_local_entity_int_value@@3PAY0BBH@P6GHPAUENTITY@@W4INT_TYPES@@@ZA[edx+eax*4]
  01c90	ff d1		 call	 ecx
  01c92	85 c0		 test	 eax, eax
  01c94	74 09		 je	 SHORT $LN300@view_mode_
  01c96	c7 45 b0 01 00
	00 00		 mov	 DWORD PTR tv1029[ebp], 1
  01c9d	eb 07		 jmp	 SHORT $LN301@view_mode_
$LN300@view_mode_:
  01c9f	c7 45 b0 00 00
	00 00		 mov	 DWORD PTR tv1029[ebp], 0
$LN301@view_mode_:
  01ca6	8b 55 b0	 mov	 edx, DWORD PTR tv1029[ebp]
  01ca9	89 55 fc	 mov	 DWORD PTR _available$[ebp], edx

; 487  : 
; 488  : 			break;

  01cac	e9 f3 02 00 00	 jmp	 $LN2@view_mode_
$LN61@view_mode_:

; 489  : 		}
; 490  : 		////////////////////////////////////////
; 491  : 		case VIEW_MODE_VIRTUAL_COCKPIT_PILOT_RHS_DISPLAY:
; 492  : 		////////////////////////////////////////
; 493  : 		{
; 494  : 			available = get_gunship_entity () && get_local_entity_int_value (get_gunship_entity (), INT_TYPE_ALIVE);

  01cb1	83 3d 00 00 00
	00 00		 cmp	 DWORD PTR ?gunship_entity@@3PAUENTITY@@A, 0 ; gunship_entity
  01cb8	0f 84 98 00 00
	00		 je	 $LN306@view_mode_
  01cbe	83 3d 00 00 00
	00 00		 cmp	 DWORD PTR ?gunship_entity@@3PAUENTITY@@A, 0 ; gunship_entity
  01cc5	74 0c		 je	 SHORT $LN302@view_mode_
  01cc7	a1 00 00 00 00	 mov	 eax, DWORD PTR ?gunship_entity@@3PAUENTITY@@A ; gunship_entity
  01ccc	8b 08		 mov	 ecx, DWORD PTR [eax]
  01cce	89 4d b8	 mov	 DWORD PTR tv1036[ebp], ecx
  01cd1	eb 24		 jmp	 SHORT $LN303@view_mode_
$LN302@view_mode_:
  01cd3	8b 15 00 00 00
	00		 mov	 edx, DWORD PTR ?__LINE__Var@?0??view_mode_available@@YGHW4VIEW_MODES@@@Z@4JA
  01cd9	81 c2 76 01 00
	00		 add	 edx, 374		; 00000176H
  01cdf	52		 push	 edx
  01ce0	68 00 00 00 00	 push	 OFFSET ??_C@_0EF@LBJPOBFB@c?3?2users?2nhv90?2projects?2eech?2ap@
  01ce5	a1 00 00 00 00	 mov	 eax, DWORD PTR ?null_entity_pointer_message@@3PBDB ; null_entity_pointer_message
  01cea	50		 push	 eax
  01ceb	e8 00 00 00 00	 call	 ?process_assert@@YGXPBD0H@Z ; process_assert
  01cf0	c7 45 b8 00 00
	00 00		 mov	 DWORD PTR tv1036[ebp], 0
$LN303@view_mode_:
  01cf7	b9 01 00 00 00	 mov	 ecx, 1
  01cfc	85 c9		 test	 ecx, ecx
  01cfe	74 09		 je	 SHORT $LN304@view_mode_
  01d00	c7 45 b4 07 00
	00 00		 mov	 DWORD PTR tv1044[ebp], 7
  01d07	eb 24		 jmp	 SHORT $LN305@view_mode_
$LN304@view_mode_:
  01d09	8b 15 00 00 00
	00		 mov	 edx, DWORD PTR ?__LINE__Var@?0??view_mode_available@@YGHW4VIEW_MODES@@@Z@4JA
  01d0f	81 c2 76 01 00
	00		 add	 edx, 374		; 00000176H
  01d15	52		 push	 edx
  01d16	68 00 00 00 00	 push	 OFFSET ??_C@_0EF@LBJPOBFB@c?3?2users?2nhv90?2projects?2eech?2ap@
  01d1b	a1 00 00 00 00	 mov	 eax, DWORD PTR ?overload_invalid_int_type_message@@3PBDB ; overload_invalid_int_type_message
  01d20	50		 push	 eax
  01d21	e8 00 00 00 00	 call	 ?process_assert@@YGXPBD0H@Z ; process_assert
  01d26	c7 45 b4 00 00
	00 00		 mov	 DWORD PTR tv1044[ebp], 0
$LN305@view_mode_:
  01d2d	6a 07		 push	 7
  01d2f	8b 0d 00 00 00
	00		 mov	 ecx, DWORD PTR ?gunship_entity@@3PAUENTITY@@A ; gunship_entity
  01d35	51		 push	 ecx
  01d36	69 55 b8 5c 04
	00 00		 imul	 edx, DWORD PTR tv1036[ebp], 1116
  01d3d	8b 45 b4	 mov	 eax, DWORD PTR tv1044[ebp]
  01d40	8b 8c 82 00 00
	00 00		 mov	 ecx, DWORD PTR ?fn_get_local_entity_int_value@@3PAY0BBH@P6GHPAUENTITY@@W4INT_TYPES@@@ZA[edx+eax*4]
  01d47	ff d1		 call	 ecx
  01d49	85 c0		 test	 eax, eax
  01d4b	74 09		 je	 SHORT $LN306@view_mode_
  01d4d	c7 45 b0 01 00
	00 00		 mov	 DWORD PTR tv1052[ebp], 1
  01d54	eb 07		 jmp	 SHORT $LN307@view_mode_
$LN306@view_mode_:
  01d56	c7 45 b0 00 00
	00 00		 mov	 DWORD PTR tv1052[ebp], 0
$LN307@view_mode_:
  01d5d	8b 55 b0	 mov	 edx, DWORD PTR tv1052[ebp]
  01d60	89 55 fc	 mov	 DWORD PTR _available$[ebp], edx

; 495  : 
; 496  : 			break;

  01d63	e9 3c 02 00 00	 jmp	 $LN2@view_mode_
$LN62@view_mode_:

; 497  : 		}
; 498  : 		////////////////////////////////////////
; 499  : 		case VIEW_MODE_VIRTUAL_COCKPIT_CO_PILOT_LHS_DISPLAY:
; 500  : 		////////////////////////////////////////
; 501  : 		{
; 502  : 			available = get_gunship_entity () && get_local_entity_int_value (get_gunship_entity (), INT_TYPE_ALIVE);

  01d68	83 3d 00 00 00
	00 00		 cmp	 DWORD PTR ?gunship_entity@@3PAUENTITY@@A, 0 ; gunship_entity
  01d6f	0f 84 98 00 00
	00		 je	 $LN312@view_mode_
  01d75	83 3d 00 00 00
	00 00		 cmp	 DWORD PTR ?gunship_entity@@3PAUENTITY@@A, 0 ; gunship_entity
  01d7c	74 0c		 je	 SHORT $LN308@view_mode_
  01d7e	a1 00 00 00 00	 mov	 eax, DWORD PTR ?gunship_entity@@3PAUENTITY@@A ; gunship_entity
  01d83	8b 08		 mov	 ecx, DWORD PTR [eax]
  01d85	89 4d b8	 mov	 DWORD PTR tv1059[ebp], ecx
  01d88	eb 24		 jmp	 SHORT $LN309@view_mode_
$LN308@view_mode_:
  01d8a	8b 15 00 00 00
	00		 mov	 edx, DWORD PTR ?__LINE__Var@?0??view_mode_available@@YGHW4VIEW_MODES@@@Z@4JA
  01d90	81 c2 7e 01 00
	00		 add	 edx, 382		; 0000017eH
  01d96	52		 push	 edx
  01d97	68 00 00 00 00	 push	 OFFSET ??_C@_0EF@LBJPOBFB@c?3?2users?2nhv90?2projects?2eech?2ap@
  01d9c	a1 00 00 00 00	 mov	 eax, DWORD PTR ?null_entity_pointer_message@@3PBDB ; null_entity_pointer_message
  01da1	50		 push	 eax
  01da2	e8 00 00 00 00	 call	 ?process_assert@@YGXPBD0H@Z ; process_assert
  01da7	c7 45 b8 00 00
	00 00		 mov	 DWORD PTR tv1059[ebp], 0
$LN309@view_mode_:
  01dae	b9 01 00 00 00	 mov	 ecx, 1
  01db3	85 c9		 test	 ecx, ecx
  01db5	74 09		 je	 SHORT $LN310@view_mode_
  01db7	c7 45 b4 07 00
	00 00		 mov	 DWORD PTR tv1067[ebp], 7
  01dbe	eb 24		 jmp	 SHORT $LN311@view_mode_
$LN310@view_mode_:
  01dc0	8b 15 00 00 00
	00		 mov	 edx, DWORD PTR ?__LINE__Var@?0??view_mode_available@@YGHW4VIEW_MODES@@@Z@4JA
  01dc6	81 c2 7e 01 00
	00		 add	 edx, 382		; 0000017eH
  01dcc	52		 push	 edx
  01dcd	68 00 00 00 00	 push	 OFFSET ??_C@_0EF@LBJPOBFB@c?3?2users?2nhv90?2projects?2eech?2ap@
  01dd2	a1 00 00 00 00	 mov	 eax, DWORD PTR ?overload_invalid_int_type_message@@3PBDB ; overload_invalid_int_type_message
  01dd7	50		 push	 eax
  01dd8	e8 00 00 00 00	 call	 ?process_assert@@YGXPBD0H@Z ; process_assert
  01ddd	c7 45 b4 00 00
	00 00		 mov	 DWORD PTR tv1067[ebp], 0
$LN311@view_mode_:
  01de4	6a 07		 push	 7
  01de6	8b 0d 00 00 00
	00		 mov	 ecx, DWORD PTR ?gunship_entity@@3PAUENTITY@@A ; gunship_entity
  01dec	51		 push	 ecx
  01ded	69 55 b8 5c 04
	00 00		 imul	 edx, DWORD PTR tv1059[ebp], 1116
  01df4	8b 45 b4	 mov	 eax, DWORD PTR tv1067[ebp]
  01df7	8b 8c 82 00 00
	00 00		 mov	 ecx, DWORD PTR ?fn_get_local_entity_int_value@@3PAY0BBH@P6GHPAUENTITY@@W4INT_TYPES@@@ZA[edx+eax*4]
  01dfe	ff d1		 call	 ecx
  01e00	85 c0		 test	 eax, eax
  01e02	74 09		 je	 SHORT $LN312@view_mode_
  01e04	c7 45 b0 01 00
	00 00		 mov	 DWORD PTR tv1075[ebp], 1
  01e0b	eb 07		 jmp	 SHORT $LN313@view_mode_
$LN312@view_mode_:
  01e0d	c7 45 b0 00 00
	00 00		 mov	 DWORD PTR tv1075[ebp], 0
$LN313@view_mode_:
  01e14	8b 55 b0	 mov	 edx, DWORD PTR tv1075[ebp]
  01e17	89 55 fc	 mov	 DWORD PTR _available$[ebp], edx

; 503  : 
; 504  : 			break;

  01e1a	e9 85 01 00 00	 jmp	 $LN2@view_mode_
$LN63@view_mode_:

; 505  : 		}
; 506  : 		////////////////////////////////////////
; 507  : 		case VIEW_MODE_VIRTUAL_COCKPIT_CO_PILOT_RHS_DISPLAY:
; 508  : 		////////////////////////////////////////
; 509  : 		{
; 510  : 			available = get_gunship_entity () && get_local_entity_int_value (get_gunship_entity (), INT_TYPE_ALIVE);

  01e1f	83 3d 00 00 00
	00 00		 cmp	 DWORD PTR ?gunship_entity@@3PAUENTITY@@A, 0 ; gunship_entity
  01e26	0f 84 98 00 00
	00		 je	 $LN318@view_mode_
  01e2c	83 3d 00 00 00
	00 00		 cmp	 DWORD PTR ?gunship_entity@@3PAUENTITY@@A, 0 ; gunship_entity
  01e33	74 0c		 je	 SHORT $LN314@view_mode_
  01e35	a1 00 00 00 00	 mov	 eax, DWORD PTR ?gunship_entity@@3PAUENTITY@@A ; gunship_entity
  01e3a	8b 08		 mov	 ecx, DWORD PTR [eax]
  01e3c	89 4d b8	 mov	 DWORD PTR tv1082[ebp], ecx
  01e3f	eb 24		 jmp	 SHORT $LN315@view_mode_
$LN314@view_mode_:
  01e41	8b 15 00 00 00
	00		 mov	 edx, DWORD PTR ?__LINE__Var@?0??view_mode_available@@YGHW4VIEW_MODES@@@Z@4JA
  01e47	81 c2 86 01 00
	00		 add	 edx, 390		; 00000186H
  01e4d	52		 push	 edx
  01e4e	68 00 00 00 00	 push	 OFFSET ??_C@_0EF@LBJPOBFB@c?3?2users?2nhv90?2projects?2eech?2ap@
  01e53	a1 00 00 00 00	 mov	 eax, DWORD PTR ?null_entity_pointer_message@@3PBDB ; null_entity_pointer_message
  01e58	50		 push	 eax
  01e59	e8 00 00 00 00	 call	 ?process_assert@@YGXPBD0H@Z ; process_assert
  01e5e	c7 45 b8 00 00
	00 00		 mov	 DWORD PTR tv1082[ebp], 0
$LN315@view_mode_:
  01e65	b9 01 00 00 00	 mov	 ecx, 1
  01e6a	85 c9		 test	 ecx, ecx
  01e6c	74 09		 je	 SHORT $LN316@view_mode_
  01e6e	c7 45 b4 07 00
	00 00		 mov	 DWORD PTR tv1090[ebp], 7
  01e75	eb 24		 jmp	 SHORT $LN317@view_mode_
$LN316@view_mode_:
  01e77	8b 15 00 00 00
	00		 mov	 edx, DWORD PTR ?__LINE__Var@?0??view_mode_available@@YGHW4VIEW_MODES@@@Z@4JA
  01e7d	81 c2 86 01 00
	00		 add	 edx, 390		; 00000186H
  01e83	52		 push	 edx
  01e84	68 00 00 00 00	 push	 OFFSET ??_C@_0EF@LBJPOBFB@c?3?2users?2nhv90?2projects?2eech?2ap@
  01e89	a1 00 00 00 00	 mov	 eax, DWORD PTR ?overload_invalid_int_type_message@@3PBDB ; overload_invalid_int_type_message
  01e8e	50		 push	 eax
  01e8f	e8 00 00 00 00	 call	 ?process_assert@@YGXPBD0H@Z ; process_assert
  01e94	c7 45 b4 00 00
	00 00		 mov	 DWORD PTR tv1090[ebp], 0
$LN317@view_mode_:
  01e9b	6a 07		 push	 7
  01e9d	8b 0d 00 00 00
	00		 mov	 ecx, DWORD PTR ?gunship_entity@@3PAUENTITY@@A ; gunship_entity
  01ea3	51		 push	 ecx
  01ea4	69 55 b8 5c 04
	00 00		 imul	 edx, DWORD PTR tv1082[ebp], 1116
  01eab	8b 45 b4	 mov	 eax, DWORD PTR tv1090[ebp]
  01eae	8b 8c 82 00 00
	00 00		 mov	 ecx, DWORD PTR ?fn_get_local_entity_int_value@@3PAY0BBH@P6GHPAUENTITY@@W4INT_TYPES@@@ZA[edx+eax*4]
  01eb5	ff d1		 call	 ecx
  01eb7	85 c0		 test	 eax, eax
  01eb9	74 09		 je	 SHORT $LN318@view_mode_
  01ebb	c7 45 b0 01 00
	00 00		 mov	 DWORD PTR tv1098[ebp], 1
  01ec2	eb 07		 jmp	 SHORT $LN319@view_mode_
$LN318@view_mode_:
  01ec4	c7 45 b0 00 00
	00 00		 mov	 DWORD PTR tv1098[ebp], 0
$LN319@view_mode_:
  01ecb	8b 55 b0	 mov	 edx, DWORD PTR tv1098[ebp]
  01ece	89 55 fc	 mov	 DWORD PTR _available$[ebp], edx

; 511  : 
; 512  : 			break;

  01ed1	e9 ce 00 00 00	 jmp	 $LN2@view_mode_
$LN64@view_mode_:

; 513  : 		}
; 514  : 		////////////////////////////////////////
; 515  : 		case VIEW_MODE_EXTERNAL:
; 516  : 		////////////////////////////////////////
; 517  : 		{
; 518  : 			available = (get_camera_entity () != NULL) && (get_local_entity_first_child (get_camera_entity (), LIST_TYPE_VIEW));

  01ed6	83 3d 00 00 00
	00 00		 cmp	 DWORD PTR ?camera_entity@@3PAUENTITY@@A, 0 ; camera_entity
  01edd	0f 84 98 00 00
	00		 je	 $LN324@view_mode_
  01ee3	83 3d 00 00 00
	00 00		 cmp	 DWORD PTR ?camera_entity@@3PAUENTITY@@A, 0 ; camera_entity
  01eea	74 0c		 je	 SHORT $LN320@view_mode_
  01eec	a1 00 00 00 00	 mov	 eax, DWORD PTR ?camera_entity@@3PAUENTITY@@A ; camera_entity
  01ef1	8b 08		 mov	 ecx, DWORD PTR [eax]
  01ef3	89 4d b8	 mov	 DWORD PTR tv1106[ebp], ecx
  01ef6	eb 24		 jmp	 SHORT $LN321@view_mode_
$LN320@view_mode_:
  01ef8	8b 15 00 00 00
	00		 mov	 edx, DWORD PTR ?__LINE__Var@?0??view_mode_available@@YGHW4VIEW_MODES@@@Z@4JA
  01efe	81 c2 8e 01 00
	00		 add	 edx, 398		; 0000018eH
  01f04	52		 push	 edx
  01f05	68 00 00 00 00	 push	 OFFSET ??_C@_0EF@LBJPOBFB@c?3?2users?2nhv90?2projects?2eech?2ap@
  01f0a	a1 00 00 00 00	 mov	 eax, DWORD PTR ?null_entity_pointer_message@@3PBDB ; null_entity_pointer_message
  01f0f	50		 push	 eax
  01f10	e8 00 00 00 00	 call	 ?process_assert@@YGXPBD0H@Z ; process_assert
  01f15	c7 45 b8 00 00
	00 00		 mov	 DWORD PTR tv1106[ebp], 0
$LN321@view_mode_:
  01f1c	b9 01 00 00 00	 mov	 ecx, 1
  01f21	85 c9		 test	 ecx, ecx
  01f23	74 09		 je	 SHORT $LN322@view_mode_
  01f25	c7 45 b4 2a 00
	00 00		 mov	 DWORD PTR tv1114[ebp], 42 ; 0000002aH
  01f2c	eb 24		 jmp	 SHORT $LN323@view_mode_
$LN322@view_mode_:
  01f2e	8b 15 00 00 00
	00		 mov	 edx, DWORD PTR ?__LINE__Var@?0??view_mode_available@@YGHW4VIEW_MODES@@@Z@4JA
  01f34	81 c2 8e 01 00
	00		 add	 edx, 398		; 0000018eH
  01f3a	52		 push	 edx
  01f3b	68 00 00 00 00	 push	 OFFSET ??_C@_0EF@LBJPOBFB@c?3?2users?2nhv90?2projects?2eech?2ap@
  01f40	a1 00 00 00 00	 mov	 eax, DWORD PTR ?overload_invalid_list_type_message@@3PBDB ; overload_invalid_list_type_message
  01f45	50		 push	 eax
  01f46	e8 00 00 00 00	 call	 ?process_assert@@YGXPBD0H@Z ; process_assert
  01f4b	c7 45 b4 00 00
	00 00		 mov	 DWORD PTR tv1114[ebp], 0
$LN323@view_mode_:
  01f52	6a 2a		 push	 42			; 0000002aH
  01f54	8b 0d 00 00 00
	00		 mov	 ecx, DWORD PTR ?camera_entity@@3PAUENTITY@@A ; camera_entity
  01f5a	51		 push	 ecx
  01f5b	69 55 b8 b4 00
	00 00		 imul	 edx, DWORD PTR tv1106[ebp], 180
  01f62	8b 45 b4	 mov	 eax, DWORD PTR tv1114[ebp]
  01f65	8b 8c 82 00 00
	00 00		 mov	 ecx, DWORD PTR ?fn_get_local_entity_first_child@@3PAY0CN@P6GPAUENTITY@@PAU1@W4LIST_TYPES@@@ZA[edx+eax*4]
  01f6c	ff d1		 call	 ecx
  01f6e	85 c0		 test	 eax, eax
  01f70	74 09		 je	 SHORT $LN324@view_mode_
  01f72	c7 45 b0 01 00
	00 00		 mov	 DWORD PTR tv1121[ebp], 1
  01f79	eb 07		 jmp	 SHORT $LN325@view_mode_
$LN324@view_mode_:
  01f7b	c7 45 b0 00 00
	00 00		 mov	 DWORD PTR tv1121[ebp], 0
$LN325@view_mode_:
  01f82	8b 55 b0	 mov	 edx, DWORD PTR tv1121[ebp]
  01f85	89 55 fc	 mov	 DWORD PTR _available$[ebp], edx

; 519  : 
; 520  : 			break;

  01f88	eb 1a		 jmp	 SHORT $LN2@view_mode_
$LN65@view_mode_:

; 521  : 		}
; 522  : 		////////////////////////////////////////
; 523  : 		case VIEW_MODE_SAFE:
; 524  : 		////////////////////////////////////////
; 525  : 		{
; 526  : 			available = TRUE;

  01f8a	c7 45 fc 01 00
	00 00		 mov	 DWORD PTR _available$[ebp], 1

; 527  : 
; 528  : 			break;

  01f91	eb 11		 jmp	 SHORT $LN2@view_mode_
$LN66@view_mode_:

; 529  : 		}
; 530  : 		////////////////////////////////////////
; 531  : 		default:
; 532  : 		////////////////////////////////////////
; 533  : 		{
; 534  : 			debug_fatal ("Invalid view mode = %d", mode);

  01f93	8b 45 08	 mov	 eax, DWORD PTR _mode$[ebp]
  01f96	50		 push	 eax
  01f97	68 00 00 00 00	 push	 OFFSET ??_C@_0BH@KFJLEDAI@Invalid?5view?5mode?5?$DN?5?$CFd@
  01f9c	e8 00 00 00 00	 call	 ?debug_fatal@@YAXPBDZZ	; debug_fatal
  01fa1	83 c4 08	 add	 esp, 8
$LN2@view_mode_:

; 535  : 
; 536  : 			break;
; 537  : 		}
; 538  : 	}
; 539  : 
; 540  : 	return (available);

  01fa4	8b 45 fc	 mov	 eax, DWORD PTR _available$[ebp]
$LN1@view_mode_:

; 541  : }

  01fa7	5f		 pop	 edi
  01fa8	5e		 pop	 esi
  01fa9	5b		 pop	 ebx
  01faa	8b e5		 mov	 esp, ebp
  01fac	5d		 pop	 ebp
  01fad	c2 04 00	 ret	 4
$LN326@view_mode_:
  01fb0	00 00 00 00	 DD	 $LN8@view_mode_
  01fb4	00 00 00 00	 DD	 $LN9@view_mode_
  01fb8	00 00 00 00	 DD	 $LN10@view_mode_
  01fbc	00 00 00 00	 DD	 $LN11@view_mode_
  01fc0	00 00 00 00	 DD	 $LN12@view_mode_
  01fc4	00 00 00 00	 DD	 $LN13@view_mode_
  01fc8	00 00 00 00	 DD	 $LN14@view_mode_
  01fcc	00 00 00 00	 DD	 $LN15@view_mode_
  01fd0	00 00 00 00	 DD	 $LN16@view_mode_
  01fd4	00 00 00 00	 DD	 $LN17@view_mode_
  01fd8	00 00 00 00	 DD	 $LN18@view_mode_
  01fdc	00 00 00 00	 DD	 $LN19@view_mode_
  01fe0	00 00 00 00	 DD	 $LN20@view_mode_
  01fe4	00 00 00 00	 DD	 $LN21@view_mode_
  01fe8	00 00 00 00	 DD	 $LN22@view_mode_
  01fec	00 00 00 00	 DD	 $LN23@view_mode_
  01ff0	00 00 00 00	 DD	 $LN24@view_mode_
  01ff4	00 00 00 00	 DD	 $LN25@view_mode_
  01ff8	00 00 00 00	 DD	 $LN26@view_mode_
  01ffc	00 00 00 00	 DD	 $LN27@view_mode_
  02000	00 00 00 00	 DD	 $LN28@view_mode_
  02004	00 00 00 00	 DD	 $LN29@view_mode_
  02008	00 00 00 00	 DD	 $LN30@view_mode_
  0200c	00 00 00 00	 DD	 $LN31@view_mode_
  02010	00 00 00 00	 DD	 $LN32@view_mode_
  02014	00 00 00 00	 DD	 $LN33@view_mode_
  02018	00 00 00 00	 DD	 $LN34@view_mode_
  0201c	00 00 00 00	 DD	 $LN35@view_mode_
  02020	00 00 00 00	 DD	 $LN36@view_mode_
  02024	00 00 00 00	 DD	 $LN37@view_mode_
  02028	00 00 00 00	 DD	 $LN38@view_mode_
  0202c	00 00 00 00	 DD	 $LN39@view_mode_
  02030	00 00 00 00	 DD	 $LN40@view_mode_
  02034	00 00 00 00	 DD	 $LN41@view_mode_
  02038	00 00 00 00	 DD	 $LN42@view_mode_
  0203c	00 00 00 00	 DD	 $LN43@view_mode_
  02040	00 00 00 00	 DD	 $LN44@view_mode_
  02044	00 00 00 00	 DD	 $LN50@view_mode_
  02048	00 00 00 00	 DD	 $LN60@view_mode_
  0204c	00 00 00 00	 DD	 $LN61@view_mode_
  02050	00 00 00 00	 DD	 $LN62@view_mode_
  02054	00 00 00 00	 DD	 $LN63@view_mode_
  02058	00 00 00 00	 DD	 $LN64@view_mode_
  0205c	00 00 00 00	 DD	 $LN65@view_mode_
?view_mode_available@@YGHW4VIEW_MODES@@@Z ENDP		; view_mode_available
_TEXT	ENDS
; Function compile flags: /Odtp /ZI
; File c:\users\nhv90\projects\eech\aphavoc\source\gunships\views\vm_main.c
;	COMDAT ?get_viewed_entity@@YGPAUENTITY@@XZ
_TEXT	SEGMENT
tv64 = -72						; size = 4
_en$ = -4						; size = 4
?get_viewed_entity@@YGPAUENTITY@@XZ PROC		; get_viewed_entity, COMDAT

; 1606 : {

  00000	55		 push	 ebp
  00001	8b ec		 mov	 ebp, esp
  00003	83 ec 48	 sub	 esp, 72			; 00000048H
  00006	53		 push	 ebx
  00007	56		 push	 esi
  00008	57		 push	 edi

; 1607 : 	entity
; 1608 : 		*en;
; 1609 : 
; 1610 : 	switch (get_view_mode ())

  00009	a1 00 00 00 00	 mov	 eax, DWORD PTR ?view_mode@@3W4VIEW_MODES@@A ; view_mode
  0000e	89 45 b8	 mov	 DWORD PTR tv64[ebp], eax
  00011	83 7d b8 2b	 cmp	 DWORD PTR tv64[ebp], 43	; 0000002bH
  00015	0f 87 19 02 00
	00		 ja	 $LN2@get_viewed
  0001b	8b 4d b8	 mov	 ecx, DWORD PTR tv64[ebp]
  0001e	ff 24 8d 00 00
	00 00		 jmp	 DWORD PTR $LN49@get_viewed[ecx*4]
$LN4@get_viewed:

; 1611 : 	{
; 1612 : 		////////////////////////////////////////
; 1613 : 		case VIEW_MODE_COCKPIT_PANEL_UP40_LEFT90:
; 1614 : 		////////////////////////////////////////
; 1615 : 		{
; 1616 : 			en = get_gunship_entity ();

  00025	a1 00 00 00 00	 mov	 eax, DWORD PTR ?gunship_entity@@3PAUENTITY@@A ; gunship_entity
  0002a	89 45 fc	 mov	 DWORD PTR _en$[ebp], eax

; 1617 : 
; 1618 : 			break;

  0002d	e9 02 02 00 00	 jmp	 $LN2@get_viewed
$LN5@get_viewed:

; 1619 : 		}
; 1620 : 		////////////////////////////////////////
; 1621 : 		case VIEW_MODE_COCKPIT_PANEL_UP40_LEFT60:
; 1622 : 		////////////////////////////////////////
; 1623 : 		{
; 1624 : 			en = get_gunship_entity ();

  00032	a1 00 00 00 00	 mov	 eax, DWORD PTR ?gunship_entity@@3PAUENTITY@@A ; gunship_entity
  00037	89 45 fc	 mov	 DWORD PTR _en$[ebp], eax

; 1625 : 
; 1626 : 			break;

  0003a	e9 f5 01 00 00	 jmp	 $LN2@get_viewed
$LN6@get_viewed:

; 1627 : 		}
; 1628 : 		////////////////////////////////////////
; 1629 : 		case VIEW_MODE_COCKPIT_PANEL_UP40_LEFT30:
; 1630 : 		////////////////////////////////////////
; 1631 : 		{
; 1632 : 			en = get_gunship_entity ();

  0003f	a1 00 00 00 00	 mov	 eax, DWORD PTR ?gunship_entity@@3PAUENTITY@@A ; gunship_entity
  00044	89 45 fc	 mov	 DWORD PTR _en$[ebp], eax

; 1633 : 
; 1634 : 			break;

  00047	e9 e8 01 00 00	 jmp	 $LN2@get_viewed
$LN7@get_viewed:

; 1635 : 		}
; 1636 : 		////////////////////////////////////////
; 1637 : 		case VIEW_MODE_COCKPIT_PANEL_UP40_AHEAD:
; 1638 : 		////////////////////////////////////////
; 1639 : 		{
; 1640 : 			en = get_gunship_entity ();

  0004c	a1 00 00 00 00	 mov	 eax, DWORD PTR ?gunship_entity@@3PAUENTITY@@A ; gunship_entity
  00051	89 45 fc	 mov	 DWORD PTR _en$[ebp], eax

; 1641 : 
; 1642 : 			break;

  00054	e9 db 01 00 00	 jmp	 $LN2@get_viewed
$LN8@get_viewed:

; 1643 : 		}
; 1644 : 		////////////////////////////////////////
; 1645 : 		case VIEW_MODE_COCKPIT_PANEL_UP40_RIGHT30:
; 1646 : 		////////////////////////////////////////
; 1647 : 		{
; 1648 : 			en = get_gunship_entity ();

  00059	a1 00 00 00 00	 mov	 eax, DWORD PTR ?gunship_entity@@3PAUENTITY@@A ; gunship_entity
  0005e	89 45 fc	 mov	 DWORD PTR _en$[ebp], eax

; 1649 : 
; 1650 : 			break;

  00061	e9 ce 01 00 00	 jmp	 $LN2@get_viewed
$LN9@get_viewed:

; 1651 : 		}
; 1652 : 		////////////////////////////////////////
; 1653 : 		case VIEW_MODE_COCKPIT_PANEL_UP40_RIGHT60:
; 1654 : 		////////////////////////////////////////
; 1655 : 		{
; 1656 : 			en = get_gunship_entity ();

  00066	a1 00 00 00 00	 mov	 eax, DWORD PTR ?gunship_entity@@3PAUENTITY@@A ; gunship_entity
  0006b	89 45 fc	 mov	 DWORD PTR _en$[ebp], eax

; 1657 : 
; 1658 : 			break;

  0006e	e9 c1 01 00 00	 jmp	 $LN2@get_viewed
$LN10@get_viewed:

; 1659 : 		}
; 1660 : 		////////////////////////////////////////
; 1661 : 		case VIEW_MODE_COCKPIT_PANEL_UP40_RIGHT90:
; 1662 : 		////////////////////////////////////////
; 1663 : 		{
; 1664 : 			en = get_gunship_entity ();

  00073	a1 00 00 00 00	 mov	 eax, DWORD PTR ?gunship_entity@@3PAUENTITY@@A ; gunship_entity
  00078	89 45 fc	 mov	 DWORD PTR _en$[ebp], eax

; 1665 : 
; 1666 : 			break;

  0007b	e9 b4 01 00 00	 jmp	 $LN2@get_viewed
$LN11@get_viewed:

; 1667 : 		}
; 1668 : 		////////////////////////////////////////
; 1669 : 		case VIEW_MODE_COCKPIT_PANEL_UP20_LEFT90:
; 1670 : 		////////////////////////////////////////
; 1671 : 		{
; 1672 : 			en = get_gunship_entity ();

  00080	a1 00 00 00 00	 mov	 eax, DWORD PTR ?gunship_entity@@3PAUENTITY@@A ; gunship_entity
  00085	89 45 fc	 mov	 DWORD PTR _en$[ebp], eax

; 1673 : 
; 1674 : 			break;

  00088	e9 a7 01 00 00	 jmp	 $LN2@get_viewed
$LN12@get_viewed:

; 1675 : 		}
; 1676 : 		////////////////////////////////////////
; 1677 : 		case VIEW_MODE_COCKPIT_PANEL_UP20_LEFT60:
; 1678 : 		////////////////////////////////////////
; 1679 : 		{
; 1680 : 			en = get_gunship_entity ();

  0008d	a1 00 00 00 00	 mov	 eax, DWORD PTR ?gunship_entity@@3PAUENTITY@@A ; gunship_entity
  00092	89 45 fc	 mov	 DWORD PTR _en$[ebp], eax

; 1681 : 
; 1682 : 			break;

  00095	e9 9a 01 00 00	 jmp	 $LN2@get_viewed
$LN13@get_viewed:

; 1683 : 		}
; 1684 : 		////////////////////////////////////////
; 1685 : 		case VIEW_MODE_COCKPIT_PANEL_UP20_LEFT30:
; 1686 : 		////////////////////////////////////////
; 1687 : 		{
; 1688 : 			en = get_gunship_entity ();

  0009a	a1 00 00 00 00	 mov	 eax, DWORD PTR ?gunship_entity@@3PAUENTITY@@A ; gunship_entity
  0009f	89 45 fc	 mov	 DWORD PTR _en$[ebp], eax

; 1689 : 
; 1690 : 			break;

  000a2	e9 8d 01 00 00	 jmp	 $LN2@get_viewed
$LN14@get_viewed:

; 1691 : 		}
; 1692 : 		////////////////////////////////////////
; 1693 : 		case VIEW_MODE_COCKPIT_PANEL_UP20_AHEAD:
; 1694 : 		////////////////////////////////////////
; 1695 : 		{
; 1696 : 			en = get_gunship_entity ();

  000a7	a1 00 00 00 00	 mov	 eax, DWORD PTR ?gunship_entity@@3PAUENTITY@@A ; gunship_entity
  000ac	89 45 fc	 mov	 DWORD PTR _en$[ebp], eax

; 1697 : 
; 1698 : 			break;

  000af	e9 80 01 00 00	 jmp	 $LN2@get_viewed
$LN15@get_viewed:

; 1699 : 		}
; 1700 : 		////////////////////////////////////////
; 1701 : 		case VIEW_MODE_COCKPIT_PANEL_UP20_RIGHT30:
; 1702 : 		////////////////////////////////////////
; 1703 : 		{
; 1704 : 			en = get_gunship_entity ();

  000b4	a1 00 00 00 00	 mov	 eax, DWORD PTR ?gunship_entity@@3PAUENTITY@@A ; gunship_entity
  000b9	89 45 fc	 mov	 DWORD PTR _en$[ebp], eax

; 1705 : 
; 1706 : 			break;

  000bc	e9 73 01 00 00	 jmp	 $LN2@get_viewed
$LN16@get_viewed:

; 1707 : 		}
; 1708 : 		////////////////////////////////////////
; 1709 : 		case VIEW_MODE_COCKPIT_PANEL_UP20_RIGHT60:
; 1710 : 		////////////////////////////////////////
; 1711 : 		{
; 1712 : 			en = get_gunship_entity ();

  000c1	a1 00 00 00 00	 mov	 eax, DWORD PTR ?gunship_entity@@3PAUENTITY@@A ; gunship_entity
  000c6	89 45 fc	 mov	 DWORD PTR _en$[ebp], eax

; 1713 : 
; 1714 : 			break;

  000c9	e9 66 01 00 00	 jmp	 $LN2@get_viewed
$LN17@get_viewed:

; 1715 : 		}
; 1716 : 		////////////////////////////////////////
; 1717 : 		case VIEW_MODE_COCKPIT_PANEL_UP20_RIGHT90:
; 1718 : 		////////////////////////////////////////
; 1719 : 		{
; 1720 : 			en = get_gunship_entity ();

  000ce	a1 00 00 00 00	 mov	 eax, DWORD PTR ?gunship_entity@@3PAUENTITY@@A ; gunship_entity
  000d3	89 45 fc	 mov	 DWORD PTR _en$[ebp], eax

; 1721 : 
; 1722 : 			break;

  000d6	e9 59 01 00 00	 jmp	 $LN2@get_viewed
$LN18@get_viewed:

; 1723 : 		}
; 1724 : 		////////////////////////////////////////
; 1725 : 		case VIEW_MODE_COCKPIT_PANEL_LEVEL_LEFT90:
; 1726 : 		////////////////////////////////////////
; 1727 : 		{
; 1728 : 			en = get_gunship_entity ();

  000db	a1 00 00 00 00	 mov	 eax, DWORD PTR ?gunship_entity@@3PAUENTITY@@A ; gunship_entity
  000e0	89 45 fc	 mov	 DWORD PTR _en$[ebp], eax

; 1729 : 
; 1730 : 			break;

  000e3	e9 4c 01 00 00	 jmp	 $LN2@get_viewed
$LN19@get_viewed:

; 1731 : 		}
; 1732 : 		////////////////////////////////////////
; 1733 : 		case VIEW_MODE_COCKPIT_PANEL_LEVEL_LEFT60:
; 1734 : 		////////////////////////////////////////
; 1735 : 		{
; 1736 : 			en = get_gunship_entity ();

  000e8	a1 00 00 00 00	 mov	 eax, DWORD PTR ?gunship_entity@@3PAUENTITY@@A ; gunship_entity
  000ed	89 45 fc	 mov	 DWORD PTR _en$[ebp], eax

; 1737 : 
; 1738 : 			break;

  000f0	e9 3f 01 00 00	 jmp	 $LN2@get_viewed
$LN20@get_viewed:

; 1739 : 		}
; 1740 : 		////////////////////////////////////////
; 1741 : 		case VIEW_MODE_COCKPIT_PANEL_LEVEL_LEFT30:
; 1742 : 		////////////////////////////////////////
; 1743 : 		{
; 1744 : 			en = get_gunship_entity ();

  000f5	a1 00 00 00 00	 mov	 eax, DWORD PTR ?gunship_entity@@3PAUENTITY@@A ; gunship_entity
  000fa	89 45 fc	 mov	 DWORD PTR _en$[ebp], eax

; 1745 : 
; 1746 : 			break;

  000fd	e9 32 01 00 00	 jmp	 $LN2@get_viewed
$LN21@get_viewed:

; 1747 : 		}
; 1748 : 		////////////////////////////////////////
; 1749 : 		case VIEW_MODE_COCKPIT_PANEL_LEVEL_AHEAD:
; 1750 : 		////////////////////////////////////////
; 1751 : 		{
; 1752 : 			en = get_gunship_entity ();

  00102	a1 00 00 00 00	 mov	 eax, DWORD PTR ?gunship_entity@@3PAUENTITY@@A ; gunship_entity
  00107	89 45 fc	 mov	 DWORD PTR _en$[ebp], eax

; 1753 : 
; 1754 : 			break;

  0010a	e9 25 01 00 00	 jmp	 $LN2@get_viewed
$LN22@get_viewed:

; 1755 : 		}
; 1756 : 		////////////////////////////////////////
; 1757 : 		case VIEW_MODE_COCKPIT_PANEL_LEVEL_RIGHT30:
; 1758 : 		////////////////////////////////////////
; 1759 : 		{
; 1760 : 			en = get_gunship_entity ();

  0010f	a1 00 00 00 00	 mov	 eax, DWORD PTR ?gunship_entity@@3PAUENTITY@@A ; gunship_entity
  00114	89 45 fc	 mov	 DWORD PTR _en$[ebp], eax

; 1761 : 
; 1762 : 			break;

  00117	e9 18 01 00 00	 jmp	 $LN2@get_viewed
$LN23@get_viewed:

; 1763 : 		}
; 1764 : 		////////////////////////////////////////
; 1765 : 		case VIEW_MODE_COCKPIT_PANEL_LEVEL_RIGHT60:
; 1766 : 		////////////////////////////////////////
; 1767 : 		{
; 1768 : 			en = get_gunship_entity ();

  0011c	a1 00 00 00 00	 mov	 eax, DWORD PTR ?gunship_entity@@3PAUENTITY@@A ; gunship_entity
  00121	89 45 fc	 mov	 DWORD PTR _en$[ebp], eax

; 1769 : 
; 1770 : 			break;

  00124	e9 0b 01 00 00	 jmp	 $LN2@get_viewed
$LN24@get_viewed:

; 1771 : 		}
; 1772 : 		////////////////////////////////////////
; 1773 : 		case VIEW_MODE_COCKPIT_PANEL_LEVEL_RIGHT90:
; 1774 : 		////////////////////////////////////////
; 1775 : 		{
; 1776 : 			en = get_gunship_entity ();

  00129	a1 00 00 00 00	 mov	 eax, DWORD PTR ?gunship_entity@@3PAUENTITY@@A ; gunship_entity
  0012e	89 45 fc	 mov	 DWORD PTR _en$[ebp], eax

; 1777 : 
; 1778 : 			break;

  00131	e9 fe 00 00 00	 jmp	 $LN2@get_viewed
$LN25@get_viewed:

; 1779 : 		}
; 1780 : 		////////////////////////////////////////
; 1781 : 		case VIEW_MODE_COCKPIT_PANEL_DOWN20_LEFT90:
; 1782 : 		////////////////////////////////////////
; 1783 : 		{
; 1784 : 			en = get_gunship_entity ();

  00136	a1 00 00 00 00	 mov	 eax, DWORD PTR ?gunship_entity@@3PAUENTITY@@A ; gunship_entity
  0013b	89 45 fc	 mov	 DWORD PTR _en$[ebp], eax

; 1785 : 
; 1786 : 			break;

  0013e	e9 f1 00 00 00	 jmp	 $LN2@get_viewed
$LN26@get_viewed:

; 1787 : 		}
; 1788 : 		////////////////////////////////////////
; 1789 : 		case VIEW_MODE_COCKPIT_PANEL_DOWN20_LEFT60:
; 1790 : 		////////////////////////////////////////
; 1791 : 		{
; 1792 : 			en = get_gunship_entity ();

  00143	a1 00 00 00 00	 mov	 eax, DWORD PTR ?gunship_entity@@3PAUENTITY@@A ; gunship_entity
  00148	89 45 fc	 mov	 DWORD PTR _en$[ebp], eax

; 1793 : 
; 1794 : 			break;

  0014b	e9 e4 00 00 00	 jmp	 $LN2@get_viewed
$LN27@get_viewed:

; 1795 : 		}
; 1796 : 		////////////////////////////////////////
; 1797 : 		case VIEW_MODE_COCKPIT_PANEL_DOWN20_LEFT30:
; 1798 : 		////////////////////////////////////////
; 1799 : 		{
; 1800 : 			en = get_gunship_entity ();

  00150	a1 00 00 00 00	 mov	 eax, DWORD PTR ?gunship_entity@@3PAUENTITY@@A ; gunship_entity
  00155	89 45 fc	 mov	 DWORD PTR _en$[ebp], eax

; 1801 : 
; 1802 : 			break;

  00158	e9 d7 00 00 00	 jmp	 $LN2@get_viewed
$LN28@get_viewed:

; 1803 : 		}
; 1804 : 		////////////////////////////////////////
; 1805 : 		case VIEW_MODE_COCKPIT_PANEL_DOWN20_AHEAD:
; 1806 : 		////////////////////////////////////////
; 1807 : 		{
; 1808 : 			en = get_gunship_entity ();

  0015d	a1 00 00 00 00	 mov	 eax, DWORD PTR ?gunship_entity@@3PAUENTITY@@A ; gunship_entity
  00162	89 45 fc	 mov	 DWORD PTR _en$[ebp], eax

; 1809 : 
; 1810 : 			break;

  00165	e9 ca 00 00 00	 jmp	 $LN2@get_viewed
$LN29@get_viewed:

; 1811 : 		}
; 1812 : 		////////////////////////////////////////
; 1813 : 		case VIEW_MODE_COCKPIT_PANEL_DOWN20_RIGHT30:
; 1814 : 		////////////////////////////////////////
; 1815 : 		{
; 1816 : 			en = get_gunship_entity ();

  0016a	a1 00 00 00 00	 mov	 eax, DWORD PTR ?gunship_entity@@3PAUENTITY@@A ; gunship_entity
  0016f	89 45 fc	 mov	 DWORD PTR _en$[ebp], eax

; 1817 : 
; 1818 : 			break;

  00172	e9 bd 00 00 00	 jmp	 $LN2@get_viewed
$LN30@get_viewed:

; 1819 : 		}
; 1820 : 		////////////////////////////////////////
; 1821 : 		case VIEW_MODE_COCKPIT_PANEL_DOWN20_RIGHT60:
; 1822 : 		////////////////////////////////////////
; 1823 : 		{
; 1824 : 			en = get_gunship_entity ();

  00177	a1 00 00 00 00	 mov	 eax, DWORD PTR ?gunship_entity@@3PAUENTITY@@A ; gunship_entity
  0017c	89 45 fc	 mov	 DWORD PTR _en$[ebp], eax

; 1825 : 
; 1826 : 			break;

  0017f	e9 b0 00 00 00	 jmp	 $LN2@get_viewed
$LN31@get_viewed:

; 1827 : 		}
; 1828 : 		////////////////////////////////////////
; 1829 : 		case VIEW_MODE_COCKPIT_PANEL_DOWN20_RIGHT90:
; 1830 : 		////////////////////////////////////////
; 1831 : 		{
; 1832 : 			en = get_gunship_entity ();

  00184	a1 00 00 00 00	 mov	 eax, DWORD PTR ?gunship_entity@@3PAUENTITY@@A ; gunship_entity
  00189	89 45 fc	 mov	 DWORD PTR _en$[ebp], eax

; 1833 : 
; 1834 : 			break;

  0018c	e9 a3 00 00 00	 jmp	 $LN2@get_viewed
$LN32@get_viewed:

; 1835 : 		}
; 1836 : 		////////////////////////////////////////
; 1837 : 		case VIEW_MODE_COCKPIT_PANEL_SPECIAL_APACHE_LHS_MFD:
; 1838 : 		////////////////////////////////////////
; 1839 : 		{
; 1840 : 			en = get_gunship_entity ();

  00191	a1 00 00 00 00	 mov	 eax, DWORD PTR ?gunship_entity@@3PAUENTITY@@A ; gunship_entity
  00196	89 45 fc	 mov	 DWORD PTR _en$[ebp], eax

; 1841 : 
; 1842 : 			break;

  00199	e9 96 00 00 00	 jmp	 $LN2@get_viewed
$LN33@get_viewed:

; 1843 : 		}
; 1844 : 		////////////////////////////////////////
; 1845 : 		case VIEW_MODE_COCKPIT_PANEL_SPECIAL_APACHE_RHS_MFD:
; 1846 : 		////////////////////////////////////////
; 1847 : 		{
; 1848 : 			en = get_gunship_entity ();

  0019e	a1 00 00 00 00	 mov	 eax, DWORD PTR ?gunship_entity@@3PAUENTITY@@A ; gunship_entity
  001a3	89 45 fc	 mov	 DWORD PTR _en$[ebp], eax

; 1849 : 
; 1850 : 			break;

  001a6	e9 89 00 00 00	 jmp	 $LN2@get_viewed
$LN34@get_viewed:

; 1851 : 		}
; 1852 : 		////////////////////////////////////////
; 1853 : 		case VIEW_MODE_COCKPIT_PANEL_SPECIAL_HAVOC_TV:
; 1854 : 		////////////////////////////////////////
; 1855 : 		{
; 1856 : 			en = get_gunship_entity ();

  001ab	a1 00 00 00 00	 mov	 eax, DWORD PTR ?gunship_entity@@3PAUENTITY@@A ; gunship_entity
  001b0	89 45 fc	 mov	 DWORD PTR _en$[ebp], eax

; 1857 : 
; 1858 : 			break;

  001b3	eb 7f		 jmp	 SHORT $LN2@get_viewed
$LN35@get_viewed:

; 1859 : 		}
; 1860 : 		////////////////////////////////////////
; 1861 : 		case VIEW_MODE_COCKPIT_PANEL_SPECIAL_HAVOC_HUD:
; 1862 : 		////////////////////////////////////////
; 1863 : 		{
; 1864 : 			en = get_gunship_entity ();

  001b5	a1 00 00 00 00	 mov	 eax, DWORD PTR ?gunship_entity@@3PAUENTITY@@A ; gunship_entity
  001ba	89 45 fc	 mov	 DWORD PTR _en$[ebp], eax

; 1865 : 
; 1866 : 			break;

  001bd	eb 75		 jmp	 SHORT $LN2@get_viewed
$LN36@get_viewed:

; 1867 : 		}
; 1868 : 		////////////////////////////////////////
; 1869 : 		case VIEW_MODE_VIRTUAL_COCKPIT:
; 1870 : 		////////////////////////////////////////
; 1871 : 		{
; 1872 : 			en = get_gunship_entity ();

  001bf	a1 00 00 00 00	 mov	 eax, DWORD PTR ?gunship_entity@@3PAUENTITY@@A ; gunship_entity
  001c4	89 45 fc	 mov	 DWORD PTR _en$[ebp], eax

; 1873 : 
; 1874 : 			break;

  001c7	eb 6b		 jmp	 SHORT $LN2@get_viewed
$LN37@get_viewed:

; 1875 : 		}
; 1876 : 		////////////////////////////////////////
; 1877 : 		case VIEW_MODE_VIRTUAL_COCKPIT_PADLOCK:
; 1878 : 		////////////////////////////////////////
; 1879 : 		{
; 1880 : 			en = get_gunship_entity ();

  001c9	a1 00 00 00 00	 mov	 eax, DWORD PTR ?gunship_entity@@3PAUENTITY@@A ; gunship_entity
  001ce	89 45 fc	 mov	 DWORD PTR _en$[ebp], eax

; 1881 : 
; 1882 : 			break;

  001d1	eb 61		 jmp	 SHORT $LN2@get_viewed
$LN38@get_viewed:

; 1883 : 		}
; 1884 : 		////////////////////////////////////////
; 1885 : 		case VIEW_MODE_VIRTUAL_COCKPIT_TRACK_TARGET:
; 1886 : 		////////////////////////////////////////
; 1887 : 		{
; 1888 : 			en = get_gunship_entity ();

  001d3	a1 00 00 00 00	 mov	 eax, DWORD PTR ?gunship_entity@@3PAUENTITY@@A ; gunship_entity
  001d8	89 45 fc	 mov	 DWORD PTR _en$[ebp], eax

; 1889 : 
; 1890 : 			break;

  001db	eb 57		 jmp	 SHORT $LN2@get_viewed
$LN39@get_viewed:

; 1891 : 		}
; 1892 : 		////////////////////////////////////////
; 1893 : 		case VIEW_MODE_VIRTUAL_COCKPIT_CREW:
; 1894 : 		////////////////////////////////////////
; 1895 : 		{
; 1896 : 			en = get_gunship_entity ();

  001dd	a1 00 00 00 00	 mov	 eax, DWORD PTR ?gunship_entity@@3PAUENTITY@@A ; gunship_entity
  001e2	89 45 fc	 mov	 DWORD PTR _en$[ebp], eax

; 1897 : 
; 1898 : 			break;

  001e5	eb 4d		 jmp	 SHORT $LN2@get_viewed
$LN40@get_viewed:

; 1899 : 		}
; 1900 : 		////////////////////////////////////////
; 1901 : 		case VIEW_MODE_VIRTUAL_COCKPIT_HUD:
; 1902 : 		////////////////////////////////////////
; 1903 : 		{
; 1904 : 			en = get_gunship_entity ();

  001e7	a1 00 00 00 00	 mov	 eax, DWORD PTR ?gunship_entity@@3PAUENTITY@@A ; gunship_entity
  001ec	89 45 fc	 mov	 DWORD PTR _en$[ebp], eax

; 1905 : 
; 1906 : 			break;

  001ef	eb 43		 jmp	 SHORT $LN2@get_viewed
$LN41@get_viewed:

; 1907 : 		}
; 1908 : 		////////////////////////////////////////
; 1909 : 		case VIEW_MODE_VIRTUAL_COCKPIT_PERISCOPE:
; 1910 : 		////////////////////////////////////////
; 1911 : 		{
; 1912 : 			en = get_gunship_entity ();

  001f1	a1 00 00 00 00	 mov	 eax, DWORD PTR ?gunship_entity@@3PAUENTITY@@A ; gunship_entity
  001f6	89 45 fc	 mov	 DWORD PTR _en$[ebp], eax

; 1913 : 
; 1914 : 			break;

  001f9	eb 39		 jmp	 SHORT $LN2@get_viewed
$LN42@get_viewed:

; 1915 : 		}
; 1916 : 		////////////////////////////////////////
; 1917 : 		case VIEW_MODE_VIRTUAL_COCKPIT_PILOT_LHS_DISPLAY:
; 1918 : 		////////////////////////////////////////
; 1919 : 		{
; 1920 : 			en = get_gunship_entity ();

  001fb	a1 00 00 00 00	 mov	 eax, DWORD PTR ?gunship_entity@@3PAUENTITY@@A ; gunship_entity
  00200	89 45 fc	 mov	 DWORD PTR _en$[ebp], eax

; 1921 : 
; 1922 : 			break;

  00203	eb 2f		 jmp	 SHORT $LN2@get_viewed
$LN43@get_viewed:

; 1923 : 		}
; 1924 : 		////////////////////////////////////////
; 1925 : 		case VIEW_MODE_VIRTUAL_COCKPIT_PILOT_RHS_DISPLAY:
; 1926 : 		////////////////////////////////////////
; 1927 : 		{
; 1928 : 			en = get_gunship_entity ();

  00205	a1 00 00 00 00	 mov	 eax, DWORD PTR ?gunship_entity@@3PAUENTITY@@A ; gunship_entity
  0020a	89 45 fc	 mov	 DWORD PTR _en$[ebp], eax

; 1929 : 
; 1930 : 			break;

  0020d	eb 25		 jmp	 SHORT $LN2@get_viewed
$LN44@get_viewed:

; 1931 : 		}
; 1932 : 		////////////////////////////////////////
; 1933 : 		case VIEW_MODE_VIRTUAL_COCKPIT_CO_PILOT_LHS_DISPLAY:
; 1934 : 		////////////////////////////////////////
; 1935 : 		{
; 1936 : 			en = get_gunship_entity ();

  0020f	a1 00 00 00 00	 mov	 eax, DWORD PTR ?gunship_entity@@3PAUENTITY@@A ; gunship_entity
  00214	89 45 fc	 mov	 DWORD PTR _en$[ebp], eax

; 1937 : 
; 1938 : 			break;

  00217	eb 1b		 jmp	 SHORT $LN2@get_viewed
$LN45@get_viewed:

; 1939 : 		}
; 1940 : 		////////////////////////////////////////
; 1941 : 		case VIEW_MODE_VIRTUAL_COCKPIT_CO_PILOT_RHS_DISPLAY:
; 1942 : 		////////////////////////////////////////
; 1943 : 		{
; 1944 : 			en = get_gunship_entity ();

  00219	a1 00 00 00 00	 mov	 eax, DWORD PTR ?gunship_entity@@3PAUENTITY@@A ; gunship_entity
  0021e	89 45 fc	 mov	 DWORD PTR _en$[ebp], eax

; 1945 : 
; 1946 : 			break;

  00221	eb 11		 jmp	 SHORT $LN2@get_viewed
$LN46@get_viewed:

; 1947 : 		}
; 1948 : 		////////////////////////////////////////
; 1949 : 		case VIEW_MODE_EXTERNAL:
; 1950 : 		////////////////////////////////////////
; 1951 : 		{
; 1952 : 			en = get_external_view_entity ();

  00223	e8 00 00 00 00	 call	 ?get_external_view_entity@@YGPAUENTITY@@XZ ; get_external_view_entity
  00228	89 45 fc	 mov	 DWORD PTR _en$[ebp], eax

; 1953 : 
; 1954 : 			break;

  0022b	eb 07		 jmp	 SHORT $LN2@get_viewed
$LN47@get_viewed:

; 1955 : 		}
; 1956 : 		////////////////////////////////////////
; 1957 : 		case VIEW_MODE_SAFE:
; 1958 : 		////////////////////////////////////////
; 1959 : 		{
; 1960 : 			en = NULL;

  0022d	c7 45 fc 00 00
	00 00		 mov	 DWORD PTR _en$[ebp], 0
$LN2@get_viewed:

; 1961 : 
; 1962 : 			break;
; 1963 : 		}
; 1964 : 	}
; 1965 : 
; 1966 : 	return (en);

  00234	8b 45 fc	 mov	 eax, DWORD PTR _en$[ebp]

; 1967 : }

  00237	5f		 pop	 edi
  00238	5e		 pop	 esi
  00239	5b		 pop	 ebx
  0023a	8b e5		 mov	 esp, ebp
  0023c	5d		 pop	 ebp
  0023d	c3		 ret	 0
  0023e	66 90		 npad	 2
$LN49@get_viewed:
  00240	00 00 00 00	 DD	 $LN4@get_viewed
  00244	00 00 00 00	 DD	 $LN5@get_viewed
  00248	00 00 00 00	 DD	 $LN6@get_viewed
  0024c	00 00 00 00	 DD	 $LN7@get_viewed
  00250	00 00 00 00	 DD	 $LN8@get_viewed
  00254	00 00 00 00	 DD	 $LN9@get_viewed
  00258	00 00 00 00	 DD	 $LN10@get_viewed
  0025c	00 00 00 00	 DD	 $LN11@get_viewed
  00260	00 00 00 00	 DD	 $LN12@get_viewed
  00264	00 00 00 00	 DD	 $LN13@get_viewed
  00268	00 00 00 00	 DD	 $LN14@get_viewed
  0026c	00 00 00 00	 DD	 $LN15@get_viewed
  00270	00 00 00 00	 DD	 $LN16@get_viewed
  00274	00 00 00 00	 DD	 $LN17@get_viewed
  00278	00 00 00 00	 DD	 $LN18@get_viewed
  0027c	00 00 00 00	 DD	 $LN19@get_viewed
  00280	00 00 00 00	 DD	 $LN20@get_viewed
  00284	00 00 00 00	 DD	 $LN21@get_viewed
  00288	00 00 00 00	 DD	 $LN22@get_viewed
  0028c	00 00 00 00	 DD	 $LN23@get_viewed
  00290	00 00 00 00	 DD	 $LN24@get_viewed
  00294	00 00 00 00	 DD	 $LN25@get_viewed
  00298	00 00 00 00	 DD	 $LN26@get_viewed
  0029c	00 00 00 00	 DD	 $LN27@get_viewed
  002a0	00 00 00 00	 DD	 $LN28@get_viewed
  002a4	00 00 00 00	 DD	 $LN29@get_viewed
  002a8	00 00 00 00	 DD	 $LN30@get_viewed
  002ac	00 00 00 00	 DD	 $LN31@get_viewed
  002b0	00 00 00 00	 DD	 $LN32@get_viewed
  002b4	00 00 00 00	 DD	 $LN33@get_viewed
  002b8	00 00 00 00	 DD	 $LN34@get_viewed
  002bc	00 00 00 00	 DD	 $LN35@get_viewed
  002c0	00 00 00 00	 DD	 $LN36@get_viewed
  002c4	00 00 00 00	 DD	 $LN37@get_viewed
  002c8	00 00 00 00	 DD	 $LN38@get_viewed
  002cc	00 00 00 00	 DD	 $LN39@get_viewed
  002d0	00 00 00 00	 DD	 $LN40@get_viewed
  002d4	00 00 00 00	 DD	 $LN41@get_viewed
  002d8	00 00 00 00	 DD	 $LN42@get_viewed
  002dc	00 00 00 00	 DD	 $LN43@get_viewed
  002e0	00 00 00 00	 DD	 $LN44@get_viewed
  002e4	00 00 00 00	 DD	 $LN45@get_viewed
  002e8	00 00 00 00	 DD	 $LN46@get_viewed
  002ec	00 00 00 00	 DD	 $LN47@get_viewed
?get_viewed_entity@@YGPAUENTITY@@XZ ENDP		; get_viewed_entity
_TEXT	ENDS
; Function compile flags: /Odtp /ZI
; File c:\users\nhv90\projects\eech\aphavoc\source\gunships\views\vm_main.c
;	COMDAT ?set_view_mode@@YGHW4VIEW_MODES@@@Z
_TEXT	SEGMENT
_available$ = -4					; size = 4
_mode$ = 8						; size = 4
?set_view_mode@@YGHW4VIEW_MODES@@@Z PROC		; set_view_mode, COMDAT

; 1573 : {

  00000	55		 push	 ebp
  00001	8b ec		 mov	 ebp, esp
  00003	83 ec 44	 sub	 esp, 68			; 00000044H
  00006	53		 push	 ebx
  00007	56		 push	 esi
  00008	57		 push	 edi

; 1574 : 	int
; 1575 : 		available;
; 1576 : 
; 1577 : 	ASSERT ((mode >= 0) && (mode < NUM_VIEW_MODES));

  00009	83 7d 08 00	 cmp	 DWORD PTR _mode$[ebp], 0
  0000d	7c 06		 jl	 SHORT $LN3@set_view_m
  0000f	83 7d 08 2c	 cmp	 DWORD PTR _mode$[ebp], 44 ; 0000002cH
  00013	7c 18		 jl	 SHORT $LN2@set_view_m
$LN3@set_view_m:
  00015	a1 00 00 00 00	 mov	 eax, DWORD PTR ?__LINE__Var@?0??set_view_mode@@YGHW4VIEW_MODES@@@Z@4JA
  0001a	83 c0 04	 add	 eax, 4
  0001d	50		 push	 eax
  0001e	68 00 00 00 00	 push	 OFFSET ??_C@_0EF@LBJPOBFB@c?3?2users?2nhv90?2projects?2eech?2ap@
  00023	68 00 00 00 00	 push	 OFFSET ??_C@_0CH@NOEHHLJO@?$CImode?5?$DO?$DN?50?$CJ?5?$CG?$CG?5?$CImode?5?$DM?5NUM_VIEW@
  00028	e8 00 00 00 00	 call	 ?process_assert@@YGXPBD0H@Z ; process_assert
$LN2@set_view_m:

; 1578 : 
; 1579 : 	if (available = view_mode_available (mode))

  0002d	8b 45 08	 mov	 eax, DWORD PTR _mode$[ebp]
  00030	50		 push	 eax
  00031	e8 00 00 00 00	 call	 ?view_mode_available@@YGHW4VIEW_MODES@@@Z ; view_mode_available
  00036	89 45 fc	 mov	 DWORD PTR _available$[ebp], eax
  00039	83 7d fc 00	 cmp	 DWORD PTR _available$[ebp], 0
  0003d	74 30		 je	 SHORT $LN4@set_view_m

; 1580 : 	{
; 1581 : 		leave_view_mode (view_mode);

  0003f	a1 00 00 00 00	 mov	 eax, DWORD PTR ?view_mode@@3W4VIEW_MODES@@A ; view_mode
  00044	50		 push	 eax
  00045	e8 00 00 00 00	 call	 ?leave_view_mode@@YGXW4VIEW_MODES@@@Z ; leave_view_mode

; 1582 : 
; 1583 : 		enter_view_mode (mode);

  0004a	8b 45 08	 mov	 eax, DWORD PTR _mode$[ebp]
  0004d	50		 push	 eax
  0004e	e8 00 00 00 00	 call	 ?enter_view_mode@@YGXW4VIEW_MODES@@@Z ; enter_view_mode

; 1584 : 
; 1585 : 		//
; 1586 : 		// clear any 'camera' messages
; 1587 : 		//
; 1588 : 
; 1589 : 		if (in_cockpit)

  00053	83 3d 00 00 00
	00 00		 cmp	 DWORD PTR ?in_cockpit@@3HA, 0 ; in_cockpit
  0005a	74 13		 je	 SHORT $LN4@set_view_m

; 1590 : 		{
; 1591 : 			if (get_status_message_type () == STATUS_MESSAGE_TYPE_CAMERA)

  0005c	e8 00 00 00 00	 call	 ?get_status_message_type@@YG?AW4STATUS_MESSAGE_TYPES@@XZ ; get_status_message_type
  00061	83 f8 02	 cmp	 eax, 2
  00064	75 09		 jne	 SHORT $LN4@set_view_m

; 1592 : 			{
; 1593 : 				set_status_message (NULL, STATUS_MESSAGE_TYPE_NONE);

  00066	6a 00		 push	 0
  00068	6a 00		 push	 0
  0006a	e8 00 00 00 00	 call	 ?set_status_message@@YGXPBDW4STATUS_MESSAGE_TYPES@@@Z ; set_status_message
$LN4@set_view_m:

; 1594 : 			}
; 1595 : 		}
; 1596 : 	}
; 1597 : 
; 1598 : 	return (available);

  0006f	8b 45 fc	 mov	 eax, DWORD PTR _available$[ebp]

; 1599 : }

  00072	5f		 pop	 edi
  00073	5e		 pop	 esi
  00074	5b		 pop	 ebx
  00075	8b e5		 mov	 esp, ebp
  00077	5d		 pop	 ebp
  00078	c2 04 00	 ret	 4
?set_view_mode@@YGHW4VIEW_MODES@@@Z ENDP		; set_view_mode
_TEXT	ENDS
; Function compile flags: /Odtp /ZI
; File c:\users\nhv90\projects\eech\aphavoc\source\gunships\views\vm_main.c
;	COMDAT ?get_max_fov@@YGHXZ
_TEXT	SEGMENT
tv64 = -72						; size = 4
_max_fov$ = -4						; size = 4
?get_max_fov@@YGHXZ PROC				; get_max_fov, COMDAT

; 74   : {

  00000	55		 push	 ebp
  00001	8b ec		 mov	 ebp, esp
  00003	83 ec 48	 sub	 esp, 72			; 00000048H
  00006	53		 push	 ebx
  00007	56		 push	 esi
  00008	57		 push	 edi

; 75   : 	int
; 76   : 		max_fov;
; 77   : 
; 78   : 	switch ( get_global_gunship_type () )

  00009	a1 0c 00 00 00	 mov	 eax, DWORD PTR ?global_options@@3UGLOBAL_OPTIONS_DATA@@A+12
  0000e	89 45 b8	 mov	 DWORD PTR tv64[ebp], eax
  00011	83 7d b8 09	 cmp	 DWORD PTR tv64[ebp], 9
  00015	77 6e		 ja	 SHORT $LN14@get_max_fo
  00017	8b 4d b8	 mov	 ecx, DWORD PTR tv64[ebp]
  0001a	ff 24 8d 00 00
	00 00		 jmp	 DWORD PTR $LN16@get_max_fo[ecx*4]
$LN4@get_max_fo:

; 79   : 	{
; 80   : 		case GUNSHIP_TYPE_APACHE:
; 81   : 			max_fov = command_line_max_fov0;

  00021	a1 00 00 00 00	 mov	 eax, DWORD PTR ?command_line_max_fov0@@3HA ; command_line_max_fov0
  00026	89 45 fc	 mov	 DWORD PTR _max_fov$[ebp], eax

; 82   : 			break;

  00029	eb 62		 jmp	 SHORT $LN2@get_max_fo
$LN5@get_max_fo:

; 83   : 		case GUNSHIP_TYPE_HAVOC:
; 84   : 			max_fov = command_line_max_fov1;

  0002b	a1 00 00 00 00	 mov	 eax, DWORD PTR ?command_line_max_fov1@@3HA ; command_line_max_fov1
  00030	89 45 fc	 mov	 DWORD PTR _max_fov$[ebp], eax

; 85   : 			break;

  00033	eb 58		 jmp	 SHORT $LN2@get_max_fo
$LN6@get_max_fo:

; 86   : 		case GUNSHIP_TYPE_COMANCHE:
; 87   : 			max_fov = command_line_max_fov2;

  00035	a1 00 00 00 00	 mov	 eax, DWORD PTR ?command_line_max_fov2@@3HA ; command_line_max_fov2
  0003a	89 45 fc	 mov	 DWORD PTR _max_fov$[ebp], eax

; 88   : 			break;

  0003d	eb 4e		 jmp	 SHORT $LN2@get_max_fo
$LN7@get_max_fo:

; 89   : 		case GUNSHIP_TYPE_HOKUM:
; 90   : 			max_fov = command_line_max_fov3;

  0003f	a1 00 00 00 00	 mov	 eax, DWORD PTR ?command_line_max_fov3@@3HA ; command_line_max_fov3
  00044	89 45 fc	 mov	 DWORD PTR _max_fov$[ebp], eax

; 91   : 			break;

  00047	eb 44		 jmp	 SHORT $LN2@get_max_fo
$LN8@get_max_fo:

; 92   : 		case GUNSHIP_TYPE_BLACKHAWK:
; 93   : 			max_fov = command_line_max_fov0;

  00049	a1 00 00 00 00	 mov	 eax, DWORD PTR ?command_line_max_fov0@@3HA ; command_line_max_fov0
  0004e	89 45 fc	 mov	 DWORD PTR _max_fov$[ebp], eax

; 94   : 			break;

  00051	eb 3a		 jmp	 SHORT $LN2@get_max_fo
$LN9@get_max_fo:

; 95   : 		case GUNSHIP_TYPE_HIND:
; 96   : 			max_fov = command_line_max_fov4;

  00053	a1 00 00 00 00	 mov	 eax, DWORD PTR ?command_line_max_fov4@@3HA ; command_line_max_fov4
  00058	89 45 fc	 mov	 DWORD PTR _max_fov$[ebp], eax

; 97   : 			break;

  0005b	eb 30		 jmp	 SHORT $LN2@get_max_fo
$LN10@get_max_fo:

; 98   : 		case GUNSHIP_TYPE_AH64A:
; 99   : 			max_fov = command_line_max_fov0;

  0005d	a1 00 00 00 00	 mov	 eax, DWORD PTR ?command_line_max_fov0@@3HA ; command_line_max_fov0
  00062	89 45 fc	 mov	 DWORD PTR _max_fov$[ebp], eax

; 100  : 			break;

  00065	eb 26		 jmp	 SHORT $LN2@get_max_fo
$LN11@get_max_fo:

; 101  : 		case GUNSHIP_TYPE_KA50:
; 102  : 			max_fov = command_line_max_fov7;

  00067	a1 00 00 00 00	 mov	 eax, DWORD PTR ?command_line_max_fov7@@3HA ; command_line_max_fov7
  0006c	89 45 fc	 mov	 DWORD PTR _max_fov$[ebp], eax

; 103  : 			break;

  0006f	eb 1c		 jmp	 SHORT $LN2@get_max_fo
$LN12@get_max_fo:

; 104  : 		case GUNSHIP_TYPE_KIOWA:
; 105  : 			max_fov = command_line_max_fov5;

  00071	a1 00 00 00 00	 mov	 eax, DWORD PTR ?command_line_max_fov5@@3HA ; command_line_max_fov5
  00076	89 45 fc	 mov	 DWORD PTR _max_fov$[ebp], eax

; 106  : 			break;

  00079	eb 12		 jmp	 SHORT $LN2@get_max_fo
$LN13@get_max_fo:

; 107  : 		case GUNSHIP_TYPE_VIPER:
; 108  : 			max_fov = command_line_max_fov6;

  0007b	a1 00 00 00 00	 mov	 eax, DWORD PTR ?command_line_max_fov6@@3HA ; command_line_max_fov6
  00080	89 45 fc	 mov	 DWORD PTR _max_fov$[ebp], eax

; 109  : 			break;

  00083	eb 08		 jmp	 SHORT $LN2@get_max_fo
$LN14@get_max_fo:

; 110  : 		default:
; 111  : 			max_fov = command_line_max_fov0;

  00085	a1 00 00 00 00	 mov	 eax, DWORD PTR ?command_line_max_fov0@@3HA ; command_line_max_fov0
  0008a	89 45 fc	 mov	 DWORD PTR _max_fov$[ebp], eax
$LN2@get_max_fo:

; 112  : 			break;
; 113  : 	}
; 114  : 
; 115  : 	return max_fov;

  0008d	8b 45 fc	 mov	 eax, DWORD PTR _max_fov$[ebp]

; 116  : }

  00090	5f		 pop	 edi
  00091	5e		 pop	 esi
  00092	5b		 pop	 ebx
  00093	8b e5		 mov	 esp, ebp
  00095	5d		 pop	 ebp
  00096	c3		 ret	 0
  00097	90		 npad	 1
$LN16@get_max_fo:
  00098	00 00 00 00	 DD	 $LN4@get_max_fo
  0009c	00 00 00 00	 DD	 $LN5@get_max_fo
  000a0	00 00 00 00	 DD	 $LN6@get_max_fo
  000a4	00 00 00 00	 DD	 $LN7@get_max_fo
  000a8	00 00 00 00	 DD	 $LN8@get_max_fo
  000ac	00 00 00 00	 DD	 $LN9@get_max_fo
  000b0	00 00 00 00	 DD	 $LN10@get_max_fo
  000b4	00 00 00 00	 DD	 $LN11@get_max_fo
  000b8	00 00 00 00	 DD	 $LN13@get_max_fo
  000bc	00 00 00 00	 DD	 $LN12@get_max_fo
?get_max_fov@@YGHXZ ENDP				; get_max_fov
_TEXT	ENDS
; Function compile flags: /Odtp /ZI
; File c:\program files (x86)\windows kits\10\include\10.0.18362.0\ucrt\stdio.h
;	COMDAT _sprintf
_TEXT	SEGMENT
__ArgList$ = -8						; size = 4
__Result$ = -4						; size = 4
__Buffer$ = 8						; size = 4
__Format$ = 12						; size = 4
_sprintf PROC						; COMDAT

; 1781 :     {

  00000	55		 push	 ebp
  00001	8b ec		 mov	 ebp, esp
  00003	83 ec 4c	 sub	 esp, 76			; 0000004cH
  00006	53		 push	 ebx
  00007	56		 push	 esi
  00008	57		 push	 edi

; 1782 :         int _Result;
; 1783 :         va_list _ArgList;
; 1784 :         __crt_va_start(_ArgList, _Format);

  00009	8d 45 10	 lea	 eax, DWORD PTR __Format$[ebp+4]
  0000c	89 45 f8	 mov	 DWORD PTR __ArgList$[ebp], eax

; 1785 : 
; 1786 :         #pragma warning(push)
; 1787 :         #pragma warning(disable: 4996) // Deprecation
; 1788 :         _Result = _vsprintf_l(_Buffer, _Format, NULL, _ArgList);

  0000f	8b 45 f8	 mov	 eax, DWORD PTR __ArgList$[ebp]
  00012	50		 push	 eax
  00013	6a 00		 push	 0
  00015	8b 4d 0c	 mov	 ecx, DWORD PTR __Format$[ebp]
  00018	51		 push	 ecx
  00019	8b 55 08	 mov	 edx, DWORD PTR __Buffer$[ebp]
  0001c	52		 push	 edx
  0001d	e8 00 00 00 00	 call	 __vsprintf_l
  00022	83 c4 10	 add	 esp, 16			; 00000010H
  00025	89 45 fc	 mov	 DWORD PTR __Result$[ebp], eax

; 1789 :         #pragma warning(pop)
; 1790 : 
; 1791 :         __crt_va_end(_ArgList);

  00028	c7 45 f8 00 00
	00 00		 mov	 DWORD PTR __ArgList$[ebp], 0

; 1792 :         return _Result;

  0002f	8b 45 fc	 mov	 eax, DWORD PTR __Result$[ebp]

; 1793 :     }

  00032	5f		 pop	 edi
  00033	5e		 pop	 esi
  00034	5b		 pop	 ebx
  00035	8b e5		 mov	 esp, ebp
  00037	5d		 pop	 ebp
  00038	c3		 ret	 0
_sprintf ENDP
_TEXT	ENDS
; Function compile flags: /Odtp /ZI
; File c:\program files (x86)\windows kits\10\include\10.0.18362.0\ucrt\stdio.h
;	COMDAT __vsprintf_l
_TEXT	SEGMENT
__Buffer$ = 8						; size = 4
__Format$ = 12						; size = 4
__Locale$ = 16						; size = 4
__ArgList$ = 20						; size = 4
__vsprintf_l PROC					; COMDAT

; 1459 :     {

  00000	55		 push	 ebp
  00001	8b ec		 mov	 ebp, esp
  00003	83 ec 40	 sub	 esp, 64			; 00000040H
  00006	53		 push	 ebx
  00007	56		 push	 esi
  00008	57		 push	 edi

; 1460 :         #pragma warning(push)
; 1461 :         #pragma warning(disable: 4996) // Deprecation
; 1462 :         return _vsnprintf_l(_Buffer, (size_t)-1, _Format, _Locale, _ArgList);

  00009	8b 45 14	 mov	 eax, DWORD PTR __ArgList$[ebp]
  0000c	50		 push	 eax
  0000d	8b 4d 10	 mov	 ecx, DWORD PTR __Locale$[ebp]
  00010	51		 push	 ecx
  00011	8b 55 0c	 mov	 edx, DWORD PTR __Format$[ebp]
  00014	52		 push	 edx
  00015	6a ff		 push	 -1
  00017	8b 45 08	 mov	 eax, DWORD PTR __Buffer$[ebp]
  0001a	50		 push	 eax
  0001b	e8 00 00 00 00	 call	 __vsnprintf_l
  00020	83 c4 14	 add	 esp, 20			; 00000014H

; 1463 :         #pragma warning(pop)
; 1464 :     }

  00023	5f		 pop	 edi
  00024	5e		 pop	 esi
  00025	5b		 pop	 ebx
  00026	8b e5		 mov	 esp, ebp
  00028	5d		 pop	 ebp
  00029	c3		 ret	 0
__vsprintf_l ENDP
_TEXT	ENDS
; Function compile flags: /Odtp /ZI
; File c:\program files (x86)\windows kits\10\include\10.0.18362.0\ucrt\stdio.h
;	COMDAT __vsnprintf_l
_TEXT	SEGMENT
tv74 = -72						; size = 4
__Result$ = -4						; size = 4
__Buffer$ = 8						; size = 4
__BufferCount$ = 12					; size = 4
__Format$ = 16						; size = 4
__Locale$ = 20						; size = 4
__ArgList$ = 24						; size = 4
__vsnprintf_l PROC					; COMDAT

; 1389 :     {

  00000	55		 push	 ebp
  00001	8b ec		 mov	 ebp, esp
  00003	83 ec 48	 sub	 esp, 72			; 00000048H
  00006	53		 push	 ebx
  00007	56		 push	 esi
  00008	57		 push	 edi

; 1390 :         int const _Result = __stdio_common_vsprintf(

  00009	8b 45 18	 mov	 eax, DWORD PTR __ArgList$[ebp]
  0000c	50		 push	 eax
  0000d	8b 4d 14	 mov	 ecx, DWORD PTR __Locale$[ebp]
  00010	51		 push	 ecx
  00011	8b 55 10	 mov	 edx, DWORD PTR __Format$[ebp]
  00014	52		 push	 edx
  00015	8b 45 0c	 mov	 eax, DWORD PTR __BufferCount$[ebp]
  00018	50		 push	 eax
  00019	8b 4d 08	 mov	 ecx, DWORD PTR __Buffer$[ebp]
  0001c	51		 push	 ecx
  0001d	e8 00 00 00 00	 call	 ___local_stdio_printf_options
  00022	8b 10		 mov	 edx, DWORD PTR [eax]
  00024	83 ca 01	 or	 edx, 1
  00027	8b 40 04	 mov	 eax, DWORD PTR [eax+4]
  0002a	50		 push	 eax
  0002b	52		 push	 edx
  0002c	ff 15 00 00 00
	00		 call	 DWORD PTR __imp____stdio_common_vsprintf
  00032	83 c4 1c	 add	 esp, 28			; 0000001cH
  00035	89 45 fc	 mov	 DWORD PTR __Result$[ebp], eax

; 1391 :             _CRT_INTERNAL_LOCAL_PRINTF_OPTIONS | _CRT_INTERNAL_PRINTF_LEGACY_VSPRINTF_NULL_TERMINATION,
; 1392 :             _Buffer, _BufferCount, _Format, _Locale, _ArgList);
; 1393 : 
; 1394 :         return _Result < 0 ? -1 : _Result;

  00038	83 7d fc 00	 cmp	 DWORD PTR __Result$[ebp], 0
  0003c	7d 09		 jge	 SHORT $LN3@vsnprintf_
  0003e	c7 45 b8 ff ff
	ff ff		 mov	 DWORD PTR tv74[ebp], -1
  00045	eb 06		 jmp	 SHORT $LN4@vsnprintf_
$LN3@vsnprintf_:
  00047	8b 45 fc	 mov	 eax, DWORD PTR __Result$[ebp]
  0004a	89 45 b8	 mov	 DWORD PTR tv74[ebp], eax
$LN4@vsnprintf_:
  0004d	8b 45 b8	 mov	 eax, DWORD PTR tv74[ebp]

; 1395 :     }

  00050	5f		 pop	 edi
  00051	5e		 pop	 esi
  00052	5b		 pop	 ebx
  00053	8b e5		 mov	 esp, ebp
  00055	5d		 pop	 ebp
  00056	c3		 ret	 0
__vsnprintf_l ENDP
_TEXT	ENDS
; Function compile flags: /Odtp /ZI
; File c:\program files (x86)\windows kits\10\include\10.0.18362.0\ucrt\corecrt_stdio_config.h
;	COMDAT ___local_stdio_printf_options
_TEXT	SEGMENT
___local_stdio_printf_options PROC			; COMDAT

; 86   :     {

  00000	55		 push	 ebp
  00001	8b ec		 mov	 ebp, esp
  00003	83 ec 40	 sub	 esp, 64			; 00000040H
  00006	53		 push	 ebx
  00007	56		 push	 esi
  00008	57		 push	 edi

; 87   :         static unsigned __int64 _OptionsStorage;
; 88   :         return &_OptionsStorage;

  00009	b8 00 00 00 00	 mov	 eax, OFFSET ?_OptionsStorage@?1??__local_stdio_printf_options@@9@4_KA ; `__local_stdio_printf_options'::`2'::_OptionsStorage

; 89   :     }

  0000e	5f		 pop	 edi
  0000f	5e		 pop	 esi
  00010	5b		 pop	 ebx
  00011	8b e5		 mov	 esp, ebp
  00013	5d		 pop	 ebp
  00014	c3		 ret	 0
___local_stdio_printf_options ENDP
_TEXT	ENDS
END
