; Listing generated by Microsoft (R) Optimizing Compiler Version 19.16.27045.0 

	TITLE	C:\Users\nhv90\Projects\eech\aphavoc\source\gunships\views\vm_vckpt.c
	.686P
	.XMM
	include listing.inc
	.model	flat

INCLUDELIB MSVCRTD
INCLUDELIB OLDNAMES

PUBLIC	?inset_mode@@3W4PADLOCK_MODES@@A		; inset_mode
_BSS	SEGMENT
?inset_mode@@3W4PADLOCK_MODES@@A DD 01H DUP (?)		; inset_mode
_BSS	ENDS
PUBLIC	___local_stdio_printf_options
PUBLIC	__vsnprintf_l
PUBLIC	__vsprintf_l
PUBLIC	_sprintf
PUBLIC	_atan2f
PUBLIC	_sqrtf
PUBLIC	?atan2@@YGMMM@Z					; atan2
PUBLIC	?sqrt@@YGMM@Z					; sqrt
PUBLIC	?initialise_virtual_cockpit_view@@YGXXZ		; initialise_virtual_cockpit_view
PUBLIC	?reinitialise_virtual_cockpit_view@@YGXXZ	; reinitialise_virtual_cockpit_view
PUBLIC	?deinitialise_virtual_cockpit_view@@YGXXZ	; deinitialise_virtual_cockpit_view
PUBLIC	?update_virtual_cockpit_view@@YGXXZ		; update_virtual_cockpit_view
PUBLIC	?update_virtual_cockpit_track_target_view@@YGXXZ ; update_virtual_cockpit_track_target_view
PUBLIC	?update_virtual_cockpit_crew_view@@YGXXZ	; update_virtual_cockpit_crew_view
PUBLIC	?update_virtual_cockpit_hud_view@@YGXXZ		; update_virtual_cockpit_hud_view
PUBLIC	?update_virtual_cockpit_display_view@@YGXXZ	; update_virtual_cockpit_display_view
PUBLIC	?get_pilot_head_viewpoint@@YGXXZ		; get_pilot_head_viewpoint
PUBLIC	?get_pilot_head_heading_and_pitch_to_target@@YGXPAUENTITY@@@Z ; get_pilot_head_heading_and_pitch_to_target
PUBLIC	?draw_virtual_cockpit_3d_view@@YGXXZ		; draw_virtual_cockpit_3d_view
PUBLIC	?draw_virtual_cockpit_3d_crew_view@@YGXXZ	; draw_virtual_cockpit_3d_crew_view
PUBLIC	?draw_virtual_cockpit_3d_hud_view@@YGXXZ	; draw_virtual_cockpit_3d_hud_view
PUBLIC	?update_virtual_cockpit_periscope_view@@YGXXZ	; update_virtual_cockpit_periscope_view
PUBLIC	?draw_virtual_cockpit_3d_periscope_view@@YGXXZ	; draw_virtual_cockpit_3d_periscope_view
PUBLIC	?draw_virtual_cockpit_3d_display_view@@YGXXZ	; draw_virtual_cockpit_3d_display_view
PUBLIC	?switch_seat_position@@YGXXZ			; switch_seat_position
PUBLIC	?set_pilot_seat_position@@YGXXZ			; set_pilot_seat_position
PUBLIC	?set_co_pilot_seat_position@@YGXXZ		; set_co_pilot_seat_position
PUBLIC	?leave_seat_position@@YGXW4VIEW_MODES@@0@Z	; leave_seat_position
PUBLIC	?get_padlock_mode@@YG?AW4PADLOCK_MODES@@XZ	; get_padlock_mode
PUBLIC	?leave_padlock_view@@YGXXZ			; leave_padlock_view
PUBLIC	?select_padlock_view_event@@YGXW4PADLOCK_MODES@@@Z ; select_padlock_view_event
PUBLIC	?select_inset_view_event@@YGXW4PADLOCK_MODES@@@Z ; select_inset_view_event
PUBLIC	?get_inset@@YGPAUENTITY@@XZ			; get_inset
PUBLIC	?get_players_padlock@@YGPAUENTITY@@XZ		; get_players_padlock
PUBLIC	?update_virtual_cockpit_padlock_view@@YGXXZ	; update_virtual_cockpit_padlock_view
PUBLIC	?get_position_nose_relative_position@@YGXPAUVEC3D@@0@Z ; get_position_nose_relative_position
PUBLIC	?draw_night_vision_mask@@YGXXZ			; draw_night_vision_mask
PUBLIC	?get_position_nose_relative_coordinates@@YG?AW4OBJECT_3D_VISIBILITY@@PAUVEC3D@@PAM1@Z ; get_position_nose_relative_coordinates
PUBLIC	??$min@M@std@@YGABMABM0@Z			; std::min<float>
PUBLIC	??$max@M@std@@YGABMABM0@Z			; std::max<float>
PUBLIC	?_OptionsStorage@?1??__local_stdio_printf_options@@9@4_KA ; `__local_stdio_printf_options'::`2'::_OptionsStorage
PUBLIC	??_C@_02DKCKIIND@?$CFs@				; `string'
PUBLIC	?__LINE__Var@?0??update_virtual_cockpit_track_target_view@@YGXXZ@4JA ; `update_virtual_cockpit_track_target_view'::`1'::__LINE__Var
PUBLIC	??_C@_0EG@KKKJIDAO@c?3?2users?2nhv90?2projects?2eech?2ap@ ; `string'
PUBLIC	?__LINE__Var@?0??get_pilot_head_viewpoint@@YGXXZ@4JA ; `get_pilot_head_viewpoint'::`1'::__LINE__Var
PUBLIC	?__LINE__Var@?0??get_pilot_head_heading_and_pitch_to_target@@YGXPAUENTITY@@@Z@4JA ; `get_pilot_head_heading_and_pitch_to_target'::`1'::__LINE__Var
PUBLIC	??_C@_06JJLAMBGK@target@			; `string'
PUBLIC	??_C@_0BG@EANNPEON@get_gunship_entity?5?$CI?$CJ@ ; `string'
PUBLIC	?__LINE__Var@?0??draw_virtual_cockpit_3d_view@@YGXXZ@4JA ; `draw_virtual_cockpit_3d_view'::`1'::__LINE__Var
PUBLIC	??_C@_06OEKOLKIL@source@			; `string'
PUBLIC	?__LINE__Var@?0??draw_virtual_cockpit_3d_crew_view@@YGXXZ@4JA ; `draw_virtual_cockpit_3d_crew_view'::`1'::__LINE__Var
PUBLIC	??_C@_0BO@DFHCFDJ@get_comanche_hokum_gunship?5?$CI?$CJ@ ; `string'
PUBLIC	??_C@_0BH@OJOOJLIP@virtual_cockpit_inst3d@	; `string'
PUBLIC	??_C@_0EL@CHGNJEAA@get_crew_camera_index?5?$CIget_crew@ ; `string'
PUBLIC	??_C@_0DH@JHHILHGC@get_num_virtual_cockpit_cameras@ ; `string'
PUBLIC	??_C@_0FI@FFICFCHP@get_current_virtual_cockpit_cam@ ; `string'
PUBLIC	?__LINE__Var@?0??draw_virtual_cockpit_3d_hud_view@@YGXXZ@4JA ; `draw_virtual_cockpit_3d_hud_view'::`1'::__LINE__Var
PUBLIC	?__LINE__Var@?0??draw_virtual_cockpit_3d_periscope_view@@YGXXZ@4JA ; `draw_virtual_cockpit_3d_periscope_view'::`1'::__LINE__Var
PUBLIC	??_C@_05MAJJAKPI@FALSE@				; `string'
PUBLIC	?__LINE__Var@?0??switch_seat_position@@YGXXZ@4JA ; `switch_seat_position'::`1'::__LINE__Var
PUBLIC	??_C@_0FB@GEHMKJHJ@get_comanche_hokum_gunship?5?$CI?$CJ?5?$CG@ ; `string'
PUBLIC	??_C@_02LFNMGJAP@en@				; `string'
PUBLIC	?__LINE__Var@?0??set_pilot_seat_position@@YGXXZ@4JA ; `set_pilot_seat_position'::`1'::__LINE__Var
PUBLIC	??_C@_0BE@KOLCCDEB@get_pilot_entity?5?$CI?$CJ@	; `string'
PUBLIC	?__LINE__Var@?0??set_co_pilot_seat_position@@YGXXZ@4JA ; `set_co_pilot_seat_position'::`1'::__LINE__Var
PUBLIC	?__LINE__Var@?0??display_padlock_message@@YGXW4PADLOCK_MODES@@@Z@4JA ; `display_padlock_message'::`1'::__LINE__Var
PUBLIC	??_C@_0CJ@POFEAPGC@Invalid?5padlock?5mode?5?$DN?5PADLOCK_@ ; `string'
PUBLIC	??_C@_07EAKNLMLO@wingman@			; `string'
PUBLIC	??_C@_0BA@MDJGGDBO@Padlock?5wingman@		; `string'
PUBLIC	??_C@_0L@GGIILOHB@?$CFs?5?$CFs?51?9?$CFd@	; `string'
PUBLIC	??_C@_05DNDNCJEB@?5?$CI?$CFs?$CJ@		; `string'
PUBLIC	??_C@_0L@LKPPCBM@air_threat@			; `string'
PUBLIC	??_C@_0BD@BAAMBMDH@Padlock?5air?5threat@	; `string'
PUBLIC	??_C@_05DNIIFBMG@?$CFs?5?$CFs@			; `string'
PUBLIC	??_C@_0O@PLMELCKD@ground_threat@		; `string'
PUBLIC	??_C@_0BG@FIFEBCIA@Padlock?5ground?5threat@	; `string'
PUBLIC	??_C@_08CANCJFOP@incoming@			; `string'
PUBLIC	??_C@_0BB@PGIHANNI@Padlock?5incoming@		; `string'
PUBLIC	??_C@_08LHPBHPJM@waypoint@			; `string'
PUBLIC	??_C@_0BB@GBKEOHKL@Padlock?5waypoint@		; `string'
PUBLIC	??_C@_07IFDOOICA@?$CFs?5?8?$CFc?8@		; `string'
PUBLIC	??_C@_0BK@FCBJMFAH@Invalid?5padlock?5mode?5?$DN?5?$CFd@ ; `string'
PUBLIC	?__LINE__Var@?0??get_valid_wingman@@YGHPAUENTITY@@@Z@4JA ; `get_valid_wingman'::`1'::__LINE__Var
PUBLIC	?__LINE__Var@?0??get_first_wingman@@YGPAUENTITY@@XZ@4JA ; `get_first_wingman'::`1'::__LINE__Var
PUBLIC	?__LINE__Var@?0??get_next_wingman@@YGPAUENTITY@@XZ@4JA ; `get_next_wingman'::`1'::__LINE__Var
PUBLIC	?__LINE__Var@?0??get_valid_air_threat@@YGHPAUENTITY@@W4ENTITY_SIDES@@@Z@4JA ; `get_valid_air_threat'::`1'::__LINE__Var
PUBLIC	??_C@_06BDLPPAPF@threat@			; `string'
PUBLIC	?__LINE__Var@?0??get_first_air_threat@@YGPAUENTITY@@XZ@4JA ; `get_first_air_threat'::`1'::__LINE__Var
PUBLIC	?__LINE__Var@?0??get_next_air_threat@@YGPAUENTITY@@XZ@4JA ; `get_next_air_threat'::`1'::__LINE__Var
PUBLIC	?__LINE__Var@?0??get_valid_ground_threat@@YGHPAUENTITY@@W4ENTITY_SIDES@@@Z@4JA ; `get_valid_ground_threat'::`1'::__LINE__Var
PUBLIC	?__LINE__Var@?0??get_first_ground_threat@@YGPAUENTITY@@XZ@4JA ; `get_first_ground_threat'::`1'::__LINE__Var
PUBLIC	?__LINE__Var@?0??get_next_ground_threat@@YGPAUENTITY@@XZ@4JA ; `get_next_ground_threat'::`1'::__LINE__Var
PUBLIC	?__LINE__Var@?0??get_valid_missile_threat@@YGHPAUENTITY@@@Z@4JA ; `get_valid_missile_threat'::`1'::__LINE__Var
PUBLIC	?__LINE__Var@?0??get_first_missile_threat@@YGPAUENTITY@@XZ@4JA ; `get_first_missile_threat'::`1'::__LINE__Var
PUBLIC	?__LINE__Var@?0??get_next_missile_threat@@YGPAUENTITY@@XZ@4JA ; `get_next_missile_threat'::`1'::__LINE__Var
PUBLIC	?__LINE__Var@?0??select_padlock_view_event@@YGXW4PADLOCK_MODES@@@Z@4JA ; `select_padlock_view_event'::`1'::__LINE__Var
PUBLIC	?__LINE__Var@?0??get_inset@@YGPAUENTITY@@XZ@4JA	; `get_inset'::`1'::__LINE__Var
PUBLIC	?__LINE__Var@?0??get_players_padlock@@YGPAUENTITY@@XZ@4JA ; `get_players_padlock'::`1'::__LINE__Var
PUBLIC	?__LINE__Var@?0??update_virtual_cockpit_padlock_view@@YGXXZ@4JA ; `update_virtual_cockpit_padlock_view'::`1'::__LINE__Var
PUBLIC	?__LINE__Var@?0??get_position_nose_relative_position@@YGXPAUVEC3D@@0@Z@4JA ; `get_position_nose_relative_position'::`1'::__LINE__Var
PUBLIC	??_C@_0BI@CKBJIOHI@current_flight_dynamics@	; `string'
PUBLIC	??_C@_0BD@FEEMDEPI@invalid?5comparator@		; `string'
PUBLIC	??_C@_0GK@JMBMHIBC@c?3?2program?5files?5?$CIx86?$CJ?2microsof@ ; `string'
PUBLIC	??_C@_1NE@FKBPBJEB@?$AAc?$AA?3?$AA?2?$AAp?$AAr?$AAo?$AAg?$AAr?$AAa?$AAm?$AA?5?$AAf?$AAi?$AAl?$AAe@ ; `string'
PUBLIC	??_C@_1BC@BLAPCBGI@?$AAs?$AAt?$AAd?$AA?3?$AA?3?$AAm?$AAi?$AAn@ ; `string'
PUBLIC	??_C@_1CK@NDNHPKPI@?$AA?$CC?$AAi?$AAn?$AAv?$AAa?$AAl?$AAi?$AAd?$AA?5?$AAc?$AAo?$AAm?$AAp?$AAa?$AAr@ ; `string'
PUBLIC	??_C@_1BC@ICCOKLEG@?$AAs?$AAt?$AAd?$AA?3?$AA?3?$AAm?$AAa?$AAx@ ; `string'
PUBLIC	__real@3c8efa35
PUBLIC	__real@3f000000
PUBLIC	__real@3f400000
PUBLIC	__real@3f800000
PUBLIC	__real@3f91df46a0000000
PUBLIC	__real@3f9dc28f
PUBLIC	__real@3fa04189
PUBLIC	__real@3fa78d36
PUBLIC	__real@3fdf66f3
PUBLIC	__real@3fe921fb51000000
PUBLIC	__real@3ff0000000000000
PUBLIC	__real@40000000
PUBLIC	__real@4016cbe4
PUBLIC	__real@4018000000000000
PUBLIC	__real@4060e00000000000
PUBLIC	__real@408f400000000000
PUBLIC	__real@40bf400000000000
PUBLIC	__real@40c3880000000000
PUBLIC	__real@40cfff8000000000
PUBLIC	__real@42880000
PUBLIC	__real@42c80000
PUBLIC	__real@43000000
PUBLIC	__real@43400000
PUBLIC	__real@43be0000
PUBLIC	__real@43ce0000
PUBLIC	__real@44070000
PUBLIC	__real@440f0000
PUBLIC	__real@49742400
PUBLIC	__real@7f7fffff
PUBLIC	__real@bedf66f3
PUBLIC	__real@bf490fdb
PUBLIC	__real@bf5da1cb
PUBLIC	__real@bf860a92
PUBLIC	__real@bf91df46a0000000
PUBLIC	__real@bfa29fbe
PUBLIC	__real@bfc90fdb
PUBLIC	__real@bfdf66f3
PUBLIC	__real@c016cbe4
PUBLIC	__real@c046800000000000
PUBLIC	__real@c060e00000000000
PUBLIC	__xmm@80000000800000008000000080000000
EXTRN	__imp___invalid_parameter:PROC
EXTRN	__imp____stdio_common_vsprintf:PROC
EXTRN	_strcat:PROC
EXTRN	__imp___CrtDbgReport:PROC
EXTRN	_atan2:PROC
EXTRN	_sqrt:PROC
EXTRN	?process_assert@@YGXPBD0H@Z:PROC		; process_assert
EXTRN	?debug_fatal@@YAXPBDZZ:PROC			; debug_fatal
EXTRN	?get_mouse_update_flag@@YGHXZ:PROC		; get_mouse_update_flag
EXTRN	?get_mouse_move_delta_x@@YGHXZ:PROC		; get_mouse_move_delta_x
EXTRN	?get_mouse_move_delta_y@@YGHXZ:PROC		; get_mouse_move_delta_y
EXTRN	?get_joystick_axis@@YGHHH@Z:PROC		; get_joystick_axis
EXTRN	?query_TIR_active@@YAHXZ:PROC			; query_TIR_active
EXTRN	?TIR_GetYaw@@YGMXZ:PROC				; TIR_GetYaw
EXTRN	?TIR_GetPitch@@YGMXZ:PROC			; TIR_GetPitch
EXTRN	?get_3d_vector_magnitude@@YGMPBUVEC3D@@@Z:PROC	; get_3d_vector_magnitude
EXTRN	?normalise_3d_vector_given_magnitude@@YGXPAUVEC3D@@M@Z:PROC ; normalise_3d_vector_given_magnitude
EXTRN	?get_3d_unit_vector_dot_product@@YGMPBUVEC3D@@0@Z:PROC ; get_3d_unit_vector_dot_product
EXTRN	?get_arbitrary_rotation_matrix@@YGXQAY02MPBUVEC3D@@M@Z:PROC ; get_arbitrary_rotation_matrix
EXTRN	?multiply_matrix3x3_vec3d@@YGXPAUVEC3D@@QAY02$$CBMPBU1@@Z:PROC ; multiply_matrix3x3_vec3d
EXTRN	?multiply_transpose_matrix3x3_vec3d@@YGXPAUVEC3D@@QAY02$$CBMPBU1@@Z:PROC ; multiply_transpose_matrix3x3_vec3d
EXTRN	?get_identity_matrix3x3@@YGXQAY02M@Z:PROC	; get_identity_matrix3x3
EXTRN	?get_3d_range@@YGMPBUVEC3D@@0@Z:PROC		; get_3d_range
EXTRN	?get_sqr_3d_range@@YGMPBUVEC3D@@0@Z:PROC	; get_sqr_3d_range
EXTRN	?set_d3d_transparency_on@@YGXXZ:PROC		; set_d3d_transparency_on
EXTRN	?set_d3d_transparency_off@@YGXXZ:PROC		; set_d3d_transparency_off
EXTRN	?set_d3d_zbuffer_comparison@@YGXH@Z:PROC	; set_d3d_zbuffer_comparison
EXTRN	?set_d3d_culling@@YGXH@Z:PROC			; set_d3d_culling
EXTRN	?set_d3d_texture_wrapping@@YGXHH@Z:PROC		; set_d3d_texture_wrapping
EXTRN	?set_d3d_texture_filtering@@YGXH@Z:PROC		; set_d3d_texture_filtering
EXTRN	?set_d3d_flat_shaded_textured_renderstate@@YGXPAUSCREEN@@@Z:PROC ; set_d3d_flat_shaded_textured_renderstate
EXTRN	?draw_wbuffered_flat_shaded_textured_polygon@@YGXPAUVERTEX@@UREAL_COLOUR@@1@Z:PROC ; draw_wbuffered_flat_shaded_textured_polygon
EXTRN	?get_system_texture_ptr@@YGPAUSCREEN@@H@Z:PROC	; get_system_texture_ptr
EXTRN	?set_3d_active_environment@@YGXPAUENV_3D@@@Z:PROC ; set_3d_active_environment
EXTRN	?get_object_3d_camera_position@@YGHPAUOBJECT_3D_INSTANCE@@HHMPAUVIEWPOINT@@@Z:PROC ; get_object_3d_camera_position
EXTRN	?begin_3d_scene@@YGHXZ:PROC			; begin_3d_scene
EXTRN	?end_3d_scene@@YGXXZ:PROC			; end_3d_scene
EXTRN	?notify_local_entity@@YAHW4ENTITY_MESSAGES@@PAUENTITY@@1ZZ:PROC ; notify_local_entity
EXTRN	?insert_local_entity_into_parents_child_list@@YGXPAUENTITY@@W4LIST_TYPES@@00@Z:PROC ; insert_local_entity_into_parents_child_list
EXTRN	?unlink_local_entity_children@@YGXPAUENTITY@@W4LIST_TYPES@@@Z:PROC ; unlink_local_entity_children
EXTRN	?get_local_entity_target_point@@YGXPAUENTITY@@PAUVEC3D@@@Z:PROC ; get_local_entity_target_point
EXTRN	?get_waypoint_display_position@@YGXPAUENTITY@@0PAUVEC3D@@@Z:PROC ; get_waypoint_display_position
EXTRN	?store_reverse_tactical_camera_values@@YGXXZ:PROC ; store_reverse_tactical_camera_values
EXTRN	?restore_reverse_tactical_camera_values@@YGXXZ:PROC ; restore_reverse_tactical_camera_values
EXTRN	?set_reverse_tactical_camera_values@@YGXPAUENTITY@@0@Z:PROC ; set_reverse_tactical_camera_values
EXTRN	?set_external_view_entity@@YGXPAUENTITY@@@Z:PROC ; set_external_view_entity
EXTRN	?get_external_view_entity@@YGPAUENTITY@@XZ:PROC	; get_external_view_entity
EXTRN	?get_local_entity_current_waypoint@@YGPAUENTITY@@PAU1@@Z:PROC ; get_local_entity_current_waypoint
EXTRN	?set_main_3d_full_screen_params@@YGXW4DISPLAY_3D_TINTS@@W4DISPLAY_3D_LIGHT_LEVELS@@W4DISPLAY_3D_NOISE_LEVELS@@@Z:PROC ; set_main_3d_full_screen_params
EXTRN	?set_pilots_full_screen_params@@YGXH@Z:PROC	; set_pilots_full_screen_params
EXTRN	?set_main_3d_inset_target_screen_params@@YGXXZ:PROC ; set_main_3d_inset_target_screen_params
EXTRN	?set_crew_view_full_screen_params@@YGXXZ:PROC	; set_crew_view_full_screen_params
EXTRN	?draw_main_3d_scene@@YGXPAUVIEWPOINT@@@Z:PROC	; draw_main_3d_scene
EXTRN	?set_status_message@@YGXPBDW4STATUS_MESSAGE_TYPES@@@Z:PROC ; set_status_message
EXTRN	?get_nearest_fixed_cockpit_view@@YG?AW4VIEW_MODES@@MM@Z:PROC ; get_nearest_fixed_cockpit_view
EXTRN	?set_view_mode@@YGHW4VIEW_MODES@@@Z:PROC	; set_view_mode
EXTRN	?night_vision_active@@YGHXZ:PROC		; night_vision_active
EXTRN	?draw_apache_hud@@YGXXZ:PROC			; draw_apache_hud
EXTRN	?draw_apache_mfd_on_texture@@YGXW4MFD_LOCATIONS@@@Z:PROC ; draw_apache_mfd_on_texture
EXTRN	?draw_apache_virtual_cockpit_ort_view@@YGXHH@Z:PROC ; draw_apache_virtual_cockpit_ort_view
EXTRN	?draw_overlaid_apache_mfd@@YGXMMMW4MFD_LOCATIONS@@@Z:PROC ; draw_overlaid_apache_mfd
EXTRN	?draw_apache_virtual_cockpit_ort_symbology@@YGXXZ:PROC ; draw_apache_virtual_cockpit_ort_symbology
EXTRN	?draw_comanche_hud@@YGXXZ:PROC			; draw_comanche_hud
EXTRN	?draw_comanche_mfd@@YGXXZ:PROC			; draw_comanche_mfd
EXTRN	?draw_comanche_full_screen_display@@YGXXZ:PROC	; draw_comanche_full_screen_display
EXTRN	?draw_overlaid_comanche_mfd@@YGXXZ:PROC		; draw_overlaid_comanche_mfd
EXTRN	?draw_external_havoc_hud@@YGXXZ:PROC		; draw_external_havoc_hud
EXTRN	?draw_havoc_hms@@YGXXZ:PROC			; draw_havoc_hms
EXTRN	?draw_havoc_mfd_on_texture@@YGXXZ:PROC		; draw_havoc_mfd_on_texture
EXTRN	?draw_overlaid_havoc_mfd@@YGXMMM@Z:PROC		; draw_overlaid_havoc_mfd
EXTRN	?draw_hokum_hms@@YGXXZ:PROC			; draw_hokum_hms
EXTRN	?draw_hokum_mfd@@YGXXZ:PROC			; draw_hokum_mfd
EXTRN	?draw_hokum_full_screen_display@@YGXXZ:PROC	; draw_hokum_full_screen_display
EXTRN	?draw_hokum_virtual_cockpit_periscope_view@@YGXXZ:PROC ; draw_hokum_virtual_cockpit_periscope_view
EXTRN	?draw_hokum_virtual_cockpit_periscope_symbology@@YGXXZ:PROC ; draw_hokum_virtual_cockpit_periscope_symbology
EXTRN	?draw_overlaid_hokum_mfd@@YGXXZ:PROC		; draw_overlaid_hokum_mfd
EXTRN	?draw_blackhawk_hud@@YGXXZ:PROC			; draw_blackhawk_hud
EXTRN	?draw_blackhawk_mfd_on_texture@@YGXW4MFD_LOCATIONS@@@Z:PROC ; draw_blackhawk_mfd_on_texture
EXTRN	?draw_overlaid_blackhawk_mfd@@YGXMMMW4MFD_LOCATIONS@@@Z:PROC ; draw_overlaid_blackhawk_mfd
EXTRN	?draw_external_hind_hud@@YGXXZ:PROC		; draw_external_hind_hud
EXTRN	?draw_hind_hms@@YGXXZ:PROC			; draw_hind_hms
EXTRN	?draw_hind_mfd_on_texture@@YGXXZ:PROC		; draw_hind_mfd_on_texture
EXTRN	?draw_overlaid_hind_mfd@@YGXMMM@Z:PROC		; draw_overlaid_hind_mfd
EXTRN	?draw_hind_virtual_cockpit_ort_view@@YGXHH@Z:PROC ; draw_hind_virtual_cockpit_ort_view
EXTRN	?draw_hind_virtual_cockpit_ort_symbology@@YGXXZ:PROC ; draw_hind_virtual_cockpit_ort_symbology
EXTRN	?draw_ah64a_hud@@YGXXZ:PROC			; draw_ah64a_hud
EXTRN	?draw_ah64a_mfd_on_texture@@YGXW4MFD_LOCATIONS@@@Z:PROC ; draw_ah64a_mfd_on_texture
EXTRN	?draw_overlaid_ah64a_mfd@@YGXMMMW4MFD_LOCATIONS@@@Z:PROC ; draw_overlaid_ah64a_mfd
EXTRN	?draw_ka50_hms@@YGXXZ:PROC			; draw_ka50_hms
EXTRN	?draw_ka50_mfd@@YGXXZ:PROC			; draw_ka50_mfd
EXTRN	?draw_ka50_full_screen_display@@YGXXZ:PROC	; draw_ka50_full_screen_display
EXTRN	?draw_overlaid_ka50_mfd@@YGXXZ:PROC		; draw_overlaid_ka50_mfd
EXTRN	?draw_viper_hud@@YGXXZ:PROC			; draw_viper_hud
EXTRN	?draw_viper_mfd@@YGXXZ:PROC			; draw_viper_mfd
EXTRN	?draw_viper_full_screen_display@@YGXXZ:PROC	; draw_viper_full_screen_display
EXTRN	?draw_overlaid_viper_mfd@@YGXXZ:PROC		; draw_overlaid_viper_mfd
EXTRN	?draw_kiowa_hud@@YGXXZ:PROC			; draw_kiowa_hud
EXTRN	?draw_kiowa_mfd@@YGXXZ:PROC			; draw_kiowa_mfd
EXTRN	?draw_kiowa_full_screen_display@@YGXXZ:PROC	; draw_kiowa_full_screen_display
EXTRN	?draw_overlaid_kiowa_mfd@@YGXXZ:PROC		; draw_overlaid_kiowa_mfd
EXTRN	?draw_default_hud@@YGXXZ:PROC			; draw_default_hud
EXTRN	?draw_default_mfd_on_texture@@YGXW4MFD_LOCATIONS@@@Z:PROC ; draw_default_mfd_on_texture
EXTRN	?draw_overlaid_default_mfd@@YGXMMMW4MFD_LOCATIONS@@@Z:PROC ; draw_overlaid_default_mfd
EXTRN	?get_crew_role@@YG?AW4CREW_ROLES@@XZ:PROC	; get_crew_role
EXTRN	?get_num_virtual_cockpit_cameras@@YGHW4CREW_ROLES@@@Z:PROC ; get_num_virtual_cockpit_cameras
EXTRN	?get_current_virtual_cockpit_camera@@YGHW4CREW_ROLES@@@Z:PROC ; get_current_virtual_cockpit_camera
EXTRN	?get_crew_camera_index@@YGHW4CREW_ROLES@@@Z:PROC ; get_crew_camera_index
EXTRN	?draw_virtual_cockpit_periscope_mask@@YGXHHH@Z:PROC ; draw_virtual_cockpit_periscope_mask
EXTRN	?draw_apache_internal_virtual_cockpit@@YGXI@Z:PROC ; draw_apache_internal_virtual_cockpit
EXTRN	?draw_apache_external_virtual_cockpit@@YGXIPAE@Z:PROC ; draw_apache_external_virtual_cockpit
EXTRN	?pre_render_comanche_virtual_cockpit_displays@@YGXXZ:PROC ; pre_render_comanche_virtual_cockpit_displays
EXTRN	?draw_comanche_virtual_cockpit@@YGXXZ:PROC	; draw_comanche_virtual_cockpit
EXTRN	?get_comanche_crew_viewpoint@@YGXXZ:PROC	; get_comanche_crew_viewpoint
EXTRN	?get_comanche_display_viewpoint@@YGXW4VIEW_MODES@@@Z:PROC ; get_comanche_display_viewpoint
EXTRN	?draw_overlaid_threat_warning_display@@YGXHH@Z:PROC ; draw_overlaid_threat_warning_display
EXTRN	?draw_havoc_internal_virtual_cockpit@@YGXI@Z:PROC ; draw_havoc_internal_virtual_cockpit
EXTRN	?draw_havoc_external_virtual_cockpit@@YGXIPAE@Z:PROC ; draw_havoc_external_virtual_cockpit
EXTRN	?pre_render_hokum_virtual_cockpit_displays@@YGXXZ:PROC ; pre_render_hokum_virtual_cockpit_displays
EXTRN	?draw_hokum_virtual_cockpit@@YGXXZ:PROC		; draw_hokum_virtual_cockpit
EXTRN	?get_hokum_crew_viewpoint@@YGXXZ:PROC		; get_hokum_crew_viewpoint
EXTRN	?get_hokum_display_viewpoint@@YGXW4VIEW_MODES@@@Z:PROC ; get_hokum_display_viewpoint
EXTRN	?draw_blackhawk_internal_virtual_cockpit@@YGXI@Z:PROC ; draw_blackhawk_internal_virtual_cockpit
EXTRN	?draw_blackhawk_external_virtual_cockpit@@YGXIPAE@Z:PROC ; draw_blackhawk_external_virtual_cockpit
EXTRN	?draw_overlaid_hind_threat_warning_display@@YGXHH@Z:PROC ; draw_overlaid_hind_threat_warning_display
EXTRN	?draw_hind_internal_virtual_cockpit@@YGXI@Z:PROC ; draw_hind_internal_virtual_cockpit
EXTRN	?draw_hind_internal_3d_cockpit@@YGXI@Z:PROC	; draw_hind_internal_3d_cockpit
EXTRN	?draw_hind_external_virtual_cockpit@@YGXIPAE@Z:PROC ; draw_hind_external_virtual_cockpit
EXTRN	?draw_hind_external_3d_cockpit@@YGXIPAE@Z:PROC	; draw_hind_external_3d_cockpit
EXTRN	?draw_ah64a_internal_virtual_cockpit@@YGXI@Z:PROC ; draw_ah64a_internal_virtual_cockpit
EXTRN	?draw_ah64a_external_virtual_cockpit@@YGXIPAE@Z:PROC ; draw_ah64a_external_virtual_cockpit
EXTRN	?pre_render_ka50_virtual_cockpit_displays@@YGXXZ:PROC ; pre_render_ka50_virtual_cockpit_displays
EXTRN	?draw_ka50_virtual_cockpit@@YGXXZ:PROC		; draw_ka50_virtual_cockpit
EXTRN	?get_ka50_crew_viewpoint@@YGXXZ:PROC		; get_ka50_crew_viewpoint
EXTRN	?get_ka50_display_viewpoint@@YGXW4VIEW_MODES@@@Z:PROC ; get_ka50_display_viewpoint
EXTRN	?pre_render_viper_virtual_cockpit_displays@@YGXXZ:PROC ; pre_render_viper_virtual_cockpit_displays
EXTRN	?draw_viper_virtual_cockpit@@YGXXZ:PROC		; draw_viper_virtual_cockpit
EXTRN	?get_viper_crew_viewpoint@@YGXXZ:PROC		; get_viper_crew_viewpoint
EXTRN	?get_viper_display_viewpoint@@YGXW4VIEW_MODES@@@Z:PROC ; get_viper_display_viewpoint
EXTRN	?pre_render_kiowa_virtual_cockpit_displays@@YGXXZ:PROC ; pre_render_kiowa_virtual_cockpit_displays
EXTRN	?draw_kiowa_virtual_cockpit@@YGXXZ:PROC		; draw_kiowa_virtual_cockpit
EXTRN	?get_kiowa_crew_viewpoint@@YGXXZ:PROC		; get_kiowa_crew_viewpoint
EXTRN	?get_kiowa_display_viewpoint@@YGXW4VIEW_MODES@@@Z:PROC ; get_kiowa_display_viewpoint
EXTRN	?draw_default_internal_virtual_cockpit@@YGXI@Z:PROC ; draw_default_internal_virtual_cockpit
EXTRN	?draw_default_external_virtual_cockpit@@YGXIPAE@Z:PROC ; draw_default_external_virtual_cockpit
EXTRN	?draw_default_internal_virtual_cockpit_3d@@YGXI@Z:PROC ; draw_default_internal_virtual_cockpit_3d
EXTRN	?draw_default_external_virtual_cockpit_3d@@YGXI@Z:PROC ; draw_default_external_virtual_cockpit_3d
EXTRN	?get_time_acceleration@@YGHXZ:PROC		; get_time_acceleration
EXTRN	?get_trans@@YGPBDPBD@Z:PROC			; get_trans
EXTRN	?system_delta_time@@3MA:DWORD			; system_delta_time
EXTRN	?application_video_colourdepth@@3HA:DWORD	; application_video_colourdepth
EXTRN	?clip_hither@@3MA:DWORD				; clip_hither
EXTRN	?active_3d_environment@@3PAUENV_3D@@A:DWORD	; active_3d_environment
EXTRN	?command_line_mouse_look@@3HA:DWORD		; command_line_mouse_look
EXTRN	?command_line_mouse_look_speed@@3HA:DWORD	; command_line_mouse_look_speed
EXTRN	?command_line_restricted_nvg_fov@@3HA:DWORD	; command_line_restricted_nvg_fov
EXTRN	?command_line_pilot_as_periscope_default@@3HA:DWORD ; command_line_pilot_as_periscope_default
EXTRN	?command_line_joylook_joystick_index@@3HA:DWORD	; command_line_joylook_joystick_index
EXTRN	?command_line_joylookh_joystick_axis@@3HA:DWORD	; command_line_joylookh_joystick_axis
EXTRN	?command_line_joylookv_joystick_axis@@3HA:DWORD	; command_line_joylookv_joystick_axis
EXTRN	?command_line_joylook_step@@3HA:DWORD		; command_line_joylook_step
EXTRN	?command_line_3d_cockpit@@3HA:DWORD		; command_line_3d_cockpit
EXTRN	?global_aphavoc_maps@@3HA:DWORD			; global_aphavoc_maps
EXTRN	?command_line_export_mfd@@3HA:DWORD		; command_line_export_mfd
EXTRN	?new_gunship@@3QBDB:BYTE			; new_gunship
EXTRN	?null_entity_pointer_message@@3PBDB:DWORD	; null_entity_pointer_message
EXTRN	?global_options@@3UGLOBAL_OPTIONS_DATA@@A:BYTE	; global_options
EXTRN	?custom_3d_models@@3Uinstalled_custom_3d_models@@A:QWORD ; custom_3d_models
EXTRN	?world_map@@3UWORLD_MAP_DATA@@A:BYTE		; world_map
EXTRN	?overload_invalid_list_type_message@@3PBDB:DWORD ; overload_invalid_list_type_message
EXTRN	?fn_get_local_entity_first_child@@3PAY0CN@P6GPAUENTITY@@PAU1@W4LIST_TYPES@@@ZA:BYTE ; fn_get_local_entity_first_child
EXTRN	?fn_get_local_entity_parent@@3PAY0CN@P6GPAUENTITY@@PAU1@W4LIST_TYPES@@@ZA:BYTE ; fn_get_local_entity_parent
EXTRN	?fn_get_local_entity_child_succ@@3PAY0CN@P6GPAUENTITY@@PAU1@W4LIST_TYPES@@@ZA:BYTE ; fn_get_local_entity_child_succ
EXTRN	?fn_get_local_entity_attitude_matrix@@3PAP6GXPAUENTITY@@QAY02M@ZA:BYTE ; fn_get_local_entity_attitude_matrix
EXTRN	?fn_get_local_entity_attitude_matrix_ptr@@3PAP6GPAY122MPAUENTITY@@@ZA:BYTE ; fn_get_local_entity_attitude_matrix_ptr
EXTRN	?overload_invalid_char_type_message@@3PBDB:DWORD ; overload_invalid_char_type_message
EXTRN	?fn_get_local_entity_char_value@@3PAY01P6GDPAUENTITY@@W4CHAR_TYPES@@@ZA:BYTE ; fn_get_local_entity_char_value
EXTRN	?overload_invalid_float_type_message@@3PBDB:DWORD ; overload_invalid_float_type_message
EXTRN	?fn_get_local_entity_float_value@@3PAY0KP@P6GMPAUENTITY@@W4FLOAT_TYPES@@@ZA:BYTE ; fn_get_local_entity_float_value
EXTRN	?overload_invalid_int_type_message@@3PBDB:DWORD	; overload_invalid_int_type_message
EXTRN	?fn_set_local_entity_int_value@@3PAY0BBH@P6GXPAUENTITY@@W4INT_TYPES@@H@ZA:BYTE ; fn_set_local_entity_int_value
EXTRN	?fn_get_local_entity_int_value@@3PAY0BBH@P6GHPAUENTITY@@W4INT_TYPES@@@ZA:BYTE ; fn_get_local_entity_int_value
EXTRN	?overload_invalid_string_type_message@@3PBDB:DWORD ; overload_invalid_string_type_message
EXTRN	?fn_get_local_entity_string@@3PAY0N@P6GPBDPAUENTITY@@W4STRING_TYPES@@@ZA:BYTE ; fn_get_local_entity_string
EXTRN	?overload_invalid_vec3d_type_message@@3PBDB:DWORD ; overload_invalid_vec3d_type_message
EXTRN	?fn_get_local_entity_vec3d@@3PAY0BI@P6GXPAUENTITY@@W4VEC3D_TYPES@@PAUVEC3D@@@ZA:BYTE ; fn_get_local_entity_vec3d
EXTRN	?fn_get_local_entity_vec3d_ptr@@3PAY0BI@P6GPAUVEC3D@@PAUENTITY@@W4VEC3D_TYPES@@@ZA:BYTE ; fn_get_local_entity_vec3d_ptr
EXTRN	?gunship_entity@@3PAUENTITY@@A:DWORD		; gunship_entity
EXTRN	?camera_entity@@3PAUENTITY@@A:DWORD		; camera_entity
EXTRN	?pilot_entity@@3PAUENTITY@@A:DWORD		; pilot_entity
EXTRN	?full_screen_x_min@@3MA:DWORD			; full_screen_x_min
EXTRN	?full_screen_y_min@@3MA:DWORD			; full_screen_y_min
EXTRN	?full_screen_x_mid@@3MA:DWORD			; full_screen_x_mid
EXTRN	?full_screen_y_mid@@3MA:DWORD			; full_screen_y_mid
EXTRN	?full_screen_x_max@@3MA:DWORD			; full_screen_x_max
EXTRN	?full_screen_y_max@@3MA:DWORD			; full_screen_y_max
EXTRN	?int_full_screen_width@@3HA:DWORD		; int_full_screen_width
EXTRN	?int_full_screen_height@@3HA:DWORD		; int_full_screen_height
EXTRN	?full_screen_hi_res@@3HA:DWORD			; full_screen_hi_res
EXTRN	?main_3d_env@@3PAUENV_3D@@A:DWORD		; main_3d_env
EXTRN	?main_vp@@3UVIEWPOINT@@A:BYTE			; main_vp
EXTRN	?view_mode@@3W4VIEW_MODES@@A:DWORD		; view_mode
EXTRN	?in_cockpit_flags@@3PAHA:BYTE			; in_cockpit_flags
EXTRN	?in_cockpit@@3HA:DWORD				; in_cockpit
EXTRN	?pilot_head_heading@@3MA:DWORD			; pilot_head_heading
EXTRN	?pilot_head_pitch@@3MA:DWORD			; pilot_head_pitch
EXTRN	?stored_pilot_head_heading@@3MA:DWORD		; stored_pilot_head_heading
EXTRN	?stored_pilot_head_pitch@@3MA:DWORD		; stored_pilot_head_pitch
EXTRN	?stored_co_pilot_head_heading@@3MA:DWORD	; stored_co_pilot_head_heading
EXTRN	?stored_co_pilot_head_pitch@@3MA:DWORD		; stored_co_pilot_head_pitch
EXTRN	?stored_pilot_view_mode@@3W4VIEW_MODES@@A:DWORD	; stored_pilot_view_mode
EXTRN	?stored_co_pilot_view_mode@@3W4VIEW_MODES@@A:DWORD ; stored_co_pilot_view_mode
EXTRN	?stored_pilot_padlock_mode@@3W4PADLOCK_MODES@@A:DWORD ; stored_pilot_padlock_mode
EXTRN	?stored_co_pilot_padlock_mode@@3W4PADLOCK_MODES@@A:DWORD ; stored_co_pilot_padlock_mode
EXTRN	?pilot_head_vp@@3UVIEWPOINT@@A:BYTE		; pilot_head_vp
EXTRN	?wide_cockpit_position@@3PAUCOCKPIT_POSITION@@A:BYTE ; wide_cockpit_position
EXTRN	?wide_cockpit_nr@@3HA:DWORD			; wide_cockpit_nr
EXTRN	?current_custom_cockpit_viewpoint@@3UCOCKPIT_VIEW@@A:BYTE ; current_custom_cockpit_viewpoint
EXTRN	?adjust_view_left_key@@3HA:DWORD		; adjust_view_left_key
EXTRN	?adjust_view_right_key@@3HA:DWORD		; adjust_view_right_key
EXTRN	?adjust_view_up_key@@3HA:DWORD			; adjust_view_up_key
EXTRN	?adjust_view_down_key@@3HA:DWORD		; adjust_view_down_key
EXTRN	?joystick_pov_left@@3HA:DWORD			; joystick_pov_left
EXTRN	?joystick_pov_right@@3HA:DWORD			; joystick_pov_right
EXTRN	?joystick_pov_up@@3HA:DWORD			; joystick_pov_up
EXTRN	?joystick_pov_down@@3HA:DWORD			; joystick_pov_down
EXTRN	?external_view_inset_target@@3HA:DWORD		; external_view_inset_target
EXTRN	?target_acquisition_system@@3W4TARGET_ACQUISITION_SYSTEMS@@A:DWORD ; target_acquisition_system
EXTRN	?night_vision_system_active@@3HA:DWORD		; night_vision_system_active
EXTRN	?virtual_cockpit_inst3d@@3PAUOBJECT_3D_INSTANCE@@A:DWORD ; virtual_cockpit_inst3d
EXTRN	?current_flight_dynamics@@3PAUDYNAMICS_TYPE@@A:DWORD ; current_flight_dynamics
EXTRN	__fltused:DWORD
;	COMDAT ?_OptionsStorage@?1??__local_stdio_printf_options@@9@4_KA
_BSS	SEGMENT
?_OptionsStorage@?1??__local_stdio_printf_options@@9@4_KA DQ 01H DUP (?) ; `__local_stdio_printf_options'::`2'::_OptionsStorage
_BSS	ENDS
_BSS	SEGMENT
?padlock_mode@@3W4PADLOCK_MODES@@A DD 01H DUP (?)	; padlock_mode
_BSS	ENDS
;	COMDAT __xmm@80000000800000008000000080000000
CONST	SEGMENT
__xmm@80000000800000008000000080000000 DB 00H, 00H, 00H, 080H, 00H, 00H, 00H
	DB	080H, 00H, 00H, 00H, 080H, 00H, 00H, 00H, 080H
CONST	ENDS
;	COMDAT __real@c060e00000000000
CONST	SEGMENT
__real@c060e00000000000 DQ 0c060e00000000000r	; -135
CONST	ENDS
;	COMDAT __real@c046800000000000
CONST	SEGMENT
__real@c046800000000000 DQ 0c046800000000000r	; -45
CONST	ENDS
;	COMDAT __real@c016cbe4
CONST	SEGMENT
__real@c016cbe4 DD 0c016cbe4r			; -2.35619
CONST	ENDS
;	COMDAT __real@bfdf66f3
CONST	SEGMENT
__real@bfdf66f3 DD 0bfdf66f3r			; -1.74533
CONST	ENDS
;	COMDAT __real@bfc90fdb
CONST	SEGMENT
__real@bfc90fdb DD 0bfc90fdbr			; -1.5708
CONST	ENDS
;	COMDAT __real@bfa29fbe
CONST	SEGMENT
__real@bfa29fbe DD 0bfa29fber			; -1.2705
CONST	ENDS
;	COMDAT __real@bf91df46a0000000
CONST	SEGMENT
__real@bf91df46a0000000 DQ 0bf91df46a0000000r	; -0.0174533
CONST	ENDS
;	COMDAT __real@bf860a92
CONST	SEGMENT
__real@bf860a92 DD 0bf860a92r			; -1.0472
CONST	ENDS
;	COMDAT __real@bf5da1cb
CONST	SEGMENT
__real@bf5da1cb DD 0bf5da1cbr			; -0.86575
CONST	ENDS
;	COMDAT __real@bf490fdb
CONST	SEGMENT
__real@bf490fdb DD 0bf490fdbr			; -0.785398
CONST	ENDS
;	COMDAT __real@bedf66f3
CONST	SEGMENT
__real@bedf66f3 DD 0bedf66f3r			; -0.436332
CONST	ENDS
;	COMDAT __real@7f7fffff
CONST	SEGMENT
__real@7f7fffff DD 07f7fffffr			; 3.40282e+38
CONST	ENDS
;	COMDAT __real@49742400
CONST	SEGMENT
__real@49742400 DD 049742400r			; 1e+06
CONST	ENDS
;	COMDAT __real@440f0000
CONST	SEGMENT
__real@440f0000 DD 0440f0000r			; 572
CONST	ENDS
;	COMDAT __real@44070000
CONST	SEGMENT
__real@44070000 DD 044070000r			; 540
CONST	ENDS
;	COMDAT __real@43ce0000
CONST	SEGMENT
__real@43ce0000 DD 043ce0000r			; 412
CONST	ENDS
;	COMDAT __real@43be0000
CONST	SEGMENT
__real@43be0000 DD 043be0000r			; 380
CONST	ENDS
;	COMDAT __real@43400000
CONST	SEGMENT
__real@43400000 DD 043400000r			; 192
CONST	ENDS
;	COMDAT __real@43000000
CONST	SEGMENT
__real@43000000 DD 043000000r			; 128
CONST	ENDS
;	COMDAT __real@42c80000
CONST	SEGMENT
__real@42c80000 DD 042c80000r			; 100
CONST	ENDS
;	COMDAT __real@42880000
CONST	SEGMENT
__real@42880000 DD 042880000r			; 68
CONST	ENDS
;	COMDAT __real@40cfff8000000000
CONST	SEGMENT
__real@40cfff8000000000 DQ 040cfff8000000000r	; 16383
CONST	ENDS
;	COMDAT __real@40c3880000000000
CONST	SEGMENT
__real@40c3880000000000 DQ 040c3880000000000r	; 10000
CONST	ENDS
;	COMDAT __real@40bf400000000000
CONST	SEGMENT
__real@40bf400000000000 DQ 040bf400000000000r	; 8000
CONST	ENDS
;	COMDAT __real@408f400000000000
CONST	SEGMENT
__real@408f400000000000 DQ 0408f400000000000r	; 1000
CONST	ENDS
;	COMDAT __real@4060e00000000000
CONST	SEGMENT
__real@4060e00000000000 DQ 04060e00000000000r	; 135
CONST	ENDS
;	COMDAT __real@4018000000000000
CONST	SEGMENT
__real@4018000000000000 DQ 04018000000000000r	; 6
CONST	ENDS
;	COMDAT __real@4016cbe4
CONST	SEGMENT
__real@4016cbe4 DD 04016cbe4r			; 2.35619
CONST	ENDS
;	COMDAT __real@40000000
CONST	SEGMENT
__real@40000000 DD 040000000r			; 2
CONST	ENDS
;	COMDAT __real@3ff0000000000000
CONST	SEGMENT
__real@3ff0000000000000 DQ 03ff0000000000000r	; 1
CONST	ENDS
;	COMDAT __real@3fe921fb51000000
CONST	SEGMENT
__real@3fe921fb51000000 DQ 03fe921fb51000000r	; 0.785398
CONST	ENDS
;	COMDAT __real@3fdf66f3
CONST	SEGMENT
__real@3fdf66f3 DD 03fdf66f3r			; 1.74533
CONST	ENDS
;	COMDAT __real@3fa78d36
CONST	SEGMENT
__real@3fa78d36 DD 03fa78d36r			; 1.309
CONST	ENDS
;	COMDAT __real@3fa04189
CONST	SEGMENT
__real@3fa04189 DD 03fa04189r			; 1.252
CONST	ENDS
;	COMDAT __real@3f9dc28f
CONST	SEGMENT
__real@3f9dc28f DD 03f9dc28fr			; 1.2325
CONST	ENDS
;	COMDAT __real@3f91df46a0000000
CONST	SEGMENT
__real@3f91df46a0000000 DQ 03f91df46a0000000r	; 0.0174533
CONST	ENDS
;	COMDAT __real@3f800000
CONST	SEGMENT
__real@3f800000 DD 03f800000r			; 1
CONST	ENDS
;	COMDAT __real@3f400000
CONST	SEGMENT
__real@3f400000 DD 03f400000r			; 0.75
CONST	ENDS
;	COMDAT __real@3f000000
CONST	SEGMENT
__real@3f000000 DD 03f000000r			; 0.5
CONST	ENDS
;	COMDAT __real@3c8efa35
CONST	SEGMENT
__real@3c8efa35 DD 03c8efa35r			; 0.0174533
CONST	ENDS
;	COMDAT ??_C@_1BC@ICCOKLEG@?$AAs?$AAt?$AAd?$AA?3?$AA?3?$AAm?$AAa?$AAx@
CONST	SEGMENT
??_C@_1BC@ICCOKLEG@?$AAs?$AAt?$AAd?$AA?3?$AA?3?$AAm?$AAa?$AAx@ DB 's', 00H
	DB	't', 00H, 'd', 00H, ':', 00H, ':', 00H, 'm', 00H, 'a', 00H, 'x'
	DB	00H, 00H, 00H				; `string'
CONST	ENDS
;	COMDAT ??_C@_1CK@NDNHPKPI@?$AA?$CC?$AAi?$AAn?$AAv?$AAa?$AAl?$AAi?$AAd?$AA?5?$AAc?$AAo?$AAm?$AAp?$AAa?$AAr@
CONST	SEGMENT
??_C@_1CK@NDNHPKPI@?$AA?$CC?$AAi?$AAn?$AAv?$AAa?$AAl?$AAi?$AAd?$AA?5?$AAc?$AAo?$AAm?$AAp?$AAa?$AAr@ DB '"'
	DB	00H, 'i', 00H, 'n', 00H, 'v', 00H, 'a', 00H, 'l', 00H, 'i', 00H
	DB	'd', 00H, ' ', 00H, 'c', 00H, 'o', 00H, 'm', 00H, 'p', 00H, 'a'
	DB	00H, 'r', 00H, 'a', 00H, 't', 00H, 'o', 00H, 'r', 00H, '"', 00H
	DB	00H, 00H					; `string'
CONST	ENDS
;	COMDAT ??_C@_1BC@BLAPCBGI@?$AAs?$AAt?$AAd?$AA?3?$AA?3?$AAm?$AAi?$AAn@
CONST	SEGMENT
??_C@_1BC@BLAPCBGI@?$AAs?$AAt?$AAd?$AA?3?$AA?3?$AAm?$AAi?$AAn@ DB 's', 00H
	DB	't', 00H, 'd', 00H, ':', 00H, ':', 00H, 'm', 00H, 'i', 00H, 'n'
	DB	00H, 00H, 00H				; `string'
CONST	ENDS
;	COMDAT ??_C@_1NE@FKBPBJEB@?$AAc?$AA?3?$AA?2?$AAp?$AAr?$AAo?$AAg?$AAr?$AAa?$AAm?$AA?5?$AAf?$AAi?$AAl?$AAe@
CONST	SEGMENT
??_C@_1NE@FKBPBJEB@?$AAc?$AA?3?$AA?2?$AAp?$AAr?$AAo?$AAg?$AAr?$AAa?$AAm?$AA?5?$AAf?$AAi?$AAl?$AAe@ DB 'c'
	DB	00H, ':', 00H, '\', 00H, 'p', 00H, 'r', 00H, 'o', 00H, 'g', 00H
	DB	'r', 00H, 'a', 00H, 'm', 00H, ' ', 00H, 'f', 00H, 'i', 00H, 'l'
	DB	00H, 'e', 00H, 's', 00H, ' ', 00H, '(', 00H, 'x', 00H, '8', 00H
	DB	'6', 00H, ')', 00H, '\', 00H, 'm', 00H, 'i', 00H, 'c', 00H, 'r'
	DB	00H, 'o', 00H, 's', 00H, 'o', 00H, 'f', 00H, 't', 00H, ' ', 00H
	DB	'v', 00H, 'i', 00H, 's', 00H, 'u', 00H, 'a', 00H, 'l', 00H, ' '
	DB	00H, 's', 00H, 't', 00H, 'u', 00H, 'd', 00H, 'i', 00H, 'o', 00H
	DB	'\', 00H, '2', 00H, '0', 00H, '1', 00H, '7', 00H, '\', 00H, 'c'
	DB	00H, 'o', 00H, 'm', 00H, 'm', 00H, 'u', 00H, 'n', 00H, 'i', 00H
	DB	't', 00H, 'y', 00H, '\', 00H, 'v', 00H, 'c', 00H, '\', 00H, 't'
	DB	00H, 'o', 00H, 'o', 00H, 'l', 00H, 's', 00H, '\', 00H, 'm', 00H
	DB	's', 00H, 'v', 00H, 'c', 00H, '\', 00H, '1', 00H, '4', 00H, '.'
	DB	00H, '1', 00H, '6', 00H, '.', 00H, '2', 00H, '7', 00H, '0', 00H
	DB	'2', 00H, '3', 00H, '\', 00H, 'i', 00H, 'n', 00H, 'c', 00H, 'l'
	DB	00H, 'u', 00H, 'd', 00H, 'e', 00H, '\', 00H, 'a', 00H, 'l', 00H
	DB	'g', 00H, 'o', 00H, 'r', 00H, 'i', 00H, 't', 00H, 'h', 00H, 'm'
	DB	00H, 00H, 00H				; `string'
CONST	ENDS
;	COMDAT ??_C@_0GK@JMBMHIBC@c?3?2program?5files?5?$CIx86?$CJ?2microsof@
CONST	SEGMENT
??_C@_0GK@JMBMHIBC@c?3?2program?5files?5?$CIx86?$CJ?2microsof@ DB 'c:\pro'
	DB	'gram files (x86)\microsoft visual studio\2017\community\vc\to'
	DB	'ols\msvc\14.16.27023\include\algorithm', 00H ; `string'
CONST	ENDS
;	COMDAT ??_C@_0BD@FEEMDEPI@invalid?5comparator@
CONST	SEGMENT
??_C@_0BD@FEEMDEPI@invalid?5comparator@ DB 'invalid comparator', 00H ; `string'
CONST	ENDS
;	COMDAT ??_C@_0BI@CKBJIOHI@current_flight_dynamics@
CONST	SEGMENT
??_C@_0BI@CKBJIOHI@current_flight_dynamics@ DB 'current_flight_dynamics', 00H ; `string'
CONST	ENDS
;	COMDAT ?__LINE__Var@?0??get_position_nose_relative_position@@YGXPAUVEC3D@@0@Z@4JA
_DATA	SEGMENT
?__LINE__Var@?0??get_position_nose_relative_position@@YGXPAUVEC3D@@0@Z@4JA DD 01170H ; `get_position_nose_relative_position'::`1'::__LINE__Var
_DATA	ENDS
;	COMDAT ?__LINE__Var@?0??update_virtual_cockpit_padlock_view@@YGXXZ@4JA
_DATA	SEGMENT
?__LINE__Var@?0??update_virtual_cockpit_padlock_view@@YGXXZ@4JA DD 01101H ; `update_virtual_cockpit_padlock_view'::`1'::__LINE__Var
_DATA	ENDS
;	COMDAT ?__LINE__Var@?0??get_players_padlock@@YGPAUENTITY@@XZ@4JA
_DATA	SEGMENT
?__LINE__Var@?0??get_players_padlock@@YGPAUENTITY@@XZ@4JA DD 010c5H ; `get_players_padlock'::`1'::__LINE__Var
_DATA	ENDS
;	COMDAT ?__LINE__Var@?0??get_inset@@YGPAUENTITY@@XZ@4JA
_DATA	SEGMENT
?__LINE__Var@?0??get_inset@@YGPAUENTITY@@XZ@4JA DD 01079H ; `get_inset'::`1'::__LINE__Var
_DATA	ENDS
;	COMDAT ?__LINE__Var@?0??select_padlock_view_event@@YGXW4PADLOCK_MODES@@@Z@4JA
_DATA	SEGMENT
?__LINE__Var@?0??select_padlock_view_event@@YGXW4PADLOCK_MODES@@@Z@4JA DD 0f49H ; `select_padlock_view_event'::`1'::__LINE__Var
_DATA	ENDS
;	COMDAT ?__LINE__Var@?0??get_next_missile_threat@@YGPAUENTITY@@XZ@4JA
_DATA	SEGMENT
?__LINE__Var@?0??get_next_missile_threat@@YGPAUENTITY@@XZ@4JA DD 0f04H ; `get_next_missile_threat'::`1'::__LINE__Var
_DATA	ENDS
;	COMDAT ?__LINE__Var@?0??get_first_missile_threat@@YGPAUENTITY@@XZ@4JA
_DATA	SEGMENT
?__LINE__Var@?0??get_first_missile_threat@@YGPAUENTITY@@XZ@4JA DD 0e9cH ; `get_first_missile_threat'::`1'::__LINE__Var
_DATA	ENDS
;	COMDAT ?__LINE__Var@?0??get_valid_missile_threat@@YGHPAUENTITY@@@Z@4JA
_DATA	SEGMENT
?__LINE__Var@?0??get_valid_missile_threat@@YGHPAUENTITY@@@Z@4JA DD 0e8cH ; `get_valid_missile_threat'::`1'::__LINE__Var
_DATA	ENDS
;	COMDAT ?__LINE__Var@?0??get_next_ground_threat@@YGPAUENTITY@@XZ@4JA
_DATA	SEGMENT
?__LINE__Var@?0??get_next_ground_threat@@YGPAUENTITY@@XZ@4JA DD 0e42H ; `get_next_ground_threat'::`1'::__LINE__Var
_DATA	ENDS
;	COMDAT ?__LINE__Var@?0??get_first_ground_threat@@YGPAUENTITY@@XZ@4JA
_DATA	SEGMENT
?__LINE__Var@?0??get_first_ground_threat@@YGPAUENTITY@@XZ@4JA DD 0e08H ; `get_first_ground_threat'::`1'::__LINE__Var
_DATA	ENDS
;	COMDAT ?__LINE__Var@?0??get_valid_ground_threat@@YGHPAUENTITY@@W4ENTITY_SIDES@@@Z@4JA
_DATA	SEGMENT
?__LINE__Var@?0??get_valid_ground_threat@@YGHPAUENTITY@@W4ENTITY_SIDES@@@Z@4JA DD 0df2H ; `get_valid_ground_threat'::`1'::__LINE__Var
_DATA	ENDS
;	COMDAT ?__LINE__Var@?0??get_next_air_threat@@YGPAUENTITY@@XZ@4JA
_DATA	SEGMENT
?__LINE__Var@?0??get_next_air_threat@@YGPAUENTITY@@XZ@4JA DD 0da8H ; `get_next_air_threat'::`1'::__LINE__Var
_DATA	ENDS
;	COMDAT ?__LINE__Var@?0??get_first_air_threat@@YGPAUENTITY@@XZ@4JA
_DATA	SEGMENT
?__LINE__Var@?0??get_first_air_threat@@YGPAUENTITY@@XZ@4JA DD 0d6eH ; `get_first_air_threat'::`1'::__LINE__Var
_DATA	ENDS
;	COMDAT ??_C@_06BDLPPAPF@threat@
CONST	SEGMENT
??_C@_06BDLPPAPF@threat@ DB 'threat', 00H		; `string'
CONST	ENDS
;	COMDAT ?__LINE__Var@?0??get_valid_air_threat@@YGHPAUENTITY@@W4ENTITY_SIDES@@@Z@4JA
_DATA	SEGMENT
?__LINE__Var@?0??get_valid_air_threat@@YGHPAUENTITY@@W4ENTITY_SIDES@@@Z@4JA DD 0d58H ; `get_valid_air_threat'::`1'::__LINE__Var
_DATA	ENDS
;	COMDAT ?__LINE__Var@?0??get_next_wingman@@YGPAUENTITY@@XZ@4JA
_DATA	SEGMENT
?__LINE__Var@?0??get_next_wingman@@YGPAUENTITY@@XZ@4JA DD 0d0dH ; `get_next_wingman'::`1'::__LINE__Var
_DATA	ENDS
;	COMDAT ?__LINE__Var@?0??get_first_wingman@@YGPAUENTITY@@XZ@4JA
_DATA	SEGMENT
?__LINE__Var@?0??get_first_wingman@@YGPAUENTITY@@XZ@4JA DD 0ce6H ; `get_first_wingman'::`1'::__LINE__Var
_DATA	ENDS
;	COMDAT ?__LINE__Var@?0??get_valid_wingman@@YGHPAUENTITY@@@Z@4JA
_DATA	SEGMENT
?__LINE__Var@?0??get_valid_wingman@@YGHPAUENTITY@@@Z@4JA DD 0cd3H ; `get_valid_wingman'::`1'::__LINE__Var
_DATA	ENDS
;	COMDAT ??_C@_0BK@FCBJMFAH@Invalid?5padlock?5mode?5?$DN?5?$CFd@
CONST	SEGMENT
??_C@_0BK@FCBJMFAH@Invalid?5padlock?5mode?5?$DN?5?$CFd@ DB 'Invalid padlo'
	DB	'ck mode = %d', 00H				; `string'
CONST	ENDS
;	COMDAT ??_C@_07IFDOOICA@?$CFs?5?8?$CFc?8@
CONST	SEGMENT
??_C@_07IFDOOICA@?$CFs?5?8?$CFc?8@ DB '%s ''%c''', 00H	; `string'
CONST	ENDS
;	COMDAT ??_C@_0BB@GBKEOHKL@Padlock?5waypoint@
CONST	SEGMENT
??_C@_0BB@GBKEOHKL@Padlock?5waypoint@ DB 'Padlock waypoint', 00H ; `string'
CONST	ENDS
;	COMDAT ??_C@_08LHPBHPJM@waypoint@
CONST	SEGMENT
??_C@_08LHPBHPJM@waypoint@ DB 'waypoint', 00H		; `string'
CONST	ENDS
;	COMDAT ??_C@_0BB@PGIHANNI@Padlock?5incoming@
CONST	SEGMENT
??_C@_0BB@PGIHANNI@Padlock?5incoming@ DB 'Padlock incoming', 00H ; `string'
CONST	ENDS
;	COMDAT ??_C@_08CANCJFOP@incoming@
CONST	SEGMENT
??_C@_08CANCJFOP@incoming@ DB 'incoming', 00H		; `string'
CONST	ENDS
;	COMDAT ??_C@_0BG@FIFEBCIA@Padlock?5ground?5threat@
CONST	SEGMENT
??_C@_0BG@FIFEBCIA@Padlock?5ground?5threat@ DB 'Padlock ground threat', 00H ; `string'
CONST	ENDS
;	COMDAT ??_C@_0O@PLMELCKD@ground_threat@
CONST	SEGMENT
??_C@_0O@PLMELCKD@ground_threat@ DB 'ground_threat', 00H ; `string'
CONST	ENDS
;	COMDAT ??_C@_05DNIIFBMG@?$CFs?5?$CFs@
CONST	SEGMENT
??_C@_05DNIIFBMG@?$CFs?5?$CFs@ DB '%s %s', 00H		; `string'
CONST	ENDS
;	COMDAT ??_C@_0BD@BAAMBMDH@Padlock?5air?5threat@
CONST	SEGMENT
??_C@_0BD@BAAMBMDH@Padlock?5air?5threat@ DB 'Padlock air threat', 00H ; `string'
CONST	ENDS
;	COMDAT ??_C@_0L@LKPPCBM@air_threat@
CONST	SEGMENT
??_C@_0L@LKPPCBM@air_threat@ DB 'air_threat', 00H	; `string'
CONST	ENDS
;	COMDAT ??_C@_05DNDNCJEB@?5?$CI?$CFs?$CJ@
CONST	SEGMENT
??_C@_05DNDNCJEB@?5?$CI?$CFs?$CJ@ DB ' (%s)', 00H	; `string'
CONST	ENDS
;	COMDAT ??_C@_0L@GGIILOHB@?$CFs?5?$CFs?51?9?$CFd@
CONST	SEGMENT
??_C@_0L@GGIILOHB@?$CFs?5?$CFs?51?9?$CFd@ DB '%s %s 1-%d', 00H ; `string'
CONST	ENDS
;	COMDAT ??_C@_0BA@MDJGGDBO@Padlock?5wingman@
CONST	SEGMENT
??_C@_0BA@MDJGGDBO@Padlock?5wingman@ DB 'Padlock wingman', 00H ; `string'
CONST	ENDS
;	COMDAT ??_C@_07EAKNLMLO@wingman@
CONST	SEGMENT
??_C@_07EAKNLMLO@wingman@ DB 'wingman', 00H		; `string'
CONST	ENDS
;	COMDAT ??_C@_0CJ@POFEAPGC@Invalid?5padlock?5mode?5?$DN?5PADLOCK_@
CONST	SEGMENT
??_C@_0CJ@POFEAPGC@Invalid?5padlock?5mode?5?$DN?5PADLOCK_@ DB 'Invalid pa'
	DB	'dlock mode = PADLOCK_MODE_NONE', 00H	; `string'
CONST	ENDS
;	COMDAT ?__LINE__Var@?0??display_padlock_message@@YGXW4PADLOCK_MODES@@@Z@4JA
_DATA	SEGMENT
?__LINE__Var@?0??display_padlock_message@@YGXW4PADLOCK_MODES@@@Z@4JA DD 0c44H ; `display_padlock_message'::`1'::__LINE__Var
_DATA	ENDS
;	COMDAT ?__LINE__Var@?0??set_co_pilot_seat_position@@YGXXZ@4JA
_DATA	SEGMENT
?__LINE__Var@?0??set_co_pilot_seat_position@@YGXXZ@4JA DD 0be9H ; `set_co_pilot_seat_position'::`1'::__LINE__Var
_DATA	ENDS
;	COMDAT ??_C@_0BE@KOLCCDEB@get_pilot_entity?5?$CI?$CJ@
CONST	SEGMENT
??_C@_0BE@KOLCCDEB@get_pilot_entity?5?$CI?$CJ@ DB 'get_pilot_entity ()', 00H ; `string'
CONST	ENDS
;	COMDAT ?__LINE__Var@?0??set_pilot_seat_position@@YGXXZ@4JA
_DATA	SEGMENT
?__LINE__Var@?0??set_pilot_seat_position@@YGXXZ@4JA DD 0bcbH ; `set_pilot_seat_position'::`1'::__LINE__Var
_DATA	ENDS
;	COMDAT ??_C@_02LFNMGJAP@en@
CONST	SEGMENT
??_C@_02LFNMGJAP@en@ DB 'en', 00H			; `string'
CONST	ENDS
;	COMDAT ??_C@_0FB@GEHMKJHJ@get_comanche_hokum_gunship?5?$CI?$CJ?5?$CG@
CONST	SEGMENT
??_C@_0FB@GEHMKJHJ@get_comanche_hokum_gunship?5?$CI?$CJ?5?$CG@ DB 'get_co'
	DB	'manche_hokum_gunship () && get_global_gunship_type () != GUNS'
	DB	'HIP_TYPE_KA50', 00H				; `string'
CONST	ENDS
;	COMDAT ?__LINE__Var@?0??switch_seat_position@@YGXXZ@4JA
_DATA	SEGMENT
?__LINE__Var@?0??switch_seat_position@@YGXXZ@4JA DD 0b70H ; `switch_seat_position'::`1'::__LINE__Var
_DATA	ENDS
;	COMDAT ??_C@_05MAJJAKPI@FALSE@
CONST	SEGMENT
??_C@_05MAJJAKPI@FALSE@ DB 'FALSE', 00H			; `string'
CONST	ENDS
;	COMDAT ?__LINE__Var@?0??draw_virtual_cockpit_3d_periscope_view@@YGXXZ@4JA
_DATA	SEGMENT
?__LINE__Var@?0??draw_virtual_cockpit_3d_periscope_view@@YGXXZ@4JA DD 09d6H ; `draw_virtual_cockpit_3d_periscope_view'::`1'::__LINE__Var
_DATA	ENDS
;	COMDAT ?__LINE__Var@?0??draw_virtual_cockpit_3d_hud_view@@YGXXZ@4JA
_DATA	SEGMENT
?__LINE__Var@?0??draw_virtual_cockpit_3d_hud_view@@YGXXZ@4JA DD 08fbH ; `draw_virtual_cockpit_3d_hud_view'::`1'::__LINE__Var
_DATA	ENDS
;	COMDAT ??_C@_0FI@FFICFCHP@get_current_virtual_cockpit_cam@
CONST	SEGMENT
??_C@_0FI@FFICFCHP@get_current_virtual_cockpit_cam@ DB 'get_current_virtu'
	DB	'al_cockpit_camera (get_crew_role ()) != INVALID_VIRTUAL_COCKP'
	DB	'IT_CAMERA', 00H				; `string'
CONST	ENDS
;	COMDAT ??_C@_0DH@JHHILHGC@get_num_virtual_cockpit_cameras@
CONST	SEGMENT
??_C@_0DH@JHHILHGC@get_num_virtual_cockpit_cameras@ DB 'get_num_virtual_c'
	DB	'ockpit_cameras (get_crew_role ()) > 0', 00H	; `string'
CONST	ENDS
;	COMDAT ??_C@_0EL@CHGNJEAA@get_crew_camera_index?5?$CIget_crew@
CONST	SEGMENT
??_C@_0EL@CHGNJEAA@get_crew_camera_index?5?$CIget_crew@ DB 'get_crew_came'
	DB	'ra_index (get_crew_role ()) != OBJECT_3D_INVALID_CAMERA_INDEX'
	DB	00H						; `string'
CONST	ENDS
;	COMDAT ??_C@_0BH@OJOOJLIP@virtual_cockpit_inst3d@
CONST	SEGMENT
??_C@_0BH@OJOOJLIP@virtual_cockpit_inst3d@ DB 'virtual_cockpit_inst3d', 00H ; `string'
CONST	ENDS
;	COMDAT ??_C@_0BO@DFHCFDJ@get_comanche_hokum_gunship?5?$CI?$CJ@
CONST	SEGMENT
??_C@_0BO@DFHCFDJ@get_comanche_hokum_gunship?5?$CI?$CJ@ DB 'get_comanche_'
	DB	'hokum_gunship ()', 00H			; `string'
CONST	ENDS
;	COMDAT ?__LINE__Var@?0??draw_virtual_cockpit_3d_crew_view@@YGXXZ@4JA
_DATA	SEGMENT
?__LINE__Var@?0??draw_virtual_cockpit_3d_crew_view@@YGXXZ@4JA DD 0853H ; `draw_virtual_cockpit_3d_crew_view'::`1'::__LINE__Var
_DATA	ENDS
;	COMDAT ??_C@_06OEKOLKIL@source@
CONST	SEGMENT
??_C@_06OEKOLKIL@source@ DB 'source', 00H		; `string'
CONST	ENDS
;	COMDAT ?__LINE__Var@?0??draw_virtual_cockpit_3d_view@@YGXXZ@4JA
_DATA	SEGMENT
?__LINE__Var@?0??draw_virtual_cockpit_3d_view@@YGXXZ@4JA DD 05baH ; `draw_virtual_cockpit_3d_view'::`1'::__LINE__Var
_DATA	ENDS
;	COMDAT ??_C@_0BG@EANNPEON@get_gunship_entity?5?$CI?$CJ@
CONST	SEGMENT
??_C@_0BG@EANNPEON@get_gunship_entity?5?$CI?$CJ@ DB 'get_gunship_entity ('
	DB	')', 00H					; `string'
CONST	ENDS
;	COMDAT ??_C@_06JJLAMBGK@target@
CONST	SEGMENT
??_C@_06JJLAMBGK@target@ DB 'target', 00H		; `string'
CONST	ENDS
;	COMDAT ?__LINE__Var@?0??get_pilot_head_heading_and_pitch_to_target@@YGXPAUENTITY@@@Z@4JA
_DATA	SEGMENT
?__LINE__Var@?0??get_pilot_head_heading_and_pitch_to_target@@YGXPAUENTITY@@@Z@4JA DD 04aaH ; `get_pilot_head_heading_and_pitch_to_target'::`1'::__LINE__Var
_DATA	ENDS
;	COMDAT ?__LINE__Var@?0??get_pilot_head_viewpoint@@YGXXZ@4JA
_DATA	SEGMENT
?__LINE__Var@?0??get_pilot_head_viewpoint@@YGXXZ@4JA DD 0378H ; `get_pilot_head_viewpoint'::`1'::__LINE__Var
_DATA	ENDS
;	COMDAT ??_C@_0EG@KKKJIDAO@c?3?2users?2nhv90?2projects?2eech?2ap@
CONST	SEGMENT
??_C@_0EG@KKKJIDAO@c?3?2users?2nhv90?2projects?2eech?2ap@ DB 'c:\users\nh'
	DB	'v90\projects\eech\aphavoc\source\gunships\views\vm_vckpt.c', 00H ; `string'
CONST	ENDS
;	COMDAT ?__LINE__Var@?0??update_virtual_cockpit_track_target_view@@YGXXZ@4JA
_DATA	SEGMENT
?__LINE__Var@?0??update_virtual_cockpit_track_target_view@@YGXXZ@4JA DD 0317H ; `update_virtual_cockpit_track_target_view'::`1'::__LINE__Var
_DATA	ENDS
_DATA	SEGMENT
?previous_mouse_update_flag@?BD@??update_virtual_cockpit_view@@YGXXZ@4HA DD 01H ; `update_virtual_cockpit_view'::`19'::previous_mouse_update_flag
_DATA	ENDS
;	COMDAT ??_C@_02DKCKIIND@?$CFs@
CONST	SEGMENT
??_C@_02DKCKIIND@?$CFs@ DB '%s', 00H			; `string'
CONST	ENDS
; Function compile flags: /Odtp /ZI
; File c:\users\nhv90\projects\eech\aphavoc\source\gunships\views\vm_vckpt.c
;	COMDAT ?get_next_missile_threat@@YGPAUENTITY@@XZ
_TEXT	SEGMENT
tv225 = -80						; size = 4
tv201 = -80						; size = 4
tv180 = -80						; size = 4
tv156 = -80						; size = 4
tv134 = -80						; size = 4
tv83 = -80						; size = 4
tv217 = -76						; size = 4
tv193 = -76						; size = 4
tv172 = -76						; size = 4
tv148 = -76						; size = 4
tv95 = -76						; size = 4
tv75 = -76						; size = 4
_threat$ = -8						; size = 4
_source$ = -4						; size = 4
?get_next_missile_threat@@YGPAUENTITY@@XZ PROC		; get_next_missile_threat, COMDAT

; 3844 : {

  00000	55		 push	 ebp
  00001	8b ec		 mov	 ebp, esp
  00003	83 ec 50	 sub	 esp, 80			; 00000050H
  00006	53		 push	 ebx
  00007	56		 push	 esi
  00008	57		 push	 edi

; 3845 : 	entity
; 3846 : 		*source,
; 3847 : 		*threat;
; 3848 : 
; 3849 : 	source = get_gunship_entity ();

  00009	a1 00 00 00 00	 mov	 eax, DWORD PTR ?gunship_entity@@3PAUENTITY@@A ; gunship_entity
  0000e	89 45 fc	 mov	 DWORD PTR _source$[ebp], eax

; 3850 : 
; 3851 : 	ASSERT (source);

  00011	83 7d fc 00	 cmp	 DWORD PTR _source$[ebp], 0
  00015	75 18		 jne	 SHORT $LN6@get_next_m
  00017	a1 00 00 00 00	 mov	 eax, DWORD PTR ?__LINE__Var@?0??get_next_missile_threat@@YGPAUENTITY@@XZ@4JA
  0001c	83 c0 07	 add	 eax, 7
  0001f	50		 push	 eax
  00020	68 00 00 00 00	 push	 OFFSET ??_C@_0EG@KKKJIDAO@c?3?2users?2nhv90?2projects?2eech?2ap@
  00025	68 00 00 00 00	 push	 OFFSET ??_C@_06OEKOLKIL@source@
  0002a	e8 00 00 00 00	 call	 ?process_assert@@YGXPBD0H@Z ; process_assert
$LN6@get_next_m:

; 3852 : 
; 3853 : 	threat = get_local_entity_first_child (source, LIST_TYPE_PADLOCK);

  0002f	83 7d fc 00	 cmp	 DWORD PTR _source$[ebp], 0
  00033	74 0a		 je	 SHORT $LN14@get_next_m
  00035	8b 45 fc	 mov	 eax, DWORD PTR _source$[ebp]
  00038	8b 08		 mov	 ecx, DWORD PTR [eax]
  0003a	89 4d b4	 mov	 DWORD PTR tv75[ebp], ecx
  0003d	eb 21		 jmp	 SHORT $LN15@get_next_m
$LN14@get_next_m:
  0003f	8b 15 00 00 00
	00		 mov	 edx, DWORD PTR ?__LINE__Var@?0??get_next_missile_threat@@YGPAUENTITY@@XZ@4JA
  00045	83 c2 09	 add	 edx, 9
  00048	52		 push	 edx
  00049	68 00 00 00 00	 push	 OFFSET ??_C@_0EG@KKKJIDAO@c?3?2users?2nhv90?2projects?2eech?2ap@
  0004e	a1 00 00 00 00	 mov	 eax, DWORD PTR ?null_entity_pointer_message@@3PBDB ; null_entity_pointer_message
  00053	50		 push	 eax
  00054	e8 00 00 00 00	 call	 ?process_assert@@YGXPBD0H@Z ; process_assert
  00059	c7 45 b4 00 00
	00 00		 mov	 DWORD PTR tv75[ebp], 0
$LN15@get_next_m:
  00060	b9 01 00 00 00	 mov	 ecx, 1
  00065	85 c9		 test	 ecx, ecx
  00067	74 09		 je	 SHORT $LN16@get_next_m
  00069	c7 45 b0 1b 00
	00 00		 mov	 DWORD PTR tv83[ebp], 27	; 0000001bH
  00070	eb 21		 jmp	 SHORT $LN17@get_next_m
$LN16@get_next_m:
  00072	8b 15 00 00 00
	00		 mov	 edx, DWORD PTR ?__LINE__Var@?0??get_next_missile_threat@@YGPAUENTITY@@XZ@4JA
  00078	83 c2 09	 add	 edx, 9
  0007b	52		 push	 edx
  0007c	68 00 00 00 00	 push	 OFFSET ??_C@_0EG@KKKJIDAO@c?3?2users?2nhv90?2projects?2eech?2ap@
  00081	a1 00 00 00 00	 mov	 eax, DWORD PTR ?overload_invalid_list_type_message@@3PBDB ; overload_invalid_list_type_message
  00086	50		 push	 eax
  00087	e8 00 00 00 00	 call	 ?process_assert@@YGXPBD0H@Z ; process_assert
  0008c	c7 45 b0 00 00
	00 00		 mov	 DWORD PTR tv83[ebp], 0
$LN17@get_next_m:
  00093	6a 1b		 push	 27			; 0000001bH
  00095	8b 4d fc	 mov	 ecx, DWORD PTR _source$[ebp]
  00098	51		 push	 ecx
  00099	69 55 b4 b4 00
	00 00		 imul	 edx, DWORD PTR tv75[ebp], 180
  000a0	8b 45 b0	 mov	 eax, DWORD PTR tv83[ebp]
  000a3	8b 8c 82 00 00
	00 00		 mov	 ecx, DWORD PTR ?fn_get_local_entity_first_child@@3PAY0CN@P6GPAUENTITY@@PAU1@W4LIST_TYPES@@@ZA[edx+eax*4]
  000aa	ff d1		 call	 ecx
  000ac	89 45 f8	 mov	 DWORD PTR _threat$[ebp], eax

; 3854 : 
; 3855 : 	//
; 3856 : 	// check threat is still a threat
; 3857 : 	//
; 3858 : 
; 3859 : 	if (threat)

  000af	83 7d f8 00	 cmp	 DWORD PTR _threat$[ebp], 0
  000b3	0f 84 81 00 00
	00		 je	 $LN7@get_next_m

; 3860 : 	{
; 3861 : 		if (get_local_entity_parent (threat, LIST_TYPE_TARGET) != source)

  000b9	83 7d f8 00	 cmp	 DWORD PTR _threat$[ebp], 0
  000bd	74 0a		 je	 SHORT $LN18@get_next_m
  000bf	8b 45 f8	 mov	 eax, DWORD PTR _threat$[ebp]
  000c2	8b 08		 mov	 ecx, DWORD PTR [eax]
  000c4	89 4d b4	 mov	 DWORD PTR tv95[ebp], ecx
  000c7	eb 1d		 jmp	 SHORT $LN19@get_next_m
$LN18@get_next_m:
  000c9	68 15 0f 00 00	 push	 3861			; 00000f15H
  000ce	68 00 00 00 00	 push	 OFFSET ??_C@_0EG@KKKJIDAO@c?3?2users?2nhv90?2projects?2eech?2ap@
  000d3	8b 15 00 00 00
	00		 mov	 edx, DWORD PTR ?null_entity_pointer_message@@3PBDB ; null_entity_pointer_message
  000d9	52		 push	 edx
  000da	e8 00 00 00 00	 call	 ?process_assert@@YGXPBD0H@Z ; process_assert
  000df	c7 45 b4 00 00
	00 00		 mov	 DWORD PTR tv95[ebp], 0
$LN19@get_next_m:
  000e6	b8 01 00 00 00	 mov	 eax, 1
  000eb	85 c0		 test	 eax, eax
  000ed	74 09		 je	 SHORT $LN20@get_next_m
  000ef	c7 45 b0 26 00
	00 00		 mov	 DWORD PTR tv134[ebp], 38 ; 00000026H
  000f6	eb 1d		 jmp	 SHORT $LN21@get_next_m
$LN20@get_next_m:
  000f8	68 15 0f 00 00	 push	 3861			; 00000f15H
  000fd	68 00 00 00 00	 push	 OFFSET ??_C@_0EG@KKKJIDAO@c?3?2users?2nhv90?2projects?2eech?2ap@
  00102	8b 0d 00 00 00
	00		 mov	 ecx, DWORD PTR ?overload_invalid_list_type_message@@3PBDB ; overload_invalid_list_type_message
  00108	51		 push	 ecx
  00109	e8 00 00 00 00	 call	 ?process_assert@@YGXPBD0H@Z ; process_assert
  0010e	c7 45 b0 00 00
	00 00		 mov	 DWORD PTR tv134[ebp], 0
$LN21@get_next_m:
  00115	6a 26		 push	 38			; 00000026H
  00117	8b 55 f8	 mov	 edx, DWORD PTR _threat$[ebp]
  0011a	52		 push	 edx
  0011b	69 45 b4 b4 00
	00 00		 imul	 eax, DWORD PTR tv95[ebp], 180
  00122	8b 4d b0	 mov	 ecx, DWORD PTR tv134[ebp]
  00125	8b 94 88 00 00
	00 00		 mov	 edx, DWORD PTR ?fn_get_local_entity_parent@@3PAY0CN@P6GPAUENTITY@@PAU1@W4LIST_TYPES@@@ZA[eax+ecx*4]
  0012c	ff d2		 call	 edx
  0012e	3b 45 fc	 cmp	 eax, DWORD PTR _source$[ebp]
  00131	74 07		 je	 SHORT $LN7@get_next_m

; 3862 : 		{
; 3863 : 			threat = NULL;

  00133	c7 45 f8 00 00
	00 00		 mov	 DWORD PTR _threat$[ebp], 0
$LN7@get_next_m:

; 3864 : 		}
; 3865 : 	}
; 3866 : 
; 3867 : 	//
; 3868 : 	// find next threat in list
; 3869 : 	//
; 3870 : 
; 3871 : 	if (threat)

  0013a	83 7d f8 00	 cmp	 DWORD PTR _threat$[ebp], 0
  0013e	0f 84 21 01 00
	00		 je	 $LN9@get_next_m

; 3872 : 	{
; 3873 : 		threat = get_local_entity_child_succ (threat, LIST_TYPE_TARGET);

  00144	83 7d f8 00	 cmp	 DWORD PTR _threat$[ebp], 0
  00148	74 0a		 je	 SHORT $LN22@get_next_m
  0014a	8b 45 f8	 mov	 eax, DWORD PTR _threat$[ebp]
  0014d	8b 08		 mov	 ecx, DWORD PTR [eax]
  0014f	89 4d b4	 mov	 DWORD PTR tv148[ebp], ecx
  00152	eb 21		 jmp	 SHORT $LN23@get_next_m
$LN22@get_next_m:
  00154	8b 15 00 00 00
	00		 mov	 edx, DWORD PTR ?__LINE__Var@?0??get_next_missile_threat@@YGPAUENTITY@@XZ@4JA
  0015a	83 c2 1d	 add	 edx, 29			; 0000001dH
  0015d	52		 push	 edx
  0015e	68 00 00 00 00	 push	 OFFSET ??_C@_0EG@KKKJIDAO@c?3?2users?2nhv90?2projects?2eech?2ap@
  00163	a1 00 00 00 00	 mov	 eax, DWORD PTR ?null_entity_pointer_message@@3PBDB ; null_entity_pointer_message
  00168	50		 push	 eax
  00169	e8 00 00 00 00	 call	 ?process_assert@@YGXPBD0H@Z ; process_assert
  0016e	c7 45 b4 00 00
	00 00		 mov	 DWORD PTR tv148[ebp], 0
$LN23@get_next_m:
  00175	b9 01 00 00 00	 mov	 ecx, 1
  0017a	85 c9		 test	 ecx, ecx
  0017c	74 09		 je	 SHORT $LN24@get_next_m
  0017e	c7 45 b0 26 00
	00 00		 mov	 DWORD PTR tv156[ebp], 38 ; 00000026H
  00185	eb 21		 jmp	 SHORT $LN25@get_next_m
$LN24@get_next_m:
  00187	8b 15 00 00 00
	00		 mov	 edx, DWORD PTR ?__LINE__Var@?0??get_next_missile_threat@@YGPAUENTITY@@XZ@4JA
  0018d	83 c2 1d	 add	 edx, 29			; 0000001dH
  00190	52		 push	 edx
  00191	68 00 00 00 00	 push	 OFFSET ??_C@_0EG@KKKJIDAO@c?3?2users?2nhv90?2projects?2eech?2ap@
  00196	a1 00 00 00 00	 mov	 eax, DWORD PTR ?overload_invalid_list_type_message@@3PBDB ; overload_invalid_list_type_message
  0019b	50		 push	 eax
  0019c	e8 00 00 00 00	 call	 ?process_assert@@YGXPBD0H@Z ; process_assert
  001a1	c7 45 b0 00 00
	00 00		 mov	 DWORD PTR tv156[ebp], 0
$LN25@get_next_m:
  001a8	6a 26		 push	 38			; 00000026H
  001aa	8b 4d f8	 mov	 ecx, DWORD PTR _threat$[ebp]
  001ad	51		 push	 ecx
  001ae	69 55 b4 b4 00
	00 00		 imul	 edx, DWORD PTR tv148[ebp], 180
  001b5	8b 45 b0	 mov	 eax, DWORD PTR tv156[ebp]
  001b8	8b 8c 82 00 00
	00 00		 mov	 ecx, DWORD PTR ?fn_get_local_entity_child_succ@@3PAY0CN@P6GPAUENTITY@@PAU1@W4LIST_TYPES@@@ZA[edx+eax*4]
  001bf	ff d1		 call	 ecx
  001c1	89 45 f8	 mov	 DWORD PTR _threat$[ebp], eax
$LN2@get_next_m:

; 3874 : 
; 3875 : 		while (threat)

  001c4	83 7d f8 00	 cmp	 DWORD PTR _threat$[ebp], 0
  001c8	0f 84 97 00 00
	00		 je	 $LN9@get_next_m

; 3876 : 		{
; 3877 : 			if (get_valid_missile_threat (threat))

  001ce	8b 45 f8	 mov	 eax, DWORD PTR _threat$[ebp]
  001d1	50		 push	 eax
  001d2	e8 00 00 00 00	 call	 ?get_valid_missile_threat@@YGHPAUENTITY@@@Z ; get_valid_missile_threat
  001d7	85 c0		 test	 eax, eax
  001d9	74 05		 je	 SHORT $LN10@get_next_m

; 3878 : 			{
; 3879 : 				break;

  001db	e9 85 00 00 00	 jmp	 $LN9@get_next_m
$LN10@get_next_m:

; 3880 : 			}
; 3881 : 
; 3882 : 			threat = get_local_entity_child_succ (threat, LIST_TYPE_TARGET);

  001e0	83 7d f8 00	 cmp	 DWORD PTR _threat$[ebp], 0
  001e4	74 0a		 je	 SHORT $LN26@get_next_m
  001e6	8b 45 f8	 mov	 eax, DWORD PTR _threat$[ebp]
  001e9	8b 08		 mov	 ecx, DWORD PTR [eax]
  001eb	89 4d b4	 mov	 DWORD PTR tv172[ebp], ecx
  001ee	eb 21		 jmp	 SHORT $LN27@get_next_m
$LN26@get_next_m:
  001f0	8b 15 00 00 00
	00		 mov	 edx, DWORD PTR ?__LINE__Var@?0??get_next_missile_threat@@YGPAUENTITY@@XZ@4JA
  001f6	83 c2 26	 add	 edx, 38			; 00000026H
  001f9	52		 push	 edx
  001fa	68 00 00 00 00	 push	 OFFSET ??_C@_0EG@KKKJIDAO@c?3?2users?2nhv90?2projects?2eech?2ap@
  001ff	a1 00 00 00 00	 mov	 eax, DWORD PTR ?null_entity_pointer_message@@3PBDB ; null_entity_pointer_message
  00204	50		 push	 eax
  00205	e8 00 00 00 00	 call	 ?process_assert@@YGXPBD0H@Z ; process_assert
  0020a	c7 45 b4 00 00
	00 00		 mov	 DWORD PTR tv172[ebp], 0
$LN27@get_next_m:
  00211	b9 01 00 00 00	 mov	 ecx, 1
  00216	85 c9		 test	 ecx, ecx
  00218	74 09		 je	 SHORT $LN28@get_next_m
  0021a	c7 45 b0 26 00
	00 00		 mov	 DWORD PTR tv180[ebp], 38 ; 00000026H
  00221	eb 21		 jmp	 SHORT $LN29@get_next_m
$LN28@get_next_m:
  00223	8b 15 00 00 00
	00		 mov	 edx, DWORD PTR ?__LINE__Var@?0??get_next_missile_threat@@YGPAUENTITY@@XZ@4JA
  00229	83 c2 26	 add	 edx, 38			; 00000026H
  0022c	52		 push	 edx
  0022d	68 00 00 00 00	 push	 OFFSET ??_C@_0EG@KKKJIDAO@c?3?2users?2nhv90?2projects?2eech?2ap@
  00232	a1 00 00 00 00	 mov	 eax, DWORD PTR ?overload_invalid_list_type_message@@3PBDB ; overload_invalid_list_type_message
  00237	50		 push	 eax
  00238	e8 00 00 00 00	 call	 ?process_assert@@YGXPBD0H@Z ; process_assert
  0023d	c7 45 b0 00 00
	00 00		 mov	 DWORD PTR tv180[ebp], 0
$LN29@get_next_m:
  00244	6a 26		 push	 38			; 00000026H
  00246	8b 4d f8	 mov	 ecx, DWORD PTR _threat$[ebp]
  00249	51		 push	 ecx
  0024a	69 55 b4 b4 00
	00 00		 imul	 edx, DWORD PTR tv172[ebp], 180
  00251	8b 45 b0	 mov	 eax, DWORD PTR tv180[ebp]
  00254	8b 8c 82 00 00
	00 00		 mov	 ecx, DWORD PTR ?fn_get_local_entity_child_succ@@3PAY0CN@P6GPAUENTITY@@PAU1@W4LIST_TYPES@@@ZA[edx+eax*4]
  0025b	ff d1		 call	 ecx
  0025d	89 45 f8	 mov	 DWORD PTR _threat$[ebp], eax

; 3883 : 		}

  00260	e9 5f ff ff ff	 jmp	 $LN2@get_next_m
$LN9@get_next_m:

; 3884 : 	}
; 3885 : 
; 3886 : 	//
; 3887 : 	// find first threat in list
; 3888 : 	//
; 3889 : 
; 3890 : 	if (!threat)

  00265	83 7d f8 00	 cmp	 DWORD PTR _threat$[ebp], 0
  00269	0f 85 21 01 00
	00		 jne	 $LN11@get_next_m

; 3891 : 	{
; 3892 : 		threat = get_local_entity_first_child (source, LIST_TYPE_TARGET);

  0026f	83 7d fc 00	 cmp	 DWORD PTR _source$[ebp], 0
  00273	74 0a		 je	 SHORT $LN30@get_next_m
  00275	8b 45 fc	 mov	 eax, DWORD PTR _source$[ebp]
  00278	8b 08		 mov	 ecx, DWORD PTR [eax]
  0027a	89 4d b4	 mov	 DWORD PTR tv193[ebp], ecx
  0027d	eb 21		 jmp	 SHORT $LN31@get_next_m
$LN30@get_next_m:
  0027f	8b 15 00 00 00
	00		 mov	 edx, DWORD PTR ?__LINE__Var@?0??get_next_missile_threat@@YGPAUENTITY@@XZ@4JA
  00285	83 c2 30	 add	 edx, 48			; 00000030H
  00288	52		 push	 edx
  00289	68 00 00 00 00	 push	 OFFSET ??_C@_0EG@KKKJIDAO@c?3?2users?2nhv90?2projects?2eech?2ap@
  0028e	a1 00 00 00 00	 mov	 eax, DWORD PTR ?null_entity_pointer_message@@3PBDB ; null_entity_pointer_message
  00293	50		 push	 eax
  00294	e8 00 00 00 00	 call	 ?process_assert@@YGXPBD0H@Z ; process_assert
  00299	c7 45 b4 00 00
	00 00		 mov	 DWORD PTR tv193[ebp], 0
$LN31@get_next_m:
  002a0	b9 01 00 00 00	 mov	 ecx, 1
  002a5	85 c9		 test	 ecx, ecx
  002a7	74 09		 je	 SHORT $LN32@get_next_m
  002a9	c7 45 b0 26 00
	00 00		 mov	 DWORD PTR tv201[ebp], 38 ; 00000026H
  002b0	eb 21		 jmp	 SHORT $LN33@get_next_m
$LN32@get_next_m:
  002b2	8b 15 00 00 00
	00		 mov	 edx, DWORD PTR ?__LINE__Var@?0??get_next_missile_threat@@YGPAUENTITY@@XZ@4JA
  002b8	83 c2 30	 add	 edx, 48			; 00000030H
  002bb	52		 push	 edx
  002bc	68 00 00 00 00	 push	 OFFSET ??_C@_0EG@KKKJIDAO@c?3?2users?2nhv90?2projects?2eech?2ap@
  002c1	a1 00 00 00 00	 mov	 eax, DWORD PTR ?overload_invalid_list_type_message@@3PBDB ; overload_invalid_list_type_message
  002c6	50		 push	 eax
  002c7	e8 00 00 00 00	 call	 ?process_assert@@YGXPBD0H@Z ; process_assert
  002cc	c7 45 b0 00 00
	00 00		 mov	 DWORD PTR tv201[ebp], 0
$LN33@get_next_m:
  002d3	6a 26		 push	 38			; 00000026H
  002d5	8b 4d fc	 mov	 ecx, DWORD PTR _source$[ebp]
  002d8	51		 push	 ecx
  002d9	69 55 b4 b4 00
	00 00		 imul	 edx, DWORD PTR tv193[ebp], 180
  002e0	8b 45 b0	 mov	 eax, DWORD PTR tv201[ebp]
  002e3	8b 8c 82 00 00
	00 00		 mov	 ecx, DWORD PTR ?fn_get_local_entity_first_child@@3PAY0CN@P6GPAUENTITY@@PAU1@W4LIST_TYPES@@@ZA[edx+eax*4]
  002ea	ff d1		 call	 ecx
  002ec	89 45 f8	 mov	 DWORD PTR _threat$[ebp], eax
$LN4@get_next_m:

; 3893 : 
; 3894 : 		while (threat)

  002ef	83 7d f8 00	 cmp	 DWORD PTR _threat$[ebp], 0
  002f3	0f 84 97 00 00
	00		 je	 $LN11@get_next_m

; 3895 : 		{
; 3896 : 			if (get_valid_missile_threat (threat))

  002f9	8b 45 f8	 mov	 eax, DWORD PTR _threat$[ebp]
  002fc	50		 push	 eax
  002fd	e8 00 00 00 00	 call	 ?get_valid_missile_threat@@YGHPAUENTITY@@@Z ; get_valid_missile_threat
  00302	85 c0		 test	 eax, eax
  00304	74 05		 je	 SHORT $LN12@get_next_m

; 3897 : 			{
; 3898 : 				break;

  00306	e9 85 00 00 00	 jmp	 $LN11@get_next_m
$LN12@get_next_m:

; 3899 : 			}
; 3900 : 
; 3901 : 			threat = get_local_entity_child_succ (threat, LIST_TYPE_TARGET);

  0030b	83 7d f8 00	 cmp	 DWORD PTR _threat$[ebp], 0
  0030f	74 0a		 je	 SHORT $LN34@get_next_m
  00311	8b 45 f8	 mov	 eax, DWORD PTR _threat$[ebp]
  00314	8b 08		 mov	 ecx, DWORD PTR [eax]
  00316	89 4d b4	 mov	 DWORD PTR tv217[ebp], ecx
  00319	eb 21		 jmp	 SHORT $LN35@get_next_m
$LN34@get_next_m:
  0031b	8b 15 00 00 00
	00		 mov	 edx, DWORD PTR ?__LINE__Var@?0??get_next_missile_threat@@YGPAUENTITY@@XZ@4JA
  00321	83 c2 39	 add	 edx, 57			; 00000039H
  00324	52		 push	 edx
  00325	68 00 00 00 00	 push	 OFFSET ??_C@_0EG@KKKJIDAO@c?3?2users?2nhv90?2projects?2eech?2ap@
  0032a	a1 00 00 00 00	 mov	 eax, DWORD PTR ?null_entity_pointer_message@@3PBDB ; null_entity_pointer_message
  0032f	50		 push	 eax
  00330	e8 00 00 00 00	 call	 ?process_assert@@YGXPBD0H@Z ; process_assert
  00335	c7 45 b4 00 00
	00 00		 mov	 DWORD PTR tv217[ebp], 0
$LN35@get_next_m:
  0033c	b9 01 00 00 00	 mov	 ecx, 1
  00341	85 c9		 test	 ecx, ecx
  00343	74 09		 je	 SHORT $LN36@get_next_m
  00345	c7 45 b0 26 00
	00 00		 mov	 DWORD PTR tv225[ebp], 38 ; 00000026H
  0034c	eb 21		 jmp	 SHORT $LN37@get_next_m
$LN36@get_next_m:
  0034e	8b 15 00 00 00
	00		 mov	 edx, DWORD PTR ?__LINE__Var@?0??get_next_missile_threat@@YGPAUENTITY@@XZ@4JA
  00354	83 c2 39	 add	 edx, 57			; 00000039H
  00357	52		 push	 edx
  00358	68 00 00 00 00	 push	 OFFSET ??_C@_0EG@KKKJIDAO@c?3?2users?2nhv90?2projects?2eech?2ap@
  0035d	a1 00 00 00 00	 mov	 eax, DWORD PTR ?overload_invalid_list_type_message@@3PBDB ; overload_invalid_list_type_message
  00362	50		 push	 eax
  00363	e8 00 00 00 00	 call	 ?process_assert@@YGXPBD0H@Z ; process_assert
  00368	c7 45 b0 00 00
	00 00		 mov	 DWORD PTR tv225[ebp], 0
$LN37@get_next_m:
  0036f	6a 26		 push	 38			; 00000026H
  00371	8b 4d f8	 mov	 ecx, DWORD PTR _threat$[ebp]
  00374	51		 push	 ecx
  00375	69 55 b4 b4 00
	00 00		 imul	 edx, DWORD PTR tv217[ebp], 180
  0037c	8b 45 b0	 mov	 eax, DWORD PTR tv225[ebp]
  0037f	8b 8c 82 00 00
	00 00		 mov	 ecx, DWORD PTR ?fn_get_local_entity_child_succ@@3PAY0CN@P6GPAUENTITY@@PAU1@W4LIST_TYPES@@@ZA[edx+eax*4]
  00386	ff d1		 call	 ecx
  00388	89 45 f8	 mov	 DWORD PTR _threat$[ebp], eax

; 3902 : 		}

  0038b	e9 5f ff ff ff	 jmp	 $LN4@get_next_m
$LN11@get_next_m:

; 3903 : 	}
; 3904 : 
; 3905 : 	return (threat);

  00390	8b 45 f8	 mov	 eax, DWORD PTR _threat$[ebp]

; 3906 : }

  00393	5f		 pop	 edi
  00394	5e		 pop	 esi
  00395	5b		 pop	 ebx
  00396	8b e5		 mov	 esp, ebp
  00398	5d		 pop	 ebp
  00399	c3		 ret	 0
?get_next_missile_threat@@YGPAUENTITY@@XZ ENDP		; get_next_missile_threat
_TEXT	ENDS
; Function compile flags: /Odtp /ZI
; File c:\users\nhv90\projects\eech\aphavoc\source\gunships\views\vm_vckpt.c
;	COMDAT ?get_first_missile_threat@@YGPAUENTITY@@XZ
_TEXT	SEGMENT
tv245 = -140						; size = 4
tv182 = -140						; size = 4
tv159 = -140						; size = 4
tv135 = -140						; size = 4
tv83 = -140						; size = 4
tv237 = -136						; size = 4
tv215 = -136						; size = 4
tv174 = -136						; size = 4
tv151 = -136						; size = 4
tv95 = -136						; size = 4
tv75 = -136						; size = 4
$T1 = -132						; size = 4
_attitude$ = -64					; size = 4
_uvec_threat_to_target$ = -60				; size = 12
_threat_position$ = -48					; size = 4
_source_position$ = -44					; size = 4
_cos_error$ = -40					; size = 4
_length$ = -36						; size = 4
_closest_missile_time_to_impact$ = -32			; size = 4
_time_to_impact$ = -28					; size = 4
_threat_velocity$ = -24					; size = 4
_threat_range$ = -20					; size = 4
_overshot$ = -16					; size = 4
_closest_missile$ = -12					; size = 4
_threat$ = -8						; size = 4
_source$ = -4						; size = 4
?get_first_missile_threat@@YGPAUENTITY@@XZ PROC		; get_first_missile_threat, COMDAT

; 3740 : {

  00000	55		 push	 ebp
  00001	8b ec		 mov	 ebp, esp
  00003	81 ec 8c 00 00
	00		 sub	 esp, 140		; 0000008cH
  00009	53		 push	 ebx
  0000a	56		 push	 esi
  0000b	57		 push	 edi

; 3741 : 	entity
; 3742 : 		*source,
; 3743 : 		*threat,
; 3744 : 		*closest_missile;
; 3745 : 
; 3746 : 	int
; 3747 : 		overshot;
; 3748 : 
; 3749 : 	float
; 3750 : 		threat_range,
; 3751 : 		threat_velocity,
; 3752 : 		time_to_impact,
; 3753 : 		closest_missile_time_to_impact,
; 3754 : 		length,
; 3755 : 		cos_error;
; 3756 : 
; 3757 : 	vec3d
; 3758 : 		*source_position,
; 3759 : 		*threat_position,
; 3760 : 		uvec_threat_to_target;
; 3761 : 
; 3762 : 	matrix3x3
; 3763 : 		*attitude;
; 3764 : 
; 3765 : 	source = get_gunship_entity ();

  0000c	a1 00 00 00 00	 mov	 eax, DWORD PTR ?gunship_entity@@3PAUENTITY@@A ; gunship_entity
  00011	89 45 fc	 mov	 DWORD PTR _source$[ebp], eax

; 3766 : 
; 3767 : 	ASSERT (source);

  00014	83 7d fc 00	 cmp	 DWORD PTR _source$[ebp], 0
  00018	75 18		 jne	 SHORT $LN4@get_first_
  0001a	a1 00 00 00 00	 mov	 eax, DWORD PTR ?__LINE__Var@?0??get_first_missile_threat@@YGPAUENTITY@@XZ@4JA
  0001f	83 c0 1b	 add	 eax, 27			; 0000001bH
  00022	50		 push	 eax
  00023	68 00 00 00 00	 push	 OFFSET ??_C@_0EG@KKKJIDAO@c?3?2users?2nhv90?2projects?2eech?2ap@
  00028	68 00 00 00 00	 push	 OFFSET ??_C@_06OEKOLKIL@source@
  0002d	e8 00 00 00 00	 call	 ?process_assert@@YGXPBD0H@Z ; process_assert
$LN4@get_first_:

; 3768 : 
; 3769 : 	source_position = get_local_entity_vec3d_ptr (source, VEC3D_TYPE_POSITION);

  00032	83 7d fc 00	 cmp	 DWORD PTR _source$[ebp], 0
  00036	74 0d		 je	 SHORT $LN13@get_first_
  00038	8b 45 fc	 mov	 eax, DWORD PTR _source$[ebp]
  0003b	8b 08		 mov	 ecx, DWORD PTR [eax]
  0003d	89 8d 78 ff ff
	ff		 mov	 DWORD PTR tv75[ebp], ecx
  00043	eb 24		 jmp	 SHORT $LN14@get_first_
$LN13@get_first_:
  00045	8b 15 00 00 00
	00		 mov	 edx, DWORD PTR ?__LINE__Var@?0??get_first_missile_threat@@YGPAUENTITY@@XZ@4JA
  0004b	83 c2 1d	 add	 edx, 29			; 0000001dH
  0004e	52		 push	 edx
  0004f	68 00 00 00 00	 push	 OFFSET ??_C@_0EG@KKKJIDAO@c?3?2users?2nhv90?2projects?2eech?2ap@
  00054	a1 00 00 00 00	 mov	 eax, DWORD PTR ?null_entity_pointer_message@@3PBDB ; null_entity_pointer_message
  00059	50		 push	 eax
  0005a	e8 00 00 00 00	 call	 ?process_assert@@YGXPBD0H@Z ; process_assert
  0005f	c7 85 78 ff ff
	ff 00 00 00 00	 mov	 DWORD PTR tv75[ebp], 0
$LN14@get_first_:
  00069	b9 01 00 00 00	 mov	 ecx, 1
  0006e	85 c9		 test	 ecx, ecx
  00070	74 0c		 je	 SHORT $LN15@get_first_
  00072	c7 85 74 ff ff
	ff 08 00 00 00	 mov	 DWORD PTR tv83[ebp], 8
  0007c	eb 24		 jmp	 SHORT $LN16@get_first_
$LN15@get_first_:
  0007e	8b 15 00 00 00
	00		 mov	 edx, DWORD PTR ?__LINE__Var@?0??get_first_missile_threat@@YGPAUENTITY@@XZ@4JA
  00084	83 c2 1d	 add	 edx, 29			; 0000001dH
  00087	52		 push	 edx
  00088	68 00 00 00 00	 push	 OFFSET ??_C@_0EG@KKKJIDAO@c?3?2users?2nhv90?2projects?2eech?2ap@
  0008d	a1 00 00 00 00	 mov	 eax, DWORD PTR ?overload_invalid_vec3d_type_message@@3PBDB ; overload_invalid_vec3d_type_message
  00092	50		 push	 eax
  00093	e8 00 00 00 00	 call	 ?process_assert@@YGXPBD0H@Z ; process_assert
  00098	c7 85 74 ff ff
	ff 00 00 00 00	 mov	 DWORD PTR tv83[ebp], 0
$LN16@get_first_:
  000a2	6a 08		 push	 8
  000a4	8b 4d fc	 mov	 ecx, DWORD PTR _source$[ebp]
  000a7	51		 push	 ecx
  000a8	6b 95 78 ff ff
	ff 60		 imul	 edx, DWORD PTR tv75[ebp], 96
  000af	8b 85 74 ff ff
	ff		 mov	 eax, DWORD PTR tv83[ebp]
  000b5	8b 8c 82 00 00
	00 00		 mov	 ecx, DWORD PTR ?fn_get_local_entity_vec3d_ptr@@3PAY0BI@P6GPAUVEC3D@@PAUENTITY@@W4VEC3D_TYPES@@@ZA[edx+eax*4]
  000bc	ff d1		 call	 ecx
  000be	89 45 d4	 mov	 DWORD PTR _source_position$[ebp], eax

; 3770 : 
; 3771 : 	closest_missile = NULL;

  000c1	c7 45 f4 00 00
	00 00		 mov	 DWORD PTR _closest_missile$[ebp], 0

; 3772 : 
; 3773 : 	closest_missile_time_to_impact = 1000000.0;

  000c8	f3 0f 10 05 00
	00 00 00	 movss	 xmm0, DWORD PTR __real@49742400
  000d0	f3 0f 11 45 e0	 movss	 DWORD PTR _closest_missile_time_to_impact$[ebp], xmm0

; 3774 : 
; 3775 : 	threat = get_local_entity_first_child (get_gunship_entity (), LIST_TYPE_TARGET);

  000d5	83 3d 00 00 00
	00 00		 cmp	 DWORD PTR ?gunship_entity@@3PAUENTITY@@A, 0 ; gunship_entity
  000dc	74 0f		 je	 SHORT $LN17@get_first_
  000de	a1 00 00 00 00	 mov	 eax, DWORD PTR ?gunship_entity@@3PAUENTITY@@A ; gunship_entity
  000e3	8b 08		 mov	 ecx, DWORD PTR [eax]
  000e5	89 8d 78 ff ff
	ff		 mov	 DWORD PTR tv95[ebp], ecx
  000eb	eb 24		 jmp	 SHORT $LN18@get_first_
$LN17@get_first_:
  000ed	8b 15 00 00 00
	00		 mov	 edx, DWORD PTR ?__LINE__Var@?0??get_first_missile_threat@@YGPAUENTITY@@XZ@4JA
  000f3	83 c2 23	 add	 edx, 35			; 00000023H
  000f6	52		 push	 edx
  000f7	68 00 00 00 00	 push	 OFFSET ??_C@_0EG@KKKJIDAO@c?3?2users?2nhv90?2projects?2eech?2ap@
  000fc	a1 00 00 00 00	 mov	 eax, DWORD PTR ?null_entity_pointer_message@@3PBDB ; null_entity_pointer_message
  00101	50		 push	 eax
  00102	e8 00 00 00 00	 call	 ?process_assert@@YGXPBD0H@Z ; process_assert
  00107	c7 85 78 ff ff
	ff 00 00 00 00	 mov	 DWORD PTR tv95[ebp], 0
$LN18@get_first_:
  00111	b9 01 00 00 00	 mov	 ecx, 1
  00116	85 c9		 test	 ecx, ecx
  00118	74 0c		 je	 SHORT $LN19@get_first_
  0011a	c7 85 74 ff ff
	ff 26 00 00 00	 mov	 DWORD PTR tv135[ebp], 38 ; 00000026H
  00124	eb 24		 jmp	 SHORT $LN20@get_first_
$LN19@get_first_:
  00126	8b 15 00 00 00
	00		 mov	 edx, DWORD PTR ?__LINE__Var@?0??get_first_missile_threat@@YGPAUENTITY@@XZ@4JA
  0012c	83 c2 23	 add	 edx, 35			; 00000023H
  0012f	52		 push	 edx
  00130	68 00 00 00 00	 push	 OFFSET ??_C@_0EG@KKKJIDAO@c?3?2users?2nhv90?2projects?2eech?2ap@
  00135	a1 00 00 00 00	 mov	 eax, DWORD PTR ?overload_invalid_list_type_message@@3PBDB ; overload_invalid_list_type_message
  0013a	50		 push	 eax
  0013b	e8 00 00 00 00	 call	 ?process_assert@@YGXPBD0H@Z ; process_assert
  00140	c7 85 74 ff ff
	ff 00 00 00 00	 mov	 DWORD PTR tv135[ebp], 0
$LN20@get_first_:
  0014a	6a 26		 push	 38			; 00000026H
  0014c	8b 0d 00 00 00
	00		 mov	 ecx, DWORD PTR ?gunship_entity@@3PAUENTITY@@A ; gunship_entity
  00152	51		 push	 ecx
  00153	69 95 78 ff ff
	ff b4 00 00 00	 imul	 edx, DWORD PTR tv95[ebp], 180
  0015d	8b 85 74 ff ff
	ff		 mov	 eax, DWORD PTR tv135[ebp]
  00163	8b 8c 82 00 00
	00 00		 mov	 ecx, DWORD PTR ?fn_get_local_entity_first_child@@3PAY0CN@P6GPAUENTITY@@PAU1@W4LIST_TYPES@@@ZA[edx+eax*4]
  0016a	ff d1		 call	 ecx
  0016c	89 45 f8	 mov	 DWORD PTR _threat$[ebp], eax
$LN2@get_first_:

; 3776 : 
; 3777 : 	while (threat)

  0016f	83 7d f8 00	 cmp	 DWORD PTR _threat$[ebp], 0
  00173	0f 84 45 03 00
	00		 je	 $LN3@get_first_

; 3778 : 	{
; 3779 : 		if (get_valid_missile_threat (threat))

  00179	8b 45 f8	 mov	 eax, DWORD PTR _threat$[ebp]
  0017c	50		 push	 eax
  0017d	e8 00 00 00 00	 call	 ?get_valid_missile_threat@@YGHPAUENTITY@@@Z ; get_valid_missile_threat
  00182	85 c0		 test	 eax, eax
  00184	0f 84 9d 02 00
	00		 je	 $LN11@get_first_

; 3780 : 		{
; 3781 : 			threat_position = get_local_entity_vec3d_ptr (threat, VEC3D_TYPE_POSITION);

  0018a	83 7d f8 00	 cmp	 DWORD PTR _threat$[ebp], 0
  0018e	74 0d		 je	 SHORT $LN21@get_first_
  00190	8b 45 f8	 mov	 eax, DWORD PTR _threat$[ebp]
  00193	8b 08		 mov	 ecx, DWORD PTR [eax]
  00195	89 8d 78 ff ff
	ff		 mov	 DWORD PTR tv151[ebp], ecx
  0019b	eb 24		 jmp	 SHORT $LN22@get_first_
$LN21@get_first_:
  0019d	8b 15 00 00 00
	00		 mov	 edx, DWORD PTR ?__LINE__Var@?0??get_first_missile_threat@@YGPAUENTITY@@XZ@4JA
  001a3	83 c2 29	 add	 edx, 41			; 00000029H
  001a6	52		 push	 edx
  001a7	68 00 00 00 00	 push	 OFFSET ??_C@_0EG@KKKJIDAO@c?3?2users?2nhv90?2projects?2eech?2ap@
  001ac	a1 00 00 00 00	 mov	 eax, DWORD PTR ?null_entity_pointer_message@@3PBDB ; null_entity_pointer_message
  001b1	50		 push	 eax
  001b2	e8 00 00 00 00	 call	 ?process_assert@@YGXPBD0H@Z ; process_assert
  001b7	c7 85 78 ff ff
	ff 00 00 00 00	 mov	 DWORD PTR tv151[ebp], 0
$LN22@get_first_:
  001c1	b9 01 00 00 00	 mov	 ecx, 1
  001c6	85 c9		 test	 ecx, ecx
  001c8	74 0c		 je	 SHORT $LN23@get_first_
  001ca	c7 85 74 ff ff
	ff 08 00 00 00	 mov	 DWORD PTR tv159[ebp], 8
  001d4	eb 24		 jmp	 SHORT $LN24@get_first_
$LN23@get_first_:
  001d6	8b 15 00 00 00
	00		 mov	 edx, DWORD PTR ?__LINE__Var@?0??get_first_missile_threat@@YGPAUENTITY@@XZ@4JA
  001dc	83 c2 29	 add	 edx, 41			; 00000029H
  001df	52		 push	 edx
  001e0	68 00 00 00 00	 push	 OFFSET ??_C@_0EG@KKKJIDAO@c?3?2users?2nhv90?2projects?2eech?2ap@
  001e5	a1 00 00 00 00	 mov	 eax, DWORD PTR ?overload_invalid_vec3d_type_message@@3PBDB ; overload_invalid_vec3d_type_message
  001ea	50		 push	 eax
  001eb	e8 00 00 00 00	 call	 ?process_assert@@YGXPBD0H@Z ; process_assert
  001f0	c7 85 74 ff ff
	ff 00 00 00 00	 mov	 DWORD PTR tv159[ebp], 0
$LN24@get_first_:
  001fa	6a 08		 push	 8
  001fc	8b 4d f8	 mov	 ecx, DWORD PTR _threat$[ebp]
  001ff	51		 push	 ecx
  00200	6b 95 78 ff ff
	ff 60		 imul	 edx, DWORD PTR tv151[ebp], 96
  00207	8b 85 74 ff ff
	ff		 mov	 eax, DWORD PTR tv159[ebp]
  0020d	8b 8c 82 00 00
	00 00		 mov	 ecx, DWORD PTR ?fn_get_local_entity_vec3d_ptr@@3PAY0BI@P6GPAUVEC3D@@PAUENTITY@@W4VEC3D_TYPES@@@ZA[edx+eax*4]
  00214	ff d1		 call	 ecx
  00216	89 45 d0	 mov	 DWORD PTR _threat_position$[ebp], eax

; 3782 : 
; 3783 : 			threat_range = get_3d_range (source_position, threat_position);

  00219	8b 45 d0	 mov	 eax, DWORD PTR _threat_position$[ebp]
  0021c	50		 push	 eax
  0021d	8b 4d d4	 mov	 ecx, DWORD PTR _source_position$[ebp]
  00220	51		 push	 ecx
  00221	e8 00 00 00 00	 call	 ?get_3d_range@@YGMPBUVEC3D@@0@Z ; get_3d_range
  00226	d9 5d ec	 fstp	 DWORD PTR _threat_range$[ebp]

; 3784 : 
; 3785 : 			threat_velocity = get_local_entity_float_value (threat, FLOAT_TYPE_VELOCITY);

  00229	83 7d f8 00	 cmp	 DWORD PTR _threat$[ebp], 0
  0022d	74 0d		 je	 SHORT $LN25@get_first_
  0022f	8b 45 f8	 mov	 eax, DWORD PTR _threat$[ebp]
  00232	8b 08		 mov	 ecx, DWORD PTR [eax]
  00234	89 8d 78 ff ff
	ff		 mov	 DWORD PTR tv174[ebp], ecx
  0023a	eb 24		 jmp	 SHORT $LN26@get_first_
$LN25@get_first_:
  0023c	8b 15 00 00 00
	00		 mov	 edx, DWORD PTR ?__LINE__Var@?0??get_first_missile_threat@@YGPAUENTITY@@XZ@4JA
  00242	83 c2 2d	 add	 edx, 45			; 0000002dH
  00245	52		 push	 edx
  00246	68 00 00 00 00	 push	 OFFSET ??_C@_0EG@KKKJIDAO@c?3?2users?2nhv90?2projects?2eech?2ap@
  0024b	a1 00 00 00 00	 mov	 eax, DWORD PTR ?null_entity_pointer_message@@3PBDB ; null_entity_pointer_message
  00250	50		 push	 eax
  00251	e8 00 00 00 00	 call	 ?process_assert@@YGXPBD0H@Z ; process_assert
  00256	c7 85 78 ff ff
	ff 00 00 00 00	 mov	 DWORD PTR tv174[ebp], 0
$LN26@get_first_:
  00260	b9 01 00 00 00	 mov	 ecx, 1
  00265	85 c9		 test	 ecx, ecx
  00267	74 0c		 je	 SHORT $LN27@get_first_
  00269	c7 85 74 ff ff
	ff 93 00 00 00	 mov	 DWORD PTR tv182[ebp], 147 ; 00000093H
  00273	eb 24		 jmp	 SHORT $LN28@get_first_
$LN27@get_first_:
  00275	8b 15 00 00 00
	00		 mov	 edx, DWORD PTR ?__LINE__Var@?0??get_first_missile_threat@@YGPAUENTITY@@XZ@4JA
  0027b	83 c2 2d	 add	 edx, 45			; 0000002dH
  0027e	52		 push	 edx
  0027f	68 00 00 00 00	 push	 OFFSET ??_C@_0EG@KKKJIDAO@c?3?2users?2nhv90?2projects?2eech?2ap@
  00284	a1 00 00 00 00	 mov	 eax, DWORD PTR ?overload_invalid_float_type_message@@3PBDB ; overload_invalid_float_type_message
  00289	50		 push	 eax
  0028a	e8 00 00 00 00	 call	 ?process_assert@@YGXPBD0H@Z ; process_assert
  0028f	c7 85 74 ff ff
	ff 00 00 00 00	 mov	 DWORD PTR tv182[ebp], 0
$LN28@get_first_:
  00299	68 93 00 00 00	 push	 147			; 00000093H
  0029e	8b 4d f8	 mov	 ecx, DWORD PTR _threat$[ebp]
  002a1	51		 push	 ecx
  002a2	69 95 78 ff ff
	ff bc 02 00 00	 imul	 edx, DWORD PTR tv174[ebp], 700
  002ac	8b 85 74 ff ff
	ff		 mov	 eax, DWORD PTR tv182[ebp]
  002b2	8b 8c 82 00 00
	00 00		 mov	 ecx, DWORD PTR ?fn_get_local_entity_float_value@@3PAY0KP@P6GMPAUENTITY@@W4FLOAT_TYPES@@@ZA[edx+eax*4]
  002b9	ff d1		 call	 ecx
  002bb	d9 5d e8	 fstp	 DWORD PTR _threat_velocity$[ebp]

; 3786 : 
; 3787 : 			time_to_impact = threat_range / max (threat_velocity, 1.0f);

  002be	f3 0f 10 05 00
	00 00 00	 movss	 xmm0, DWORD PTR __real@3f800000
  002c6	f3 0f 11 85 7c
	ff ff ff	 movss	 DWORD PTR $T1[ebp], xmm0
  002ce	8d 85 7c ff ff
	ff		 lea	 eax, DWORD PTR $T1[ebp]
  002d4	50		 push	 eax
  002d5	8d 4d e8	 lea	 ecx, DWORD PTR _threat_velocity$[ebp]
  002d8	51		 push	 ecx
  002d9	e8 00 00 00 00	 call	 ??$max@M@std@@YGABMABM0@Z ; std::max<float>
  002de	f3 0f 10 45 ec	 movss	 xmm0, DWORD PTR _threat_range$[ebp]
  002e3	f3 0f 5e 00	 divss	 xmm0, DWORD PTR [eax]
  002e7	f3 0f 11 45 e4	 movss	 DWORD PTR _time_to_impact$[ebp], xmm0

; 3788 : 
; 3789 : 			//
; 3790 : 			// guard against 'overshot target' to prevent spurious indications
; 3791 : 			//
; 3792 : 
; 3793 : 			overshot = FALSE;

  002ec	c7 45 f0 00 00
	00 00		 mov	 DWORD PTR _overshot$[ebp], 0

; 3794 : 
; 3795 : 			if (time_to_impact < 1.0)

  002f3	f3 0f 5a 45 e4	 cvtss2sd xmm0, DWORD PTR _time_to_impact$[ebp]
  002f8	f2 0f 10 0d 00
	00 00 00	 movsd	 xmm1, QWORD PTR __real@3ff0000000000000
  00300	66 0f 2f c8	 comisd	 xmm1, xmm0
  00304	0f 86 fc 00 00
	00		 jbe	 $LN8@get_first_

; 3796 : 			{
; 3797 : 				uvec_threat_to_target.x = source_position->x - threat_position->x;

  0030a	8b 45 d4	 mov	 eax, DWORD PTR _source_position$[ebp]
  0030d	8b 4d d0	 mov	 ecx, DWORD PTR _threat_position$[ebp]
  00310	f3 0f 10 00	 movss	 xmm0, DWORD PTR [eax]
  00314	f3 0f 5c 01	 subss	 xmm0, DWORD PTR [ecx]
  00318	f3 0f 11 45 c4	 movss	 DWORD PTR _uvec_threat_to_target$[ebp], xmm0

; 3798 : 				uvec_threat_to_target.y = source_position->y - threat_position->y;

  0031d	8b 45 d4	 mov	 eax, DWORD PTR _source_position$[ebp]
  00320	8b 4d d0	 mov	 ecx, DWORD PTR _threat_position$[ebp]
  00323	f3 0f 10 40 04	 movss	 xmm0, DWORD PTR [eax+4]
  00328	f3 0f 5c 41 04	 subss	 xmm0, DWORD PTR [ecx+4]
  0032d	f3 0f 11 45 c8	 movss	 DWORD PTR _uvec_threat_to_target$[ebp+4], xmm0

; 3799 : 				uvec_threat_to_target.z = source_position->z - threat_position->z;

  00332	8b 45 d4	 mov	 eax, DWORD PTR _source_position$[ebp]
  00335	8b 4d d0	 mov	 ecx, DWORD PTR _threat_position$[ebp]
  00338	f3 0f 10 40 08	 movss	 xmm0, DWORD PTR [eax+8]
  0033d	f3 0f 5c 41 08	 subss	 xmm0, DWORD PTR [ecx+8]
  00342	f3 0f 11 45 cc	 movss	 DWORD PTR _uvec_threat_to_target$[ebp+8], xmm0

; 3800 : 
; 3801 : 				length = get_3d_vector_magnitude (&uvec_threat_to_target);

  00347	8d 45 c4	 lea	 eax, DWORD PTR _uvec_threat_to_target$[ebp]
  0034a	50		 push	 eax
  0034b	e8 00 00 00 00	 call	 ?get_3d_vector_magnitude@@YGMPBUVEC3D@@@Z ; get_3d_vector_magnitude
  00350	d9 5d dc	 fstp	 DWORD PTR _length$[ebp]

; 3802 : 
; 3803 : 				if (length > 1.0)

  00353	f3 0f 5a 45 dc	 cvtss2sd xmm0, DWORD PTR _length$[ebp]
  00358	66 0f 2f 05 00
	00 00 00	 comisd	 xmm0, QWORD PTR __real@3ff0000000000000
  00360	0f 86 99 00 00
	00		 jbe	 $LN7@get_first_

; 3804 : 				{
; 3805 : 					normalise_3d_vector_given_magnitude (&uvec_threat_to_target, length);

  00366	51		 push	 ecx
  00367	f3 0f 10 45 dc	 movss	 xmm0, DWORD PTR _length$[ebp]
  0036c	f3 0f 11 04 24	 movss	 DWORD PTR [esp], xmm0
  00371	8d 45 c4	 lea	 eax, DWORD PTR _uvec_threat_to_target$[ebp]
  00374	50		 push	 eax
  00375	e8 00 00 00 00	 call	 ?normalise_3d_vector_given_magnitude@@YGXPAUVEC3D@@M@Z ; normalise_3d_vector_given_magnitude

; 3806 : 
; 3807 : 					attitude = get_local_entity_attitude_matrix_ptr (threat);

  0037a	83 7d f8 00	 cmp	 DWORD PTR _threat$[ebp], 0
  0037e	74 0d		 je	 SHORT $LN29@get_first_
  00380	8b 45 f8	 mov	 eax, DWORD PTR _threat$[ebp]
  00383	8b 08		 mov	 ecx, DWORD PTR [eax]
  00385	89 8d 78 ff ff
	ff		 mov	 DWORD PTR tv215[ebp], ecx
  0038b	eb 24		 jmp	 SHORT $LN30@get_first_
$LN29@get_first_:
  0038d	8b 15 00 00 00
	00		 mov	 edx, DWORD PTR ?__LINE__Var@?0??get_first_missile_threat@@YGPAUENTITY@@XZ@4JA
  00393	83 c2 43	 add	 edx, 67			; 00000043H
  00396	52		 push	 edx
  00397	68 00 00 00 00	 push	 OFFSET ??_C@_0EG@KKKJIDAO@c?3?2users?2nhv90?2projects?2eech?2ap@
  0039c	a1 00 00 00 00	 mov	 eax, DWORD PTR ?null_entity_pointer_message@@3PBDB ; null_entity_pointer_message
  003a1	50		 push	 eax
  003a2	e8 00 00 00 00	 call	 ?process_assert@@YGXPBD0H@Z ; process_assert
  003a7	c7 85 78 ff ff
	ff 00 00 00 00	 mov	 DWORD PTR tv215[ebp], 0
$LN30@get_first_:
  003b1	8b 4d f8	 mov	 ecx, DWORD PTR _threat$[ebp]
  003b4	51		 push	 ecx
  003b5	8b 95 78 ff ff
	ff		 mov	 edx, DWORD PTR tv215[ebp]
  003bb	8b 04 95 00 00
	00 00		 mov	 eax, DWORD PTR ?fn_get_local_entity_attitude_matrix_ptr@@3PAP6GPAY122MPAUENTITY@@@ZA[edx*4]
  003c2	ff d0		 call	 eax
  003c4	89 45 c0	 mov	 DWORD PTR _attitude$[ebp], eax

; 3808 : 
; 3809 : 					cos_error = get_3d_unit_vector_dot_product ((vec3d *) &((*attitude) [2][0]), &uvec_threat_to_target);

  003c7	8d 45 c4	 lea	 eax, DWORD PTR _uvec_threat_to_target$[ebp]
  003ca	50		 push	 eax
  003cb	b9 0c 00 00 00	 mov	 ecx, 12			; 0000000cH
  003d0	d1 e1		 shl	 ecx, 1
  003d2	03 4d c0	 add	 ecx, DWORD PTR _attitude$[ebp]
  003d5	ba 04 00 00 00	 mov	 edx, 4
  003da	6b c2 00	 imul	 eax, edx, 0
  003dd	03 c8		 add	 ecx, eax
  003df	51		 push	 ecx
  003e0	e8 00 00 00 00	 call	 ?get_3d_unit_vector_dot_product@@YGMPBUVEC3D@@0@Z ; get_3d_unit_vector_dot_product
  003e5	d9 5d d8	 fstp	 DWORD PTR _cos_error$[ebp]

; 3810 : 
; 3811 : 					if (cos_error < 0.0)

  003e8	f3 0f 5a 45 d8	 cvtss2sd xmm0, DWORD PTR _cos_error$[ebp]
  003ed	0f 57 c9	 xorps	 xmm1, xmm1
  003f0	66 0f 2f c8	 comisd	 xmm1, xmm0
  003f4	76 07		 jbe	 SHORT $LN9@get_first_

; 3812 : 					{
; 3813 : 						overshot = TRUE;

  003f6	c7 45 f0 01 00
	00 00		 mov	 DWORD PTR _overshot$[ebp], 1
$LN9@get_first_:

; 3814 : 					}
; 3815 : 				}
; 3816 : 				else

  003fd	eb 07		 jmp	 SHORT $LN8@get_first_
$LN7@get_first_:

; 3817 : 				{
; 3818 : 					overshot = TRUE;

  003ff	c7 45 f0 01 00
	00 00		 mov	 DWORD PTR _overshot$[ebp], 1
$LN8@get_first_:

; 3819 : 				}
; 3820 : 			}
; 3821 : 
; 3822 : 			if (!overshot)

  00406	83 7d f0 00	 cmp	 DWORD PTR _overshot$[ebp], 0
  0040a	75 1b		 jne	 SHORT $LN11@get_first_

; 3823 : 			{
; 3824 : 				if (time_to_impact < closest_missile_time_to_impact)

  0040c	f3 0f 10 45 e0	 movss	 xmm0, DWORD PTR _closest_missile_time_to_impact$[ebp]
  00411	0f 2f 45 e4	 comiss	 xmm0, DWORD PTR _time_to_impact$[ebp]
  00415	76 10		 jbe	 SHORT $LN11@get_first_

; 3825 : 				{
; 3826 : 					closest_missile = threat;

  00417	8b 45 f8	 mov	 eax, DWORD PTR _threat$[ebp]
  0041a	89 45 f4	 mov	 DWORD PTR _closest_missile$[ebp], eax

; 3827 : 
; 3828 : 					closest_missile_time_to_impact = time_to_impact;

  0041d	f3 0f 10 45 e4	 movss	 xmm0, DWORD PTR _time_to_impact$[ebp]
  00422	f3 0f 11 45 e0	 movss	 DWORD PTR _closest_missile_time_to_impact$[ebp], xmm0
$LN11@get_first_:

; 3829 : 				}
; 3830 : 			}
; 3831 : 		}
; 3832 : 
; 3833 : 		threat = get_local_entity_child_succ (threat, LIST_TYPE_TARGET);

  00427	83 7d f8 00	 cmp	 DWORD PTR _threat$[ebp], 0
  0042b	74 0d		 je	 SHORT $LN31@get_first_
  0042d	8b 45 f8	 mov	 eax, DWORD PTR _threat$[ebp]
  00430	8b 08		 mov	 ecx, DWORD PTR [eax]
  00432	89 8d 78 ff ff
	ff		 mov	 DWORD PTR tv237[ebp], ecx
  00438	eb 24		 jmp	 SHORT $LN32@get_first_
$LN31@get_first_:
  0043a	8b 15 00 00 00
	00		 mov	 edx, DWORD PTR ?__LINE__Var@?0??get_first_missile_threat@@YGPAUENTITY@@XZ@4JA
  00440	83 c2 5d	 add	 edx, 93			; 0000005dH
  00443	52		 push	 edx
  00444	68 00 00 00 00	 push	 OFFSET ??_C@_0EG@KKKJIDAO@c?3?2users?2nhv90?2projects?2eech?2ap@
  00449	a1 00 00 00 00	 mov	 eax, DWORD PTR ?null_entity_pointer_message@@3PBDB ; null_entity_pointer_message
  0044e	50		 push	 eax
  0044f	e8 00 00 00 00	 call	 ?process_assert@@YGXPBD0H@Z ; process_assert
  00454	c7 85 78 ff ff
	ff 00 00 00 00	 mov	 DWORD PTR tv237[ebp], 0
$LN32@get_first_:
  0045e	b9 01 00 00 00	 mov	 ecx, 1
  00463	85 c9		 test	 ecx, ecx
  00465	74 0c		 je	 SHORT $LN33@get_first_
  00467	c7 85 74 ff ff
	ff 26 00 00 00	 mov	 DWORD PTR tv245[ebp], 38 ; 00000026H
  00471	eb 24		 jmp	 SHORT $LN34@get_first_
$LN33@get_first_:
  00473	8b 15 00 00 00
	00		 mov	 edx, DWORD PTR ?__LINE__Var@?0??get_first_missile_threat@@YGPAUENTITY@@XZ@4JA
  00479	83 c2 5d	 add	 edx, 93			; 0000005dH
  0047c	52		 push	 edx
  0047d	68 00 00 00 00	 push	 OFFSET ??_C@_0EG@KKKJIDAO@c?3?2users?2nhv90?2projects?2eech?2ap@
  00482	a1 00 00 00 00	 mov	 eax, DWORD PTR ?overload_invalid_list_type_message@@3PBDB ; overload_invalid_list_type_message
  00487	50		 push	 eax
  00488	e8 00 00 00 00	 call	 ?process_assert@@YGXPBD0H@Z ; process_assert
  0048d	c7 85 74 ff ff
	ff 00 00 00 00	 mov	 DWORD PTR tv245[ebp], 0
$LN34@get_first_:
  00497	6a 26		 push	 38			; 00000026H
  00499	8b 4d f8	 mov	 ecx, DWORD PTR _threat$[ebp]
  0049c	51		 push	 ecx
  0049d	69 95 78 ff ff
	ff b4 00 00 00	 imul	 edx, DWORD PTR tv237[ebp], 180
  004a7	8b 85 74 ff ff
	ff		 mov	 eax, DWORD PTR tv245[ebp]
  004ad	8b 8c 82 00 00
	00 00		 mov	 ecx, DWORD PTR ?fn_get_local_entity_child_succ@@3PAY0CN@P6GPAUENTITY@@PAU1@W4LIST_TYPES@@@ZA[edx+eax*4]
  004b4	ff d1		 call	 ecx
  004b6	89 45 f8	 mov	 DWORD PTR _threat$[ebp], eax

; 3834 : 	}

  004b9	e9 b1 fc ff ff	 jmp	 $LN2@get_first_
$LN3@get_first_:

; 3835 : 
; 3836 : 	return (closest_missile);

  004be	8b 45 f4	 mov	 eax, DWORD PTR _closest_missile$[ebp]

; 3837 : }

  004c1	5f		 pop	 edi
  004c2	5e		 pop	 esi
  004c3	5b		 pop	 ebx
  004c4	8b e5		 mov	 esp, ebp
  004c6	5d		 pop	 ebp
  004c7	c3		 ret	 0
?get_first_missile_threat@@YGPAUENTITY@@XZ ENDP		; get_first_missile_threat
_TEXT	ENDS
; Function compile flags: /Odtp /ZI
; File c:\users\nhv90\projects\eech\aphavoc\source\gunships\views\vm_vckpt.c
;	COMDAT ?get_valid_missile_threat@@YGHPAUENTITY@@@Z
_TEXT	SEGMENT
tv81 = -72						; size = 4
tv74 = -68						; size = 4
_threat$ = 8						; size = 4
?get_valid_missile_threat@@YGHPAUENTITY@@@Z PROC	; get_valid_missile_threat, COMDAT

; 3724 : {

  00000	55		 push	 ebp
  00001	8b ec		 mov	 ebp, esp
  00003	83 ec 48	 sub	 esp, 72			; 00000048H
  00006	53		 push	 ebx
  00007	56		 push	 esi
  00008	57		 push	 edi

; 3725 : 	ASSERT (threat);

  00009	83 7d 08 00	 cmp	 DWORD PTR _threat$[ebp], 0
  0000d	75 18		 jne	 SHORT $LN2@get_valid_
  0000f	a1 00 00 00 00	 mov	 eax, DWORD PTR ?__LINE__Var@?0??get_valid_missile_threat@@YGHPAUENTITY@@@Z@4JA
  00014	83 c0 01	 add	 eax, 1
  00017	50		 push	 eax
  00018	68 00 00 00 00	 push	 OFFSET ??_C@_0EG@KKKJIDAO@c?3?2users?2nhv90?2projects?2eech?2ap@
  0001d	68 00 00 00 00	 push	 OFFSET ??_C@_06BDLPPAPF@threat@
  00022	e8 00 00 00 00	 call	 ?process_assert@@YGXPBD0H@Z ; process_assert
$LN2@get_valid_:

; 3726 : 
; 3727 : 	if (get_local_entity_int_value (threat, INT_TYPE_VIEWABLE_WEAPON))

  00027	83 7d 08 00	 cmp	 DWORD PTR _threat$[ebp], 0
  0002b	74 0a		 je	 SHORT $LN5@get_valid_
  0002d	8b 45 08	 mov	 eax, DWORD PTR _threat$[ebp]
  00030	8b 08		 mov	 ecx, DWORD PTR [eax]
  00032	89 4d bc	 mov	 DWORD PTR tv74[ebp], ecx
  00035	eb 1d		 jmp	 SHORT $LN6@get_valid_
$LN5@get_valid_:
  00037	68 8f 0e 00 00	 push	 3727			; 00000e8fH
  0003c	68 00 00 00 00	 push	 OFFSET ??_C@_0EG@KKKJIDAO@c?3?2users?2nhv90?2projects?2eech?2ap@
  00041	8b 15 00 00 00
	00		 mov	 edx, DWORD PTR ?null_entity_pointer_message@@3PBDB ; null_entity_pointer_message
  00047	52		 push	 edx
  00048	e8 00 00 00 00	 call	 ?process_assert@@YGXPBD0H@Z ; process_assert
  0004d	c7 45 bc 00 00
	00 00		 mov	 DWORD PTR tv74[ebp], 0
$LN6@get_valid_:
  00054	b8 01 00 00 00	 mov	 eax, 1
  00059	85 c0		 test	 eax, eax
  0005b	74 09		 je	 SHORT $LN7@get_valid_
  0005d	c7 45 b8 f9 00
	00 00		 mov	 DWORD PTR tv81[ebp], 249 ; 000000f9H
  00064	eb 1d		 jmp	 SHORT $LN8@get_valid_
$LN7@get_valid_:
  00066	68 8f 0e 00 00	 push	 3727			; 00000e8fH
  0006b	68 00 00 00 00	 push	 OFFSET ??_C@_0EG@KKKJIDAO@c?3?2users?2nhv90?2projects?2eech?2ap@
  00070	8b 0d 00 00 00
	00		 mov	 ecx, DWORD PTR ?overload_invalid_int_type_message@@3PBDB ; overload_invalid_int_type_message
  00076	51		 push	 ecx
  00077	e8 00 00 00 00	 call	 ?process_assert@@YGXPBD0H@Z ; process_assert
  0007c	c7 45 b8 00 00
	00 00		 mov	 DWORD PTR tv81[ebp], 0
$LN8@get_valid_:
  00083	68 f9 00 00 00	 push	 249			; 000000f9H
  00088	8b 55 08	 mov	 edx, DWORD PTR _threat$[ebp]
  0008b	52		 push	 edx
  0008c	69 45 bc 5c 04
	00 00		 imul	 eax, DWORD PTR tv74[ebp], 1116
  00093	8b 4d b8	 mov	 ecx, DWORD PTR tv81[ebp]
  00096	8b 94 88 00 00
	00 00		 mov	 edx, DWORD PTR ?fn_get_local_entity_int_value@@3PAY0BBH@P6GHPAUENTITY@@W4INT_TYPES@@@ZA[eax+ecx*4]
  0009d	ff d2		 call	 edx
  0009f	85 c0		 test	 eax, eax
  000a1	74 07		 je	 SHORT $LN3@get_valid_

; 3728 : 	{
; 3729 : 		return (TRUE);

  000a3	b8 01 00 00 00	 mov	 eax, 1
  000a8	eb 02		 jmp	 SHORT $LN1@get_valid_
$LN3@get_valid_:

; 3730 : 	}
; 3731 : 
; 3732 : 	return (FALSE);

  000aa	33 c0		 xor	 eax, eax
$LN1@get_valid_:

; 3733 : }

  000ac	5f		 pop	 edi
  000ad	5e		 pop	 esi
  000ae	5b		 pop	 ebx
  000af	8b e5		 mov	 esp, ebp
  000b1	5d		 pop	 ebp
  000b2	c2 04 00	 ret	 4
?get_valid_missile_threat@@YGHPAUENTITY@@@Z ENDP	; get_valid_missile_threat
_TEXT	ENDS
; Function compile flags: /Odtp /ZI
; File c:\users\nhv90\projects\eech\aphavoc\source\gunships\views\vm_vckpt.c
;	COMDAT ?get_next_ground_threat@@YGPAUENTITY@@XZ
_TEXT	SEGMENT
tv247 = -84						; size = 4
tv222 = -84						; size = 4
tv201 = -84						; size = 4
tv176 = -84						; size = 4
tv154 = -84						; size = 4
tv135 = -84						; size = 4
tv83 = -84						; size = 4
tv239 = -80						; size = 4
tv214 = -80						; size = 4
tv193 = -80						; size = 4
tv168 = -80						; size = 4
tv147 = -80						; size = 4
tv95 = -80						; size = 4
tv75 = -80						; size = 4
_source_side$ = -12					; size = 4
_threat$ = -8						; size = 4
_source$ = -4						; size = 4
?get_next_ground_threat@@YGPAUENTITY@@XZ PROC		; get_next_ground_threat, COMDAT

; 3650 : {

  00000	55		 push	 ebp
  00001	8b ec		 mov	 ebp, esp
  00003	83 ec 54	 sub	 esp, 84			; 00000054H
  00006	53		 push	 ebx
  00007	56		 push	 esi
  00008	57		 push	 edi

; 3651 : 	entity
; 3652 : 		*source,
; 3653 : 		*threat;
; 3654 : 
; 3655 : 	entity_sides
; 3656 : 		source_side;
; 3657 : 
; 3658 : 	source = get_gunship_entity ();

  00009	a1 00 00 00 00	 mov	 eax, DWORD PTR ?gunship_entity@@3PAUENTITY@@A ; gunship_entity
  0000e	89 45 fc	 mov	 DWORD PTR _source$[ebp], eax

; 3659 : 
; 3660 : 	ASSERT (source);

  00011	83 7d fc 00	 cmp	 DWORD PTR _source$[ebp], 0
  00015	75 18		 jne	 SHORT $LN6@get_next_g
  00017	a1 00 00 00 00	 mov	 eax, DWORD PTR ?__LINE__Var@?0??get_next_ground_threat@@YGPAUENTITY@@XZ@4JA
  0001c	83 c0 0a	 add	 eax, 10			; 0000000aH
  0001f	50		 push	 eax
  00020	68 00 00 00 00	 push	 OFFSET ??_C@_0EG@KKKJIDAO@c?3?2users?2nhv90?2projects?2eech?2ap@
  00025	68 00 00 00 00	 push	 OFFSET ??_C@_06OEKOLKIL@source@
  0002a	e8 00 00 00 00	 call	 ?process_assert@@YGXPBD0H@Z ; process_assert
$LN6@get_next_g:

; 3661 : 
; 3662 : 	source_side = (entity_sides) get_local_entity_int_value (source, INT_TYPE_SIDE);

  0002f	83 7d fc 00	 cmp	 DWORD PTR _source$[ebp], 0
  00033	74 0a		 je	 SHORT $LN14@get_next_g
  00035	8b 45 fc	 mov	 eax, DWORD PTR _source$[ebp]
  00038	8b 08		 mov	 ecx, DWORD PTR [eax]
  0003a	89 4d b0	 mov	 DWORD PTR tv75[ebp], ecx
  0003d	eb 21		 jmp	 SHORT $LN15@get_next_g
$LN14@get_next_g:
  0003f	8b 15 00 00 00
	00		 mov	 edx, DWORD PTR ?__LINE__Var@?0??get_next_ground_threat@@YGPAUENTITY@@XZ@4JA
  00045	83 c2 0c	 add	 edx, 12			; 0000000cH
  00048	52		 push	 edx
  00049	68 00 00 00 00	 push	 OFFSET ??_C@_0EG@KKKJIDAO@c?3?2users?2nhv90?2projects?2eech?2ap@
  0004e	a1 00 00 00 00	 mov	 eax, DWORD PTR ?null_entity_pointer_message@@3PBDB ; null_entity_pointer_message
  00053	50		 push	 eax
  00054	e8 00 00 00 00	 call	 ?process_assert@@YGXPBD0H@Z ; process_assert
  00059	c7 45 b0 00 00
	00 00		 mov	 DWORD PTR tv75[ebp], 0
$LN15@get_next_g:
  00060	b9 01 00 00 00	 mov	 ecx, 1
  00065	85 c9		 test	 ecx, ecx
  00067	74 09		 je	 SHORT $LN16@get_next_g
  00069	c7 45 ac bb 00
	00 00		 mov	 DWORD PTR tv83[ebp], 187 ; 000000bbH
  00070	eb 21		 jmp	 SHORT $LN17@get_next_g
$LN16@get_next_g:
  00072	8b 15 00 00 00
	00		 mov	 edx, DWORD PTR ?__LINE__Var@?0??get_next_ground_threat@@YGPAUENTITY@@XZ@4JA
  00078	83 c2 0c	 add	 edx, 12			; 0000000cH
  0007b	52		 push	 edx
  0007c	68 00 00 00 00	 push	 OFFSET ??_C@_0EG@KKKJIDAO@c?3?2users?2nhv90?2projects?2eech?2ap@
  00081	a1 00 00 00 00	 mov	 eax, DWORD PTR ?overload_invalid_int_type_message@@3PBDB ; overload_invalid_int_type_message
  00086	50		 push	 eax
  00087	e8 00 00 00 00	 call	 ?process_assert@@YGXPBD0H@Z ; process_assert
  0008c	c7 45 ac 00 00
	00 00		 mov	 DWORD PTR tv83[ebp], 0
$LN17@get_next_g:
  00093	68 bb 00 00 00	 push	 187			; 000000bbH
  00098	8b 4d fc	 mov	 ecx, DWORD PTR _source$[ebp]
  0009b	51		 push	 ecx
  0009c	69 55 b0 5c 04
	00 00		 imul	 edx, DWORD PTR tv75[ebp], 1116
  000a3	8b 45 ac	 mov	 eax, DWORD PTR tv83[ebp]
  000a6	8b 8c 82 00 00
	00 00		 mov	 ecx, DWORD PTR ?fn_get_local_entity_int_value@@3PAY0BBH@P6GHPAUENTITY@@W4INT_TYPES@@@ZA[edx+eax*4]
  000ad	ff d1		 call	 ecx
  000af	89 45 f4	 mov	 DWORD PTR _source_side$[ebp], eax

; 3663 : 
; 3664 : 	threat = get_local_entity_first_child (source, LIST_TYPE_PADLOCK);

  000b2	83 7d fc 00	 cmp	 DWORD PTR _source$[ebp], 0
  000b6	74 0a		 je	 SHORT $LN18@get_next_g
  000b8	8b 45 fc	 mov	 eax, DWORD PTR _source$[ebp]
  000bb	8b 08		 mov	 ecx, DWORD PTR [eax]
  000bd	89 4d b0	 mov	 DWORD PTR tv95[ebp], ecx
  000c0	eb 21		 jmp	 SHORT $LN19@get_next_g
$LN18@get_next_g:
  000c2	8b 15 00 00 00
	00		 mov	 edx, DWORD PTR ?__LINE__Var@?0??get_next_ground_threat@@YGPAUENTITY@@XZ@4JA
  000c8	83 c2 0e	 add	 edx, 14			; 0000000eH
  000cb	52		 push	 edx
  000cc	68 00 00 00 00	 push	 OFFSET ??_C@_0EG@KKKJIDAO@c?3?2users?2nhv90?2projects?2eech?2ap@
  000d1	a1 00 00 00 00	 mov	 eax, DWORD PTR ?null_entity_pointer_message@@3PBDB ; null_entity_pointer_message
  000d6	50		 push	 eax
  000d7	e8 00 00 00 00	 call	 ?process_assert@@YGXPBD0H@Z ; process_assert
  000dc	c7 45 b0 00 00
	00 00		 mov	 DWORD PTR tv95[ebp], 0
$LN19@get_next_g:
  000e3	b9 01 00 00 00	 mov	 ecx, 1
  000e8	85 c9		 test	 ecx, ecx
  000ea	74 09		 je	 SHORT $LN20@get_next_g
  000ec	c7 45 ac 1b 00
	00 00		 mov	 DWORD PTR tv135[ebp], 27 ; 0000001bH
  000f3	eb 21		 jmp	 SHORT $LN21@get_next_g
$LN20@get_next_g:
  000f5	8b 15 00 00 00
	00		 mov	 edx, DWORD PTR ?__LINE__Var@?0??get_next_ground_threat@@YGPAUENTITY@@XZ@4JA
  000fb	83 c2 0e	 add	 edx, 14			; 0000000eH
  000fe	52		 push	 edx
  000ff	68 00 00 00 00	 push	 OFFSET ??_C@_0EG@KKKJIDAO@c?3?2users?2nhv90?2projects?2eech?2ap@
  00104	a1 00 00 00 00	 mov	 eax, DWORD PTR ?overload_invalid_list_type_message@@3PBDB ; overload_invalid_list_type_message
  00109	50		 push	 eax
  0010a	e8 00 00 00 00	 call	 ?process_assert@@YGXPBD0H@Z ; process_assert
  0010f	c7 45 ac 00 00
	00 00		 mov	 DWORD PTR tv135[ebp], 0
$LN21@get_next_g:
  00116	6a 1b		 push	 27			; 0000001bH
  00118	8b 4d fc	 mov	 ecx, DWORD PTR _source$[ebp]
  0011b	51		 push	 ecx
  0011c	69 55 b0 b4 00
	00 00		 imul	 edx, DWORD PTR tv95[ebp], 180
  00123	8b 45 ac	 mov	 eax, DWORD PTR tv135[ebp]
  00126	8b 8c 82 00 00
	00 00		 mov	 ecx, DWORD PTR ?fn_get_local_entity_first_child@@3PAY0CN@P6GPAUENTITY@@PAU1@W4LIST_TYPES@@@ZA[edx+eax*4]
  0012d	ff d1		 call	 ecx
  0012f	89 45 f8	 mov	 DWORD PTR _threat$[ebp], eax

; 3665 : 
; 3666 : 	//
; 3667 : 	// check threat is still a threat
; 3668 : 	//
; 3669 : 
; 3670 : 	if (threat)

  00132	83 7d f8 00	 cmp	 DWORD PTR _threat$[ebp], 0
  00136	0f 84 81 00 00
	00		 je	 $LN7@get_next_g

; 3671 : 	{
; 3672 : 		if (get_local_entity_parent (threat, LIST_TYPE_TARGET) != source)

  0013c	83 7d f8 00	 cmp	 DWORD PTR _threat$[ebp], 0
  00140	74 0a		 je	 SHORT $LN22@get_next_g
  00142	8b 45 f8	 mov	 eax, DWORD PTR _threat$[ebp]
  00145	8b 08		 mov	 ecx, DWORD PTR [eax]
  00147	89 4d b0	 mov	 DWORD PTR tv147[ebp], ecx
  0014a	eb 1d		 jmp	 SHORT $LN23@get_next_g
$LN22@get_next_g:
  0014c	68 58 0e 00 00	 push	 3672			; 00000e58H
  00151	68 00 00 00 00	 push	 OFFSET ??_C@_0EG@KKKJIDAO@c?3?2users?2nhv90?2projects?2eech?2ap@
  00156	8b 15 00 00 00
	00		 mov	 edx, DWORD PTR ?null_entity_pointer_message@@3PBDB ; null_entity_pointer_message
  0015c	52		 push	 edx
  0015d	e8 00 00 00 00	 call	 ?process_assert@@YGXPBD0H@Z ; process_assert
  00162	c7 45 b0 00 00
	00 00		 mov	 DWORD PTR tv147[ebp], 0
$LN23@get_next_g:
  00169	b8 01 00 00 00	 mov	 eax, 1
  0016e	85 c0		 test	 eax, eax
  00170	74 09		 je	 SHORT $LN24@get_next_g
  00172	c7 45 ac 26 00
	00 00		 mov	 DWORD PTR tv154[ebp], 38 ; 00000026H
  00179	eb 1d		 jmp	 SHORT $LN25@get_next_g
$LN24@get_next_g:
  0017b	68 58 0e 00 00	 push	 3672			; 00000e58H
  00180	68 00 00 00 00	 push	 OFFSET ??_C@_0EG@KKKJIDAO@c?3?2users?2nhv90?2projects?2eech?2ap@
  00185	8b 0d 00 00 00
	00		 mov	 ecx, DWORD PTR ?overload_invalid_list_type_message@@3PBDB ; overload_invalid_list_type_message
  0018b	51		 push	 ecx
  0018c	e8 00 00 00 00	 call	 ?process_assert@@YGXPBD0H@Z ; process_assert
  00191	c7 45 ac 00 00
	00 00		 mov	 DWORD PTR tv154[ebp], 0
$LN25@get_next_g:
  00198	6a 26		 push	 38			; 00000026H
  0019a	8b 55 f8	 mov	 edx, DWORD PTR _threat$[ebp]
  0019d	52		 push	 edx
  0019e	69 45 b0 b4 00
	00 00		 imul	 eax, DWORD PTR tv147[ebp], 180
  001a5	8b 4d ac	 mov	 ecx, DWORD PTR tv154[ebp]
  001a8	8b 94 88 00 00
	00 00		 mov	 edx, DWORD PTR ?fn_get_local_entity_parent@@3PAY0CN@P6GPAUENTITY@@PAU1@W4LIST_TYPES@@@ZA[eax+ecx*4]
  001af	ff d2		 call	 edx
  001b1	3b 45 fc	 cmp	 eax, DWORD PTR _source$[ebp]
  001b4	74 07		 je	 SHORT $LN7@get_next_g

; 3673 : 		{
; 3674 : 			threat = NULL;

  001b6	c7 45 f8 00 00
	00 00		 mov	 DWORD PTR _threat$[ebp], 0
$LN7@get_next_g:

; 3675 : 		}
; 3676 : 	}
; 3677 : 
; 3678 : 	//
; 3679 : 	// find next threat in list
; 3680 : 	//
; 3681 : 
; 3682 : 	if (threat)

  001bd	83 7d f8 00	 cmp	 DWORD PTR _threat$[ebp], 0
  001c1	0f 84 25 01 00
	00		 je	 $LN9@get_next_g

; 3683 : 	{
; 3684 : 		threat = get_local_entity_child_succ (threat, LIST_TYPE_TARGET);

  001c7	83 7d f8 00	 cmp	 DWORD PTR _threat$[ebp], 0
  001cb	74 0a		 je	 SHORT $LN26@get_next_g
  001cd	8b 45 f8	 mov	 eax, DWORD PTR _threat$[ebp]
  001d0	8b 08		 mov	 ecx, DWORD PTR [eax]
  001d2	89 4d b0	 mov	 DWORD PTR tv168[ebp], ecx
  001d5	eb 21		 jmp	 SHORT $LN27@get_next_g
$LN26@get_next_g:
  001d7	8b 15 00 00 00
	00		 mov	 edx, DWORD PTR ?__LINE__Var@?0??get_next_ground_threat@@YGPAUENTITY@@XZ@4JA
  001dd	83 c2 22	 add	 edx, 34			; 00000022H
  001e0	52		 push	 edx
  001e1	68 00 00 00 00	 push	 OFFSET ??_C@_0EG@KKKJIDAO@c?3?2users?2nhv90?2projects?2eech?2ap@
  001e6	a1 00 00 00 00	 mov	 eax, DWORD PTR ?null_entity_pointer_message@@3PBDB ; null_entity_pointer_message
  001eb	50		 push	 eax
  001ec	e8 00 00 00 00	 call	 ?process_assert@@YGXPBD0H@Z ; process_assert
  001f1	c7 45 b0 00 00
	00 00		 mov	 DWORD PTR tv168[ebp], 0
$LN27@get_next_g:
  001f8	b9 01 00 00 00	 mov	 ecx, 1
  001fd	85 c9		 test	 ecx, ecx
  001ff	74 09		 je	 SHORT $LN28@get_next_g
  00201	c7 45 ac 26 00
	00 00		 mov	 DWORD PTR tv176[ebp], 38 ; 00000026H
  00208	eb 21		 jmp	 SHORT $LN29@get_next_g
$LN28@get_next_g:
  0020a	8b 15 00 00 00
	00		 mov	 edx, DWORD PTR ?__LINE__Var@?0??get_next_ground_threat@@YGPAUENTITY@@XZ@4JA
  00210	83 c2 22	 add	 edx, 34			; 00000022H
  00213	52		 push	 edx
  00214	68 00 00 00 00	 push	 OFFSET ??_C@_0EG@KKKJIDAO@c?3?2users?2nhv90?2projects?2eech?2ap@
  00219	a1 00 00 00 00	 mov	 eax, DWORD PTR ?overload_invalid_list_type_message@@3PBDB ; overload_invalid_list_type_message
  0021e	50		 push	 eax
  0021f	e8 00 00 00 00	 call	 ?process_assert@@YGXPBD0H@Z ; process_assert
  00224	c7 45 ac 00 00
	00 00		 mov	 DWORD PTR tv176[ebp], 0
$LN29@get_next_g:
  0022b	6a 26		 push	 38			; 00000026H
  0022d	8b 4d f8	 mov	 ecx, DWORD PTR _threat$[ebp]
  00230	51		 push	 ecx
  00231	69 55 b0 b4 00
	00 00		 imul	 edx, DWORD PTR tv168[ebp], 180
  00238	8b 45 ac	 mov	 eax, DWORD PTR tv176[ebp]
  0023b	8b 8c 82 00 00
	00 00		 mov	 ecx, DWORD PTR ?fn_get_local_entity_child_succ@@3PAY0CN@P6GPAUENTITY@@PAU1@W4LIST_TYPES@@@ZA[edx+eax*4]
  00242	ff d1		 call	 ecx
  00244	89 45 f8	 mov	 DWORD PTR _threat$[ebp], eax
$LN2@get_next_g:

; 3685 : 
; 3686 : 		while (threat)

  00247	83 7d f8 00	 cmp	 DWORD PTR _threat$[ebp], 0
  0024b	0f 84 9b 00 00
	00		 je	 $LN9@get_next_g

; 3687 : 		{
; 3688 : 			if (get_valid_ground_threat (threat, source_side))

  00251	8b 45 f4	 mov	 eax, DWORD PTR _source_side$[ebp]
  00254	50		 push	 eax
  00255	8b 4d f8	 mov	 ecx, DWORD PTR _threat$[ebp]
  00258	51		 push	 ecx
  00259	e8 00 00 00 00	 call	 ?get_valid_ground_threat@@YGHPAUENTITY@@W4ENTITY_SIDES@@@Z ; get_valid_ground_threat
  0025e	85 c0		 test	 eax, eax
  00260	74 05		 je	 SHORT $LN10@get_next_g

; 3689 : 			{
; 3690 : 				break;

  00262	e9 85 00 00 00	 jmp	 $LN9@get_next_g
$LN10@get_next_g:

; 3691 : 			}
; 3692 : 
; 3693 : 			threat = get_local_entity_child_succ (threat, LIST_TYPE_TARGET);

  00267	83 7d f8 00	 cmp	 DWORD PTR _threat$[ebp], 0
  0026b	74 0a		 je	 SHORT $LN30@get_next_g
  0026d	8b 45 f8	 mov	 eax, DWORD PTR _threat$[ebp]
  00270	8b 08		 mov	 ecx, DWORD PTR [eax]
  00272	89 4d b0	 mov	 DWORD PTR tv193[ebp], ecx
  00275	eb 21		 jmp	 SHORT $LN31@get_next_g
$LN30@get_next_g:
  00277	8b 15 00 00 00
	00		 mov	 edx, DWORD PTR ?__LINE__Var@?0??get_next_ground_threat@@YGPAUENTITY@@XZ@4JA
  0027d	83 c2 2b	 add	 edx, 43			; 0000002bH
  00280	52		 push	 edx
  00281	68 00 00 00 00	 push	 OFFSET ??_C@_0EG@KKKJIDAO@c?3?2users?2nhv90?2projects?2eech?2ap@
  00286	a1 00 00 00 00	 mov	 eax, DWORD PTR ?null_entity_pointer_message@@3PBDB ; null_entity_pointer_message
  0028b	50		 push	 eax
  0028c	e8 00 00 00 00	 call	 ?process_assert@@YGXPBD0H@Z ; process_assert
  00291	c7 45 b0 00 00
	00 00		 mov	 DWORD PTR tv193[ebp], 0
$LN31@get_next_g:
  00298	b9 01 00 00 00	 mov	 ecx, 1
  0029d	85 c9		 test	 ecx, ecx
  0029f	74 09		 je	 SHORT $LN32@get_next_g
  002a1	c7 45 ac 26 00
	00 00		 mov	 DWORD PTR tv201[ebp], 38 ; 00000026H
  002a8	eb 21		 jmp	 SHORT $LN33@get_next_g
$LN32@get_next_g:
  002aa	8b 15 00 00 00
	00		 mov	 edx, DWORD PTR ?__LINE__Var@?0??get_next_ground_threat@@YGPAUENTITY@@XZ@4JA
  002b0	83 c2 2b	 add	 edx, 43			; 0000002bH
  002b3	52		 push	 edx
  002b4	68 00 00 00 00	 push	 OFFSET ??_C@_0EG@KKKJIDAO@c?3?2users?2nhv90?2projects?2eech?2ap@
  002b9	a1 00 00 00 00	 mov	 eax, DWORD PTR ?overload_invalid_list_type_message@@3PBDB ; overload_invalid_list_type_message
  002be	50		 push	 eax
  002bf	e8 00 00 00 00	 call	 ?process_assert@@YGXPBD0H@Z ; process_assert
  002c4	c7 45 ac 00 00
	00 00		 mov	 DWORD PTR tv201[ebp], 0
$LN33@get_next_g:
  002cb	6a 26		 push	 38			; 00000026H
  002cd	8b 4d f8	 mov	 ecx, DWORD PTR _threat$[ebp]
  002d0	51		 push	 ecx
  002d1	69 55 b0 b4 00
	00 00		 imul	 edx, DWORD PTR tv193[ebp], 180
  002d8	8b 45 ac	 mov	 eax, DWORD PTR tv201[ebp]
  002db	8b 8c 82 00 00
	00 00		 mov	 ecx, DWORD PTR ?fn_get_local_entity_child_succ@@3PAY0CN@P6GPAUENTITY@@PAU1@W4LIST_TYPES@@@ZA[edx+eax*4]
  002e2	ff d1		 call	 ecx
  002e4	89 45 f8	 mov	 DWORD PTR _threat$[ebp], eax

; 3694 : 		}

  002e7	e9 5b ff ff ff	 jmp	 $LN2@get_next_g
$LN9@get_next_g:

; 3695 : 	}
; 3696 : 
; 3697 : 	//
; 3698 : 	// find first threat in list
; 3699 : 	//
; 3700 : 
; 3701 : 	if (!threat)

  002ec	83 7d f8 00	 cmp	 DWORD PTR _threat$[ebp], 0
  002f0	0f 85 25 01 00
	00		 jne	 $LN11@get_next_g

; 3702 : 	{
; 3703 : 		threat = get_local_entity_first_child (source, LIST_TYPE_TARGET);

  002f6	83 7d fc 00	 cmp	 DWORD PTR _source$[ebp], 0
  002fa	74 0a		 je	 SHORT $LN34@get_next_g
  002fc	8b 45 fc	 mov	 eax, DWORD PTR _source$[ebp]
  002ff	8b 08		 mov	 ecx, DWORD PTR [eax]
  00301	89 4d b0	 mov	 DWORD PTR tv214[ebp], ecx
  00304	eb 21		 jmp	 SHORT $LN35@get_next_g
$LN34@get_next_g:
  00306	8b 15 00 00 00
	00		 mov	 edx, DWORD PTR ?__LINE__Var@?0??get_next_ground_threat@@YGPAUENTITY@@XZ@4JA
  0030c	83 c2 35	 add	 edx, 53			; 00000035H
  0030f	52		 push	 edx
  00310	68 00 00 00 00	 push	 OFFSET ??_C@_0EG@KKKJIDAO@c?3?2users?2nhv90?2projects?2eech?2ap@
  00315	a1 00 00 00 00	 mov	 eax, DWORD PTR ?null_entity_pointer_message@@3PBDB ; null_entity_pointer_message
  0031a	50		 push	 eax
  0031b	e8 00 00 00 00	 call	 ?process_assert@@YGXPBD0H@Z ; process_assert
  00320	c7 45 b0 00 00
	00 00		 mov	 DWORD PTR tv214[ebp], 0
$LN35@get_next_g:
  00327	b9 01 00 00 00	 mov	 ecx, 1
  0032c	85 c9		 test	 ecx, ecx
  0032e	74 09		 je	 SHORT $LN36@get_next_g
  00330	c7 45 ac 26 00
	00 00		 mov	 DWORD PTR tv222[ebp], 38 ; 00000026H
  00337	eb 21		 jmp	 SHORT $LN37@get_next_g
$LN36@get_next_g:
  00339	8b 15 00 00 00
	00		 mov	 edx, DWORD PTR ?__LINE__Var@?0??get_next_ground_threat@@YGPAUENTITY@@XZ@4JA
  0033f	83 c2 35	 add	 edx, 53			; 00000035H
  00342	52		 push	 edx
  00343	68 00 00 00 00	 push	 OFFSET ??_C@_0EG@KKKJIDAO@c?3?2users?2nhv90?2projects?2eech?2ap@
  00348	a1 00 00 00 00	 mov	 eax, DWORD PTR ?overload_invalid_list_type_message@@3PBDB ; overload_invalid_list_type_message
  0034d	50		 push	 eax
  0034e	e8 00 00 00 00	 call	 ?process_assert@@YGXPBD0H@Z ; process_assert
  00353	c7 45 ac 00 00
	00 00		 mov	 DWORD PTR tv222[ebp], 0
$LN37@get_next_g:
  0035a	6a 26		 push	 38			; 00000026H
  0035c	8b 4d fc	 mov	 ecx, DWORD PTR _source$[ebp]
  0035f	51		 push	 ecx
  00360	69 55 b0 b4 00
	00 00		 imul	 edx, DWORD PTR tv214[ebp], 180
  00367	8b 45 ac	 mov	 eax, DWORD PTR tv222[ebp]
  0036a	8b 8c 82 00 00
	00 00		 mov	 ecx, DWORD PTR ?fn_get_local_entity_first_child@@3PAY0CN@P6GPAUENTITY@@PAU1@W4LIST_TYPES@@@ZA[edx+eax*4]
  00371	ff d1		 call	 ecx
  00373	89 45 f8	 mov	 DWORD PTR _threat$[ebp], eax
$LN4@get_next_g:

; 3704 : 
; 3705 : 		while (threat)

  00376	83 7d f8 00	 cmp	 DWORD PTR _threat$[ebp], 0
  0037a	0f 84 9b 00 00
	00		 je	 $LN11@get_next_g

; 3706 : 		{
; 3707 : 			if (get_valid_ground_threat (threat, source_side))

  00380	8b 45 f4	 mov	 eax, DWORD PTR _source_side$[ebp]
  00383	50		 push	 eax
  00384	8b 4d f8	 mov	 ecx, DWORD PTR _threat$[ebp]
  00387	51		 push	 ecx
  00388	e8 00 00 00 00	 call	 ?get_valid_ground_threat@@YGHPAUENTITY@@W4ENTITY_SIDES@@@Z ; get_valid_ground_threat
  0038d	85 c0		 test	 eax, eax
  0038f	74 05		 je	 SHORT $LN12@get_next_g

; 3708 : 			{
; 3709 : 				break;

  00391	e9 85 00 00 00	 jmp	 $LN11@get_next_g
$LN12@get_next_g:

; 3710 : 			}
; 3711 : 
; 3712 : 			threat = get_local_entity_child_succ (threat, LIST_TYPE_TARGET);

  00396	83 7d f8 00	 cmp	 DWORD PTR _threat$[ebp], 0
  0039a	74 0a		 je	 SHORT $LN38@get_next_g
  0039c	8b 45 f8	 mov	 eax, DWORD PTR _threat$[ebp]
  0039f	8b 08		 mov	 ecx, DWORD PTR [eax]
  003a1	89 4d b0	 mov	 DWORD PTR tv239[ebp], ecx
  003a4	eb 21		 jmp	 SHORT $LN39@get_next_g
$LN38@get_next_g:
  003a6	8b 15 00 00 00
	00		 mov	 edx, DWORD PTR ?__LINE__Var@?0??get_next_ground_threat@@YGPAUENTITY@@XZ@4JA
  003ac	83 c2 3e	 add	 edx, 62			; 0000003eH
  003af	52		 push	 edx
  003b0	68 00 00 00 00	 push	 OFFSET ??_C@_0EG@KKKJIDAO@c?3?2users?2nhv90?2projects?2eech?2ap@
  003b5	a1 00 00 00 00	 mov	 eax, DWORD PTR ?null_entity_pointer_message@@3PBDB ; null_entity_pointer_message
  003ba	50		 push	 eax
  003bb	e8 00 00 00 00	 call	 ?process_assert@@YGXPBD0H@Z ; process_assert
  003c0	c7 45 b0 00 00
	00 00		 mov	 DWORD PTR tv239[ebp], 0
$LN39@get_next_g:
  003c7	b9 01 00 00 00	 mov	 ecx, 1
  003cc	85 c9		 test	 ecx, ecx
  003ce	74 09		 je	 SHORT $LN40@get_next_g
  003d0	c7 45 ac 26 00
	00 00		 mov	 DWORD PTR tv247[ebp], 38 ; 00000026H
  003d7	eb 21		 jmp	 SHORT $LN41@get_next_g
$LN40@get_next_g:
  003d9	8b 15 00 00 00
	00		 mov	 edx, DWORD PTR ?__LINE__Var@?0??get_next_ground_threat@@YGPAUENTITY@@XZ@4JA
  003df	83 c2 3e	 add	 edx, 62			; 0000003eH
  003e2	52		 push	 edx
  003e3	68 00 00 00 00	 push	 OFFSET ??_C@_0EG@KKKJIDAO@c?3?2users?2nhv90?2projects?2eech?2ap@
  003e8	a1 00 00 00 00	 mov	 eax, DWORD PTR ?overload_invalid_list_type_message@@3PBDB ; overload_invalid_list_type_message
  003ed	50		 push	 eax
  003ee	e8 00 00 00 00	 call	 ?process_assert@@YGXPBD0H@Z ; process_assert
  003f3	c7 45 ac 00 00
	00 00		 mov	 DWORD PTR tv247[ebp], 0
$LN41@get_next_g:
  003fa	6a 26		 push	 38			; 00000026H
  003fc	8b 4d f8	 mov	 ecx, DWORD PTR _threat$[ebp]
  003ff	51		 push	 ecx
  00400	69 55 b0 b4 00
	00 00		 imul	 edx, DWORD PTR tv239[ebp], 180
  00407	8b 45 ac	 mov	 eax, DWORD PTR tv247[ebp]
  0040a	8b 8c 82 00 00
	00 00		 mov	 ecx, DWORD PTR ?fn_get_local_entity_child_succ@@3PAY0CN@P6GPAUENTITY@@PAU1@W4LIST_TYPES@@@ZA[edx+eax*4]
  00411	ff d1		 call	 ecx
  00413	89 45 f8	 mov	 DWORD PTR _threat$[ebp], eax

; 3713 : 		}

  00416	e9 5b ff ff ff	 jmp	 $LN4@get_next_g
$LN11@get_next_g:

; 3714 : 	}
; 3715 : 
; 3716 : 	return (threat);

  0041b	8b 45 f8	 mov	 eax, DWORD PTR _threat$[ebp]

; 3717 : }

  0041e	5f		 pop	 edi
  0041f	5e		 pop	 esi
  00420	5b		 pop	 ebx
  00421	8b e5		 mov	 esp, ebp
  00423	5d		 pop	 ebp
  00424	c3		 ret	 0
?get_next_ground_threat@@YGPAUENTITY@@XZ ENDP		; get_next_ground_threat
_TEXT	ENDS
; Function compile flags: /Odtp /ZI
; File c:\users\nhv90\projects\eech\aphavoc\source\gunships\views\vm_vckpt.c
;	COMDAT ?get_first_ground_threat@@YGPAUENTITY@@XZ
_TEXT	SEGMENT
tv204 = -104						; size = 4
tv180 = -104						; size = 4
tv155 = -104						; size = 4
tv135 = -104						; size = 4
tv83 = -104						; size = 4
tv196 = -100						; size = 4
tv172 = -100						; size = 4
tv147 = -100						; size = 4
tv95 = -100						; size = 4
tv75 = -100						; size = 4
_threat_position$ = -32					; size = 4
_source_position$ = -28					; size = 4
_closest_threat_range$ = -24				; size = 4
_range$ = -20						; size = 4
_source_side$ = -16					; size = 4
_closest_threat$ = -12					; size = 4
_threat$ = -8						; size = 4
_source$ = -4						; size = 4
?get_first_ground_threat@@YGPAUENTITY@@XZ PROC		; get_first_ground_threat, COMDAT

; 3592 : {

  00000	55		 push	 ebp
  00001	8b ec		 mov	 ebp, esp
  00003	83 ec 68	 sub	 esp, 104		; 00000068H
  00006	53		 push	 ebx
  00007	56		 push	 esi
  00008	57		 push	 edi

; 3593 : 	entity
; 3594 : 		*source,
; 3595 : 		*threat,
; 3596 : 		*closest_threat;
; 3597 : 
; 3598 : 	entity_sides
; 3599 : 		source_side;
; 3600 : 
; 3601 : 	float
; 3602 : 		range,
; 3603 : 		closest_threat_range;
; 3604 : 
; 3605 : 	vec3d
; 3606 : 		*source_position,
; 3607 : 		*threat_position;
; 3608 : 
; 3609 : 	source = get_gunship_entity ();

  00009	a1 00 00 00 00	 mov	 eax, DWORD PTR ?gunship_entity@@3PAUENTITY@@A ; gunship_entity
  0000e	89 45 fc	 mov	 DWORD PTR _source$[ebp], eax

; 3610 : 
; 3611 : 	ASSERT (source);

  00011	83 7d fc 00	 cmp	 DWORD PTR _source$[ebp], 0
  00015	75 18		 jne	 SHORT $LN4@get_first_
  00017	a1 00 00 00 00	 mov	 eax, DWORD PTR ?__LINE__Var@?0??get_first_ground_threat@@YGPAUENTITY@@XZ@4JA
  0001c	83 c0 13	 add	 eax, 19			; 00000013H
  0001f	50		 push	 eax
  00020	68 00 00 00 00	 push	 OFFSET ??_C@_0EG@KKKJIDAO@c?3?2users?2nhv90?2projects?2eech?2ap@
  00025	68 00 00 00 00	 push	 OFFSET ??_C@_06OEKOLKIL@source@
  0002a	e8 00 00 00 00	 call	 ?process_assert@@YGXPBD0H@Z ; process_assert
$LN4@get_first_:

; 3612 : 
; 3613 : 	source_side = (entity_sides) get_local_entity_int_value (source, INT_TYPE_SIDE);

  0002f	83 7d fc 00	 cmp	 DWORD PTR _source$[ebp], 0
  00033	74 0a		 je	 SHORT $LN8@get_first_
  00035	8b 45 fc	 mov	 eax, DWORD PTR _source$[ebp]
  00038	8b 08		 mov	 ecx, DWORD PTR [eax]
  0003a	89 4d 9c	 mov	 DWORD PTR tv75[ebp], ecx
  0003d	eb 21		 jmp	 SHORT $LN9@get_first_
$LN8@get_first_:
  0003f	8b 15 00 00 00
	00		 mov	 edx, DWORD PTR ?__LINE__Var@?0??get_first_ground_threat@@YGPAUENTITY@@XZ@4JA
  00045	83 c2 15	 add	 edx, 21			; 00000015H
  00048	52		 push	 edx
  00049	68 00 00 00 00	 push	 OFFSET ??_C@_0EG@KKKJIDAO@c?3?2users?2nhv90?2projects?2eech?2ap@
  0004e	a1 00 00 00 00	 mov	 eax, DWORD PTR ?null_entity_pointer_message@@3PBDB ; null_entity_pointer_message
  00053	50		 push	 eax
  00054	e8 00 00 00 00	 call	 ?process_assert@@YGXPBD0H@Z ; process_assert
  00059	c7 45 9c 00 00
	00 00		 mov	 DWORD PTR tv75[ebp], 0
$LN9@get_first_:
  00060	b9 01 00 00 00	 mov	 ecx, 1
  00065	85 c9		 test	 ecx, ecx
  00067	74 09		 je	 SHORT $LN10@get_first_
  00069	c7 45 98 bb 00
	00 00		 mov	 DWORD PTR tv83[ebp], 187 ; 000000bbH
  00070	eb 21		 jmp	 SHORT $LN11@get_first_
$LN10@get_first_:
  00072	8b 15 00 00 00
	00		 mov	 edx, DWORD PTR ?__LINE__Var@?0??get_first_ground_threat@@YGPAUENTITY@@XZ@4JA
  00078	83 c2 15	 add	 edx, 21			; 00000015H
  0007b	52		 push	 edx
  0007c	68 00 00 00 00	 push	 OFFSET ??_C@_0EG@KKKJIDAO@c?3?2users?2nhv90?2projects?2eech?2ap@
  00081	a1 00 00 00 00	 mov	 eax, DWORD PTR ?overload_invalid_int_type_message@@3PBDB ; overload_invalid_int_type_message
  00086	50		 push	 eax
  00087	e8 00 00 00 00	 call	 ?process_assert@@YGXPBD0H@Z ; process_assert
  0008c	c7 45 98 00 00
	00 00		 mov	 DWORD PTR tv83[ebp], 0
$LN11@get_first_:
  00093	68 bb 00 00 00	 push	 187			; 000000bbH
  00098	8b 4d fc	 mov	 ecx, DWORD PTR _source$[ebp]
  0009b	51		 push	 ecx
  0009c	69 55 9c 5c 04
	00 00		 imul	 edx, DWORD PTR tv75[ebp], 1116
  000a3	8b 45 98	 mov	 eax, DWORD PTR tv83[ebp]
  000a6	8b 8c 82 00 00
	00 00		 mov	 ecx, DWORD PTR ?fn_get_local_entity_int_value@@3PAY0BBH@P6GHPAUENTITY@@W4INT_TYPES@@@ZA[edx+eax*4]
  000ad	ff d1		 call	 ecx
  000af	89 45 f0	 mov	 DWORD PTR _source_side$[ebp], eax

; 3614 : 
; 3615 : 	source_position = get_local_entity_vec3d_ptr (source, VEC3D_TYPE_POSITION);

  000b2	83 7d fc 00	 cmp	 DWORD PTR _source$[ebp], 0
  000b6	74 0a		 je	 SHORT $LN12@get_first_
  000b8	8b 45 fc	 mov	 eax, DWORD PTR _source$[ebp]
  000bb	8b 08		 mov	 ecx, DWORD PTR [eax]
  000bd	89 4d 9c	 mov	 DWORD PTR tv95[ebp], ecx
  000c0	eb 21		 jmp	 SHORT $LN13@get_first_
$LN12@get_first_:
  000c2	8b 15 00 00 00
	00		 mov	 edx, DWORD PTR ?__LINE__Var@?0??get_first_ground_threat@@YGPAUENTITY@@XZ@4JA
  000c8	83 c2 17	 add	 edx, 23			; 00000017H
  000cb	52		 push	 edx
  000cc	68 00 00 00 00	 push	 OFFSET ??_C@_0EG@KKKJIDAO@c?3?2users?2nhv90?2projects?2eech?2ap@
  000d1	a1 00 00 00 00	 mov	 eax, DWORD PTR ?null_entity_pointer_message@@3PBDB ; null_entity_pointer_message
  000d6	50		 push	 eax
  000d7	e8 00 00 00 00	 call	 ?process_assert@@YGXPBD0H@Z ; process_assert
  000dc	c7 45 9c 00 00
	00 00		 mov	 DWORD PTR tv95[ebp], 0
$LN13@get_first_:
  000e3	b9 01 00 00 00	 mov	 ecx, 1
  000e8	85 c9		 test	 ecx, ecx
  000ea	74 09		 je	 SHORT $LN14@get_first_
  000ec	c7 45 98 08 00
	00 00		 mov	 DWORD PTR tv135[ebp], 8
  000f3	eb 21		 jmp	 SHORT $LN15@get_first_
$LN14@get_first_:
  000f5	8b 15 00 00 00
	00		 mov	 edx, DWORD PTR ?__LINE__Var@?0??get_first_ground_threat@@YGPAUENTITY@@XZ@4JA
  000fb	83 c2 17	 add	 edx, 23			; 00000017H
  000fe	52		 push	 edx
  000ff	68 00 00 00 00	 push	 OFFSET ??_C@_0EG@KKKJIDAO@c?3?2users?2nhv90?2projects?2eech?2ap@
  00104	a1 00 00 00 00	 mov	 eax, DWORD PTR ?overload_invalid_vec3d_type_message@@3PBDB ; overload_invalid_vec3d_type_message
  00109	50		 push	 eax
  0010a	e8 00 00 00 00	 call	 ?process_assert@@YGXPBD0H@Z ; process_assert
  0010f	c7 45 98 00 00
	00 00		 mov	 DWORD PTR tv135[ebp], 0
$LN15@get_first_:
  00116	6a 08		 push	 8
  00118	8b 4d fc	 mov	 ecx, DWORD PTR _source$[ebp]
  0011b	51		 push	 ecx
  0011c	6b 55 9c 60	 imul	 edx, DWORD PTR tv95[ebp], 96
  00120	8b 45 98	 mov	 eax, DWORD PTR tv135[ebp]
  00123	8b 8c 82 00 00
	00 00		 mov	 ecx, DWORD PTR ?fn_get_local_entity_vec3d_ptr@@3PAY0BI@P6GPAUVEC3D@@PAUENTITY@@W4VEC3D_TYPES@@@ZA[edx+eax*4]
  0012a	ff d1		 call	 ecx
  0012c	89 45 e4	 mov	 DWORD PTR _source_position$[ebp], eax

; 3616 : 
; 3617 : 	closest_threat = NULL;

  0012f	c7 45 f4 00 00
	00 00		 mov	 DWORD PTR _closest_threat$[ebp], 0

; 3618 : 
; 3619 : 	closest_threat_range = FLT_MAX;

  00136	f3 0f 10 05 00
	00 00 00	 movss	 xmm0, DWORD PTR __real@7f7fffff
  0013e	f3 0f 11 45 e8	 movss	 DWORD PTR _closest_threat_range$[ebp], xmm0

; 3620 : 
; 3621 : 	threat = get_local_entity_first_child (source, LIST_TYPE_TARGET);

  00143	83 7d fc 00	 cmp	 DWORD PTR _source$[ebp], 0
  00147	74 0a		 je	 SHORT $LN16@get_first_
  00149	8b 45 fc	 mov	 eax, DWORD PTR _source$[ebp]
  0014c	8b 08		 mov	 ecx, DWORD PTR [eax]
  0014e	89 4d 9c	 mov	 DWORD PTR tv147[ebp], ecx
  00151	eb 21		 jmp	 SHORT $LN17@get_first_
$LN16@get_first_:
  00153	8b 15 00 00 00
	00		 mov	 edx, DWORD PTR ?__LINE__Var@?0??get_first_ground_threat@@YGPAUENTITY@@XZ@4JA
  00159	83 c2 1d	 add	 edx, 29			; 0000001dH
  0015c	52		 push	 edx
  0015d	68 00 00 00 00	 push	 OFFSET ??_C@_0EG@KKKJIDAO@c?3?2users?2nhv90?2projects?2eech?2ap@
  00162	a1 00 00 00 00	 mov	 eax, DWORD PTR ?null_entity_pointer_message@@3PBDB ; null_entity_pointer_message
  00167	50		 push	 eax
  00168	e8 00 00 00 00	 call	 ?process_assert@@YGXPBD0H@Z ; process_assert
  0016d	c7 45 9c 00 00
	00 00		 mov	 DWORD PTR tv147[ebp], 0
$LN17@get_first_:
  00174	b9 01 00 00 00	 mov	 ecx, 1
  00179	85 c9		 test	 ecx, ecx
  0017b	74 09		 je	 SHORT $LN18@get_first_
  0017d	c7 45 98 26 00
	00 00		 mov	 DWORD PTR tv155[ebp], 38 ; 00000026H
  00184	eb 21		 jmp	 SHORT $LN19@get_first_
$LN18@get_first_:
  00186	8b 15 00 00 00
	00		 mov	 edx, DWORD PTR ?__LINE__Var@?0??get_first_ground_threat@@YGPAUENTITY@@XZ@4JA
  0018c	83 c2 1d	 add	 edx, 29			; 0000001dH
  0018f	52		 push	 edx
  00190	68 00 00 00 00	 push	 OFFSET ??_C@_0EG@KKKJIDAO@c?3?2users?2nhv90?2projects?2eech?2ap@
  00195	a1 00 00 00 00	 mov	 eax, DWORD PTR ?overload_invalid_list_type_message@@3PBDB ; overload_invalid_list_type_message
  0019a	50		 push	 eax
  0019b	e8 00 00 00 00	 call	 ?process_assert@@YGXPBD0H@Z ; process_assert
  001a0	c7 45 98 00 00
	00 00		 mov	 DWORD PTR tv155[ebp], 0
$LN19@get_first_:
  001a7	6a 26		 push	 38			; 00000026H
  001a9	8b 4d fc	 mov	 ecx, DWORD PTR _source$[ebp]
  001ac	51		 push	 ecx
  001ad	69 55 9c b4 00
	00 00		 imul	 edx, DWORD PTR tv147[ebp], 180
  001b4	8b 45 98	 mov	 eax, DWORD PTR tv155[ebp]
  001b7	8b 8c 82 00 00
	00 00		 mov	 ecx, DWORD PTR ?fn_get_local_entity_first_child@@3PAY0CN@P6GPAUENTITY@@PAU1@W4LIST_TYPES@@@ZA[edx+eax*4]
  001be	ff d1		 call	 ecx
  001c0	89 45 f8	 mov	 DWORD PTR _threat$[ebp], eax
$LN2@get_first_:

; 3622 : 
; 3623 : 	while (threat)

  001c3	83 7d f8 00	 cmp	 DWORD PTR _threat$[ebp], 0
  001c7	0f 84 42 01 00
	00		 je	 $LN3@get_first_

; 3624 : 	{
; 3625 : 		if (get_valid_ground_threat (threat, source_side))

  001cd	8b 45 f0	 mov	 eax, DWORD PTR _source_side$[ebp]
  001d0	50		 push	 eax
  001d1	8b 4d f8	 mov	 ecx, DWORD PTR _threat$[ebp]
  001d4	51		 push	 ecx
  001d5	e8 00 00 00 00	 call	 ?get_valid_ground_threat@@YGHPAUENTITY@@W4ENTITY_SIDES@@@Z ; get_valid_ground_threat
  001da	85 c0		 test	 eax, eax
  001dc	0f 84 a8 00 00
	00		 je	 $LN6@get_first_

; 3626 : 		{
; 3627 : 			threat_position = get_local_entity_vec3d_ptr (threat, VEC3D_TYPE_POSITION);

  001e2	83 7d f8 00	 cmp	 DWORD PTR _threat$[ebp], 0
  001e6	74 0a		 je	 SHORT $LN20@get_first_
  001e8	8b 45 f8	 mov	 eax, DWORD PTR _threat$[ebp]
  001eb	8b 08		 mov	 ecx, DWORD PTR [eax]
  001ed	89 4d 9c	 mov	 DWORD PTR tv172[ebp], ecx
  001f0	eb 21		 jmp	 SHORT $LN21@get_first_
$LN20@get_first_:
  001f2	8b 15 00 00 00
	00		 mov	 edx, DWORD PTR ?__LINE__Var@?0??get_first_ground_threat@@YGPAUENTITY@@XZ@4JA
  001f8	83 c2 23	 add	 edx, 35			; 00000023H
  001fb	52		 push	 edx
  001fc	68 00 00 00 00	 push	 OFFSET ??_C@_0EG@KKKJIDAO@c?3?2users?2nhv90?2projects?2eech?2ap@
  00201	a1 00 00 00 00	 mov	 eax, DWORD PTR ?null_entity_pointer_message@@3PBDB ; null_entity_pointer_message
  00206	50		 push	 eax
  00207	e8 00 00 00 00	 call	 ?process_assert@@YGXPBD0H@Z ; process_assert
  0020c	c7 45 9c 00 00
	00 00		 mov	 DWORD PTR tv172[ebp], 0
$LN21@get_first_:
  00213	b9 01 00 00 00	 mov	 ecx, 1
  00218	85 c9		 test	 ecx, ecx
  0021a	74 09		 je	 SHORT $LN22@get_first_
  0021c	c7 45 98 08 00
	00 00		 mov	 DWORD PTR tv180[ebp], 8
  00223	eb 21		 jmp	 SHORT $LN23@get_first_
$LN22@get_first_:
  00225	8b 15 00 00 00
	00		 mov	 edx, DWORD PTR ?__LINE__Var@?0??get_first_ground_threat@@YGPAUENTITY@@XZ@4JA
  0022b	83 c2 23	 add	 edx, 35			; 00000023H
  0022e	52		 push	 edx
  0022f	68 00 00 00 00	 push	 OFFSET ??_C@_0EG@KKKJIDAO@c?3?2users?2nhv90?2projects?2eech?2ap@
  00234	a1 00 00 00 00	 mov	 eax, DWORD PTR ?overload_invalid_vec3d_type_message@@3PBDB ; overload_invalid_vec3d_type_message
  00239	50		 push	 eax
  0023a	e8 00 00 00 00	 call	 ?process_assert@@YGXPBD0H@Z ; process_assert
  0023f	c7 45 98 00 00
	00 00		 mov	 DWORD PTR tv180[ebp], 0
$LN23@get_first_:
  00246	6a 08		 push	 8
  00248	8b 4d f8	 mov	 ecx, DWORD PTR _threat$[ebp]
  0024b	51		 push	 ecx
  0024c	6b 55 9c 60	 imul	 edx, DWORD PTR tv172[ebp], 96
  00250	8b 45 98	 mov	 eax, DWORD PTR tv180[ebp]
  00253	8b 8c 82 00 00
	00 00		 mov	 ecx, DWORD PTR ?fn_get_local_entity_vec3d_ptr@@3PAY0BI@P6GPAUVEC3D@@PAUENTITY@@W4VEC3D_TYPES@@@ZA[edx+eax*4]
  0025a	ff d1		 call	 ecx
  0025c	89 45 e0	 mov	 DWORD PTR _threat_position$[ebp], eax

; 3628 : 
; 3629 : 			range = get_sqr_3d_range (source_position, threat_position);

  0025f	8b 45 e0	 mov	 eax, DWORD PTR _threat_position$[ebp]
  00262	50		 push	 eax
  00263	8b 4d e4	 mov	 ecx, DWORD PTR _source_position$[ebp]
  00266	51		 push	 ecx
  00267	e8 00 00 00 00	 call	 ?get_sqr_3d_range@@YGMPBUVEC3D@@0@Z ; get_sqr_3d_range
  0026c	d9 5d ec	 fstp	 DWORD PTR _range$[ebp]

; 3630 : 
; 3631 : 			if (range < closest_threat_range)

  0026f	f3 0f 10 45 e8	 movss	 xmm0, DWORD PTR _closest_threat_range$[ebp]
  00274	0f 2f 45 ec	 comiss	 xmm0, DWORD PTR _range$[ebp]
  00278	76 10		 jbe	 SHORT $LN6@get_first_

; 3632 : 			{
; 3633 : 				closest_threat = threat;

  0027a	8b 45 f8	 mov	 eax, DWORD PTR _threat$[ebp]
  0027d	89 45 f4	 mov	 DWORD PTR _closest_threat$[ebp], eax

; 3634 : 
; 3635 : 				closest_threat_range = range;

  00280	f3 0f 10 45 ec	 movss	 xmm0, DWORD PTR _range$[ebp]
  00285	f3 0f 11 45 e8	 movss	 DWORD PTR _closest_threat_range$[ebp], xmm0
$LN6@get_first_:

; 3636 : 			}
; 3637 : 		}
; 3638 : 
; 3639 : 		threat = get_local_entity_child_succ (threat, LIST_TYPE_TARGET);

  0028a	83 7d f8 00	 cmp	 DWORD PTR _threat$[ebp], 0
  0028e	74 0a		 je	 SHORT $LN24@get_first_
  00290	8b 45 f8	 mov	 eax, DWORD PTR _threat$[ebp]
  00293	8b 08		 mov	 ecx, DWORD PTR [eax]
  00295	89 4d 9c	 mov	 DWORD PTR tv196[ebp], ecx
  00298	eb 21		 jmp	 SHORT $LN25@get_first_
$LN24@get_first_:
  0029a	8b 15 00 00 00
	00		 mov	 edx, DWORD PTR ?__LINE__Var@?0??get_first_ground_threat@@YGPAUENTITY@@XZ@4JA
  002a0	83 c2 2f	 add	 edx, 47			; 0000002fH
  002a3	52		 push	 edx
  002a4	68 00 00 00 00	 push	 OFFSET ??_C@_0EG@KKKJIDAO@c?3?2users?2nhv90?2projects?2eech?2ap@
  002a9	a1 00 00 00 00	 mov	 eax, DWORD PTR ?null_entity_pointer_message@@3PBDB ; null_entity_pointer_message
  002ae	50		 push	 eax
  002af	e8 00 00 00 00	 call	 ?process_assert@@YGXPBD0H@Z ; process_assert
  002b4	c7 45 9c 00 00
	00 00		 mov	 DWORD PTR tv196[ebp], 0
$LN25@get_first_:
  002bb	b9 01 00 00 00	 mov	 ecx, 1
  002c0	85 c9		 test	 ecx, ecx
  002c2	74 09		 je	 SHORT $LN26@get_first_
  002c4	c7 45 98 26 00
	00 00		 mov	 DWORD PTR tv204[ebp], 38 ; 00000026H
  002cb	eb 21		 jmp	 SHORT $LN27@get_first_
$LN26@get_first_:
  002cd	8b 15 00 00 00
	00		 mov	 edx, DWORD PTR ?__LINE__Var@?0??get_first_ground_threat@@YGPAUENTITY@@XZ@4JA
  002d3	83 c2 2f	 add	 edx, 47			; 0000002fH
  002d6	52		 push	 edx
  002d7	68 00 00 00 00	 push	 OFFSET ??_C@_0EG@KKKJIDAO@c?3?2users?2nhv90?2projects?2eech?2ap@
  002dc	a1 00 00 00 00	 mov	 eax, DWORD PTR ?overload_invalid_list_type_message@@3PBDB ; overload_invalid_list_type_message
  002e1	50		 push	 eax
  002e2	e8 00 00 00 00	 call	 ?process_assert@@YGXPBD0H@Z ; process_assert
  002e7	c7 45 98 00 00
	00 00		 mov	 DWORD PTR tv204[ebp], 0
$LN27@get_first_:
  002ee	6a 26		 push	 38			; 00000026H
  002f0	8b 4d f8	 mov	 ecx, DWORD PTR _threat$[ebp]
  002f3	51		 push	 ecx
  002f4	69 55 9c b4 00
	00 00		 imul	 edx, DWORD PTR tv196[ebp], 180
  002fb	8b 45 98	 mov	 eax, DWORD PTR tv204[ebp]
  002fe	8b 8c 82 00 00
	00 00		 mov	 ecx, DWORD PTR ?fn_get_local_entity_child_succ@@3PAY0CN@P6GPAUENTITY@@PAU1@W4LIST_TYPES@@@ZA[edx+eax*4]
  00305	ff d1		 call	 ecx
  00307	89 45 f8	 mov	 DWORD PTR _threat$[ebp], eax

; 3640 : 	}

  0030a	e9 b4 fe ff ff	 jmp	 $LN2@get_first_
$LN3@get_first_:

; 3641 : 
; 3642 : 	return (closest_threat);

  0030f	8b 45 f4	 mov	 eax, DWORD PTR _closest_threat$[ebp]

; 3643 : }

  00312	5f		 pop	 edi
  00313	5e		 pop	 esi
  00314	5b		 pop	 ebx
  00315	8b e5		 mov	 esp, ebp
  00317	5d		 pop	 ebp
  00318	c3		 ret	 0
?get_first_ground_threat@@YGPAUENTITY@@XZ ENDP		; get_first_ground_threat
_TEXT	ENDS
; Function compile flags: /Odtp /ZI
; File c:\users\nhv90\projects\eech\aphavoc\source\gunships\views\vm_vckpt.c
;	COMDAT ?get_valid_ground_threat@@YGHPAUENTITY@@W4ENTITY_SIDES@@@Z
_TEXT	SEGMENT
tv151 = -72						; size = 4
tv132 = -72						; size = 4
tv81 = -72						; size = 4
tv144 = -68						; size = 4
tv93 = -68						; size = 4
tv74 = -68						; size = 4
_threat$ = 8						; size = 4
_source_side$ = 12					; size = 4
?get_valid_ground_threat@@YGHPAUENTITY@@W4ENTITY_SIDES@@@Z PROC ; get_valid_ground_threat, COMDAT

; 3570 : {

  00000	55		 push	 ebp
  00001	8b ec		 mov	 ebp, esp
  00003	83 ec 48	 sub	 esp, 72			; 00000048H
  00006	53		 push	 ebx
  00007	56		 push	 esi
  00008	57		 push	 edi

; 3571 : 	ASSERT (threat);

  00009	83 7d 08 00	 cmp	 DWORD PTR _threat$[ebp], 0
  0000d	75 18		 jne	 SHORT $LN2@get_valid_
  0000f	a1 00 00 00 00	 mov	 eax, DWORD PTR ?__LINE__Var@?0??get_valid_ground_threat@@YGHPAUENTITY@@W4ENTITY_SIDES@@@Z@4JA
  00014	83 c0 01	 add	 eax, 1
  00017	50		 push	 eax
  00018	68 00 00 00 00	 push	 OFFSET ??_C@_0EG@KKKJIDAO@c?3?2users?2nhv90?2projects?2eech?2ap@
  0001d	68 00 00 00 00	 push	 OFFSET ??_C@_06BDLPPAPF@threat@
  00022	e8 00 00 00 00	 call	 ?process_assert@@YGXPBD0H@Z ; process_assert
$LN2@get_valid_:

; 3572 : 
; 3573 : 	if (get_local_entity_int_value (threat, INT_TYPE_IDENTIFY_VEHICLE))

  00027	83 7d 08 00	 cmp	 DWORD PTR _threat$[ebp], 0
  0002b	74 0a		 je	 SHORT $LN7@get_valid_
  0002d	8b 45 08	 mov	 eax, DWORD PTR _threat$[ebp]
  00030	8b 08		 mov	 ecx, DWORD PTR [eax]
  00032	89 4d bc	 mov	 DWORD PTR tv74[ebp], ecx
  00035	eb 1d		 jmp	 SHORT $LN8@get_valid_
$LN7@get_valid_:
  00037	68 f5 0d 00 00	 push	 3573			; 00000df5H
  0003c	68 00 00 00 00	 push	 OFFSET ??_C@_0EG@KKKJIDAO@c?3?2users?2nhv90?2projects?2eech?2ap@
  00041	8b 15 00 00 00
	00		 mov	 edx, DWORD PTR ?null_entity_pointer_message@@3PBDB ; null_entity_pointer_message
  00047	52		 push	 edx
  00048	e8 00 00 00 00	 call	 ?process_assert@@YGXPBD0H@Z ; process_assert
  0004d	c7 45 bc 00 00
	00 00		 mov	 DWORD PTR tv74[ebp], 0
$LN8@get_valid_:
  00054	b8 01 00 00 00	 mov	 eax, 1
  00059	85 c0		 test	 eax, eax
  0005b	74 09		 je	 SHORT $LN9@get_valid_
  0005d	c7 45 b8 60 00
	00 00		 mov	 DWORD PTR tv81[ebp], 96	; 00000060H
  00064	eb 1d		 jmp	 SHORT $LN10@get_valid_
$LN9@get_valid_:
  00066	68 f5 0d 00 00	 push	 3573			; 00000df5H
  0006b	68 00 00 00 00	 push	 OFFSET ??_C@_0EG@KKKJIDAO@c?3?2users?2nhv90?2projects?2eech?2ap@
  00070	8b 0d 00 00 00
	00		 mov	 ecx, DWORD PTR ?overload_invalid_int_type_message@@3PBDB ; overload_invalid_int_type_message
  00076	51		 push	 ecx
  00077	e8 00 00 00 00	 call	 ?process_assert@@YGXPBD0H@Z ; process_assert
  0007c	c7 45 b8 00 00
	00 00		 mov	 DWORD PTR tv81[ebp], 0
$LN10@get_valid_:
  00083	6a 60		 push	 96			; 00000060H
  00085	8b 55 08	 mov	 edx, DWORD PTR _threat$[ebp]
  00088	52		 push	 edx
  00089	69 45 bc 5c 04
	00 00		 imul	 eax, DWORD PTR tv74[ebp], 1116
  00090	8b 4d b8	 mov	 ecx, DWORD PTR tv81[ebp]
  00093	8b 94 88 00 00
	00 00		 mov	 edx, DWORD PTR ?fn_get_local_entity_int_value@@3PAY0BBH@P6GHPAUENTITY@@W4INT_TYPES@@@ZA[eax+ecx*4]
  0009a	ff d2		 call	 edx
  0009c	85 c0		 test	 eax, eax
  0009e	0f 84 04 01 00
	00		 je	 $LN3@get_valid_

; 3574 : 	{
; 3575 : 		if (get_local_entity_int_value (threat, INT_TYPE_VIEWABLE))

  000a4	83 7d 08 00	 cmp	 DWORD PTR _threat$[ebp], 0
  000a8	74 0a		 je	 SHORT $LN11@get_valid_
  000aa	8b 45 08	 mov	 eax, DWORD PTR _threat$[ebp]
  000ad	8b 08		 mov	 ecx, DWORD PTR [eax]
  000af	89 4d bc	 mov	 DWORD PTR tv93[ebp], ecx
  000b2	eb 1d		 jmp	 SHORT $LN12@get_valid_
$LN11@get_valid_:
  000b4	68 f7 0d 00 00	 push	 3575			; 00000df7H
  000b9	68 00 00 00 00	 push	 OFFSET ??_C@_0EG@KKKJIDAO@c?3?2users?2nhv90?2projects?2eech?2ap@
  000be	8b 15 00 00 00
	00		 mov	 edx, DWORD PTR ?null_entity_pointer_message@@3PBDB ; null_entity_pointer_message
  000c4	52		 push	 edx
  000c5	e8 00 00 00 00	 call	 ?process_assert@@YGXPBD0H@Z ; process_assert
  000ca	c7 45 bc 00 00
	00 00		 mov	 DWORD PTR tv93[ebp], 0
$LN12@get_valid_:
  000d1	b8 01 00 00 00	 mov	 eax, 1
  000d6	85 c0		 test	 eax, eax
  000d8	74 09		 je	 SHORT $LN13@get_valid_
  000da	c7 45 b8 f8 00
	00 00		 mov	 DWORD PTR tv132[ebp], 248 ; 000000f8H
  000e1	eb 1d		 jmp	 SHORT $LN14@get_valid_
$LN13@get_valid_:
  000e3	68 f7 0d 00 00	 push	 3575			; 00000df7H
  000e8	68 00 00 00 00	 push	 OFFSET ??_C@_0EG@KKKJIDAO@c?3?2users?2nhv90?2projects?2eech?2ap@
  000ed	8b 0d 00 00 00
	00		 mov	 ecx, DWORD PTR ?overload_invalid_int_type_message@@3PBDB ; overload_invalid_int_type_message
  000f3	51		 push	 ecx
  000f4	e8 00 00 00 00	 call	 ?process_assert@@YGXPBD0H@Z ; process_assert
  000f9	c7 45 b8 00 00
	00 00		 mov	 DWORD PTR tv132[ebp], 0
$LN14@get_valid_:
  00100	68 f8 00 00 00	 push	 248			; 000000f8H
  00105	8b 55 08	 mov	 edx, DWORD PTR _threat$[ebp]
  00108	52		 push	 edx
  00109	69 45 bc 5c 04
	00 00		 imul	 eax, DWORD PTR tv93[ebp], 1116
  00110	8b 4d b8	 mov	 ecx, DWORD PTR tv132[ebp]
  00113	8b 94 88 00 00
	00 00		 mov	 edx, DWORD PTR ?fn_get_local_entity_int_value@@3PAY0BBH@P6GHPAUENTITY@@W4INT_TYPES@@@ZA[eax+ecx*4]
  0011a	ff d2		 call	 edx
  0011c	85 c0		 test	 eax, eax
  0011e	0f 84 84 00 00
	00		 je	 $LN3@get_valid_

; 3576 : 		{
; 3577 : 			if (source_side != get_local_entity_int_value (threat, INT_TYPE_SIDE))

  00124	83 7d 08 00	 cmp	 DWORD PTR _threat$[ebp], 0
  00128	74 0a		 je	 SHORT $LN15@get_valid_
  0012a	8b 45 08	 mov	 eax, DWORD PTR _threat$[ebp]
  0012d	8b 08		 mov	 ecx, DWORD PTR [eax]
  0012f	89 4d bc	 mov	 DWORD PTR tv144[ebp], ecx
  00132	eb 1d		 jmp	 SHORT $LN16@get_valid_
$LN15@get_valid_:
  00134	68 f9 0d 00 00	 push	 3577			; 00000df9H
  00139	68 00 00 00 00	 push	 OFFSET ??_C@_0EG@KKKJIDAO@c?3?2users?2nhv90?2projects?2eech?2ap@
  0013e	8b 15 00 00 00
	00		 mov	 edx, DWORD PTR ?null_entity_pointer_message@@3PBDB ; null_entity_pointer_message
  00144	52		 push	 edx
  00145	e8 00 00 00 00	 call	 ?process_assert@@YGXPBD0H@Z ; process_assert
  0014a	c7 45 bc 00 00
	00 00		 mov	 DWORD PTR tv144[ebp], 0
$LN16@get_valid_:
  00151	b8 01 00 00 00	 mov	 eax, 1
  00156	85 c0		 test	 eax, eax
  00158	74 09		 je	 SHORT $LN17@get_valid_
  0015a	c7 45 b8 bb 00
	00 00		 mov	 DWORD PTR tv151[ebp], 187 ; 000000bbH
  00161	eb 1d		 jmp	 SHORT $LN18@get_valid_
$LN17@get_valid_:
  00163	68 f9 0d 00 00	 push	 3577			; 00000df9H
  00168	68 00 00 00 00	 push	 OFFSET ??_C@_0EG@KKKJIDAO@c?3?2users?2nhv90?2projects?2eech?2ap@
  0016d	8b 0d 00 00 00
	00		 mov	 ecx, DWORD PTR ?overload_invalid_int_type_message@@3PBDB ; overload_invalid_int_type_message
  00173	51		 push	 ecx
  00174	e8 00 00 00 00	 call	 ?process_assert@@YGXPBD0H@Z ; process_assert
  00179	c7 45 b8 00 00
	00 00		 mov	 DWORD PTR tv151[ebp], 0
$LN18@get_valid_:
  00180	68 bb 00 00 00	 push	 187			; 000000bbH
  00185	8b 55 08	 mov	 edx, DWORD PTR _threat$[ebp]
  00188	52		 push	 edx
  00189	69 45 bc 5c 04
	00 00		 imul	 eax, DWORD PTR tv144[ebp], 1116
  00190	8b 4d b8	 mov	 ecx, DWORD PTR tv151[ebp]
  00193	8b 94 88 00 00
	00 00		 mov	 edx, DWORD PTR ?fn_get_local_entity_int_value@@3PAY0BBH@P6GHPAUENTITY@@W4INT_TYPES@@@ZA[eax+ecx*4]
  0019a	ff d2		 call	 edx
  0019c	39 45 0c	 cmp	 DWORD PTR _source_side$[ebp], eax
  0019f	74 07		 je	 SHORT $LN3@get_valid_

; 3578 : 			{
; 3579 : 				return (TRUE);

  001a1	b8 01 00 00 00	 mov	 eax, 1
  001a6	eb 02		 jmp	 SHORT $LN1@get_valid_
$LN3@get_valid_:

; 3580 : 			}
; 3581 : 		}
; 3582 : 	}
; 3583 : 
; 3584 : 	return (FALSE);

  001a8	33 c0		 xor	 eax, eax
$LN1@get_valid_:

; 3585 : }

  001aa	5f		 pop	 edi
  001ab	5e		 pop	 esi
  001ac	5b		 pop	 ebx
  001ad	8b e5		 mov	 esp, ebp
  001af	5d		 pop	 ebp
  001b0	c2 08 00	 ret	 8
?get_valid_ground_threat@@YGHPAUENTITY@@W4ENTITY_SIDES@@@Z ENDP ; get_valid_ground_threat
_TEXT	ENDS
; Function compile flags: /Odtp /ZI
; File c:\users\nhv90\projects\eech\aphavoc\source\gunships\views\vm_vckpt.c
;	COMDAT ?get_next_air_threat@@YGPAUENTITY@@XZ
_TEXT	SEGMENT
tv247 = -84						; size = 4
tv222 = -84						; size = 4
tv201 = -84						; size = 4
tv176 = -84						; size = 4
tv154 = -84						; size = 4
tv135 = -84						; size = 4
tv83 = -84						; size = 4
tv239 = -80						; size = 4
tv214 = -80						; size = 4
tv193 = -80						; size = 4
tv168 = -80						; size = 4
tv147 = -80						; size = 4
tv95 = -80						; size = 4
tv75 = -80						; size = 4
_source_side$ = -12					; size = 4
_threat$ = -8						; size = 4
_source$ = -4						; size = 4
?get_next_air_threat@@YGPAUENTITY@@XZ PROC		; get_next_air_threat, COMDAT

; 3496 : {

  00000	55		 push	 ebp
  00001	8b ec		 mov	 ebp, esp
  00003	83 ec 54	 sub	 esp, 84			; 00000054H
  00006	53		 push	 ebx
  00007	56		 push	 esi
  00008	57		 push	 edi

; 3497 : 	entity
; 3498 : 		*source,
; 3499 : 		*threat;
; 3500 : 
; 3501 : 	entity_sides
; 3502 : 		source_side;
; 3503 : 
; 3504 : 	source = get_gunship_entity ();

  00009	a1 00 00 00 00	 mov	 eax, DWORD PTR ?gunship_entity@@3PAUENTITY@@A ; gunship_entity
  0000e	89 45 fc	 mov	 DWORD PTR _source$[ebp], eax

; 3505 : 
; 3506 : 	ASSERT (source);

  00011	83 7d fc 00	 cmp	 DWORD PTR _source$[ebp], 0
  00015	75 18		 jne	 SHORT $LN6@get_next_a
  00017	a1 00 00 00 00	 mov	 eax, DWORD PTR ?__LINE__Var@?0??get_next_air_threat@@YGPAUENTITY@@XZ@4JA
  0001c	83 c0 0a	 add	 eax, 10			; 0000000aH
  0001f	50		 push	 eax
  00020	68 00 00 00 00	 push	 OFFSET ??_C@_0EG@KKKJIDAO@c?3?2users?2nhv90?2projects?2eech?2ap@
  00025	68 00 00 00 00	 push	 OFFSET ??_C@_06OEKOLKIL@source@
  0002a	e8 00 00 00 00	 call	 ?process_assert@@YGXPBD0H@Z ; process_assert
$LN6@get_next_a:

; 3507 : 
; 3508 : 	source_side = (entity_sides) get_local_entity_int_value (source, INT_TYPE_SIDE);

  0002f	83 7d fc 00	 cmp	 DWORD PTR _source$[ebp], 0
  00033	74 0a		 je	 SHORT $LN14@get_next_a
  00035	8b 45 fc	 mov	 eax, DWORD PTR _source$[ebp]
  00038	8b 08		 mov	 ecx, DWORD PTR [eax]
  0003a	89 4d b0	 mov	 DWORD PTR tv75[ebp], ecx
  0003d	eb 21		 jmp	 SHORT $LN15@get_next_a
$LN14@get_next_a:
  0003f	8b 15 00 00 00
	00		 mov	 edx, DWORD PTR ?__LINE__Var@?0??get_next_air_threat@@YGPAUENTITY@@XZ@4JA
  00045	83 c2 0c	 add	 edx, 12			; 0000000cH
  00048	52		 push	 edx
  00049	68 00 00 00 00	 push	 OFFSET ??_C@_0EG@KKKJIDAO@c?3?2users?2nhv90?2projects?2eech?2ap@
  0004e	a1 00 00 00 00	 mov	 eax, DWORD PTR ?null_entity_pointer_message@@3PBDB ; null_entity_pointer_message
  00053	50		 push	 eax
  00054	e8 00 00 00 00	 call	 ?process_assert@@YGXPBD0H@Z ; process_assert
  00059	c7 45 b0 00 00
	00 00		 mov	 DWORD PTR tv75[ebp], 0
$LN15@get_next_a:
  00060	b9 01 00 00 00	 mov	 ecx, 1
  00065	85 c9		 test	 ecx, ecx
  00067	74 09		 je	 SHORT $LN16@get_next_a
  00069	c7 45 ac bb 00
	00 00		 mov	 DWORD PTR tv83[ebp], 187 ; 000000bbH
  00070	eb 21		 jmp	 SHORT $LN17@get_next_a
$LN16@get_next_a:
  00072	8b 15 00 00 00
	00		 mov	 edx, DWORD PTR ?__LINE__Var@?0??get_next_air_threat@@YGPAUENTITY@@XZ@4JA
  00078	83 c2 0c	 add	 edx, 12			; 0000000cH
  0007b	52		 push	 edx
  0007c	68 00 00 00 00	 push	 OFFSET ??_C@_0EG@KKKJIDAO@c?3?2users?2nhv90?2projects?2eech?2ap@
  00081	a1 00 00 00 00	 mov	 eax, DWORD PTR ?overload_invalid_int_type_message@@3PBDB ; overload_invalid_int_type_message
  00086	50		 push	 eax
  00087	e8 00 00 00 00	 call	 ?process_assert@@YGXPBD0H@Z ; process_assert
  0008c	c7 45 ac 00 00
	00 00		 mov	 DWORD PTR tv83[ebp], 0
$LN17@get_next_a:
  00093	68 bb 00 00 00	 push	 187			; 000000bbH
  00098	8b 4d fc	 mov	 ecx, DWORD PTR _source$[ebp]
  0009b	51		 push	 ecx
  0009c	69 55 b0 5c 04
	00 00		 imul	 edx, DWORD PTR tv75[ebp], 1116
  000a3	8b 45 ac	 mov	 eax, DWORD PTR tv83[ebp]
  000a6	8b 8c 82 00 00
	00 00		 mov	 ecx, DWORD PTR ?fn_get_local_entity_int_value@@3PAY0BBH@P6GHPAUENTITY@@W4INT_TYPES@@@ZA[edx+eax*4]
  000ad	ff d1		 call	 ecx
  000af	89 45 f4	 mov	 DWORD PTR _source_side$[ebp], eax

; 3509 : 
; 3510 : 	threat = get_local_entity_first_child (source, LIST_TYPE_PADLOCK);

  000b2	83 7d fc 00	 cmp	 DWORD PTR _source$[ebp], 0
  000b6	74 0a		 je	 SHORT $LN18@get_next_a
  000b8	8b 45 fc	 mov	 eax, DWORD PTR _source$[ebp]
  000bb	8b 08		 mov	 ecx, DWORD PTR [eax]
  000bd	89 4d b0	 mov	 DWORD PTR tv95[ebp], ecx
  000c0	eb 21		 jmp	 SHORT $LN19@get_next_a
$LN18@get_next_a:
  000c2	8b 15 00 00 00
	00		 mov	 edx, DWORD PTR ?__LINE__Var@?0??get_next_air_threat@@YGPAUENTITY@@XZ@4JA
  000c8	83 c2 0e	 add	 edx, 14			; 0000000eH
  000cb	52		 push	 edx
  000cc	68 00 00 00 00	 push	 OFFSET ??_C@_0EG@KKKJIDAO@c?3?2users?2nhv90?2projects?2eech?2ap@
  000d1	a1 00 00 00 00	 mov	 eax, DWORD PTR ?null_entity_pointer_message@@3PBDB ; null_entity_pointer_message
  000d6	50		 push	 eax
  000d7	e8 00 00 00 00	 call	 ?process_assert@@YGXPBD0H@Z ; process_assert
  000dc	c7 45 b0 00 00
	00 00		 mov	 DWORD PTR tv95[ebp], 0
$LN19@get_next_a:
  000e3	b9 01 00 00 00	 mov	 ecx, 1
  000e8	85 c9		 test	 ecx, ecx
  000ea	74 09		 je	 SHORT $LN20@get_next_a
  000ec	c7 45 ac 1b 00
	00 00		 mov	 DWORD PTR tv135[ebp], 27 ; 0000001bH
  000f3	eb 21		 jmp	 SHORT $LN21@get_next_a
$LN20@get_next_a:
  000f5	8b 15 00 00 00
	00		 mov	 edx, DWORD PTR ?__LINE__Var@?0??get_next_air_threat@@YGPAUENTITY@@XZ@4JA
  000fb	83 c2 0e	 add	 edx, 14			; 0000000eH
  000fe	52		 push	 edx
  000ff	68 00 00 00 00	 push	 OFFSET ??_C@_0EG@KKKJIDAO@c?3?2users?2nhv90?2projects?2eech?2ap@
  00104	a1 00 00 00 00	 mov	 eax, DWORD PTR ?overload_invalid_list_type_message@@3PBDB ; overload_invalid_list_type_message
  00109	50		 push	 eax
  0010a	e8 00 00 00 00	 call	 ?process_assert@@YGXPBD0H@Z ; process_assert
  0010f	c7 45 ac 00 00
	00 00		 mov	 DWORD PTR tv135[ebp], 0
$LN21@get_next_a:
  00116	6a 1b		 push	 27			; 0000001bH
  00118	8b 4d fc	 mov	 ecx, DWORD PTR _source$[ebp]
  0011b	51		 push	 ecx
  0011c	69 55 b0 b4 00
	00 00		 imul	 edx, DWORD PTR tv95[ebp], 180
  00123	8b 45 ac	 mov	 eax, DWORD PTR tv135[ebp]
  00126	8b 8c 82 00 00
	00 00		 mov	 ecx, DWORD PTR ?fn_get_local_entity_first_child@@3PAY0CN@P6GPAUENTITY@@PAU1@W4LIST_TYPES@@@ZA[edx+eax*4]
  0012d	ff d1		 call	 ecx
  0012f	89 45 f8	 mov	 DWORD PTR _threat$[ebp], eax

; 3511 : 
; 3512 : 	//
; 3513 : 	// check threat is still a threat
; 3514 : 	//
; 3515 : 
; 3516 : 	if (threat)

  00132	83 7d f8 00	 cmp	 DWORD PTR _threat$[ebp], 0
  00136	0f 84 81 00 00
	00		 je	 $LN7@get_next_a

; 3517 : 	{
; 3518 : 		if (get_local_entity_parent (threat, LIST_TYPE_TARGET) != source)

  0013c	83 7d f8 00	 cmp	 DWORD PTR _threat$[ebp], 0
  00140	74 0a		 je	 SHORT $LN22@get_next_a
  00142	8b 45 f8	 mov	 eax, DWORD PTR _threat$[ebp]
  00145	8b 08		 mov	 ecx, DWORD PTR [eax]
  00147	89 4d b0	 mov	 DWORD PTR tv147[ebp], ecx
  0014a	eb 1d		 jmp	 SHORT $LN23@get_next_a
$LN22@get_next_a:
  0014c	68 be 0d 00 00	 push	 3518			; 00000dbeH
  00151	68 00 00 00 00	 push	 OFFSET ??_C@_0EG@KKKJIDAO@c?3?2users?2nhv90?2projects?2eech?2ap@
  00156	8b 15 00 00 00
	00		 mov	 edx, DWORD PTR ?null_entity_pointer_message@@3PBDB ; null_entity_pointer_message
  0015c	52		 push	 edx
  0015d	e8 00 00 00 00	 call	 ?process_assert@@YGXPBD0H@Z ; process_assert
  00162	c7 45 b0 00 00
	00 00		 mov	 DWORD PTR tv147[ebp], 0
$LN23@get_next_a:
  00169	b8 01 00 00 00	 mov	 eax, 1
  0016e	85 c0		 test	 eax, eax
  00170	74 09		 je	 SHORT $LN24@get_next_a
  00172	c7 45 ac 26 00
	00 00		 mov	 DWORD PTR tv154[ebp], 38 ; 00000026H
  00179	eb 1d		 jmp	 SHORT $LN25@get_next_a
$LN24@get_next_a:
  0017b	68 be 0d 00 00	 push	 3518			; 00000dbeH
  00180	68 00 00 00 00	 push	 OFFSET ??_C@_0EG@KKKJIDAO@c?3?2users?2nhv90?2projects?2eech?2ap@
  00185	8b 0d 00 00 00
	00		 mov	 ecx, DWORD PTR ?overload_invalid_list_type_message@@3PBDB ; overload_invalid_list_type_message
  0018b	51		 push	 ecx
  0018c	e8 00 00 00 00	 call	 ?process_assert@@YGXPBD0H@Z ; process_assert
  00191	c7 45 ac 00 00
	00 00		 mov	 DWORD PTR tv154[ebp], 0
$LN25@get_next_a:
  00198	6a 26		 push	 38			; 00000026H
  0019a	8b 55 f8	 mov	 edx, DWORD PTR _threat$[ebp]
  0019d	52		 push	 edx
  0019e	69 45 b0 b4 00
	00 00		 imul	 eax, DWORD PTR tv147[ebp], 180
  001a5	8b 4d ac	 mov	 ecx, DWORD PTR tv154[ebp]
  001a8	8b 94 88 00 00
	00 00		 mov	 edx, DWORD PTR ?fn_get_local_entity_parent@@3PAY0CN@P6GPAUENTITY@@PAU1@W4LIST_TYPES@@@ZA[eax+ecx*4]
  001af	ff d2		 call	 edx
  001b1	3b 45 fc	 cmp	 eax, DWORD PTR _source$[ebp]
  001b4	74 07		 je	 SHORT $LN7@get_next_a

; 3519 : 		{
; 3520 : 			threat = NULL;

  001b6	c7 45 f8 00 00
	00 00		 mov	 DWORD PTR _threat$[ebp], 0
$LN7@get_next_a:

; 3521 : 		}
; 3522 : 	}
; 3523 : 
; 3524 : 	//
; 3525 : 	// find next threat in list
; 3526 : 	//
; 3527 : 
; 3528 : 	if (threat)

  001bd	83 7d f8 00	 cmp	 DWORD PTR _threat$[ebp], 0
  001c1	0f 84 25 01 00
	00		 je	 $LN9@get_next_a

; 3529 : 	{
; 3530 : 		threat = get_local_entity_child_succ (threat, LIST_TYPE_TARGET);

  001c7	83 7d f8 00	 cmp	 DWORD PTR _threat$[ebp], 0
  001cb	74 0a		 je	 SHORT $LN26@get_next_a
  001cd	8b 45 f8	 mov	 eax, DWORD PTR _threat$[ebp]
  001d0	8b 08		 mov	 ecx, DWORD PTR [eax]
  001d2	89 4d b0	 mov	 DWORD PTR tv168[ebp], ecx
  001d5	eb 21		 jmp	 SHORT $LN27@get_next_a
$LN26@get_next_a:
  001d7	8b 15 00 00 00
	00		 mov	 edx, DWORD PTR ?__LINE__Var@?0??get_next_air_threat@@YGPAUENTITY@@XZ@4JA
  001dd	83 c2 22	 add	 edx, 34			; 00000022H
  001e0	52		 push	 edx
  001e1	68 00 00 00 00	 push	 OFFSET ??_C@_0EG@KKKJIDAO@c?3?2users?2nhv90?2projects?2eech?2ap@
  001e6	a1 00 00 00 00	 mov	 eax, DWORD PTR ?null_entity_pointer_message@@3PBDB ; null_entity_pointer_message
  001eb	50		 push	 eax
  001ec	e8 00 00 00 00	 call	 ?process_assert@@YGXPBD0H@Z ; process_assert
  001f1	c7 45 b0 00 00
	00 00		 mov	 DWORD PTR tv168[ebp], 0
$LN27@get_next_a:
  001f8	b9 01 00 00 00	 mov	 ecx, 1
  001fd	85 c9		 test	 ecx, ecx
  001ff	74 09		 je	 SHORT $LN28@get_next_a
  00201	c7 45 ac 26 00
	00 00		 mov	 DWORD PTR tv176[ebp], 38 ; 00000026H
  00208	eb 21		 jmp	 SHORT $LN29@get_next_a
$LN28@get_next_a:
  0020a	8b 15 00 00 00
	00		 mov	 edx, DWORD PTR ?__LINE__Var@?0??get_next_air_threat@@YGPAUENTITY@@XZ@4JA
  00210	83 c2 22	 add	 edx, 34			; 00000022H
  00213	52		 push	 edx
  00214	68 00 00 00 00	 push	 OFFSET ??_C@_0EG@KKKJIDAO@c?3?2users?2nhv90?2projects?2eech?2ap@
  00219	a1 00 00 00 00	 mov	 eax, DWORD PTR ?overload_invalid_list_type_message@@3PBDB ; overload_invalid_list_type_message
  0021e	50		 push	 eax
  0021f	e8 00 00 00 00	 call	 ?process_assert@@YGXPBD0H@Z ; process_assert
  00224	c7 45 ac 00 00
	00 00		 mov	 DWORD PTR tv176[ebp], 0
$LN29@get_next_a:
  0022b	6a 26		 push	 38			; 00000026H
  0022d	8b 4d f8	 mov	 ecx, DWORD PTR _threat$[ebp]
  00230	51		 push	 ecx
  00231	69 55 b0 b4 00
	00 00		 imul	 edx, DWORD PTR tv168[ebp], 180
  00238	8b 45 ac	 mov	 eax, DWORD PTR tv176[ebp]
  0023b	8b 8c 82 00 00
	00 00		 mov	 ecx, DWORD PTR ?fn_get_local_entity_child_succ@@3PAY0CN@P6GPAUENTITY@@PAU1@W4LIST_TYPES@@@ZA[edx+eax*4]
  00242	ff d1		 call	 ecx
  00244	89 45 f8	 mov	 DWORD PTR _threat$[ebp], eax
$LN2@get_next_a:

; 3531 : 
; 3532 : 		while (threat)

  00247	83 7d f8 00	 cmp	 DWORD PTR _threat$[ebp], 0
  0024b	0f 84 9b 00 00
	00		 je	 $LN9@get_next_a

; 3533 : 		{
; 3534 : 			if (get_valid_air_threat (threat, source_side))

  00251	8b 45 f4	 mov	 eax, DWORD PTR _source_side$[ebp]
  00254	50		 push	 eax
  00255	8b 4d f8	 mov	 ecx, DWORD PTR _threat$[ebp]
  00258	51		 push	 ecx
  00259	e8 00 00 00 00	 call	 ?get_valid_air_threat@@YGHPAUENTITY@@W4ENTITY_SIDES@@@Z ; get_valid_air_threat
  0025e	85 c0		 test	 eax, eax
  00260	74 05		 je	 SHORT $LN10@get_next_a

; 3535 : 			{
; 3536 : 				break;

  00262	e9 85 00 00 00	 jmp	 $LN9@get_next_a
$LN10@get_next_a:

; 3537 : 			}
; 3538 : 
; 3539 : 			threat = get_local_entity_child_succ (threat, LIST_TYPE_TARGET);

  00267	83 7d f8 00	 cmp	 DWORD PTR _threat$[ebp], 0
  0026b	74 0a		 je	 SHORT $LN30@get_next_a
  0026d	8b 45 f8	 mov	 eax, DWORD PTR _threat$[ebp]
  00270	8b 08		 mov	 ecx, DWORD PTR [eax]
  00272	89 4d b0	 mov	 DWORD PTR tv193[ebp], ecx
  00275	eb 21		 jmp	 SHORT $LN31@get_next_a
$LN30@get_next_a:
  00277	8b 15 00 00 00
	00		 mov	 edx, DWORD PTR ?__LINE__Var@?0??get_next_air_threat@@YGPAUENTITY@@XZ@4JA
  0027d	83 c2 2b	 add	 edx, 43			; 0000002bH
  00280	52		 push	 edx
  00281	68 00 00 00 00	 push	 OFFSET ??_C@_0EG@KKKJIDAO@c?3?2users?2nhv90?2projects?2eech?2ap@
  00286	a1 00 00 00 00	 mov	 eax, DWORD PTR ?null_entity_pointer_message@@3PBDB ; null_entity_pointer_message
  0028b	50		 push	 eax
  0028c	e8 00 00 00 00	 call	 ?process_assert@@YGXPBD0H@Z ; process_assert
  00291	c7 45 b0 00 00
	00 00		 mov	 DWORD PTR tv193[ebp], 0
$LN31@get_next_a:
  00298	b9 01 00 00 00	 mov	 ecx, 1
  0029d	85 c9		 test	 ecx, ecx
  0029f	74 09		 je	 SHORT $LN32@get_next_a
  002a1	c7 45 ac 26 00
	00 00		 mov	 DWORD PTR tv201[ebp], 38 ; 00000026H
  002a8	eb 21		 jmp	 SHORT $LN33@get_next_a
$LN32@get_next_a:
  002aa	8b 15 00 00 00
	00		 mov	 edx, DWORD PTR ?__LINE__Var@?0??get_next_air_threat@@YGPAUENTITY@@XZ@4JA
  002b0	83 c2 2b	 add	 edx, 43			; 0000002bH
  002b3	52		 push	 edx
  002b4	68 00 00 00 00	 push	 OFFSET ??_C@_0EG@KKKJIDAO@c?3?2users?2nhv90?2projects?2eech?2ap@
  002b9	a1 00 00 00 00	 mov	 eax, DWORD PTR ?overload_invalid_list_type_message@@3PBDB ; overload_invalid_list_type_message
  002be	50		 push	 eax
  002bf	e8 00 00 00 00	 call	 ?process_assert@@YGXPBD0H@Z ; process_assert
  002c4	c7 45 ac 00 00
	00 00		 mov	 DWORD PTR tv201[ebp], 0
$LN33@get_next_a:
  002cb	6a 26		 push	 38			; 00000026H
  002cd	8b 4d f8	 mov	 ecx, DWORD PTR _threat$[ebp]
  002d0	51		 push	 ecx
  002d1	69 55 b0 b4 00
	00 00		 imul	 edx, DWORD PTR tv193[ebp], 180
  002d8	8b 45 ac	 mov	 eax, DWORD PTR tv201[ebp]
  002db	8b 8c 82 00 00
	00 00		 mov	 ecx, DWORD PTR ?fn_get_local_entity_child_succ@@3PAY0CN@P6GPAUENTITY@@PAU1@W4LIST_TYPES@@@ZA[edx+eax*4]
  002e2	ff d1		 call	 ecx
  002e4	89 45 f8	 mov	 DWORD PTR _threat$[ebp], eax

; 3540 : 		}

  002e7	e9 5b ff ff ff	 jmp	 $LN2@get_next_a
$LN9@get_next_a:

; 3541 : 	}
; 3542 : 
; 3543 : 	//
; 3544 : 	// find first threat in list
; 3545 : 	//
; 3546 : 
; 3547 : 	if (!threat)

  002ec	83 7d f8 00	 cmp	 DWORD PTR _threat$[ebp], 0
  002f0	0f 85 25 01 00
	00		 jne	 $LN11@get_next_a

; 3548 : 	{
; 3549 : 		threat = get_local_entity_first_child (source, LIST_TYPE_TARGET);

  002f6	83 7d fc 00	 cmp	 DWORD PTR _source$[ebp], 0
  002fa	74 0a		 je	 SHORT $LN34@get_next_a
  002fc	8b 45 fc	 mov	 eax, DWORD PTR _source$[ebp]
  002ff	8b 08		 mov	 ecx, DWORD PTR [eax]
  00301	89 4d b0	 mov	 DWORD PTR tv214[ebp], ecx
  00304	eb 21		 jmp	 SHORT $LN35@get_next_a
$LN34@get_next_a:
  00306	8b 15 00 00 00
	00		 mov	 edx, DWORD PTR ?__LINE__Var@?0??get_next_air_threat@@YGPAUENTITY@@XZ@4JA
  0030c	83 c2 35	 add	 edx, 53			; 00000035H
  0030f	52		 push	 edx
  00310	68 00 00 00 00	 push	 OFFSET ??_C@_0EG@KKKJIDAO@c?3?2users?2nhv90?2projects?2eech?2ap@
  00315	a1 00 00 00 00	 mov	 eax, DWORD PTR ?null_entity_pointer_message@@3PBDB ; null_entity_pointer_message
  0031a	50		 push	 eax
  0031b	e8 00 00 00 00	 call	 ?process_assert@@YGXPBD0H@Z ; process_assert
  00320	c7 45 b0 00 00
	00 00		 mov	 DWORD PTR tv214[ebp], 0
$LN35@get_next_a:
  00327	b9 01 00 00 00	 mov	 ecx, 1
  0032c	85 c9		 test	 ecx, ecx
  0032e	74 09		 je	 SHORT $LN36@get_next_a
  00330	c7 45 ac 26 00
	00 00		 mov	 DWORD PTR tv222[ebp], 38 ; 00000026H
  00337	eb 21		 jmp	 SHORT $LN37@get_next_a
$LN36@get_next_a:
  00339	8b 15 00 00 00
	00		 mov	 edx, DWORD PTR ?__LINE__Var@?0??get_next_air_threat@@YGPAUENTITY@@XZ@4JA
  0033f	83 c2 35	 add	 edx, 53			; 00000035H
  00342	52		 push	 edx
  00343	68 00 00 00 00	 push	 OFFSET ??_C@_0EG@KKKJIDAO@c?3?2users?2nhv90?2projects?2eech?2ap@
  00348	a1 00 00 00 00	 mov	 eax, DWORD PTR ?overload_invalid_list_type_message@@3PBDB ; overload_invalid_list_type_message
  0034d	50		 push	 eax
  0034e	e8 00 00 00 00	 call	 ?process_assert@@YGXPBD0H@Z ; process_assert
  00353	c7 45 ac 00 00
	00 00		 mov	 DWORD PTR tv222[ebp], 0
$LN37@get_next_a:
  0035a	6a 26		 push	 38			; 00000026H
  0035c	8b 4d fc	 mov	 ecx, DWORD PTR _source$[ebp]
  0035f	51		 push	 ecx
  00360	69 55 b0 b4 00
	00 00		 imul	 edx, DWORD PTR tv214[ebp], 180
  00367	8b 45 ac	 mov	 eax, DWORD PTR tv222[ebp]
  0036a	8b 8c 82 00 00
	00 00		 mov	 ecx, DWORD PTR ?fn_get_local_entity_first_child@@3PAY0CN@P6GPAUENTITY@@PAU1@W4LIST_TYPES@@@ZA[edx+eax*4]
  00371	ff d1		 call	 ecx
  00373	89 45 f8	 mov	 DWORD PTR _threat$[ebp], eax
$LN4@get_next_a:

; 3550 : 
; 3551 : 		while (threat)

  00376	83 7d f8 00	 cmp	 DWORD PTR _threat$[ebp], 0
  0037a	0f 84 9b 00 00
	00		 je	 $LN11@get_next_a

; 3552 : 		{
; 3553 : 			if (get_valid_air_threat (threat, source_side))

  00380	8b 45 f4	 mov	 eax, DWORD PTR _source_side$[ebp]
  00383	50		 push	 eax
  00384	8b 4d f8	 mov	 ecx, DWORD PTR _threat$[ebp]
  00387	51		 push	 ecx
  00388	e8 00 00 00 00	 call	 ?get_valid_air_threat@@YGHPAUENTITY@@W4ENTITY_SIDES@@@Z ; get_valid_air_threat
  0038d	85 c0		 test	 eax, eax
  0038f	74 05		 je	 SHORT $LN12@get_next_a

; 3554 : 			{
; 3555 : 				break;

  00391	e9 85 00 00 00	 jmp	 $LN11@get_next_a
$LN12@get_next_a:

; 3556 : 			}
; 3557 : 
; 3558 : 			threat = get_local_entity_child_succ (threat, LIST_TYPE_TARGET);

  00396	83 7d f8 00	 cmp	 DWORD PTR _threat$[ebp], 0
  0039a	74 0a		 je	 SHORT $LN38@get_next_a
  0039c	8b 45 f8	 mov	 eax, DWORD PTR _threat$[ebp]
  0039f	8b 08		 mov	 ecx, DWORD PTR [eax]
  003a1	89 4d b0	 mov	 DWORD PTR tv239[ebp], ecx
  003a4	eb 21		 jmp	 SHORT $LN39@get_next_a
$LN38@get_next_a:
  003a6	8b 15 00 00 00
	00		 mov	 edx, DWORD PTR ?__LINE__Var@?0??get_next_air_threat@@YGPAUENTITY@@XZ@4JA
  003ac	83 c2 3e	 add	 edx, 62			; 0000003eH
  003af	52		 push	 edx
  003b0	68 00 00 00 00	 push	 OFFSET ??_C@_0EG@KKKJIDAO@c?3?2users?2nhv90?2projects?2eech?2ap@
  003b5	a1 00 00 00 00	 mov	 eax, DWORD PTR ?null_entity_pointer_message@@3PBDB ; null_entity_pointer_message
  003ba	50		 push	 eax
  003bb	e8 00 00 00 00	 call	 ?process_assert@@YGXPBD0H@Z ; process_assert
  003c0	c7 45 b0 00 00
	00 00		 mov	 DWORD PTR tv239[ebp], 0
$LN39@get_next_a:
  003c7	b9 01 00 00 00	 mov	 ecx, 1
  003cc	85 c9		 test	 ecx, ecx
  003ce	74 09		 je	 SHORT $LN40@get_next_a
  003d0	c7 45 ac 26 00
	00 00		 mov	 DWORD PTR tv247[ebp], 38 ; 00000026H
  003d7	eb 21		 jmp	 SHORT $LN41@get_next_a
$LN40@get_next_a:
  003d9	8b 15 00 00 00
	00		 mov	 edx, DWORD PTR ?__LINE__Var@?0??get_next_air_threat@@YGPAUENTITY@@XZ@4JA
  003df	83 c2 3e	 add	 edx, 62			; 0000003eH
  003e2	52		 push	 edx
  003e3	68 00 00 00 00	 push	 OFFSET ??_C@_0EG@KKKJIDAO@c?3?2users?2nhv90?2projects?2eech?2ap@
  003e8	a1 00 00 00 00	 mov	 eax, DWORD PTR ?overload_invalid_list_type_message@@3PBDB ; overload_invalid_list_type_message
  003ed	50		 push	 eax
  003ee	e8 00 00 00 00	 call	 ?process_assert@@YGXPBD0H@Z ; process_assert
  003f3	c7 45 ac 00 00
	00 00		 mov	 DWORD PTR tv247[ebp], 0
$LN41@get_next_a:
  003fa	6a 26		 push	 38			; 00000026H
  003fc	8b 4d f8	 mov	 ecx, DWORD PTR _threat$[ebp]
  003ff	51		 push	 ecx
  00400	69 55 b0 b4 00
	00 00		 imul	 edx, DWORD PTR tv239[ebp], 180
  00407	8b 45 ac	 mov	 eax, DWORD PTR tv247[ebp]
  0040a	8b 8c 82 00 00
	00 00		 mov	 ecx, DWORD PTR ?fn_get_local_entity_child_succ@@3PAY0CN@P6GPAUENTITY@@PAU1@W4LIST_TYPES@@@ZA[edx+eax*4]
  00411	ff d1		 call	 ecx
  00413	89 45 f8	 mov	 DWORD PTR _threat$[ebp], eax

; 3559 : 		}

  00416	e9 5b ff ff ff	 jmp	 $LN4@get_next_a
$LN11@get_next_a:

; 3560 : 	}
; 3561 : 
; 3562 : 	return (threat);

  0041b	8b 45 f8	 mov	 eax, DWORD PTR _threat$[ebp]

; 3563 : }

  0041e	5f		 pop	 edi
  0041f	5e		 pop	 esi
  00420	5b		 pop	 ebx
  00421	8b e5		 mov	 esp, ebp
  00423	5d		 pop	 ebp
  00424	c3		 ret	 0
?get_next_air_threat@@YGPAUENTITY@@XZ ENDP		; get_next_air_threat
_TEXT	ENDS
; Function compile flags: /Odtp /ZI
; File c:\users\nhv90\projects\eech\aphavoc\source\gunships\views\vm_vckpt.c
;	COMDAT ?get_first_air_threat@@YGPAUENTITY@@XZ
_TEXT	SEGMENT
tv204 = -104						; size = 4
tv180 = -104						; size = 4
tv155 = -104						; size = 4
tv135 = -104						; size = 4
tv83 = -104						; size = 4
tv196 = -100						; size = 4
tv172 = -100						; size = 4
tv147 = -100						; size = 4
tv95 = -100						; size = 4
tv75 = -100						; size = 4
_threat_position$ = -32					; size = 4
_source_position$ = -28					; size = 4
_closest_threat_range$ = -24				; size = 4
_range$ = -20						; size = 4
_source_side$ = -16					; size = 4
_closest_threat$ = -12					; size = 4
_threat$ = -8						; size = 4
_source$ = -4						; size = 4
?get_first_air_threat@@YGPAUENTITY@@XZ PROC		; get_first_air_threat, COMDAT

; 3438 : {

  00000	55		 push	 ebp
  00001	8b ec		 mov	 ebp, esp
  00003	83 ec 68	 sub	 esp, 104		; 00000068H
  00006	53		 push	 ebx
  00007	56		 push	 esi
  00008	57		 push	 edi

; 3439 : 	entity
; 3440 : 		*source,
; 3441 : 		*threat,
; 3442 : 		*closest_threat;
; 3443 : 
; 3444 : 	entity_sides
; 3445 : 		source_side;
; 3446 : 
; 3447 : 	float
; 3448 : 		range,
; 3449 : 		closest_threat_range;
; 3450 : 
; 3451 : 	vec3d
; 3452 : 		*source_position,
; 3453 : 		*threat_position;
; 3454 : 
; 3455 : 	source = get_gunship_entity ();

  00009	a1 00 00 00 00	 mov	 eax, DWORD PTR ?gunship_entity@@3PAUENTITY@@A ; gunship_entity
  0000e	89 45 fc	 mov	 DWORD PTR _source$[ebp], eax

; 3456 : 
; 3457 : 	ASSERT (source);

  00011	83 7d fc 00	 cmp	 DWORD PTR _source$[ebp], 0
  00015	75 18		 jne	 SHORT $LN4@get_first_
  00017	a1 00 00 00 00	 mov	 eax, DWORD PTR ?__LINE__Var@?0??get_first_air_threat@@YGPAUENTITY@@XZ@4JA
  0001c	83 c0 13	 add	 eax, 19			; 00000013H
  0001f	50		 push	 eax
  00020	68 00 00 00 00	 push	 OFFSET ??_C@_0EG@KKKJIDAO@c?3?2users?2nhv90?2projects?2eech?2ap@
  00025	68 00 00 00 00	 push	 OFFSET ??_C@_06OEKOLKIL@source@
  0002a	e8 00 00 00 00	 call	 ?process_assert@@YGXPBD0H@Z ; process_assert
$LN4@get_first_:

; 3458 : 
; 3459 : 	source_side = (entity_sides) get_local_entity_int_value (source, INT_TYPE_SIDE);

  0002f	83 7d fc 00	 cmp	 DWORD PTR _source$[ebp], 0
  00033	74 0a		 je	 SHORT $LN8@get_first_
  00035	8b 45 fc	 mov	 eax, DWORD PTR _source$[ebp]
  00038	8b 08		 mov	 ecx, DWORD PTR [eax]
  0003a	89 4d 9c	 mov	 DWORD PTR tv75[ebp], ecx
  0003d	eb 21		 jmp	 SHORT $LN9@get_first_
$LN8@get_first_:
  0003f	8b 15 00 00 00
	00		 mov	 edx, DWORD PTR ?__LINE__Var@?0??get_first_air_threat@@YGPAUENTITY@@XZ@4JA
  00045	83 c2 15	 add	 edx, 21			; 00000015H
  00048	52		 push	 edx
  00049	68 00 00 00 00	 push	 OFFSET ??_C@_0EG@KKKJIDAO@c?3?2users?2nhv90?2projects?2eech?2ap@
  0004e	a1 00 00 00 00	 mov	 eax, DWORD PTR ?null_entity_pointer_message@@3PBDB ; null_entity_pointer_message
  00053	50		 push	 eax
  00054	e8 00 00 00 00	 call	 ?process_assert@@YGXPBD0H@Z ; process_assert
  00059	c7 45 9c 00 00
	00 00		 mov	 DWORD PTR tv75[ebp], 0
$LN9@get_first_:
  00060	b9 01 00 00 00	 mov	 ecx, 1
  00065	85 c9		 test	 ecx, ecx
  00067	74 09		 je	 SHORT $LN10@get_first_
  00069	c7 45 98 bb 00
	00 00		 mov	 DWORD PTR tv83[ebp], 187 ; 000000bbH
  00070	eb 21		 jmp	 SHORT $LN11@get_first_
$LN10@get_first_:
  00072	8b 15 00 00 00
	00		 mov	 edx, DWORD PTR ?__LINE__Var@?0??get_first_air_threat@@YGPAUENTITY@@XZ@4JA
  00078	83 c2 15	 add	 edx, 21			; 00000015H
  0007b	52		 push	 edx
  0007c	68 00 00 00 00	 push	 OFFSET ??_C@_0EG@KKKJIDAO@c?3?2users?2nhv90?2projects?2eech?2ap@
  00081	a1 00 00 00 00	 mov	 eax, DWORD PTR ?overload_invalid_int_type_message@@3PBDB ; overload_invalid_int_type_message
  00086	50		 push	 eax
  00087	e8 00 00 00 00	 call	 ?process_assert@@YGXPBD0H@Z ; process_assert
  0008c	c7 45 98 00 00
	00 00		 mov	 DWORD PTR tv83[ebp], 0
$LN11@get_first_:
  00093	68 bb 00 00 00	 push	 187			; 000000bbH
  00098	8b 4d fc	 mov	 ecx, DWORD PTR _source$[ebp]
  0009b	51		 push	 ecx
  0009c	69 55 9c 5c 04
	00 00		 imul	 edx, DWORD PTR tv75[ebp], 1116
  000a3	8b 45 98	 mov	 eax, DWORD PTR tv83[ebp]
  000a6	8b 8c 82 00 00
	00 00		 mov	 ecx, DWORD PTR ?fn_get_local_entity_int_value@@3PAY0BBH@P6GHPAUENTITY@@W4INT_TYPES@@@ZA[edx+eax*4]
  000ad	ff d1		 call	 ecx
  000af	89 45 f0	 mov	 DWORD PTR _source_side$[ebp], eax

; 3460 : 
; 3461 : 	source_position = get_local_entity_vec3d_ptr (source, VEC3D_TYPE_POSITION);

  000b2	83 7d fc 00	 cmp	 DWORD PTR _source$[ebp], 0
  000b6	74 0a		 je	 SHORT $LN12@get_first_
  000b8	8b 45 fc	 mov	 eax, DWORD PTR _source$[ebp]
  000bb	8b 08		 mov	 ecx, DWORD PTR [eax]
  000bd	89 4d 9c	 mov	 DWORD PTR tv95[ebp], ecx
  000c0	eb 21		 jmp	 SHORT $LN13@get_first_
$LN12@get_first_:
  000c2	8b 15 00 00 00
	00		 mov	 edx, DWORD PTR ?__LINE__Var@?0??get_first_air_threat@@YGPAUENTITY@@XZ@4JA
  000c8	83 c2 17	 add	 edx, 23			; 00000017H
  000cb	52		 push	 edx
  000cc	68 00 00 00 00	 push	 OFFSET ??_C@_0EG@KKKJIDAO@c?3?2users?2nhv90?2projects?2eech?2ap@
  000d1	a1 00 00 00 00	 mov	 eax, DWORD PTR ?null_entity_pointer_message@@3PBDB ; null_entity_pointer_message
  000d6	50		 push	 eax
  000d7	e8 00 00 00 00	 call	 ?process_assert@@YGXPBD0H@Z ; process_assert
  000dc	c7 45 9c 00 00
	00 00		 mov	 DWORD PTR tv95[ebp], 0
$LN13@get_first_:
  000e3	b9 01 00 00 00	 mov	 ecx, 1
  000e8	85 c9		 test	 ecx, ecx
  000ea	74 09		 je	 SHORT $LN14@get_first_
  000ec	c7 45 98 08 00
	00 00		 mov	 DWORD PTR tv135[ebp], 8
  000f3	eb 21		 jmp	 SHORT $LN15@get_first_
$LN14@get_first_:
  000f5	8b 15 00 00 00
	00		 mov	 edx, DWORD PTR ?__LINE__Var@?0??get_first_air_threat@@YGPAUENTITY@@XZ@4JA
  000fb	83 c2 17	 add	 edx, 23			; 00000017H
  000fe	52		 push	 edx
  000ff	68 00 00 00 00	 push	 OFFSET ??_C@_0EG@KKKJIDAO@c?3?2users?2nhv90?2projects?2eech?2ap@
  00104	a1 00 00 00 00	 mov	 eax, DWORD PTR ?overload_invalid_vec3d_type_message@@3PBDB ; overload_invalid_vec3d_type_message
  00109	50		 push	 eax
  0010a	e8 00 00 00 00	 call	 ?process_assert@@YGXPBD0H@Z ; process_assert
  0010f	c7 45 98 00 00
	00 00		 mov	 DWORD PTR tv135[ebp], 0
$LN15@get_first_:
  00116	6a 08		 push	 8
  00118	8b 4d fc	 mov	 ecx, DWORD PTR _source$[ebp]
  0011b	51		 push	 ecx
  0011c	6b 55 9c 60	 imul	 edx, DWORD PTR tv95[ebp], 96
  00120	8b 45 98	 mov	 eax, DWORD PTR tv135[ebp]
  00123	8b 8c 82 00 00
	00 00		 mov	 ecx, DWORD PTR ?fn_get_local_entity_vec3d_ptr@@3PAY0BI@P6GPAUVEC3D@@PAUENTITY@@W4VEC3D_TYPES@@@ZA[edx+eax*4]
  0012a	ff d1		 call	 ecx
  0012c	89 45 e4	 mov	 DWORD PTR _source_position$[ebp], eax

; 3462 : 
; 3463 : 	closest_threat = NULL;

  0012f	c7 45 f4 00 00
	00 00		 mov	 DWORD PTR _closest_threat$[ebp], 0

; 3464 : 
; 3465 : 	closest_threat_range = FLT_MAX;

  00136	f3 0f 10 05 00
	00 00 00	 movss	 xmm0, DWORD PTR __real@7f7fffff
  0013e	f3 0f 11 45 e8	 movss	 DWORD PTR _closest_threat_range$[ebp], xmm0

; 3466 : 
; 3467 : 	threat = get_local_entity_first_child (source, LIST_TYPE_TARGET);

  00143	83 7d fc 00	 cmp	 DWORD PTR _source$[ebp], 0
  00147	74 0a		 je	 SHORT $LN16@get_first_
  00149	8b 45 fc	 mov	 eax, DWORD PTR _source$[ebp]
  0014c	8b 08		 mov	 ecx, DWORD PTR [eax]
  0014e	89 4d 9c	 mov	 DWORD PTR tv147[ebp], ecx
  00151	eb 21		 jmp	 SHORT $LN17@get_first_
$LN16@get_first_:
  00153	8b 15 00 00 00
	00		 mov	 edx, DWORD PTR ?__LINE__Var@?0??get_first_air_threat@@YGPAUENTITY@@XZ@4JA
  00159	83 c2 1d	 add	 edx, 29			; 0000001dH
  0015c	52		 push	 edx
  0015d	68 00 00 00 00	 push	 OFFSET ??_C@_0EG@KKKJIDAO@c?3?2users?2nhv90?2projects?2eech?2ap@
  00162	a1 00 00 00 00	 mov	 eax, DWORD PTR ?null_entity_pointer_message@@3PBDB ; null_entity_pointer_message
  00167	50		 push	 eax
  00168	e8 00 00 00 00	 call	 ?process_assert@@YGXPBD0H@Z ; process_assert
  0016d	c7 45 9c 00 00
	00 00		 mov	 DWORD PTR tv147[ebp], 0
$LN17@get_first_:
  00174	b9 01 00 00 00	 mov	 ecx, 1
  00179	85 c9		 test	 ecx, ecx
  0017b	74 09		 je	 SHORT $LN18@get_first_
  0017d	c7 45 98 26 00
	00 00		 mov	 DWORD PTR tv155[ebp], 38 ; 00000026H
  00184	eb 21		 jmp	 SHORT $LN19@get_first_
$LN18@get_first_:
  00186	8b 15 00 00 00
	00		 mov	 edx, DWORD PTR ?__LINE__Var@?0??get_first_air_threat@@YGPAUENTITY@@XZ@4JA
  0018c	83 c2 1d	 add	 edx, 29			; 0000001dH
  0018f	52		 push	 edx
  00190	68 00 00 00 00	 push	 OFFSET ??_C@_0EG@KKKJIDAO@c?3?2users?2nhv90?2projects?2eech?2ap@
  00195	a1 00 00 00 00	 mov	 eax, DWORD PTR ?overload_invalid_list_type_message@@3PBDB ; overload_invalid_list_type_message
  0019a	50		 push	 eax
  0019b	e8 00 00 00 00	 call	 ?process_assert@@YGXPBD0H@Z ; process_assert
  001a0	c7 45 98 00 00
	00 00		 mov	 DWORD PTR tv155[ebp], 0
$LN19@get_first_:
  001a7	6a 26		 push	 38			; 00000026H
  001a9	8b 4d fc	 mov	 ecx, DWORD PTR _source$[ebp]
  001ac	51		 push	 ecx
  001ad	69 55 9c b4 00
	00 00		 imul	 edx, DWORD PTR tv147[ebp], 180
  001b4	8b 45 98	 mov	 eax, DWORD PTR tv155[ebp]
  001b7	8b 8c 82 00 00
	00 00		 mov	 ecx, DWORD PTR ?fn_get_local_entity_first_child@@3PAY0CN@P6GPAUENTITY@@PAU1@W4LIST_TYPES@@@ZA[edx+eax*4]
  001be	ff d1		 call	 ecx
  001c0	89 45 f8	 mov	 DWORD PTR _threat$[ebp], eax
$LN2@get_first_:

; 3468 : 
; 3469 : 	while (threat)

  001c3	83 7d f8 00	 cmp	 DWORD PTR _threat$[ebp], 0
  001c7	0f 84 42 01 00
	00		 je	 $LN3@get_first_

; 3470 : 	{
; 3471 : 		if (get_valid_air_threat (threat, source_side))

  001cd	8b 45 f0	 mov	 eax, DWORD PTR _source_side$[ebp]
  001d0	50		 push	 eax
  001d1	8b 4d f8	 mov	 ecx, DWORD PTR _threat$[ebp]
  001d4	51		 push	 ecx
  001d5	e8 00 00 00 00	 call	 ?get_valid_air_threat@@YGHPAUENTITY@@W4ENTITY_SIDES@@@Z ; get_valid_air_threat
  001da	85 c0		 test	 eax, eax
  001dc	0f 84 a8 00 00
	00		 je	 $LN6@get_first_

; 3472 : 		{
; 3473 : 			threat_position = get_local_entity_vec3d_ptr (threat, VEC3D_TYPE_POSITION);

  001e2	83 7d f8 00	 cmp	 DWORD PTR _threat$[ebp], 0
  001e6	74 0a		 je	 SHORT $LN20@get_first_
  001e8	8b 45 f8	 mov	 eax, DWORD PTR _threat$[ebp]
  001eb	8b 08		 mov	 ecx, DWORD PTR [eax]
  001ed	89 4d 9c	 mov	 DWORD PTR tv172[ebp], ecx
  001f0	eb 21		 jmp	 SHORT $LN21@get_first_
$LN20@get_first_:
  001f2	8b 15 00 00 00
	00		 mov	 edx, DWORD PTR ?__LINE__Var@?0??get_first_air_threat@@YGPAUENTITY@@XZ@4JA
  001f8	83 c2 23	 add	 edx, 35			; 00000023H
  001fb	52		 push	 edx
  001fc	68 00 00 00 00	 push	 OFFSET ??_C@_0EG@KKKJIDAO@c?3?2users?2nhv90?2projects?2eech?2ap@
  00201	a1 00 00 00 00	 mov	 eax, DWORD PTR ?null_entity_pointer_message@@3PBDB ; null_entity_pointer_message
  00206	50		 push	 eax
  00207	e8 00 00 00 00	 call	 ?process_assert@@YGXPBD0H@Z ; process_assert
  0020c	c7 45 9c 00 00
	00 00		 mov	 DWORD PTR tv172[ebp], 0
$LN21@get_first_:
  00213	b9 01 00 00 00	 mov	 ecx, 1
  00218	85 c9		 test	 ecx, ecx
  0021a	74 09		 je	 SHORT $LN22@get_first_
  0021c	c7 45 98 08 00
	00 00		 mov	 DWORD PTR tv180[ebp], 8
  00223	eb 21		 jmp	 SHORT $LN23@get_first_
$LN22@get_first_:
  00225	8b 15 00 00 00
	00		 mov	 edx, DWORD PTR ?__LINE__Var@?0??get_first_air_threat@@YGPAUENTITY@@XZ@4JA
  0022b	83 c2 23	 add	 edx, 35			; 00000023H
  0022e	52		 push	 edx
  0022f	68 00 00 00 00	 push	 OFFSET ??_C@_0EG@KKKJIDAO@c?3?2users?2nhv90?2projects?2eech?2ap@
  00234	a1 00 00 00 00	 mov	 eax, DWORD PTR ?overload_invalid_vec3d_type_message@@3PBDB ; overload_invalid_vec3d_type_message
  00239	50		 push	 eax
  0023a	e8 00 00 00 00	 call	 ?process_assert@@YGXPBD0H@Z ; process_assert
  0023f	c7 45 98 00 00
	00 00		 mov	 DWORD PTR tv180[ebp], 0
$LN23@get_first_:
  00246	6a 08		 push	 8
  00248	8b 4d f8	 mov	 ecx, DWORD PTR _threat$[ebp]
  0024b	51		 push	 ecx
  0024c	6b 55 9c 60	 imul	 edx, DWORD PTR tv172[ebp], 96
  00250	8b 45 98	 mov	 eax, DWORD PTR tv180[ebp]
  00253	8b 8c 82 00 00
	00 00		 mov	 ecx, DWORD PTR ?fn_get_local_entity_vec3d_ptr@@3PAY0BI@P6GPAUVEC3D@@PAUENTITY@@W4VEC3D_TYPES@@@ZA[edx+eax*4]
  0025a	ff d1		 call	 ecx
  0025c	89 45 e0	 mov	 DWORD PTR _threat_position$[ebp], eax

; 3474 : 
; 3475 : 			range = get_sqr_3d_range (source_position, threat_position);

  0025f	8b 45 e0	 mov	 eax, DWORD PTR _threat_position$[ebp]
  00262	50		 push	 eax
  00263	8b 4d e4	 mov	 ecx, DWORD PTR _source_position$[ebp]
  00266	51		 push	 ecx
  00267	e8 00 00 00 00	 call	 ?get_sqr_3d_range@@YGMPBUVEC3D@@0@Z ; get_sqr_3d_range
  0026c	d9 5d ec	 fstp	 DWORD PTR _range$[ebp]

; 3476 : 
; 3477 : 			if (range < closest_threat_range)

  0026f	f3 0f 10 45 e8	 movss	 xmm0, DWORD PTR _closest_threat_range$[ebp]
  00274	0f 2f 45 ec	 comiss	 xmm0, DWORD PTR _range$[ebp]
  00278	76 10		 jbe	 SHORT $LN6@get_first_

; 3478 : 			{
; 3479 : 				closest_threat = threat;

  0027a	8b 45 f8	 mov	 eax, DWORD PTR _threat$[ebp]
  0027d	89 45 f4	 mov	 DWORD PTR _closest_threat$[ebp], eax

; 3480 : 
; 3481 : 				closest_threat_range = range;

  00280	f3 0f 10 45 ec	 movss	 xmm0, DWORD PTR _range$[ebp]
  00285	f3 0f 11 45 e8	 movss	 DWORD PTR _closest_threat_range$[ebp], xmm0
$LN6@get_first_:

; 3482 : 			}
; 3483 : 		}
; 3484 : 
; 3485 : 		threat = get_local_entity_child_succ (threat, LIST_TYPE_TARGET);

  0028a	83 7d f8 00	 cmp	 DWORD PTR _threat$[ebp], 0
  0028e	74 0a		 je	 SHORT $LN24@get_first_
  00290	8b 45 f8	 mov	 eax, DWORD PTR _threat$[ebp]
  00293	8b 08		 mov	 ecx, DWORD PTR [eax]
  00295	89 4d 9c	 mov	 DWORD PTR tv196[ebp], ecx
  00298	eb 21		 jmp	 SHORT $LN25@get_first_
$LN24@get_first_:
  0029a	8b 15 00 00 00
	00		 mov	 edx, DWORD PTR ?__LINE__Var@?0??get_first_air_threat@@YGPAUENTITY@@XZ@4JA
  002a0	83 c2 2f	 add	 edx, 47			; 0000002fH
  002a3	52		 push	 edx
  002a4	68 00 00 00 00	 push	 OFFSET ??_C@_0EG@KKKJIDAO@c?3?2users?2nhv90?2projects?2eech?2ap@
  002a9	a1 00 00 00 00	 mov	 eax, DWORD PTR ?null_entity_pointer_message@@3PBDB ; null_entity_pointer_message
  002ae	50		 push	 eax
  002af	e8 00 00 00 00	 call	 ?process_assert@@YGXPBD0H@Z ; process_assert
  002b4	c7 45 9c 00 00
	00 00		 mov	 DWORD PTR tv196[ebp], 0
$LN25@get_first_:
  002bb	b9 01 00 00 00	 mov	 ecx, 1
  002c0	85 c9		 test	 ecx, ecx
  002c2	74 09		 je	 SHORT $LN26@get_first_
  002c4	c7 45 98 26 00
	00 00		 mov	 DWORD PTR tv204[ebp], 38 ; 00000026H
  002cb	eb 21		 jmp	 SHORT $LN27@get_first_
$LN26@get_first_:
  002cd	8b 15 00 00 00
	00		 mov	 edx, DWORD PTR ?__LINE__Var@?0??get_first_air_threat@@YGPAUENTITY@@XZ@4JA
  002d3	83 c2 2f	 add	 edx, 47			; 0000002fH
  002d6	52		 push	 edx
  002d7	68 00 00 00 00	 push	 OFFSET ??_C@_0EG@KKKJIDAO@c?3?2users?2nhv90?2projects?2eech?2ap@
  002dc	a1 00 00 00 00	 mov	 eax, DWORD PTR ?overload_invalid_list_type_message@@3PBDB ; overload_invalid_list_type_message
  002e1	50		 push	 eax
  002e2	e8 00 00 00 00	 call	 ?process_assert@@YGXPBD0H@Z ; process_assert
  002e7	c7 45 98 00 00
	00 00		 mov	 DWORD PTR tv204[ebp], 0
$LN27@get_first_:
  002ee	6a 26		 push	 38			; 00000026H
  002f0	8b 4d f8	 mov	 ecx, DWORD PTR _threat$[ebp]
  002f3	51		 push	 ecx
  002f4	69 55 9c b4 00
	00 00		 imul	 edx, DWORD PTR tv196[ebp], 180
  002fb	8b 45 98	 mov	 eax, DWORD PTR tv204[ebp]
  002fe	8b 8c 82 00 00
	00 00		 mov	 ecx, DWORD PTR ?fn_get_local_entity_child_succ@@3PAY0CN@P6GPAUENTITY@@PAU1@W4LIST_TYPES@@@ZA[edx+eax*4]
  00305	ff d1		 call	 ecx
  00307	89 45 f8	 mov	 DWORD PTR _threat$[ebp], eax

; 3486 : 	}

  0030a	e9 b4 fe ff ff	 jmp	 $LN2@get_first_
$LN3@get_first_:

; 3487 : 
; 3488 : 	return (closest_threat);

  0030f	8b 45 f4	 mov	 eax, DWORD PTR _closest_threat$[ebp]

; 3489 : }

  00312	5f		 pop	 edi
  00313	5e		 pop	 esi
  00314	5b		 pop	 ebx
  00315	8b e5		 mov	 esp, ebp
  00317	5d		 pop	 ebp
  00318	c3		 ret	 0
?get_first_air_threat@@YGPAUENTITY@@XZ ENDP		; get_first_air_threat
_TEXT	ENDS
; Function compile flags: /Odtp /ZI
; File c:\users\nhv90\projects\eech\aphavoc\source\gunships\views\vm_vckpt.c
;	COMDAT ?get_valid_air_threat@@YGHPAUENTITY@@W4ENTITY_SIDES@@@Z
_TEXT	SEGMENT
tv151 = -72						; size = 4
tv132 = -72						; size = 4
tv81 = -72						; size = 4
tv144 = -68						; size = 4
tv93 = -68						; size = 4
tv74 = -68						; size = 4
_threat$ = 8						; size = 4
_source_side$ = 12					; size = 4
?get_valid_air_threat@@YGHPAUENTITY@@W4ENTITY_SIDES@@@Z PROC ; get_valid_air_threat, COMDAT

; 3416 : {

  00000	55		 push	 ebp
  00001	8b ec		 mov	 ebp, esp
  00003	83 ec 48	 sub	 esp, 72			; 00000048H
  00006	53		 push	 ebx
  00007	56		 push	 esi
  00008	57		 push	 edi

; 3417 : 	ASSERT (threat);

  00009	83 7d 08 00	 cmp	 DWORD PTR _threat$[ebp], 0
  0000d	75 18		 jne	 SHORT $LN2@get_valid_
  0000f	a1 00 00 00 00	 mov	 eax, DWORD PTR ?__LINE__Var@?0??get_valid_air_threat@@YGHPAUENTITY@@W4ENTITY_SIDES@@@Z@4JA
  00014	83 c0 01	 add	 eax, 1
  00017	50		 push	 eax
  00018	68 00 00 00 00	 push	 OFFSET ??_C@_0EG@KKKJIDAO@c?3?2users?2nhv90?2projects?2eech?2ap@
  0001d	68 00 00 00 00	 push	 OFFSET ??_C@_06BDLPPAPF@threat@
  00022	e8 00 00 00 00	 call	 ?process_assert@@YGXPBD0H@Z ; process_assert
$LN2@get_valid_:

; 3418 : 
; 3419 : 	if (get_local_entity_int_value (threat, INT_TYPE_IDENTIFY_AIRCRAFT))

  00027	83 7d 08 00	 cmp	 DWORD PTR _threat$[ebp], 0
  0002b	74 0a		 je	 SHORT $LN7@get_valid_
  0002d	8b 45 08	 mov	 eax, DWORD PTR _threat$[ebp]
  00030	8b 08		 mov	 ecx, DWORD PTR [eax]
  00032	89 4d bc	 mov	 DWORD PTR tv74[ebp], ecx
  00035	eb 1d		 jmp	 SHORT $LN8@get_valid_
$LN7@get_valid_:
  00037	68 5b 0d 00 00	 push	 3419			; 00000d5bH
  0003c	68 00 00 00 00	 push	 OFFSET ??_C@_0EG@KKKJIDAO@c?3?2users?2nhv90?2projects?2eech?2ap@
  00041	8b 15 00 00 00
	00		 mov	 edx, DWORD PTR ?null_entity_pointer_message@@3PBDB ; null_entity_pointer_message
  00047	52		 push	 edx
  00048	e8 00 00 00 00	 call	 ?process_assert@@YGXPBD0H@Z ; process_assert
  0004d	c7 45 bc 00 00
	00 00		 mov	 DWORD PTR tv74[ebp], 0
$LN8@get_valid_:
  00054	b8 01 00 00 00	 mov	 eax, 1
  00059	85 c0		 test	 eax, eax
  0005b	74 09		 je	 SHORT $LN9@get_valid_
  0005d	c7 45 b8 57 00
	00 00		 mov	 DWORD PTR tv81[ebp], 87	; 00000057H
  00064	eb 1d		 jmp	 SHORT $LN10@get_valid_
$LN9@get_valid_:
  00066	68 5b 0d 00 00	 push	 3419			; 00000d5bH
  0006b	68 00 00 00 00	 push	 OFFSET ??_C@_0EG@KKKJIDAO@c?3?2users?2nhv90?2projects?2eech?2ap@
  00070	8b 0d 00 00 00
	00		 mov	 ecx, DWORD PTR ?overload_invalid_int_type_message@@3PBDB ; overload_invalid_int_type_message
  00076	51		 push	 ecx
  00077	e8 00 00 00 00	 call	 ?process_assert@@YGXPBD0H@Z ; process_assert
  0007c	c7 45 b8 00 00
	00 00		 mov	 DWORD PTR tv81[ebp], 0
$LN10@get_valid_:
  00083	6a 57		 push	 87			; 00000057H
  00085	8b 55 08	 mov	 edx, DWORD PTR _threat$[ebp]
  00088	52		 push	 edx
  00089	69 45 bc 5c 04
	00 00		 imul	 eax, DWORD PTR tv74[ebp], 1116
  00090	8b 4d b8	 mov	 ecx, DWORD PTR tv81[ebp]
  00093	8b 94 88 00 00
	00 00		 mov	 edx, DWORD PTR ?fn_get_local_entity_int_value@@3PAY0BBH@P6GHPAUENTITY@@W4INT_TYPES@@@ZA[eax+ecx*4]
  0009a	ff d2		 call	 edx
  0009c	85 c0		 test	 eax, eax
  0009e	0f 84 04 01 00
	00		 je	 $LN3@get_valid_

; 3420 : 	{
; 3421 : 		if (get_local_entity_int_value (threat, INT_TYPE_VIEWABLE))

  000a4	83 7d 08 00	 cmp	 DWORD PTR _threat$[ebp], 0
  000a8	74 0a		 je	 SHORT $LN11@get_valid_
  000aa	8b 45 08	 mov	 eax, DWORD PTR _threat$[ebp]
  000ad	8b 08		 mov	 ecx, DWORD PTR [eax]
  000af	89 4d bc	 mov	 DWORD PTR tv93[ebp], ecx
  000b2	eb 1d		 jmp	 SHORT $LN12@get_valid_
$LN11@get_valid_:
  000b4	68 5d 0d 00 00	 push	 3421			; 00000d5dH
  000b9	68 00 00 00 00	 push	 OFFSET ??_C@_0EG@KKKJIDAO@c?3?2users?2nhv90?2projects?2eech?2ap@
  000be	8b 15 00 00 00
	00		 mov	 edx, DWORD PTR ?null_entity_pointer_message@@3PBDB ; null_entity_pointer_message
  000c4	52		 push	 edx
  000c5	e8 00 00 00 00	 call	 ?process_assert@@YGXPBD0H@Z ; process_assert
  000ca	c7 45 bc 00 00
	00 00		 mov	 DWORD PTR tv93[ebp], 0
$LN12@get_valid_:
  000d1	b8 01 00 00 00	 mov	 eax, 1
  000d6	85 c0		 test	 eax, eax
  000d8	74 09		 je	 SHORT $LN13@get_valid_
  000da	c7 45 b8 f8 00
	00 00		 mov	 DWORD PTR tv132[ebp], 248 ; 000000f8H
  000e1	eb 1d		 jmp	 SHORT $LN14@get_valid_
$LN13@get_valid_:
  000e3	68 5d 0d 00 00	 push	 3421			; 00000d5dH
  000e8	68 00 00 00 00	 push	 OFFSET ??_C@_0EG@KKKJIDAO@c?3?2users?2nhv90?2projects?2eech?2ap@
  000ed	8b 0d 00 00 00
	00		 mov	 ecx, DWORD PTR ?overload_invalid_int_type_message@@3PBDB ; overload_invalid_int_type_message
  000f3	51		 push	 ecx
  000f4	e8 00 00 00 00	 call	 ?process_assert@@YGXPBD0H@Z ; process_assert
  000f9	c7 45 b8 00 00
	00 00		 mov	 DWORD PTR tv132[ebp], 0
$LN14@get_valid_:
  00100	68 f8 00 00 00	 push	 248			; 000000f8H
  00105	8b 55 08	 mov	 edx, DWORD PTR _threat$[ebp]
  00108	52		 push	 edx
  00109	69 45 bc 5c 04
	00 00		 imul	 eax, DWORD PTR tv93[ebp], 1116
  00110	8b 4d b8	 mov	 ecx, DWORD PTR tv132[ebp]
  00113	8b 94 88 00 00
	00 00		 mov	 edx, DWORD PTR ?fn_get_local_entity_int_value@@3PAY0BBH@P6GHPAUENTITY@@W4INT_TYPES@@@ZA[eax+ecx*4]
  0011a	ff d2		 call	 edx
  0011c	85 c0		 test	 eax, eax
  0011e	0f 84 84 00 00
	00		 je	 $LN3@get_valid_

; 3422 : 		{
; 3423 : 			if (source_side != get_local_entity_int_value (threat, INT_TYPE_SIDE))

  00124	83 7d 08 00	 cmp	 DWORD PTR _threat$[ebp], 0
  00128	74 0a		 je	 SHORT $LN15@get_valid_
  0012a	8b 45 08	 mov	 eax, DWORD PTR _threat$[ebp]
  0012d	8b 08		 mov	 ecx, DWORD PTR [eax]
  0012f	89 4d bc	 mov	 DWORD PTR tv144[ebp], ecx
  00132	eb 1d		 jmp	 SHORT $LN16@get_valid_
$LN15@get_valid_:
  00134	68 5f 0d 00 00	 push	 3423			; 00000d5fH
  00139	68 00 00 00 00	 push	 OFFSET ??_C@_0EG@KKKJIDAO@c?3?2users?2nhv90?2projects?2eech?2ap@
  0013e	8b 15 00 00 00
	00		 mov	 edx, DWORD PTR ?null_entity_pointer_message@@3PBDB ; null_entity_pointer_message
  00144	52		 push	 edx
  00145	e8 00 00 00 00	 call	 ?process_assert@@YGXPBD0H@Z ; process_assert
  0014a	c7 45 bc 00 00
	00 00		 mov	 DWORD PTR tv144[ebp], 0
$LN16@get_valid_:
  00151	b8 01 00 00 00	 mov	 eax, 1
  00156	85 c0		 test	 eax, eax
  00158	74 09		 je	 SHORT $LN17@get_valid_
  0015a	c7 45 b8 bb 00
	00 00		 mov	 DWORD PTR tv151[ebp], 187 ; 000000bbH
  00161	eb 1d		 jmp	 SHORT $LN18@get_valid_
$LN17@get_valid_:
  00163	68 5f 0d 00 00	 push	 3423			; 00000d5fH
  00168	68 00 00 00 00	 push	 OFFSET ??_C@_0EG@KKKJIDAO@c?3?2users?2nhv90?2projects?2eech?2ap@
  0016d	8b 0d 00 00 00
	00		 mov	 ecx, DWORD PTR ?overload_invalid_int_type_message@@3PBDB ; overload_invalid_int_type_message
  00173	51		 push	 ecx
  00174	e8 00 00 00 00	 call	 ?process_assert@@YGXPBD0H@Z ; process_assert
  00179	c7 45 b8 00 00
	00 00		 mov	 DWORD PTR tv151[ebp], 0
$LN18@get_valid_:
  00180	68 bb 00 00 00	 push	 187			; 000000bbH
  00185	8b 55 08	 mov	 edx, DWORD PTR _threat$[ebp]
  00188	52		 push	 edx
  00189	69 45 bc 5c 04
	00 00		 imul	 eax, DWORD PTR tv144[ebp], 1116
  00190	8b 4d b8	 mov	 ecx, DWORD PTR tv151[ebp]
  00193	8b 94 88 00 00
	00 00		 mov	 edx, DWORD PTR ?fn_get_local_entity_int_value@@3PAY0BBH@P6GHPAUENTITY@@W4INT_TYPES@@@ZA[eax+ecx*4]
  0019a	ff d2		 call	 edx
  0019c	39 45 0c	 cmp	 DWORD PTR _source_side$[ebp], eax
  0019f	74 07		 je	 SHORT $LN3@get_valid_

; 3424 : 			{
; 3425 : 				return (TRUE);

  001a1	b8 01 00 00 00	 mov	 eax, 1
  001a6	eb 02		 jmp	 SHORT $LN1@get_valid_
$LN3@get_valid_:

; 3426 : 			}
; 3427 : 		}
; 3428 : 	}
; 3429 : 
; 3430 : 	return (FALSE);

  001a8	33 c0		 xor	 eax, eax
$LN1@get_valid_:

; 3431 : }

  001aa	5f		 pop	 edi
  001ab	5e		 pop	 esi
  001ac	5b		 pop	 ebx
  001ad	8b e5		 mov	 esp, ebp
  001af	5d		 pop	 ebp
  001b0	c2 08 00	 ret	 8
?get_valid_air_threat@@YGHPAUENTITY@@W4ENTITY_SIDES@@@Z ENDP ; get_valid_air_threat
_TEXT	ENDS
; Function compile flags: /Odtp /ZI
; File c:\users\nhv90\projects\eech\aphavoc\source\gunships\views\vm_vckpt.c
;	COMDAT ?get_next_wingman@@YGPAUENTITY@@XZ
_TEXT	SEGMENT
tv152 = -92						; size = 4
tv145 = -88						; size = 4
tv264 = -84						; size = 4
tv240 = -84						; size = 4
tv219 = -84						; size = 4
tv198 = -84						; size = 4
tv174 = -84						; size = 4
tv134 = -84						; size = 4
tv83 = -84						; size = 4
tv256 = -80						; size = 4
tv232 = -80						; size = 4
tv211 = -80						; size = 4
tv190 = -80						; size = 4
tv166 = -80						; size = 4
tv95 = -80						; size = 4
tv75 = -80						; size = 4
_wingman$ = -12						; size = 4
_group$ = -8						; size = 4
_source$ = -4						; size = 4
?get_next_wingman@@YGPAUENTITY@@XZ PROC			; get_next_wingman, COMDAT

; 3341 : {

  00000	55		 push	 ebp
  00001	8b ec		 mov	 ebp, esp
  00003	83 ec 5c	 sub	 esp, 92			; 0000005cH
  00006	53		 push	 ebx
  00007	56		 push	 esi
  00008	57		 push	 edi

; 3342 : 	entity
; 3343 : 		*source,
; 3344 : 		*group,
; 3345 : 		*wingman;
; 3346 : 
; 3347 : 	source = get_gunship_entity ();

  00009	a1 00 00 00 00	 mov	 eax, DWORD PTR ?gunship_entity@@3PAUENTITY@@A ; gunship_entity
  0000e	89 45 fc	 mov	 DWORD PTR _source$[ebp], eax

; 3348 : 
; 3349 : 	ASSERT (source);

  00011	83 7d fc 00	 cmp	 DWORD PTR _source$[ebp], 0
  00015	75 18		 jne	 SHORT $LN6@get_next_w
  00017	a1 00 00 00 00	 mov	 eax, DWORD PTR ?__LINE__Var@?0??get_next_wingman@@YGPAUENTITY@@XZ@4JA
  0001c	83 c0 08	 add	 eax, 8
  0001f	50		 push	 eax
  00020	68 00 00 00 00	 push	 OFFSET ??_C@_0EG@KKKJIDAO@c?3?2users?2nhv90?2projects?2eech?2ap@
  00025	68 00 00 00 00	 push	 OFFSET ??_C@_06OEKOLKIL@source@
  0002a	e8 00 00 00 00	 call	 ?process_assert@@YGXPBD0H@Z ; process_assert
$LN6@get_next_w:

; 3350 : 
; 3351 : 	wingman = get_local_entity_first_child (source, LIST_TYPE_PADLOCK);

  0002f	83 7d fc 00	 cmp	 DWORD PTR _source$[ebp], 0
  00033	74 0a		 je	 SHORT $LN15@get_next_w
  00035	8b 45 fc	 mov	 eax, DWORD PTR _source$[ebp]
  00038	8b 08		 mov	 ecx, DWORD PTR [eax]
  0003a	89 4d b0	 mov	 DWORD PTR tv75[ebp], ecx
  0003d	eb 21		 jmp	 SHORT $LN16@get_next_w
$LN15@get_next_w:
  0003f	8b 15 00 00 00
	00		 mov	 edx, DWORD PTR ?__LINE__Var@?0??get_next_wingman@@YGPAUENTITY@@XZ@4JA
  00045	83 c2 0a	 add	 edx, 10			; 0000000aH
  00048	52		 push	 edx
  00049	68 00 00 00 00	 push	 OFFSET ??_C@_0EG@KKKJIDAO@c?3?2users?2nhv90?2projects?2eech?2ap@
  0004e	a1 00 00 00 00	 mov	 eax, DWORD PTR ?null_entity_pointer_message@@3PBDB ; null_entity_pointer_message
  00053	50		 push	 eax
  00054	e8 00 00 00 00	 call	 ?process_assert@@YGXPBD0H@Z ; process_assert
  00059	c7 45 b0 00 00
	00 00		 mov	 DWORD PTR tv75[ebp], 0
$LN16@get_next_w:
  00060	b9 01 00 00 00	 mov	 ecx, 1
  00065	85 c9		 test	 ecx, ecx
  00067	74 09		 je	 SHORT $LN17@get_next_w
  00069	c7 45 ac 1b 00
	00 00		 mov	 DWORD PTR tv83[ebp], 27	; 0000001bH
  00070	eb 21		 jmp	 SHORT $LN18@get_next_w
$LN17@get_next_w:
  00072	8b 15 00 00 00
	00		 mov	 edx, DWORD PTR ?__LINE__Var@?0??get_next_wingman@@YGPAUENTITY@@XZ@4JA
  00078	83 c2 0a	 add	 edx, 10			; 0000000aH
  0007b	52		 push	 edx
  0007c	68 00 00 00 00	 push	 OFFSET ??_C@_0EG@KKKJIDAO@c?3?2users?2nhv90?2projects?2eech?2ap@
  00081	a1 00 00 00 00	 mov	 eax, DWORD PTR ?overload_invalid_list_type_message@@3PBDB ; overload_invalid_list_type_message
  00086	50		 push	 eax
  00087	e8 00 00 00 00	 call	 ?process_assert@@YGXPBD0H@Z ; process_assert
  0008c	c7 45 ac 00 00
	00 00		 mov	 DWORD PTR tv83[ebp], 0
$LN18@get_next_w:
  00093	6a 1b		 push	 27			; 0000001bH
  00095	8b 4d fc	 mov	 ecx, DWORD PTR _source$[ebp]
  00098	51		 push	 ecx
  00099	69 55 b0 b4 00
	00 00		 imul	 edx, DWORD PTR tv75[ebp], 180
  000a0	8b 45 ac	 mov	 eax, DWORD PTR tv83[ebp]
  000a3	8b 8c 82 00 00
	00 00		 mov	 ecx, DWORD PTR ?fn_get_local_entity_first_child@@3PAY0CN@P6GPAUENTITY@@PAU1@W4LIST_TYPES@@@ZA[edx+eax*4]
  000aa	ff d1		 call	 ecx
  000ac	89 45 f4	 mov	 DWORD PTR _wingman$[ebp], eax

; 3352 : 
; 3353 : 	//
; 3354 : 	// check wingman is still a wingman
; 3355 : 	//
; 3356 : 
; 3357 : 	if (wingman)

  000af	83 7d f4 00	 cmp	 DWORD PTR _wingman$[ebp], 0
  000b3	0f 84 f6 00 00
	00		 je	 $LN7@get_next_w

; 3358 : 	{
; 3359 : 		if (get_local_entity_parent (wingman, LIST_TYPE_MEMBER) != get_local_entity_parent (source, LIST_TYPE_MEMBER))

  000b9	83 7d f4 00	 cmp	 DWORD PTR _wingman$[ebp], 0
  000bd	74 0a		 je	 SHORT $LN19@get_next_w
  000bf	8b 45 f4	 mov	 eax, DWORD PTR _wingman$[ebp]
  000c2	8b 08		 mov	 ecx, DWORD PTR [eax]
  000c4	89 4d b0	 mov	 DWORD PTR tv95[ebp], ecx
  000c7	eb 1d		 jmp	 SHORT $LN20@get_next_w
$LN19@get_next_w:
  000c9	68 1f 0d 00 00	 push	 3359			; 00000d1fH
  000ce	68 00 00 00 00	 push	 OFFSET ??_C@_0EG@KKKJIDAO@c?3?2users?2nhv90?2projects?2eech?2ap@
  000d3	8b 15 00 00 00
	00		 mov	 edx, DWORD PTR ?null_entity_pointer_message@@3PBDB ; null_entity_pointer_message
  000d9	52		 push	 edx
  000da	e8 00 00 00 00	 call	 ?process_assert@@YGXPBD0H@Z ; process_assert
  000df	c7 45 b0 00 00
	00 00		 mov	 DWORD PTR tv95[ebp], 0
$LN20@get_next_w:
  000e6	b8 01 00 00 00	 mov	 eax, 1
  000eb	85 c0		 test	 eax, eax
  000ed	74 09		 je	 SHORT $LN21@get_next_w
  000ef	c7 45 ac 19 00
	00 00		 mov	 DWORD PTR tv134[ebp], 25 ; 00000019H
  000f6	eb 1d		 jmp	 SHORT $LN22@get_next_w
$LN21@get_next_w:
  000f8	68 1f 0d 00 00	 push	 3359			; 00000d1fH
  000fd	68 00 00 00 00	 push	 OFFSET ??_C@_0EG@KKKJIDAO@c?3?2users?2nhv90?2projects?2eech?2ap@
  00102	8b 0d 00 00 00
	00		 mov	 ecx, DWORD PTR ?overload_invalid_list_type_message@@3PBDB ; overload_invalid_list_type_message
  00108	51		 push	 ecx
  00109	e8 00 00 00 00	 call	 ?process_assert@@YGXPBD0H@Z ; process_assert
  0010e	c7 45 ac 00 00
	00 00		 mov	 DWORD PTR tv134[ebp], 0
$LN22@get_next_w:
  00115	83 7d fc 00	 cmp	 DWORD PTR _source$[ebp], 0
  00119	74 0a		 je	 SHORT $LN23@get_next_w
  0011b	8b 55 fc	 mov	 edx, DWORD PTR _source$[ebp]
  0011e	8b 02		 mov	 eax, DWORD PTR [edx]
  00120	89 45 a8	 mov	 DWORD PTR tv145[ebp], eax
  00123	eb 1d		 jmp	 SHORT $LN24@get_next_w
$LN23@get_next_w:
  00125	68 1f 0d 00 00	 push	 3359			; 00000d1fH
  0012a	68 00 00 00 00	 push	 OFFSET ??_C@_0EG@KKKJIDAO@c?3?2users?2nhv90?2projects?2eech?2ap@
  0012f	8b 0d 00 00 00
	00		 mov	 ecx, DWORD PTR ?null_entity_pointer_message@@3PBDB ; null_entity_pointer_message
  00135	51		 push	 ecx
  00136	e8 00 00 00 00	 call	 ?process_assert@@YGXPBD0H@Z ; process_assert
  0013b	c7 45 a8 00 00
	00 00		 mov	 DWORD PTR tv145[ebp], 0
$LN24@get_next_w:
  00142	ba 01 00 00 00	 mov	 edx, 1
  00147	85 d2		 test	 edx, edx
  00149	74 09		 je	 SHORT $LN25@get_next_w
  0014b	c7 45 a4 19 00
	00 00		 mov	 DWORD PTR tv152[ebp], 25 ; 00000019H
  00152	eb 1c		 jmp	 SHORT $LN26@get_next_w
$LN25@get_next_w:
  00154	68 1f 0d 00 00	 push	 3359			; 00000d1fH
  00159	68 00 00 00 00	 push	 OFFSET ??_C@_0EG@KKKJIDAO@c?3?2users?2nhv90?2projects?2eech?2ap@
  0015e	a1 00 00 00 00	 mov	 eax, DWORD PTR ?overload_invalid_list_type_message@@3PBDB ; overload_invalid_list_type_message
  00163	50		 push	 eax
  00164	e8 00 00 00 00	 call	 ?process_assert@@YGXPBD0H@Z ; process_assert
  00169	c7 45 a4 00 00
	00 00		 mov	 DWORD PTR tv152[ebp], 0
$LN26@get_next_w:
  00170	6a 19		 push	 25			; 00000019H
  00172	8b 4d f4	 mov	 ecx, DWORD PTR _wingman$[ebp]
  00175	51		 push	 ecx
  00176	69 55 b0 b4 00
	00 00		 imul	 edx, DWORD PTR tv95[ebp], 180
  0017d	8b 45 ac	 mov	 eax, DWORD PTR tv134[ebp]
  00180	8b 8c 82 00 00
	00 00		 mov	 ecx, DWORD PTR ?fn_get_local_entity_parent@@3PAY0CN@P6GPAUENTITY@@PAU1@W4LIST_TYPES@@@ZA[edx+eax*4]
  00187	ff d1		 call	 ecx
  00189	8b f0		 mov	 esi, eax
  0018b	6a 19		 push	 25			; 00000019H
  0018d	8b 55 fc	 mov	 edx, DWORD PTR _source$[ebp]
  00190	52		 push	 edx
  00191	69 45 a8 b4 00
	00 00		 imul	 eax, DWORD PTR tv145[ebp], 180
  00198	8b 4d a4	 mov	 ecx, DWORD PTR tv152[ebp]
  0019b	8b 94 88 00 00
	00 00		 mov	 edx, DWORD PTR ?fn_get_local_entity_parent@@3PAY0CN@P6GPAUENTITY@@PAU1@W4LIST_TYPES@@@ZA[eax+ecx*4]
  001a2	ff d2		 call	 edx
  001a4	3b f0		 cmp	 esi, eax
  001a6	74 07		 je	 SHORT $LN7@get_next_w

; 3360 : 		{
; 3361 : 			wingman = NULL;

  001a8	c7 45 f4 00 00
	00 00		 mov	 DWORD PTR _wingman$[ebp], 0
$LN7@get_next_w:

; 3362 : 		}
; 3363 : 	}
; 3364 : 
; 3365 : 	//
; 3366 : 	// find next wingman in list
; 3367 : 	//
; 3368 : 
; 3369 : 	if (wingman)

  001af	83 7d f4 00	 cmp	 DWORD PTR _wingman$[ebp], 0
  001b3	0f 84 21 01 00
	00		 je	 $LN9@get_next_w

; 3370 : 	{
; 3371 : 		wingman = get_local_entity_child_succ (wingman, LIST_TYPE_MEMBER);

  001b9	83 7d f4 00	 cmp	 DWORD PTR _wingman$[ebp], 0
  001bd	74 0a		 je	 SHORT $LN27@get_next_w
  001bf	8b 45 f4	 mov	 eax, DWORD PTR _wingman$[ebp]
  001c2	8b 08		 mov	 ecx, DWORD PTR [eax]
  001c4	89 4d b0	 mov	 DWORD PTR tv166[ebp], ecx
  001c7	eb 21		 jmp	 SHORT $LN28@get_next_w
$LN27@get_next_w:
  001c9	8b 15 00 00 00
	00		 mov	 edx, DWORD PTR ?__LINE__Var@?0??get_next_wingman@@YGPAUENTITY@@XZ@4JA
  001cf	83 c2 1e	 add	 edx, 30			; 0000001eH
  001d2	52		 push	 edx
  001d3	68 00 00 00 00	 push	 OFFSET ??_C@_0EG@KKKJIDAO@c?3?2users?2nhv90?2projects?2eech?2ap@
  001d8	a1 00 00 00 00	 mov	 eax, DWORD PTR ?null_entity_pointer_message@@3PBDB ; null_entity_pointer_message
  001dd	50		 push	 eax
  001de	e8 00 00 00 00	 call	 ?process_assert@@YGXPBD0H@Z ; process_assert
  001e3	c7 45 b0 00 00
	00 00		 mov	 DWORD PTR tv166[ebp], 0
$LN28@get_next_w:
  001ea	b9 01 00 00 00	 mov	 ecx, 1
  001ef	85 c9		 test	 ecx, ecx
  001f1	74 09		 je	 SHORT $LN29@get_next_w
  001f3	c7 45 ac 19 00
	00 00		 mov	 DWORD PTR tv174[ebp], 25 ; 00000019H
  001fa	eb 21		 jmp	 SHORT $LN30@get_next_w
$LN29@get_next_w:
  001fc	8b 15 00 00 00
	00		 mov	 edx, DWORD PTR ?__LINE__Var@?0??get_next_wingman@@YGPAUENTITY@@XZ@4JA
  00202	83 c2 1e	 add	 edx, 30			; 0000001eH
  00205	52		 push	 edx
  00206	68 00 00 00 00	 push	 OFFSET ??_C@_0EG@KKKJIDAO@c?3?2users?2nhv90?2projects?2eech?2ap@
  0020b	a1 00 00 00 00	 mov	 eax, DWORD PTR ?overload_invalid_list_type_message@@3PBDB ; overload_invalid_list_type_message
  00210	50		 push	 eax
  00211	e8 00 00 00 00	 call	 ?process_assert@@YGXPBD0H@Z ; process_assert
  00216	c7 45 ac 00 00
	00 00		 mov	 DWORD PTR tv174[ebp], 0
$LN30@get_next_w:
  0021d	6a 19		 push	 25			; 00000019H
  0021f	8b 4d f4	 mov	 ecx, DWORD PTR _wingman$[ebp]
  00222	51		 push	 ecx
  00223	69 55 b0 b4 00
	00 00		 imul	 edx, DWORD PTR tv166[ebp], 180
  0022a	8b 45 ac	 mov	 eax, DWORD PTR tv174[ebp]
  0022d	8b 8c 82 00 00
	00 00		 mov	 ecx, DWORD PTR ?fn_get_local_entity_child_succ@@3PAY0CN@P6GPAUENTITY@@PAU1@W4LIST_TYPES@@@ZA[edx+eax*4]
  00234	ff d1		 call	 ecx
  00236	89 45 f4	 mov	 DWORD PTR _wingman$[ebp], eax
$LN2@get_next_w:

; 3372 : 
; 3373 : 		while (wingman)

  00239	83 7d f4 00	 cmp	 DWORD PTR _wingman$[ebp], 0
  0023d	0f 84 97 00 00
	00		 je	 $LN9@get_next_w

; 3374 : 		{
; 3375 : 			if (get_valid_wingman (wingman))

  00243	8b 45 f4	 mov	 eax, DWORD PTR _wingman$[ebp]
  00246	50		 push	 eax
  00247	e8 00 00 00 00	 call	 ?get_valid_wingman@@YGHPAUENTITY@@@Z ; get_valid_wingman
  0024c	85 c0		 test	 eax, eax
  0024e	74 05		 je	 SHORT $LN10@get_next_w

; 3376 : 			{
; 3377 : 				break;

  00250	e9 85 00 00 00	 jmp	 $LN9@get_next_w
$LN10@get_next_w:

; 3378 : 			}
; 3379 : 
; 3380 : 			wingman = get_local_entity_child_succ (wingman, LIST_TYPE_MEMBER);

  00255	83 7d f4 00	 cmp	 DWORD PTR _wingman$[ebp], 0
  00259	74 0a		 je	 SHORT $LN31@get_next_w
  0025b	8b 45 f4	 mov	 eax, DWORD PTR _wingman$[ebp]
  0025e	8b 08		 mov	 ecx, DWORD PTR [eax]
  00260	89 4d b0	 mov	 DWORD PTR tv190[ebp], ecx
  00263	eb 21		 jmp	 SHORT $LN32@get_next_w
$LN31@get_next_w:
  00265	8b 15 00 00 00
	00		 mov	 edx, DWORD PTR ?__LINE__Var@?0??get_next_wingman@@YGPAUENTITY@@XZ@4JA
  0026b	83 c2 27	 add	 edx, 39			; 00000027H
  0026e	52		 push	 edx
  0026f	68 00 00 00 00	 push	 OFFSET ??_C@_0EG@KKKJIDAO@c?3?2users?2nhv90?2projects?2eech?2ap@
  00274	a1 00 00 00 00	 mov	 eax, DWORD PTR ?null_entity_pointer_message@@3PBDB ; null_entity_pointer_message
  00279	50		 push	 eax
  0027a	e8 00 00 00 00	 call	 ?process_assert@@YGXPBD0H@Z ; process_assert
  0027f	c7 45 b0 00 00
	00 00		 mov	 DWORD PTR tv190[ebp], 0
$LN32@get_next_w:
  00286	b9 01 00 00 00	 mov	 ecx, 1
  0028b	85 c9		 test	 ecx, ecx
  0028d	74 09		 je	 SHORT $LN33@get_next_w
  0028f	c7 45 ac 19 00
	00 00		 mov	 DWORD PTR tv198[ebp], 25 ; 00000019H
  00296	eb 21		 jmp	 SHORT $LN34@get_next_w
$LN33@get_next_w:
  00298	8b 15 00 00 00
	00		 mov	 edx, DWORD PTR ?__LINE__Var@?0??get_next_wingman@@YGPAUENTITY@@XZ@4JA
  0029e	83 c2 27	 add	 edx, 39			; 00000027H
  002a1	52		 push	 edx
  002a2	68 00 00 00 00	 push	 OFFSET ??_C@_0EG@KKKJIDAO@c?3?2users?2nhv90?2projects?2eech?2ap@
  002a7	a1 00 00 00 00	 mov	 eax, DWORD PTR ?overload_invalid_list_type_message@@3PBDB ; overload_invalid_list_type_message
  002ac	50		 push	 eax
  002ad	e8 00 00 00 00	 call	 ?process_assert@@YGXPBD0H@Z ; process_assert
  002b2	c7 45 ac 00 00
	00 00		 mov	 DWORD PTR tv198[ebp], 0
$LN34@get_next_w:
  002b9	6a 19		 push	 25			; 00000019H
  002bb	8b 4d f4	 mov	 ecx, DWORD PTR _wingman$[ebp]
  002be	51		 push	 ecx
  002bf	69 55 b0 b4 00
	00 00		 imul	 edx, DWORD PTR tv190[ebp], 180
  002c6	8b 45 ac	 mov	 eax, DWORD PTR tv198[ebp]
  002c9	8b 8c 82 00 00
	00 00		 mov	 ecx, DWORD PTR ?fn_get_local_entity_child_succ@@3PAY0CN@P6GPAUENTITY@@PAU1@W4LIST_TYPES@@@ZA[edx+eax*4]
  002d0	ff d1		 call	 ecx
  002d2	89 45 f4	 mov	 DWORD PTR _wingman$[ebp], eax

; 3381 : 		}

  002d5	e9 5f ff ff ff	 jmp	 $LN2@get_next_w
$LN9@get_next_w:

; 3382 : 	}
; 3383 : 
; 3384 : 	//
; 3385 : 	// find first wingman in list
; 3386 : 	//
; 3387 : 
; 3388 : 	if (!wingman)

  002da	83 7d f4 00	 cmp	 DWORD PTR _wingman$[ebp], 0
  002de	0f 85 ab 01 00
	00		 jne	 $LN11@get_next_w

; 3389 : 	{
; 3390 : 		group = get_local_entity_parent (source, LIST_TYPE_MEMBER);

  002e4	83 7d fc 00	 cmp	 DWORD PTR _source$[ebp], 0
  002e8	74 0a		 je	 SHORT $LN35@get_next_w
  002ea	8b 45 fc	 mov	 eax, DWORD PTR _source$[ebp]
  002ed	8b 08		 mov	 ecx, DWORD PTR [eax]
  002ef	89 4d b0	 mov	 DWORD PTR tv211[ebp], ecx
  002f2	eb 21		 jmp	 SHORT $LN36@get_next_w
$LN35@get_next_w:
  002f4	8b 15 00 00 00
	00		 mov	 edx, DWORD PTR ?__LINE__Var@?0??get_next_wingman@@YGPAUENTITY@@XZ@4JA
  002fa	83 c2 31	 add	 edx, 49			; 00000031H
  002fd	52		 push	 edx
  002fe	68 00 00 00 00	 push	 OFFSET ??_C@_0EG@KKKJIDAO@c?3?2users?2nhv90?2projects?2eech?2ap@
  00303	a1 00 00 00 00	 mov	 eax, DWORD PTR ?null_entity_pointer_message@@3PBDB ; null_entity_pointer_message
  00308	50		 push	 eax
  00309	e8 00 00 00 00	 call	 ?process_assert@@YGXPBD0H@Z ; process_assert
  0030e	c7 45 b0 00 00
	00 00		 mov	 DWORD PTR tv211[ebp], 0
$LN36@get_next_w:
  00315	b9 01 00 00 00	 mov	 ecx, 1
  0031a	85 c9		 test	 ecx, ecx
  0031c	74 09		 je	 SHORT $LN37@get_next_w
  0031e	c7 45 ac 19 00
	00 00		 mov	 DWORD PTR tv219[ebp], 25 ; 00000019H
  00325	eb 21		 jmp	 SHORT $LN38@get_next_w
$LN37@get_next_w:
  00327	8b 15 00 00 00
	00		 mov	 edx, DWORD PTR ?__LINE__Var@?0??get_next_wingman@@YGPAUENTITY@@XZ@4JA
  0032d	83 c2 31	 add	 edx, 49			; 00000031H
  00330	52		 push	 edx
  00331	68 00 00 00 00	 push	 OFFSET ??_C@_0EG@KKKJIDAO@c?3?2users?2nhv90?2projects?2eech?2ap@
  00336	a1 00 00 00 00	 mov	 eax, DWORD PTR ?overload_invalid_list_type_message@@3PBDB ; overload_invalid_list_type_message
  0033b	50		 push	 eax
  0033c	e8 00 00 00 00	 call	 ?process_assert@@YGXPBD0H@Z ; process_assert
  00341	c7 45 ac 00 00
	00 00		 mov	 DWORD PTR tv219[ebp], 0
$LN38@get_next_w:
  00348	6a 19		 push	 25			; 00000019H
  0034a	8b 4d fc	 mov	 ecx, DWORD PTR _source$[ebp]
  0034d	51		 push	 ecx
  0034e	69 55 b0 b4 00
	00 00		 imul	 edx, DWORD PTR tv211[ebp], 180
  00355	8b 45 ac	 mov	 eax, DWORD PTR tv219[ebp]
  00358	8b 8c 82 00 00
	00 00		 mov	 ecx, DWORD PTR ?fn_get_local_entity_parent@@3PAY0CN@P6GPAUENTITY@@PAU1@W4LIST_TYPES@@@ZA[edx+eax*4]
  0035f	ff d1		 call	 ecx
  00361	89 45 f8	 mov	 DWORD PTR _group$[ebp], eax

; 3391 : 
; 3392 : 		if (group)

  00364	83 7d f8 00	 cmp	 DWORD PTR _group$[ebp], 0
  00368	0f 84 21 01 00
	00		 je	 $LN11@get_next_w

; 3393 : 		{
; 3394 : 			wingman = get_local_entity_first_child (group, LIST_TYPE_MEMBER);

  0036e	83 7d f8 00	 cmp	 DWORD PTR _group$[ebp], 0
  00372	74 0a		 je	 SHORT $LN39@get_next_w
  00374	8b 45 f8	 mov	 eax, DWORD PTR _group$[ebp]
  00377	8b 08		 mov	 ecx, DWORD PTR [eax]
  00379	89 4d b0	 mov	 DWORD PTR tv232[ebp], ecx
  0037c	eb 21		 jmp	 SHORT $LN40@get_next_w
$LN39@get_next_w:
  0037e	8b 15 00 00 00
	00		 mov	 edx, DWORD PTR ?__LINE__Var@?0??get_next_wingman@@YGPAUENTITY@@XZ@4JA
  00384	83 c2 35	 add	 edx, 53			; 00000035H
  00387	52		 push	 edx
  00388	68 00 00 00 00	 push	 OFFSET ??_C@_0EG@KKKJIDAO@c?3?2users?2nhv90?2projects?2eech?2ap@
  0038d	a1 00 00 00 00	 mov	 eax, DWORD PTR ?null_entity_pointer_message@@3PBDB ; null_entity_pointer_message
  00392	50		 push	 eax
  00393	e8 00 00 00 00	 call	 ?process_assert@@YGXPBD0H@Z ; process_assert
  00398	c7 45 b0 00 00
	00 00		 mov	 DWORD PTR tv232[ebp], 0
$LN40@get_next_w:
  0039f	b9 01 00 00 00	 mov	 ecx, 1
  003a4	85 c9		 test	 ecx, ecx
  003a6	74 09		 je	 SHORT $LN41@get_next_w
  003a8	c7 45 ac 19 00
	00 00		 mov	 DWORD PTR tv240[ebp], 25 ; 00000019H
  003af	eb 21		 jmp	 SHORT $LN42@get_next_w
$LN41@get_next_w:
  003b1	8b 15 00 00 00
	00		 mov	 edx, DWORD PTR ?__LINE__Var@?0??get_next_wingman@@YGPAUENTITY@@XZ@4JA
  003b7	83 c2 35	 add	 edx, 53			; 00000035H
  003ba	52		 push	 edx
  003bb	68 00 00 00 00	 push	 OFFSET ??_C@_0EG@KKKJIDAO@c?3?2users?2nhv90?2projects?2eech?2ap@
  003c0	a1 00 00 00 00	 mov	 eax, DWORD PTR ?overload_invalid_list_type_message@@3PBDB ; overload_invalid_list_type_message
  003c5	50		 push	 eax
  003c6	e8 00 00 00 00	 call	 ?process_assert@@YGXPBD0H@Z ; process_assert
  003cb	c7 45 ac 00 00
	00 00		 mov	 DWORD PTR tv240[ebp], 0
$LN42@get_next_w:
  003d2	6a 19		 push	 25			; 00000019H
  003d4	8b 4d f8	 mov	 ecx, DWORD PTR _group$[ebp]
  003d7	51		 push	 ecx
  003d8	69 55 b0 b4 00
	00 00		 imul	 edx, DWORD PTR tv232[ebp], 180
  003df	8b 45 ac	 mov	 eax, DWORD PTR tv240[ebp]
  003e2	8b 8c 82 00 00
	00 00		 mov	 ecx, DWORD PTR ?fn_get_local_entity_first_child@@3PAY0CN@P6GPAUENTITY@@PAU1@W4LIST_TYPES@@@ZA[edx+eax*4]
  003e9	ff d1		 call	 ecx
  003eb	89 45 f4	 mov	 DWORD PTR _wingman$[ebp], eax
$LN4@get_next_w:

; 3395 : 
; 3396 : 			while (wingman)

  003ee	83 7d f4 00	 cmp	 DWORD PTR _wingman$[ebp], 0
  003f2	0f 84 97 00 00
	00		 je	 $LN11@get_next_w

; 3397 : 			{
; 3398 : 				if (get_valid_wingman (wingman))

  003f8	8b 45 f4	 mov	 eax, DWORD PTR _wingman$[ebp]
  003fb	50		 push	 eax
  003fc	e8 00 00 00 00	 call	 ?get_valid_wingman@@YGHPAUENTITY@@@Z ; get_valid_wingman
  00401	85 c0		 test	 eax, eax
  00403	74 05		 je	 SHORT $LN13@get_next_w

; 3399 : 				{
; 3400 : 					break;

  00405	e9 85 00 00 00	 jmp	 $LN11@get_next_w
$LN13@get_next_w:

; 3401 : 				}
; 3402 : 
; 3403 : 				wingman = get_local_entity_child_succ (wingman, LIST_TYPE_MEMBER);

  0040a	83 7d f4 00	 cmp	 DWORD PTR _wingman$[ebp], 0
  0040e	74 0a		 je	 SHORT $LN43@get_next_w
  00410	8b 45 f4	 mov	 eax, DWORD PTR _wingman$[ebp]
  00413	8b 08		 mov	 ecx, DWORD PTR [eax]
  00415	89 4d b0	 mov	 DWORD PTR tv256[ebp], ecx
  00418	eb 21		 jmp	 SHORT $LN44@get_next_w
$LN43@get_next_w:
  0041a	8b 15 00 00 00
	00		 mov	 edx, DWORD PTR ?__LINE__Var@?0??get_next_wingman@@YGPAUENTITY@@XZ@4JA
  00420	83 c2 3e	 add	 edx, 62			; 0000003eH
  00423	52		 push	 edx
  00424	68 00 00 00 00	 push	 OFFSET ??_C@_0EG@KKKJIDAO@c?3?2users?2nhv90?2projects?2eech?2ap@
  00429	a1 00 00 00 00	 mov	 eax, DWORD PTR ?null_entity_pointer_message@@3PBDB ; null_entity_pointer_message
  0042e	50		 push	 eax
  0042f	e8 00 00 00 00	 call	 ?process_assert@@YGXPBD0H@Z ; process_assert
  00434	c7 45 b0 00 00
	00 00		 mov	 DWORD PTR tv256[ebp], 0
$LN44@get_next_w:
  0043b	b9 01 00 00 00	 mov	 ecx, 1
  00440	85 c9		 test	 ecx, ecx
  00442	74 09		 je	 SHORT $LN45@get_next_w
  00444	c7 45 ac 19 00
	00 00		 mov	 DWORD PTR tv264[ebp], 25 ; 00000019H
  0044b	eb 21		 jmp	 SHORT $LN46@get_next_w
$LN45@get_next_w:
  0044d	8b 15 00 00 00
	00		 mov	 edx, DWORD PTR ?__LINE__Var@?0??get_next_wingman@@YGPAUENTITY@@XZ@4JA
  00453	83 c2 3e	 add	 edx, 62			; 0000003eH
  00456	52		 push	 edx
  00457	68 00 00 00 00	 push	 OFFSET ??_C@_0EG@KKKJIDAO@c?3?2users?2nhv90?2projects?2eech?2ap@
  0045c	a1 00 00 00 00	 mov	 eax, DWORD PTR ?overload_invalid_list_type_message@@3PBDB ; overload_invalid_list_type_message
  00461	50		 push	 eax
  00462	e8 00 00 00 00	 call	 ?process_assert@@YGXPBD0H@Z ; process_assert
  00467	c7 45 ac 00 00
	00 00		 mov	 DWORD PTR tv264[ebp], 0
$LN46@get_next_w:
  0046e	6a 19		 push	 25			; 00000019H
  00470	8b 4d f4	 mov	 ecx, DWORD PTR _wingman$[ebp]
  00473	51		 push	 ecx
  00474	69 55 b0 b4 00
	00 00		 imul	 edx, DWORD PTR tv256[ebp], 180
  0047b	8b 45 ac	 mov	 eax, DWORD PTR tv264[ebp]
  0047e	8b 8c 82 00 00
	00 00		 mov	 ecx, DWORD PTR ?fn_get_local_entity_child_succ@@3PAY0CN@P6GPAUENTITY@@PAU1@W4LIST_TYPES@@@ZA[edx+eax*4]
  00485	ff d1		 call	 ecx
  00487	89 45 f4	 mov	 DWORD PTR _wingman$[ebp], eax

; 3404 : 			}

  0048a	e9 5f ff ff ff	 jmp	 $LN4@get_next_w
$LN11@get_next_w:

; 3405 : 		}
; 3406 : 	}
; 3407 : 
; 3408 : 	return (wingman);

  0048f	8b 45 f4	 mov	 eax, DWORD PTR _wingman$[ebp]

; 3409 : }

  00492	5f		 pop	 edi
  00493	5e		 pop	 esi
  00494	5b		 pop	 ebx
  00495	8b e5		 mov	 esp, ebp
  00497	5d		 pop	 ebp
  00498	c3		 ret	 0
?get_next_wingman@@YGPAUENTITY@@XZ ENDP			; get_next_wingman
_TEXT	ENDS
; Function compile flags: /Odtp /ZI
; File c:\users\nhv90\projects\eech\aphavoc\source\gunships\views\vm_vckpt.c
;	COMDAT ?get_first_wingman@@YGPAUENTITY@@XZ
_TEXT	SEGMENT
tv160 = -84						; size = 4
tv136 = -84						; size = 4
tv83 = -84						; size = 4
tv152 = -80						; size = 4
tv128 = -80						; size = 4
tv75 = -80						; size = 4
_wingman$ = -12						; size = 4
_group$ = -8						; size = 4
_source$ = -4						; size = 4
?get_first_wingman@@YGPAUENTITY@@XZ PROC		; get_first_wingman, COMDAT

; 3302 : {

  00000	55		 push	 ebp
  00001	8b ec		 mov	 ebp, esp
  00003	83 ec 54	 sub	 esp, 84			; 00000054H
  00006	53		 push	 ebx
  00007	56		 push	 esi
  00008	57		 push	 edi

; 3303 : 	entity
; 3304 : 		*source,
; 3305 : 		*group,
; 3306 : 		*wingman;
; 3307 : 
; 3308 : 	source = get_gunship_entity ();

  00009	a1 00 00 00 00	 mov	 eax, DWORD PTR ?gunship_entity@@3PAUENTITY@@A ; gunship_entity
  0000e	89 45 fc	 mov	 DWORD PTR _source$[ebp], eax

; 3309 : 
; 3310 : 	ASSERT (source);

  00011	83 7d fc 00	 cmp	 DWORD PTR _source$[ebp], 0
  00015	75 18		 jne	 SHORT $LN4@get_first_
  00017	a1 00 00 00 00	 mov	 eax, DWORD PTR ?__LINE__Var@?0??get_first_wingman@@YGPAUENTITY@@XZ@4JA
  0001c	83 c0 08	 add	 eax, 8
  0001f	50		 push	 eax
  00020	68 00 00 00 00	 push	 OFFSET ??_C@_0EG@KKKJIDAO@c?3?2users?2nhv90?2projects?2eech?2ap@
  00025	68 00 00 00 00	 push	 OFFSET ??_C@_06OEKOLKIL@source@
  0002a	e8 00 00 00 00	 call	 ?process_assert@@YGXPBD0H@Z ; process_assert
$LN4@get_first_:

; 3311 : 
; 3312 : 	group = get_local_entity_parent (source, LIST_TYPE_MEMBER);

  0002f	83 7d fc 00	 cmp	 DWORD PTR _source$[ebp], 0
  00033	74 0a		 je	 SHORT $LN9@get_first_
  00035	8b 45 fc	 mov	 eax, DWORD PTR _source$[ebp]
  00038	8b 08		 mov	 ecx, DWORD PTR [eax]
  0003a	89 4d b0	 mov	 DWORD PTR tv75[ebp], ecx
  0003d	eb 21		 jmp	 SHORT $LN10@get_first_
$LN9@get_first_:
  0003f	8b 15 00 00 00
	00		 mov	 edx, DWORD PTR ?__LINE__Var@?0??get_first_wingman@@YGPAUENTITY@@XZ@4JA
  00045	83 c2 0a	 add	 edx, 10			; 0000000aH
  00048	52		 push	 edx
  00049	68 00 00 00 00	 push	 OFFSET ??_C@_0EG@KKKJIDAO@c?3?2users?2nhv90?2projects?2eech?2ap@
  0004e	a1 00 00 00 00	 mov	 eax, DWORD PTR ?null_entity_pointer_message@@3PBDB ; null_entity_pointer_message
  00053	50		 push	 eax
  00054	e8 00 00 00 00	 call	 ?process_assert@@YGXPBD0H@Z ; process_assert
  00059	c7 45 b0 00 00
	00 00		 mov	 DWORD PTR tv75[ebp], 0
$LN10@get_first_:
  00060	b9 01 00 00 00	 mov	 ecx, 1
  00065	85 c9		 test	 ecx, ecx
  00067	74 09		 je	 SHORT $LN11@get_first_
  00069	c7 45 ac 19 00
	00 00		 mov	 DWORD PTR tv83[ebp], 25	; 00000019H
  00070	eb 21		 jmp	 SHORT $LN12@get_first_
$LN11@get_first_:
  00072	8b 15 00 00 00
	00		 mov	 edx, DWORD PTR ?__LINE__Var@?0??get_first_wingman@@YGPAUENTITY@@XZ@4JA
  00078	83 c2 0a	 add	 edx, 10			; 0000000aH
  0007b	52		 push	 edx
  0007c	68 00 00 00 00	 push	 OFFSET ??_C@_0EG@KKKJIDAO@c?3?2users?2nhv90?2projects?2eech?2ap@
  00081	a1 00 00 00 00	 mov	 eax, DWORD PTR ?overload_invalid_list_type_message@@3PBDB ; overload_invalid_list_type_message
  00086	50		 push	 eax
  00087	e8 00 00 00 00	 call	 ?process_assert@@YGXPBD0H@Z ; process_assert
  0008c	c7 45 ac 00 00
	00 00		 mov	 DWORD PTR tv83[ebp], 0
$LN12@get_first_:
  00093	6a 19		 push	 25			; 00000019H
  00095	8b 4d fc	 mov	 ecx, DWORD PTR _source$[ebp]
  00098	51		 push	 ecx
  00099	69 55 b0 b4 00
	00 00		 imul	 edx, DWORD PTR tv75[ebp], 180
  000a0	8b 45 ac	 mov	 eax, DWORD PTR tv83[ebp]
  000a3	8b 8c 82 00 00
	00 00		 mov	 ecx, DWORD PTR ?fn_get_local_entity_parent@@3PAY0CN@P6GPAUENTITY@@PAU1@W4LIST_TYPES@@@ZA[edx+eax*4]
  000aa	ff d1		 call	 ecx
  000ac	89 45 f8	 mov	 DWORD PTR _group$[ebp], eax

; 3313 : 
; 3314 : 	if (group)

  000af	83 7d f8 00	 cmp	 DWORD PTR _group$[ebp], 0
  000b3	0f 84 23 01 00
	00		 je	 $LN5@get_first_

; 3315 : 	{
; 3316 : 		wingman = get_local_entity_first_child (group, LIST_TYPE_MEMBER);

  000b9	83 7d f8 00	 cmp	 DWORD PTR _group$[ebp], 0
  000bd	74 0a		 je	 SHORT $LN13@get_first_
  000bf	8b 45 f8	 mov	 eax, DWORD PTR _group$[ebp]
  000c2	8b 08		 mov	 ecx, DWORD PTR [eax]
  000c4	89 4d b0	 mov	 DWORD PTR tv128[ebp], ecx
  000c7	eb 21		 jmp	 SHORT $LN14@get_first_
$LN13@get_first_:
  000c9	8b 15 00 00 00
	00		 mov	 edx, DWORD PTR ?__LINE__Var@?0??get_first_wingman@@YGPAUENTITY@@XZ@4JA
  000cf	83 c2 0e	 add	 edx, 14			; 0000000eH
  000d2	52		 push	 edx
  000d3	68 00 00 00 00	 push	 OFFSET ??_C@_0EG@KKKJIDAO@c?3?2users?2nhv90?2projects?2eech?2ap@
  000d8	a1 00 00 00 00	 mov	 eax, DWORD PTR ?null_entity_pointer_message@@3PBDB ; null_entity_pointer_message
  000dd	50		 push	 eax
  000de	e8 00 00 00 00	 call	 ?process_assert@@YGXPBD0H@Z ; process_assert
  000e3	c7 45 b0 00 00
	00 00		 mov	 DWORD PTR tv128[ebp], 0
$LN14@get_first_:
  000ea	b9 01 00 00 00	 mov	 ecx, 1
  000ef	85 c9		 test	 ecx, ecx
  000f1	74 09		 je	 SHORT $LN15@get_first_
  000f3	c7 45 ac 19 00
	00 00		 mov	 DWORD PTR tv136[ebp], 25 ; 00000019H
  000fa	eb 21		 jmp	 SHORT $LN16@get_first_
$LN15@get_first_:
  000fc	8b 15 00 00 00
	00		 mov	 edx, DWORD PTR ?__LINE__Var@?0??get_first_wingman@@YGPAUENTITY@@XZ@4JA
  00102	83 c2 0e	 add	 edx, 14			; 0000000eH
  00105	52		 push	 edx
  00106	68 00 00 00 00	 push	 OFFSET ??_C@_0EG@KKKJIDAO@c?3?2users?2nhv90?2projects?2eech?2ap@
  0010b	a1 00 00 00 00	 mov	 eax, DWORD PTR ?overload_invalid_list_type_message@@3PBDB ; overload_invalid_list_type_message
  00110	50		 push	 eax
  00111	e8 00 00 00 00	 call	 ?process_assert@@YGXPBD0H@Z ; process_assert
  00116	c7 45 ac 00 00
	00 00		 mov	 DWORD PTR tv136[ebp], 0
$LN16@get_first_:
  0011d	6a 19		 push	 25			; 00000019H
  0011f	8b 4d f8	 mov	 ecx, DWORD PTR _group$[ebp]
  00122	51		 push	 ecx
  00123	69 55 b0 b4 00
	00 00		 imul	 edx, DWORD PTR tv128[ebp], 180
  0012a	8b 45 ac	 mov	 eax, DWORD PTR tv136[ebp]
  0012d	8b 8c 82 00 00
	00 00		 mov	 ecx, DWORD PTR ?fn_get_local_entity_first_child@@3PAY0CN@P6GPAUENTITY@@PAU1@W4LIST_TYPES@@@ZA[edx+eax*4]
  00134	ff d1		 call	 ecx
  00136	89 45 f4	 mov	 DWORD PTR _wingman$[ebp], eax
$LN2@get_first_:

; 3317 : 
; 3318 : 		while (wingman)

  00139	83 7d f4 00	 cmp	 DWORD PTR _wingman$[ebp], 0
  0013d	0f 84 97 00 00
	00		 je	 $LN3@get_first_

; 3319 : 		{
; 3320 : 			if (get_valid_wingman (wingman))

  00143	8b 45 f4	 mov	 eax, DWORD PTR _wingman$[ebp]
  00146	50		 push	 eax
  00147	e8 00 00 00 00	 call	 ?get_valid_wingman@@YGHPAUENTITY@@@Z ; get_valid_wingman
  0014c	85 c0		 test	 eax, eax
  0014e	74 05		 je	 SHORT $LN7@get_first_

; 3321 : 			{
; 3322 : 				break;

  00150	e9 85 00 00 00	 jmp	 $LN3@get_first_
$LN7@get_first_:

; 3323 : 			}
; 3324 : 
; 3325 : 			wingman = get_local_entity_child_succ (wingman, LIST_TYPE_MEMBER);

  00155	83 7d f4 00	 cmp	 DWORD PTR _wingman$[ebp], 0
  00159	74 0a		 je	 SHORT $LN17@get_first_
  0015b	8b 45 f4	 mov	 eax, DWORD PTR _wingman$[ebp]
  0015e	8b 08		 mov	 ecx, DWORD PTR [eax]
  00160	89 4d b0	 mov	 DWORD PTR tv152[ebp], ecx
  00163	eb 21		 jmp	 SHORT $LN18@get_first_
$LN17@get_first_:
  00165	8b 15 00 00 00
	00		 mov	 edx, DWORD PTR ?__LINE__Var@?0??get_first_wingman@@YGPAUENTITY@@XZ@4JA
  0016b	83 c2 17	 add	 edx, 23			; 00000017H
  0016e	52		 push	 edx
  0016f	68 00 00 00 00	 push	 OFFSET ??_C@_0EG@KKKJIDAO@c?3?2users?2nhv90?2projects?2eech?2ap@
  00174	a1 00 00 00 00	 mov	 eax, DWORD PTR ?null_entity_pointer_message@@3PBDB ; null_entity_pointer_message
  00179	50		 push	 eax
  0017a	e8 00 00 00 00	 call	 ?process_assert@@YGXPBD0H@Z ; process_assert
  0017f	c7 45 b0 00 00
	00 00		 mov	 DWORD PTR tv152[ebp], 0
$LN18@get_first_:
  00186	b9 01 00 00 00	 mov	 ecx, 1
  0018b	85 c9		 test	 ecx, ecx
  0018d	74 09		 je	 SHORT $LN19@get_first_
  0018f	c7 45 ac 19 00
	00 00		 mov	 DWORD PTR tv160[ebp], 25 ; 00000019H
  00196	eb 21		 jmp	 SHORT $LN20@get_first_
$LN19@get_first_:
  00198	8b 15 00 00 00
	00		 mov	 edx, DWORD PTR ?__LINE__Var@?0??get_first_wingman@@YGPAUENTITY@@XZ@4JA
  0019e	83 c2 17	 add	 edx, 23			; 00000017H
  001a1	52		 push	 edx
  001a2	68 00 00 00 00	 push	 OFFSET ??_C@_0EG@KKKJIDAO@c?3?2users?2nhv90?2projects?2eech?2ap@
  001a7	a1 00 00 00 00	 mov	 eax, DWORD PTR ?overload_invalid_list_type_message@@3PBDB ; overload_invalid_list_type_message
  001ac	50		 push	 eax
  001ad	e8 00 00 00 00	 call	 ?process_assert@@YGXPBD0H@Z ; process_assert
  001b2	c7 45 ac 00 00
	00 00		 mov	 DWORD PTR tv160[ebp], 0
$LN20@get_first_:
  001b9	6a 19		 push	 25			; 00000019H
  001bb	8b 4d f4	 mov	 ecx, DWORD PTR _wingman$[ebp]
  001be	51		 push	 ecx
  001bf	69 55 b0 b4 00
	00 00		 imul	 edx, DWORD PTR tv152[ebp], 180
  001c6	8b 45 ac	 mov	 eax, DWORD PTR tv160[ebp]
  001c9	8b 8c 82 00 00
	00 00		 mov	 ecx, DWORD PTR ?fn_get_local_entity_child_succ@@3PAY0CN@P6GPAUENTITY@@PAU1@W4LIST_TYPES@@@ZA[edx+eax*4]
  001d0	ff d1		 call	 ecx
  001d2	89 45 f4	 mov	 DWORD PTR _wingman$[ebp], eax

; 3326 : 		}

  001d5	e9 5f ff ff ff	 jmp	 $LN2@get_first_
$LN3@get_first_:

; 3327 : 	}
; 3328 : 	else

  001da	eb 07		 jmp	 SHORT $LN6@get_first_
$LN5@get_first_:

; 3329 : 	{
; 3330 : 		wingman = NULL;

  001dc	c7 45 f4 00 00
	00 00		 mov	 DWORD PTR _wingman$[ebp], 0
$LN6@get_first_:

; 3331 : 	}
; 3332 : 
; 3333 : 	return (wingman);

  001e3	8b 45 f4	 mov	 eax, DWORD PTR _wingman$[ebp]

; 3334 : }

  001e6	5f		 pop	 edi
  001e7	5e		 pop	 esi
  001e8	5b		 pop	 ebx
  001e9	8b e5		 mov	 esp, ebp
  001eb	5d		 pop	 ebp
  001ec	c3		 ret	 0
?get_first_wingman@@YGPAUENTITY@@XZ ENDP		; get_first_wingman
_TEXT	ENDS
; Function compile flags: /Odtp /ZI
; File c:\users\nhv90\projects\eech\aphavoc\source\gunships\views\vm_vckpt.c
;	COMDAT ?get_valid_wingman@@YGHPAUENTITY@@@Z
_TEXT	SEGMENT
tv81 = -72						; size = 4
tv74 = -68						; size = 4
_wingman$ = 8						; size = 4
?get_valid_wingman@@YGHPAUENTITY@@@Z PROC		; get_valid_wingman, COMDAT

; 3283 : {

  00000	55		 push	 ebp
  00001	8b ec		 mov	 ebp, esp
  00003	83 ec 48	 sub	 esp, 72			; 00000048H
  00006	53		 push	 ebx
  00007	56		 push	 esi
  00008	57		 push	 edi

; 3284 : 	ASSERT (wingman);

  00009	83 7d 08 00	 cmp	 DWORD PTR _wingman$[ebp], 0
  0000d	75 18		 jne	 SHORT $LN2@get_valid_
  0000f	a1 00 00 00 00	 mov	 eax, DWORD PTR ?__LINE__Var@?0??get_valid_wingman@@YGHPAUENTITY@@@Z@4JA
  00014	83 c0 01	 add	 eax, 1
  00017	50		 push	 eax
  00018	68 00 00 00 00	 push	 OFFSET ??_C@_0EG@KKKJIDAO@c?3?2users?2nhv90?2projects?2eech?2ap@
  0001d	68 00 00 00 00	 push	 OFFSET ??_C@_07EAKNLMLO@wingman@
  00022	e8 00 00 00 00	 call	 ?process_assert@@YGXPBD0H@Z ; process_assert
$LN2@get_valid_:

; 3285 : 
; 3286 : 	if (get_local_entity_int_value (wingman, INT_TYPE_VIEWABLE))

  00027	83 7d 08 00	 cmp	 DWORD PTR _wingman$[ebp], 0
  0002b	74 0a		 je	 SHORT $LN6@get_valid_
  0002d	8b 45 08	 mov	 eax, DWORD PTR _wingman$[ebp]
  00030	8b 08		 mov	 ecx, DWORD PTR [eax]
  00032	89 4d bc	 mov	 DWORD PTR tv74[ebp], ecx
  00035	eb 1d		 jmp	 SHORT $LN7@get_valid_
$LN6@get_valid_:
  00037	68 d6 0c 00 00	 push	 3286			; 00000cd6H
  0003c	68 00 00 00 00	 push	 OFFSET ??_C@_0EG@KKKJIDAO@c?3?2users?2nhv90?2projects?2eech?2ap@
  00041	8b 15 00 00 00
	00		 mov	 edx, DWORD PTR ?null_entity_pointer_message@@3PBDB ; null_entity_pointer_message
  00047	52		 push	 edx
  00048	e8 00 00 00 00	 call	 ?process_assert@@YGXPBD0H@Z ; process_assert
  0004d	c7 45 bc 00 00
	00 00		 mov	 DWORD PTR tv74[ebp], 0
$LN7@get_valid_:
  00054	b8 01 00 00 00	 mov	 eax, 1
  00059	85 c0		 test	 eax, eax
  0005b	74 09		 je	 SHORT $LN8@get_valid_
  0005d	c7 45 b8 f8 00
	00 00		 mov	 DWORD PTR tv81[ebp], 248 ; 000000f8H
  00064	eb 1d		 jmp	 SHORT $LN9@get_valid_
$LN8@get_valid_:
  00066	68 d6 0c 00 00	 push	 3286			; 00000cd6H
  0006b	68 00 00 00 00	 push	 OFFSET ??_C@_0EG@KKKJIDAO@c?3?2users?2nhv90?2projects?2eech?2ap@
  00070	8b 0d 00 00 00
	00		 mov	 ecx, DWORD PTR ?overload_invalid_int_type_message@@3PBDB ; overload_invalid_int_type_message
  00076	51		 push	 ecx
  00077	e8 00 00 00 00	 call	 ?process_assert@@YGXPBD0H@Z ; process_assert
  0007c	c7 45 b8 00 00
	00 00		 mov	 DWORD PTR tv81[ebp], 0
$LN9@get_valid_:
  00083	68 f8 00 00 00	 push	 248			; 000000f8H
  00088	8b 55 08	 mov	 edx, DWORD PTR _wingman$[ebp]
  0008b	52		 push	 edx
  0008c	69 45 bc 5c 04
	00 00		 imul	 eax, DWORD PTR tv74[ebp], 1116
  00093	8b 4d b8	 mov	 ecx, DWORD PTR tv81[ebp]
  00096	8b 94 88 00 00
	00 00		 mov	 edx, DWORD PTR ?fn_get_local_entity_int_value@@3PAY0BBH@P6GHPAUENTITY@@W4INT_TYPES@@@ZA[eax+ecx*4]
  0009d	ff d2		 call	 edx
  0009f	85 c0		 test	 eax, eax
  000a1	74 12		 je	 SHORT $LN3@get_valid_

; 3287 : 	{
; 3288 : 		if (wingman != get_gunship_entity ())

  000a3	8b 45 08	 mov	 eax, DWORD PTR _wingman$[ebp]
  000a6	3b 05 00 00 00
	00		 cmp	 eax, DWORD PTR ?gunship_entity@@3PAUENTITY@@A ; gunship_entity
  000ac	74 07		 je	 SHORT $LN3@get_valid_

; 3289 : 		{
; 3290 : 			return (TRUE);

  000ae	b8 01 00 00 00	 mov	 eax, 1
  000b3	eb 02		 jmp	 SHORT $LN1@get_valid_
$LN3@get_valid_:

; 3291 : 		}
; 3292 : 	}
; 3293 : 
; 3294 : 	return (FALSE);

  000b5	33 c0		 xor	 eax, eax
$LN1@get_valid_:

; 3295 : }

  000b7	5f		 pop	 edi
  000b8	5e		 pop	 esi
  000b9	5b		 pop	 ebx
  000ba	8b e5		 mov	 esp, ebp
  000bc	5d		 pop	 ebp
  000bd	c2 04 00	 ret	 4
?get_valid_wingman@@YGHPAUENTITY@@@Z ENDP		; get_valid_wingman
_TEXT	ENDS
; Function compile flags: /Odtp /ZI
; File c:\users\nhv90\projects\eech\aphavoc\source\gunships\views\vm_vckpt.c
;	COMDAT ?display_padlock_message@@YGXW4PADLOCK_MODES@@@Z
_TEXT	SEGMENT
tv180 = -508						; size = 4
tv172 = -504						; size = 4
tv463 = -500						; size = 4
tv428 = -500						; size = 4
tv402 = -500						; size = 4
tv375 = -500						; size = 4
tv349 = -500						; size = 4
tv322 = -500						; size = 4
tv296 = -500						; size = 4
tv270 = -500						; size = 4
tv246 = -500						; size = 4
tv224 = -500						; size = 4
tv203 = -500						; size = 4
tv159 = -500						; size = 4
tv137 = -500						; size = 4
tv80 = -500						; size = 4
tv455 = -496						; size = 4
tv420 = -496						; size = 4
tv394 = -496						; size = 4
tv367 = -496						; size = 4
tv341 = -496						; size = 4
tv314 = -496						; size = 4
tv288 = -496						; size = 4
tv262 = -496						; size = 4
tv238 = -496						; size = 4
tv216 = -496						; size = 4
tv196 = -496						; size = 4
tv151 = -496						; size = 4
tv129 = -496						; size = 4
tv72 = -496						; size = 4
tv64 = -496						; size = 4
_waypoint$1 = -428					; size = 4
_incoming$2 = -424					; size = 4
_ground_threat$3 = -420					; size = 4
_air_threat$4 = -416					; size = 4
_pilot$5 = -412						; size = 4
_group$6 = -408						; size = 4
_wingman$7 = -404					; size = 4
_pilot_name$8 = -400					; size = 200
_s$ = -200						; size = 200
_mode$ = 8						; size = 4
?display_padlock_message@@YGXW4PADLOCK_MODES@@@Z PROC	; display_padlock_message, COMDAT

; 3140 : {

  00000	55		 push	 ebp
  00001	8b ec		 mov	 ebp, esp
  00003	81 ec fc 01 00
	00		 sub	 esp, 508		; 000001fcH
  00009	53		 push	 ebx
  0000a	56		 push	 esi
  0000b	57		 push	 edi

; 3141 : 	char
; 3142 : 		s[200];
; 3143 : 
; 3144 : 	switch (mode)

  0000c	8b 45 08	 mov	 eax, DWORD PTR _mode$[ebp]
  0000f	89 85 10 fe ff
	ff		 mov	 DWORD PTR tv64[ebp], eax
  00015	83 bd 10 fe ff
	ff 05		 cmp	 DWORD PTR tv64[ebp], 5
  0001c	0f 87 34 0b 00
	00		 ja	 $LN20@display_pa
  00022	8b 8d 10 fe ff
	ff		 mov	 ecx, DWORD PTR tv64[ebp]
  00028	ff 24 8d 00 00
	00 00		 jmp	 DWORD PTR $LN82@display_pa[ecx*4]
$LN6@display_pa:

; 3145 : 	{
; 3146 : 		////////////////////////////////////////
; 3147 : 		case PADLOCK_MODE_NONE:
; 3148 : 		////////////////////////////////////////
; 3149 : 		{
; 3150 : 			debug_fatal ("Invalid padlock mode = PADLOCK_MODE_NONE");

  0002f	68 00 00 00 00	 push	 OFFSET ??_C@_0CJ@POFEAPGC@Invalid?5padlock?5mode?5?$DN?5PADLOCK_@
  00034	e8 00 00 00 00	 call	 ?debug_fatal@@YAXPBDZZ	; debug_fatal
  00039	83 c4 04	 add	 esp, 4

; 3151 : 
; 3152 : 			break;

  0003c	e9 26 0b 00 00	 jmp	 $LN1@display_pa
$LN7@display_pa:

; 3153 : 		}
; 3154 : 		////////////////////////////////////////
; 3155 : 		case PADLOCK_MODE_WINGMAN:
; 3156 : 		////////////////////////////////////////
; 3157 : 		{
; 3158 : 			char
; 3159 : 				pilot_name[200];
; 3160 : 
; 3161 : 			entity
; 3162 : 				*wingman,
; 3163 : 				*group,
; 3164 : 				*pilot;
; 3165 : 
; 3166 : 			wingman = get_local_entity_first_child (get_gunship_entity (), LIST_TYPE_PADLOCK);

  00041	83 3d 00 00 00
	00 00		 cmp	 DWORD PTR ?gunship_entity@@3PAUENTITY@@A, 0 ; gunship_entity
  00048	74 0f		 je	 SHORT $LN22@display_pa
  0004a	a1 00 00 00 00	 mov	 eax, DWORD PTR ?gunship_entity@@3PAUENTITY@@A ; gunship_entity
  0004f	8b 08		 mov	 ecx, DWORD PTR [eax]
  00051	89 8d 10 fe ff
	ff		 mov	 DWORD PTR tv72[ebp], ecx
  00057	eb 24		 jmp	 SHORT $LN23@display_pa
$LN22@display_pa:
  00059	8b 15 00 00 00
	00		 mov	 edx, DWORD PTR ?__LINE__Var@?0??display_padlock_message@@YGXW4PADLOCK_MODES@@@Z@4JA
  0005f	83 c2 1a	 add	 edx, 26			; 0000001aH
  00062	52		 push	 edx
  00063	68 00 00 00 00	 push	 OFFSET ??_C@_0EG@KKKJIDAO@c?3?2users?2nhv90?2projects?2eech?2ap@
  00068	a1 00 00 00 00	 mov	 eax, DWORD PTR ?null_entity_pointer_message@@3PBDB ; null_entity_pointer_message
  0006d	50		 push	 eax
  0006e	e8 00 00 00 00	 call	 ?process_assert@@YGXPBD0H@Z ; process_assert
  00073	c7 85 10 fe ff
	ff 00 00 00 00	 mov	 DWORD PTR tv72[ebp], 0
$LN23@display_pa:
  0007d	b9 01 00 00 00	 mov	 ecx, 1
  00082	85 c9		 test	 ecx, ecx
  00084	74 0c		 je	 SHORT $LN24@display_pa
  00086	c7 85 0c fe ff
	ff 1b 00 00 00	 mov	 DWORD PTR tv80[ebp], 27	; 0000001bH
  00090	eb 24		 jmp	 SHORT $LN25@display_pa
$LN24@display_pa:
  00092	8b 15 00 00 00
	00		 mov	 edx, DWORD PTR ?__LINE__Var@?0??display_padlock_message@@YGXW4PADLOCK_MODES@@@Z@4JA
  00098	83 c2 1a	 add	 edx, 26			; 0000001aH
  0009b	52		 push	 edx
  0009c	68 00 00 00 00	 push	 OFFSET ??_C@_0EG@KKKJIDAO@c?3?2users?2nhv90?2projects?2eech?2ap@
  000a1	a1 00 00 00 00	 mov	 eax, DWORD PTR ?overload_invalid_list_type_message@@3PBDB ; overload_invalid_list_type_message
  000a6	50		 push	 eax
  000a7	e8 00 00 00 00	 call	 ?process_assert@@YGXPBD0H@Z ; process_assert
  000ac	c7 85 0c fe ff
	ff 00 00 00 00	 mov	 DWORD PTR tv80[ebp], 0
$LN25@display_pa:
  000b6	6a 1b		 push	 27			; 0000001bH
  000b8	8b 0d 00 00 00
	00		 mov	 ecx, DWORD PTR ?gunship_entity@@3PAUENTITY@@A ; gunship_entity
  000be	51		 push	 ecx
  000bf	69 95 10 fe ff
	ff b4 00 00 00	 imul	 edx, DWORD PTR tv72[ebp], 180
  000c9	8b 85 0c fe ff
	ff		 mov	 eax, DWORD PTR tv80[ebp]
  000cf	8b 8c 82 00 00
	00 00		 mov	 ecx, DWORD PTR ?fn_get_local_entity_first_child@@3PAY0CN@P6GPAUENTITY@@PAU1@W4LIST_TYPES@@@ZA[edx+eax*4]
  000d6	ff d1		 call	 ecx
  000d8	89 85 6c fe ff
	ff		 mov	 DWORD PTR _wingman$7[ebp], eax

; 3167 : 
; 3168 : 			ASSERT (wingman);

  000de	83 bd 6c fe ff
	ff 00		 cmp	 DWORD PTR _wingman$7[ebp], 0
  000e5	75 18		 jne	 SHORT $LN8@display_pa
  000e7	a1 00 00 00 00	 mov	 eax, DWORD PTR ?__LINE__Var@?0??display_padlock_message@@YGXW4PADLOCK_MODES@@@Z@4JA
  000ec	83 c0 1c	 add	 eax, 28			; 0000001cH
  000ef	50		 push	 eax
  000f0	68 00 00 00 00	 push	 OFFSET ??_C@_0EG@KKKJIDAO@c?3?2users?2nhv90?2projects?2eech?2ap@
  000f5	68 00 00 00 00	 push	 OFFSET ??_C@_07EAKNLMLO@wingman@
  000fa	e8 00 00 00 00	 call	 ?process_assert@@YGXPBD0H@Z ; process_assert
$LN8@display_pa:

; 3169 : 
; 3170 : 			group = get_local_entity_parent (wingman, LIST_TYPE_MEMBER);

  000ff	83 bd 6c fe ff
	ff 00		 cmp	 DWORD PTR _wingman$7[ebp], 0
  00106	74 10		 je	 SHORT $LN26@display_pa
  00108	8b 85 6c fe ff
	ff		 mov	 eax, DWORD PTR _wingman$7[ebp]
  0010e	8b 08		 mov	 ecx, DWORD PTR [eax]
  00110	89 8d 10 fe ff
	ff		 mov	 DWORD PTR tv129[ebp], ecx
  00116	eb 24		 jmp	 SHORT $LN27@display_pa
$LN26@display_pa:
  00118	8b 15 00 00 00
	00		 mov	 edx, DWORD PTR ?__LINE__Var@?0??display_padlock_message@@YGXW4PADLOCK_MODES@@@Z@4JA
  0011e	83 c2 1e	 add	 edx, 30			; 0000001eH
  00121	52		 push	 edx
  00122	68 00 00 00 00	 push	 OFFSET ??_C@_0EG@KKKJIDAO@c?3?2users?2nhv90?2projects?2eech?2ap@
  00127	a1 00 00 00 00	 mov	 eax, DWORD PTR ?null_entity_pointer_message@@3PBDB ; null_entity_pointer_message
  0012c	50		 push	 eax
  0012d	e8 00 00 00 00	 call	 ?process_assert@@YGXPBD0H@Z ; process_assert
  00132	c7 85 10 fe ff
	ff 00 00 00 00	 mov	 DWORD PTR tv129[ebp], 0
$LN27@display_pa:
  0013c	b9 01 00 00 00	 mov	 ecx, 1
  00141	85 c9		 test	 ecx, ecx
  00143	74 0c		 je	 SHORT $LN28@display_pa
  00145	c7 85 0c fe ff
	ff 19 00 00 00	 mov	 DWORD PTR tv137[ebp], 25 ; 00000019H
  0014f	eb 24		 jmp	 SHORT $LN29@display_pa
$LN28@display_pa:
  00151	8b 15 00 00 00
	00		 mov	 edx, DWORD PTR ?__LINE__Var@?0??display_padlock_message@@YGXW4PADLOCK_MODES@@@Z@4JA
  00157	83 c2 1e	 add	 edx, 30			; 0000001eH
  0015a	52		 push	 edx
  0015b	68 00 00 00 00	 push	 OFFSET ??_C@_0EG@KKKJIDAO@c?3?2users?2nhv90?2projects?2eech?2ap@
  00160	a1 00 00 00 00	 mov	 eax, DWORD PTR ?overload_invalid_list_type_message@@3PBDB ; overload_invalid_list_type_message
  00165	50		 push	 eax
  00166	e8 00 00 00 00	 call	 ?process_assert@@YGXPBD0H@Z ; process_assert
  0016b	c7 85 0c fe ff
	ff 00 00 00 00	 mov	 DWORD PTR tv137[ebp], 0
$LN29@display_pa:
  00175	6a 19		 push	 25			; 00000019H
  00177	8b 8d 6c fe ff
	ff		 mov	 ecx, DWORD PTR _wingman$7[ebp]
  0017d	51		 push	 ecx
  0017e	69 95 10 fe ff
	ff b4 00 00 00	 imul	 edx, DWORD PTR tv129[ebp], 180
  00188	8b 85 0c fe ff
	ff		 mov	 eax, DWORD PTR tv137[ebp]
  0018e	8b 8c 82 00 00
	00 00		 mov	 ecx, DWORD PTR ?fn_get_local_entity_parent@@3PAY0CN@P6GPAUENTITY@@PAU1@W4LIST_TYPES@@@ZA[edx+eax*4]
  00195	ff d1		 call	 ecx
  00197	89 85 68 fe ff
	ff		 mov	 DWORD PTR _group$6[ebp], eax

; 3171 : 
; 3172 : 			if (group)

  0019d	83 bd 68 fe ff
	ff 00		 cmp	 DWORD PTR _group$6[ebp], 0
  001a4	0f 84 07 04 00
	00		 je	 $LN9@display_pa

; 3173 : 			{
; 3174 : 				sprintf (s, "%s %s 1-%d", get_trans ("Padlock wingman"), get_local_entity_string (group, STRING_TYPE_GROUP_CALLSIGN), get_local_entity_int_value (wingman, INT_TYPE_GROUP_MEMBER_ID));

  001aa	83 bd 6c fe ff
	ff 00		 cmp	 DWORD PTR _wingman$7[ebp], 0
  001b1	74 10		 je	 SHORT $LN30@display_pa
  001b3	8b 85 6c fe ff
	ff		 mov	 eax, DWORD PTR _wingman$7[ebp]
  001b9	8b 08		 mov	 ecx, DWORD PTR [eax]
  001bb	89 8d 10 fe ff
	ff		 mov	 DWORD PTR tv151[ebp], ecx
  001c1	eb 24		 jmp	 SHORT $LN31@display_pa
$LN30@display_pa:
  001c3	8b 15 00 00 00
	00		 mov	 edx, DWORD PTR ?__LINE__Var@?0??display_padlock_message@@YGXW4PADLOCK_MODES@@@Z@4JA
  001c9	83 c2 22	 add	 edx, 34			; 00000022H
  001cc	52		 push	 edx
  001cd	68 00 00 00 00	 push	 OFFSET ??_C@_0EG@KKKJIDAO@c?3?2users?2nhv90?2projects?2eech?2ap@
  001d2	a1 00 00 00 00	 mov	 eax, DWORD PTR ?null_entity_pointer_message@@3PBDB ; null_entity_pointer_message
  001d7	50		 push	 eax
  001d8	e8 00 00 00 00	 call	 ?process_assert@@YGXPBD0H@Z ; process_assert
  001dd	c7 85 10 fe ff
	ff 00 00 00 00	 mov	 DWORD PTR tv151[ebp], 0
$LN31@display_pa:
  001e7	b9 01 00 00 00	 mov	 ecx, 1
  001ec	85 c9		 test	 ecx, ecx
  001ee	74 0c		 je	 SHORT $LN32@display_pa
  001f0	c7 85 0c fe ff
	ff 4a 00 00 00	 mov	 DWORD PTR tv159[ebp], 74 ; 0000004aH
  001fa	eb 24		 jmp	 SHORT $LN33@display_pa
$LN32@display_pa:
  001fc	8b 15 00 00 00
	00		 mov	 edx, DWORD PTR ?__LINE__Var@?0??display_padlock_message@@YGXW4PADLOCK_MODES@@@Z@4JA
  00202	83 c2 22	 add	 edx, 34			; 00000022H
  00205	52		 push	 edx
  00206	68 00 00 00 00	 push	 OFFSET ??_C@_0EG@KKKJIDAO@c?3?2users?2nhv90?2projects?2eech?2ap@
  0020b	a1 00 00 00 00	 mov	 eax, DWORD PTR ?overload_invalid_int_type_message@@3PBDB ; overload_invalid_int_type_message
  00210	50		 push	 eax
  00211	e8 00 00 00 00	 call	 ?process_assert@@YGXPBD0H@Z ; process_assert
  00216	c7 85 0c fe ff
	ff 00 00 00 00	 mov	 DWORD PTR tv159[ebp], 0
$LN33@display_pa:
  00220	83 bd 68 fe ff
	ff 00		 cmp	 DWORD PTR _group$6[ebp], 0
  00227	74 10		 je	 SHORT $LN34@display_pa
  00229	8b 8d 68 fe ff
	ff		 mov	 ecx, DWORD PTR _group$6[ebp]
  0022f	8b 11		 mov	 edx, DWORD PTR [ecx]
  00231	89 95 08 fe ff
	ff		 mov	 DWORD PTR tv172[ebp], edx
  00237	eb 24		 jmp	 SHORT $LN35@display_pa
$LN34@display_pa:
  00239	a1 00 00 00 00	 mov	 eax, DWORD PTR ?__LINE__Var@?0??display_padlock_message@@YGXW4PADLOCK_MODES@@@Z@4JA
  0023e	83 c0 22	 add	 eax, 34			; 00000022H
  00241	50		 push	 eax
  00242	68 00 00 00 00	 push	 OFFSET ??_C@_0EG@KKKJIDAO@c?3?2users?2nhv90?2projects?2eech?2ap@
  00247	8b 0d 00 00 00
	00		 mov	 ecx, DWORD PTR ?null_entity_pointer_message@@3PBDB ; null_entity_pointer_message
  0024d	51		 push	 ecx
  0024e	e8 00 00 00 00	 call	 ?process_assert@@YGXPBD0H@Z ; process_assert
  00253	c7 85 08 fe ff
	ff 00 00 00 00	 mov	 DWORD PTR tv172[ebp], 0
$LN35@display_pa:
  0025d	ba 01 00 00 00	 mov	 edx, 1
  00262	85 d2		 test	 edx, edx
  00264	74 0c		 je	 SHORT $LN36@display_pa
  00266	c7 85 04 fe ff
	ff 04 00 00 00	 mov	 DWORD PTR tv180[ebp], 4
  00270	eb 24		 jmp	 SHORT $LN37@display_pa
$LN36@display_pa:
  00272	a1 00 00 00 00	 mov	 eax, DWORD PTR ?__LINE__Var@?0??display_padlock_message@@YGXW4PADLOCK_MODES@@@Z@4JA
  00277	83 c0 22	 add	 eax, 34			; 00000022H
  0027a	50		 push	 eax
  0027b	68 00 00 00 00	 push	 OFFSET ??_C@_0EG@KKKJIDAO@c?3?2users?2nhv90?2projects?2eech?2ap@
  00280	8b 0d 00 00 00
	00		 mov	 ecx, DWORD PTR ?overload_invalid_string_type_message@@3PBDB ; overload_invalid_string_type_message
  00286	51		 push	 ecx
  00287	e8 00 00 00 00	 call	 ?process_assert@@YGXPBD0H@Z ; process_assert
  0028c	c7 85 04 fe ff
	ff 00 00 00 00	 mov	 DWORD PTR tv180[ebp], 0
$LN37@display_pa:
  00296	6a 4a		 push	 74			; 0000004aH
  00298	8b 95 6c fe ff
	ff		 mov	 edx, DWORD PTR _wingman$7[ebp]
  0029e	52		 push	 edx
  0029f	69 85 10 fe ff
	ff 5c 04 00 00	 imul	 eax, DWORD PTR tv151[ebp], 1116
  002a9	8b 8d 0c fe ff
	ff		 mov	 ecx, DWORD PTR tv159[ebp]
  002af	8b 94 88 00 00
	00 00		 mov	 edx, DWORD PTR ?fn_get_local_entity_int_value@@3PAY0BBH@P6GHPAUENTITY@@W4INT_TYPES@@@ZA[eax+ecx*4]
  002b6	ff d2		 call	 edx
  002b8	50		 push	 eax
  002b9	6a 04		 push	 4
  002bb	8b 85 68 fe ff
	ff		 mov	 eax, DWORD PTR _group$6[ebp]
  002c1	50		 push	 eax
  002c2	6b 8d 08 fe ff
	ff 34		 imul	 ecx, DWORD PTR tv172[ebp], 52
  002c9	8b 95 04 fe ff
	ff		 mov	 edx, DWORD PTR tv180[ebp]
  002cf	8b 84 91 00 00
	00 00		 mov	 eax, DWORD PTR ?fn_get_local_entity_string@@3PAY0N@P6GPBDPAUENTITY@@W4STRING_TYPES@@@ZA[ecx+edx*4]
  002d6	ff d0		 call	 eax
  002d8	50		 push	 eax
  002d9	68 00 00 00 00	 push	 OFFSET ??_C@_0BA@MDJGGDBO@Padlock?5wingman@
  002de	e8 00 00 00 00	 call	 ?get_trans@@YGPBDPBD@Z	; get_trans
  002e3	50		 push	 eax
  002e4	68 00 00 00 00	 push	 OFFSET ??_C@_0L@GGIILOHB@?$CFs?5?$CFs?51?9?$CFd@
  002e9	8d 8d 38 ff ff
	ff		 lea	 ecx, DWORD PTR _s$[ebp]
  002ef	51		 push	 ecx
  002f0	e8 00 00 00 00	 call	 _sprintf
  002f5	83 c4 14	 add	 esp, 20			; 00000014H

; 3175 : 
; 3176 : 				if (get_local_entity_int_value (wingman, INT_TYPE_PLAYER) != ENTITY_PLAYER_AI)

  002f8	83 bd 6c fe ff
	ff 00		 cmp	 DWORD PTR _wingman$7[ebp], 0
  002ff	74 10		 je	 SHORT $LN38@display_pa
  00301	8b 85 6c fe ff
	ff		 mov	 eax, DWORD PTR _wingman$7[ebp]
  00307	8b 08		 mov	 ecx, DWORD PTR [eax]
  00309	89 8d 10 fe ff
	ff		 mov	 DWORD PTR tv196[ebp], ecx
  0030f	eb 20		 jmp	 SHORT $LN39@display_pa
$LN38@display_pa:
  00311	68 68 0c 00 00	 push	 3176			; 00000c68H
  00316	68 00 00 00 00	 push	 OFFSET ??_C@_0EG@KKKJIDAO@c?3?2users?2nhv90?2projects?2eech?2ap@
  0031b	8b 15 00 00 00
	00		 mov	 edx, DWORD PTR ?null_entity_pointer_message@@3PBDB ; null_entity_pointer_message
  00321	52		 push	 edx
  00322	e8 00 00 00 00	 call	 ?process_assert@@YGXPBD0H@Z ; process_assert
  00327	c7 85 10 fe ff
	ff 00 00 00 00	 mov	 DWORD PTR tv196[ebp], 0
$LN39@display_pa:
  00331	b8 01 00 00 00	 mov	 eax, 1
  00336	85 c0		 test	 eax, eax
  00338	74 0c		 je	 SHORT $LN40@display_pa
  0033a	c7 85 0c fe ff
	ff 9c 00 00 00	 mov	 DWORD PTR tv203[ebp], 156 ; 0000009cH
  00344	eb 20		 jmp	 SHORT $LN41@display_pa
$LN40@display_pa:
  00346	68 68 0c 00 00	 push	 3176			; 00000c68H
  0034b	68 00 00 00 00	 push	 OFFSET ??_C@_0EG@KKKJIDAO@c?3?2users?2nhv90?2projects?2eech?2ap@
  00350	8b 0d 00 00 00
	00		 mov	 ecx, DWORD PTR ?overload_invalid_int_type_message@@3PBDB ; overload_invalid_int_type_message
  00356	51		 push	 ecx
  00357	e8 00 00 00 00	 call	 ?process_assert@@YGXPBD0H@Z ; process_assert
  0035c	c7 85 0c fe ff
	ff 00 00 00 00	 mov	 DWORD PTR tv203[ebp], 0
$LN41@display_pa:
  00366	68 9c 00 00 00	 push	 156			; 0000009cH
  0036b	8b 95 6c fe ff
	ff		 mov	 edx, DWORD PTR _wingman$7[ebp]
  00371	52		 push	 edx
  00372	69 85 10 fe ff
	ff 5c 04 00 00	 imul	 eax, DWORD PTR tv196[ebp], 1116
  0037c	8b 8d 0c fe ff
	ff		 mov	 ecx, DWORD PTR tv203[ebp]
  00382	8b 94 88 00 00
	00 00		 mov	 edx, DWORD PTR ?fn_get_local_entity_int_value@@3PAY0BBH@P6GHPAUENTITY@@W4INT_TYPES@@@ZA[eax+ecx*4]
  00389	ff d2		 call	 edx
  0038b	85 c0		 test	 eax, eax
  0038d	0f 84 0e 02 00
	00		 je	 $LN11@display_pa

; 3177 : 				{
; 3178 : 					pilot = get_local_entity_first_child (wingman, LIST_TYPE_AIRCREW);

  00393	83 bd 6c fe ff
	ff 00		 cmp	 DWORD PTR _wingman$7[ebp], 0
  0039a	74 10		 je	 SHORT $LN42@display_pa
  0039c	8b 85 6c fe ff
	ff		 mov	 eax, DWORD PTR _wingman$7[ebp]
  003a2	8b 08		 mov	 ecx, DWORD PTR [eax]
  003a4	89 8d 10 fe ff
	ff		 mov	 DWORD PTR tv216[ebp], ecx
  003aa	eb 24		 jmp	 SHORT $LN43@display_pa
$LN42@display_pa:
  003ac	8b 15 00 00 00
	00		 mov	 edx, DWORD PTR ?__LINE__Var@?0??display_padlock_message@@YGXW4PADLOCK_MODES@@@Z@4JA
  003b2	83 c2 26	 add	 edx, 38			; 00000026H
  003b5	52		 push	 edx
  003b6	68 00 00 00 00	 push	 OFFSET ??_C@_0EG@KKKJIDAO@c?3?2users?2nhv90?2projects?2eech?2ap@
  003bb	a1 00 00 00 00	 mov	 eax, DWORD PTR ?null_entity_pointer_message@@3PBDB ; null_entity_pointer_message
  003c0	50		 push	 eax
  003c1	e8 00 00 00 00	 call	 ?process_assert@@YGXPBD0H@Z ; process_assert
  003c6	c7 85 10 fe ff
	ff 00 00 00 00	 mov	 DWORD PTR tv216[ebp], 0
$LN43@display_pa:
  003d0	b9 01 00 00 00	 mov	 ecx, 1
  003d5	85 c9		 test	 ecx, ecx
  003d7	74 0c		 je	 SHORT $LN44@display_pa
  003d9	c7 85 0c fe ff
	ff 01 00 00 00	 mov	 DWORD PTR tv224[ebp], 1
  003e3	eb 24		 jmp	 SHORT $LN45@display_pa
$LN44@display_pa:
  003e5	8b 15 00 00 00
	00		 mov	 edx, DWORD PTR ?__LINE__Var@?0??display_padlock_message@@YGXW4PADLOCK_MODES@@@Z@4JA
  003eb	83 c2 26	 add	 edx, 38			; 00000026H
  003ee	52		 push	 edx
  003ef	68 00 00 00 00	 push	 OFFSET ??_C@_0EG@KKKJIDAO@c?3?2users?2nhv90?2projects?2eech?2ap@
  003f4	a1 00 00 00 00	 mov	 eax, DWORD PTR ?overload_invalid_list_type_message@@3PBDB ; overload_invalid_list_type_message
  003f9	50		 push	 eax
  003fa	e8 00 00 00 00	 call	 ?process_assert@@YGXPBD0H@Z ; process_assert
  003ff	c7 85 0c fe ff
	ff 00 00 00 00	 mov	 DWORD PTR tv224[ebp], 0
$LN45@display_pa:
  00409	6a 01		 push	 1
  0040b	8b 8d 6c fe ff
	ff		 mov	 ecx, DWORD PTR _wingman$7[ebp]
  00411	51		 push	 ecx
  00412	69 95 10 fe ff
	ff b4 00 00 00	 imul	 edx, DWORD PTR tv216[ebp], 180
  0041c	8b 85 0c fe ff
	ff		 mov	 eax, DWORD PTR tv224[ebp]
  00422	8b 8c 82 00 00
	00 00		 mov	 ecx, DWORD PTR ?fn_get_local_entity_first_child@@3PAY0CN@P6GPAUENTITY@@PAU1@W4LIST_TYPES@@@ZA[edx+eax*4]
  00429	ff d1		 call	 ecx
  0042b	89 85 64 fe ff
	ff		 mov	 DWORD PTR _pilot$5[ebp], eax
$LN4@display_pa:

; 3179 : 
; 3180 : 					while (pilot)

  00431	83 bd 64 fe ff
	ff 00		 cmp	 DWORD PTR _pilot$5[ebp], 0
  00438	0f 84 63 01 00
	00		 je	 $LN11@display_pa

; 3181 : 					{
; 3182 : 						sprintf (pilot_name, " (%s)", get_local_entity_string (pilot, STRING_TYPE_PILOTS_NAME));

  0043e	83 bd 64 fe ff
	ff 00		 cmp	 DWORD PTR _pilot$5[ebp], 0
  00445	74 10		 je	 SHORT $LN46@display_pa
  00447	8b 85 64 fe ff
	ff		 mov	 eax, DWORD PTR _pilot$5[ebp]
  0044d	8b 08		 mov	 ecx, DWORD PTR [eax]
  0044f	89 8d 10 fe ff
	ff		 mov	 DWORD PTR tv238[ebp], ecx
  00455	eb 24		 jmp	 SHORT $LN47@display_pa
$LN46@display_pa:
  00457	8b 15 00 00 00
	00		 mov	 edx, DWORD PTR ?__LINE__Var@?0??display_padlock_message@@YGXW4PADLOCK_MODES@@@Z@4JA
  0045d	83 c2 2a	 add	 edx, 42			; 0000002aH
  00460	52		 push	 edx
  00461	68 00 00 00 00	 push	 OFFSET ??_C@_0EG@KKKJIDAO@c?3?2users?2nhv90?2projects?2eech?2ap@
  00466	a1 00 00 00 00	 mov	 eax, DWORD PTR ?null_entity_pointer_message@@3PBDB ; null_entity_pointer_message
  0046b	50		 push	 eax
  0046c	e8 00 00 00 00	 call	 ?process_assert@@YGXPBD0H@Z ; process_assert
  00471	c7 85 10 fe ff
	ff 00 00 00 00	 mov	 DWORD PTR tv238[ebp], 0
$LN47@display_pa:
  0047b	b9 01 00 00 00	 mov	 ecx, 1
  00480	85 c9		 test	 ecx, ecx
  00482	74 0c		 je	 SHORT $LN48@display_pa
  00484	c7 85 0c fe ff
	ff 0a 00 00 00	 mov	 DWORD PTR tv246[ebp], 10 ; 0000000aH
  0048e	eb 24		 jmp	 SHORT $LN49@display_pa
$LN48@display_pa:
  00490	8b 15 00 00 00
	00		 mov	 edx, DWORD PTR ?__LINE__Var@?0??display_padlock_message@@YGXW4PADLOCK_MODES@@@Z@4JA
  00496	83 c2 2a	 add	 edx, 42			; 0000002aH
  00499	52		 push	 edx
  0049a	68 00 00 00 00	 push	 OFFSET ??_C@_0EG@KKKJIDAO@c?3?2users?2nhv90?2projects?2eech?2ap@
  0049f	a1 00 00 00 00	 mov	 eax, DWORD PTR ?overload_invalid_string_type_message@@3PBDB ; overload_invalid_string_type_message
  004a4	50		 push	 eax
  004a5	e8 00 00 00 00	 call	 ?process_assert@@YGXPBD0H@Z ; process_assert
  004aa	c7 85 0c fe ff
	ff 00 00 00 00	 mov	 DWORD PTR tv246[ebp], 0
$LN49@display_pa:
  004b4	6a 0a		 push	 10			; 0000000aH
  004b6	8b 8d 64 fe ff
	ff		 mov	 ecx, DWORD PTR _pilot$5[ebp]
  004bc	51		 push	 ecx
  004bd	6b 95 10 fe ff
	ff 34		 imul	 edx, DWORD PTR tv238[ebp], 52
  004c4	8b 85 0c fe ff
	ff		 mov	 eax, DWORD PTR tv246[ebp]
  004ca	8b 8c 82 00 00
	00 00		 mov	 ecx, DWORD PTR ?fn_get_local_entity_string@@3PAY0N@P6GPBDPAUENTITY@@W4STRING_TYPES@@@ZA[edx+eax*4]
  004d1	ff d1		 call	 ecx
  004d3	50		 push	 eax
  004d4	68 00 00 00 00	 push	 OFFSET ??_C@_05DNDNCJEB@?5?$CI?$CFs?$CJ@
  004d9	8d 95 70 fe ff
	ff		 lea	 edx, DWORD PTR _pilot_name$8[ebp]
  004df	52		 push	 edx
  004e0	e8 00 00 00 00	 call	 _sprintf
  004e5	83 c4 0c	 add	 esp, 12			; 0000000cH

; 3183 : 
; 3184 : 						strcat (s, pilot_name);

  004e8	8d 85 70 fe ff
	ff		 lea	 eax, DWORD PTR _pilot_name$8[ebp]
  004ee	50		 push	 eax
  004ef	8d 8d 38 ff ff
	ff		 lea	 ecx, DWORD PTR _s$[ebp]
  004f5	51		 push	 ecx
  004f6	e8 00 00 00 00	 call	 _strcat
  004fb	83 c4 08	 add	 esp, 8

; 3185 : 
; 3186 : 						pilot = get_local_entity_child_succ (pilot, LIST_TYPE_AIRCREW);

  004fe	83 bd 64 fe ff
	ff 00		 cmp	 DWORD PTR _pilot$5[ebp], 0
  00505	74 10		 je	 SHORT $LN50@display_pa
  00507	8b 85 64 fe ff
	ff		 mov	 eax, DWORD PTR _pilot$5[ebp]
  0050d	8b 08		 mov	 ecx, DWORD PTR [eax]
  0050f	89 8d 10 fe ff
	ff		 mov	 DWORD PTR tv262[ebp], ecx
  00515	eb 24		 jmp	 SHORT $LN51@display_pa
$LN50@display_pa:
  00517	8b 15 00 00 00
	00		 mov	 edx, DWORD PTR ?__LINE__Var@?0??display_padlock_message@@YGXW4PADLOCK_MODES@@@Z@4JA
  0051d	83 c2 2e	 add	 edx, 46			; 0000002eH
  00520	52		 push	 edx
  00521	68 00 00 00 00	 push	 OFFSET ??_C@_0EG@KKKJIDAO@c?3?2users?2nhv90?2projects?2eech?2ap@
  00526	a1 00 00 00 00	 mov	 eax, DWORD PTR ?null_entity_pointer_message@@3PBDB ; null_entity_pointer_message
  0052b	50		 push	 eax
  0052c	e8 00 00 00 00	 call	 ?process_assert@@YGXPBD0H@Z ; process_assert
  00531	c7 85 10 fe ff
	ff 00 00 00 00	 mov	 DWORD PTR tv262[ebp], 0
$LN51@display_pa:
  0053b	b9 01 00 00 00	 mov	 ecx, 1
  00540	85 c9		 test	 ecx, ecx
  00542	74 0c		 je	 SHORT $LN52@display_pa
  00544	c7 85 0c fe ff
	ff 01 00 00 00	 mov	 DWORD PTR tv270[ebp], 1
  0054e	eb 24		 jmp	 SHORT $LN53@display_pa
$LN52@display_pa:
  00550	8b 15 00 00 00
	00		 mov	 edx, DWORD PTR ?__LINE__Var@?0??display_padlock_message@@YGXW4PADLOCK_MODES@@@Z@4JA
  00556	83 c2 2e	 add	 edx, 46			; 0000002eH
  00559	52		 push	 edx
  0055a	68 00 00 00 00	 push	 OFFSET ??_C@_0EG@KKKJIDAO@c?3?2users?2nhv90?2projects?2eech?2ap@
  0055f	a1 00 00 00 00	 mov	 eax, DWORD PTR ?overload_invalid_list_type_message@@3PBDB ; overload_invalid_list_type_message
  00564	50		 push	 eax
  00565	e8 00 00 00 00	 call	 ?process_assert@@YGXPBD0H@Z ; process_assert
  0056a	c7 85 0c fe ff
	ff 00 00 00 00	 mov	 DWORD PTR tv270[ebp], 0
$LN53@display_pa:
  00574	6a 01		 push	 1
  00576	8b 8d 64 fe ff
	ff		 mov	 ecx, DWORD PTR _pilot$5[ebp]
  0057c	51		 push	 ecx
  0057d	69 95 10 fe ff
	ff b4 00 00 00	 imul	 edx, DWORD PTR tv262[ebp], 180
  00587	8b 85 0c fe ff
	ff		 mov	 eax, DWORD PTR tv270[ebp]
  0058d	8b 8c 82 00 00
	00 00		 mov	 ecx, DWORD PTR ?fn_get_local_entity_child_succ@@3PAY0CN@P6GPAUENTITY@@PAU1@W4LIST_TYPES@@@ZA[edx+eax*4]
  00594	ff d1		 call	 ecx
  00596	89 85 64 fe ff
	ff		 mov	 DWORD PTR _pilot$5[ebp], eax

; 3187 : 					}

  0059c	e9 90 fe ff ff	 jmp	 $LN4@display_pa
$LN11@display_pa:

; 3188 : 				}
; 3189 : 
; 3190 : 				set_status_message (s, STATUS_MESSAGE_TYPE_NONE);

  005a1	6a 00		 push	 0
  005a3	8d 85 38 ff ff
	ff		 lea	 eax, DWORD PTR _s$[ebp]
  005a9	50		 push	 eax
  005aa	e8 00 00 00 00	 call	 ?set_status_message@@YGXPBDW4STATUS_MESSAGE_TYPES@@@Z ; set_status_message

; 3191 : 			}
; 3192 : 			else

  005af	eb 12		 jmp	 SHORT $LN10@display_pa
$LN9@display_pa:

; 3193 : 			{
; 3194 : 				set_status_message (get_trans ("Padlock wingman"), STATUS_MESSAGE_TYPE_NONE);

  005b1	6a 00		 push	 0
  005b3	68 00 00 00 00	 push	 OFFSET ??_C@_0BA@MDJGGDBO@Padlock?5wingman@
  005b8	e8 00 00 00 00	 call	 ?get_trans@@YGPBDPBD@Z	; get_trans
  005bd	50		 push	 eax
  005be	e8 00 00 00 00	 call	 ?set_status_message@@YGXPBDW4STATUS_MESSAGE_TYPES@@@Z ; set_status_message
$LN10@display_pa:

; 3195 : 			}
; 3196 : 
; 3197 : 			break;

  005c3	e9 9f 05 00 00	 jmp	 $LN1@display_pa
$LN12@display_pa:

; 3198 : 		}
; 3199 : 		////////////////////////////////////////
; 3200 : 		case PADLOCK_MODE_AIR_THREAT:
; 3201 : 		////////////////////////////////////////
; 3202 : 		{
; 3203 : 			entity
; 3204 : 				*air_threat;
; 3205 : 
; 3206 : 			air_threat = get_local_entity_first_child (get_gunship_entity (), LIST_TYPE_PADLOCK);

  005c8	83 3d 00 00 00
	00 00		 cmp	 DWORD PTR ?gunship_entity@@3PAUENTITY@@A, 0 ; gunship_entity
  005cf	74 0f		 je	 SHORT $LN54@display_pa
  005d1	a1 00 00 00 00	 mov	 eax, DWORD PTR ?gunship_entity@@3PAUENTITY@@A ; gunship_entity
  005d6	8b 08		 mov	 ecx, DWORD PTR [eax]
  005d8	89 8d 10 fe ff
	ff		 mov	 DWORD PTR tv288[ebp], ecx
  005de	eb 24		 jmp	 SHORT $LN55@display_pa
$LN54@display_pa:
  005e0	8b 15 00 00 00
	00		 mov	 edx, DWORD PTR ?__LINE__Var@?0??display_padlock_message@@YGXW4PADLOCK_MODES@@@Z@4JA
  005e6	83 c2 42	 add	 edx, 66			; 00000042H
  005e9	52		 push	 edx
  005ea	68 00 00 00 00	 push	 OFFSET ??_C@_0EG@KKKJIDAO@c?3?2users?2nhv90?2projects?2eech?2ap@
  005ef	a1 00 00 00 00	 mov	 eax, DWORD PTR ?null_entity_pointer_message@@3PBDB ; null_entity_pointer_message
  005f4	50		 push	 eax
  005f5	e8 00 00 00 00	 call	 ?process_assert@@YGXPBD0H@Z ; process_assert
  005fa	c7 85 10 fe ff
	ff 00 00 00 00	 mov	 DWORD PTR tv288[ebp], 0
$LN55@display_pa:
  00604	b9 01 00 00 00	 mov	 ecx, 1
  00609	85 c9		 test	 ecx, ecx
  0060b	74 0c		 je	 SHORT $LN56@display_pa
  0060d	c7 85 0c fe ff
	ff 1b 00 00 00	 mov	 DWORD PTR tv296[ebp], 27 ; 0000001bH
  00617	eb 24		 jmp	 SHORT $LN57@display_pa
$LN56@display_pa:
  00619	8b 15 00 00 00
	00		 mov	 edx, DWORD PTR ?__LINE__Var@?0??display_padlock_message@@YGXW4PADLOCK_MODES@@@Z@4JA
  0061f	83 c2 42	 add	 edx, 66			; 00000042H
  00622	52		 push	 edx
  00623	68 00 00 00 00	 push	 OFFSET ??_C@_0EG@KKKJIDAO@c?3?2users?2nhv90?2projects?2eech?2ap@
  00628	a1 00 00 00 00	 mov	 eax, DWORD PTR ?overload_invalid_list_type_message@@3PBDB ; overload_invalid_list_type_message
  0062d	50		 push	 eax
  0062e	e8 00 00 00 00	 call	 ?process_assert@@YGXPBD0H@Z ; process_assert
  00633	c7 85 0c fe ff
	ff 00 00 00 00	 mov	 DWORD PTR tv296[ebp], 0
$LN57@display_pa:
  0063d	6a 1b		 push	 27			; 0000001bH
  0063f	8b 0d 00 00 00
	00		 mov	 ecx, DWORD PTR ?gunship_entity@@3PAUENTITY@@A ; gunship_entity
  00645	51		 push	 ecx
  00646	69 95 10 fe ff
	ff b4 00 00 00	 imul	 edx, DWORD PTR tv288[ebp], 180
  00650	8b 85 0c fe ff
	ff		 mov	 eax, DWORD PTR tv296[ebp]
  00656	8b 8c 82 00 00
	00 00		 mov	 ecx, DWORD PTR ?fn_get_local_entity_first_child@@3PAY0CN@P6GPAUENTITY@@PAU1@W4LIST_TYPES@@@ZA[edx+eax*4]
  0065d	ff d1		 call	 ecx
  0065f	89 85 60 fe ff
	ff		 mov	 DWORD PTR _air_threat$4[ebp], eax

; 3207 : 
; 3208 : 			ASSERT (air_threat);

  00665	83 bd 60 fe ff
	ff 00		 cmp	 DWORD PTR _air_threat$4[ebp], 0
  0066c	75 18		 jne	 SHORT $LN13@display_pa
  0066e	a1 00 00 00 00	 mov	 eax, DWORD PTR ?__LINE__Var@?0??display_padlock_message@@YGXW4PADLOCK_MODES@@@Z@4JA
  00673	83 c0 44	 add	 eax, 68			; 00000044H
  00676	50		 push	 eax
  00677	68 00 00 00 00	 push	 OFFSET ??_C@_0EG@KKKJIDAO@c?3?2users?2nhv90?2projects?2eech?2ap@
  0067c	68 00 00 00 00	 push	 OFFSET ??_C@_0L@LKPPCBM@air_threat@
  00681	e8 00 00 00 00	 call	 ?process_assert@@YGXPBD0H@Z ; process_assert
$LN13@display_pa:

; 3209 : 
; 3210 : 			sprintf (s, "%s %s", get_trans ("Padlock air threat"), get_local_entity_string (air_threat, STRING_TYPE_FULL_NAME));

  00686	83 bd 60 fe ff
	ff 00		 cmp	 DWORD PTR _air_threat$4[ebp], 0
  0068d	74 10		 je	 SHORT $LN58@display_pa
  0068f	8b 85 60 fe ff
	ff		 mov	 eax, DWORD PTR _air_threat$4[ebp]
  00695	8b 08		 mov	 ecx, DWORD PTR [eax]
  00697	89 8d 10 fe ff
	ff		 mov	 DWORD PTR tv314[ebp], ecx
  0069d	eb 24		 jmp	 SHORT $LN59@display_pa
$LN58@display_pa:
  0069f	8b 15 00 00 00
	00		 mov	 edx, DWORD PTR ?__LINE__Var@?0??display_padlock_message@@YGXW4PADLOCK_MODES@@@Z@4JA
  006a5	83 c2 46	 add	 edx, 70			; 00000046H
  006a8	52		 push	 edx
  006a9	68 00 00 00 00	 push	 OFFSET ??_C@_0EG@KKKJIDAO@c?3?2users?2nhv90?2projects?2eech?2ap@
  006ae	a1 00 00 00 00	 mov	 eax, DWORD PTR ?null_entity_pointer_message@@3PBDB ; null_entity_pointer_message
  006b3	50		 push	 eax
  006b4	e8 00 00 00 00	 call	 ?process_assert@@YGXPBD0H@Z ; process_assert
  006b9	c7 85 10 fe ff
	ff 00 00 00 00	 mov	 DWORD PTR tv314[ebp], 0
$LN59@display_pa:
  006c3	b9 01 00 00 00	 mov	 ecx, 1
  006c8	85 c9		 test	 ecx, ecx
  006ca	74 0c		 je	 SHORT $LN60@display_pa
  006cc	c7 85 0c fe ff
	ff 03 00 00 00	 mov	 DWORD PTR tv322[ebp], 3
  006d6	eb 24		 jmp	 SHORT $LN61@display_pa
$LN60@display_pa:
  006d8	8b 15 00 00 00
	00		 mov	 edx, DWORD PTR ?__LINE__Var@?0??display_padlock_message@@YGXW4PADLOCK_MODES@@@Z@4JA
  006de	83 c2 46	 add	 edx, 70			; 00000046H
  006e1	52		 push	 edx
  006e2	68 00 00 00 00	 push	 OFFSET ??_C@_0EG@KKKJIDAO@c?3?2users?2nhv90?2projects?2eech?2ap@
  006e7	a1 00 00 00 00	 mov	 eax, DWORD PTR ?overload_invalid_string_type_message@@3PBDB ; overload_invalid_string_type_message
  006ec	50		 push	 eax
  006ed	e8 00 00 00 00	 call	 ?process_assert@@YGXPBD0H@Z ; process_assert
  006f2	c7 85 0c fe ff
	ff 00 00 00 00	 mov	 DWORD PTR tv322[ebp], 0
$LN61@display_pa:
  006fc	6a 03		 push	 3
  006fe	8b 8d 60 fe ff
	ff		 mov	 ecx, DWORD PTR _air_threat$4[ebp]
  00704	51		 push	 ecx
  00705	6b 95 10 fe ff
	ff 34		 imul	 edx, DWORD PTR tv314[ebp], 52
  0070c	8b 85 0c fe ff
	ff		 mov	 eax, DWORD PTR tv322[ebp]
  00712	8b 8c 82 00 00
	00 00		 mov	 ecx, DWORD PTR ?fn_get_local_entity_string@@3PAY0N@P6GPBDPAUENTITY@@W4STRING_TYPES@@@ZA[edx+eax*4]
  00719	ff d1		 call	 ecx
  0071b	50		 push	 eax
  0071c	68 00 00 00 00	 push	 OFFSET ??_C@_0BD@BAAMBMDH@Padlock?5air?5threat@
  00721	e8 00 00 00 00	 call	 ?get_trans@@YGPBDPBD@Z	; get_trans
  00726	50		 push	 eax
  00727	68 00 00 00 00	 push	 OFFSET ??_C@_05DNIIFBMG@?$CFs?5?$CFs@
  0072c	8d 95 38 ff ff
	ff		 lea	 edx, DWORD PTR _s$[ebp]
  00732	52		 push	 edx
  00733	e8 00 00 00 00	 call	 _sprintf
  00738	83 c4 10	 add	 esp, 16			; 00000010H

; 3211 : 
; 3212 : 			set_status_message (s, STATUS_MESSAGE_TYPE_NONE);

  0073b	6a 00		 push	 0
  0073d	8d 85 38 ff ff
	ff		 lea	 eax, DWORD PTR _s$[ebp]
  00743	50		 push	 eax
  00744	e8 00 00 00 00	 call	 ?set_status_message@@YGXPBDW4STATUS_MESSAGE_TYPES@@@Z ; set_status_message

; 3213 : 
; 3214 : 			break;

  00749	e9 19 04 00 00	 jmp	 $LN1@display_pa
$LN14@display_pa:

; 3215 : 		}
; 3216 : 		////////////////////////////////////////
; 3217 : 		case PADLOCK_MODE_GROUND_THREAT:
; 3218 : 		////////////////////////////////////////
; 3219 : 		{
; 3220 : 			entity
; 3221 : 				*ground_threat;
; 3222 : 
; 3223 : 			ground_threat = get_local_entity_first_child (get_gunship_entity (), LIST_TYPE_PADLOCK);

  0074e	83 3d 00 00 00
	00 00		 cmp	 DWORD PTR ?gunship_entity@@3PAUENTITY@@A, 0 ; gunship_entity
  00755	74 0f		 je	 SHORT $LN62@display_pa
  00757	a1 00 00 00 00	 mov	 eax, DWORD PTR ?gunship_entity@@3PAUENTITY@@A ; gunship_entity
  0075c	8b 08		 mov	 ecx, DWORD PTR [eax]
  0075e	89 8d 10 fe ff
	ff		 mov	 DWORD PTR tv341[ebp], ecx
  00764	eb 24		 jmp	 SHORT $LN63@display_pa
$LN62@display_pa:
  00766	8b 15 00 00 00
	00		 mov	 edx, DWORD PTR ?__LINE__Var@?0??display_padlock_message@@YGXW4PADLOCK_MODES@@@Z@4JA
  0076c	83 c2 53	 add	 edx, 83			; 00000053H
  0076f	52		 push	 edx
  00770	68 00 00 00 00	 push	 OFFSET ??_C@_0EG@KKKJIDAO@c?3?2users?2nhv90?2projects?2eech?2ap@
  00775	a1 00 00 00 00	 mov	 eax, DWORD PTR ?null_entity_pointer_message@@3PBDB ; null_entity_pointer_message
  0077a	50		 push	 eax
  0077b	e8 00 00 00 00	 call	 ?process_assert@@YGXPBD0H@Z ; process_assert
  00780	c7 85 10 fe ff
	ff 00 00 00 00	 mov	 DWORD PTR tv341[ebp], 0
$LN63@display_pa:
  0078a	b9 01 00 00 00	 mov	 ecx, 1
  0078f	85 c9		 test	 ecx, ecx
  00791	74 0c		 je	 SHORT $LN64@display_pa
  00793	c7 85 0c fe ff
	ff 1b 00 00 00	 mov	 DWORD PTR tv349[ebp], 27 ; 0000001bH
  0079d	eb 24		 jmp	 SHORT $LN65@display_pa
$LN64@display_pa:
  0079f	8b 15 00 00 00
	00		 mov	 edx, DWORD PTR ?__LINE__Var@?0??display_padlock_message@@YGXW4PADLOCK_MODES@@@Z@4JA
  007a5	83 c2 53	 add	 edx, 83			; 00000053H
  007a8	52		 push	 edx
  007a9	68 00 00 00 00	 push	 OFFSET ??_C@_0EG@KKKJIDAO@c?3?2users?2nhv90?2projects?2eech?2ap@
  007ae	a1 00 00 00 00	 mov	 eax, DWORD PTR ?overload_invalid_list_type_message@@3PBDB ; overload_invalid_list_type_message
  007b3	50		 push	 eax
  007b4	e8 00 00 00 00	 call	 ?process_assert@@YGXPBD0H@Z ; process_assert
  007b9	c7 85 0c fe ff
	ff 00 00 00 00	 mov	 DWORD PTR tv349[ebp], 0
$LN65@display_pa:
  007c3	6a 1b		 push	 27			; 0000001bH
  007c5	8b 0d 00 00 00
	00		 mov	 ecx, DWORD PTR ?gunship_entity@@3PAUENTITY@@A ; gunship_entity
  007cb	51		 push	 ecx
  007cc	69 95 10 fe ff
	ff b4 00 00 00	 imul	 edx, DWORD PTR tv341[ebp], 180
  007d6	8b 85 0c fe ff
	ff		 mov	 eax, DWORD PTR tv349[ebp]
  007dc	8b 8c 82 00 00
	00 00		 mov	 ecx, DWORD PTR ?fn_get_local_entity_first_child@@3PAY0CN@P6GPAUENTITY@@PAU1@W4LIST_TYPES@@@ZA[edx+eax*4]
  007e3	ff d1		 call	 ecx
  007e5	89 85 5c fe ff
	ff		 mov	 DWORD PTR _ground_threat$3[ebp], eax

; 3224 : 
; 3225 : 			ASSERT (ground_threat);

  007eb	83 bd 5c fe ff
	ff 00		 cmp	 DWORD PTR _ground_threat$3[ebp], 0
  007f2	75 18		 jne	 SHORT $LN15@display_pa
  007f4	a1 00 00 00 00	 mov	 eax, DWORD PTR ?__LINE__Var@?0??display_padlock_message@@YGXW4PADLOCK_MODES@@@Z@4JA
  007f9	83 c0 55	 add	 eax, 85			; 00000055H
  007fc	50		 push	 eax
  007fd	68 00 00 00 00	 push	 OFFSET ??_C@_0EG@KKKJIDAO@c?3?2users?2nhv90?2projects?2eech?2ap@
  00802	68 00 00 00 00	 push	 OFFSET ??_C@_0O@PLMELCKD@ground_threat@
  00807	e8 00 00 00 00	 call	 ?process_assert@@YGXPBD0H@Z ; process_assert
$LN15@display_pa:

; 3226 : 
; 3227 : 			sprintf (s, "%s %s", get_trans ("Padlock ground threat"), get_local_entity_string (ground_threat, STRING_TYPE_FULL_NAME));

  0080c	83 bd 5c fe ff
	ff 00		 cmp	 DWORD PTR _ground_threat$3[ebp], 0
  00813	74 10		 je	 SHORT $LN66@display_pa
  00815	8b 85 5c fe ff
	ff		 mov	 eax, DWORD PTR _ground_threat$3[ebp]
  0081b	8b 08		 mov	 ecx, DWORD PTR [eax]
  0081d	89 8d 10 fe ff
	ff		 mov	 DWORD PTR tv367[ebp], ecx
  00823	eb 24		 jmp	 SHORT $LN67@display_pa
$LN66@display_pa:
  00825	8b 15 00 00 00
	00		 mov	 edx, DWORD PTR ?__LINE__Var@?0??display_padlock_message@@YGXW4PADLOCK_MODES@@@Z@4JA
  0082b	83 c2 57	 add	 edx, 87			; 00000057H
  0082e	52		 push	 edx
  0082f	68 00 00 00 00	 push	 OFFSET ??_C@_0EG@KKKJIDAO@c?3?2users?2nhv90?2projects?2eech?2ap@
  00834	a1 00 00 00 00	 mov	 eax, DWORD PTR ?null_entity_pointer_message@@3PBDB ; null_entity_pointer_message
  00839	50		 push	 eax
  0083a	e8 00 00 00 00	 call	 ?process_assert@@YGXPBD0H@Z ; process_assert
  0083f	c7 85 10 fe ff
	ff 00 00 00 00	 mov	 DWORD PTR tv367[ebp], 0
$LN67@display_pa:
  00849	b9 01 00 00 00	 mov	 ecx, 1
  0084e	85 c9		 test	 ecx, ecx
  00850	74 0c		 je	 SHORT $LN68@display_pa
  00852	c7 85 0c fe ff
	ff 03 00 00 00	 mov	 DWORD PTR tv375[ebp], 3
  0085c	eb 24		 jmp	 SHORT $LN69@display_pa
$LN68@display_pa:
  0085e	8b 15 00 00 00
	00		 mov	 edx, DWORD PTR ?__LINE__Var@?0??display_padlock_message@@YGXW4PADLOCK_MODES@@@Z@4JA
  00864	83 c2 57	 add	 edx, 87			; 00000057H
  00867	52		 push	 edx
  00868	68 00 00 00 00	 push	 OFFSET ??_C@_0EG@KKKJIDAO@c?3?2users?2nhv90?2projects?2eech?2ap@
  0086d	a1 00 00 00 00	 mov	 eax, DWORD PTR ?overload_invalid_string_type_message@@3PBDB ; overload_invalid_string_type_message
  00872	50		 push	 eax
  00873	e8 00 00 00 00	 call	 ?process_assert@@YGXPBD0H@Z ; process_assert
  00878	c7 85 0c fe ff
	ff 00 00 00 00	 mov	 DWORD PTR tv375[ebp], 0
$LN69@display_pa:
  00882	6a 03		 push	 3
  00884	8b 8d 5c fe ff
	ff		 mov	 ecx, DWORD PTR _ground_threat$3[ebp]
  0088a	51		 push	 ecx
  0088b	6b 95 10 fe ff
	ff 34		 imul	 edx, DWORD PTR tv367[ebp], 52
  00892	8b 85 0c fe ff
	ff		 mov	 eax, DWORD PTR tv375[ebp]
  00898	8b 8c 82 00 00
	00 00		 mov	 ecx, DWORD PTR ?fn_get_local_entity_string@@3PAY0N@P6GPBDPAUENTITY@@W4STRING_TYPES@@@ZA[edx+eax*4]
  0089f	ff d1		 call	 ecx
  008a1	50		 push	 eax
  008a2	68 00 00 00 00	 push	 OFFSET ??_C@_0BG@FIFEBCIA@Padlock?5ground?5threat@
  008a7	e8 00 00 00 00	 call	 ?get_trans@@YGPBDPBD@Z	; get_trans
  008ac	50		 push	 eax
  008ad	68 00 00 00 00	 push	 OFFSET ??_C@_05DNIIFBMG@?$CFs?5?$CFs@
  008b2	8d 95 38 ff ff
	ff		 lea	 edx, DWORD PTR _s$[ebp]
  008b8	52		 push	 edx
  008b9	e8 00 00 00 00	 call	 _sprintf
  008be	83 c4 10	 add	 esp, 16			; 00000010H

; 3228 : 
; 3229 : 			set_status_message (s, STATUS_MESSAGE_TYPE_NONE);

  008c1	6a 00		 push	 0
  008c3	8d 85 38 ff ff
	ff		 lea	 eax, DWORD PTR _s$[ebp]
  008c9	50		 push	 eax
  008ca	e8 00 00 00 00	 call	 ?set_status_message@@YGXPBDW4STATUS_MESSAGE_TYPES@@@Z ; set_status_message

; 3230 : 
; 3231 : 			break;

  008cf	e9 93 02 00 00	 jmp	 $LN1@display_pa
$LN16@display_pa:

; 3232 : 		}
; 3233 : 		////////////////////////////////////////
; 3234 : 		case PADLOCK_MODE_MISSILE_THREAT:
; 3235 : 		////////////////////////////////////////
; 3236 : 		{
; 3237 : 			entity
; 3238 : 				*incoming;
; 3239 : 
; 3240 : 			incoming = get_local_entity_first_child (get_gunship_entity (), LIST_TYPE_PADLOCK);

  008d4	83 3d 00 00 00
	00 00		 cmp	 DWORD PTR ?gunship_entity@@3PAUENTITY@@A, 0 ; gunship_entity
  008db	74 0f		 je	 SHORT $LN70@display_pa
  008dd	a1 00 00 00 00	 mov	 eax, DWORD PTR ?gunship_entity@@3PAUENTITY@@A ; gunship_entity
  008e2	8b 08		 mov	 ecx, DWORD PTR [eax]
  008e4	89 8d 10 fe ff
	ff		 mov	 DWORD PTR tv394[ebp], ecx
  008ea	eb 24		 jmp	 SHORT $LN71@display_pa
$LN70@display_pa:
  008ec	8b 15 00 00 00
	00		 mov	 edx, DWORD PTR ?__LINE__Var@?0??display_padlock_message@@YGXW4PADLOCK_MODES@@@Z@4JA
  008f2	83 c2 64	 add	 edx, 100		; 00000064H
  008f5	52		 push	 edx
  008f6	68 00 00 00 00	 push	 OFFSET ??_C@_0EG@KKKJIDAO@c?3?2users?2nhv90?2projects?2eech?2ap@
  008fb	a1 00 00 00 00	 mov	 eax, DWORD PTR ?null_entity_pointer_message@@3PBDB ; null_entity_pointer_message
  00900	50		 push	 eax
  00901	e8 00 00 00 00	 call	 ?process_assert@@YGXPBD0H@Z ; process_assert
  00906	c7 85 10 fe ff
	ff 00 00 00 00	 mov	 DWORD PTR tv394[ebp], 0
$LN71@display_pa:
  00910	b9 01 00 00 00	 mov	 ecx, 1
  00915	85 c9		 test	 ecx, ecx
  00917	74 0c		 je	 SHORT $LN72@display_pa
  00919	c7 85 0c fe ff
	ff 1b 00 00 00	 mov	 DWORD PTR tv402[ebp], 27 ; 0000001bH
  00923	eb 24		 jmp	 SHORT $LN73@display_pa
$LN72@display_pa:
  00925	8b 15 00 00 00
	00		 mov	 edx, DWORD PTR ?__LINE__Var@?0??display_padlock_message@@YGXW4PADLOCK_MODES@@@Z@4JA
  0092b	83 c2 64	 add	 edx, 100		; 00000064H
  0092e	52		 push	 edx
  0092f	68 00 00 00 00	 push	 OFFSET ??_C@_0EG@KKKJIDAO@c?3?2users?2nhv90?2projects?2eech?2ap@
  00934	a1 00 00 00 00	 mov	 eax, DWORD PTR ?overload_invalid_list_type_message@@3PBDB ; overload_invalid_list_type_message
  00939	50		 push	 eax
  0093a	e8 00 00 00 00	 call	 ?process_assert@@YGXPBD0H@Z ; process_assert
  0093f	c7 85 0c fe ff
	ff 00 00 00 00	 mov	 DWORD PTR tv402[ebp], 0
$LN73@display_pa:
  00949	6a 1b		 push	 27			; 0000001bH
  0094b	8b 0d 00 00 00
	00		 mov	 ecx, DWORD PTR ?gunship_entity@@3PAUENTITY@@A ; gunship_entity
  00951	51		 push	 ecx
  00952	69 95 10 fe ff
	ff b4 00 00 00	 imul	 edx, DWORD PTR tv394[ebp], 180
  0095c	8b 85 0c fe ff
	ff		 mov	 eax, DWORD PTR tv402[ebp]
  00962	8b 8c 82 00 00
	00 00		 mov	 ecx, DWORD PTR ?fn_get_local_entity_first_child@@3PAY0CN@P6GPAUENTITY@@PAU1@W4LIST_TYPES@@@ZA[edx+eax*4]
  00969	ff d1		 call	 ecx
  0096b	89 85 58 fe ff
	ff		 mov	 DWORD PTR _incoming$2[ebp], eax

; 3241 : 
; 3242 : 			ASSERT (incoming);

  00971	83 bd 58 fe ff
	ff 00		 cmp	 DWORD PTR _incoming$2[ebp], 0
  00978	75 18		 jne	 SHORT $LN17@display_pa
  0097a	a1 00 00 00 00	 mov	 eax, DWORD PTR ?__LINE__Var@?0??display_padlock_message@@YGXW4PADLOCK_MODES@@@Z@4JA
  0097f	83 c0 66	 add	 eax, 102		; 00000066H
  00982	50		 push	 eax
  00983	68 00 00 00 00	 push	 OFFSET ??_C@_0EG@KKKJIDAO@c?3?2users?2nhv90?2projects?2eech?2ap@
  00988	68 00 00 00 00	 push	 OFFSET ??_C@_08CANCJFOP@incoming@
  0098d	e8 00 00 00 00	 call	 ?process_assert@@YGXPBD0H@Z ; process_assert
$LN17@display_pa:

; 3243 : 
; 3244 : 			sprintf (s, "%s %s", get_trans ("Padlock incoming"), get_local_entity_string (incoming, STRING_TYPE_FULL_NAME));

  00992	83 bd 58 fe ff
	ff 00		 cmp	 DWORD PTR _incoming$2[ebp], 0
  00999	74 10		 je	 SHORT $LN74@display_pa
  0099b	8b 85 58 fe ff
	ff		 mov	 eax, DWORD PTR _incoming$2[ebp]
  009a1	8b 08		 mov	 ecx, DWORD PTR [eax]
  009a3	89 8d 10 fe ff
	ff		 mov	 DWORD PTR tv420[ebp], ecx
  009a9	eb 24		 jmp	 SHORT $LN75@display_pa
$LN74@display_pa:
  009ab	8b 15 00 00 00
	00		 mov	 edx, DWORD PTR ?__LINE__Var@?0??display_padlock_message@@YGXW4PADLOCK_MODES@@@Z@4JA
  009b1	83 c2 68	 add	 edx, 104		; 00000068H
  009b4	52		 push	 edx
  009b5	68 00 00 00 00	 push	 OFFSET ??_C@_0EG@KKKJIDAO@c?3?2users?2nhv90?2projects?2eech?2ap@
  009ba	a1 00 00 00 00	 mov	 eax, DWORD PTR ?null_entity_pointer_message@@3PBDB ; null_entity_pointer_message
  009bf	50		 push	 eax
  009c0	e8 00 00 00 00	 call	 ?process_assert@@YGXPBD0H@Z ; process_assert
  009c5	c7 85 10 fe ff
	ff 00 00 00 00	 mov	 DWORD PTR tv420[ebp], 0
$LN75@display_pa:
  009cf	b9 01 00 00 00	 mov	 ecx, 1
  009d4	85 c9		 test	 ecx, ecx
  009d6	74 0c		 je	 SHORT $LN76@display_pa
  009d8	c7 85 0c fe ff
	ff 03 00 00 00	 mov	 DWORD PTR tv428[ebp], 3
  009e2	eb 24		 jmp	 SHORT $LN77@display_pa
$LN76@display_pa:
  009e4	8b 15 00 00 00
	00		 mov	 edx, DWORD PTR ?__LINE__Var@?0??display_padlock_message@@YGXW4PADLOCK_MODES@@@Z@4JA
  009ea	83 c2 68	 add	 edx, 104		; 00000068H
  009ed	52		 push	 edx
  009ee	68 00 00 00 00	 push	 OFFSET ??_C@_0EG@KKKJIDAO@c?3?2users?2nhv90?2projects?2eech?2ap@
  009f3	a1 00 00 00 00	 mov	 eax, DWORD PTR ?overload_invalid_string_type_message@@3PBDB ; overload_invalid_string_type_message
  009f8	50		 push	 eax
  009f9	e8 00 00 00 00	 call	 ?process_assert@@YGXPBD0H@Z ; process_assert
  009fe	c7 85 0c fe ff
	ff 00 00 00 00	 mov	 DWORD PTR tv428[ebp], 0
$LN77@display_pa:
  00a08	6a 03		 push	 3
  00a0a	8b 8d 58 fe ff
	ff		 mov	 ecx, DWORD PTR _incoming$2[ebp]
  00a10	51		 push	 ecx
  00a11	6b 95 10 fe ff
	ff 34		 imul	 edx, DWORD PTR tv420[ebp], 52
  00a18	8b 85 0c fe ff
	ff		 mov	 eax, DWORD PTR tv428[ebp]
  00a1e	8b 8c 82 00 00
	00 00		 mov	 ecx, DWORD PTR ?fn_get_local_entity_string@@3PAY0N@P6GPBDPAUENTITY@@W4STRING_TYPES@@@ZA[edx+eax*4]
  00a25	ff d1		 call	 ecx
  00a27	50		 push	 eax
  00a28	68 00 00 00 00	 push	 OFFSET ??_C@_0BB@PGIHANNI@Padlock?5incoming@
  00a2d	e8 00 00 00 00	 call	 ?get_trans@@YGPBDPBD@Z	; get_trans
  00a32	50		 push	 eax
  00a33	68 00 00 00 00	 push	 OFFSET ??_C@_05DNIIFBMG@?$CFs?5?$CFs@
  00a38	8d 95 38 ff ff
	ff		 lea	 edx, DWORD PTR _s$[ebp]
  00a3e	52		 push	 edx
  00a3f	e8 00 00 00 00	 call	 _sprintf
  00a44	83 c4 10	 add	 esp, 16			; 00000010H

; 3245 : 
; 3246 : 			set_status_message (s, STATUS_MESSAGE_TYPE_NONE);

  00a47	6a 00		 push	 0
  00a49	8d 85 38 ff ff
	ff		 lea	 eax, DWORD PTR _s$[ebp]
  00a4f	50		 push	 eax
  00a50	e8 00 00 00 00	 call	 ?set_status_message@@YGXPBDW4STATUS_MESSAGE_TYPES@@@Z ; set_status_message

; 3247 : 
; 3248 : 			break;

  00a55	e9 0d 01 00 00	 jmp	 $LN1@display_pa
$LN18@display_pa:

; 3249 : 		}
; 3250 : 		////////////////////////////////////////
; 3251 : 		case PADLOCK_MODE_WAYPOINT:
; 3252 : 		////////////////////////////////////////
; 3253 : 		{
; 3254 : 			entity
; 3255 : 				*waypoint;
; 3256 : 
; 3257 : 			waypoint = get_local_entity_current_waypoint (get_gunship_entity ());

  00a5a	a1 00 00 00 00	 mov	 eax, DWORD PTR ?gunship_entity@@3PAUENTITY@@A ; gunship_entity
  00a5f	50		 push	 eax
  00a60	e8 00 00 00 00	 call	 ?get_local_entity_current_waypoint@@YGPAUENTITY@@PAU1@@Z ; get_local_entity_current_waypoint
  00a65	89 85 54 fe ff
	ff		 mov	 DWORD PTR _waypoint$1[ebp], eax

; 3258 : 
; 3259 : 			ASSERT (waypoint);

  00a6b	83 bd 54 fe ff
	ff 00		 cmp	 DWORD PTR _waypoint$1[ebp], 0
  00a72	75 18		 jne	 SHORT $LN19@display_pa
  00a74	a1 00 00 00 00	 mov	 eax, DWORD PTR ?__LINE__Var@?0??display_padlock_message@@YGXW4PADLOCK_MODES@@@Z@4JA
  00a79	83 c0 77	 add	 eax, 119		; 00000077H
  00a7c	50		 push	 eax
  00a7d	68 00 00 00 00	 push	 OFFSET ??_C@_0EG@KKKJIDAO@c?3?2users?2nhv90?2projects?2eech?2ap@
  00a82	68 00 00 00 00	 push	 OFFSET ??_C@_08LHPBHPJM@waypoint@
  00a87	e8 00 00 00 00	 call	 ?process_assert@@YGXPBD0H@Z ; process_assert
$LN19@display_pa:

; 3260 : 
; 3261 : 			sprintf (s, "%s '%c'", get_trans ("Padlock waypoint"), get_local_entity_char_value (waypoint, CHAR_TYPE_TAG));

  00a8c	83 bd 54 fe ff
	ff 00		 cmp	 DWORD PTR _waypoint$1[ebp], 0
  00a93	74 10		 je	 SHORT $LN78@display_pa
  00a95	8b 85 54 fe ff
	ff		 mov	 eax, DWORD PTR _waypoint$1[ebp]
  00a9b	8b 08		 mov	 ecx, DWORD PTR [eax]
  00a9d	89 8d 10 fe ff
	ff		 mov	 DWORD PTR tv455[ebp], ecx
  00aa3	eb 24		 jmp	 SHORT $LN79@display_pa
$LN78@display_pa:
  00aa5	8b 15 00 00 00
	00		 mov	 edx, DWORD PTR ?__LINE__Var@?0??display_padlock_message@@YGXW4PADLOCK_MODES@@@Z@4JA
  00aab	83 c2 79	 add	 edx, 121		; 00000079H
  00aae	52		 push	 edx
  00aaf	68 00 00 00 00	 push	 OFFSET ??_C@_0EG@KKKJIDAO@c?3?2users?2nhv90?2projects?2eech?2ap@
  00ab4	a1 00 00 00 00	 mov	 eax, DWORD PTR ?null_entity_pointer_message@@3PBDB ; null_entity_pointer_message
  00ab9	50		 push	 eax
  00aba	e8 00 00 00 00	 call	 ?process_assert@@YGXPBD0H@Z ; process_assert
  00abf	c7 85 10 fe ff
	ff 00 00 00 00	 mov	 DWORD PTR tv455[ebp], 0
$LN79@display_pa:
  00ac9	b9 01 00 00 00	 mov	 ecx, 1
  00ace	85 c9		 test	 ecx, ecx
  00ad0	74 0c		 je	 SHORT $LN80@display_pa
  00ad2	c7 85 0c fe ff
	ff 00 00 00 00	 mov	 DWORD PTR tv463[ebp], 0
  00adc	eb 24		 jmp	 SHORT $LN81@display_pa
$LN80@display_pa:
  00ade	8b 15 00 00 00
	00		 mov	 edx, DWORD PTR ?__LINE__Var@?0??display_padlock_message@@YGXW4PADLOCK_MODES@@@Z@4JA
  00ae4	83 c2 79	 add	 edx, 121		; 00000079H
  00ae7	52		 push	 edx
  00ae8	68 00 00 00 00	 push	 OFFSET ??_C@_0EG@KKKJIDAO@c?3?2users?2nhv90?2projects?2eech?2ap@
  00aed	a1 00 00 00 00	 mov	 eax, DWORD PTR ?overload_invalid_char_type_message@@3PBDB ; overload_invalid_char_type_message
  00af2	50		 push	 eax
  00af3	e8 00 00 00 00	 call	 ?process_assert@@YGXPBD0H@Z ; process_assert
  00af8	c7 85 0c fe ff
	ff 00 00 00 00	 mov	 DWORD PTR tv463[ebp], 0
$LN81@display_pa:
  00b02	6a 00		 push	 0
  00b04	8b 8d 54 fe ff
	ff		 mov	 ecx, DWORD PTR _waypoint$1[ebp]
  00b0a	51		 push	 ecx
  00b0b	8b 95 0c fe ff
	ff		 mov	 edx, DWORD PTR tv463[ebp]
  00b11	c1 e2 02	 shl	 edx, 2
  00b14	8b 85 10 fe ff
	ff		 mov	 eax, DWORD PTR tv455[ebp]
  00b1a	8b 8c c2 00 00
	00 00		 mov	 ecx, DWORD PTR ?fn_get_local_entity_char_value@@3PAY01P6GDPAUENTITY@@W4CHAR_TYPES@@@ZA[edx+eax*8]
  00b21	ff d1		 call	 ecx
  00b23	0f b6 d0	 movzx	 edx, al
  00b26	52		 push	 edx
  00b27	68 00 00 00 00	 push	 OFFSET ??_C@_0BB@GBKEOHKL@Padlock?5waypoint@
  00b2c	e8 00 00 00 00	 call	 ?get_trans@@YGPBDPBD@Z	; get_trans
  00b31	50		 push	 eax
  00b32	68 00 00 00 00	 push	 OFFSET ??_C@_07IFDOOICA@?$CFs?5?8?$CFc?8@
  00b37	8d 85 38 ff ff
	ff		 lea	 eax, DWORD PTR _s$[ebp]
  00b3d	50		 push	 eax
  00b3e	e8 00 00 00 00	 call	 _sprintf
  00b43	83 c4 10	 add	 esp, 16			; 00000010H

; 3262 : 
; 3263 : 			set_status_message (s, STATUS_MESSAGE_TYPE_NONE);

  00b46	6a 00		 push	 0
  00b48	8d 85 38 ff ff
	ff		 lea	 eax, DWORD PTR _s$[ebp]
  00b4e	50		 push	 eax
  00b4f	e8 00 00 00 00	 call	 ?set_status_message@@YGXPBDW4STATUS_MESSAGE_TYPES@@@Z ; set_status_message

; 3264 : 
; 3265 : 			break;

  00b54	eb 11		 jmp	 SHORT $LN1@display_pa
$LN20@display_pa:

; 3266 : 		}
; 3267 : 		////////////////////////////////////////
; 3268 : 		default:
; 3269 : 		////////////////////////////////////////
; 3270 : 		{
; 3271 : 			debug_fatal ("Invalid padlock mode = %d", mode);

  00b56	8b 45 08	 mov	 eax, DWORD PTR _mode$[ebp]
  00b59	50		 push	 eax
  00b5a	68 00 00 00 00	 push	 OFFSET ??_C@_0BK@FCBJMFAH@Invalid?5padlock?5mode?5?$DN?5?$CFd@
  00b5f	e8 00 00 00 00	 call	 ?debug_fatal@@YAXPBDZZ	; debug_fatal
  00b64	83 c4 08	 add	 esp, 8
$LN1@display_pa:

; 3272 : 
; 3273 : 			break;
; 3274 : 		}
; 3275 : 	}
; 3276 : }

  00b67	5f		 pop	 edi
  00b68	5e		 pop	 esi
  00b69	5b		 pop	 ebx
  00b6a	8b e5		 mov	 esp, ebp
  00b6c	5d		 pop	 ebp
  00b6d	c2 04 00	 ret	 4
$LN82@display_pa:
  00b70	00 00 00 00	 DD	 $LN6@display_pa
  00b74	00 00 00 00	 DD	 $LN7@display_pa
  00b78	00 00 00 00	 DD	 $LN12@display_pa
  00b7c	00 00 00 00	 DD	 $LN14@display_pa
  00b80	00 00 00 00	 DD	 $LN16@display_pa
  00b84	00 00 00 00	 DD	 $LN18@display_pa
?display_padlock_message@@YGXW4PADLOCK_MODES@@@Z ENDP	; display_padlock_message
_TEXT	ENDS
; Function compile flags: /Odtp /ZI
; File c:\users\nhv90\projects\eech\aphavoc\source\gunships\views\vm_vckpt.c
;	COMDAT ?restore_co_pilot_seat_values@@YGXXZ
_TEXT	SEGMENT
?restore_co_pilot_seat_values@@YGXXZ PROC		; restore_co_pilot_seat_values, COMDAT

; 2897 : {

  00000	55		 push	 ebp
  00001	8b ec		 mov	 ebp, esp
  00003	83 ec 40	 sub	 esp, 64			; 00000040H
  00006	53		 push	 ebx
  00007	56		 push	 esi
  00008	57		 push	 edi

; 2898 : 	#if DEBUG_MODULE_SEAT_SWITCHING
; 2899 : 
; 2900 : 	debug_filtered_log ("restore_co_pilot_seat_values");
; 2901 : 
; 2902 : 	#endif
; 2903 : 
; 2904 : 	pilot_head_heading = stored_co_pilot_head_heading;

  00009	f3 0f 10 05 00
	00 00 00	 movss	 xmm0, DWORD PTR ?stored_co_pilot_head_heading@@3MA
  00011	f3 0f 11 05 00
	00 00 00	 movss	 DWORD PTR ?pilot_head_heading@@3MA, xmm0

; 2905 : 	pilot_head_pitch = stored_co_pilot_head_pitch;

  00019	f3 0f 10 05 00
	00 00 00	 movss	 xmm0, DWORD PTR ?stored_co_pilot_head_pitch@@3MA
  00021	f3 0f 11 05 00
	00 00 00	 movss	 DWORD PTR ?pilot_head_pitch@@3MA, xmm0

; 2906 : 
; 2907 : 	if (stored_co_pilot_view_mode == VIEW_MODE_VIRTUAL_COCKPIT_PADLOCK)

  00029	83 3d 00 00 00
	00 21		 cmp	 DWORD PTR ?stored_co_pilot_view_mode@@3W4VIEW_MODES@@A, 33 ; stored_co_pilot_view_mode, 00000021H
  00030	75 14		 jne	 SHORT $LN2@restore_co

; 2908 : 	{
; 2909 : 		//
; 2910 : 		// clear pilot padlock mode (if any) and set default mode (in case padlock not available)
; 2911 : 		//
; 2912 : 
; 2913 : 		set_view_mode (VIEW_MODE_VIRTUAL_COCKPIT);

  00032	6a 20		 push	 32			; 00000020H
  00034	e8 00 00 00 00	 call	 ?set_view_mode@@YGHW4VIEW_MODES@@@Z ; set_view_mode

; 2914 : 
; 2915 : 		select_padlock_view_event (stored_co_pilot_padlock_mode);

  00039	a1 00 00 00 00	 mov	 eax, DWORD PTR ?stored_co_pilot_padlock_mode@@3W4PADLOCK_MODES@@A ; stored_co_pilot_padlock_mode
  0003e	50		 push	 eax
  0003f	e8 00 00 00 00	 call	 ?select_padlock_view_event@@YGXW4PADLOCK_MODES@@@Z ; select_padlock_view_event
  00044	eb 16		 jmp	 SHORT $LN4@restore_co
$LN2@restore_co:

; 2916 : 	}
; 2917 : 	else if (!set_view_mode (stored_co_pilot_view_mode))

  00046	a1 00 00 00 00	 mov	 eax, DWORD PTR ?stored_co_pilot_view_mode@@3W4VIEW_MODES@@A ; stored_co_pilot_view_mode
  0004b	50		 push	 eax
  0004c	e8 00 00 00 00	 call	 ?set_view_mode@@YGHW4VIEW_MODES@@@Z ; set_view_mode
  00051	85 c0		 test	 eax, eax
  00053	75 07		 jne	 SHORT $LN4@restore_co

; 2918 : 	{
; 2919 : 		set_view_mode (VIEW_MODE_VIRTUAL_COCKPIT);

  00055	6a 20		 push	 32			; 00000020H
  00057	e8 00 00 00 00	 call	 ?set_view_mode@@YGHW4VIEW_MODES@@@Z ; set_view_mode
$LN4@restore_co:

; 2920 : 	}
; 2921 : }

  0005c	5f		 pop	 edi
  0005d	5e		 pop	 esi
  0005e	5b		 pop	 ebx
  0005f	8b e5		 mov	 esp, ebp
  00061	5d		 pop	 ebp
  00062	c3		 ret	 0
?restore_co_pilot_seat_values@@YGXXZ ENDP		; restore_co_pilot_seat_values
_TEXT	ENDS
; Function compile flags: /Odtp /ZI
; File c:\users\nhv90\projects\eech\aphavoc\source\gunships\views\vm_vckpt.c
;	COMDAT ?store_co_pilot_seat_values@@YGXXZ
_TEXT	SEGMENT
tv64 = -68						; size = 4
?store_co_pilot_seat_values@@YGXXZ PROC			; store_co_pilot_seat_values, COMDAT

; 2857 : {

  00000	55		 push	 ebp
  00001	8b ec		 mov	 ebp, esp
  00003	83 ec 44	 sub	 esp, 68			; 00000044H
  00006	53		 push	 ebx
  00007	56		 push	 esi
  00008	57		 push	 edi

; 2858 : 	#if DEBUG_MODULE_SEAT_SWITCHING
; 2859 : 
; 2860 : 	debug_filtered_log ("store_co_pilot_seat_values");
; 2861 : 
; 2862 : 	#endif
; 2863 : 
; 2864 : 	stored_co_pilot_head_heading = pilot_head_heading;

  00009	f3 0f 10 05 00
	00 00 00	 movss	 xmm0, DWORD PTR ?pilot_head_heading@@3MA
  00011	f3 0f 11 05 00
	00 00 00	 movss	 DWORD PTR ?stored_co_pilot_head_heading@@3MA, xmm0

; 2865 : 	stored_co_pilot_head_pitch = pilot_head_pitch;

  00019	f3 0f 10 05 00
	00 00 00	 movss	 xmm0, DWORD PTR ?pilot_head_pitch@@3MA
  00021	f3 0f 11 05 00
	00 00 00	 movss	 DWORD PTR ?stored_co_pilot_head_pitch@@3MA, xmm0

; 2866 : 
; 2867 : 	switch (get_view_mode ())

  00029	a1 00 00 00 00	 mov	 eax, DWORD PTR ?view_mode@@3W4VIEW_MODES@@A ; view_mode
  0002e	89 45 bc	 mov	 DWORD PTR tv64[ebp], eax
  00031	8b 4d bc	 mov	 ecx, DWORD PTR tv64[ebp]
  00034	83 e9 20	 sub	 ecx, 32			; 00000020H
  00037	89 4d bc	 mov	 DWORD PTR tv64[ebp], ecx
  0003a	83 7d bc 09	 cmp	 DWORD PTR tv64[ebp], 9
  0003e	77 1d		 ja	 SHORT $LN5@store_co_p
  00040	8b 55 bc	 mov	 edx, DWORD PTR tv64[ebp]
  00043	0f b6 82 00 00
	00 00		 movzx	 eax, BYTE PTR $LN7@store_co_p[edx]
  0004a	ff 24 85 00 00
	00 00		 jmp	 DWORD PTR $LN8@store_co_p[eax*4]
$LN4@store_co_p:

; 2868 : 	{
; 2869 : 		case VIEW_MODE_VIRTUAL_COCKPIT:
; 2870 : 		case VIEW_MODE_VIRTUAL_COCKPIT_PADLOCK:
; 2871 : 		case VIEW_MODE_VIRTUAL_COCKPIT_TRACK_TARGET:
; 2872 : 		case VIEW_MODE_VIRTUAL_COCKPIT_CREW:
; 2873 : 		case VIEW_MODE_VIRTUAL_COCKPIT_PERISCOPE:
; 2874 : 		case VIEW_MODE_VIRTUAL_COCKPIT_CO_PILOT_LHS_DISPLAY:
; 2875 : 		case VIEW_MODE_VIRTUAL_COCKPIT_CO_PILOT_RHS_DISPLAY:
; 2876 : 		{
; 2877 : 			stored_co_pilot_view_mode = get_view_mode ();

  00051	a1 00 00 00 00	 mov	 eax, DWORD PTR ?view_mode@@3W4VIEW_MODES@@A ; view_mode
  00056	a3 00 00 00 00	 mov	 DWORD PTR ?stored_co_pilot_view_mode@@3W4VIEW_MODES@@A, eax ; stored_co_pilot_view_mode

; 2878 : 
; 2879 : 			break;

  0005b	eb 0a		 jmp	 SHORT $LN2@store_co_p
$LN5@store_co_p:

; 2880 : 		}
; 2881 : 		default:
; 2882 : 		{
; 2883 : 			stored_co_pilot_view_mode = VIEW_MODE_VIRTUAL_COCKPIT;

  0005d	c7 05 00 00 00
	00 20 00 00 00	 mov	 DWORD PTR ?stored_co_pilot_view_mode@@3W4VIEW_MODES@@A, 32 ; stored_co_pilot_view_mode, 00000020H
$LN2@store_co_p:

; 2884 : 
; 2885 : 			break;
; 2886 : 		}
; 2887 : 	}
; 2888 : 
; 2889 : 	stored_co_pilot_padlock_mode = padlock_mode;

  00067	a1 00 00 00 00	 mov	 eax, DWORD PTR ?padlock_mode@@3W4PADLOCK_MODES@@A
  0006c	a3 00 00 00 00	 mov	 DWORD PTR ?stored_co_pilot_padlock_mode@@3W4PADLOCK_MODES@@A, eax ; stored_co_pilot_padlock_mode

; 2890 : }

  00071	5f		 pop	 edi
  00072	5e		 pop	 esi
  00073	5b		 pop	 ebx
  00074	8b e5		 mov	 esp, ebp
  00076	5d		 pop	 ebp
  00077	c3		 ret	 0
$LN8@store_co_p:
  00078	00 00 00 00	 DD	 $LN4@store_co_p
  0007c	00 00 00 00	 DD	 $LN5@store_co_p
$LN7@store_co_p:
  00080	00		 DB	 0
  00081	00		 DB	 0
  00082	00		 DB	 0
  00083	00		 DB	 0
  00084	01		 DB	 1
  00085	00		 DB	 0
  00086	01		 DB	 1
  00087	01		 DB	 1
  00088	00		 DB	 0
  00089	00		 DB	 0
?store_co_pilot_seat_values@@YGXXZ ENDP			; store_co_pilot_seat_values
_TEXT	ENDS
; Function compile flags: /Odtp /ZI
; File c:\users\nhv90\projects\eech\aphavoc\source\gunships\views\vm_vckpt.c
;	COMDAT ?restore_pilot_seat_values@@YGXXZ
_TEXT	SEGMENT
?restore_pilot_seat_values@@YGXXZ PROC			; restore_pilot_seat_values, COMDAT

; 2826 : {

  00000	55		 push	 ebp
  00001	8b ec		 mov	 ebp, esp
  00003	83 ec 40	 sub	 esp, 64			; 00000040H
  00006	53		 push	 ebx
  00007	56		 push	 esi
  00008	57		 push	 edi

; 2827 : 	#if DEBUG_MODULE_SEAT_SWITCHING
; 2828 : 
; 2829 : 	debug_filtered_log ("restore_pilot_seat_values");
; 2830 : 
; 2831 : 	#endif
; 2832 : 
; 2833 : 	pilot_head_heading = stored_pilot_head_heading;

  00009	f3 0f 10 05 00
	00 00 00	 movss	 xmm0, DWORD PTR ?stored_pilot_head_heading@@3MA
  00011	f3 0f 11 05 00
	00 00 00	 movss	 DWORD PTR ?pilot_head_heading@@3MA, xmm0

; 2834 : 	pilot_head_pitch = stored_pilot_head_pitch;

  00019	f3 0f 10 05 00
	00 00 00	 movss	 xmm0, DWORD PTR ?stored_pilot_head_pitch@@3MA
  00021	f3 0f 11 05 00
	00 00 00	 movss	 DWORD PTR ?pilot_head_pitch@@3MA, xmm0

; 2835 : 
; 2836 : 	if (stored_pilot_view_mode == VIEW_MODE_VIRTUAL_COCKPIT_PADLOCK)

  00029	83 3d 00 00 00
	00 21		 cmp	 DWORD PTR ?stored_pilot_view_mode@@3W4VIEW_MODES@@A, 33 ; stored_pilot_view_mode, 00000021H
  00030	75 14		 jne	 SHORT $LN2@restore_pi

; 2837 : 	{
; 2838 : 		//
; 2839 : 		// clear co-pilot padlock mode (if any) and set default mode (in case padlock not available)
; 2840 : 		//
; 2841 : 
; 2842 : 		set_view_mode (VIEW_MODE_VIRTUAL_COCKPIT);

  00032	6a 20		 push	 32			; 00000020H
  00034	e8 00 00 00 00	 call	 ?set_view_mode@@YGHW4VIEW_MODES@@@Z ; set_view_mode

; 2843 : 
; 2844 : 		select_padlock_view_event (stored_pilot_padlock_mode);

  00039	a1 00 00 00 00	 mov	 eax, DWORD PTR ?stored_pilot_padlock_mode@@3W4PADLOCK_MODES@@A ; stored_pilot_padlock_mode
  0003e	50		 push	 eax
  0003f	e8 00 00 00 00	 call	 ?select_padlock_view_event@@YGXW4PADLOCK_MODES@@@Z ; select_padlock_view_event
  00044	eb 16		 jmp	 SHORT $LN4@restore_pi
$LN2@restore_pi:

; 2845 : 	}
; 2846 : 	else if (!set_view_mode (stored_pilot_view_mode))

  00046	a1 00 00 00 00	 mov	 eax, DWORD PTR ?stored_pilot_view_mode@@3W4VIEW_MODES@@A ; stored_pilot_view_mode
  0004b	50		 push	 eax
  0004c	e8 00 00 00 00	 call	 ?set_view_mode@@YGHW4VIEW_MODES@@@Z ; set_view_mode
  00051	85 c0		 test	 eax, eax
  00053	75 07		 jne	 SHORT $LN4@restore_pi

; 2847 : 	{
; 2848 : 		set_view_mode (VIEW_MODE_VIRTUAL_COCKPIT);

  00055	6a 20		 push	 32			; 00000020H
  00057	e8 00 00 00 00	 call	 ?set_view_mode@@YGHW4VIEW_MODES@@@Z ; set_view_mode
$LN4@restore_pi:

; 2849 : 	}
; 2850 : }

  0005c	5f		 pop	 edi
  0005d	5e		 pop	 esi
  0005e	5b		 pop	 ebx
  0005f	8b e5		 mov	 esp, ebp
  00061	5d		 pop	 ebp
  00062	c3		 ret	 0
?restore_pilot_seat_values@@YGXXZ ENDP			; restore_pilot_seat_values
_TEXT	ENDS
; Function compile flags: /Odtp /ZI
; File c:\users\nhv90\projects\eech\aphavoc\source\gunships\views\vm_vckpt.c
;	COMDAT ?store_pilot_seat_values@@YGXXZ
_TEXT	SEGMENT
tv64 = -68						; size = 4
?store_pilot_seat_values@@YGXXZ PROC			; store_pilot_seat_values, COMDAT

; 2786 : {

  00000	55		 push	 ebp
  00001	8b ec		 mov	 ebp, esp
  00003	83 ec 44	 sub	 esp, 68			; 00000044H
  00006	53		 push	 ebx
  00007	56		 push	 esi
  00008	57		 push	 edi

; 2787 : 	#if DEBUG_MODULE_SEAT_SWITCHING
; 2788 : 
; 2789 : 	debug_filtered_log ("store_pilot_seat_values");
; 2790 : 
; 2791 : 	#endif
; 2792 : 
; 2793 : 	stored_pilot_head_heading = pilot_head_heading;

  00009	f3 0f 10 05 00
	00 00 00	 movss	 xmm0, DWORD PTR ?pilot_head_heading@@3MA
  00011	f3 0f 11 05 00
	00 00 00	 movss	 DWORD PTR ?stored_pilot_head_heading@@3MA, xmm0

; 2794 : 	stored_pilot_head_pitch = pilot_head_pitch;

  00019	f3 0f 10 05 00
	00 00 00	 movss	 xmm0, DWORD PTR ?pilot_head_pitch@@3MA
  00021	f3 0f 11 05 00
	00 00 00	 movss	 DWORD PTR ?stored_pilot_head_pitch@@3MA, xmm0

; 2795 : 
; 2796 : 	switch (get_view_mode ())

  00029	a1 00 00 00 00	 mov	 eax, DWORD PTR ?view_mode@@3W4VIEW_MODES@@A ; view_mode
  0002e	89 45 bc	 mov	 DWORD PTR tv64[ebp], eax
  00031	8b 4d bc	 mov	 ecx, DWORD PTR tv64[ebp]
  00034	83 e9 20	 sub	 ecx, 32			; 00000020H
  00037	89 4d bc	 mov	 DWORD PTR tv64[ebp], ecx
  0003a	83 7d bc 07	 cmp	 DWORD PTR tv64[ebp], 7
  0003e	77 1d		 ja	 SHORT $LN5@store_pilo
  00040	8b 55 bc	 mov	 edx, DWORD PTR tv64[ebp]
  00043	0f b6 82 00 00
	00 00		 movzx	 eax, BYTE PTR $LN7@store_pilo[edx]
  0004a	ff 24 85 00 00
	00 00		 jmp	 DWORD PTR $LN8@store_pilo[eax*4]
$LN4@store_pilo:

; 2797 : 	{
; 2798 : 		case VIEW_MODE_VIRTUAL_COCKPIT:
; 2799 : 		case VIEW_MODE_VIRTUAL_COCKPIT_PADLOCK:
; 2800 : 		case VIEW_MODE_VIRTUAL_COCKPIT_TRACK_TARGET:
; 2801 : 		case VIEW_MODE_VIRTUAL_COCKPIT_CREW:
; 2802 : 		case VIEW_MODE_VIRTUAL_COCKPIT_HUD:
; 2803 : 		case VIEW_MODE_VIRTUAL_COCKPIT_PILOT_LHS_DISPLAY:
; 2804 : 		case VIEW_MODE_VIRTUAL_COCKPIT_PILOT_RHS_DISPLAY:
; 2805 : 		{
; 2806 : 			stored_pilot_view_mode = get_view_mode ();

  00051	a1 00 00 00 00	 mov	 eax, DWORD PTR ?view_mode@@3W4VIEW_MODES@@A ; view_mode
  00056	a3 00 00 00 00	 mov	 DWORD PTR ?stored_pilot_view_mode@@3W4VIEW_MODES@@A, eax ; stored_pilot_view_mode

; 2807 : 
; 2808 : 			break;

  0005b	eb 0a		 jmp	 SHORT $LN2@store_pilo
$LN5@store_pilo:

; 2809 : 		}
; 2810 : 		default:
; 2811 : 		{
; 2812 : 			stored_pilot_view_mode = VIEW_MODE_VIRTUAL_COCKPIT;

  0005d	c7 05 00 00 00
	00 20 00 00 00	 mov	 DWORD PTR ?stored_pilot_view_mode@@3W4VIEW_MODES@@A, 32 ; stored_pilot_view_mode, 00000020H
$LN2@store_pilo:

; 2813 : 
; 2814 : 			break;
; 2815 : 		}
; 2816 : 	}
; 2817 : 
; 2818 : 	stored_pilot_padlock_mode = padlock_mode;

  00067	a1 00 00 00 00	 mov	 eax, DWORD PTR ?padlock_mode@@3W4PADLOCK_MODES@@A
  0006c	a3 00 00 00 00	 mov	 DWORD PTR ?stored_pilot_padlock_mode@@3W4PADLOCK_MODES@@A, eax ; stored_pilot_padlock_mode

; 2819 : }

  00071	5f		 pop	 edi
  00072	5e		 pop	 esi
  00073	5b		 pop	 ebx
  00074	8b e5		 mov	 esp, ebp
  00076	5d		 pop	 ebp
  00077	c3		 ret	 0
$LN8@store_pilo:
  00078	00 00 00 00	 DD	 $LN4@store_pilo
  0007c	00 00 00 00	 DD	 $LN5@store_pilo
$LN7@store_pilo:
  00080	00		 DB	 0
  00081	00		 DB	 0
  00082	00		 DB	 0
  00083	00		 DB	 0
  00084	00		 DB	 0
  00085	01		 DB	 1
  00086	00		 DB	 0
  00087	00		 DB	 0
?store_pilot_seat_values@@YGXXZ ENDP			; store_pilot_seat_values
_TEXT	ENDS
; Function compile flags: /Odtp /ZI
; File c:\program files (x86)\microsoft visual studio\2017\community\vc\tools\msvc\14.16.27023\include\algorithm
;	COMDAT ??$max@M@std@@YGABMABM0@Z
_TEXT	SEGMENT
__Left$ = 8						; size = 4
__Right$ = 12						; size = 4
??$max@M@std@@YGABMABM0@Z PROC				; std::max<float>, COMDAT

; 5387 : 	{	// return larger of _Left and _Right

  00000	55		 push	 ebp
  00001	8b ec		 mov	 ebp, esp
  00003	83 ec 40	 sub	 esp, 64			; 00000040H
  00006	53		 push	 ebx
  00007	56		 push	 esi
  00008	57		 push	 edi

; 5388 : 	if (_Left < _Right)

  00009	8b 45 0c	 mov	 eax, DWORD PTR __Right$[ebp]
  0000c	8b 4d 08	 mov	 ecx, DWORD PTR __Left$[ebp]
  0000f	f3 0f 10 00	 movss	 xmm0, DWORD PTR [eax]
  00013	0f 2f 01	 comiss	 xmm0, DWORD PTR [ecx]
  00016	76 64		 jbe	 SHORT $LN8@max
$LN4@max:

; 5389 : 		{
; 5390 : 		_STL_ASSERT(!(_Right < _Left), "invalid comparator");

  00018	8b 45 08	 mov	 eax, DWORD PTR __Left$[ebp]
  0001b	8b 4d 0c	 mov	 ecx, DWORD PTR __Right$[ebp]
  0001e	f3 0f 10 00	 movss	 xmm0, DWORD PTR [eax]
  00022	0f 2f 01	 comiss	 xmm0, DWORD PTR [ecx]
  00025	77 02		 ja	 SHORT $LN9@max
  00027	eb 4a		 jmp	 SHORT $LN6@max
$LN9@max:
  00029	68 00 00 00 00	 push	 OFFSET ??_C@_0BD@FEEMDEPI@invalid?5comparator@
  0002e	68 00 00 00 00	 push	 OFFSET ??_C@_02DKCKIIND@?$CFs@
  00033	6a 00		 push	 0
  00035	68 0e 15 00 00	 push	 5390			; 0000150eH
  0003a	68 00 00 00 00	 push	 OFFSET ??_C@_0GK@JMBMHIBC@c?3?2program?5files?5?$CIx86?$CJ?2microsof@
  0003f	6a 02		 push	 2
  00041	ff 15 00 00 00
	00		 call	 DWORD PTR __imp___CrtDbgReport
  00047	83 c4 18	 add	 esp, 24			; 00000018H
  0004a	83 f8 01	 cmp	 eax, 1
  0004d	75 01		 jne	 SHORT $LN12@max
  0004f	cc		 int	 3
$LN12@max:
  00050	6a 00		 push	 0
  00052	68 0e 15 00 00	 push	 5390			; 0000150eH
  00057	68 00 00 00 00	 push	 OFFSET ??_C@_1NE@FKBPBJEB@?$AAc?$AA?3?$AA?2?$AAp?$AAr?$AAo?$AAg?$AAr?$AAa?$AAm?$AA?5?$AAf?$AAi?$AAl?$AAe@
  0005c	68 00 00 00 00	 push	 OFFSET ??_C@_1BC@ICCOKLEG@?$AAs?$AAt?$AAd?$AA?3?$AA?3?$AAm?$AAa?$AAx@
  00061	68 00 00 00 00	 push	 OFFSET ??_C@_1CK@NDNHPKPI@?$AA?$CC?$AAi?$AAn?$AAv?$AAa?$AAl?$AAi?$AAd?$AA?5?$AAc?$AAo?$AAm?$AAp?$AAa?$AAr@
  00066	ff 15 00 00 00
	00		 call	 DWORD PTR __imp___invalid_parameter
  0006c	83 c4 14	 add	 esp, 20			; 00000014H
  0006f	33 c0		 xor	 eax, eax
  00071	75 b6		 jne	 SHORT $LN9@max
$LN6@max:
  00073	33 c0		 xor	 eax, eax
  00075	75 a1		 jne	 SHORT $LN4@max

; 5391 : 		return (_Right);

  00077	8b 45 0c	 mov	 eax, DWORD PTR __Right$[ebp]
  0007a	eb 03		 jmp	 SHORT $LN1@max
$LN8@max:

; 5392 : 		}
; 5393 : 
; 5394 : 	return (_Left);

  0007c	8b 45 08	 mov	 eax, DWORD PTR __Left$[ebp]
$LN1@max:

; 5395 : 	}

  0007f	5f		 pop	 edi
  00080	5e		 pop	 esi
  00081	5b		 pop	 ebx
  00082	8b e5		 mov	 esp, ebp
  00084	5d		 pop	 ebp
  00085	c2 08 00	 ret	 8
??$max@M@std@@YGABMABM0@Z ENDP				; std::max<float>
_TEXT	ENDS
; Function compile flags: /Odtp /ZI
; File c:\program files (x86)\microsoft visual studio\2017\community\vc\tools\msvc\14.16.27023\include\algorithm
;	COMDAT ??$min@M@std@@YGABMABM0@Z
_TEXT	SEGMENT
__Left$ = 8						; size = 4
__Right$ = 12						; size = 4
??$min@M@std@@YGABMABM0@Z PROC				; std::min<float>, COMDAT

; 5427 : 	{	// return smaller of _Left and _Right

  00000	55		 push	 ebp
  00001	8b ec		 mov	 ebp, esp
  00003	83 ec 40	 sub	 esp, 64			; 00000040H
  00006	53		 push	 ebx
  00007	56		 push	 esi
  00008	57		 push	 edi

; 5428 : 	if (_Right < _Left)

  00009	8b 45 08	 mov	 eax, DWORD PTR __Left$[ebp]
  0000c	8b 4d 0c	 mov	 ecx, DWORD PTR __Right$[ebp]
  0000f	f3 0f 10 00	 movss	 xmm0, DWORD PTR [eax]
  00013	0f 2f 01	 comiss	 xmm0, DWORD PTR [ecx]
  00016	76 64		 jbe	 SHORT $LN8@min
$LN4@min:

; 5429 : 		{
; 5430 : 		_STL_ASSERT(!(_Left < _Right), "invalid comparator");

  00018	8b 45 0c	 mov	 eax, DWORD PTR __Right$[ebp]
  0001b	8b 4d 08	 mov	 ecx, DWORD PTR __Left$[ebp]
  0001e	f3 0f 10 00	 movss	 xmm0, DWORD PTR [eax]
  00022	0f 2f 01	 comiss	 xmm0, DWORD PTR [ecx]
  00025	77 02		 ja	 SHORT $LN9@min
  00027	eb 4a		 jmp	 SHORT $LN6@min
$LN9@min:
  00029	68 00 00 00 00	 push	 OFFSET ??_C@_0BD@FEEMDEPI@invalid?5comparator@
  0002e	68 00 00 00 00	 push	 OFFSET ??_C@_02DKCKIIND@?$CFs@
  00033	6a 00		 push	 0
  00035	68 36 15 00 00	 push	 5430			; 00001536H
  0003a	68 00 00 00 00	 push	 OFFSET ??_C@_0GK@JMBMHIBC@c?3?2program?5files?5?$CIx86?$CJ?2microsof@
  0003f	6a 02		 push	 2
  00041	ff 15 00 00 00
	00		 call	 DWORD PTR __imp___CrtDbgReport
  00047	83 c4 18	 add	 esp, 24			; 00000018H
  0004a	83 f8 01	 cmp	 eax, 1
  0004d	75 01		 jne	 SHORT $LN12@min
  0004f	cc		 int	 3
$LN12@min:
  00050	6a 00		 push	 0
  00052	68 36 15 00 00	 push	 5430			; 00001536H
  00057	68 00 00 00 00	 push	 OFFSET ??_C@_1NE@FKBPBJEB@?$AAc?$AA?3?$AA?2?$AAp?$AAr?$AAo?$AAg?$AAr?$AAa?$AAm?$AA?5?$AAf?$AAi?$AAl?$AAe@
  0005c	68 00 00 00 00	 push	 OFFSET ??_C@_1BC@BLAPCBGI@?$AAs?$AAt?$AAd?$AA?3?$AA?3?$AAm?$AAi?$AAn@
  00061	68 00 00 00 00	 push	 OFFSET ??_C@_1CK@NDNHPKPI@?$AA?$CC?$AAi?$AAn?$AAv?$AAa?$AAl?$AAi?$AAd?$AA?5?$AAc?$AAo?$AAm?$AAp?$AAa?$AAr@
  00066	ff 15 00 00 00
	00		 call	 DWORD PTR __imp___invalid_parameter
  0006c	83 c4 14	 add	 esp, 20			; 00000014H
  0006f	33 c0		 xor	 eax, eax
  00071	75 b6		 jne	 SHORT $LN9@min
$LN6@min:
  00073	33 c0		 xor	 eax, eax
  00075	75 a1		 jne	 SHORT $LN4@min

; 5431 : 		return (_Right);

  00077	8b 45 0c	 mov	 eax, DWORD PTR __Right$[ebp]
  0007a	eb 03		 jmp	 SHORT $LN1@min
$LN8@min:

; 5432 : 		}
; 5433 : 
; 5434 : 	return (_Left);

  0007c	8b 45 08	 mov	 eax, DWORD PTR __Left$[ebp]
$LN1@min:

; 5435 : 	}

  0007f	5f		 pop	 edi
  00080	5e		 pop	 esi
  00081	5b		 pop	 ebx
  00082	8b e5		 mov	 esp, ebp
  00084	5d		 pop	 ebp
  00085	c2 08 00	 ret	 8
??$min@M@std@@YGABMABM0@Z ENDP				; std::min<float>
_TEXT	ENDS
; Function compile flags: /Odtp /ZI
; File c:\users\nhv90\projects\eech\aphavoc\source\gunships\views\vm_vckpt.c
;	COMDAT ?get_rotate_down_limit@@YGMXZ
_TEXT	SEGMENT
tv64 = -72						; size = 4
_limit$ = -4						; size = 4
?get_rotate_down_limit@@YGMXZ PROC			; get_rotate_down_limit, COMDAT

; 451  : {

  00000	55		 push	 ebp
  00001	8b ec		 mov	 ebp, esp
  00003	83 ec 48	 sub	 esp, 72			; 00000048H
  00006	53		 push	 ebx
  00007	56		 push	 esi
  00008	57		 push	 edi

; 452  : 	float
; 453  : 		limit;
; 454  : 
; 455  : 	switch (get_global_gunship_type ())

  00009	a1 0c 00 00 00	 mov	 eax, DWORD PTR ?global_options@@3UGLOBAL_OPTIONS_DATA@@A+12
  0000e	89 45 b8	 mov	 DWORD PTR tv64[ebp], eax
  00011	83 7d b8 09	 cmp	 DWORD PTR tv64[ebp], 9
  00015	0f 87 b6 00 00
	00		 ja	 $LN14@get_rotate
  0001b	8b 4d b8	 mov	 ecx, DWORD PTR tv64[ebp]
  0001e	ff 24 8d 00 00
	00 00		 jmp	 DWORD PTR $LN16@get_rotate[ecx*4]
$LN4@get_rotate:

; 456  : 	{
; 457  : 		////////////////////////////////////////
; 458  : 		case GUNSHIP_TYPE_APACHE:
; 459  : 		////////////////////////////////////////
; 460  : 		{
; 461  : 			limit = rad (-MAX_LOOK_ANGLE_DOWN3);

  00025	f3 0f 10 05 00
	00 00 00	 movss	 xmm0, DWORD PTR __real@bf490fdb
  0002d	f3 0f 11 45 fc	 movss	 DWORD PTR _limit$[ebp], xmm0

; 462  : 
; 463  : 			break;

  00032	e9 a7 00 00 00	 jmp	 $LN2@get_rotate
$LN5@get_rotate:

; 464  : 		}
; 465  : 		////////////////////////////////////////
; 466  : 		case GUNSHIP_TYPE_HAVOC:
; 467  : 		////////////////////////////////////////
; 468  : 		{
; 469  : 			limit = rad (-MAX_LOOK_ANGLE_DOWN2);

  00037	f3 0f 10 05 00
	00 00 00	 movss	 xmm0, DWORD PTR __real@bedf66f3
  0003f	f3 0f 11 45 fc	 movss	 DWORD PTR _limit$[ebp], xmm0

; 470  : 
; 471  : 			break;

  00044	e9 95 00 00 00	 jmp	 $LN2@get_rotate
$LN6@get_rotate:

; 472  : 		}
; 473  : 		////////////////////////////////////////
; 474  : 		case GUNSHIP_TYPE_COMANCHE:
; 475  : 		////////////////////////////////////////
; 476  : 		{
; 477  : 			limit = rad (-MAX_LOOK_ANGLE_DOWN1);

  00049	f3 0f 10 05 00
	00 00 00	 movss	 xmm0, DWORD PTR __real@bf860a92
  00051	f3 0f 11 45 fc	 movss	 DWORD PTR _limit$[ebp], xmm0

; 478  : 
; 479  : 			break;

  00056	e9 83 00 00 00	 jmp	 $LN2@get_rotate
$LN7@get_rotate:

; 480  : 		}
; 481  : 		////////////////////////////////////////
; 482  : 		case GUNSHIP_TYPE_HOKUM:
; 483  : 		////////////////////////////////////////
; 484  : 		{
; 485  : 			limit = rad (-MAX_LOOK_ANGLE_DOWN1);

  0005b	f3 0f 10 05 00
	00 00 00	 movss	 xmm0, DWORD PTR __real@bf860a92
  00063	f3 0f 11 45 fc	 movss	 DWORD PTR _limit$[ebp], xmm0

; 486  : 
; 487  : 			break;

  00068	eb 74		 jmp	 SHORT $LN2@get_rotate
$LN8@get_rotate:

; 488  : 		}
; 489  : 		////Moje 030518 Start
; 490  : 		////////////////////////////////////////
; 491  : 		case GUNSHIP_TYPE_BLACKHAWK:
; 492  : 		////////////////////////////////////////
; 493  : 		{
; 494  : 			limit = rad (-MAX_LOOK_ANGLE_DOWN2);

  0006a	f3 0f 10 05 00
	00 00 00	 movss	 xmm0, DWORD PTR __real@bedf66f3
  00072	f3 0f 11 45 fc	 movss	 DWORD PTR _limit$[ebp], xmm0

; 495  : 
; 496  : 			break;

  00077	eb 65		 jmp	 SHORT $LN2@get_rotate
$LN9@get_rotate:

; 497  : 		}
; 498  : 		////Moje 030518 End
; 499  : 		////Moje 030612 Start
; 500  : 		////////////////////////////////////////
; 501  : 		case GUNSHIP_TYPE_HIND:
; 502  : 		////////////////////////////////////////
; 503  : 		{
; 504  : 			limit = rad (-MAX_LOOK_ANGLE_DOWN1);

  00079	f3 0f 10 05 00
	00 00 00	 movss	 xmm0, DWORD PTR __real@bf860a92
  00081	f3 0f 11 45 fc	 movss	 DWORD PTR _limit$[ebp], xmm0

; 505  : 			limit = rad(-90);

  00086	f3 0f 10 05 00
	00 00 00	 movss	 xmm0, DWORD PTR __real@bfc90fdb
  0008e	f3 0f 11 45 fc	 movss	 DWORD PTR _limit$[ebp], xmm0

; 506  : 
; 507  : 			break;

  00093	eb 49		 jmp	 SHORT $LN2@get_rotate
$LN10@get_rotate:

; 508  : 		}
; 509  : 		////Moje 030612 End
; 510  : 		////Moje 030816 Start
; 511  : 		////////////////////////////////////////
; 512  : 		case GUNSHIP_TYPE_AH64A:
; 513  : 		////////////////////////////////////////
; 514  : 		{
; 515  : 			limit = rad (-MAX_LOOK_ANGLE_DOWN2);

  00095	f3 0f 10 05 00
	00 00 00	 movss	 xmm0, DWORD PTR __real@bedf66f3
  0009d	f3 0f 11 45 fc	 movss	 DWORD PTR _limit$[ebp], xmm0

; 516  : 
; 517  : 			break;

  000a2	eb 3a		 jmp	 SHORT $LN2@get_rotate
$LN11@get_rotate:

; 518  : 		}
; 519  : 		////////////////////////////////////////
; 520  : 		case GUNSHIP_TYPE_KA50:
; 521  : 		////////////////////////////////////////
; 522  : 		{
; 523  : 			limit = rad (-MAX_LOOK_ANGLE_DOWN2);

  000a4	f3 0f 10 05 00
	00 00 00	 movss	 xmm0, DWORD PTR __real@bedf66f3
  000ac	f3 0f 11 45 fc	 movss	 DWORD PTR _limit$[ebp], xmm0

; 524  : 
; 525  : 			break;

  000b1	eb 2b		 jmp	 SHORT $LN2@get_rotate
$LN12@get_rotate:

; 526  : 		}
; 527  : 		////Moje 030816 End
; 528  : 		////////////////////////////////////////
; 529  : 		case GUNSHIP_TYPE_VIPER:
; 530  : 		////////////////////////////////////////
; 531  : 		{
; 532  : 			limit = rad (-MAX_LOOK_ANGLE_DOWN1);

  000b3	f3 0f 10 05 00
	00 00 00	 movss	 xmm0, DWORD PTR __real@bf860a92
  000bb	f3 0f 11 45 fc	 movss	 DWORD PTR _limit$[ebp], xmm0

; 533  : 
; 534  : 			break;

  000c0	eb 1c		 jmp	 SHORT $LN2@get_rotate
$LN13@get_rotate:

; 535  : 		}
; 536  : 		////////////////////////////////////////
; 537  : 		case GUNSHIP_TYPE_KIOWA:
; 538  : 		////////////////////////////////////////
; 539  : 		{
; 540  : 			limit = rad (-MAX_LOOK_ANGLE_DOWN1);

  000c2	f3 0f 10 05 00
	00 00 00	 movss	 xmm0, DWORD PTR __real@bf860a92
  000ca	f3 0f 11 45 fc	 movss	 DWORD PTR _limit$[ebp], xmm0

; 541  : 
; 542  : 			break;

  000cf	eb 0d		 jmp	 SHORT $LN2@get_rotate
$LN14@get_rotate:

; 543  : 		}
; 544  : 		////////////////////////////////////////
; 545  : 		default:
; 546  : 		////////////////////////////////////////
; 547  : 		{
; 548  : 			// JB 030313 Fly any aircraft
; 549  : 			limit = rad (-MAX_LOOK_ANGLE_DOWN2);

  000d1	f3 0f 10 05 00
	00 00 00	 movss	 xmm0, DWORD PTR __real@bedf66f3
  000d9	f3 0f 11 45 fc	 movss	 DWORD PTR _limit$[ebp], xmm0
$LN2@get_rotate:

; 550  : 			//limit = rad (0.0);
; 551  : 
; 552  : 			break;
; 553  : 		}
; 554  : 	}
; 555  : 
; 556  : 	return (limit);

  000de	d9 45 fc	 fld	 DWORD PTR _limit$[ebp]

; 557  : }

  000e1	5f		 pop	 edi
  000e2	5e		 pop	 esi
  000e3	5b		 pop	 ebx
  000e4	8b e5		 mov	 esp, ebp
  000e6	5d		 pop	 ebp
  000e7	c3		 ret	 0
$LN16@get_rotate:
  000e8	00 00 00 00	 DD	 $LN4@get_rotate
  000ec	00 00 00 00	 DD	 $LN5@get_rotate
  000f0	00 00 00 00	 DD	 $LN6@get_rotate
  000f4	00 00 00 00	 DD	 $LN7@get_rotate
  000f8	00 00 00 00	 DD	 $LN8@get_rotate
  000fc	00 00 00 00	 DD	 $LN9@get_rotate
  00100	00 00 00 00	 DD	 $LN10@get_rotate
  00104	00 00 00 00	 DD	 $LN11@get_rotate
  00108	00 00 00 00	 DD	 $LN12@get_rotate
  0010c	00 00 00 00	 DD	 $LN13@get_rotate
?get_rotate_down_limit@@YGMXZ ENDP			; get_rotate_down_limit
_TEXT	ENDS
; Function compile flags: /Odtp /ZI
; File c:\users\nhv90\projects\eech\aphavoc\source\gunships\views\vm_vckpt.c
;	COMDAT ?get_rotate_up_limit@@YGMXZ
_TEXT	SEGMENT
tv64 = -72						; size = 4
_limit$ = -4						; size = 4
?get_rotate_up_limit@@YGMXZ PROC			; get_rotate_up_limit, COMDAT

; 336  : {

  00000	55		 push	 ebp
  00001	8b ec		 mov	 ebp, esp
  00003	83 ec 48	 sub	 esp, 72			; 00000048H
  00006	53		 push	 ebx
  00007	56		 push	 esi
  00008	57		 push	 edi

; 337  : 	float
; 338  : 		limit;
; 339  : 
; 340  : 	switch (get_global_gunship_type ())

  00009	a1 0c 00 00 00	 mov	 eax, DWORD PTR ?global_options@@3UGLOBAL_OPTIONS_DATA@@A+12
  0000e	89 45 b8	 mov	 DWORD PTR tv64[ebp], eax
  00011	83 7d b8 09	 cmp	 DWORD PTR tv64[ebp], 9
  00015	0f 87 be 00 00
	00		 ja	 $LN16@get_rotate
  0001b	8b 4d b8	 mov	 ecx, DWORD PTR tv64[ebp]
  0001e	ff 24 8d 00 00
	00 00		 jmp	 DWORD PTR $LN18@get_rotate[ecx*4]
$LN4@get_rotate:

; 341  : 	{
; 342  : 		////////////////////////////////////////
; 343  : 		case GUNSHIP_TYPE_APACHE:
; 344  : 		////////////////////////////////////////
; 345  : 		{
; 346  : 			if (command_line_3d_cockpit)

  00025	83 3d 00 00 00
	00 00		 cmp	 DWORD PTR ?command_line_3d_cockpit@@3HA, 0 ; command_line_3d_cockpit
  0002c	74 0f		 je	 SHORT $LN5@get_rotate

; 347  : 				limit = rad (MAX_LOOK_ANGLE_UP1);

  0002e	f3 0f 10 05 00
	00 00 00	 movss	 xmm0, DWORD PTR __real@3fa78d36
  00036	f3 0f 11 45 fc	 movss	 DWORD PTR _limit$[ebp], xmm0

; 348  : 			else

  0003b	eb 0d		 jmp	 SHORT $LN6@get_rotate
$LN5@get_rotate:

; 349  : 				limit = rad (MAX_LOOK_ANGLE_UP2);

  0003d	f3 0f 10 05 00
	00 00 00	 movss	 xmm0, DWORD PTR __real@3fa78d36
  00045	f3 0f 11 45 fc	 movss	 DWORD PTR _limit$[ebp], xmm0
$LN6@get_rotate:

; 350  : 
; 351  : 			break;

  0004a	e9 97 00 00 00	 jmp	 $LN2@get_rotate
$LN7@get_rotate:

; 352  : 		}
; 353  : 		////////////////////////////////////////
; 354  : 		case GUNSHIP_TYPE_HAVOC:
; 355  : 		////////////////////////////////////////
; 356  : 		{
; 357  : 			limit = rad (MAX_LOOK_ANGLE_UP2);

  0004f	f3 0f 10 05 00
	00 00 00	 movss	 xmm0, DWORD PTR __real@3fa78d36
  00057	f3 0f 11 45 fc	 movss	 DWORD PTR _limit$[ebp], xmm0

; 358  : 
; 359  : 			break;

  0005c	e9 85 00 00 00	 jmp	 $LN2@get_rotate
$LN8@get_rotate:

; 360  : 		}
; 361  : 		////////////////////////////////////////
; 362  : 		case GUNSHIP_TYPE_COMANCHE:
; 363  : 		////////////////////////////////////////
; 364  : 		{
; 365  : 			limit = rad (MAX_LOOK_ANGLE_UP1);

  00061	f3 0f 10 05 00
	00 00 00	 movss	 xmm0, DWORD PTR __real@3fa78d36
  00069	f3 0f 11 45 fc	 movss	 DWORD PTR _limit$[ebp], xmm0

; 366  : 
; 367  : 			break;

  0006e	eb 76		 jmp	 SHORT $LN2@get_rotate
$LN9@get_rotate:

; 368  : 		}
; 369  : 		////////////////////////////////////////
; 370  : 		case GUNSHIP_TYPE_HOKUM:
; 371  : 		////////////////////////////////////////
; 372  : 		{
; 373  : 			limit = rad (MAX_LOOK_ANGLE_UP1);

  00070	f3 0f 10 05 00
	00 00 00	 movss	 xmm0, DWORD PTR __real@3fa78d36
  00078	f3 0f 11 45 fc	 movss	 DWORD PTR _limit$[ebp], xmm0

; 374  : 
; 375  : 			break;

  0007d	eb 67		 jmp	 SHORT $LN2@get_rotate
$LN10@get_rotate:

; 376  : 		}
; 377  : 		////Moje 030518 Start
; 378  : 		////////////////////////////////////////
; 379  : 		case GUNSHIP_TYPE_BLACKHAWK:
; 380  : 		////////////////////////////////////////
; 381  : 		{
; 382  : 			limit = rad (MAX_LOOK_ANGLE_UP1);

  0007f	f3 0f 10 05 00
	00 00 00	 movss	 xmm0, DWORD PTR __real@3fa78d36
  00087	f3 0f 11 45 fc	 movss	 DWORD PTR _limit$[ebp], xmm0

; 383  : 
; 384  : 			break;

  0008c	eb 58		 jmp	 SHORT $LN2@get_rotate
$LN11@get_rotate:

; 385  : 		}
; 386  : 		////Moje 030518 End
; 387  : 		////Moje 030612 Start
; 388  : 		////////////////////////////////////////
; 389  : 		case GUNSHIP_TYPE_HIND:
; 390  : 		////////////////////////////////////////
; 391  : 		{
; 392  : 			limit = rad (MAX_LOOK_ANGLE_UP2);

  0008e	f3 0f 10 05 00
	00 00 00	 movss	 xmm0, DWORD PTR __real@3fa78d36
  00096	f3 0f 11 45 fc	 movss	 DWORD PTR _limit$[ebp], xmm0

; 393  : 
; 394  : 			break;

  0009b	eb 49		 jmp	 SHORT $LN2@get_rotate
$LN12@get_rotate:

; 395  : 		}
; 396  : 		////Moje 030612 End
; 397  : 		////Moje 030816 Start
; 398  : 		////////////////////////////////////////
; 399  : 		case GUNSHIP_TYPE_AH64A:
; 400  : 		////////////////////////////////////////
; 401  : 		{
; 402  : 			limit = rad (MAX_LOOK_ANGLE_UP1);

  0009d	f3 0f 10 05 00
	00 00 00	 movss	 xmm0, DWORD PTR __real@3fa78d36
  000a5	f3 0f 11 45 fc	 movss	 DWORD PTR _limit$[ebp], xmm0

; 403  : 
; 404  : 			break;

  000aa	eb 3a		 jmp	 SHORT $LN2@get_rotate
$LN13@get_rotate:

; 405  : 		}
; 406  : 		////////////////////////////////////////
; 407  : 		case GUNSHIP_TYPE_KA50:
; 408  : 		////////////////////////////////////////
; 409  : 		{
; 410  : 			limit = rad (MAX_LOOK_ANGLE_UP2);

  000ac	f3 0f 10 05 00
	00 00 00	 movss	 xmm0, DWORD PTR __real@3fa78d36
  000b4	f3 0f 11 45 fc	 movss	 DWORD PTR _limit$[ebp], xmm0

; 411  : 
; 412  : 			break;

  000b9	eb 2b		 jmp	 SHORT $LN2@get_rotate
$LN14@get_rotate:

; 413  : 		}
; 414  : 		////Moje 030816 End
; 415  : 		////////////////////////////////////////
; 416  : 		case GUNSHIP_TYPE_VIPER:
; 417  : 		////////////////////////////////////////
; 418  : 		{
; 419  : 			limit = rad (MAX_LOOK_ANGLE_UP1);

  000bb	f3 0f 10 05 00
	00 00 00	 movss	 xmm0, DWORD PTR __real@3fa78d36
  000c3	f3 0f 11 45 fc	 movss	 DWORD PTR _limit$[ebp], xmm0

; 420  : 
; 421  : 			break;

  000c8	eb 1c		 jmp	 SHORT $LN2@get_rotate
$LN15@get_rotate:

; 422  : 		}
; 423  : 		////////////////////////////////////////
; 424  : 		case GUNSHIP_TYPE_KIOWA:
; 425  : 		////////////////////////////////////////
; 426  : 		{
; 427  : 			limit = rad (MAX_LOOK_ANGLE_UP1);

  000ca	f3 0f 10 05 00
	00 00 00	 movss	 xmm0, DWORD PTR __real@3fa78d36
  000d2	f3 0f 11 45 fc	 movss	 DWORD PTR _limit$[ebp], xmm0

; 428  : 
; 429  : 			break;

  000d7	eb 0d		 jmp	 SHORT $LN2@get_rotate
$LN16@get_rotate:

; 430  : 		}
; 431  : 		////////////////////////////////////////
; 432  : 		default:
; 433  : 		////////////////////////////////////////
; 434  : 		{
; 435  : 			// JB 030313 Fly any aircraft
; 436  : 			limit = rad (MAX_LOOK_ANGLE_UP1);

  000d9	f3 0f 10 05 00
	00 00 00	 movss	 xmm0, DWORD PTR __real@3fa78d36
  000e1	f3 0f 11 45 fc	 movss	 DWORD PTR _limit$[ebp], xmm0
$LN2@get_rotate:

; 437  : 			//limit = rad (0.0);
; 438  : 
; 439  : 			break;
; 440  : 		}
; 441  : 	}
; 442  : 
; 443  : 	return (limit);

  000e6	d9 45 fc	 fld	 DWORD PTR _limit$[ebp]

; 444  : }

  000e9	5f		 pop	 edi
  000ea	5e		 pop	 esi
  000eb	5b		 pop	 ebx
  000ec	8b e5		 mov	 esp, ebp
  000ee	5d		 pop	 ebp
  000ef	c3		 ret	 0
$LN18@get_rotate:
  000f0	00 00 00 00	 DD	 $LN4@get_rotate
  000f4	00 00 00 00	 DD	 $LN7@get_rotate
  000f8	00 00 00 00	 DD	 $LN8@get_rotate
  000fc	00 00 00 00	 DD	 $LN9@get_rotate
  00100	00 00 00 00	 DD	 $LN10@get_rotate
  00104	00 00 00 00	 DD	 $LN11@get_rotate
  00108	00 00 00 00	 DD	 $LN12@get_rotate
  0010c	00 00 00 00	 DD	 $LN13@get_rotate
  00110	00 00 00 00	 DD	 $LN14@get_rotate
  00114	00 00 00 00	 DD	 $LN15@get_rotate
?get_rotate_up_limit@@YGMXZ ENDP			; get_rotate_up_limit
_TEXT	ENDS
; Function compile flags: /Odtp /ZI
; File c:\users\nhv90\projects\eech\aphavoc\source\gunships\views\vm_vckpt.c
;	COMDAT ?get_rotate_right_limit@@YGMXZ
_TEXT	SEGMENT
tv64 = -72						; size = 4
_limit$ = -4						; size = 4
?get_rotate_right_limit@@YGMXZ PROC			; get_rotate_right_limit, COMDAT

; 221  : {

  00000	55		 push	 ebp
  00001	8b ec		 mov	 ebp, esp
  00003	83 ec 48	 sub	 esp, 72			; 00000048H
  00006	53		 push	 ebx
  00007	56		 push	 esi
  00008	57		 push	 edi

; 222  : 	float
; 223  : 		limit;
; 224  : 
; 225  : 	switch (get_global_gunship_type ())

  00009	a1 0c 00 00 00	 mov	 eax, DWORD PTR ?global_options@@3UGLOBAL_OPTIONS_DATA@@A+12
  0000e	89 45 b8	 mov	 DWORD PTR tv64[ebp], eax
  00011	83 7d b8 09	 cmp	 DWORD PTR tv64[ebp], 9
  00015	0f 87 be 00 00
	00		 ja	 $LN16@get_rotate
  0001b	8b 4d b8	 mov	 ecx, DWORD PTR tv64[ebp]
  0001e	ff 24 8d 00 00
	00 00		 jmp	 DWORD PTR $LN18@get_rotate[ecx*4]
$LN4@get_rotate:

; 226  : 	{
; 227  : 		////////////////////////////////////////
; 228  : 		case GUNSHIP_TYPE_APACHE:
; 229  : 		////////////////////////////////////////
; 230  : 		{
; 231  : 			if (command_line_3d_cockpit)

  00025	83 3d 00 00 00
	00 00		 cmp	 DWORD PTR ?command_line_3d_cockpit@@3HA, 0 ; command_line_3d_cockpit
  0002c	74 0f		 je	 SHORT $LN5@get_rotate

; 232  : 				limit = rad (-MAX_LOOK_ANGLE_LEFT_RIGHT1);

  0002e	f3 0f 10 05 00
	00 00 00	 movss	 xmm0, DWORD PTR __real@c016cbe4
  00036	f3 0f 11 45 fc	 movss	 DWORD PTR _limit$[ebp], xmm0

; 233  : 			else

  0003b	eb 0d		 jmp	 SHORT $LN6@get_rotate
$LN5@get_rotate:

; 234  : 				limit = rad (-MAX_LOOK_ANGLE_LEFT_RIGHT2);

  0003d	f3 0f 10 05 00
	00 00 00	 movss	 xmm0, DWORD PTR __real@bfdf66f3
  00045	f3 0f 11 45 fc	 movss	 DWORD PTR _limit$[ebp], xmm0
$LN6@get_rotate:

; 235  : 
; 236  : 			break;

  0004a	e9 97 00 00 00	 jmp	 $LN2@get_rotate
$LN7@get_rotate:

; 237  : 		}
; 238  : 		////////////////////////////////////////
; 239  : 		case GUNSHIP_TYPE_HAVOC:
; 240  : 		////////////////////////////////////////
; 241  : 		{
; 242  : 			limit = rad (-MAX_LOOK_ANGLE_LEFT_RIGHT2);

  0004f	f3 0f 10 05 00
	00 00 00	 movss	 xmm0, DWORD PTR __real@bfdf66f3
  00057	f3 0f 11 45 fc	 movss	 DWORD PTR _limit$[ebp], xmm0

; 243  : 
; 244  : 			break;

  0005c	e9 85 00 00 00	 jmp	 $LN2@get_rotate
$LN8@get_rotate:

; 245  : 		}
; 246  : 		////////////////////////////////////////
; 247  : 		case GUNSHIP_TYPE_COMANCHE:
; 248  : 		////////////////////////////////////////
; 249  : 		{
; 250  : 			limit = rad (-MAX_LOOK_ANGLE_LEFT_RIGHT1);

  00061	f3 0f 10 05 00
	00 00 00	 movss	 xmm0, DWORD PTR __real@c016cbe4
  00069	f3 0f 11 45 fc	 movss	 DWORD PTR _limit$[ebp], xmm0

; 251  : 
; 252  : 			break;

  0006e	eb 76		 jmp	 SHORT $LN2@get_rotate
$LN9@get_rotate:

; 253  : 		}
; 254  : 		////////////////////////////////////////
; 255  : 		case GUNSHIP_TYPE_HOKUM:
; 256  : 		////////////////////////////////////////
; 257  : 		{
; 258  : 			limit = rad (-MAX_LOOK_ANGLE_LEFT_RIGHT1);

  00070	f3 0f 10 05 00
	00 00 00	 movss	 xmm0, DWORD PTR __real@c016cbe4
  00078	f3 0f 11 45 fc	 movss	 DWORD PTR _limit$[ebp], xmm0

; 259  : 
; 260  : 			break;

  0007d	eb 67		 jmp	 SHORT $LN2@get_rotate
$LN10@get_rotate:

; 261  : 		}
; 262  : 		////Moje 030518 Start
; 263  : 		////////////////////////////////////////
; 264  : 		case GUNSHIP_TYPE_BLACKHAWK:
; 265  : 		////////////////////////////////////////
; 266  : 		{
; 267  : 			limit = rad (-MAX_LOOK_ANGLE_LEFT_RIGHT2);

  0007f	f3 0f 10 05 00
	00 00 00	 movss	 xmm0, DWORD PTR __real@bfdf66f3
  00087	f3 0f 11 45 fc	 movss	 DWORD PTR _limit$[ebp], xmm0

; 268  : 
; 269  : 			break;

  0008c	eb 58		 jmp	 SHORT $LN2@get_rotate
$LN11@get_rotate:

; 270  : 		}
; 271  : 		////Moje 030518 End
; 272  : 		////Moje 03061 2Start
; 273  : 		////////////////////////////////////////
; 274  : 		case GUNSHIP_TYPE_HIND:
; 275  : 		////////////////////////////////////////
; 276  : 		{
; 277  : 			limit = rad (-MAX_LOOK_ANGLE_LEFT_RIGHT1);

  0008e	f3 0f 10 05 00
	00 00 00	 movss	 xmm0, DWORD PTR __real@c016cbe4
  00096	f3 0f 11 45 fc	 movss	 DWORD PTR _limit$[ebp], xmm0

; 278  : 
; 279  : 			break;

  0009b	eb 49		 jmp	 SHORT $LN2@get_rotate
$LN12@get_rotate:

; 280  : 		}
; 281  : 		////Moje 030612 End
; 282  : 		////Moje 030816 Start
; 283  : 		////////////////////////////////////////
; 284  : 		case GUNSHIP_TYPE_AH64A:
; 285  : 		////////////////////////////////////////
; 286  : 		{
; 287  : 			limit = rad (-MAX_LOOK_ANGLE_LEFT_RIGHT2);

  0009d	f3 0f 10 05 00
	00 00 00	 movss	 xmm0, DWORD PTR __real@bfdf66f3
  000a5	f3 0f 11 45 fc	 movss	 DWORD PTR _limit$[ebp], xmm0

; 288  : 
; 289  : 			break;

  000aa	eb 3a		 jmp	 SHORT $LN2@get_rotate
$LN13@get_rotate:

; 290  : 		}
; 291  : 		////////////////////////////////////////
; 292  : 		case GUNSHIP_TYPE_KA50:
; 293  : 		////////////////////////////////////////
; 294  : 		{
; 295  : 			limit = rad (-MAX_LOOK_ANGLE_LEFT_RIGHT2);

  000ac	f3 0f 10 05 00
	00 00 00	 movss	 xmm0, DWORD PTR __real@bfdf66f3
  000b4	f3 0f 11 45 fc	 movss	 DWORD PTR _limit$[ebp], xmm0

; 296  : 
; 297  : 			break;

  000b9	eb 2b		 jmp	 SHORT $LN2@get_rotate
$LN14@get_rotate:

; 298  : 		}
; 299  : 		////Moje 030816 End
; 300  : 		////////////////////////////////////////
; 301  : 		case GUNSHIP_TYPE_VIPER:
; 302  : 		////////////////////////////////////////
; 303  : 		{
; 304  : 			limit = rad (-MAX_LOOK_ANGLE_LEFT_RIGHT1);

  000bb	f3 0f 10 05 00
	00 00 00	 movss	 xmm0, DWORD PTR __real@c016cbe4
  000c3	f3 0f 11 45 fc	 movss	 DWORD PTR _limit$[ebp], xmm0

; 305  : 
; 306  : 			break;

  000c8	eb 1c		 jmp	 SHORT $LN2@get_rotate
$LN15@get_rotate:

; 307  : 		}
; 308  : 		////////////////////////////////////////
; 309  : 		case GUNSHIP_TYPE_KIOWA:
; 310  : 		////////////////////////////////////////
; 311  : 		{
; 312  : 			limit = rad (-MAX_LOOK_ANGLE_LEFT_RIGHT1);

  000ca	f3 0f 10 05 00
	00 00 00	 movss	 xmm0, DWORD PTR __real@c016cbe4
  000d2	f3 0f 11 45 fc	 movss	 DWORD PTR _limit$[ebp], xmm0

; 313  : 
; 314  : 			break;

  000d7	eb 0d		 jmp	 SHORT $LN2@get_rotate
$LN16@get_rotate:

; 315  : 		}
; 316  : 		////////////////////////////////////////
; 317  : 		default:
; 318  : 		////////////////////////////////////////
; 319  : 		{
; 320  : 			// JB 030313 Fly any aircraft
; 321  : 			//limit = rad (-135.0);
; 322  : 			limit = rad (-MAX_LOOK_ANGLE_LEFT_RIGHT2);

  000d9	f3 0f 10 05 00
	00 00 00	 movss	 xmm0, DWORD PTR __real@bfdf66f3
  000e1	f3 0f 11 45 fc	 movss	 DWORD PTR _limit$[ebp], xmm0
$LN2@get_rotate:

; 323  : 
; 324  : 			break;
; 325  : 		}
; 326  : 	}
; 327  : 
; 328  : 	return (limit);

  000e6	d9 45 fc	 fld	 DWORD PTR _limit$[ebp]

; 329  : }

  000e9	5f		 pop	 edi
  000ea	5e		 pop	 esi
  000eb	5b		 pop	 ebx
  000ec	8b e5		 mov	 esp, ebp
  000ee	5d		 pop	 ebp
  000ef	c3		 ret	 0
$LN18@get_rotate:
  000f0	00 00 00 00	 DD	 $LN4@get_rotate
  000f4	00 00 00 00	 DD	 $LN7@get_rotate
  000f8	00 00 00 00	 DD	 $LN8@get_rotate
  000fc	00 00 00 00	 DD	 $LN9@get_rotate
  00100	00 00 00 00	 DD	 $LN10@get_rotate
  00104	00 00 00 00	 DD	 $LN11@get_rotate
  00108	00 00 00 00	 DD	 $LN12@get_rotate
  0010c	00 00 00 00	 DD	 $LN13@get_rotate
  00110	00 00 00 00	 DD	 $LN14@get_rotate
  00114	00 00 00 00	 DD	 $LN15@get_rotate
?get_rotate_right_limit@@YGMXZ ENDP			; get_rotate_right_limit
_TEXT	ENDS
; Function compile flags: /Odtp /ZI
; File c:\users\nhv90\projects\eech\aphavoc\source\gunships\views\vm_vckpt.c
;	COMDAT ?get_rotate_left_limit@@YGMXZ
_TEXT	SEGMENT
tv64 = -72						; size = 4
_limit$ = -4						; size = 4
?get_rotate_left_limit@@YGMXZ PROC			; get_rotate_left_limit, COMDAT

; 106  : {

  00000	55		 push	 ebp
  00001	8b ec		 mov	 ebp, esp
  00003	83 ec 48	 sub	 esp, 72			; 00000048H
  00006	53		 push	 ebx
  00007	56		 push	 esi
  00008	57		 push	 edi

; 107  : 	float
; 108  : 		limit;
; 109  : 
; 110  : 	switch (get_global_gunship_type ())

  00009	a1 0c 00 00 00	 mov	 eax, DWORD PTR ?global_options@@3UGLOBAL_OPTIONS_DATA@@A+12
  0000e	89 45 b8	 mov	 DWORD PTR tv64[ebp], eax
  00011	83 7d b8 09	 cmp	 DWORD PTR tv64[ebp], 9
  00015	0f 87 be 00 00
	00		 ja	 $LN16@get_rotate
  0001b	8b 4d b8	 mov	 ecx, DWORD PTR tv64[ebp]
  0001e	ff 24 8d 00 00
	00 00		 jmp	 DWORD PTR $LN18@get_rotate[ecx*4]
$LN4@get_rotate:

; 111  : 	{
; 112  : 		////////////////////////////////////////
; 113  : 		case GUNSHIP_TYPE_APACHE:
; 114  : 		////////////////////////////////////////
; 115  : 		{
; 116  : 			if (command_line_3d_cockpit)

  00025	83 3d 00 00 00
	00 00		 cmp	 DWORD PTR ?command_line_3d_cockpit@@3HA, 0 ; command_line_3d_cockpit
  0002c	74 0f		 je	 SHORT $LN5@get_rotate

; 117  : 				limit = rad (MAX_LOOK_ANGLE_LEFT_RIGHT1);

  0002e	f3 0f 10 05 00
	00 00 00	 movss	 xmm0, DWORD PTR __real@4016cbe4
  00036	f3 0f 11 45 fc	 movss	 DWORD PTR _limit$[ebp], xmm0

; 118  : 			else

  0003b	eb 0d		 jmp	 SHORT $LN6@get_rotate
$LN5@get_rotate:

; 119  : 				limit = rad (MAX_LOOK_ANGLE_LEFT_RIGHT2);

  0003d	f3 0f 10 05 00
	00 00 00	 movss	 xmm0, DWORD PTR __real@3fdf66f3
  00045	f3 0f 11 45 fc	 movss	 DWORD PTR _limit$[ebp], xmm0
$LN6@get_rotate:

; 120  : 
; 121  : 			break;

  0004a	e9 97 00 00 00	 jmp	 $LN2@get_rotate
$LN7@get_rotate:

; 122  : 		}
; 123  : 		////////////////////////////////////////
; 124  : 		case GUNSHIP_TYPE_HAVOC:
; 125  : 		////////////////////////////////////////
; 126  : 		{
; 127  : 			limit = rad (MAX_LOOK_ANGLE_LEFT_RIGHT2);

  0004f	f3 0f 10 05 00
	00 00 00	 movss	 xmm0, DWORD PTR __real@3fdf66f3
  00057	f3 0f 11 45 fc	 movss	 DWORD PTR _limit$[ebp], xmm0

; 128  : 
; 129  : 			break;

  0005c	e9 85 00 00 00	 jmp	 $LN2@get_rotate
$LN8@get_rotate:

; 130  : 		}
; 131  : 		////////////////////////////////////////
; 132  : 		case GUNSHIP_TYPE_COMANCHE:
; 133  : 		////////////////////////////////////////
; 134  : 		{
; 135  : 			limit = rad (MAX_LOOK_ANGLE_LEFT_RIGHT1);

  00061	f3 0f 10 05 00
	00 00 00	 movss	 xmm0, DWORD PTR __real@4016cbe4
  00069	f3 0f 11 45 fc	 movss	 DWORD PTR _limit$[ebp], xmm0

; 136  : 
; 137  : 			break;

  0006e	eb 76		 jmp	 SHORT $LN2@get_rotate
$LN9@get_rotate:

; 138  : 		}
; 139  : 		////////////////////////////////////////
; 140  : 		case GUNSHIP_TYPE_HOKUM:
; 141  : 		////////////////////////////////////////
; 142  : 		{
; 143  : 			limit = rad (MAX_LOOK_ANGLE_LEFT_RIGHT1);

  00070	f3 0f 10 05 00
	00 00 00	 movss	 xmm0, DWORD PTR __real@4016cbe4
  00078	f3 0f 11 45 fc	 movss	 DWORD PTR _limit$[ebp], xmm0

; 144  : 
; 145  : 			break;

  0007d	eb 67		 jmp	 SHORT $LN2@get_rotate
$LN10@get_rotate:

; 146  : 		}
; 147  : 		////Moje 030518 Start
; 148  : 		////////////////////////////////////////
; 149  : 		case GUNSHIP_TYPE_BLACKHAWK:
; 150  : 		////////////////////////////////////////
; 151  : 		{
; 152  : 			limit = rad (MAX_LOOK_ANGLE_LEFT_RIGHT2);

  0007f	f3 0f 10 05 00
	00 00 00	 movss	 xmm0, DWORD PTR __real@3fdf66f3
  00087	f3 0f 11 45 fc	 movss	 DWORD PTR _limit$[ebp], xmm0

; 153  : 
; 154  : 			break;

  0008c	eb 58		 jmp	 SHORT $LN2@get_rotate
$LN11@get_rotate:

; 155  : 		}
; 156  : 		////Moje 030518 End
; 157  : 		////Moje 030612 Start
; 158  : 		////////////////////////////////////////
; 159  : 		case GUNSHIP_TYPE_HIND:
; 160  : 		////////////////////////////////////////
; 161  : 		{
; 162  : 			limit = rad (MAX_LOOK_ANGLE_LEFT_RIGHT1);

  0008e	f3 0f 10 05 00
	00 00 00	 movss	 xmm0, DWORD PTR __real@4016cbe4
  00096	f3 0f 11 45 fc	 movss	 DWORD PTR _limit$[ebp], xmm0

; 163  : 
; 164  : 			break;

  0009b	eb 49		 jmp	 SHORT $LN2@get_rotate
$LN12@get_rotate:

; 165  : 		}
; 166  : 		////Moje 030612 End
; 167  : 		////Moje 030816 Start
; 168  : 		////////////////////////////////////////
; 169  : 		case GUNSHIP_TYPE_AH64A:
; 170  : 		////////////////////////////////////////
; 171  : 		{
; 172  : 			limit = rad (MAX_LOOK_ANGLE_LEFT_RIGHT2);

  0009d	f3 0f 10 05 00
	00 00 00	 movss	 xmm0, DWORD PTR __real@3fdf66f3
  000a5	f3 0f 11 45 fc	 movss	 DWORD PTR _limit$[ebp], xmm0

; 173  : 
; 174  : 			break;

  000aa	eb 3a		 jmp	 SHORT $LN2@get_rotate
$LN13@get_rotate:

; 175  : 		}
; 176  : 		////////////////////////////////////////
; 177  : 		case GUNSHIP_TYPE_KA50:
; 178  : 		////////////////////////////////////////
; 179  : 		{
; 180  : 			limit = rad (MAX_LOOK_ANGLE_LEFT_RIGHT2);

  000ac	f3 0f 10 05 00
	00 00 00	 movss	 xmm0, DWORD PTR __real@3fdf66f3
  000b4	f3 0f 11 45 fc	 movss	 DWORD PTR _limit$[ebp], xmm0

; 181  : 
; 182  : 			break;

  000b9	eb 2b		 jmp	 SHORT $LN2@get_rotate
$LN14@get_rotate:

; 183  : 		}
; 184  : 		////Moje 030816 End
; 185  : 		////////////////////////////////////////
; 186  : 		case GUNSHIP_TYPE_VIPER:
; 187  : 		////////////////////////////////////////
; 188  : 		{
; 189  : 			limit = rad (MAX_LOOK_ANGLE_LEFT_RIGHT1);

  000bb	f3 0f 10 05 00
	00 00 00	 movss	 xmm0, DWORD PTR __real@4016cbe4
  000c3	f3 0f 11 45 fc	 movss	 DWORD PTR _limit$[ebp], xmm0

; 190  : 
; 191  : 			break;

  000c8	eb 1c		 jmp	 SHORT $LN2@get_rotate
$LN15@get_rotate:

; 192  : 		}
; 193  : 		////////////////////////////////////////
; 194  : 		case GUNSHIP_TYPE_KIOWA:
; 195  : 		////////////////////////////////////////
; 196  : 		{
; 197  : 			limit = rad (MAX_LOOK_ANGLE_LEFT_RIGHT1);

  000ca	f3 0f 10 05 00
	00 00 00	 movss	 xmm0, DWORD PTR __real@4016cbe4
  000d2	f3 0f 11 45 fc	 movss	 DWORD PTR _limit$[ebp], xmm0

; 198  : 
; 199  : 			break;

  000d7	eb 0d		 jmp	 SHORT $LN2@get_rotate
$LN16@get_rotate:

; 200  : 		}
; 201  : 		////////////////////////////////////////
; 202  : 		default:
; 203  : 		////////////////////////////////////////
; 204  : 		{
; 205  : 			// JB 030313 Fly any aircraft
; 206  : 			//limit = rad (135.0);
; 207  : 			limit = rad (MAX_LOOK_ANGLE_LEFT_RIGHT2);

  000d9	f3 0f 10 05 00
	00 00 00	 movss	 xmm0, DWORD PTR __real@3fdf66f3
  000e1	f3 0f 11 45 fc	 movss	 DWORD PTR _limit$[ebp], xmm0
$LN2@get_rotate:

; 208  : 
; 209  : 			break;
; 210  : 		}
; 211  : 	}
; 212  : 
; 213  : 	return (limit);

  000e6	d9 45 fc	 fld	 DWORD PTR _limit$[ebp]

; 214  : }

  000e9	5f		 pop	 edi
  000ea	5e		 pop	 esi
  000eb	5b		 pop	 ebx
  000ec	8b e5		 mov	 esp, ebp
  000ee	5d		 pop	 ebp
  000ef	c3		 ret	 0
$LN18@get_rotate:
  000f0	00 00 00 00	 DD	 $LN4@get_rotate
  000f4	00 00 00 00	 DD	 $LN7@get_rotate
  000f8	00 00 00 00	 DD	 $LN8@get_rotate
  000fc	00 00 00 00	 DD	 $LN9@get_rotate
  00100	00 00 00 00	 DD	 $LN10@get_rotate
  00104	00 00 00 00	 DD	 $LN11@get_rotate
  00108	00 00 00 00	 DD	 $LN12@get_rotate
  0010c	00 00 00 00	 DD	 $LN13@get_rotate
  00110	00 00 00 00	 DD	 $LN14@get_rotate
  00114	00 00 00 00	 DD	 $LN15@get_rotate
?get_rotate_left_limit@@YGMXZ ENDP			; get_rotate_left_limit
_TEXT	ENDS
; Function compile flags: /Odtp /ZI
; File c:\users\nhv90\projects\eech\aphavoc\source\gunships\views\vm_vckpt.c
;	COMDAT ?get_position_nose_relative_coordinates@@YG?AW4OBJECT_3D_VISIBILITY@@PAUVEC3D@@PAM1@Z
_TEXT	SEGMENT
_j$ = -24						; size = 4
_i$ = -20						; size = 4
_q$ = -16						; size = 4
_relative_position$ = -12				; size = 12
_position$ = 8						; size = 4
_x$ = 12						; size = 4
_y$ = 16						; size = 4
?get_position_nose_relative_coordinates@@YG?AW4OBJECT_3D_VISIBILITY@@PAUVEC3D@@PAM1@Z PROC ; get_position_nose_relative_coordinates, COMDAT

; 4489 : {

  00000	55		 push	 ebp
  00001	8b ec		 mov	 ebp, esp
  00003	83 ec 58	 sub	 esp, 88			; 00000058H
  00006	53		 push	 ebx
  00007	56		 push	 esi
  00008	57		 push	 edi

; 4490 : 
; 4491 : 	vec3d
; 4492 : 		relative_position;
; 4493 : 
; 4494 : 	float
; 4495 : 		q,
; 4496 : 		i,
; 4497 : 		j;
; 4498 : 
; 4499 : 	get_position_nose_relative_position ( position, &relative_position );

  00009	8d 45 f4	 lea	 eax, DWORD PTR _relative_position$[ebp]
  0000c	50		 push	 eax
  0000d	8b 4d 08	 mov	 ecx, DWORD PTR _position$[ebp]
  00010	51		 push	 ecx
  00011	e8 00 00 00 00	 call	 ?get_position_nose_relative_position@@YGXPAUVEC3D@@0@Z ; get_position_nose_relative_position

; 4500 : 
; 4501 : 	if ( relative_position.z < clip_hither )

  00016	f3 0f 10 05 00
	00 00 00	 movss	 xmm0, DWORD PTR ?clip_hither@@3MA
  0001e	0f 2f 45 fc	 comiss	 xmm0, DWORD PTR _relative_position$[ebp+8]
  00022	76 07		 jbe	 SHORT $LN2@get_positi

; 4502 : 		return ( OBJECT_3D_NOT_VISIBLE );

  00024	b8 03 00 00 00	 mov	 eax, 3
  00029	eb 7c		 jmp	 SHORT $LN1@get_positi
$LN2@get_positi:

; 4503 : 
; 4504 : 	q = 1.0 / relative_position.z;

  0002b	f3 0f 5a 45 fc	 cvtss2sd xmm0, DWORD PTR _relative_position$[ebp+8]
  00030	f2 0f 10 0d 00
	00 00 00	 movsd	 xmm1, QWORD PTR __real@3ff0000000000000
  00038	f2 0f 5e c8	 divsd	 xmm1, xmm0
  0003c	f2 0f 5a c1	 cvtsd2ss xmm0, xmm1
  00040	f3 0f 11 45 f0	 movss	 DWORD PTR _q$[ebp], xmm0

; 4505 : 
; 4506 : 	i = ( active_3d_environment->screen_i_scale * relative_position.x * q );

  00045	a1 00 00 00 00	 mov	 eax, DWORD PTR ?active_3d_environment@@3PAUENV_3D@@A ; active_3d_environment
  0004a	f3 0f 10 00	 movss	 xmm0, DWORD PTR [eax]
  0004e	f3 0f 59 45 f4	 mulss	 xmm0, DWORD PTR _relative_position$[ebp]
  00053	f3 0f 59 45 f0	 mulss	 xmm0, DWORD PTR _q$[ebp]
  00058	f3 0f 11 45 ec	 movss	 DWORD PTR _i$[ebp], xmm0

; 4507 : 	j = ( active_3d_environment->screen_j_scale * relative_position.y * q );

  0005d	a1 00 00 00 00	 mov	 eax, DWORD PTR ?active_3d_environment@@3PAUENV_3D@@A ; active_3d_environment
  00062	f3 0f 10 40 04	 movss	 xmm0, DWORD PTR [eax+4]
  00067	f3 0f 59 45 f8	 mulss	 xmm0, DWORD PTR _relative_position$[ebp+4]
  0006c	f3 0f 59 45 f0	 mulss	 xmm0, DWORD PTR _q$[ebp]
  00071	f3 0f 11 45 e8	 movss	 DWORD PTR _j$[ebp], xmm0

; 4508 : 
; 4509 : 	*x = active_3d_environment->x_origin + i;

  00076	a1 00 00 00 00	 mov	 eax, DWORD PTR ?active_3d_environment@@3PAUENV_3D@@A ; active_3d_environment
  0007b	f3 0f 10 40 10	 movss	 xmm0, DWORD PTR [eax+16]
  00080	f3 0f 58 45 ec	 addss	 xmm0, DWORD PTR _i$[ebp]
  00085	8b 4d 0c	 mov	 ecx, DWORD PTR _x$[ebp]
  00088	f3 0f 11 01	 movss	 DWORD PTR [ecx], xmm0

; 4510 : 	*y = active_3d_environment->y_origin - j;

  0008c	a1 00 00 00 00	 mov	 eax, DWORD PTR ?active_3d_environment@@3PAUENV_3D@@A ; active_3d_environment
  00091	f3 0f 10 40 14	 movss	 xmm0, DWORD PTR [eax+20]
  00096	f3 0f 5c 45 e8	 subss	 xmm0, DWORD PTR _j$[ebp]
  0009b	8b 4d 10	 mov	 ecx, DWORD PTR _y$[ebp]
  0009e	f3 0f 11 01	 movss	 DWORD PTR [ecx], xmm0

; 4511 : 
; 4512 : 	return ( OBJECT_3D_COMPLETELY_VISIBLE );

  000a2	b8 01 00 00 00	 mov	 eax, 1
$LN1@get_positi:

; 4513 : }

  000a7	5f		 pop	 edi
  000a8	5e		 pop	 esi
  000a9	5b		 pop	 ebx
  000aa	8b e5		 mov	 esp, ebp
  000ac	5d		 pop	 ebp
  000ad	c2 0c 00	 ret	 12			; 0000000cH
?get_position_nose_relative_coordinates@@YG?AW4OBJECT_3D_VISIBILITY@@PAUVEC3D@@PAM1@Z ENDP ; get_position_nose_relative_coordinates
_TEXT	ENDS
; Function compile flags: /Odtp /ZI
; File c:\users\nhv90\projects\eech\aphavoc\source\gunships\views\vm_vckpt.c
;	COMDAT ?draw_night_vision_mask@@YGXXZ
_TEXT	SEGMENT
_specular$ = -264					; size = 4
_colour$ = -260						; size = 4
_quad$ = -256						; size = 256
?draw_night_vision_mask@@YGXXZ PROC			; draw_night_vision_mask, COMDAT

; 1251 : {

  00000	55		 push	 ebp
  00001	8b ec		 mov	 ebp, esp
  00003	81 ec 48 01 00
	00		 sub	 esp, 328		; 00000148H
  00009	53		 push	 ebx
  0000a	56		 push	 esi
  0000b	57		 push	 edi

; 1252 : 	vertex
; 1253 : 		quad[4];
; 1254 : 
; 1255 : 	real_colour
; 1256 : 		colour,
; 1257 : 		specular;
; 1258 : 
; 1259 : 	set_3d_active_environment (main_3d_env);

  0000c	a1 00 00 00 00	 mov	 eax, DWORD PTR ?main_3d_env@@3PAUENV_3D@@A ; main_3d_env
  00011	50		 push	 eax
  00012	e8 00 00 00 00	 call	 ?set_3d_active_environment@@YGXPAUENV_3D@@@Z ; set_3d_active_environment

; 1260 : 
; 1261 : 	if (begin_3d_scene ())

  00017	e8 00 00 00 00	 call	 ?begin_3d_scene@@YGHXZ	; begin_3d_scene
  0001c	85 c0		 test	 eax, eax
  0001e	0f 84 8f 0b 00
	00		 je	 $LN2@draw_night

; 1262 : 	{
; 1263 : 		colour.red		= 255;

  00024	c6 85 fe fe ff
	ff ff		 mov	 BYTE PTR _colour$[ebp+2], 255 ; 000000ffH

; 1264 : 		colour.green	= 255;

  0002b	c6 85 fd fe ff
	ff ff		 mov	 BYTE PTR _colour$[ebp+1], 255 ; 000000ffH

; 1265 : 		colour.blue		= 255;

  00032	c6 85 fc fe ff
	ff ff		 mov	 BYTE PTR _colour$[ebp], 255 ; 000000ffH

; 1266 : 		colour.alpha	= 192;

  00039	c6 85 ff fe ff
	ff c0		 mov	 BYTE PTR _colour$[ebp+3], 192 ; 000000c0H

; 1267 : 
; 1268 : 		specular.red	= 0;

  00040	c6 85 fa fe ff
	ff 00		 mov	 BYTE PTR _specular$[ebp+2], 0

; 1269 : 		specular.green	= 0;

  00047	c6 85 f9 fe ff
	ff 00		 mov	 BYTE PTR _specular$[ebp+1], 0

; 1270 : 		specular.blue	= 0;

  0004e	c6 85 f8 fe ff
	ff 00		 mov	 BYTE PTR _specular$[ebp], 0

; 1271 : 		specular.alpha	= 255;

  00055	c6 85 fb fe ff
	ff ff		 mov	 BYTE PTR _specular$[ebp+3], 255 ; 000000ffH

; 1272 : 
; 1273 : 		set_d3d_transparency_on ();

  0005c	e8 00 00 00 00	 call	 ?set_d3d_transparency_on@@YGXXZ ; set_d3d_transparency_on

; 1274 : 
; 1275 : 		set_d3d_zbuffer_comparison (FALSE);

  00061	6a 00		 push	 0
  00063	e8 00 00 00 00	 call	 ?set_d3d_zbuffer_comparison@@YGXH@Z ; set_d3d_zbuffer_comparison

; 1276 : 
; 1277 : 		set_d3d_culling (FALSE);

  00068	6a 00		 push	 0
  0006a	e8 00 00 00 00	 call	 ?set_d3d_culling@@YGXH@Z ; set_d3d_culling

; 1278 : 
; 1279 : 		set_d3d_texture_wrapping (0, FALSE);

  0006f	6a 00		 push	 0
  00071	6a 00		 push	 0
  00073	e8 00 00 00 00	 call	 ?set_d3d_texture_wrapping@@YGXHH@Z ; set_d3d_texture_wrapping

; 1280 : 
; 1281 : 		set_d3d_texture_filtering (FALSE);

  00078	6a 00		 push	 0
  0007a	e8 00 00 00 00	 call	 ?set_d3d_texture_filtering@@YGXH@Z ; set_d3d_texture_filtering

; 1282 : 
; 1283 : 		set_d3d_flat_shaded_textured_renderstate (get_system_texture_ptr (TEXTURE_INDEX_HOKUM_COCKPIT_WSO_SCOPE_VIEW));

  0007f	68 52 05 00 00	 push	 1362			; 00000552H
  00084	e8 00 00 00 00	 call	 ?get_system_texture_ptr@@YGPAUSCREEN@@H@Z ; get_system_texture_ptr
  00089	50		 push	 eax
  0008a	e8 00 00 00 00	 call	 ?set_d3d_flat_shaded_textured_renderstate@@YGXPAUSCREEN@@@Z ; set_d3d_flat_shaded_textured_renderstate

; 1284 : 
; 1285 : 		////////////////////////////////////////
; 1286 : 		//
; 1287 : 		// top left
; 1288 : 		//
; 1289 : 		////////////////////////////////////////
; 1290 : 
; 1291 : 		quad[0].i 				= full_screen_x_min;

  0008f	b8 40 00 00 00	 mov	 eax, 64			; 00000040H
  00094	6b c8 00	 imul	 ecx, eax, 0
  00097	f3 0f 10 05 00
	00 00 00	 movss	 xmm0, DWORD PTR ?full_screen_x_min@@3MA
  0009f	f3 0f 11 84 0d
	10 ff ff ff	 movss	 DWORD PTR _quad$[ebp+ecx+16], xmm0

; 1292 : 		quad[0].j  				= full_screen_y_min;

  000a8	b8 40 00 00 00	 mov	 eax, 64			; 00000040H
  000ad	6b c8 00	 imul	 ecx, eax, 0
  000b0	f3 0f 10 05 00
	00 00 00	 movss	 xmm0, DWORD PTR ?full_screen_y_min@@3MA
  000b8	f3 0f 11 84 0d
	14 ff ff ff	 movss	 DWORD PTR _quad$[ebp+ecx+20], xmm0

; 1293 : 		quad[0].z  				= 0.5;

  000c1	b8 40 00 00 00	 mov	 eax, 64			; 00000040H
  000c6	6b c8 00	 imul	 ecx, eax, 0
  000c9	f3 0f 10 05 00
	00 00 00	 movss	 xmm0, DWORD PTR __real@3f000000
  000d1	f3 0f 11 84 0d
	08 ff ff ff	 movss	 DWORD PTR _quad$[ebp+ecx+8], xmm0

; 1294 : 		quad[0].q  				= 0.5;

  000da	b8 40 00 00 00	 mov	 eax, 64			; 00000040H
  000df	6b c8 00	 imul	 ecx, eax, 0
  000e2	f3 0f 10 05 00
	00 00 00	 movss	 xmm0, DWORD PTR __real@3f000000
  000ea	f3 0f 11 84 0d
	0c ff ff ff	 movss	 DWORD PTR _quad$[ebp+ecx+12], xmm0

; 1295 : 		quad[0].u  				= 0.0;

  000f3	b8 40 00 00 00	 mov	 eax, 64			; 00000040H
  000f8	6b c8 00	 imul	 ecx, eax, 0
  000fb	0f 57 c0	 xorps	 xmm0, xmm0
  000fe	f3 0f 11 84 0d
	18 ff ff ff	 movss	 DWORD PTR _quad$[ebp+ecx+24], xmm0

; 1296 : 		quad[0].v				= 0.0;

  00107	b8 40 00 00 00	 mov	 eax, 64			; 00000040H
  0010c	6b c8 00	 imul	 ecx, eax, 0
  0010f	0f 57 c0	 xorps	 xmm0, xmm0
  00112	f3 0f 11 84 0d
	1c ff ff ff	 movss	 DWORD PTR _quad$[ebp+ecx+28], xmm0

; 1297 : 
; 1298 : 		quad[1].i  				= full_screen_x_mid;

  0011b	b8 40 00 00 00	 mov	 eax, 64			; 00000040H
  00120	c1 e0 00	 shl	 eax, 0
  00123	f3 0f 10 05 00
	00 00 00	 movss	 xmm0, DWORD PTR ?full_screen_x_mid@@3MA
  0012b	f3 0f 11 84 05
	10 ff ff ff	 movss	 DWORD PTR _quad$[ebp+eax+16], xmm0

; 1299 : 		quad[1].j  				= full_screen_y_min;

  00134	b8 40 00 00 00	 mov	 eax, 64			; 00000040H
  00139	c1 e0 00	 shl	 eax, 0
  0013c	f3 0f 10 05 00
	00 00 00	 movss	 xmm0, DWORD PTR ?full_screen_y_min@@3MA
  00144	f3 0f 11 84 05
	14 ff ff ff	 movss	 DWORD PTR _quad$[ebp+eax+20], xmm0

; 1300 : 		quad[1].z  				= 0.5;

  0014d	b8 40 00 00 00	 mov	 eax, 64			; 00000040H
  00152	c1 e0 00	 shl	 eax, 0
  00155	f3 0f 10 05 00
	00 00 00	 movss	 xmm0, DWORD PTR __real@3f000000
  0015d	f3 0f 11 84 05
	08 ff ff ff	 movss	 DWORD PTR _quad$[ebp+eax+8], xmm0

; 1301 : 		quad[1].q  				= 0.5;

  00166	b8 40 00 00 00	 mov	 eax, 64			; 00000040H
  0016b	c1 e0 00	 shl	 eax, 0
  0016e	f3 0f 10 05 00
	00 00 00	 movss	 xmm0, DWORD PTR __real@3f000000
  00176	f3 0f 11 84 05
	0c ff ff ff	 movss	 DWORD PTR _quad$[ebp+eax+12], xmm0

; 1302 : 		quad[1].u  				= 0.75; //1.0;

  0017f	b8 40 00 00 00	 mov	 eax, 64			; 00000040H
  00184	c1 e0 00	 shl	 eax, 0
  00187	f3 0f 10 05 00
	00 00 00	 movss	 xmm0, DWORD PTR __real@3f400000
  0018f	f3 0f 11 84 05
	18 ff ff ff	 movss	 DWORD PTR _quad$[ebp+eax+24], xmm0

; 1303 : 		quad[1].v  				= 0.0;

  00198	b8 40 00 00 00	 mov	 eax, 64			; 00000040H
  0019d	c1 e0 00	 shl	 eax, 0
  001a0	0f 57 c0	 xorps	 xmm0, xmm0
  001a3	f3 0f 11 84 05
	1c ff ff ff	 movss	 DWORD PTR _quad$[ebp+eax+28], xmm0

; 1304 : 
; 1305 : 		quad[2].i				= full_screen_x_mid;

  001ac	b8 40 00 00 00	 mov	 eax, 64			; 00000040H
  001b1	d1 e0		 shl	 eax, 1
  001b3	f3 0f 10 05 00
	00 00 00	 movss	 xmm0, DWORD PTR ?full_screen_x_mid@@3MA
  001bb	f3 0f 11 84 05
	10 ff ff ff	 movss	 DWORD PTR _quad$[ebp+eax+16], xmm0

; 1306 : 		quad[2].j  				= full_screen_y_mid;

  001c4	b8 40 00 00 00	 mov	 eax, 64			; 00000040H
  001c9	d1 e0		 shl	 eax, 1
  001cb	f3 0f 10 05 00
	00 00 00	 movss	 xmm0, DWORD PTR ?full_screen_y_mid@@3MA
  001d3	f3 0f 11 84 05
	14 ff ff ff	 movss	 DWORD PTR _quad$[ebp+eax+20], xmm0

; 1307 : 		quad[2].z  				= 0.5;

  001dc	b8 40 00 00 00	 mov	 eax, 64			; 00000040H
  001e1	d1 e0		 shl	 eax, 1
  001e3	f3 0f 10 05 00
	00 00 00	 movss	 xmm0, DWORD PTR __real@3f000000
  001eb	f3 0f 11 84 05
	08 ff ff ff	 movss	 DWORD PTR _quad$[ebp+eax+8], xmm0

; 1308 : 		quad[2].q  				= 0.5;

  001f4	b8 40 00 00 00	 mov	 eax, 64			; 00000040H
  001f9	d1 e0		 shl	 eax, 1
  001fb	f3 0f 10 05 00
	00 00 00	 movss	 xmm0, DWORD PTR __real@3f000000
  00203	f3 0f 11 84 05
	0c ff ff ff	 movss	 DWORD PTR _quad$[ebp+eax+12], xmm0

; 1309 : 		quad[2].u  				= 0.75; //1.0;

  0020c	b8 40 00 00 00	 mov	 eax, 64			; 00000040H
  00211	d1 e0		 shl	 eax, 1
  00213	f3 0f 10 05 00
	00 00 00	 movss	 xmm0, DWORD PTR __real@3f400000
  0021b	f3 0f 11 84 05
	18 ff ff ff	 movss	 DWORD PTR _quad$[ebp+eax+24], xmm0

; 1310 : 		quad[2].v  				= 1.0;

  00224	b8 40 00 00 00	 mov	 eax, 64			; 00000040H
  00229	d1 e0		 shl	 eax, 1
  0022b	f3 0f 10 05 00
	00 00 00	 movss	 xmm0, DWORD PTR __real@3f800000
  00233	f3 0f 11 84 05
	1c ff ff ff	 movss	 DWORD PTR _quad$[ebp+eax+28], xmm0

; 1311 : 
; 1312 : 		quad[3].i  				= full_screen_x_min;

  0023c	b8 40 00 00 00	 mov	 eax, 64			; 00000040H
  00241	6b c8 03	 imul	 ecx, eax, 3
  00244	f3 0f 10 05 00
	00 00 00	 movss	 xmm0, DWORD PTR ?full_screen_x_min@@3MA
  0024c	f3 0f 11 84 0d
	10 ff ff ff	 movss	 DWORD PTR _quad$[ebp+ecx+16], xmm0

; 1313 : 		quad[3].j  				= full_screen_y_mid;

  00255	b8 40 00 00 00	 mov	 eax, 64			; 00000040H
  0025a	6b c8 03	 imul	 ecx, eax, 3
  0025d	f3 0f 10 05 00
	00 00 00	 movss	 xmm0, DWORD PTR ?full_screen_y_mid@@3MA
  00265	f3 0f 11 84 0d
	14 ff ff ff	 movss	 DWORD PTR _quad$[ebp+ecx+20], xmm0

; 1314 : 		quad[3].z  				= 0.5;

  0026e	b8 40 00 00 00	 mov	 eax, 64			; 00000040H
  00273	6b c8 03	 imul	 ecx, eax, 3
  00276	f3 0f 10 05 00
	00 00 00	 movss	 xmm0, DWORD PTR __real@3f000000
  0027e	f3 0f 11 84 0d
	08 ff ff ff	 movss	 DWORD PTR _quad$[ebp+ecx+8], xmm0

; 1315 : 		quad[3].q  				= 0.5;

  00287	b8 40 00 00 00	 mov	 eax, 64			; 00000040H
  0028c	6b c8 03	 imul	 ecx, eax, 3
  0028f	f3 0f 10 05 00
	00 00 00	 movss	 xmm0, DWORD PTR __real@3f000000
  00297	f3 0f 11 84 0d
	0c ff ff ff	 movss	 DWORD PTR _quad$[ebp+ecx+12], xmm0

; 1316 : 		quad[3].u				= 0.0;

  002a0	b8 40 00 00 00	 mov	 eax, 64			; 00000040H
  002a5	6b c8 03	 imul	 ecx, eax, 3
  002a8	0f 57 c0	 xorps	 xmm0, xmm0
  002ab	f3 0f 11 84 0d
	18 ff ff ff	 movss	 DWORD PTR _quad$[ebp+ecx+24], xmm0

; 1317 : 		quad[3].v				= 1.0;

  002b4	b8 40 00 00 00	 mov	 eax, 64			; 00000040H
  002b9	6b c8 03	 imul	 ecx, eax, 3
  002bc	f3 0f 10 05 00
	00 00 00	 movss	 xmm0, DWORD PTR __real@3f800000
  002c4	f3 0f 11 84 0d
	1c ff ff ff	 movss	 DWORD PTR _quad$[ebp+ecx+28], xmm0

; 1318 : 
; 1319 : 		quad[0].next_vertex	= &quad[1];

  002cd	b8 40 00 00 00	 mov	 eax, 64			; 00000040H
  002d2	c1 e0 00	 shl	 eax, 0
  002d5	8d 8c 05 00 ff
	ff ff		 lea	 ecx, DWORD PTR _quad$[ebp+eax]
  002dc	ba 40 00 00 00	 mov	 edx, 64			; 00000040H
  002e1	6b c2 00	 imul	 eax, edx, 0
  002e4	89 8c 05 28 ff
	ff ff		 mov	 DWORD PTR _quad$[ebp+eax+40], ecx

; 1320 : 		quad[1].next_vertex	= &quad[2];

  002eb	b8 40 00 00 00	 mov	 eax, 64			; 00000040H
  002f0	d1 e0		 shl	 eax, 1
  002f2	8d 8c 05 00 ff
	ff ff		 lea	 ecx, DWORD PTR _quad$[ebp+eax]
  002f9	ba 40 00 00 00	 mov	 edx, 64			; 00000040H
  002fe	c1 e2 00	 shl	 edx, 0
  00301	89 8c 15 28 ff
	ff ff		 mov	 DWORD PTR _quad$[ebp+edx+40], ecx

; 1321 : 		quad[2].next_vertex	= &quad[3];

  00308	b8 40 00 00 00	 mov	 eax, 64			; 00000040H
  0030d	6b c8 03	 imul	 ecx, eax, 3
  00310	8d 94 0d 00 ff
	ff ff		 lea	 edx, DWORD PTR _quad$[ebp+ecx]
  00317	b8 40 00 00 00	 mov	 eax, 64			; 00000040H
  0031c	d1 e0		 shl	 eax, 1
  0031e	89 94 05 28 ff
	ff ff		 mov	 DWORD PTR _quad$[ebp+eax+40], edx

; 1322 : 		quad[3].next_vertex	= NULL;

  00325	b8 40 00 00 00	 mov	 eax, 64			; 00000040H
  0032a	6b c8 03	 imul	 ecx, eax, 3
  0032d	c7 84 0d 28 ff
	ff ff 00 00 00
	00		 mov	 DWORD PTR _quad$[ebp+ecx+40], 0

; 1323 : 
; 1324 : 		draw_wbuffered_flat_shaded_textured_polygon (quad, colour, specular);

  00338	8b 85 f8 fe ff
	ff		 mov	 eax, DWORD PTR _specular$[ebp]
  0033e	50		 push	 eax
  0033f	8b 8d fc fe ff
	ff		 mov	 ecx, DWORD PTR _colour$[ebp]
  00345	51		 push	 ecx
  00346	8d 95 00 ff ff
	ff		 lea	 edx, DWORD PTR _quad$[ebp]
  0034c	52		 push	 edx
  0034d	e8 00 00 00 00	 call	 ?draw_wbuffered_flat_shaded_textured_polygon@@YGXPAUVERTEX@@UREAL_COLOUR@@1@Z ; draw_wbuffered_flat_shaded_textured_polygon

; 1325 : 
; 1326 : 		////////////////////////////////////////
; 1327 : 		//
; 1328 : 		// bottom left
; 1329 : 		//
; 1330 : 		////////////////////////////////////////
; 1331 : 
; 1332 : 		quad[0].i 				= full_screen_x_min;

  00352	b8 40 00 00 00	 mov	 eax, 64			; 00000040H
  00357	6b c8 00	 imul	 ecx, eax, 0
  0035a	f3 0f 10 05 00
	00 00 00	 movss	 xmm0, DWORD PTR ?full_screen_x_min@@3MA
  00362	f3 0f 11 84 0d
	10 ff ff ff	 movss	 DWORD PTR _quad$[ebp+ecx+16], xmm0

; 1333 : 		quad[0].j  				= full_screen_y_mid;

  0036b	b8 40 00 00 00	 mov	 eax, 64			; 00000040H
  00370	6b c8 00	 imul	 ecx, eax, 0
  00373	f3 0f 10 05 00
	00 00 00	 movss	 xmm0, DWORD PTR ?full_screen_y_mid@@3MA
  0037b	f3 0f 11 84 0d
	14 ff ff ff	 movss	 DWORD PTR _quad$[ebp+ecx+20], xmm0

; 1334 : 		quad[0].z  				= 0.5;

  00384	b8 40 00 00 00	 mov	 eax, 64			; 00000040H
  00389	6b c8 00	 imul	 ecx, eax, 0
  0038c	f3 0f 10 05 00
	00 00 00	 movss	 xmm0, DWORD PTR __real@3f000000
  00394	f3 0f 11 84 0d
	08 ff ff ff	 movss	 DWORD PTR _quad$[ebp+ecx+8], xmm0

; 1335 : 		quad[0].q  				= 0.5;

  0039d	b8 40 00 00 00	 mov	 eax, 64			; 00000040H
  003a2	6b c8 00	 imul	 ecx, eax, 0
  003a5	f3 0f 10 05 00
	00 00 00	 movss	 xmm0, DWORD PTR __real@3f000000
  003ad	f3 0f 11 84 0d
	0c ff ff ff	 movss	 DWORD PTR _quad$[ebp+ecx+12], xmm0

; 1336 : 		quad[0].u  				= 0.0;

  003b6	b8 40 00 00 00	 mov	 eax, 64			; 00000040H
  003bb	6b c8 00	 imul	 ecx, eax, 0
  003be	0f 57 c0	 xorps	 xmm0, xmm0
  003c1	f3 0f 11 84 0d
	18 ff ff ff	 movss	 DWORD PTR _quad$[ebp+ecx+24], xmm0

; 1337 : 		quad[0].v				= 1.0;

  003ca	b8 40 00 00 00	 mov	 eax, 64			; 00000040H
  003cf	6b c8 00	 imul	 ecx, eax, 0
  003d2	f3 0f 10 05 00
	00 00 00	 movss	 xmm0, DWORD PTR __real@3f800000
  003da	f3 0f 11 84 0d
	1c ff ff ff	 movss	 DWORD PTR _quad$[ebp+ecx+28], xmm0

; 1338 : 
; 1339 : 		quad[1].i  				= full_screen_x_mid;

  003e3	b8 40 00 00 00	 mov	 eax, 64			; 00000040H
  003e8	c1 e0 00	 shl	 eax, 0
  003eb	f3 0f 10 05 00
	00 00 00	 movss	 xmm0, DWORD PTR ?full_screen_x_mid@@3MA
  003f3	f3 0f 11 84 05
	10 ff ff ff	 movss	 DWORD PTR _quad$[ebp+eax+16], xmm0

; 1340 : 		quad[1].j  				= full_screen_y_mid;

  003fc	b8 40 00 00 00	 mov	 eax, 64			; 00000040H
  00401	c1 e0 00	 shl	 eax, 0
  00404	f3 0f 10 05 00
	00 00 00	 movss	 xmm0, DWORD PTR ?full_screen_y_mid@@3MA
  0040c	f3 0f 11 84 05
	14 ff ff ff	 movss	 DWORD PTR _quad$[ebp+eax+20], xmm0

; 1341 : 		quad[1].z  				= 0.5;

  00415	b8 40 00 00 00	 mov	 eax, 64			; 00000040H
  0041a	c1 e0 00	 shl	 eax, 0
  0041d	f3 0f 10 05 00
	00 00 00	 movss	 xmm0, DWORD PTR __real@3f000000
  00425	f3 0f 11 84 05
	08 ff ff ff	 movss	 DWORD PTR _quad$[ebp+eax+8], xmm0

; 1342 : 		quad[1].q  				= 0.5;

  0042e	b8 40 00 00 00	 mov	 eax, 64			; 00000040H
  00433	c1 e0 00	 shl	 eax, 0
  00436	f3 0f 10 05 00
	00 00 00	 movss	 xmm0, DWORD PTR __real@3f000000
  0043e	f3 0f 11 84 05
	0c ff ff ff	 movss	 DWORD PTR _quad$[ebp+eax+12], xmm0

; 1343 : 		quad[1].u  				= 0.75;

  00447	b8 40 00 00 00	 mov	 eax, 64			; 00000040H
  0044c	c1 e0 00	 shl	 eax, 0
  0044f	f3 0f 10 05 00
	00 00 00	 movss	 xmm0, DWORD PTR __real@3f400000
  00457	f3 0f 11 84 05
	18 ff ff ff	 movss	 DWORD PTR _quad$[ebp+eax+24], xmm0

; 1344 : 		quad[1].v  				= 1.0;

  00460	b8 40 00 00 00	 mov	 eax, 64			; 00000040H
  00465	c1 e0 00	 shl	 eax, 0
  00468	f3 0f 10 05 00
	00 00 00	 movss	 xmm0, DWORD PTR __real@3f800000
  00470	f3 0f 11 84 05
	1c ff ff ff	 movss	 DWORD PTR _quad$[ebp+eax+28], xmm0

; 1345 : 
; 1346 : 		quad[2].i				= full_screen_x_mid;

  00479	b8 40 00 00 00	 mov	 eax, 64			; 00000040H
  0047e	d1 e0		 shl	 eax, 1
  00480	f3 0f 10 05 00
	00 00 00	 movss	 xmm0, DWORD PTR ?full_screen_x_mid@@3MA
  00488	f3 0f 11 84 05
	10 ff ff ff	 movss	 DWORD PTR _quad$[ebp+eax+16], xmm0

; 1347 : 		quad[2].j  				= full_screen_y_max;

  00491	b8 40 00 00 00	 mov	 eax, 64			; 00000040H
  00496	d1 e0		 shl	 eax, 1
  00498	f3 0f 10 05 00
	00 00 00	 movss	 xmm0, DWORD PTR ?full_screen_y_max@@3MA
  004a0	f3 0f 11 84 05
	14 ff ff ff	 movss	 DWORD PTR _quad$[ebp+eax+20], xmm0

; 1348 : 		quad[2].z  				= 0.5;

  004a9	b8 40 00 00 00	 mov	 eax, 64			; 00000040H
  004ae	d1 e0		 shl	 eax, 1
  004b0	f3 0f 10 05 00
	00 00 00	 movss	 xmm0, DWORD PTR __real@3f000000
  004b8	f3 0f 11 84 05
	08 ff ff ff	 movss	 DWORD PTR _quad$[ebp+eax+8], xmm0

; 1349 : 		quad[2].q  				= 0.5;

  004c1	b8 40 00 00 00	 mov	 eax, 64			; 00000040H
  004c6	d1 e0		 shl	 eax, 1
  004c8	f3 0f 10 05 00
	00 00 00	 movss	 xmm0, DWORD PTR __real@3f000000
  004d0	f3 0f 11 84 05
	0c ff ff ff	 movss	 DWORD PTR _quad$[ebp+eax+12], xmm0

; 1350 : 		quad[2].u  				= 0.75;

  004d9	b8 40 00 00 00	 mov	 eax, 64			; 00000040H
  004de	d1 e0		 shl	 eax, 1
  004e0	f3 0f 10 05 00
	00 00 00	 movss	 xmm0, DWORD PTR __real@3f400000
  004e8	f3 0f 11 84 05
	18 ff ff ff	 movss	 DWORD PTR _quad$[ebp+eax+24], xmm0

; 1351 : 		quad[2].v  				= 0.0;

  004f1	b8 40 00 00 00	 mov	 eax, 64			; 00000040H
  004f6	d1 e0		 shl	 eax, 1
  004f8	0f 57 c0	 xorps	 xmm0, xmm0
  004fb	f3 0f 11 84 05
	1c ff ff ff	 movss	 DWORD PTR _quad$[ebp+eax+28], xmm0

; 1352 : 
; 1353 : 		quad[3].i  				= full_screen_x_min;

  00504	b8 40 00 00 00	 mov	 eax, 64			; 00000040H
  00509	6b c8 03	 imul	 ecx, eax, 3
  0050c	f3 0f 10 05 00
	00 00 00	 movss	 xmm0, DWORD PTR ?full_screen_x_min@@3MA
  00514	f3 0f 11 84 0d
	10 ff ff ff	 movss	 DWORD PTR _quad$[ebp+ecx+16], xmm0

; 1354 : 		quad[3].j  				= full_screen_y_max;

  0051d	b8 40 00 00 00	 mov	 eax, 64			; 00000040H
  00522	6b c8 03	 imul	 ecx, eax, 3
  00525	f3 0f 10 05 00
	00 00 00	 movss	 xmm0, DWORD PTR ?full_screen_y_max@@3MA
  0052d	f3 0f 11 84 0d
	14 ff ff ff	 movss	 DWORD PTR _quad$[ebp+ecx+20], xmm0

; 1355 : 		quad[3].z  				= 0.5;

  00536	b8 40 00 00 00	 mov	 eax, 64			; 00000040H
  0053b	6b c8 03	 imul	 ecx, eax, 3
  0053e	f3 0f 10 05 00
	00 00 00	 movss	 xmm0, DWORD PTR __real@3f000000
  00546	f3 0f 11 84 0d
	08 ff ff ff	 movss	 DWORD PTR _quad$[ebp+ecx+8], xmm0

; 1356 : 		quad[3].q  				= 0.5;

  0054f	b8 40 00 00 00	 mov	 eax, 64			; 00000040H
  00554	6b c8 03	 imul	 ecx, eax, 3
  00557	f3 0f 10 05 00
	00 00 00	 movss	 xmm0, DWORD PTR __real@3f000000
  0055f	f3 0f 11 84 0d
	0c ff ff ff	 movss	 DWORD PTR _quad$[ebp+ecx+12], xmm0

; 1357 : 		quad[3].u				= 0.0;

  00568	b8 40 00 00 00	 mov	 eax, 64			; 00000040H
  0056d	6b c8 03	 imul	 ecx, eax, 3
  00570	0f 57 c0	 xorps	 xmm0, xmm0
  00573	f3 0f 11 84 0d
	18 ff ff ff	 movss	 DWORD PTR _quad$[ebp+ecx+24], xmm0

; 1358 : 		quad[3].v				= 0.0;

  0057c	b8 40 00 00 00	 mov	 eax, 64			; 00000040H
  00581	6b c8 03	 imul	 ecx, eax, 3
  00584	0f 57 c0	 xorps	 xmm0, xmm0
  00587	f3 0f 11 84 0d
	1c ff ff ff	 movss	 DWORD PTR _quad$[ebp+ecx+28], xmm0

; 1359 : 
; 1360 : 		quad[0].next_vertex	= &quad[1];

  00590	b8 40 00 00 00	 mov	 eax, 64			; 00000040H
  00595	c1 e0 00	 shl	 eax, 0
  00598	8d 8c 05 00 ff
	ff ff		 lea	 ecx, DWORD PTR _quad$[ebp+eax]
  0059f	ba 40 00 00 00	 mov	 edx, 64			; 00000040H
  005a4	6b c2 00	 imul	 eax, edx, 0
  005a7	89 8c 05 28 ff
	ff ff		 mov	 DWORD PTR _quad$[ebp+eax+40], ecx

; 1361 : 		quad[1].next_vertex	= &quad[2];

  005ae	b8 40 00 00 00	 mov	 eax, 64			; 00000040H
  005b3	d1 e0		 shl	 eax, 1
  005b5	8d 8c 05 00 ff
	ff ff		 lea	 ecx, DWORD PTR _quad$[ebp+eax]
  005bc	ba 40 00 00 00	 mov	 edx, 64			; 00000040H
  005c1	c1 e2 00	 shl	 edx, 0
  005c4	89 8c 15 28 ff
	ff ff		 mov	 DWORD PTR _quad$[ebp+edx+40], ecx

; 1362 : 		quad[2].next_vertex	= &quad[3];

  005cb	b8 40 00 00 00	 mov	 eax, 64			; 00000040H
  005d0	6b c8 03	 imul	 ecx, eax, 3
  005d3	8d 94 0d 00 ff
	ff ff		 lea	 edx, DWORD PTR _quad$[ebp+ecx]
  005da	b8 40 00 00 00	 mov	 eax, 64			; 00000040H
  005df	d1 e0		 shl	 eax, 1
  005e1	89 94 05 28 ff
	ff ff		 mov	 DWORD PTR _quad$[ebp+eax+40], edx

; 1363 : 		quad[3].next_vertex	= NULL;

  005e8	b8 40 00 00 00	 mov	 eax, 64			; 00000040H
  005ed	6b c8 03	 imul	 ecx, eax, 3
  005f0	c7 84 0d 28 ff
	ff ff 00 00 00
	00		 mov	 DWORD PTR _quad$[ebp+ecx+40], 0

; 1364 : 
; 1365 : 		draw_wbuffered_flat_shaded_textured_polygon (quad, colour, specular);

  005fb	8b 85 f8 fe ff
	ff		 mov	 eax, DWORD PTR _specular$[ebp]
  00601	50		 push	 eax
  00602	8b 8d fc fe ff
	ff		 mov	 ecx, DWORD PTR _colour$[ebp]
  00608	51		 push	 ecx
  00609	8d 95 00 ff ff
	ff		 lea	 edx, DWORD PTR _quad$[ebp]
  0060f	52		 push	 edx
  00610	e8 00 00 00 00	 call	 ?draw_wbuffered_flat_shaded_textured_polygon@@YGXPAUVERTEX@@UREAL_COLOUR@@1@Z ; draw_wbuffered_flat_shaded_textured_polygon

; 1366 : 
; 1367 : 		////////////////////////////////////////
; 1368 : 		//
; 1369 : 		// top right
; 1370 : 		//
; 1371 : 		////////////////////////////////////////
; 1372 : 
; 1373 : 		quad[0].i 				= full_screen_x_mid;

  00615	b8 40 00 00 00	 mov	 eax, 64			; 00000040H
  0061a	6b c8 00	 imul	 ecx, eax, 0
  0061d	f3 0f 10 05 00
	00 00 00	 movss	 xmm0, DWORD PTR ?full_screen_x_mid@@3MA
  00625	f3 0f 11 84 0d
	10 ff ff ff	 movss	 DWORD PTR _quad$[ebp+ecx+16], xmm0

; 1374 : 		quad[0].j  				= full_screen_y_min;

  0062e	b8 40 00 00 00	 mov	 eax, 64			; 00000040H
  00633	6b c8 00	 imul	 ecx, eax, 0
  00636	f3 0f 10 05 00
	00 00 00	 movss	 xmm0, DWORD PTR ?full_screen_y_min@@3MA
  0063e	f3 0f 11 84 0d
	14 ff ff ff	 movss	 DWORD PTR _quad$[ebp+ecx+20], xmm0

; 1375 : 		quad[0].z  				= 0.5;

  00647	b8 40 00 00 00	 mov	 eax, 64			; 00000040H
  0064c	6b c8 00	 imul	 ecx, eax, 0
  0064f	f3 0f 10 05 00
	00 00 00	 movss	 xmm0, DWORD PTR __real@3f000000
  00657	f3 0f 11 84 0d
	08 ff ff ff	 movss	 DWORD PTR _quad$[ebp+ecx+8], xmm0

; 1376 : 		quad[0].q  				= 0.5;

  00660	b8 40 00 00 00	 mov	 eax, 64			; 00000040H
  00665	6b c8 00	 imul	 ecx, eax, 0
  00668	f3 0f 10 05 00
	00 00 00	 movss	 xmm0, DWORD PTR __real@3f000000
  00670	f3 0f 11 84 0d
	0c ff ff ff	 movss	 DWORD PTR _quad$[ebp+ecx+12], xmm0

; 1377 : 		quad[0].u  				= 0.75;

  00679	b8 40 00 00 00	 mov	 eax, 64			; 00000040H
  0067e	6b c8 00	 imul	 ecx, eax, 0
  00681	f3 0f 10 05 00
	00 00 00	 movss	 xmm0, DWORD PTR __real@3f400000
  00689	f3 0f 11 84 0d
	18 ff ff ff	 movss	 DWORD PTR _quad$[ebp+ecx+24], xmm0

; 1378 : 		quad[0].v				= 0.0;

  00692	b8 40 00 00 00	 mov	 eax, 64			; 00000040H
  00697	6b c8 00	 imul	 ecx, eax, 0
  0069a	0f 57 c0	 xorps	 xmm0, xmm0
  0069d	f3 0f 11 84 0d
	1c ff ff ff	 movss	 DWORD PTR _quad$[ebp+ecx+28], xmm0

; 1379 : 
; 1380 : 		quad[1].i  				= full_screen_x_max;

  006a6	b8 40 00 00 00	 mov	 eax, 64			; 00000040H
  006ab	c1 e0 00	 shl	 eax, 0
  006ae	f3 0f 10 05 00
	00 00 00	 movss	 xmm0, DWORD PTR ?full_screen_x_max@@3MA
  006b6	f3 0f 11 84 05
	10 ff ff ff	 movss	 DWORD PTR _quad$[ebp+eax+16], xmm0

; 1381 : 		quad[1].j  				= full_screen_y_min;

  006bf	b8 40 00 00 00	 mov	 eax, 64			; 00000040H
  006c4	c1 e0 00	 shl	 eax, 0
  006c7	f3 0f 10 05 00
	00 00 00	 movss	 xmm0, DWORD PTR ?full_screen_y_min@@3MA
  006cf	f3 0f 11 84 05
	14 ff ff ff	 movss	 DWORD PTR _quad$[ebp+eax+20], xmm0

; 1382 : 		quad[1].z  				= 0.5;

  006d8	b8 40 00 00 00	 mov	 eax, 64			; 00000040H
  006dd	c1 e0 00	 shl	 eax, 0
  006e0	f3 0f 10 05 00
	00 00 00	 movss	 xmm0, DWORD PTR __real@3f000000
  006e8	f3 0f 11 84 05
	08 ff ff ff	 movss	 DWORD PTR _quad$[ebp+eax+8], xmm0

; 1383 : 		quad[1].q  				= 0.5;

  006f1	b8 40 00 00 00	 mov	 eax, 64			; 00000040H
  006f6	c1 e0 00	 shl	 eax, 0
  006f9	f3 0f 10 05 00
	00 00 00	 movss	 xmm0, DWORD PTR __real@3f000000
  00701	f3 0f 11 84 05
	0c ff ff ff	 movss	 DWORD PTR _quad$[ebp+eax+12], xmm0

; 1384 : 		quad[1].u  				= 0.0;

  0070a	b8 40 00 00 00	 mov	 eax, 64			; 00000040H
  0070f	c1 e0 00	 shl	 eax, 0
  00712	0f 57 c0	 xorps	 xmm0, xmm0
  00715	f3 0f 11 84 05
	18 ff ff ff	 movss	 DWORD PTR _quad$[ebp+eax+24], xmm0

; 1385 : 		quad[1].v  				= 0.0;

  0071e	b8 40 00 00 00	 mov	 eax, 64			; 00000040H
  00723	c1 e0 00	 shl	 eax, 0
  00726	0f 57 c0	 xorps	 xmm0, xmm0
  00729	f3 0f 11 84 05
	1c ff ff ff	 movss	 DWORD PTR _quad$[ebp+eax+28], xmm0

; 1386 : 
; 1387 : 		quad[2].i				= full_screen_x_max;

  00732	b8 40 00 00 00	 mov	 eax, 64			; 00000040H
  00737	d1 e0		 shl	 eax, 1
  00739	f3 0f 10 05 00
	00 00 00	 movss	 xmm0, DWORD PTR ?full_screen_x_max@@3MA
  00741	f3 0f 11 84 05
	10 ff ff ff	 movss	 DWORD PTR _quad$[ebp+eax+16], xmm0

; 1388 : 		quad[2].j  				= full_screen_y_mid;

  0074a	b8 40 00 00 00	 mov	 eax, 64			; 00000040H
  0074f	d1 e0		 shl	 eax, 1
  00751	f3 0f 10 05 00
	00 00 00	 movss	 xmm0, DWORD PTR ?full_screen_y_mid@@3MA
  00759	f3 0f 11 84 05
	14 ff ff ff	 movss	 DWORD PTR _quad$[ebp+eax+20], xmm0

; 1389 : 		quad[2].z  				= 0.5;

  00762	b8 40 00 00 00	 mov	 eax, 64			; 00000040H
  00767	d1 e0		 shl	 eax, 1
  00769	f3 0f 10 05 00
	00 00 00	 movss	 xmm0, DWORD PTR __real@3f000000
  00771	f3 0f 11 84 05
	08 ff ff ff	 movss	 DWORD PTR _quad$[ebp+eax+8], xmm0

; 1390 : 		quad[2].q  				= 0.5;

  0077a	b8 40 00 00 00	 mov	 eax, 64			; 00000040H
  0077f	d1 e0		 shl	 eax, 1
  00781	f3 0f 10 05 00
	00 00 00	 movss	 xmm0, DWORD PTR __real@3f000000
  00789	f3 0f 11 84 05
	0c ff ff ff	 movss	 DWORD PTR _quad$[ebp+eax+12], xmm0

; 1391 : 		quad[2].u  				= 0.0;

  00792	b8 40 00 00 00	 mov	 eax, 64			; 00000040H
  00797	d1 e0		 shl	 eax, 1
  00799	0f 57 c0	 xorps	 xmm0, xmm0
  0079c	f3 0f 11 84 05
	18 ff ff ff	 movss	 DWORD PTR _quad$[ebp+eax+24], xmm0

; 1392 : 		quad[2].v  				= 1.0;

  007a5	b8 40 00 00 00	 mov	 eax, 64			; 00000040H
  007aa	d1 e0		 shl	 eax, 1
  007ac	f3 0f 10 05 00
	00 00 00	 movss	 xmm0, DWORD PTR __real@3f800000
  007b4	f3 0f 11 84 05
	1c ff ff ff	 movss	 DWORD PTR _quad$[ebp+eax+28], xmm0

; 1393 : 
; 1394 : 		quad[3].i  				= full_screen_x_mid;

  007bd	b8 40 00 00 00	 mov	 eax, 64			; 00000040H
  007c2	6b c8 03	 imul	 ecx, eax, 3
  007c5	f3 0f 10 05 00
	00 00 00	 movss	 xmm0, DWORD PTR ?full_screen_x_mid@@3MA
  007cd	f3 0f 11 84 0d
	10 ff ff ff	 movss	 DWORD PTR _quad$[ebp+ecx+16], xmm0

; 1395 : 		quad[3].j  				= full_screen_y_mid;

  007d6	b8 40 00 00 00	 mov	 eax, 64			; 00000040H
  007db	6b c8 03	 imul	 ecx, eax, 3
  007de	f3 0f 10 05 00
	00 00 00	 movss	 xmm0, DWORD PTR ?full_screen_y_mid@@3MA
  007e6	f3 0f 11 84 0d
	14 ff ff ff	 movss	 DWORD PTR _quad$[ebp+ecx+20], xmm0

; 1396 : 		quad[3].z  				= 0.5;

  007ef	b8 40 00 00 00	 mov	 eax, 64			; 00000040H
  007f4	6b c8 03	 imul	 ecx, eax, 3
  007f7	f3 0f 10 05 00
	00 00 00	 movss	 xmm0, DWORD PTR __real@3f000000
  007ff	f3 0f 11 84 0d
	08 ff ff ff	 movss	 DWORD PTR _quad$[ebp+ecx+8], xmm0

; 1397 : 		quad[3].q  				= 0.5;

  00808	b8 40 00 00 00	 mov	 eax, 64			; 00000040H
  0080d	6b c8 03	 imul	 ecx, eax, 3
  00810	f3 0f 10 05 00
	00 00 00	 movss	 xmm0, DWORD PTR __real@3f000000
  00818	f3 0f 11 84 0d
	0c ff ff ff	 movss	 DWORD PTR _quad$[ebp+ecx+12], xmm0

; 1398 : 		quad[3].u				= 0.75;

  00821	b8 40 00 00 00	 mov	 eax, 64			; 00000040H
  00826	6b c8 03	 imul	 ecx, eax, 3
  00829	f3 0f 10 05 00
	00 00 00	 movss	 xmm0, DWORD PTR __real@3f400000
  00831	f3 0f 11 84 0d
	18 ff ff ff	 movss	 DWORD PTR _quad$[ebp+ecx+24], xmm0

; 1399 : 		quad[3].v				= 1.0;

  0083a	b8 40 00 00 00	 mov	 eax, 64			; 00000040H
  0083f	6b c8 03	 imul	 ecx, eax, 3
  00842	f3 0f 10 05 00
	00 00 00	 movss	 xmm0, DWORD PTR __real@3f800000
  0084a	f3 0f 11 84 0d
	1c ff ff ff	 movss	 DWORD PTR _quad$[ebp+ecx+28], xmm0

; 1400 : 
; 1401 : 		quad[0].next_vertex	= &quad[1];

  00853	b8 40 00 00 00	 mov	 eax, 64			; 00000040H
  00858	c1 e0 00	 shl	 eax, 0
  0085b	8d 8c 05 00 ff
	ff ff		 lea	 ecx, DWORD PTR _quad$[ebp+eax]
  00862	ba 40 00 00 00	 mov	 edx, 64			; 00000040H
  00867	6b c2 00	 imul	 eax, edx, 0
  0086a	89 8c 05 28 ff
	ff ff		 mov	 DWORD PTR _quad$[ebp+eax+40], ecx

; 1402 : 		quad[1].next_vertex	= &quad[2];

  00871	b8 40 00 00 00	 mov	 eax, 64			; 00000040H
  00876	d1 e0		 shl	 eax, 1
  00878	8d 8c 05 00 ff
	ff ff		 lea	 ecx, DWORD PTR _quad$[ebp+eax]
  0087f	ba 40 00 00 00	 mov	 edx, 64			; 00000040H
  00884	c1 e2 00	 shl	 edx, 0
  00887	89 8c 15 28 ff
	ff ff		 mov	 DWORD PTR _quad$[ebp+edx+40], ecx

; 1403 : 		quad[2].next_vertex	= &quad[3];

  0088e	b8 40 00 00 00	 mov	 eax, 64			; 00000040H
  00893	6b c8 03	 imul	 ecx, eax, 3
  00896	8d 94 0d 00 ff
	ff ff		 lea	 edx, DWORD PTR _quad$[ebp+ecx]
  0089d	b8 40 00 00 00	 mov	 eax, 64			; 00000040H
  008a2	d1 e0		 shl	 eax, 1
  008a4	89 94 05 28 ff
	ff ff		 mov	 DWORD PTR _quad$[ebp+eax+40], edx

; 1404 : 		quad[3].next_vertex	= NULL;

  008ab	b8 40 00 00 00	 mov	 eax, 64			; 00000040H
  008b0	6b c8 03	 imul	 ecx, eax, 3
  008b3	c7 84 0d 28 ff
	ff ff 00 00 00
	00		 mov	 DWORD PTR _quad$[ebp+ecx+40], 0

; 1405 : 
; 1406 : 		draw_wbuffered_flat_shaded_textured_polygon (quad, colour, specular);

  008be	8b 85 f8 fe ff
	ff		 mov	 eax, DWORD PTR _specular$[ebp]
  008c4	50		 push	 eax
  008c5	8b 8d fc fe ff
	ff		 mov	 ecx, DWORD PTR _colour$[ebp]
  008cb	51		 push	 ecx
  008cc	8d 95 00 ff ff
	ff		 lea	 edx, DWORD PTR _quad$[ebp]
  008d2	52		 push	 edx
  008d3	e8 00 00 00 00	 call	 ?draw_wbuffered_flat_shaded_textured_polygon@@YGXPAUVERTEX@@UREAL_COLOUR@@1@Z ; draw_wbuffered_flat_shaded_textured_polygon

; 1407 : 
; 1408 : 		////////////////////////////////////////
; 1409 : 		//
; 1410 : 		// bottom right
; 1411 : 		//
; 1412 : 		////////////////////////////////////////
; 1413 : 
; 1414 : 		quad[0].i 				= full_screen_x_mid;

  008d8	b8 40 00 00 00	 mov	 eax, 64			; 00000040H
  008dd	6b c8 00	 imul	 ecx, eax, 0
  008e0	f3 0f 10 05 00
	00 00 00	 movss	 xmm0, DWORD PTR ?full_screen_x_mid@@3MA
  008e8	f3 0f 11 84 0d
	10 ff ff ff	 movss	 DWORD PTR _quad$[ebp+ecx+16], xmm0

; 1415 : 		quad[0].j  				= full_screen_y_mid;

  008f1	b8 40 00 00 00	 mov	 eax, 64			; 00000040H
  008f6	6b c8 00	 imul	 ecx, eax, 0
  008f9	f3 0f 10 05 00
	00 00 00	 movss	 xmm0, DWORD PTR ?full_screen_y_mid@@3MA
  00901	f3 0f 11 84 0d
	14 ff ff ff	 movss	 DWORD PTR _quad$[ebp+ecx+20], xmm0

; 1416 : 		quad[0].z  				= 0.5;

  0090a	b8 40 00 00 00	 mov	 eax, 64			; 00000040H
  0090f	6b c8 00	 imul	 ecx, eax, 0
  00912	f3 0f 10 05 00
	00 00 00	 movss	 xmm0, DWORD PTR __real@3f000000
  0091a	f3 0f 11 84 0d
	08 ff ff ff	 movss	 DWORD PTR _quad$[ebp+ecx+8], xmm0

; 1417 : 		quad[0].q  				= 0.5;

  00923	b8 40 00 00 00	 mov	 eax, 64			; 00000040H
  00928	6b c8 00	 imul	 ecx, eax, 0
  0092b	f3 0f 10 05 00
	00 00 00	 movss	 xmm0, DWORD PTR __real@3f000000
  00933	f3 0f 11 84 0d
	0c ff ff ff	 movss	 DWORD PTR _quad$[ebp+ecx+12], xmm0

; 1418 : 		quad[0].u  				= 0.75;

  0093c	b8 40 00 00 00	 mov	 eax, 64			; 00000040H
  00941	6b c8 00	 imul	 ecx, eax, 0
  00944	f3 0f 10 05 00
	00 00 00	 movss	 xmm0, DWORD PTR __real@3f400000
  0094c	f3 0f 11 84 0d
	18 ff ff ff	 movss	 DWORD PTR _quad$[ebp+ecx+24], xmm0

; 1419 : 		quad[0].v				= 1.0;

  00955	b8 40 00 00 00	 mov	 eax, 64			; 00000040H
  0095a	6b c8 00	 imul	 ecx, eax, 0
  0095d	f3 0f 10 05 00
	00 00 00	 movss	 xmm0, DWORD PTR __real@3f800000
  00965	f3 0f 11 84 0d
	1c ff ff ff	 movss	 DWORD PTR _quad$[ebp+ecx+28], xmm0

; 1420 : 
; 1421 : 		quad[1].i  				= full_screen_x_max;

  0096e	b8 40 00 00 00	 mov	 eax, 64			; 00000040H
  00973	c1 e0 00	 shl	 eax, 0
  00976	f3 0f 10 05 00
	00 00 00	 movss	 xmm0, DWORD PTR ?full_screen_x_max@@3MA
  0097e	f3 0f 11 84 05
	10 ff ff ff	 movss	 DWORD PTR _quad$[ebp+eax+16], xmm0

; 1422 : 		quad[1].j  				= full_screen_y_mid;

  00987	b8 40 00 00 00	 mov	 eax, 64			; 00000040H
  0098c	c1 e0 00	 shl	 eax, 0
  0098f	f3 0f 10 05 00
	00 00 00	 movss	 xmm0, DWORD PTR ?full_screen_y_mid@@3MA
  00997	f3 0f 11 84 05
	14 ff ff ff	 movss	 DWORD PTR _quad$[ebp+eax+20], xmm0

; 1423 : 		quad[1].z  				= 0.5;

  009a0	b8 40 00 00 00	 mov	 eax, 64			; 00000040H
  009a5	c1 e0 00	 shl	 eax, 0
  009a8	f3 0f 10 05 00
	00 00 00	 movss	 xmm0, DWORD PTR __real@3f000000
  009b0	f3 0f 11 84 05
	08 ff ff ff	 movss	 DWORD PTR _quad$[ebp+eax+8], xmm0

; 1424 : 		quad[1].q  				= 0.5;

  009b9	b8 40 00 00 00	 mov	 eax, 64			; 00000040H
  009be	c1 e0 00	 shl	 eax, 0
  009c1	f3 0f 10 05 00
	00 00 00	 movss	 xmm0, DWORD PTR __real@3f000000
  009c9	f3 0f 11 84 05
	0c ff ff ff	 movss	 DWORD PTR _quad$[ebp+eax+12], xmm0

; 1425 : 		quad[1].u  				= 0.0;

  009d2	b8 40 00 00 00	 mov	 eax, 64			; 00000040H
  009d7	c1 e0 00	 shl	 eax, 0
  009da	0f 57 c0	 xorps	 xmm0, xmm0
  009dd	f3 0f 11 84 05
	18 ff ff ff	 movss	 DWORD PTR _quad$[ebp+eax+24], xmm0

; 1426 : 		quad[1].v  				= 1.0;

  009e6	b8 40 00 00 00	 mov	 eax, 64			; 00000040H
  009eb	c1 e0 00	 shl	 eax, 0
  009ee	f3 0f 10 05 00
	00 00 00	 movss	 xmm0, DWORD PTR __real@3f800000
  009f6	f3 0f 11 84 05
	1c ff ff ff	 movss	 DWORD PTR _quad$[ebp+eax+28], xmm0

; 1427 : 
; 1428 : 		quad[2].i				= full_screen_x_max;

  009ff	b8 40 00 00 00	 mov	 eax, 64			; 00000040H
  00a04	d1 e0		 shl	 eax, 1
  00a06	f3 0f 10 05 00
	00 00 00	 movss	 xmm0, DWORD PTR ?full_screen_x_max@@3MA
  00a0e	f3 0f 11 84 05
	10 ff ff ff	 movss	 DWORD PTR _quad$[ebp+eax+16], xmm0

; 1429 : 		quad[2].j  				= full_screen_y_max;

  00a17	b8 40 00 00 00	 mov	 eax, 64			; 00000040H
  00a1c	d1 e0		 shl	 eax, 1
  00a1e	f3 0f 10 05 00
	00 00 00	 movss	 xmm0, DWORD PTR ?full_screen_y_max@@3MA
  00a26	f3 0f 11 84 05
	14 ff ff ff	 movss	 DWORD PTR _quad$[ebp+eax+20], xmm0

; 1430 : 		quad[2].z  				= 0.5;

  00a2f	b8 40 00 00 00	 mov	 eax, 64			; 00000040H
  00a34	d1 e0		 shl	 eax, 1
  00a36	f3 0f 10 05 00
	00 00 00	 movss	 xmm0, DWORD PTR __real@3f000000
  00a3e	f3 0f 11 84 05
	08 ff ff ff	 movss	 DWORD PTR _quad$[ebp+eax+8], xmm0

; 1431 : 		quad[2].q  				= 0.5;

  00a47	b8 40 00 00 00	 mov	 eax, 64			; 00000040H
  00a4c	d1 e0		 shl	 eax, 1
  00a4e	f3 0f 10 05 00
	00 00 00	 movss	 xmm0, DWORD PTR __real@3f000000
  00a56	f3 0f 11 84 05
	0c ff ff ff	 movss	 DWORD PTR _quad$[ebp+eax+12], xmm0

; 1432 : 		quad[2].u  				= 0.0;

  00a5f	b8 40 00 00 00	 mov	 eax, 64			; 00000040H
  00a64	d1 e0		 shl	 eax, 1
  00a66	0f 57 c0	 xorps	 xmm0, xmm0
  00a69	f3 0f 11 84 05
	18 ff ff ff	 movss	 DWORD PTR _quad$[ebp+eax+24], xmm0

; 1433 : 		quad[2].v  				= 0.0;

  00a72	b8 40 00 00 00	 mov	 eax, 64			; 00000040H
  00a77	d1 e0		 shl	 eax, 1
  00a79	0f 57 c0	 xorps	 xmm0, xmm0
  00a7c	f3 0f 11 84 05
	1c ff ff ff	 movss	 DWORD PTR _quad$[ebp+eax+28], xmm0

; 1434 : 
; 1435 : 		quad[3].i  				= full_screen_x_mid;

  00a85	b8 40 00 00 00	 mov	 eax, 64			; 00000040H
  00a8a	6b c8 03	 imul	 ecx, eax, 3
  00a8d	f3 0f 10 05 00
	00 00 00	 movss	 xmm0, DWORD PTR ?full_screen_x_mid@@3MA
  00a95	f3 0f 11 84 0d
	10 ff ff ff	 movss	 DWORD PTR _quad$[ebp+ecx+16], xmm0

; 1436 : 		quad[3].j  				= full_screen_y_max;

  00a9e	b8 40 00 00 00	 mov	 eax, 64			; 00000040H
  00aa3	6b c8 03	 imul	 ecx, eax, 3
  00aa6	f3 0f 10 05 00
	00 00 00	 movss	 xmm0, DWORD PTR ?full_screen_y_max@@3MA
  00aae	f3 0f 11 84 0d
	14 ff ff ff	 movss	 DWORD PTR _quad$[ebp+ecx+20], xmm0

; 1437 : 		quad[3].z  				= 0.5;

  00ab7	b8 40 00 00 00	 mov	 eax, 64			; 00000040H
  00abc	6b c8 03	 imul	 ecx, eax, 3
  00abf	f3 0f 10 05 00
	00 00 00	 movss	 xmm0, DWORD PTR __real@3f000000
  00ac7	f3 0f 11 84 0d
	08 ff ff ff	 movss	 DWORD PTR _quad$[ebp+ecx+8], xmm0

; 1438 : 		quad[3].q  				= 0.5;

  00ad0	b8 40 00 00 00	 mov	 eax, 64			; 00000040H
  00ad5	6b c8 03	 imul	 ecx, eax, 3
  00ad8	f3 0f 10 05 00
	00 00 00	 movss	 xmm0, DWORD PTR __real@3f000000
  00ae0	f3 0f 11 84 0d
	0c ff ff ff	 movss	 DWORD PTR _quad$[ebp+ecx+12], xmm0

; 1439 : 		quad[3].u				= 0.75;

  00ae9	b8 40 00 00 00	 mov	 eax, 64			; 00000040H
  00aee	6b c8 03	 imul	 ecx, eax, 3
  00af1	f3 0f 10 05 00
	00 00 00	 movss	 xmm0, DWORD PTR __real@3f400000
  00af9	f3 0f 11 84 0d
	18 ff ff ff	 movss	 DWORD PTR _quad$[ebp+ecx+24], xmm0

; 1440 : 		quad[3].v				= 0.0;

  00b02	b8 40 00 00 00	 mov	 eax, 64			; 00000040H
  00b07	6b c8 03	 imul	 ecx, eax, 3
  00b0a	0f 57 c0	 xorps	 xmm0, xmm0
  00b0d	f3 0f 11 84 0d
	1c ff ff ff	 movss	 DWORD PTR _quad$[ebp+ecx+28], xmm0

; 1441 : 
; 1442 : 		quad[0].next_vertex	= &quad[1];

  00b16	b8 40 00 00 00	 mov	 eax, 64			; 00000040H
  00b1b	c1 e0 00	 shl	 eax, 0
  00b1e	8d 8c 05 00 ff
	ff ff		 lea	 ecx, DWORD PTR _quad$[ebp+eax]
  00b25	ba 40 00 00 00	 mov	 edx, 64			; 00000040H
  00b2a	6b c2 00	 imul	 eax, edx, 0
  00b2d	89 8c 05 28 ff
	ff ff		 mov	 DWORD PTR _quad$[ebp+eax+40], ecx

; 1443 : 		quad[1].next_vertex	= &quad[2];

  00b34	b8 40 00 00 00	 mov	 eax, 64			; 00000040H
  00b39	d1 e0		 shl	 eax, 1
  00b3b	8d 8c 05 00 ff
	ff ff		 lea	 ecx, DWORD PTR _quad$[ebp+eax]
  00b42	ba 40 00 00 00	 mov	 edx, 64			; 00000040H
  00b47	c1 e2 00	 shl	 edx, 0
  00b4a	89 8c 15 28 ff
	ff ff		 mov	 DWORD PTR _quad$[ebp+edx+40], ecx

; 1444 : 		quad[2].next_vertex	= &quad[3];

  00b51	b8 40 00 00 00	 mov	 eax, 64			; 00000040H
  00b56	6b c8 03	 imul	 ecx, eax, 3
  00b59	8d 94 0d 00 ff
	ff ff		 lea	 edx, DWORD PTR _quad$[ebp+ecx]
  00b60	b8 40 00 00 00	 mov	 eax, 64			; 00000040H
  00b65	d1 e0		 shl	 eax, 1
  00b67	89 94 05 28 ff
	ff ff		 mov	 DWORD PTR _quad$[ebp+eax+40], edx

; 1445 : 		quad[3].next_vertex	= NULL;

  00b6e	b8 40 00 00 00	 mov	 eax, 64			; 00000040H
  00b73	6b c8 03	 imul	 ecx, eax, 3
  00b76	c7 84 0d 28 ff
	ff ff 00 00 00
	00		 mov	 DWORD PTR _quad$[ebp+ecx+40], 0

; 1446 : 
; 1447 : 		draw_wbuffered_flat_shaded_textured_polygon (quad, colour, specular);

  00b81	8b 85 f8 fe ff
	ff		 mov	 eax, DWORD PTR _specular$[ebp]
  00b87	50		 push	 eax
  00b88	8b 8d fc fe ff
	ff		 mov	 ecx, DWORD PTR _colour$[ebp]
  00b8e	51		 push	 ecx
  00b8f	8d 95 00 ff ff
	ff		 lea	 edx, DWORD PTR _quad$[ebp]
  00b95	52		 push	 edx
  00b96	e8 00 00 00 00	 call	 ?draw_wbuffered_flat_shaded_textured_polygon@@YGXPAUVERTEX@@UREAL_COLOUR@@1@Z ; draw_wbuffered_flat_shaded_textured_polygon

; 1448 : 
; 1449 : 		////////////////////////////////////////
; 1450 : 
; 1451 : 		set_d3d_transparency_off ();

  00b9b	e8 00 00 00 00	 call	 ?set_d3d_transparency_off@@YGXXZ ; set_d3d_transparency_off

; 1452 : 
; 1453 : 		set_d3d_zbuffer_comparison (TRUE);

  00ba0	6a 01		 push	 1
  00ba2	e8 00 00 00 00	 call	 ?set_d3d_zbuffer_comparison@@YGXH@Z ; set_d3d_zbuffer_comparison

; 1454 : 
; 1455 : 		set_d3d_culling (TRUE);

  00ba7	6a 01		 push	 1
  00ba9	e8 00 00 00 00	 call	 ?set_d3d_culling@@YGXH@Z ; set_d3d_culling

; 1456 : 
; 1457 : 		end_3d_scene ();

  00bae	e8 00 00 00 00	 call	 ?end_3d_scene@@YGXXZ	; end_3d_scene
$LN2@draw_night:

; 1458 : 	}
; 1459 : }

  00bb3	5f		 pop	 edi
  00bb4	5e		 pop	 esi
  00bb5	5b		 pop	 ebx
  00bb6	8b e5		 mov	 esp, ebp
  00bb8	5d		 pop	 ebp
  00bb9	c3		 ret	 0
?draw_night_vision_mask@@YGXXZ ENDP			; draw_night_vision_mask
_TEXT	ENDS
; Function compile flags: /Odtp /ZI
; File c:\users\nhv90\projects\eech\aphavoc\source\gunships\views\vm_vckpt.c
;	COMDAT ?get_position_nose_relative_position@@YGXPAUVEC3D@@0@Z
_TEXT	SEGMENT
_attitude$ = -16					; size = 4
_relative_position$ = -12				; size = 12
_position$ = 8						; size = 4
_r$ = 12						; size = 4
?get_position_nose_relative_position@@YGXPAUVEC3D@@0@Z PROC ; get_position_nose_relative_position, COMDAT

; 4464 : {

  00000	55		 push	 ebp
  00001	8b ec		 mov	 ebp, esp
  00003	83 ec 50	 sub	 esp, 80			; 00000050H
  00006	53		 push	 ebx
  00007	56		 push	 esi
  00008	57		 push	 edi

; 4465 : 	vec3d
; 4466 : 		relative_position;
; 4467 : 	matrix3x3*
; 4468 : 		attitude;
; 4469 : 
; 4470 : 	ASSERT(current_flight_dynamics);

  00009	83 3d 00 00 00
	00 00		 cmp	 DWORD PTR ?current_flight_dynamics@@3PAUDYNAMICS_TYPE@@A, 0 ; current_flight_dynamics
  00010	75 18		 jne	 SHORT $LN2@get_positi
  00012	a1 00 00 00 00	 mov	 eax, DWORD PTR ?__LINE__Var@?0??get_position_nose_relative_position@@YGXPAUVEC3D@@0@Z@4JA
  00017	83 c0 06	 add	 eax, 6
  0001a	50		 push	 eax
  0001b	68 00 00 00 00	 push	 OFFSET ??_C@_0EG@KKKJIDAO@c?3?2users?2nhv90?2projects?2eech?2ap@
  00020	68 00 00 00 00	 push	 OFFSET ??_C@_0BI@CKBJIOHI@current_flight_dynamics@
  00025	e8 00 00 00 00	 call	 ?process_assert@@YGXPBD0H@Z ; process_assert
$LN2@get_positi:

; 4471 : 
; 4472 : 	relative_position.x = position->x - current_flight_dynamics->position.x;

  0002a	8b 45 08	 mov	 eax, DWORD PTR _position$[ebp]
  0002d	f3 0f 5a 00	 cvtss2sd xmm0, DWORD PTR [eax]
  00031	8b 0d 00 00 00
	00		 mov	 ecx, DWORD PTR ?current_flight_dynamics@@3PAUDYNAMICS_TYPE@@A ; current_flight_dynamics
  00037	f2 0f 5c 81 ac
	00 00 00	 subsd	 xmm0, QWORD PTR [ecx+172]
  0003f	f2 0f 5a c0	 cvtsd2ss xmm0, xmm0
  00043	f3 0f 11 45 f4	 movss	 DWORD PTR _relative_position$[ebp], xmm0

; 4473 : 	relative_position.y = position->y - current_flight_dynamics->position.y;

  00048	8b 45 08	 mov	 eax, DWORD PTR _position$[ebp]
  0004b	f3 0f 5a 40 04	 cvtss2sd xmm0, DWORD PTR [eax+4]
  00050	8b 0d 00 00 00
	00		 mov	 ecx, DWORD PTR ?current_flight_dynamics@@3PAUDYNAMICS_TYPE@@A ; current_flight_dynamics
  00056	f2 0f 5c 81 b4
	00 00 00	 subsd	 xmm0, QWORD PTR [ecx+180]
  0005e	f2 0f 5a c0	 cvtsd2ss xmm0, xmm0
  00062	f3 0f 11 45 f8	 movss	 DWORD PTR _relative_position$[ebp+4], xmm0

; 4474 : 	relative_position.z = position->z - current_flight_dynamics->position.z;

  00067	8b 45 08	 mov	 eax, DWORD PTR _position$[ebp]
  0006a	f3 0f 5a 40 08	 cvtss2sd xmm0, DWORD PTR [eax+8]
  0006f	8b 0d 00 00 00
	00		 mov	 ecx, DWORD PTR ?current_flight_dynamics@@3PAUDYNAMICS_TYPE@@A ; current_flight_dynamics
  00075	f2 0f 5c 81 bc
	00 00 00	 subsd	 xmm0, QWORD PTR [ecx+188]
  0007d	f2 0f 5a c0	 cvtsd2ss xmm0, xmm0
  00081	f3 0f 11 45 fc	 movss	 DWORD PTR _relative_position$[ebp+8], xmm0

; 4475 : 
; 4476 : 	attitude = &current_flight_dynamics->attitude;

  00086	a1 00 00 00 00	 mov	 eax, DWORD PTR ?current_flight_dynamics@@3PAUDYNAMICS_TYPE@@A ; current_flight_dynamics
  0008b	05 d0 00 00 00	 add	 eax, 208		; 000000d0H
  00090	89 45 f0	 mov	 DWORD PTR _attitude$[ebp], eax

; 4477 : //	xv = &attitude[0][0];
; 4478 : 
; 4479 : 	r->x = ( relative_position.x * (*attitude)[0][0] + relative_position.y * (*attitude)[0][1] + relative_position.z * (*attitude)[0][2] );

  00093	b8 0c 00 00 00	 mov	 eax, 12			; 0000000cH
  00098	6b c8 00	 imul	 ecx, eax, 0
  0009b	03 4d f0	 add	 ecx, DWORD PTR _attitude$[ebp]
  0009e	ba 04 00 00 00	 mov	 edx, 4
  000a3	6b c2 00	 imul	 eax, edx, 0
  000a6	f3 0f 10 45 f4	 movss	 xmm0, DWORD PTR _relative_position$[ebp]
  000ab	f3 0f 59 04 01	 mulss	 xmm0, DWORD PTR [ecx+eax]
  000b0	b9 0c 00 00 00	 mov	 ecx, 12			; 0000000cH
  000b5	6b d1 00	 imul	 edx, ecx, 0
  000b8	03 55 f0	 add	 edx, DWORD PTR _attitude$[ebp]
  000bb	b8 04 00 00 00	 mov	 eax, 4
  000c0	c1 e0 00	 shl	 eax, 0
  000c3	f3 0f 10 4d f8	 movss	 xmm1, DWORD PTR _relative_position$[ebp+4]
  000c8	f3 0f 59 0c 02	 mulss	 xmm1, DWORD PTR [edx+eax]
  000cd	f3 0f 58 c1	 addss	 xmm0, xmm1
  000d1	b9 0c 00 00 00	 mov	 ecx, 12			; 0000000cH
  000d6	6b d1 00	 imul	 edx, ecx, 0
  000d9	03 55 f0	 add	 edx, DWORD PTR _attitude$[ebp]
  000dc	b8 04 00 00 00	 mov	 eax, 4
  000e1	d1 e0		 shl	 eax, 1
  000e3	f3 0f 10 4d fc	 movss	 xmm1, DWORD PTR _relative_position$[ebp+8]
  000e8	f3 0f 59 0c 02	 mulss	 xmm1, DWORD PTR [edx+eax]
  000ed	f3 0f 58 c1	 addss	 xmm0, xmm1
  000f1	8b 4d 0c	 mov	 ecx, DWORD PTR _r$[ebp]
  000f4	f3 0f 11 01	 movss	 DWORD PTR [ecx], xmm0

; 4480 : 	r->y = ( relative_position.x * (*attitude)[1][0] + relative_position.y * (*attitude)[1][1] + relative_position.z * (*attitude)[1][2] );

  000f8	b8 0c 00 00 00	 mov	 eax, 12			; 0000000cH
  000fd	c1 e0 00	 shl	 eax, 0
  00100	03 45 f0	 add	 eax, DWORD PTR _attitude$[ebp]
  00103	b9 04 00 00 00	 mov	 ecx, 4
  00108	6b d1 00	 imul	 edx, ecx, 0
  0010b	f3 0f 10 45 f4	 movss	 xmm0, DWORD PTR _relative_position$[ebp]
  00110	f3 0f 59 04 10	 mulss	 xmm0, DWORD PTR [eax+edx]
  00115	b8 0c 00 00 00	 mov	 eax, 12			; 0000000cH
  0011a	c1 e0 00	 shl	 eax, 0
  0011d	03 45 f0	 add	 eax, DWORD PTR _attitude$[ebp]
  00120	b9 04 00 00 00	 mov	 ecx, 4
  00125	c1 e1 00	 shl	 ecx, 0
  00128	f3 0f 10 4d f8	 movss	 xmm1, DWORD PTR _relative_position$[ebp+4]
  0012d	f3 0f 59 0c 08	 mulss	 xmm1, DWORD PTR [eax+ecx]
  00132	f3 0f 58 c1	 addss	 xmm0, xmm1
  00136	ba 0c 00 00 00	 mov	 edx, 12			; 0000000cH
  0013b	c1 e2 00	 shl	 edx, 0
  0013e	03 55 f0	 add	 edx, DWORD PTR _attitude$[ebp]
  00141	b8 04 00 00 00	 mov	 eax, 4
  00146	d1 e0		 shl	 eax, 1
  00148	f3 0f 10 4d fc	 movss	 xmm1, DWORD PTR _relative_position$[ebp+8]
  0014d	f3 0f 59 0c 02	 mulss	 xmm1, DWORD PTR [edx+eax]
  00152	f3 0f 58 c1	 addss	 xmm0, xmm1
  00156	8b 4d 0c	 mov	 ecx, DWORD PTR _r$[ebp]
  00159	f3 0f 11 41 04	 movss	 DWORD PTR [ecx+4], xmm0

; 4481 : 	r->z = ( relative_position.x * (*attitude)[2][0] + relative_position.y * (*attitude)[2][1] + relative_position.z * (*attitude)[2][2] );

  0015e	b8 0c 00 00 00	 mov	 eax, 12			; 0000000cH
  00163	d1 e0		 shl	 eax, 1
  00165	03 45 f0	 add	 eax, DWORD PTR _attitude$[ebp]
  00168	b9 04 00 00 00	 mov	 ecx, 4
  0016d	6b d1 00	 imul	 edx, ecx, 0
  00170	f3 0f 10 45 f4	 movss	 xmm0, DWORD PTR _relative_position$[ebp]
  00175	f3 0f 59 04 10	 mulss	 xmm0, DWORD PTR [eax+edx]
  0017a	b8 0c 00 00 00	 mov	 eax, 12			; 0000000cH
  0017f	d1 e0		 shl	 eax, 1
  00181	03 45 f0	 add	 eax, DWORD PTR _attitude$[ebp]
  00184	b9 04 00 00 00	 mov	 ecx, 4
  00189	c1 e1 00	 shl	 ecx, 0
  0018c	f3 0f 10 4d f8	 movss	 xmm1, DWORD PTR _relative_position$[ebp+4]
  00191	f3 0f 59 0c 08	 mulss	 xmm1, DWORD PTR [eax+ecx]
  00196	f3 0f 58 c1	 addss	 xmm0, xmm1
  0019a	ba 0c 00 00 00	 mov	 edx, 12			; 0000000cH
  0019f	d1 e2		 shl	 edx, 1
  001a1	03 55 f0	 add	 edx, DWORD PTR _attitude$[ebp]
  001a4	b8 04 00 00 00	 mov	 eax, 4
  001a9	d1 e0		 shl	 eax, 1
  001ab	f3 0f 10 4d fc	 movss	 xmm1, DWORD PTR _relative_position$[ebp+8]
  001b0	f3 0f 59 0c 02	 mulss	 xmm1, DWORD PTR [edx+eax]
  001b5	f3 0f 58 c1	 addss	 xmm0, xmm1
  001b9	8b 4d 0c	 mov	 ecx, DWORD PTR _r$[ebp]
  001bc	f3 0f 11 41 08	 movss	 DWORD PTR [ecx+8], xmm0

; 4482 : }

  001c1	5f		 pop	 edi
  001c2	5e		 pop	 esi
  001c3	5b		 pop	 ebx
  001c4	8b e5		 mov	 esp, ebp
  001c6	5d		 pop	 ebp
  001c7	c2 08 00	 ret	 8
?get_position_nose_relative_position@@YGXPAUVEC3D@@0@Z ENDP ; get_position_nose_relative_position
_TEXT	ENDS
; Function compile flags: /Odtp /ZI
; File c:\users\nhv90\projects\eech\aphavoc\source\gunships\views\vm_vckpt.c
;	COMDAT ?update_virtual_cockpit_padlock_view@@YGXXZ
_TEXT	SEGMENT
tv169 = -100						; size = 4
tv159 = -100						; size = 4
tv146 = -100						; size = 4
tv138 = -100						; size = 4
tv85 = -100						; size = 4
tv170 = -96						; size = 4
tv160 = -96						; size = 4
tv147 = -96						; size = 4
tv139 = -96						; size = 4
tv77 = -96						; size = 4
tv69 = -96						; size = 4
_target$ = -28						; size = 4
_source$ = -24						; size = 4
_frame_rotate_rate$ = -20				; size = 4
_delta_pitch$ = -16					; size = 4
_delta_heading$ = -12					; size = 4
_old_pitch$ = -8					; size = 4
_old_heading$ = -4					; size = 4
?update_virtual_cockpit_padlock_view@@YGXXZ PROC	; update_virtual_cockpit_padlock_view, COMDAT

; 4353 : {

  00000	55		 push	 ebp
  00001	8b ec		 mov	 ebp, esp
  00003	83 ec 64	 sub	 esp, 100		; 00000064H
  00006	53		 push	 ebx
  00007	56		 push	 esi
  00008	57		 push	 edi

; 4354 : 	float
; 4355 : 		old_heading,
; 4356 : 		old_pitch,
; 4357 : 		delta_heading,
; 4358 : 		delta_pitch,
; 4359 : 		frame_rotate_rate;
; 4360 : 
; 4361 : 	entity
; 4362 : 		*source,
; 4363 : 		*target;
; 4364 : 
; 4365 : 	source = get_gunship_entity ();

  00009	a1 00 00 00 00	 mov	 eax, DWORD PTR ?gunship_entity@@3PAUENTITY@@A ; gunship_entity
  0000e	89 45 e8	 mov	 DWORD PTR _source$[ebp], eax

; 4366 : 
; 4367 : 	ASSERT (source);

  00011	83 7d e8 00	 cmp	 DWORD PTR _source$[ebp], 0
  00015	75 18		 jne	 SHORT $LN4@update_vir
  00017	a1 00 00 00 00	 mov	 eax, DWORD PTR ?__LINE__Var@?0??update_virtual_cockpit_padlock_view@@YGXXZ@4JA
  0001c	83 c0 0e	 add	 eax, 14			; 0000000eH
  0001f	50		 push	 eax
  00020	68 00 00 00 00	 push	 OFFSET ??_C@_0EG@KKKJIDAO@c?3?2users?2nhv90?2projects?2eech?2ap@
  00025	68 00 00 00 00	 push	 OFFSET ??_C@_06OEKOLKIL@source@
  0002a	e8 00 00 00 00	 call	 ?process_assert@@YGXPBD0H@Z ; process_assert
$LN4@update_vir:

; 4368 : 
; 4369 : 	switch (padlock_mode)

  0002f	a1 00 00 00 00	 mov	 eax, DWORD PTR ?padlock_mode@@3W4PADLOCK_MODES@@A
  00034	89 45 a0	 mov	 DWORD PTR tv69[ebp], eax
  00037	83 7d a0 05	 cmp	 DWORD PTR tv69[ebp], 5
  0003b	0f 87 ac 00 00
	00		 ja	 $LN8@update_vir
  00041	8b 4d a0	 mov	 ecx, DWORD PTR tv69[ebp]
  00044	ff 24 8d 00 00
	00 00		 jmp	 DWORD PTR $LN33@update_vir[ecx*4]
$LN5@update_vir:

; 4370 : 	{
; 4371 : 		////////////////////////////////////////
; 4372 : 		case PADLOCK_MODE_NONE:
; 4373 : 		////////////////////////////////////////
; 4374 : 		{
; 4375 : 			debug_fatal ("Invalid padlock mode = PADLOCK_MODE_NONE");

  0004b	68 00 00 00 00	 push	 OFFSET ??_C@_0CJ@POFEAPGC@Invalid?5padlock?5mode?5?$DN?5PADLOCK_@
  00050	e8 00 00 00 00	 call	 ?debug_fatal@@YAXPBDZZ	; debug_fatal
  00055	83 c4 04	 add	 esp, 4

; 4376 : 
; 4377 : 			break;

  00058	e9 a3 00 00 00	 jmp	 $LN2@update_vir
$LN6@update_vir:

; 4378 : 		}
; 4379 : 		////////////////////////////////////////
; 4380 : 		case PADLOCK_MODE_WINGMAN:
; 4381 : 		case PADLOCK_MODE_AIR_THREAT:
; 4382 : 		case PADLOCK_MODE_GROUND_THREAT:
; 4383 : 		case PADLOCK_MODE_MISSILE_THREAT:
; 4384 : 		////////////////////////////////////////
; 4385 : 		{
; 4386 : 			target = get_local_entity_first_child (source, LIST_TYPE_PADLOCK);

  0005d	83 7d e8 00	 cmp	 DWORD PTR _source$[ebp], 0
  00061	74 0a		 je	 SHORT $LN13@update_vir
  00063	8b 45 e8	 mov	 eax, DWORD PTR _source$[ebp]
  00066	8b 08		 mov	 ecx, DWORD PTR [eax]
  00068	89 4d a0	 mov	 DWORD PTR tv77[ebp], ecx
  0006b	eb 21		 jmp	 SHORT $LN14@update_vir
$LN13@update_vir:
  0006d	8b 15 00 00 00
	00		 mov	 edx, DWORD PTR ?__LINE__Var@?0??update_virtual_cockpit_padlock_view@@YGXXZ@4JA
  00073	83 c2 21	 add	 edx, 33			; 00000021H
  00076	52		 push	 edx
  00077	68 00 00 00 00	 push	 OFFSET ??_C@_0EG@KKKJIDAO@c?3?2users?2nhv90?2projects?2eech?2ap@
  0007c	a1 00 00 00 00	 mov	 eax, DWORD PTR ?null_entity_pointer_message@@3PBDB ; null_entity_pointer_message
  00081	50		 push	 eax
  00082	e8 00 00 00 00	 call	 ?process_assert@@YGXPBD0H@Z ; process_assert
  00087	c7 45 a0 00 00
	00 00		 mov	 DWORD PTR tv77[ebp], 0
$LN14@update_vir:
  0008e	b9 01 00 00 00	 mov	 ecx, 1
  00093	85 c9		 test	 ecx, ecx
  00095	74 09		 je	 SHORT $LN15@update_vir
  00097	c7 45 9c 1b 00
	00 00		 mov	 DWORD PTR tv85[ebp], 27	; 0000001bH
  0009e	eb 21		 jmp	 SHORT $LN16@update_vir
$LN15@update_vir:
  000a0	8b 15 00 00 00
	00		 mov	 edx, DWORD PTR ?__LINE__Var@?0??update_virtual_cockpit_padlock_view@@YGXXZ@4JA
  000a6	83 c2 21	 add	 edx, 33			; 00000021H
  000a9	52		 push	 edx
  000aa	68 00 00 00 00	 push	 OFFSET ??_C@_0EG@KKKJIDAO@c?3?2users?2nhv90?2projects?2eech?2ap@
  000af	a1 00 00 00 00	 mov	 eax, DWORD PTR ?overload_invalid_list_type_message@@3PBDB ; overload_invalid_list_type_message
  000b4	50		 push	 eax
  000b5	e8 00 00 00 00	 call	 ?process_assert@@YGXPBD0H@Z ; process_assert
  000ba	c7 45 9c 00 00
	00 00		 mov	 DWORD PTR tv85[ebp], 0
$LN16@update_vir:
  000c1	6a 1b		 push	 27			; 0000001bH
  000c3	8b 4d e8	 mov	 ecx, DWORD PTR _source$[ebp]
  000c6	51		 push	 ecx
  000c7	69 55 a0 b4 00
	00 00		 imul	 edx, DWORD PTR tv77[ebp], 180
  000ce	8b 45 9c	 mov	 eax, DWORD PTR tv85[ebp]
  000d1	8b 8c 82 00 00
	00 00		 mov	 ecx, DWORD PTR ?fn_get_local_entity_first_child@@3PAY0CN@P6GPAUENTITY@@PAU1@W4LIST_TYPES@@@ZA[edx+eax*4]
  000d8	ff d1		 call	 ecx
  000da	89 45 e4	 mov	 DWORD PTR _target$[ebp], eax

; 4387 : 
; 4388 : 			break;

  000dd	eb 21		 jmp	 SHORT $LN2@update_vir
$LN7@update_vir:

; 4389 : 		}
; 4390 : 		////////////////////////////////////////
; 4391 : 		case PADLOCK_MODE_WAYPOINT:
; 4392 : 		////////////////////////////////////////
; 4393 : 		{
; 4394 : 			target = get_local_entity_current_waypoint (source);

  000df	8b 45 e8	 mov	 eax, DWORD PTR _source$[ebp]
  000e2	50		 push	 eax
  000e3	e8 00 00 00 00	 call	 ?get_local_entity_current_waypoint@@YGPAUENTITY@@PAU1@@Z ; get_local_entity_current_waypoint
  000e8	89 45 e4	 mov	 DWORD PTR _target$[ebp], eax

; 4395 : 
; 4396 : 			break;

  000eb	eb 13		 jmp	 SHORT $LN2@update_vir
$LN8@update_vir:

; 4397 : 		}
; 4398 : 		////////////////////////////////////////
; 4399 : 		default:
; 4400 : 		////////////////////////////////////////
; 4401 : 		{
; 4402 : 			debug_fatal ("Invalid padlock mode = %d", padlock_mode);

  000ed	a1 00 00 00 00	 mov	 eax, DWORD PTR ?padlock_mode@@3W4PADLOCK_MODES@@A
  000f2	50		 push	 eax
  000f3	68 00 00 00 00	 push	 OFFSET ??_C@_0BK@FCBJMFAH@Invalid?5padlock?5mode?5?$DN?5?$CFd@
  000f8	e8 00 00 00 00	 call	 ?debug_fatal@@YAXPBDZZ	; debug_fatal
  000fd	83 c4 08	 add	 esp, 8
$LN2@update_vir:

; 4403 : 
; 4404 : 			break;
; 4405 : 		}
; 4406 : 	}
; 4407 : 
; 4408 : 	if (target)

  00100	83 7d e4 00	 cmp	 DWORD PTR _target$[ebp], 0
  00104	0f 84 3d 01 00
	00		 je	 $LN9@update_vir

; 4409 : 	{
; 4410 : 		old_heading = pilot_head_heading;

  0010a	f3 0f 10 05 00
	00 00 00	 movss	 xmm0, DWORD PTR ?pilot_head_heading@@3MA
  00112	f3 0f 11 45 fc	 movss	 DWORD PTR _old_heading$[ebp], xmm0

; 4411 : 
; 4412 : 		old_pitch = pilot_head_pitch;

  00117	f3 0f 10 05 00
	00 00 00	 movss	 xmm0, DWORD PTR ?pilot_head_pitch@@3MA
  0011f	f3 0f 11 45 f8	 movss	 DWORD PTR _old_pitch$[ebp], xmm0

; 4413 : 
; 4414 : 		get_pilot_head_heading_and_pitch_to_target (target);

  00124	8b 45 e4	 mov	 eax, DWORD PTR _target$[ebp]
  00127	50		 push	 eax
  00128	e8 00 00 00 00	 call	 ?get_pilot_head_heading_and_pitch_to_target@@YGXPAUENTITY@@@Z ; get_pilot_head_heading_and_pitch_to_target

; 4415 : 
; 4416 : 		frame_rotate_rate = rad (45.0) * get_delta_time ();

  0012d	f3 0f 5a 05 00
	00 00 00	 cvtss2sd xmm0, DWORD PTR ?system_delta_time@@3MA
  00135	f2 0f 59 05 00
	00 00 00	 mulsd	 xmm0, QWORD PTR __real@3fe921fb51000000
  0013d	f2 0f 5a c0	 cvtsd2ss xmm0, xmm0
  00141	f3 0f 11 45 ec	 movss	 DWORD PTR _frame_rotate_rate$[ebp], xmm0

; 4417 : 
; 4418 : 		delta_heading = pilot_head_heading - old_heading;

  00146	f3 0f 10 05 00
	00 00 00	 movss	 xmm0, DWORD PTR ?pilot_head_heading@@3MA
  0014e	f3 0f 5c 45 fc	 subss	 xmm0, DWORD PTR _old_heading$[ebp]
  00153	f3 0f 11 45 f4	 movss	 DWORD PTR _delta_heading$[ebp], xmm0

; 4419 : 
; 4420 : 		delta_heading = bound (delta_heading, -frame_rotate_rate, frame_rotate_rate);

  00158	f3 0f 10 45 ec	 movss	 xmm0, DWORD PTR _frame_rotate_rate$[ebp]
  0015d	0f 57 05 00 00
	00 00		 xorps	 xmm0, DWORD PTR __xmm@80000000800000008000000080000000
  00164	0f 2f 45 f4	 comiss	 xmm0, DWORD PTR _delta_heading$[ebp]
  00168	76 13		 jbe	 SHORT $LN19@update_vir
  0016a	f3 0f 10 45 ec	 movss	 xmm0, DWORD PTR _frame_rotate_rate$[ebp]
  0016f	0f 57 05 00 00
	00 00		 xorps	 xmm0, DWORD PTR __xmm@80000000800000008000000080000000
  00176	f3 0f 11 45 a0	 movss	 DWORD PTR tv139[ebp], xmm0
  0017b	eb 2b		 jmp	 SHORT $LN20@update_vir
$LN19@update_vir:
  0017d	f3 0f 10 45 f4	 movss	 xmm0, DWORD PTR _delta_heading$[ebp]
  00182	0f 2f 45 ec	 comiss	 xmm0, DWORD PTR _frame_rotate_rate$[ebp]
  00186	76 0c		 jbe	 SHORT $LN17@update_vir
  00188	f3 0f 10 45 ec	 movss	 xmm0, DWORD PTR _frame_rotate_rate$[ebp]
  0018d	f3 0f 11 45 9c	 movss	 DWORD PTR tv138[ebp], xmm0
  00192	eb 0a		 jmp	 SHORT $LN18@update_vir
$LN17@update_vir:
  00194	f3 0f 10 45 f4	 movss	 xmm0, DWORD PTR _delta_heading$[ebp]
  00199	f3 0f 11 45 9c	 movss	 DWORD PTR tv138[ebp], xmm0
$LN18@update_vir:
  0019e	f3 0f 10 45 9c	 movss	 xmm0, DWORD PTR tv138[ebp]
  001a3	f3 0f 11 45 a0	 movss	 DWORD PTR tv139[ebp], xmm0
$LN20@update_vir:
  001a8	f3 0f 10 45 a0	 movss	 xmm0, DWORD PTR tv139[ebp]
  001ad	f3 0f 11 45 f4	 movss	 DWORD PTR _delta_heading$[ebp], xmm0

; 4421 : 
; 4422 : 		pilot_head_heading = old_heading + delta_heading;

  001b2	f3 0f 10 45 fc	 movss	 xmm0, DWORD PTR _old_heading$[ebp]
  001b7	f3 0f 58 45 f4	 addss	 xmm0, DWORD PTR _delta_heading$[ebp]
  001bc	f3 0f 11 05 00
	00 00 00	 movss	 DWORD PTR ?pilot_head_heading@@3MA, xmm0

; 4423 : 
; 4424 : 		delta_pitch = pilot_head_pitch - old_pitch;

  001c4	f3 0f 10 05 00
	00 00 00	 movss	 xmm0, DWORD PTR ?pilot_head_pitch@@3MA
  001cc	f3 0f 5c 45 f8	 subss	 xmm0, DWORD PTR _old_pitch$[ebp]
  001d1	f3 0f 11 45 f0	 movss	 DWORD PTR _delta_pitch$[ebp], xmm0

; 4425 : 
; 4426 : 		delta_pitch = bound (delta_pitch, -frame_rotate_rate, frame_rotate_rate);

  001d6	f3 0f 10 45 ec	 movss	 xmm0, DWORD PTR _frame_rotate_rate$[ebp]
  001db	0f 57 05 00 00
	00 00		 xorps	 xmm0, DWORD PTR __xmm@80000000800000008000000080000000
  001e2	0f 2f 45 f0	 comiss	 xmm0, DWORD PTR _delta_pitch$[ebp]
  001e6	76 13		 jbe	 SHORT $LN23@update_vir
  001e8	f3 0f 10 45 ec	 movss	 xmm0, DWORD PTR _frame_rotate_rate$[ebp]
  001ed	0f 57 05 00 00
	00 00		 xorps	 xmm0, DWORD PTR __xmm@80000000800000008000000080000000
  001f4	f3 0f 11 45 a0	 movss	 DWORD PTR tv147[ebp], xmm0
  001f9	eb 2b		 jmp	 SHORT $LN24@update_vir
$LN23@update_vir:
  001fb	f3 0f 10 45 f0	 movss	 xmm0, DWORD PTR _delta_pitch$[ebp]
  00200	0f 2f 45 ec	 comiss	 xmm0, DWORD PTR _frame_rotate_rate$[ebp]
  00204	76 0c		 jbe	 SHORT $LN21@update_vir
  00206	f3 0f 10 45 ec	 movss	 xmm0, DWORD PTR _frame_rotate_rate$[ebp]
  0020b	f3 0f 11 45 9c	 movss	 DWORD PTR tv146[ebp], xmm0
  00210	eb 0a		 jmp	 SHORT $LN22@update_vir
$LN21@update_vir:
  00212	f3 0f 10 45 f0	 movss	 xmm0, DWORD PTR _delta_pitch$[ebp]
  00217	f3 0f 11 45 9c	 movss	 DWORD PTR tv146[ebp], xmm0
$LN22@update_vir:
  0021c	f3 0f 10 45 9c	 movss	 xmm0, DWORD PTR tv146[ebp]
  00221	f3 0f 11 45 a0	 movss	 DWORD PTR tv147[ebp], xmm0
$LN24@update_vir:
  00226	f3 0f 10 45 a0	 movss	 xmm0, DWORD PTR tv147[ebp]
  0022b	f3 0f 11 45 f0	 movss	 DWORD PTR _delta_pitch$[ebp], xmm0

; 4427 : 
; 4428 : 		pilot_head_pitch = old_pitch + delta_pitch;

  00230	f3 0f 10 45 f8	 movss	 xmm0, DWORD PTR _old_pitch$[ebp]
  00235	f3 0f 58 45 f0	 addss	 xmm0, DWORD PTR _delta_pitch$[ebp]
  0023a	f3 0f 11 05 00
	00 00 00	 movss	 DWORD PTR ?pilot_head_pitch@@3MA, xmm0

; 4429 : 	}
; 4430 : 	else

  00242	e9 92 01 00 00	 jmp	 $LN11@update_vir
$LN9@update_vir:

; 4431 : 	{
; 4432 : 		frame_rotate_rate = rad (45.0) * get_delta_time ();

  00247	f3 0f 5a 05 00
	00 00 00	 cvtss2sd xmm0, DWORD PTR ?system_delta_time@@3MA
  0024f	f2 0f 59 05 00
	00 00 00	 mulsd	 xmm0, QWORD PTR __real@3fe921fb51000000
  00257	f2 0f 5a c0	 cvtsd2ss xmm0, xmm0
  0025b	f3 0f 11 45 ec	 movss	 DWORD PTR _frame_rotate_rate$[ebp], xmm0

; 4433 : 
; 4434 : 		delta_heading = bound (-pilot_head_heading, -frame_rotate_rate, frame_rotate_rate);

  00260	f3 0f 10 05 00
	00 00 00	 movss	 xmm0, DWORD PTR ?pilot_head_heading@@3MA
  00268	0f 57 05 00 00
	00 00		 xorps	 xmm0, DWORD PTR __xmm@80000000800000008000000080000000
  0026f	f3 0f 10 4d ec	 movss	 xmm1, DWORD PTR _frame_rotate_rate$[ebp]
  00274	0f 57 0d 00 00
	00 00		 xorps	 xmm1, DWORD PTR __xmm@80000000800000008000000080000000
  0027b	0f 2f c8	 comiss	 xmm1, xmm0
  0027e	76 13		 jbe	 SHORT $LN27@update_vir
  00280	f3 0f 10 45 ec	 movss	 xmm0, DWORD PTR _frame_rotate_rate$[ebp]
  00285	0f 57 05 00 00
	00 00		 xorps	 xmm0, DWORD PTR __xmm@80000000800000008000000080000000
  0028c	f3 0f 11 45 a0	 movss	 DWORD PTR tv160[ebp], xmm0
  00291	eb 3f		 jmp	 SHORT $LN28@update_vir
$LN27@update_vir:
  00293	f3 0f 10 05 00
	00 00 00	 movss	 xmm0, DWORD PTR ?pilot_head_heading@@3MA
  0029b	0f 57 05 00 00
	00 00		 xorps	 xmm0, DWORD PTR __xmm@80000000800000008000000080000000
  002a2	0f 2f 45 ec	 comiss	 xmm0, DWORD PTR _frame_rotate_rate$[ebp]
  002a6	76 0c		 jbe	 SHORT $LN25@update_vir
  002a8	f3 0f 10 45 ec	 movss	 xmm0, DWORD PTR _frame_rotate_rate$[ebp]
  002ad	f3 0f 11 45 9c	 movss	 DWORD PTR tv159[ebp], xmm0
  002b2	eb 14		 jmp	 SHORT $LN26@update_vir
$LN25@update_vir:
  002b4	f3 0f 10 05 00
	00 00 00	 movss	 xmm0, DWORD PTR ?pilot_head_heading@@3MA
  002bc	0f 57 05 00 00
	00 00		 xorps	 xmm0, DWORD PTR __xmm@80000000800000008000000080000000
  002c3	f3 0f 11 45 9c	 movss	 DWORD PTR tv159[ebp], xmm0
$LN26@update_vir:
  002c8	f3 0f 10 45 9c	 movss	 xmm0, DWORD PTR tv159[ebp]
  002cd	f3 0f 11 45 a0	 movss	 DWORD PTR tv160[ebp], xmm0
$LN28@update_vir:
  002d2	f3 0f 10 45 a0	 movss	 xmm0, DWORD PTR tv160[ebp]
  002d7	f3 0f 11 45 f4	 movss	 DWORD PTR _delta_heading$[ebp], xmm0

; 4435 : 
; 4436 : 		pilot_head_heading += delta_heading;

  002dc	f3 0f 10 05 00
	00 00 00	 movss	 xmm0, DWORD PTR ?pilot_head_heading@@3MA
  002e4	f3 0f 58 45 f4	 addss	 xmm0, DWORD PTR _delta_heading$[ebp]
  002e9	f3 0f 11 05 00
	00 00 00	 movss	 DWORD PTR ?pilot_head_heading@@3MA, xmm0

; 4437 : 
; 4438 : 		delta_pitch = bound (-pilot_head_pitch, -frame_rotate_rate, frame_rotate_rate);

  002f1	f3 0f 10 05 00
	00 00 00	 movss	 xmm0, DWORD PTR ?pilot_head_pitch@@3MA
  002f9	0f 57 05 00 00
	00 00		 xorps	 xmm0, DWORD PTR __xmm@80000000800000008000000080000000
  00300	f3 0f 10 4d ec	 movss	 xmm1, DWORD PTR _frame_rotate_rate$[ebp]
  00305	0f 57 0d 00 00
	00 00		 xorps	 xmm1, DWORD PTR __xmm@80000000800000008000000080000000
  0030c	0f 2f c8	 comiss	 xmm1, xmm0
  0030f	76 13		 jbe	 SHORT $LN31@update_vir
  00311	f3 0f 10 45 ec	 movss	 xmm0, DWORD PTR _frame_rotate_rate$[ebp]
  00316	0f 57 05 00 00
	00 00		 xorps	 xmm0, DWORD PTR __xmm@80000000800000008000000080000000
  0031d	f3 0f 11 45 a0	 movss	 DWORD PTR tv170[ebp], xmm0
  00322	eb 3f		 jmp	 SHORT $LN32@update_vir
$LN31@update_vir:
  00324	f3 0f 10 05 00
	00 00 00	 movss	 xmm0, DWORD PTR ?pilot_head_pitch@@3MA
  0032c	0f 57 05 00 00
	00 00		 xorps	 xmm0, DWORD PTR __xmm@80000000800000008000000080000000
  00333	0f 2f 45 ec	 comiss	 xmm0, DWORD PTR _frame_rotate_rate$[ebp]
  00337	76 0c		 jbe	 SHORT $LN29@update_vir
  00339	f3 0f 10 45 ec	 movss	 xmm0, DWORD PTR _frame_rotate_rate$[ebp]
  0033e	f3 0f 11 45 9c	 movss	 DWORD PTR tv169[ebp], xmm0
  00343	eb 14		 jmp	 SHORT $LN30@update_vir
$LN29@update_vir:
  00345	f3 0f 10 05 00
	00 00 00	 movss	 xmm0, DWORD PTR ?pilot_head_pitch@@3MA
  0034d	0f 57 05 00 00
	00 00		 xorps	 xmm0, DWORD PTR __xmm@80000000800000008000000080000000
  00354	f3 0f 11 45 9c	 movss	 DWORD PTR tv169[ebp], xmm0
$LN30@update_vir:
  00359	f3 0f 10 45 9c	 movss	 xmm0, DWORD PTR tv169[ebp]
  0035e	f3 0f 11 45 a0	 movss	 DWORD PTR tv170[ebp], xmm0
$LN32@update_vir:
  00363	f3 0f 10 45 a0	 movss	 xmm0, DWORD PTR tv170[ebp]
  00368	f3 0f 11 45 f0	 movss	 DWORD PTR _delta_pitch$[ebp], xmm0

; 4439 : 
; 4440 : 		pilot_head_pitch += delta_pitch;

  0036d	f3 0f 10 05 00
	00 00 00	 movss	 xmm0, DWORD PTR ?pilot_head_pitch@@3MA
  00375	f3 0f 58 45 f0	 addss	 xmm0, DWORD PTR _delta_pitch$[ebp]
  0037a	f3 0f 11 05 00
	00 00 00	 movss	 DWORD PTR ?pilot_head_pitch@@3MA, xmm0

; 4441 : 
; 4442 : 		if
; 4443 : 		(
; 4444 : 			(pilot_head_heading >= rad (-1.0)) &&
; 4445 : 			(pilot_head_heading <= rad (1.0)) &&
; 4446 : 			(pilot_head_pitch >= rad (-1.0)) &&

  00382	f3 0f 5a 05 00
	00 00 00	 cvtss2sd xmm0, DWORD PTR ?pilot_head_heading@@3MA
  0038a	66 0f 2f 05 00
	00 00 00	 comisd	 xmm0, QWORD PTR __real@bf91df46a0000000
  00392	72 45		 jb	 SHORT $LN11@update_vir
  00394	f3 0f 5a 05 00
	00 00 00	 cvtss2sd xmm0, DWORD PTR ?pilot_head_heading@@3MA
  0039c	f2 0f 10 0d 00
	00 00 00	 movsd	 xmm1, QWORD PTR __real@3f91df46a0000000
  003a4	66 0f 2f c8	 comisd	 xmm1, xmm0
  003a8	72 2f		 jb	 SHORT $LN11@update_vir
  003aa	f3 0f 5a 05 00
	00 00 00	 cvtss2sd xmm0, DWORD PTR ?pilot_head_pitch@@3MA
  003b2	66 0f 2f 05 00
	00 00 00	 comisd	 xmm0, QWORD PTR __real@bf91df46a0000000
  003ba	72 1d		 jb	 SHORT $LN11@update_vir
  003bc	f3 0f 5a 05 00
	00 00 00	 cvtss2sd xmm0, DWORD PTR ?pilot_head_pitch@@3MA
  003c4	f2 0f 10 0d 00
	00 00 00	 movsd	 xmm1, QWORD PTR __real@3f91df46a0000000
  003cc	66 0f 2f c8	 comisd	 xmm1, xmm0
  003d0	72 07		 jb	 SHORT $LN11@update_vir

; 4447 : 			(pilot_head_pitch <= rad (1.0))
; 4448 : 		)
; 4449 : 		{
; 4450 : 			//
; 4451 : 			// leave_padlock_view () tidies up padlock list and mode
; 4452 : 			//
; 4453 : 
; 4454 : 			set_view_mode (VIEW_MODE_COCKPIT_PANEL_LEVEL_AHEAD);

  003d2	6a 11		 push	 17			; 00000011H
  003d4	e8 00 00 00 00	 call	 ?set_view_mode@@YGHW4VIEW_MODES@@@Z ; set_view_mode
$LN11@update_vir:

; 4455 : 		}
; 4456 : 	}
; 4457 : }

  003d9	5f		 pop	 edi
  003da	5e		 pop	 esi
  003db	5b		 pop	 ebx
  003dc	8b e5		 mov	 esp, ebp
  003de	5d		 pop	 ebp
  003df	c3		 ret	 0
$LN33@update_vir:
  003e0	00 00 00 00	 DD	 $LN5@update_vir
  003e4	00 00 00 00	 DD	 $LN6@update_vir
  003e8	00 00 00 00	 DD	 $LN6@update_vir
  003ec	00 00 00 00	 DD	 $LN6@update_vir
  003f0	00 00 00 00	 DD	 $LN6@update_vir
  003f4	00 00 00 00	 DD	 $LN7@update_vir
?update_virtual_cockpit_padlock_view@@YGXXZ ENDP	; update_virtual_cockpit_padlock_view
_TEXT	ENDS
; Function compile flags: /Odtp /ZI
; File c:\users\nhv90\projects\eech\aphavoc\source\gunships\views\vm_vckpt.c
;	COMDAT ?get_players_padlock@@YGPAUENTITY@@XZ
_TEXT	SEGMENT
tv134 = -76						; size = 4
tv79 = -76						; size = 4
tv94 = -72						; size = 4
tv86 = -72						; size = 4
tv71 = -72						; size = 4
_target$ = -4						; size = 4
?get_players_padlock@@YGPAUENTITY@@XZ PROC		; get_players_padlock, COMDAT

; 4293 : {

  00000	55		 push	 ebp
  00001	8b ec		 mov	 ebp, esp
  00003	83 ec 4c	 sub	 esp, 76			; 0000004cH
  00006	53		 push	 ebx
  00007	56		 push	 esi
  00008	57		 push	 edi

; 4294 : 	entity
; 4295 : 		*target;
; 4296 : 
; 4297 : 	target = NULL;

  00009	c7 45 fc 00 00
	00 00		 mov	 DWORD PTR _target$[ebp], 0

; 4298 : 
; 4299 : 	if (get_view_mode () == VIEW_MODE_VIRTUAL_COCKPIT_TRACK_TARGET)

  00010	83 3d 00 00 00
	00 22		 cmp	 DWORD PTR ?view_mode@@3W4VIEW_MODES@@A, 34 ; view_mode, 00000022H
  00017	0f 85 8d 00 00
	00		 jne	 $LN4@get_player

; 4300 : 	{
; 4301 : 		target = get_local_entity_parent (get_gunship_entity (), LIST_TYPE_TARGET);

  0001d	83 3d 00 00 00
	00 00		 cmp	 DWORD PTR ?gunship_entity@@3PAUENTITY@@A, 0 ; gunship_entity
  00024	74 0c		 je	 SHORT $LN12@get_player
  00026	a1 00 00 00 00	 mov	 eax, DWORD PTR ?gunship_entity@@3PAUENTITY@@A ; gunship_entity
  0002b	8b 08		 mov	 ecx, DWORD PTR [eax]
  0002d	89 4d b8	 mov	 DWORD PTR tv71[ebp], ecx
  00030	eb 21		 jmp	 SHORT $LN13@get_player
$LN12@get_player:
  00032	8b 15 00 00 00
	00		 mov	 edx, DWORD PTR ?__LINE__Var@?0??get_players_padlock@@YGPAUENTITY@@XZ@4JA
  00038	83 c2 08	 add	 edx, 8
  0003b	52		 push	 edx
  0003c	68 00 00 00 00	 push	 OFFSET ??_C@_0EG@KKKJIDAO@c?3?2users?2nhv90?2projects?2eech?2ap@
  00041	a1 00 00 00 00	 mov	 eax, DWORD PTR ?null_entity_pointer_message@@3PBDB ; null_entity_pointer_message
  00046	50		 push	 eax
  00047	e8 00 00 00 00	 call	 ?process_assert@@YGXPBD0H@Z ; process_assert
  0004c	c7 45 b8 00 00
	00 00		 mov	 DWORD PTR tv71[ebp], 0
$LN13@get_player:
  00053	b9 01 00 00 00	 mov	 ecx, 1
  00058	85 c9		 test	 ecx, ecx
  0005a	74 09		 je	 SHORT $LN14@get_player
  0005c	c7 45 b4 26 00
	00 00		 mov	 DWORD PTR tv79[ebp], 38	; 00000026H
  00063	eb 21		 jmp	 SHORT $LN15@get_player
$LN14@get_player:
  00065	8b 15 00 00 00
	00		 mov	 edx, DWORD PTR ?__LINE__Var@?0??get_players_padlock@@YGPAUENTITY@@XZ@4JA
  0006b	83 c2 08	 add	 edx, 8
  0006e	52		 push	 edx
  0006f	68 00 00 00 00	 push	 OFFSET ??_C@_0EG@KKKJIDAO@c?3?2users?2nhv90?2projects?2eech?2ap@
  00074	a1 00 00 00 00	 mov	 eax, DWORD PTR ?overload_invalid_list_type_message@@3PBDB ; overload_invalid_list_type_message
  00079	50		 push	 eax
  0007a	e8 00 00 00 00	 call	 ?process_assert@@YGXPBD0H@Z ; process_assert
  0007f	c7 45 b4 00 00
	00 00		 mov	 DWORD PTR tv79[ebp], 0
$LN15@get_player:
  00086	6a 26		 push	 38			; 00000026H
  00088	8b 0d 00 00 00
	00		 mov	 ecx, DWORD PTR ?gunship_entity@@3PAUENTITY@@A ; gunship_entity
  0008e	51		 push	 ecx
  0008f	69 55 b8 b4 00
	00 00		 imul	 edx, DWORD PTR tv71[ebp], 180
  00096	8b 45 b4	 mov	 eax, DWORD PTR tv79[ebp]
  00099	8b 8c 82 00 00
	00 00		 mov	 ecx, DWORD PTR ?fn_get_local_entity_parent@@3PAY0CN@P6GPAUENTITY@@PAU1@W4LIST_TYPES@@@ZA[edx+eax*4]
  000a0	ff d1		 call	 ecx
  000a2	89 45 fc	 mov	 DWORD PTR _target$[ebp], eax
  000a5	e9 e1 00 00 00	 jmp	 $LN5@get_player
$LN4@get_player:

; 4302 : 	}
; 4303 : 	else if (get_view_mode () == VIEW_MODE_VIRTUAL_COCKPIT_PADLOCK)

  000aa	83 3d 00 00 00
	00 21		 cmp	 DWORD PTR ?view_mode@@3W4VIEW_MODES@@A, 33 ; view_mode, 00000021H
  000b1	0f 85 d4 00 00
	00		 jne	 $LN5@get_player

; 4304 : 	{
; 4305 : 		switch (padlock_mode)

  000b7	a1 00 00 00 00	 mov	 eax, DWORD PTR ?padlock_mode@@3W4PADLOCK_MODES@@A
  000bc	89 45 b8	 mov	 DWORD PTR tv86[ebp], eax
  000bf	83 7d b8 05	 cmp	 DWORD PTR tv86[ebp], 5
  000c3	0f 87 af 00 00
	00		 ja	 $LN10@get_player
  000c9	8b 4d b8	 mov	 ecx, DWORD PTR tv86[ebp]
  000cc	ff 24 8d 00 00
	00 00		 jmp	 DWORD PTR $LN20@get_player[ecx*4]
$LN7@get_player:

; 4306 : 		{
; 4307 : 			////////////////////////////////////////
; 4308 : 			case PADLOCK_MODE_NONE:
; 4309 : 			////////////////////////////////////////
; 4310 : 			{
; 4311 : 				debug_fatal ("Invalid padlock mode = PADLOCK_MODE_NONE");

  000d3	68 00 00 00 00	 push	 OFFSET ??_C@_0CJ@POFEAPGC@Invalid?5padlock?5mode?5?$DN?5PADLOCK_@
  000d8	e8 00 00 00 00	 call	 ?debug_fatal@@YAXPBDZZ	; debug_fatal
  000dd	83 c4 04	 add	 esp, 4

; 4312 : 
; 4313 : 				break;

  000e0	e9 a6 00 00 00	 jmp	 $LN5@get_player
$LN8@get_player:

; 4314 : 			}
; 4315 : 			////////////////////////////////////////
; 4316 : 			case PADLOCK_MODE_WINGMAN:
; 4317 : 			case PADLOCK_MODE_AIR_THREAT:
; 4318 : 			case PADLOCK_MODE_GROUND_THREAT:
; 4319 : 			case PADLOCK_MODE_MISSILE_THREAT:
; 4320 : 			////////////////////////////////////////
; 4321 : 			{
; 4322 : 				target = get_local_entity_first_child (get_gunship_entity (), LIST_TYPE_PADLOCK);

  000e5	83 3d 00 00 00
	00 00		 cmp	 DWORD PTR ?gunship_entity@@3PAUENTITY@@A, 0 ; gunship_entity
  000ec	74 0c		 je	 SHORT $LN16@get_player
  000ee	a1 00 00 00 00	 mov	 eax, DWORD PTR ?gunship_entity@@3PAUENTITY@@A ; gunship_entity
  000f3	8b 08		 mov	 ecx, DWORD PTR [eax]
  000f5	89 4d b8	 mov	 DWORD PTR tv94[ebp], ecx
  000f8	eb 21		 jmp	 SHORT $LN17@get_player
$LN16@get_player:
  000fa	8b 15 00 00 00
	00		 mov	 edx, DWORD PTR ?__LINE__Var@?0??get_players_padlock@@YGPAUENTITY@@XZ@4JA
  00100	83 c2 1d	 add	 edx, 29			; 0000001dH
  00103	52		 push	 edx
  00104	68 00 00 00 00	 push	 OFFSET ??_C@_0EG@KKKJIDAO@c?3?2users?2nhv90?2projects?2eech?2ap@
  00109	a1 00 00 00 00	 mov	 eax, DWORD PTR ?null_entity_pointer_message@@3PBDB ; null_entity_pointer_message
  0010e	50		 push	 eax
  0010f	e8 00 00 00 00	 call	 ?process_assert@@YGXPBD0H@Z ; process_assert
  00114	c7 45 b8 00 00
	00 00		 mov	 DWORD PTR tv94[ebp], 0
$LN17@get_player:
  0011b	b9 01 00 00 00	 mov	 ecx, 1
  00120	85 c9		 test	 ecx, ecx
  00122	74 09		 je	 SHORT $LN18@get_player
  00124	c7 45 b4 1b 00
	00 00		 mov	 DWORD PTR tv134[ebp], 27 ; 0000001bH
  0012b	eb 21		 jmp	 SHORT $LN19@get_player
$LN18@get_player:
  0012d	8b 15 00 00 00
	00		 mov	 edx, DWORD PTR ?__LINE__Var@?0??get_players_padlock@@YGPAUENTITY@@XZ@4JA
  00133	83 c2 1d	 add	 edx, 29			; 0000001dH
  00136	52		 push	 edx
  00137	68 00 00 00 00	 push	 OFFSET ??_C@_0EG@KKKJIDAO@c?3?2users?2nhv90?2projects?2eech?2ap@
  0013c	a1 00 00 00 00	 mov	 eax, DWORD PTR ?overload_invalid_list_type_message@@3PBDB ; overload_invalid_list_type_message
  00141	50		 push	 eax
  00142	e8 00 00 00 00	 call	 ?process_assert@@YGXPBD0H@Z ; process_assert
  00147	c7 45 b4 00 00
	00 00		 mov	 DWORD PTR tv134[ebp], 0
$LN19@get_player:
  0014e	6a 1b		 push	 27			; 0000001bH
  00150	8b 0d 00 00 00
	00		 mov	 ecx, DWORD PTR ?gunship_entity@@3PAUENTITY@@A ; gunship_entity
  00156	51		 push	 ecx
  00157	69 55 b8 b4 00
	00 00		 imul	 edx, DWORD PTR tv94[ebp], 180
  0015e	8b 45 b4	 mov	 eax, DWORD PTR tv134[ebp]
  00161	8b 8c 82 00 00
	00 00		 mov	 ecx, DWORD PTR ?fn_get_local_entity_first_child@@3PAY0CN@P6GPAUENTITY@@PAU1@W4LIST_TYPES@@@ZA[edx+eax*4]
  00168	ff d1		 call	 ecx
  0016a	89 45 fc	 mov	 DWORD PTR _target$[ebp], eax

; 4323 : 
; 4324 : 				break;

  0016d	eb 1c		 jmp	 SHORT $LN5@get_player
$LN9@get_player:

; 4325 : 			}
; 4326 : 			////////////////////////////////////////
; 4327 : 			case PADLOCK_MODE_WAYPOINT:
; 4328 : 			////////////////////////////////////////
; 4329 : 			{
; 4330 : 				target = NULL;

  0016f	c7 45 fc 00 00
	00 00		 mov	 DWORD PTR _target$[ebp], 0

; 4331 : 
; 4332 : 				break;

  00176	eb 13		 jmp	 SHORT $LN5@get_player
$LN10@get_player:

; 4333 : 			}
; 4334 : 			////////////////////////////////////////
; 4335 : 			default:
; 4336 : 			////////////////////////////////////////
; 4337 : 			{
; 4338 : 				debug_fatal ("Invalid padlock mode = %d", padlock_mode);

  00178	a1 00 00 00 00	 mov	 eax, DWORD PTR ?padlock_mode@@3W4PADLOCK_MODES@@A
  0017d	50		 push	 eax
  0017e	68 00 00 00 00	 push	 OFFSET ??_C@_0BK@FCBJMFAH@Invalid?5padlock?5mode?5?$DN?5?$CFd@
  00183	e8 00 00 00 00	 call	 ?debug_fatal@@YAXPBDZZ	; debug_fatal
  00188	83 c4 08	 add	 esp, 8
$LN5@get_player:

; 4339 : 
; 4340 : 				break;
; 4341 : 			}
; 4342 : 		}
; 4343 : 	}
; 4344 : 
; 4345 : 	return (target);

  0018b	8b 45 fc	 mov	 eax, DWORD PTR _target$[ebp]

; 4346 : }

  0018e	5f		 pop	 edi
  0018f	5e		 pop	 esi
  00190	5b		 pop	 ebx
  00191	8b e5		 mov	 esp, ebp
  00193	5d		 pop	 ebp
  00194	c3		 ret	 0
  00195	0f 1f 00	 npad	 3
$LN20@get_player:
  00198	00 00 00 00	 DD	 $LN7@get_player
  0019c	00 00 00 00	 DD	 $LN8@get_player
  001a0	00 00 00 00	 DD	 $LN8@get_player
  001a4	00 00 00 00	 DD	 $LN8@get_player
  001a8	00 00 00 00	 DD	 $LN8@get_player
  001ac	00 00 00 00	 DD	 $LN9@get_player
?get_players_padlock@@YGPAUENTITY@@XZ ENDP		; get_players_padlock
_TEXT	ENDS
; Function compile flags: /Odtp /ZI
; File c:\users\nhv90\projects\eech\aphavoc\source\gunships\views\vm_vckpt.c
;	COMDAT ?get_inset@@YGPAUENTITY@@XZ
_TEXT	SEGMENT
tv81 = -80						; size = 4
tv73 = -76						; size = 4
tv66 = -76						; size = 4
_target$ = -8						; size = 4
_source$ = -4						; size = 4
?get_inset@@YGPAUENTITY@@XZ PROC			; get_inset, COMDAT

; 4217 : {

  00000	55		 push	 ebp
  00001	8b ec		 mov	 ebp, esp
  00003	83 ec 50	 sub	 esp, 80			; 00000050H
  00006	53		 push	 ebx
  00007	56		 push	 esi
  00008	57		 push	 edi

; 4218 : 	entity
; 4219 : 		*source,
; 4220 : 		*target;
; 4221 : 
; 4222 : 	source = get_external_view_entity ();

  00009	e8 00 00 00 00	 call	 ?get_external_view_entity@@YGPAUENTITY@@XZ ; get_external_view_entity
  0000e	89 45 fc	 mov	 DWORD PTR _source$[ebp], eax

; 4223 : 
; 4224 : 	target = NULL;

  00011	c7 45 f8 00 00
	00 00		 mov	 DWORD PTR _target$[ebp], 0

; 4225 : 
; 4226 : 	if (source)

  00018	83 7d fc 00	 cmp	 DWORD PTR _source$[ebp], 0
  0001c	0f 84 0f 01 00
	00		 je	 $LN4@get_inset

; 4227 : 	{
; 4228 : 		switch (inset_mode)

  00022	a1 00 00 00 00	 mov	 eax, DWORD PTR ?inset_mode@@3W4PADLOCK_MODES@@A ; inset_mode
  00027	89 45 b4	 mov	 DWORD PTR tv66[ebp], eax
  0002a	83 7d b4 05	 cmp	 DWORD PTR tv66[ebp], 5
  0002e	0f 87 fd 00 00
	00		 ja	 $LN4@get_inset
  00034	8b 4d b4	 mov	 ecx, DWORD PTR tv66[ebp]
  00037	ff 24 8d 00 00
	00 00		 jmp	 DWORD PTR $LN22@get_inset[ecx*4]
$LN5@get_inset:

; 4229 : 		{
; 4230 : 			case PADLOCK_MODE_NONE:
; 4231 : 			{
; 4232 : 				target = get_local_entity_parent (source, LIST_TYPE_TARGET);

  0003e	83 7d fc 00	 cmp	 DWORD PTR _source$[ebp], 0
  00042	74 0a		 je	 SHORT $LN18@get_inset
  00044	8b 45 fc	 mov	 eax, DWORD PTR _source$[ebp]
  00047	8b 08		 mov	 ecx, DWORD PTR [eax]
  00049	89 4d b4	 mov	 DWORD PTR tv73[ebp], ecx
  0004c	eb 21		 jmp	 SHORT $LN19@get_inset
$LN18@get_inset:
  0004e	8b 15 00 00 00
	00		 mov	 edx, DWORD PTR ?__LINE__Var@?0??get_inset@@YGPAUENTITY@@XZ@4JA
  00054	83 c2 0f	 add	 edx, 15			; 0000000fH
  00057	52		 push	 edx
  00058	68 00 00 00 00	 push	 OFFSET ??_C@_0EG@KKKJIDAO@c?3?2users?2nhv90?2projects?2eech?2ap@
  0005d	a1 00 00 00 00	 mov	 eax, DWORD PTR ?null_entity_pointer_message@@3PBDB ; null_entity_pointer_message
  00062	50		 push	 eax
  00063	e8 00 00 00 00	 call	 ?process_assert@@YGXPBD0H@Z ; process_assert
  00068	c7 45 b4 00 00
	00 00		 mov	 DWORD PTR tv73[ebp], 0
$LN19@get_inset:
  0006f	b9 01 00 00 00	 mov	 ecx, 1
  00074	85 c9		 test	 ecx, ecx
  00076	74 09		 je	 SHORT $LN20@get_inset
  00078	c7 45 b0 26 00
	00 00		 mov	 DWORD PTR tv81[ebp], 38	; 00000026H
  0007f	eb 21		 jmp	 SHORT $LN21@get_inset
$LN20@get_inset:
  00081	8b 15 00 00 00
	00		 mov	 edx, DWORD PTR ?__LINE__Var@?0??get_inset@@YGPAUENTITY@@XZ@4JA
  00087	83 c2 0f	 add	 edx, 15			; 0000000fH
  0008a	52		 push	 edx
  0008b	68 00 00 00 00	 push	 OFFSET ??_C@_0EG@KKKJIDAO@c?3?2users?2nhv90?2projects?2eech?2ap@
  00090	a1 00 00 00 00	 mov	 eax, DWORD PTR ?overload_invalid_list_type_message@@3PBDB ; overload_invalid_list_type_message
  00095	50		 push	 eax
  00096	e8 00 00 00 00	 call	 ?process_assert@@YGXPBD0H@Z ; process_assert
  0009b	c7 45 b0 00 00
	00 00		 mov	 DWORD PTR tv81[ebp], 0
$LN21@get_inset:
  000a2	6a 26		 push	 38			; 00000026H
  000a4	8b 4d fc	 mov	 ecx, DWORD PTR _source$[ebp]
  000a7	51		 push	 ecx
  000a8	69 55 b4 b4 00
	00 00		 imul	 edx, DWORD PTR tv73[ebp], 180
  000af	8b 45 b0	 mov	 eax, DWORD PTR tv81[ebp]
  000b2	8b 8c 82 00 00
	00 00		 mov	 ecx, DWORD PTR ?fn_get_local_entity_parent@@3PAY0CN@P6GPAUENTITY@@PAU1@W4LIST_TYPES@@@ZA[edx+eax*4]
  000b9	ff d1		 call	 ecx
  000bb	89 45 f8	 mov	 DWORD PTR _target$[ebp], eax

; 4233 : 				// Jabberwock 031027 not working :( target = get_gunship_entity();
; 4234 : 				break;

  000be	eb 71		 jmp	 SHORT $LN4@get_inset
$LN6@get_inset:

; 4235 : 			}
; 4236 : 			case PADLOCK_MODE_WINGMAN:
; 4237 : 			{
; 4238 : 				if (source == get_gunship_entity())

  000c0	8b 45 fc	 mov	 eax, DWORD PTR _source$[ebp]
  000c3	3b 05 00 00 00
	00		 cmp	 eax, DWORD PTR ?gunship_entity@@3PAUENTITY@@A ; gunship_entity
  000c9	75 08		 jne	 SHORT $LN7@get_inset

; 4239 : 				{
; 4240 : 					target = get_next_wingman ();

  000cb	e8 00 00 00 00	 call	 ?get_next_wingman@@YGPAUENTITY@@XZ ; get_next_wingman
  000d0	89 45 f8	 mov	 DWORD PTR _target$[ebp], eax
$LN7@get_inset:

; 4241 : 				}
; 4242 : 				break;

  000d3	eb 5c		 jmp	 SHORT $LN4@get_inset
$LN8@get_inset:

; 4243 : 			}
; 4244 : 			case PADLOCK_MODE_AIR_THREAT:
; 4245 : 			{
; 4246 : 				if (source == get_gunship_entity())

  000d5	8b 45 fc	 mov	 eax, DWORD PTR _source$[ebp]
  000d8	3b 05 00 00 00
	00		 cmp	 eax, DWORD PTR ?gunship_entity@@3PAUENTITY@@A ; gunship_entity
  000de	75 08		 jne	 SHORT $LN9@get_inset

; 4247 : 				{
; 4248 : 					target = get_next_air_threat ();

  000e0	e8 00 00 00 00	 call	 ?get_next_air_threat@@YGPAUENTITY@@XZ ; get_next_air_threat
  000e5	89 45 f8	 mov	 DWORD PTR _target$[ebp], eax
$LN9@get_inset:

; 4249 : 				}
; 4250 : 				break;

  000e8	eb 47		 jmp	 SHORT $LN4@get_inset
$LN10@get_inset:

; 4251 : 			}
; 4252 : 			case PADLOCK_MODE_GROUND_THREAT:
; 4253 : 			{
; 4254 : 				if (source == get_gunship_entity())

  000ea	8b 45 fc	 mov	 eax, DWORD PTR _source$[ebp]
  000ed	3b 05 00 00 00
	00		 cmp	 eax, DWORD PTR ?gunship_entity@@3PAUENTITY@@A ; gunship_entity
  000f3	75 08		 jne	 SHORT $LN11@get_inset

; 4255 : 				{
; 4256 : 					target = get_next_ground_threat ();

  000f5	e8 00 00 00 00	 call	 ?get_next_ground_threat@@YGPAUENTITY@@XZ ; get_next_ground_threat
  000fa	89 45 f8	 mov	 DWORD PTR _target$[ebp], eax
$LN11@get_inset:

; 4257 : 				}
; 4258 : 				break;

  000fd	eb 32		 jmp	 SHORT $LN4@get_inset
$LN12@get_inset:

; 4259 : 			}
; 4260 : 			case PADLOCK_MODE_MISSILE_THREAT:
; 4261 : 			{
; 4262 : 				if (source == get_gunship_entity())

  000ff	8b 45 fc	 mov	 eax, DWORD PTR _source$[ebp]
  00102	3b 05 00 00 00
	00		 cmp	 eax, DWORD PTR ?gunship_entity@@3PAUENTITY@@A ; gunship_entity
  00108	75 08		 jne	 SHORT $LN13@get_inset

; 4263 : 				{
; 4264 : 					target = get_next_missile_threat ();

  0010a	e8 00 00 00 00	 call	 ?get_next_missile_threat@@YGPAUENTITY@@XZ ; get_next_missile_threat
  0010f	89 45 f8	 mov	 DWORD PTR _target$[ebp], eax
$LN13@get_inset:

; 4265 : 				}
; 4266 : 				break;

  00112	eb 1d		 jmp	 SHORT $LN4@get_inset
$LN14@get_inset:

; 4267 : 			}
; 4268 : 			case PADLOCK_MODE_WAYPOINT:
; 4269 : 			{
; 4270 : 				if (!target)

  00114	83 7d f8 00	 cmp	 DWORD PTR _target$[ebp], 0
  00118	75 17		 jne	 SHORT $LN4@get_inset

; 4271 : 				{
; 4272 : 					if (source == get_gunship_entity())

  0011a	8b 45 fc	 mov	 eax, DWORD PTR _source$[ebp]
  0011d	3b 05 00 00 00
	00		 cmp	 eax, DWORD PTR ?gunship_entity@@3PAUENTITY@@A ; gunship_entity
  00123	75 0c		 jne	 SHORT $LN4@get_inset

; 4273 : 					{
; 4274 : 						target = get_local_entity_current_waypoint (source);

  00125	8b 45 fc	 mov	 eax, DWORD PTR _source$[ebp]
  00128	50		 push	 eax
  00129	e8 00 00 00 00	 call	 ?get_local_entity_current_waypoint@@YGPAUENTITY@@PAU1@@Z ; get_local_entity_current_waypoint
  0012e	89 45 f8	 mov	 DWORD PTR _target$[ebp], eax
$LN4@get_inset:

; 4275 : 					}
; 4276 : 				}
; 4277 : 				break;
; 4278 : 			}
; 4279 : 		}
; 4280 : 	}
; 4281 : 	return (target);

  00131	8b 45 f8	 mov	 eax, DWORD PTR _target$[ebp]

; 4282 : }

  00134	5f		 pop	 edi
  00135	5e		 pop	 esi
  00136	5b		 pop	 ebx
  00137	8b e5		 mov	 esp, ebp
  00139	5d		 pop	 ebp
  0013a	c3		 ret	 0
  0013b	90		 npad	 1
$LN22@get_inset:
  0013c	00 00 00 00	 DD	 $LN5@get_inset
  00140	00 00 00 00	 DD	 $LN6@get_inset
  00144	00 00 00 00	 DD	 $LN8@get_inset
  00148	00 00 00 00	 DD	 $LN10@get_inset
  0014c	00 00 00 00	 DD	 $LN12@get_inset
  00150	00 00 00 00	 DD	 $LN14@get_inset
?get_inset@@YGPAUENTITY@@XZ ENDP			; get_inset
_TEXT	ENDS
; Function compile flags: /Odtp /ZI
; File c:\users\nhv90\projects\eech\aphavoc\source\gunships\views\vm_vckpt.c
;	COMDAT ?select_inset_view_event@@YGXW4PADLOCK_MODES@@@Z
_TEXT	SEGMENT
_mode$ = 8						; size = 4
?select_inset_view_event@@YGXW4PADLOCK_MODES@@@Z PROC	; select_inset_view_event, COMDAT

; 4211 : {

  00000	55		 push	 ebp
  00001	8b ec		 mov	 ebp, esp
  00003	83 ec 40	 sub	 esp, 64			; 00000040H
  00006	53		 push	 ebx
  00007	56		 push	 esi
  00008	57		 push	 edi

; 4212 : 	inset_mode = mode;

  00009	8b 45 08	 mov	 eax, DWORD PTR _mode$[ebp]
  0000c	a3 00 00 00 00	 mov	 DWORD PTR ?inset_mode@@3W4PADLOCK_MODES@@A, eax ; inset_mode

; 4213 : }

  00011	5f		 pop	 edi
  00012	5e		 pop	 esi
  00013	5b		 pop	 ebx
  00014	8b e5		 mov	 esp, ebp
  00016	5d		 pop	 ebp
  00017	c2 04 00	 ret	 4
?select_inset_view_event@@YGXW4PADLOCK_MODES@@@Z ENDP	; select_inset_view_event
_TEXT	ENDS
; Function compile flags: /Odtp /ZI
; File c:\users\nhv90\projects\eech\aphavoc\source\gunships\views\vm_vckpt.c
;	COMDAT ?select_padlock_view_event@@YGXW4PADLOCK_MODES@@@Z
_TEXT	SEGMENT
tv92 = -80						; size = 4
tv84 = -76						; size = 4
tv69 = -76						; size = 4
_target$ = -8						; size = 4
_source$ = -4						; size = 4
_mode$ = 8						; size = 4
?select_padlock_view_event@@YGXW4PADLOCK_MODES@@@Z PROC	; select_padlock_view_event, COMDAT

; 3913 : {

  00000	55		 push	 ebp
  00001	8b ec		 mov	 ebp, esp
  00003	83 ec 50	 sub	 esp, 80			; 00000050H
  00006	53		 push	 ebx
  00007	56		 push	 esi
  00008	57		 push	 edi

; 3914 : 	entity
; 3915 : 		*source,
; 3916 : 		*target;
; 3917 : 
; 3918 : 	source = get_gunship_entity ();

  00009	a1 00 00 00 00	 mov	 eax, DWORD PTR ?gunship_entity@@3PAUENTITY@@A ; gunship_entity
  0000e	89 45 fc	 mov	 DWORD PTR _source$[ebp], eax

; 3919 : 
; 3920 : 	ASSERT (source);

  00011	83 7d fc 00	 cmp	 DWORD PTR _source$[ebp], 0
  00015	75 18		 jne	 SHORT $LN4@select_pad
  00017	a1 00 00 00 00	 mov	 eax, DWORD PTR ?__LINE__Var@?0??select_padlock_view_event@@YGXW4PADLOCK_MODES@@@Z@4JA
  0001c	83 c0 07	 add	 eax, 7
  0001f	50		 push	 eax
  00020	68 00 00 00 00	 push	 OFFSET ??_C@_0EG@KKKJIDAO@c?3?2users?2nhv90?2projects?2eech?2ap@
  00025	68 00 00 00 00	 push	 OFFSET ??_C@_06OEKOLKIL@source@
  0002a	e8 00 00 00 00	 call	 ?process_assert@@YGXPBD0H@Z ; process_assert
$LN4@select_pad:

; 3921 : 
; 3922 : 	switch (mode)

  0002f	8b 45 08	 mov	 eax, DWORD PTR _mode$[ebp]
  00032	89 45 b4	 mov	 DWORD PTR tv69[ebp], eax
  00035	83 7d b4 05	 cmp	 DWORD PTR tv69[ebp], 5
  00039	0f 87 e0 03 00
	00		 ja	 $LN39@select_pad
  0003f	8b 4d b4	 mov	 ecx, DWORD PTR tv69[ebp]
  00042	ff 24 8d 00 00
	00 00		 jmp	 DWORD PTR $LN45@select_pad[ecx*4]
$LN5@select_pad:

; 3923 : 	{
; 3924 : 		////////////////////////////////////////
; 3925 : 		case PADLOCK_MODE_NONE:
; 3926 : 		////////////////////////////////////////
; 3927 : 		{
; 3928 : 			if (get_view_mode () == VIEW_MODE_VIRTUAL_COCKPIT_TRACK_TARGET)

  00049	83 3d 00 00 00
	00 22		 cmp	 DWORD PTR ?view_mode@@3W4VIEW_MODES@@A, 34 ; view_mode, 00000022H
  00050	0f 85 fc 00 00
	00		 jne	 $LN6@select_pad

; 3929 : 			{
; 3930 : 				//
; 3931 : 				// padlock target is handled via VIEW_MODE_VIRTUAL_COCKPIT_TRACK_TARGET
; 3932 : 				//
; 3933 : 
; 3934 : 				if (get_apache_havoc_gunship_fixed_cockpit ())

  00056	a1 0c 00 00 00	 mov	 eax, DWORD PTR ?global_options@@3UGLOBAL_OPTIONS_DATA@@A+12
  0005b	0f b6 88 00 00
	00 00		 movzx	 ecx, BYTE PTR ?new_gunship@@3QBDB[eax]
  00062	85 c9		 test	 ecx, ecx
  00064	0f 85 df 00 00
	00		 jne	 $LN8@select_pad
  0006a	83 3d 00 00 00
	00 00		 cmp	 DWORD PTR ?full_screen_hi_res@@3HA, 0 ; full_screen_hi_res
  00071	0f 85 d2 00 00
	00		 jne	 $LN8@select_pad
  00077	83 3d 00 00 00
	00 10		 cmp	 DWORD PTR ?application_video_colourdepth@@3HA, 16 ; application_video_colourdepth, 00000010H
  0007e	0f 85 c5 00 00
	00		 jne	 $LN8@select_pad
  00084	83 3d 00 00 00
	00 00		 cmp	 DWORD PTR ?global_aphavoc_maps@@3HA, 0 ; global_aphavoc_maps
  0008b	0f 84 b8 00 00
	00		 je	 $LN8@select_pad

; 3935 : 				{
; 3936 : 					target = get_local_entity_parent (source, LIST_TYPE_TARGET);

  00091	83 7d fc 00	 cmp	 DWORD PTR _source$[ebp], 0
  00095	74 0a		 je	 SHORT $LN41@select_pad
  00097	8b 45 fc	 mov	 eax, DWORD PTR _source$[ebp]
  0009a	8b 08		 mov	 ecx, DWORD PTR [eax]
  0009c	89 4d b4	 mov	 DWORD PTR tv84[ebp], ecx
  0009f	eb 21		 jmp	 SHORT $LN42@select_pad
$LN41@select_pad:
  000a1	8b 15 00 00 00
	00		 mov	 edx, DWORD PTR ?__LINE__Var@?0??select_padlock_view_event@@YGXW4PADLOCK_MODES@@@Z@4JA
  000a7	83 c2 17	 add	 edx, 23			; 00000017H
  000aa	52		 push	 edx
  000ab	68 00 00 00 00	 push	 OFFSET ??_C@_0EG@KKKJIDAO@c?3?2users?2nhv90?2projects?2eech?2ap@
  000b0	a1 00 00 00 00	 mov	 eax, DWORD PTR ?null_entity_pointer_message@@3PBDB ; null_entity_pointer_message
  000b5	50		 push	 eax
  000b6	e8 00 00 00 00	 call	 ?process_assert@@YGXPBD0H@Z ; process_assert
  000bb	c7 45 b4 00 00
	00 00		 mov	 DWORD PTR tv84[ebp], 0
$LN42@select_pad:
  000c2	b9 01 00 00 00	 mov	 ecx, 1
  000c7	85 c9		 test	 ecx, ecx
  000c9	74 09		 je	 SHORT $LN43@select_pad
  000cb	c7 45 b0 26 00
	00 00		 mov	 DWORD PTR tv92[ebp], 38	; 00000026H
  000d2	eb 21		 jmp	 SHORT $LN44@select_pad
$LN43@select_pad:
  000d4	8b 15 00 00 00
	00		 mov	 edx, DWORD PTR ?__LINE__Var@?0??select_padlock_view_event@@YGXW4PADLOCK_MODES@@@Z@4JA
  000da	83 c2 17	 add	 edx, 23			; 00000017H
  000dd	52		 push	 edx
  000de	68 00 00 00 00	 push	 OFFSET ??_C@_0EG@KKKJIDAO@c?3?2users?2nhv90?2projects?2eech?2ap@
  000e3	a1 00 00 00 00	 mov	 eax, DWORD PTR ?overload_invalid_list_type_message@@3PBDB ; overload_invalid_list_type_message
  000e8	50		 push	 eax
  000e9	e8 00 00 00 00	 call	 ?process_assert@@YGXPBD0H@Z ; process_assert
  000ee	c7 45 b0 00 00
	00 00		 mov	 DWORD PTR tv92[ebp], 0
$LN44@select_pad:
  000f5	6a 26		 push	 38			; 00000026H
  000f7	8b 4d fc	 mov	 ecx, DWORD PTR _source$[ebp]
  000fa	51		 push	 ecx
  000fb	69 55 b4 b4 00
	00 00		 imul	 edx, DWORD PTR tv84[ebp], 180
  00102	8b 45 b0	 mov	 eax, DWORD PTR tv92[ebp]
  00105	8b 8c 82 00 00
	00 00		 mov	 ecx, DWORD PTR ?fn_get_local_entity_parent@@3PAY0CN@P6GPAUENTITY@@PAU1@W4LIST_TYPES@@@ZA[edx+eax*4]
  0010c	ff d1		 call	 ecx
  0010e	89 45 f8	 mov	 DWORD PTR _target$[ebp], eax

; 3937 : 
; 3938 : 					if (target)

  00111	83 7d f8 00	 cmp	 DWORD PTR _target$[ebp], 0
  00115	74 09		 je	 SHORT $LN10@select_pad

; 3939 : 					{
; 3940 : 						get_pilot_head_heading_and_pitch_to_target (target);

  00117	8b 45 f8	 mov	 eax, DWORD PTR _target$[ebp]
  0011a	50		 push	 eax
  0011b	e8 00 00 00 00	 call	 ?get_pilot_head_heading_and_pitch_to_target@@YGXPAUENTITY@@@Z ; get_pilot_head_heading_and_pitch_to_target
$LN10@select_pad:

; 3941 : 					}
; 3942 : 
; 3943 : 					set_view_mode (get_nearest_fixed_cockpit_view (pilot_head_heading, pilot_head_pitch));

  00120	51		 push	 ecx
  00121	f3 0f 10 05 00
	00 00 00	 movss	 xmm0, DWORD PTR ?pilot_head_pitch@@3MA
  00129	f3 0f 11 04 24	 movss	 DWORD PTR [esp], xmm0
  0012e	51		 push	 ecx
  0012f	f3 0f 10 05 00
	00 00 00	 movss	 xmm0, DWORD PTR ?pilot_head_heading@@3MA
  00137	f3 0f 11 04 24	 movss	 DWORD PTR [esp], xmm0
  0013c	e8 00 00 00 00	 call	 ?get_nearest_fixed_cockpit_view@@YG?AW4VIEW_MODES@@MM@Z ; get_nearest_fixed_cockpit_view
  00141	50		 push	 eax
  00142	e8 00 00 00 00	 call	 ?set_view_mode@@YGHW4VIEW_MODES@@@Z ; set_view_mode

; 3944 : 				}
; 3945 : 				else

  00147	eb 07		 jmp	 SHORT $LN9@select_pad
$LN8@select_pad:

; 3946 : 				{
; 3947 : 					set_view_mode (VIEW_MODE_VIRTUAL_COCKPIT);

  00149	6a 20		 push	 32			; 00000020H
  0014b	e8 00 00 00 00	 call	 ?set_view_mode@@YGHW4VIEW_MODES@@@Z ; set_view_mode
$LN9@select_pad:

; 3948 : 				}

  00150	eb 64		 jmp	 SHORT $LN13@select_pad
$LN6@select_pad:

; 3949 : 			}
; 3950 : 			else if (get_view_mode () == VIEW_MODE_VIRTUAL_COCKPIT_PADLOCK)

  00152	83 3d 00 00 00
	00 21		 cmp	 DWORD PTR ?view_mode@@3W4VIEW_MODES@@A, 33 ; view_mode, 00000021H
  00159	75 5b		 jne	 SHORT $LN13@select_pad

; 3951 : 			{
; 3952 : 				//
; 3953 : 				// cancel padlock
; 3954 : 				//
; 3955 : 
; 3956 : 				if (get_apache_havoc_gunship_fixed_cockpit ())

  0015b	a1 0c 00 00 00	 mov	 eax, DWORD PTR ?global_options@@3UGLOBAL_OPTIONS_DATA@@A+12
  00160	0f b6 88 00 00
	00 00		 movzx	 ecx, BYTE PTR ?new_gunship@@3QBDB[eax]
  00167	85 c9		 test	 ecx, ecx
  00169	75 44		 jne	 SHORT $LN12@select_pad
  0016b	83 3d 00 00 00
	00 00		 cmp	 DWORD PTR ?full_screen_hi_res@@3HA, 0 ; full_screen_hi_res
  00172	75 3b		 jne	 SHORT $LN12@select_pad
  00174	83 3d 00 00 00
	00 10		 cmp	 DWORD PTR ?application_video_colourdepth@@3HA, 16 ; application_video_colourdepth, 00000010H
  0017b	75 32		 jne	 SHORT $LN12@select_pad
  0017d	83 3d 00 00 00
	00 00		 cmp	 DWORD PTR ?global_aphavoc_maps@@3HA, 0 ; global_aphavoc_maps
  00184	74 29		 je	 SHORT $LN12@select_pad

; 3957 : 				{
; 3958 : 					//
; 3959 : 					// leave_padlock_view () tidies up padlock list and mode
; 3960 : 					//
; 3961 : 
; 3962 : 					set_view_mode (get_nearest_fixed_cockpit_view (pilot_head_heading, pilot_head_pitch));

  00186	51		 push	 ecx
  00187	f3 0f 10 05 00
	00 00 00	 movss	 xmm0, DWORD PTR ?pilot_head_pitch@@3MA
  0018f	f3 0f 11 04 24	 movss	 DWORD PTR [esp], xmm0
  00194	51		 push	 ecx
  00195	f3 0f 10 05 00
	00 00 00	 movss	 xmm0, DWORD PTR ?pilot_head_heading@@3MA
  0019d	f3 0f 11 04 24	 movss	 DWORD PTR [esp], xmm0
  001a2	e8 00 00 00 00	 call	 ?get_nearest_fixed_cockpit_view@@YG?AW4VIEW_MODES@@MM@Z ; get_nearest_fixed_cockpit_view
  001a7	50		 push	 eax
  001a8	e8 00 00 00 00	 call	 ?set_view_mode@@YGHW4VIEW_MODES@@@Z ; set_view_mode

; 3963 : 				}
; 3964 : 				else

  001ad	eb 07		 jmp	 SHORT $LN13@select_pad
$LN12@select_pad:

; 3965 : 				{
; 3966 : 					//
; 3967 : 					// leave_padlock_view () tidies up padlock list and mode
; 3968 : 					//
; 3969 : 
; 3970 : 					set_view_mode (VIEW_MODE_VIRTUAL_COCKPIT);

  001af	6a 20		 push	 32			; 00000020H
  001b1	e8 00 00 00 00	 call	 ?set_view_mode@@YGHW4VIEW_MODES@@@Z ; set_view_mode
$LN13@select_pad:

; 3971 : 				}
; 3972 : 			}
; 3973 : 
; 3974 : 			break;

  001b6	e9 75 02 00 00	 jmp	 $LN2@select_pad
$LN14@select_pad:

; 3975 : 		}
; 3976 : 		////////////////////////////////////////
; 3977 : 		case PADLOCK_MODE_WINGMAN:
; 3978 : 		////////////////////////////////////////
; 3979 : 		{
; 3980 : 			if ((get_view_mode () == VIEW_MODE_VIRTUAL_COCKPIT_PADLOCK) && (padlock_mode == PADLOCK_MODE_WINGMAN))

  001bb	83 3d 00 00 00
	00 21		 cmp	 DWORD PTR ?view_mode@@3W4VIEW_MODES@@A, 33 ; view_mode, 00000021H
  001c2	75 3e		 jne	 SHORT $LN15@select_pad
  001c4	83 3d 00 00 00
	00 01		 cmp	 DWORD PTR ?padlock_mode@@3W4PADLOCK_MODES@@A, 1
  001cb	75 35		 jne	 SHORT $LN15@select_pad

; 3981 : 			{
; 3982 : 				//
; 3983 : 				// padlock next wingman
; 3984 : 				//
; 3985 : 
; 3986 : 				target = get_next_wingman ();

  001cd	e8 00 00 00 00	 call	 ?get_next_wingman@@YGPAUENTITY@@XZ ; get_next_wingman
  001d2	89 45 f8	 mov	 DWORD PTR _target$[ebp], eax

; 3987 : 
; 3988 : 				if (target)

  001d5	83 7d f8 00	 cmp	 DWORD PTR _target$[ebp], 0
  001d9	74 25		 je	 SHORT $LN17@select_pad

; 3989 : 				{
; 3990 : 					unlink_local_entity_children (source, LIST_TYPE_PADLOCK);

  001db	6a 1b		 push	 27			; 0000001bH
  001dd	8b 45 fc	 mov	 eax, DWORD PTR _source$[ebp]
  001e0	50		 push	 eax
  001e1	e8 00 00 00 00	 call	 ?unlink_local_entity_children@@YGXPAUENTITY@@W4LIST_TYPES@@@Z ; unlink_local_entity_children

; 3991 : 
; 3992 : 					insert_local_entity_into_parents_child_list (target, LIST_TYPE_PADLOCK, source, NULL);

  001e6	6a 00		 push	 0
  001e8	8b 45 fc	 mov	 eax, DWORD PTR _source$[ebp]
  001eb	50		 push	 eax
  001ec	6a 1b		 push	 27			; 0000001bH
  001ee	8b 4d f8	 mov	 ecx, DWORD PTR _target$[ebp]
  001f1	51		 push	 ecx
  001f2	e8 00 00 00 00	 call	 ?insert_local_entity_into_parents_child_list@@YGXPAUENTITY@@W4LIST_TYPES@@00@Z ; insert_local_entity_into_parents_child_list

; 3993 : 
; 3994 : 					display_padlock_message (mode);

  001f7	8b 45 08	 mov	 eax, DWORD PTR _mode$[ebp]
  001fa	50		 push	 eax
  001fb	e8 00 00 00 00	 call	 ?display_padlock_message@@YGXW4PADLOCK_MODES@@@Z ; display_padlock_message
$LN17@select_pad:

; 3995 : 				}
; 3996 : 			}
; 3997 : 			else

  00200	eb 37		 jmp	 SHORT $LN18@select_pad
$LN15@select_pad:

; 3998 : 			{
; 3999 : 				//
; 4000 : 				// padlock first wingman
; 4001 : 				//
; 4002 : 
; 4003 : 				target = get_first_wingman ();

  00202	e8 00 00 00 00	 call	 ?get_first_wingman@@YGPAUENTITY@@XZ ; get_first_wingman
  00207	89 45 f8	 mov	 DWORD PTR _target$[ebp], eax

; 4004 : 
; 4005 : 				if (target)

  0020a	83 7d f8 00	 cmp	 DWORD PTR _target$[ebp], 0
  0020e	74 29		 je	 SHORT $LN18@select_pad

; 4006 : 				{
; 4007 : 					//
; 4008 : 					// leave_padlock_view () tidies up padlock list and mode
; 4009 : 					//
; 4010 : 
; 4011 : 					set_view_mode (VIEW_MODE_VIRTUAL_COCKPIT_PADLOCK);

  00210	6a 21		 push	 33			; 00000021H
  00212	e8 00 00 00 00	 call	 ?set_view_mode@@YGHW4VIEW_MODES@@@Z ; set_view_mode

; 4012 : 
; 4013 : 					insert_local_entity_into_parents_child_list (target, LIST_TYPE_PADLOCK, source, NULL);

  00217	6a 00		 push	 0
  00219	8b 45 fc	 mov	 eax, DWORD PTR _source$[ebp]
  0021c	50		 push	 eax
  0021d	6a 1b		 push	 27			; 0000001bH
  0021f	8b 4d f8	 mov	 ecx, DWORD PTR _target$[ebp]
  00222	51		 push	 ecx
  00223	e8 00 00 00 00	 call	 ?insert_local_entity_into_parents_child_list@@YGXPAUENTITY@@W4LIST_TYPES@@00@Z ; insert_local_entity_into_parents_child_list

; 4014 : 
; 4015 : 					padlock_mode = mode;

  00228	8b 45 08	 mov	 eax, DWORD PTR _mode$[ebp]
  0022b	a3 00 00 00 00	 mov	 DWORD PTR ?padlock_mode@@3W4PADLOCK_MODES@@A, eax

; 4016 : 
; 4017 : 					display_padlock_message (mode);

  00230	8b 45 08	 mov	 eax, DWORD PTR _mode$[ebp]
  00233	50		 push	 eax
  00234	e8 00 00 00 00	 call	 ?display_padlock_message@@YGXW4PADLOCK_MODES@@@Z ; display_padlock_message
$LN18@select_pad:

; 4018 : 				}
; 4019 : 			}
; 4020 : 
; 4021 : 			break;

  00239	e9 f2 01 00 00	 jmp	 $LN2@select_pad
$LN19@select_pad:

; 4022 : 		}
; 4023 : 		////////////////////////////////////////
; 4024 : 		case PADLOCK_MODE_AIR_THREAT:
; 4025 : 		////////////////////////////////////////
; 4026 : 		{
; 4027 : 			if ((get_view_mode () == VIEW_MODE_VIRTUAL_COCKPIT_PADLOCK) && (padlock_mode == PADLOCK_MODE_AIR_THREAT))

  0023e	83 3d 00 00 00
	00 21		 cmp	 DWORD PTR ?view_mode@@3W4VIEW_MODES@@A, 33 ; view_mode, 00000021H
  00245	75 3e		 jne	 SHORT $LN20@select_pad
  00247	83 3d 00 00 00
	00 02		 cmp	 DWORD PTR ?padlock_mode@@3W4PADLOCK_MODES@@A, 2
  0024e	75 35		 jne	 SHORT $LN20@select_pad

; 4028 : 			{
; 4029 : 				//
; 4030 : 				// padlock next air threat
; 4031 : 				//
; 4032 : 
; 4033 : 				target = get_next_air_threat ();

  00250	e8 00 00 00 00	 call	 ?get_next_air_threat@@YGPAUENTITY@@XZ ; get_next_air_threat
  00255	89 45 f8	 mov	 DWORD PTR _target$[ebp], eax

; 4034 : 
; 4035 : 				if (target)

  00258	83 7d f8 00	 cmp	 DWORD PTR _target$[ebp], 0
  0025c	74 25		 je	 SHORT $LN22@select_pad

; 4036 : 				{
; 4037 : 					unlink_local_entity_children (source, LIST_TYPE_PADLOCK);

  0025e	6a 1b		 push	 27			; 0000001bH
  00260	8b 45 fc	 mov	 eax, DWORD PTR _source$[ebp]
  00263	50		 push	 eax
  00264	e8 00 00 00 00	 call	 ?unlink_local_entity_children@@YGXPAUENTITY@@W4LIST_TYPES@@@Z ; unlink_local_entity_children

; 4038 : 
; 4039 : 					insert_local_entity_into_parents_child_list (target, LIST_TYPE_PADLOCK, source, NULL);

  00269	6a 00		 push	 0
  0026b	8b 45 fc	 mov	 eax, DWORD PTR _source$[ebp]
  0026e	50		 push	 eax
  0026f	6a 1b		 push	 27			; 0000001bH
  00271	8b 4d f8	 mov	 ecx, DWORD PTR _target$[ebp]
  00274	51		 push	 ecx
  00275	e8 00 00 00 00	 call	 ?insert_local_entity_into_parents_child_list@@YGXPAUENTITY@@W4LIST_TYPES@@00@Z ; insert_local_entity_into_parents_child_list

; 4040 : 
; 4041 : 					display_padlock_message (mode);

  0027a	8b 45 08	 mov	 eax, DWORD PTR _mode$[ebp]
  0027d	50		 push	 eax
  0027e	e8 00 00 00 00	 call	 ?display_padlock_message@@YGXW4PADLOCK_MODES@@@Z ; display_padlock_message
$LN22@select_pad:

; 4042 : 				}
; 4043 : 			}
; 4044 : 			else

  00283	eb 37		 jmp	 SHORT $LN23@select_pad
$LN20@select_pad:

; 4045 : 			{
; 4046 : 				//
; 4047 : 				// padlock first air threat
; 4048 : 				//
; 4049 : 
; 4050 : 				target = get_first_air_threat ();

  00285	e8 00 00 00 00	 call	 ?get_first_air_threat@@YGPAUENTITY@@XZ ; get_first_air_threat
  0028a	89 45 f8	 mov	 DWORD PTR _target$[ebp], eax

; 4051 : 
; 4052 : 				if (target)

  0028d	83 7d f8 00	 cmp	 DWORD PTR _target$[ebp], 0
  00291	74 29		 je	 SHORT $LN23@select_pad

; 4053 : 				{
; 4054 : 					//
; 4055 : 					// leave_padlock_view () tidies up padlock list and mode
; 4056 : 					//
; 4057 : 
; 4058 : 					set_view_mode (VIEW_MODE_VIRTUAL_COCKPIT_PADLOCK);

  00293	6a 21		 push	 33			; 00000021H
  00295	e8 00 00 00 00	 call	 ?set_view_mode@@YGHW4VIEW_MODES@@@Z ; set_view_mode

; 4059 : 
; 4060 : 					insert_local_entity_into_parents_child_list (target, LIST_TYPE_PADLOCK, source, NULL);

  0029a	6a 00		 push	 0
  0029c	8b 45 fc	 mov	 eax, DWORD PTR _source$[ebp]
  0029f	50		 push	 eax
  002a0	6a 1b		 push	 27			; 0000001bH
  002a2	8b 4d f8	 mov	 ecx, DWORD PTR _target$[ebp]
  002a5	51		 push	 ecx
  002a6	e8 00 00 00 00	 call	 ?insert_local_entity_into_parents_child_list@@YGXPAUENTITY@@W4LIST_TYPES@@00@Z ; insert_local_entity_into_parents_child_list

; 4061 : 
; 4062 : 					padlock_mode = mode;

  002ab	8b 45 08	 mov	 eax, DWORD PTR _mode$[ebp]
  002ae	a3 00 00 00 00	 mov	 DWORD PTR ?padlock_mode@@3W4PADLOCK_MODES@@A, eax

; 4063 : 
; 4064 : 					display_padlock_message (mode);

  002b3	8b 45 08	 mov	 eax, DWORD PTR _mode$[ebp]
  002b6	50		 push	 eax
  002b7	e8 00 00 00 00	 call	 ?display_padlock_message@@YGXW4PADLOCK_MODES@@@Z ; display_padlock_message
$LN23@select_pad:

; 4065 : 				}
; 4066 : 			}
; 4067 : 
; 4068 : 			break;

  002bc	e9 6f 01 00 00	 jmp	 $LN2@select_pad
$LN24@select_pad:

; 4069 : 		}
; 4070 : 		////////////////////////////////////////
; 4071 : 		case PADLOCK_MODE_GROUND_THREAT:
; 4072 : 		////////////////////////////////////////
; 4073 : 		{
; 4074 : 			if ((get_view_mode () == VIEW_MODE_VIRTUAL_COCKPIT_PADLOCK) && (padlock_mode == PADLOCK_MODE_GROUND_THREAT))

  002c1	83 3d 00 00 00
	00 21		 cmp	 DWORD PTR ?view_mode@@3W4VIEW_MODES@@A, 33 ; view_mode, 00000021H
  002c8	75 3e		 jne	 SHORT $LN25@select_pad
  002ca	83 3d 00 00 00
	00 03		 cmp	 DWORD PTR ?padlock_mode@@3W4PADLOCK_MODES@@A, 3
  002d1	75 35		 jne	 SHORT $LN25@select_pad

; 4075 : 			{
; 4076 : 				//
; 4077 : 				// padlock next ground threat
; 4078 : 				//
; 4079 : 
; 4080 : 				target = get_next_ground_threat ();

  002d3	e8 00 00 00 00	 call	 ?get_next_ground_threat@@YGPAUENTITY@@XZ ; get_next_ground_threat
  002d8	89 45 f8	 mov	 DWORD PTR _target$[ebp], eax

; 4081 : 
; 4082 : 				if (target)

  002db	83 7d f8 00	 cmp	 DWORD PTR _target$[ebp], 0
  002df	74 25		 je	 SHORT $LN27@select_pad

; 4083 : 				{
; 4084 : 					unlink_local_entity_children (source, LIST_TYPE_PADLOCK);

  002e1	6a 1b		 push	 27			; 0000001bH
  002e3	8b 45 fc	 mov	 eax, DWORD PTR _source$[ebp]
  002e6	50		 push	 eax
  002e7	e8 00 00 00 00	 call	 ?unlink_local_entity_children@@YGXPAUENTITY@@W4LIST_TYPES@@@Z ; unlink_local_entity_children

; 4085 : 
; 4086 : 					insert_local_entity_into_parents_child_list (target, LIST_TYPE_PADLOCK, source, NULL);

  002ec	6a 00		 push	 0
  002ee	8b 45 fc	 mov	 eax, DWORD PTR _source$[ebp]
  002f1	50		 push	 eax
  002f2	6a 1b		 push	 27			; 0000001bH
  002f4	8b 4d f8	 mov	 ecx, DWORD PTR _target$[ebp]
  002f7	51		 push	 ecx
  002f8	e8 00 00 00 00	 call	 ?insert_local_entity_into_parents_child_list@@YGXPAUENTITY@@W4LIST_TYPES@@00@Z ; insert_local_entity_into_parents_child_list

; 4087 : 
; 4088 : 					display_padlock_message (mode);

  002fd	8b 45 08	 mov	 eax, DWORD PTR _mode$[ebp]
  00300	50		 push	 eax
  00301	e8 00 00 00 00	 call	 ?display_padlock_message@@YGXW4PADLOCK_MODES@@@Z ; display_padlock_message
$LN27@select_pad:

; 4089 : 				}
; 4090 : 			}
; 4091 : 			else

  00306	eb 37		 jmp	 SHORT $LN28@select_pad
$LN25@select_pad:

; 4092 : 			{
; 4093 : 				//
; 4094 : 				// padlock first ground threat
; 4095 : 				//
; 4096 : 
; 4097 : 				target = get_first_ground_threat ();

  00308	e8 00 00 00 00	 call	 ?get_first_ground_threat@@YGPAUENTITY@@XZ ; get_first_ground_threat
  0030d	89 45 f8	 mov	 DWORD PTR _target$[ebp], eax

; 4098 : 
; 4099 : 				if (target)

  00310	83 7d f8 00	 cmp	 DWORD PTR _target$[ebp], 0
  00314	74 29		 je	 SHORT $LN28@select_pad

; 4100 : 				{
; 4101 : 					//
; 4102 : 					// leave_padlock_view () tidies up padlock list and mode
; 4103 : 					//
; 4104 : 
; 4105 : 					set_view_mode (VIEW_MODE_VIRTUAL_COCKPIT_PADLOCK);

  00316	6a 21		 push	 33			; 00000021H
  00318	e8 00 00 00 00	 call	 ?set_view_mode@@YGHW4VIEW_MODES@@@Z ; set_view_mode

; 4106 : 
; 4107 : 					insert_local_entity_into_parents_child_list (target, LIST_TYPE_PADLOCK, source, NULL);

  0031d	6a 00		 push	 0
  0031f	8b 45 fc	 mov	 eax, DWORD PTR _source$[ebp]
  00322	50		 push	 eax
  00323	6a 1b		 push	 27			; 0000001bH
  00325	8b 4d f8	 mov	 ecx, DWORD PTR _target$[ebp]
  00328	51		 push	 ecx
  00329	e8 00 00 00 00	 call	 ?insert_local_entity_into_parents_child_list@@YGXPAUENTITY@@W4LIST_TYPES@@00@Z ; insert_local_entity_into_parents_child_list

; 4108 : 
; 4109 : 					padlock_mode = mode;

  0032e	8b 45 08	 mov	 eax, DWORD PTR _mode$[ebp]
  00331	a3 00 00 00 00	 mov	 DWORD PTR ?padlock_mode@@3W4PADLOCK_MODES@@A, eax

; 4110 : 
; 4111 : 					display_padlock_message (mode);

  00336	8b 45 08	 mov	 eax, DWORD PTR _mode$[ebp]
  00339	50		 push	 eax
  0033a	e8 00 00 00 00	 call	 ?display_padlock_message@@YGXW4PADLOCK_MODES@@@Z ; display_padlock_message
$LN28@select_pad:

; 4112 : 				}
; 4113 : 			}
; 4114 : 
; 4115 : 			break;

  0033f	e9 ec 00 00 00	 jmp	 $LN2@select_pad
$LN29@select_pad:

; 4116 : 		}
; 4117 : 		////////////////////////////////////////
; 4118 : 		case PADLOCK_MODE_MISSILE_THREAT:
; 4119 : 		////////////////////////////////////////
; 4120 : 		{
; 4121 : 			if ((get_view_mode () == VIEW_MODE_VIRTUAL_COCKPIT_PADLOCK) && (padlock_mode == PADLOCK_MODE_MISSILE_THREAT))

  00344	83 3d 00 00 00
	00 21		 cmp	 DWORD PTR ?view_mode@@3W4VIEW_MODES@@A, 33 ; view_mode, 00000021H
  0034b	75 3e		 jne	 SHORT $LN30@select_pad
  0034d	83 3d 00 00 00
	00 04		 cmp	 DWORD PTR ?padlock_mode@@3W4PADLOCK_MODES@@A, 4
  00354	75 35		 jne	 SHORT $LN30@select_pad

; 4122 : 			{
; 4123 : 				//
; 4124 : 				// padlock next missile threat
; 4125 : 				//
; 4126 : 
; 4127 : 				target = get_next_missile_threat ();

  00356	e8 00 00 00 00	 call	 ?get_next_missile_threat@@YGPAUENTITY@@XZ ; get_next_missile_threat
  0035b	89 45 f8	 mov	 DWORD PTR _target$[ebp], eax

; 4128 : 
; 4129 : 				if (target)

  0035e	83 7d f8 00	 cmp	 DWORD PTR _target$[ebp], 0
  00362	74 25		 je	 SHORT $LN32@select_pad

; 4130 : 				{
; 4131 : 					unlink_local_entity_children (source, LIST_TYPE_PADLOCK);

  00364	6a 1b		 push	 27			; 0000001bH
  00366	8b 45 fc	 mov	 eax, DWORD PTR _source$[ebp]
  00369	50		 push	 eax
  0036a	e8 00 00 00 00	 call	 ?unlink_local_entity_children@@YGXPAUENTITY@@W4LIST_TYPES@@@Z ; unlink_local_entity_children

; 4132 : 
; 4133 : 					insert_local_entity_into_parents_child_list (target, LIST_TYPE_PADLOCK, source, NULL);

  0036f	6a 00		 push	 0
  00371	8b 45 fc	 mov	 eax, DWORD PTR _source$[ebp]
  00374	50		 push	 eax
  00375	6a 1b		 push	 27			; 0000001bH
  00377	8b 4d f8	 mov	 ecx, DWORD PTR _target$[ebp]
  0037a	51		 push	 ecx
  0037b	e8 00 00 00 00	 call	 ?insert_local_entity_into_parents_child_list@@YGXPAUENTITY@@W4LIST_TYPES@@00@Z ; insert_local_entity_into_parents_child_list

; 4134 : 
; 4135 : 					display_padlock_message (mode);

  00380	8b 45 08	 mov	 eax, DWORD PTR _mode$[ebp]
  00383	50		 push	 eax
  00384	e8 00 00 00 00	 call	 ?display_padlock_message@@YGXW4PADLOCK_MODES@@@Z ; display_padlock_message
$LN32@select_pad:

; 4136 : 				}
; 4137 : 			}
; 4138 : 			else

  00389	eb 37		 jmp	 SHORT $LN33@select_pad
$LN30@select_pad:

; 4139 : 			{
; 4140 : 				//
; 4141 : 				// padlock first missile threat
; 4142 : 				//
; 4143 : 
; 4144 : 				target = get_first_missile_threat ();

  0038b	e8 00 00 00 00	 call	 ?get_first_missile_threat@@YGPAUENTITY@@XZ ; get_first_missile_threat
  00390	89 45 f8	 mov	 DWORD PTR _target$[ebp], eax

; 4145 : 
; 4146 : 				if (target)

  00393	83 7d f8 00	 cmp	 DWORD PTR _target$[ebp], 0
  00397	74 29		 je	 SHORT $LN33@select_pad

; 4147 : 				{
; 4148 : 					//
; 4149 : 					// leave_padlock_view () tidies up padlock list and mode
; 4150 : 					//
; 4151 : 
; 4152 : 					set_view_mode (VIEW_MODE_VIRTUAL_COCKPIT_PADLOCK);

  00399	6a 21		 push	 33			; 00000021H
  0039b	e8 00 00 00 00	 call	 ?set_view_mode@@YGHW4VIEW_MODES@@@Z ; set_view_mode

; 4153 : 
; 4154 : 					insert_local_entity_into_parents_child_list (target, LIST_TYPE_PADLOCK, source, NULL);

  003a0	6a 00		 push	 0
  003a2	8b 45 fc	 mov	 eax, DWORD PTR _source$[ebp]
  003a5	50		 push	 eax
  003a6	6a 1b		 push	 27			; 0000001bH
  003a8	8b 4d f8	 mov	 ecx, DWORD PTR _target$[ebp]
  003ab	51		 push	 ecx
  003ac	e8 00 00 00 00	 call	 ?insert_local_entity_into_parents_child_list@@YGXPAUENTITY@@W4LIST_TYPES@@00@Z ; insert_local_entity_into_parents_child_list

; 4155 : 
; 4156 : 					padlock_mode = mode;

  003b1	8b 45 08	 mov	 eax, DWORD PTR _mode$[ebp]
  003b4	a3 00 00 00 00	 mov	 DWORD PTR ?padlock_mode@@3W4PADLOCK_MODES@@A, eax

; 4157 : 
; 4158 : 					display_padlock_message (mode);

  003b9	8b 45 08	 mov	 eax, DWORD PTR _mode$[ebp]
  003bc	50		 push	 eax
  003bd	e8 00 00 00 00	 call	 ?display_padlock_message@@YGXW4PADLOCK_MODES@@@Z ; display_padlock_message
$LN33@select_pad:

; 4159 : 				}
; 4160 : 			}
; 4161 : 
; 4162 : 			break;

  003c2	eb 6c		 jmp	 SHORT $LN2@select_pad
$LN34@select_pad:

; 4163 : 		}
; 4164 : 		////////////////////////////////////////
; 4165 : 		case PADLOCK_MODE_WAYPOINT:
; 4166 : 		////////////////////////////////////////
; 4167 : 		{
; 4168 : 			if ((get_view_mode () == VIEW_MODE_VIRTUAL_COCKPIT_PADLOCK) && (padlock_mode == PADLOCK_MODE_WAYPOINT))

  003c4	83 3d 00 00 00
	00 21		 cmp	 DWORD PTR ?view_mode@@3W4VIEW_MODES@@A, 33 ; view_mode, 00000021H
  003cb	75 26		 jne	 SHORT $LN35@select_pad
  003cd	83 3d 00 00 00
	00 05		 cmp	 DWORD PTR ?padlock_mode@@3W4PADLOCK_MODES@@A, 5
  003d4	75 1d		 jne	 SHORT $LN35@select_pad

; 4169 : 			{
; 4170 : 				target = get_local_entity_current_waypoint (source);

  003d6	8b 45 fc	 mov	 eax, DWORD PTR _source$[ebp]
  003d9	50		 push	 eax
  003da	e8 00 00 00 00	 call	 ?get_local_entity_current_waypoint@@YGPAUENTITY@@PAU1@@Z ; get_local_entity_current_waypoint
  003df	89 45 f8	 mov	 DWORD PTR _target$[ebp], eax

; 4171 : 
; 4172 : 				if (target)

  003e2	83 7d f8 00	 cmp	 DWORD PTR _target$[ebp], 0
  003e6	74 09		 je	 SHORT $LN37@select_pad

; 4173 : 				{
; 4174 : 					display_padlock_message (mode);

  003e8	8b 45 08	 mov	 eax, DWORD PTR _mode$[ebp]
  003eb	50		 push	 eax
  003ec	e8 00 00 00 00	 call	 ?display_padlock_message@@YGXW4PADLOCK_MODES@@@Z ; display_padlock_message
$LN37@select_pad:

; 4175 : 				}
; 4176 : 			}
; 4177 : 			else

  003f1	eb 2a		 jmp	 SHORT $LN38@select_pad
$LN35@select_pad:

; 4178 : 			{
; 4179 : 				target = get_local_entity_current_waypoint (source);

  003f3	8b 45 fc	 mov	 eax, DWORD PTR _source$[ebp]
  003f6	50		 push	 eax
  003f7	e8 00 00 00 00	 call	 ?get_local_entity_current_waypoint@@YGPAUENTITY@@PAU1@@Z ; get_local_entity_current_waypoint
  003fc	89 45 f8	 mov	 DWORD PTR _target$[ebp], eax

; 4180 : 
; 4181 : 				if (target)

  003ff	83 7d f8 00	 cmp	 DWORD PTR _target$[ebp], 0
  00403	74 18		 je	 SHORT $LN38@select_pad

; 4182 : 				{
; 4183 : 					//
; 4184 : 					// leave_padlock_view () tidies up padlock list and mode
; 4185 : 					//
; 4186 : 
; 4187 : 					set_view_mode (VIEW_MODE_VIRTUAL_COCKPIT_PADLOCK);

  00405	6a 21		 push	 33			; 00000021H
  00407	e8 00 00 00 00	 call	 ?set_view_mode@@YGHW4VIEW_MODES@@@Z ; set_view_mode

; 4188 : 
; 4189 : 					padlock_mode = mode;

  0040c	8b 45 08	 mov	 eax, DWORD PTR _mode$[ebp]
  0040f	a3 00 00 00 00	 mov	 DWORD PTR ?padlock_mode@@3W4PADLOCK_MODES@@A, eax

; 4190 : 
; 4191 : 					display_padlock_message (mode);

  00414	8b 45 08	 mov	 eax, DWORD PTR _mode$[ebp]
  00417	50		 push	 eax
  00418	e8 00 00 00 00	 call	 ?display_padlock_message@@YGXW4PADLOCK_MODES@@@Z ; display_padlock_message
$LN38@select_pad:

; 4192 : 				}
; 4193 : 			}
; 4194 : 
; 4195 : 			break;

  0041d	eb 11		 jmp	 SHORT $LN2@select_pad
$LN39@select_pad:

; 4196 : 		}
; 4197 : 		////////////////////////////////////////
; 4198 : 		default:
; 4199 : 		////////////////////////////////////////
; 4200 : 		{
; 4201 : 			debug_fatal ("Invalid padlock mode = %d", mode);

  0041f	8b 45 08	 mov	 eax, DWORD PTR _mode$[ebp]
  00422	50		 push	 eax
  00423	68 00 00 00 00	 push	 OFFSET ??_C@_0BK@FCBJMFAH@Invalid?5padlock?5mode?5?$DN?5?$CFd@
  00428	e8 00 00 00 00	 call	 ?debug_fatal@@YAXPBDZZ	; debug_fatal
  0042d	83 c4 08	 add	 esp, 8
$LN2@select_pad:

; 4202 : 
; 4203 : 			break;
; 4204 : 		}
; 4205 : 	}
; 4206 : }

  00430	5f		 pop	 edi
  00431	5e		 pop	 esi
  00432	5b		 pop	 ebx
  00433	8b e5		 mov	 esp, ebp
  00435	5d		 pop	 ebp
  00436	c2 04 00	 ret	 4
  00439	0f 1f 00	 npad	 3
$LN45@select_pad:
  0043c	00 00 00 00	 DD	 $LN5@select_pad
  00440	00 00 00 00	 DD	 $LN14@select_pad
  00444	00 00 00 00	 DD	 $LN19@select_pad
  00448	00 00 00 00	 DD	 $LN24@select_pad
  0044c	00 00 00 00	 DD	 $LN29@select_pad
  00450	00 00 00 00	 DD	 $LN34@select_pad
?select_padlock_view_event@@YGXW4PADLOCK_MODES@@@Z ENDP	; select_padlock_view_event
_TEXT	ENDS
; Function compile flags: /Odtp /ZI
; File c:\users\nhv90\projects\eech\aphavoc\source\gunships\views\vm_vckpt.c
;	COMDAT ?leave_padlock_view@@YGXXZ
_TEXT	SEGMENT
?leave_padlock_view@@YGXXZ PROC				; leave_padlock_view, COMDAT

; 3126 : {

  00000	55		 push	 ebp
  00001	8b ec		 mov	 ebp, esp
  00003	83 ec 40	 sub	 esp, 64			; 00000040H
  00006	53		 push	 ebx
  00007	56		 push	 esi
  00008	57		 push	 edi

; 3127 : 	if (get_gunship_entity ())

  00009	83 3d 00 00 00
	00 00		 cmp	 DWORD PTR ?gunship_entity@@3PAUENTITY@@A, 0 ; gunship_entity
  00010	74 0d		 je	 SHORT $LN2@leave_padl

; 3128 : 	{
; 3129 : 		unlink_local_entity_children (get_gunship_entity (), LIST_TYPE_PADLOCK);

  00012	6a 1b		 push	 27			; 0000001bH
  00014	a1 00 00 00 00	 mov	 eax, DWORD PTR ?gunship_entity@@3PAUENTITY@@A ; gunship_entity
  00019	50		 push	 eax
  0001a	e8 00 00 00 00	 call	 ?unlink_local_entity_children@@YGXPAUENTITY@@W4LIST_TYPES@@@Z ; unlink_local_entity_children
$LN2@leave_padl:

; 3130 : 	}
; 3131 : 
; 3132 : 	padlock_mode = PADLOCK_MODE_NONE;

  0001f	c7 05 00 00 00
	00 00 00 00 00	 mov	 DWORD PTR ?padlock_mode@@3W4PADLOCK_MODES@@A, 0

; 3133 : }

  00029	5f		 pop	 edi
  0002a	5e		 pop	 esi
  0002b	5b		 pop	 ebx
  0002c	8b e5		 mov	 esp, ebp
  0002e	5d		 pop	 ebp
  0002f	c3		 ret	 0
?leave_padlock_view@@YGXXZ ENDP				; leave_padlock_view
_TEXT	ENDS
; Function compile flags: /Odtp /ZI
; File c:\users\nhv90\projects\eech\aphavoc\source\gunships\views\vm_vckpt.c
;	COMDAT ?get_padlock_mode@@YG?AW4PADLOCK_MODES@@XZ
_TEXT	SEGMENT
?get_padlock_mode@@YG?AW4PADLOCK_MODES@@XZ PROC		; get_padlock_mode, COMDAT

; 3113 : {

  00000	55		 push	 ebp
  00001	8b ec		 mov	 ebp, esp
  00003	83 ec 40	 sub	 esp, 64			; 00000040H
  00006	53		 push	 ebx
  00007	56		 push	 esi
  00008	57		 push	 edi

; 3114 : 	return (padlock_mode);

  00009	a1 00 00 00 00	 mov	 eax, DWORD PTR ?padlock_mode@@3W4PADLOCK_MODES@@A

; 3115 : }

  0000e	5f		 pop	 edi
  0000f	5e		 pop	 esi
  00010	5b		 pop	 ebx
  00011	8b e5		 mov	 esp, ebp
  00013	5d		 pop	 ebp
  00014	c3		 ret	 0
?get_padlock_mode@@YG?AW4PADLOCK_MODES@@XZ ENDP		; get_padlock_mode
_TEXT	ENDS
; Function compile flags: /Odtp /ZI
; File c:\users\nhv90\projects\eech\aphavoc\source\gunships\views\vm_vckpt.c
;	COMDAT ?leave_seat_position@@YGXW4VIEW_MODES@@0@Z
_TEXT	SEGMENT
_new_view_mode$ = 8					; size = 4
_old_view_mode$ = 12					; size = 4
?leave_seat_position@@YGXW4VIEW_MODES@@0@Z PROC		; leave_seat_position, COMDAT

; 3079 : {

  00000	55		 push	 ebp
  00001	8b ec		 mov	 ebp, esp
  00003	83 ec 40	 sub	 esp, 64			; 00000040H
  00006	53		 push	 ebx
  00007	56		 push	 esi
  00008	57		 push	 edi

; 3080 : 	if (!in_cockpit_flags[new_view_mode] && in_cockpit_flags[old_view_mode])

  00009	8b 45 08	 mov	 eax, DWORD PTR _new_view_mode$[ebp]
  0000c	83 3c 85 00 00
	00 00 00	 cmp	 DWORD PTR ?in_cockpit_flags@@3PAHA[eax*4], 0
  00014	75 44		 jne	 SHORT $LN1@leave_seat
  00016	8b 45 0c	 mov	 eax, DWORD PTR _old_view_mode$[ebp]
  00019	83 3c 85 00 00
	00 00 00	 cmp	 DWORD PTR ?in_cockpit_flags@@3PAHA[eax*4], 0
  00021	74 37		 je	 SHORT $LN1@leave_seat

; 3081 : 	{
; 3082 : 		if (get_gunship_entity ())

  00023	83 3d 00 00 00
	00 00		 cmp	 DWORD PTR ?gunship_entity@@3PAUENTITY@@A, 0 ; gunship_entity
  0002a	74 2e		 je	 SHORT $LN1@leave_seat

; 3083 : 		{
; 3084 : 			if (get_comanche_hokum_gunship ())

  0002c	a1 0c 00 00 00	 mov	 eax, DWORD PTR ?global_options@@3UGLOBAL_OPTIONS_DATA@@A+12
  00031	0f b6 88 00 00
	00 00		 movzx	 ecx, BYTE PTR ?new_gunship@@3QBDB[eax]
  00038	85 c9		 test	 ecx, ecx
  0003a	74 1e		 je	 SHORT $LN1@leave_seat

; 3085 : 			{
; 3086 : 				if (get_pilot_entity ())

  0003c	83 3d 00 00 00
	00 00		 cmp	 DWORD PTR ?pilot_entity@@3PAUENTITY@@A, 0 ; pilot_entity
  00043	74 15		 je	 SHORT $LN1@leave_seat

; 3087 : 				{
; 3088 : 					if (get_crew_role () == CREW_ROLE_PILOT)

  00045	e8 00 00 00 00	 call	 ?get_crew_role@@YG?AW4CREW_ROLES@@XZ ; get_crew_role
  0004a	85 c0		 test	 eax, eax
  0004c	75 07		 jne	 SHORT $LN6@leave_seat

; 3089 : 					{
; 3090 : 						store_pilot_seat_values ();

  0004e	e8 00 00 00 00	 call	 ?store_pilot_seat_values@@YGXXZ ; store_pilot_seat_values

; 3091 : 					}
; 3092 : 					else

  00053	eb 05		 jmp	 SHORT $LN1@leave_seat
$LN6@leave_seat:

; 3093 : 					{
; 3094 : 						store_co_pilot_seat_values ();

  00055	e8 00 00 00 00	 call	 ?store_co_pilot_seat_values@@YGXXZ ; store_co_pilot_seat_values
$LN1@leave_seat:

; 3095 : 					}
; 3096 : 				}
; 3097 : 			}
; 3098 : 		}
; 3099 : 	}
; 3100 : }

  0005a	5f		 pop	 edi
  0005b	5e		 pop	 esi
  0005c	5b		 pop	 ebx
  0005d	8b e5		 mov	 esp, ebp
  0005f	5d		 pop	 ebp
  00060	c2 08 00	 ret	 8
?leave_seat_position@@YGXW4VIEW_MODES@@0@Z ENDP		; leave_seat_position
_TEXT	ENDS
; Function compile flags: /Odtp /ZI
; File c:\users\nhv90\projects\eech\aphavoc\source\gunships\views\vm_vckpt.c
;	COMDAT ?set_co_pilot_seat_position@@YGXXZ
_TEXT	SEGMENT
?set_co_pilot_seat_position@@YGXXZ PROC			; set_co_pilot_seat_position, COMDAT

; 3049 : {

  00000	55		 push	 ebp
  00001	8b ec		 mov	 ebp, esp
  00003	83 ec 40	 sub	 esp, 64			; 00000040H
  00006	53		 push	 ebx
  00007	56		 push	 esi
  00008	57		 push	 edi

; 3050 : 	ASSERT (get_gunship_entity ());

  00009	83 3d 00 00 00
	00 00		 cmp	 DWORD PTR ?gunship_entity@@3PAUENTITY@@A, 0 ; gunship_entity
  00010	75 18		 jne	 SHORT $LN2@set_co_pil
  00012	a1 00 00 00 00	 mov	 eax, DWORD PTR ?__LINE__Var@?0??set_co_pilot_seat_position@@YGXXZ@4JA
  00017	83 c0 01	 add	 eax, 1
  0001a	50		 push	 eax
  0001b	68 00 00 00 00	 push	 OFFSET ??_C@_0EG@KKKJIDAO@c?3?2users?2nhv90?2projects?2eech?2ap@
  00020	68 00 00 00 00	 push	 OFFSET ??_C@_0BG@EANNPEON@get_gunship_entity?5?$CI?$CJ@
  00025	e8 00 00 00 00	 call	 ?process_assert@@YGXPBD0H@Z ; process_assert
$LN2@set_co_pil:

; 3051 : 
; 3052 : 	ASSERT (get_comanche_hokum_gunship () && get_global_gunship_type () != GUNSHIP_TYPE_KA50);

  0002a	a1 0c 00 00 00	 mov	 eax, DWORD PTR ?global_options@@3UGLOBAL_OPTIONS_DATA@@A+12
  0002f	0f b6 88 00 00
	00 00		 movzx	 ecx, BYTE PTR ?new_gunship@@3QBDB[eax]
  00036	85 c9		 test	 ecx, ecx
  00038	74 09		 je	 SHORT $LN4@set_co_pil
  0003a	83 3d 0c 00 00
	00 07		 cmp	 DWORD PTR ?global_options@@3UGLOBAL_OPTIONS_DATA@@A+12, 7
  00041	75 18		 jne	 SHORT $LN3@set_co_pil
$LN4@set_co_pil:
  00043	a1 00 00 00 00	 mov	 eax, DWORD PTR ?__LINE__Var@?0??set_co_pilot_seat_position@@YGXXZ@4JA
  00048	83 c0 03	 add	 eax, 3
  0004b	50		 push	 eax
  0004c	68 00 00 00 00	 push	 OFFSET ??_C@_0EG@KKKJIDAO@c?3?2users?2nhv90?2projects?2eech?2ap@
  00051	68 00 00 00 00	 push	 OFFSET ??_C@_0FB@GEHMKJHJ@get_comanche_hokum_gunship?5?$CI?$CJ?5?$CG@
  00056	e8 00 00 00 00	 call	 ?process_assert@@YGXPBD0H@Z ; process_assert
$LN3@set_co_pil:

; 3053 : 
; 3054 : 	ASSERT (get_pilot_entity ());

  0005b	83 3d 00 00 00
	00 00		 cmp	 DWORD PTR ?pilot_entity@@3PAUENTITY@@A, 0 ; pilot_entity
  00062	75 18		 jne	 SHORT $LN5@set_co_pil
  00064	a1 00 00 00 00	 mov	 eax, DWORD PTR ?__LINE__Var@?0??set_co_pilot_seat_position@@YGXXZ@4JA
  00069	83 c0 05	 add	 eax, 5
  0006c	50		 push	 eax
  0006d	68 00 00 00 00	 push	 OFFSET ??_C@_0EG@KKKJIDAO@c?3?2users?2nhv90?2projects?2eech?2ap@
  00072	68 00 00 00 00	 push	 OFFSET ??_C@_0BE@KOLCCDEB@get_pilot_entity?5?$CI?$CJ@
  00077	e8 00 00 00 00	 call	 ?process_assert@@YGXPBD0H@Z ; process_assert
$LN5@set_co_pil:

; 3055 : 
; 3056 : 	if (get_time_acceleration () == 0)

  0007c	e8 00 00 00 00	 call	 ?get_time_acceleration@@YGHXZ ; get_time_acceleration
  00081	85 c0		 test	 eax, eax
  00083	75 02		 jne	 SHORT $LN6@set_co_pil

; 3057 : 	{
; 3058 : 		return;

  00085	eb 1f		 jmp	 SHORT $LN1@set_co_pil
$LN6@set_co_pil:

; 3059 : 	}
; 3060 : 
; 3061 : 	if (get_crew_role () == CREW_ROLE_CO_PILOT)

  00087	e8 00 00 00 00	 call	 ?get_crew_role@@YG?AW4CREW_ROLES@@XZ ; get_crew_role
  0008c	83 f8 01	 cmp	 eax, 1
  0008f	75 10		 jne	 SHORT $LN7@set_co_pil

; 3062 : 	{
; 3063 : 		if (!in_cockpit)

  00091	83 3d 00 00 00
	00 00		 cmp	 DWORD PTR ?in_cockpit@@3HA, 0 ; in_cockpit
  00098	75 05		 jne	 SHORT $LN9@set_co_pil

; 3064 : 		{
; 3065 : 			restore_co_pilot_seat_values ();

  0009a	e8 00 00 00 00	 call	 ?restore_co_pilot_seat_values@@YGXXZ ; restore_co_pilot_seat_values
$LN9@set_co_pil:

; 3066 : 		}
; 3067 : 	}
; 3068 : 	else

  0009f	eb 05		 jmp	 SHORT $LN1@set_co_pil
$LN7@set_co_pil:

; 3069 : 	{
; 3070 : 		switch_seat_position ();

  000a1	e8 00 00 00 00	 call	 ?switch_seat_position@@YGXXZ ; switch_seat_position
$LN1@set_co_pil:

; 3071 : 	}
; 3072 : }

  000a6	5f		 pop	 edi
  000a7	5e		 pop	 esi
  000a8	5b		 pop	 ebx
  000a9	8b e5		 mov	 esp, ebp
  000ab	5d		 pop	 ebp
  000ac	c3		 ret	 0
?set_co_pilot_seat_position@@YGXXZ ENDP			; set_co_pilot_seat_position
_TEXT	ENDS
; Function compile flags: /Odtp /ZI
; File c:\users\nhv90\projects\eech\aphavoc\source\gunships\views\vm_vckpt.c
;	COMDAT ?set_pilot_seat_position@@YGXXZ
_TEXT	SEGMENT
?set_pilot_seat_position@@YGXXZ PROC			; set_pilot_seat_position, COMDAT

; 3019 : {

  00000	55		 push	 ebp
  00001	8b ec		 mov	 ebp, esp
  00003	83 ec 40	 sub	 esp, 64			; 00000040H
  00006	53		 push	 ebx
  00007	56		 push	 esi
  00008	57		 push	 edi

; 3020 : 	ASSERT (get_gunship_entity ());

  00009	83 3d 00 00 00
	00 00		 cmp	 DWORD PTR ?gunship_entity@@3PAUENTITY@@A, 0 ; gunship_entity
  00010	75 18		 jne	 SHORT $LN2@set_pilot_
  00012	a1 00 00 00 00	 mov	 eax, DWORD PTR ?__LINE__Var@?0??set_pilot_seat_position@@YGXXZ@4JA
  00017	83 c0 01	 add	 eax, 1
  0001a	50		 push	 eax
  0001b	68 00 00 00 00	 push	 OFFSET ??_C@_0EG@KKKJIDAO@c?3?2users?2nhv90?2projects?2eech?2ap@
  00020	68 00 00 00 00	 push	 OFFSET ??_C@_0BG@EANNPEON@get_gunship_entity?5?$CI?$CJ@
  00025	e8 00 00 00 00	 call	 ?process_assert@@YGXPBD0H@Z ; process_assert
$LN2@set_pilot_:

; 3021 : 
; 3022 : 	ASSERT (get_comanche_hokum_gunship () && get_global_gunship_type () != GUNSHIP_TYPE_KA50);

  0002a	a1 0c 00 00 00	 mov	 eax, DWORD PTR ?global_options@@3UGLOBAL_OPTIONS_DATA@@A+12
  0002f	0f b6 88 00 00
	00 00		 movzx	 ecx, BYTE PTR ?new_gunship@@3QBDB[eax]
  00036	85 c9		 test	 ecx, ecx
  00038	74 09		 je	 SHORT $LN4@set_pilot_
  0003a	83 3d 0c 00 00
	00 07		 cmp	 DWORD PTR ?global_options@@3UGLOBAL_OPTIONS_DATA@@A+12, 7
  00041	75 18		 jne	 SHORT $LN3@set_pilot_
$LN4@set_pilot_:
  00043	a1 00 00 00 00	 mov	 eax, DWORD PTR ?__LINE__Var@?0??set_pilot_seat_position@@YGXXZ@4JA
  00048	83 c0 03	 add	 eax, 3
  0004b	50		 push	 eax
  0004c	68 00 00 00 00	 push	 OFFSET ??_C@_0EG@KKKJIDAO@c?3?2users?2nhv90?2projects?2eech?2ap@
  00051	68 00 00 00 00	 push	 OFFSET ??_C@_0FB@GEHMKJHJ@get_comanche_hokum_gunship?5?$CI?$CJ?5?$CG@
  00056	e8 00 00 00 00	 call	 ?process_assert@@YGXPBD0H@Z ; process_assert
$LN3@set_pilot_:

; 3023 : 
; 3024 : 	ASSERT (get_pilot_entity ());

  0005b	83 3d 00 00 00
	00 00		 cmp	 DWORD PTR ?pilot_entity@@3PAUENTITY@@A, 0 ; pilot_entity
  00062	75 18		 jne	 SHORT $LN5@set_pilot_
  00064	a1 00 00 00 00	 mov	 eax, DWORD PTR ?__LINE__Var@?0??set_pilot_seat_position@@YGXXZ@4JA
  00069	83 c0 05	 add	 eax, 5
  0006c	50		 push	 eax
  0006d	68 00 00 00 00	 push	 OFFSET ??_C@_0EG@KKKJIDAO@c?3?2users?2nhv90?2projects?2eech?2ap@
  00072	68 00 00 00 00	 push	 OFFSET ??_C@_0BE@KOLCCDEB@get_pilot_entity?5?$CI?$CJ@
  00077	e8 00 00 00 00	 call	 ?process_assert@@YGXPBD0H@Z ; process_assert
$LN5@set_pilot_:

; 3025 : 
; 3026 : 	if (get_time_acceleration () == 0)

  0007c	e8 00 00 00 00	 call	 ?get_time_acceleration@@YGHXZ ; get_time_acceleration
  00081	85 c0		 test	 eax, eax
  00083	75 02		 jne	 SHORT $LN6@set_pilot_

; 3027 : 	{
; 3028 : 		return;

  00085	eb 1e		 jmp	 SHORT $LN1@set_pilot_
$LN6@set_pilot_:

; 3029 : 	}
; 3030 : 
; 3031 : 	if (get_crew_role () == CREW_ROLE_PILOT)

  00087	e8 00 00 00 00	 call	 ?get_crew_role@@YG?AW4CREW_ROLES@@XZ ; get_crew_role
  0008c	85 c0		 test	 eax, eax
  0008e	75 10		 jne	 SHORT $LN7@set_pilot_

; 3032 : 	{
; 3033 : 		if (!in_cockpit)

  00090	83 3d 00 00 00
	00 00		 cmp	 DWORD PTR ?in_cockpit@@3HA, 0 ; in_cockpit
  00097	75 05		 jne	 SHORT $LN9@set_pilot_

; 3034 : 		{
; 3035 : 			restore_pilot_seat_values ();

  00099	e8 00 00 00 00	 call	 ?restore_pilot_seat_values@@YGXXZ ; restore_pilot_seat_values
$LN9@set_pilot_:

; 3036 : 		}
; 3037 : 	}
; 3038 : 	else

  0009e	eb 05		 jmp	 SHORT $LN1@set_pilot_
$LN7@set_pilot_:

; 3039 : 	{
; 3040 : 		switch_seat_position ();

  000a0	e8 00 00 00 00	 call	 ?switch_seat_position@@YGXXZ ; switch_seat_position
$LN1@set_pilot_:

; 3041 : 	}
; 3042 : }

  000a5	5f		 pop	 edi
  000a6	5e		 pop	 esi
  000a7	5b		 pop	 ebx
  000a8	8b e5		 mov	 esp, ebp
  000aa	5d		 pop	 ebp
  000ab	c3		 ret	 0
?set_pilot_seat_position@@YGXXZ ENDP			; set_pilot_seat_position
_TEXT	ENDS
; Function compile flags: /Odtp /ZI
; File c:\users\nhv90\projects\eech\aphavoc\source\gunships\views\vm_vckpt.c
;	COMDAT ?switch_seat_position@@YGXXZ
_TEXT	SEGMENT
tv176 = -76						; size = 4
tv150 = -76						; size = 4
tv129 = -76						; size = 4
tv182 = -72						; size = 4
tv168 = -72						; size = 4
tv156 = -72						; size = 4
tv142 = -72						; size = 4
tv90 = -72						; size = 4
_en$ = -4						; size = 4
?switch_seat_position@@YGXXZ PROC			; switch_seat_position, COMDAT

; 2928 : {

  00000	55		 push	 ebp
  00001	8b ec		 mov	 ebp, esp
  00003	83 ec 4c	 sub	 esp, 76			; 0000004cH
  00006	53		 push	 ebx
  00007	56		 push	 esi
  00008	57		 push	 edi

; 2929 : 	entity
; 2930 : 		*en;
; 2931 : 
; 2932 : 	ASSERT (get_gunship_entity ());

  00009	83 3d 00 00 00
	00 00		 cmp	 DWORD PTR ?gunship_entity@@3PAUENTITY@@A, 0 ; gunship_entity
  00010	75 18		 jne	 SHORT $LN6@switch_sea
  00012	a1 00 00 00 00	 mov	 eax, DWORD PTR ?__LINE__Var@?0??switch_seat_position@@YGXXZ@4JA
  00017	83 c0 04	 add	 eax, 4
  0001a	50		 push	 eax
  0001b	68 00 00 00 00	 push	 OFFSET ??_C@_0EG@KKKJIDAO@c?3?2users?2nhv90?2projects?2eech?2ap@
  00020	68 00 00 00 00	 push	 OFFSET ??_C@_0BG@EANNPEON@get_gunship_entity?5?$CI?$CJ@
  00025	e8 00 00 00 00	 call	 ?process_assert@@YGXPBD0H@Z ; process_assert
$LN6@switch_sea:

; 2933 : 
; 2934 : 	ASSERT (get_comanche_hokum_gunship () && get_global_gunship_type () != GUNSHIP_TYPE_KA50);

  0002a	a1 0c 00 00 00	 mov	 eax, DWORD PTR ?global_options@@3UGLOBAL_OPTIONS_DATA@@A+12
  0002f	0f b6 88 00 00
	00 00		 movzx	 ecx, BYTE PTR ?new_gunship@@3QBDB[eax]
  00036	85 c9		 test	 ecx, ecx
  00038	74 09		 je	 SHORT $LN8@switch_sea
  0003a	83 3d 0c 00 00
	00 07		 cmp	 DWORD PTR ?global_options@@3UGLOBAL_OPTIONS_DATA@@A+12, 7
  00041	75 18		 jne	 SHORT $LN7@switch_sea
$LN8@switch_sea:
  00043	a1 00 00 00 00	 mov	 eax, DWORD PTR ?__LINE__Var@?0??switch_seat_position@@YGXXZ@4JA
  00048	83 c0 06	 add	 eax, 6
  0004b	50		 push	 eax
  0004c	68 00 00 00 00	 push	 OFFSET ??_C@_0EG@KKKJIDAO@c?3?2users?2nhv90?2projects?2eech?2ap@
  00051	68 00 00 00 00	 push	 OFFSET ??_C@_0FB@GEHMKJHJ@get_comanche_hokum_gunship?5?$CI?$CJ?5?$CG@
  00056	e8 00 00 00 00	 call	 ?process_assert@@YGXPBD0H@Z ; process_assert
$LN7@switch_sea:

; 2935 : 
; 2936 : 	if (get_time_acceleration () == 0)

  0005b	e8 00 00 00 00	 call	 ?get_time_acceleration@@YGHXZ ; get_time_acceleration
  00060	85 c0		 test	 eax, eax
  00062	75 05		 jne	 SHORT $LN9@switch_sea

; 2937 : 	{
; 2938 : 		return;

  00064	e9 34 02 00 00	 jmp	 $LN1@switch_sea
$LN9@switch_sea:

; 2939 : 	}
; 2940 : 
; 2941 : 	en = get_pilot_entity ();

  00069	a1 00 00 00 00	 mov	 eax, DWORD PTR ?pilot_entity@@3PAUENTITY@@A ; pilot_entity
  0006e	89 45 fc	 mov	 DWORD PTR _en$[ebp], eax

; 2942 : 
; 2943 : 	ASSERT (en);

  00071	83 7d fc 00	 cmp	 DWORD PTR _en$[ebp], 0
  00075	75 18		 jne	 SHORT $LN10@switch_sea
  00077	a1 00 00 00 00	 mov	 eax, DWORD PTR ?__LINE__Var@?0??switch_seat_position@@YGXXZ@4JA
  0007c	83 c0 0f	 add	 eax, 15			; 0000000fH
  0007f	50		 push	 eax
  00080	68 00 00 00 00	 push	 OFFSET ??_C@_0EG@KKKJIDAO@c?3?2users?2nhv90?2projects?2eech?2ap@
  00085	68 00 00 00 00	 push	 OFFSET ??_C@_02LFNMGJAP@en@
  0008a	e8 00 00 00 00	 call	 ?process_assert@@YGXPBD0H@Z ; process_assert
$LN10@switch_sea:

; 2944 : 
; 2945 : 	if (get_local_entity_int_value (en, INT_TYPE_CREW_ROLE) == CREW_ROLE_PILOT)

  0008f	83 7d fc 00	 cmp	 DWORD PTR _en$[ebp], 0
  00093	74 0a		 je	 SHORT $LN20@switch_sea
  00095	8b 45 fc	 mov	 eax, DWORD PTR _en$[ebp]
  00098	8b 08		 mov	 ecx, DWORD PTR [eax]
  0009a	89 4d b8	 mov	 DWORD PTR tv90[ebp], ecx
  0009d	eb 1d		 jmp	 SHORT $LN21@switch_sea
$LN20@switch_sea:
  0009f	68 81 0b 00 00	 push	 2945			; 00000b81H
  000a4	68 00 00 00 00	 push	 OFFSET ??_C@_0EG@KKKJIDAO@c?3?2users?2nhv90?2projects?2eech?2ap@
  000a9	8b 15 00 00 00
	00		 mov	 edx, DWORD PTR ?null_entity_pointer_message@@3PBDB ; null_entity_pointer_message
  000af	52		 push	 edx
  000b0	e8 00 00 00 00	 call	 ?process_assert@@YGXPBD0H@Z ; process_assert
  000b5	c7 45 b8 00 00
	00 00		 mov	 DWORD PTR tv90[ebp], 0
$LN21@switch_sea:
  000bc	b8 01 00 00 00	 mov	 eax, 1
  000c1	85 c0		 test	 eax, eax
  000c3	74 09		 je	 SHORT $LN22@switch_sea
  000c5	c7 45 b4 23 00
	00 00		 mov	 DWORD PTR tv129[ebp], 35 ; 00000023H
  000cc	eb 1d		 jmp	 SHORT $LN23@switch_sea
$LN22@switch_sea:
  000ce	68 81 0b 00 00	 push	 2945			; 00000b81H
  000d3	68 00 00 00 00	 push	 OFFSET ??_C@_0EG@KKKJIDAO@c?3?2users?2nhv90?2projects?2eech?2ap@
  000d8	8b 0d 00 00 00
	00		 mov	 ecx, DWORD PTR ?overload_invalid_int_type_message@@3PBDB ; overload_invalid_int_type_message
  000de	51		 push	 ecx
  000df	e8 00 00 00 00	 call	 ?process_assert@@YGXPBD0H@Z ; process_assert
  000e4	c7 45 b4 00 00
	00 00		 mov	 DWORD PTR tv129[ebp], 0
$LN23@switch_sea:
  000eb	6a 23		 push	 35			; 00000023H
  000ed	8b 55 fc	 mov	 edx, DWORD PTR _en$[ebp]
  000f0	52		 push	 edx
  000f1	69 45 b8 5c 04
	00 00		 imul	 eax, DWORD PTR tv90[ebp], 1116
  000f8	8b 4d b4	 mov	 ecx, DWORD PTR tv129[ebp]
  000fb	8b 94 88 00 00
	00 00		 mov	 edx, DWORD PTR ?fn_get_local_entity_int_value@@3PAY0BBH@P6GHPAUENTITY@@W4INT_TYPES@@@ZA[eax+ecx*4]
  00102	ff d2		 call	 edx
  00104	85 c0		 test	 eax, eax
  00106	0f 85 d3 00 00
	00		 jne	 $LN11@switch_sea

; 2946 : 	{
; 2947 : 		////////////////////////////////////////
; 2948 : 		//
; 2949 : 		// PILOT ---> CO-PILOT
; 2950 : 		//
; 2951 : 		////////////////////////////////////////
; 2952 : 
; 2953 : 		set_local_entity_int_value (en, INT_TYPE_CREW_ROLE, CREW_ROLE_CO_PILOT);

  0010c	83 7d fc 00	 cmp	 DWORD PTR _en$[ebp], 0
  00110	74 0a		 je	 SHORT $LN24@switch_sea
  00112	8b 45 fc	 mov	 eax, DWORD PTR _en$[ebp]
  00115	8b 08		 mov	 ecx, DWORD PTR [eax]
  00117	89 4d b8	 mov	 DWORD PTR tv142[ebp], ecx
  0011a	eb 21		 jmp	 SHORT $LN25@switch_sea
$LN24@switch_sea:
  0011c	8b 15 00 00 00
	00		 mov	 edx, DWORD PTR ?__LINE__Var@?0??switch_seat_position@@YGXXZ@4JA
  00122	83 c2 19	 add	 edx, 25			; 00000019H
  00125	52		 push	 edx
  00126	68 00 00 00 00	 push	 OFFSET ??_C@_0EG@KKKJIDAO@c?3?2users?2nhv90?2projects?2eech?2ap@
  0012b	a1 00 00 00 00	 mov	 eax, DWORD PTR ?null_entity_pointer_message@@3PBDB ; null_entity_pointer_message
  00130	50		 push	 eax
  00131	e8 00 00 00 00	 call	 ?process_assert@@YGXPBD0H@Z ; process_assert
  00136	c7 45 b8 00 00
	00 00		 mov	 DWORD PTR tv142[ebp], 0
$LN25@switch_sea:
  0013d	b9 01 00 00 00	 mov	 ecx, 1
  00142	85 c9		 test	 ecx, ecx
  00144	74 09		 je	 SHORT $LN26@switch_sea
  00146	c7 45 b4 23 00
	00 00		 mov	 DWORD PTR tv150[ebp], 35 ; 00000023H
  0014d	eb 21		 jmp	 SHORT $LN27@switch_sea
$LN26@switch_sea:
  0014f	8b 15 00 00 00
	00		 mov	 edx, DWORD PTR ?__LINE__Var@?0??switch_seat_position@@YGXXZ@4JA
  00155	83 c2 19	 add	 edx, 25			; 00000019H
  00158	52		 push	 edx
  00159	68 00 00 00 00	 push	 OFFSET ??_C@_0EG@KKKJIDAO@c?3?2users?2nhv90?2projects?2eech?2ap@
  0015e	a1 00 00 00 00	 mov	 eax, DWORD PTR ?overload_invalid_int_type_message@@3PBDB ; overload_invalid_int_type_message
  00163	50		 push	 eax
  00164	e8 00 00 00 00	 call	 ?process_assert@@YGXPBD0H@Z ; process_assert
  00169	c7 45 b4 00 00
	00 00		 mov	 DWORD PTR tv150[ebp], 0
$LN27@switch_sea:
  00170	6a 01		 push	 1
  00172	6a 23		 push	 35			; 00000023H
  00174	8b 4d fc	 mov	 ecx, DWORD PTR _en$[ebp]
  00177	51		 push	 ecx
  00178	69 55 b8 5c 04
	00 00		 imul	 edx, DWORD PTR tv142[ebp], 1116
  0017f	8b 45 b4	 mov	 eax, DWORD PTR tv150[ebp]
  00182	8b 8c 82 00 00
	00 00		 mov	 ecx, DWORD PTR ?fn_set_local_entity_int_value@@3PAY0BBH@P6GXPAUENTITY@@W4INT_TYPES@@H@ZA[edx+eax*4]
  00189	ff d1		 call	 ecx

; 2954 : 
; 2955 : 		store_pilot_seat_values ();

  0018b	e8 00 00 00 00	 call	 ?store_pilot_seat_values@@YGXXZ ; store_pilot_seat_values

; 2956 : 
; 2957 : 		restore_co_pilot_seat_values ();

  00190	e8 00 00 00 00	 call	 ?restore_co_pilot_seat_values@@YGXXZ ; restore_co_pilot_seat_values

; 2958 : 
; 2959 : 		switch (wide_cockpit_nr)

  00195	a1 00 00 00 00	 mov	 eax, DWORD PTR ?wide_cockpit_nr@@3HA ; wide_cockpit_nr
  0019a	89 45 b8	 mov	 DWORD PTR tv156[ebp], eax
  0019d	83 7d b8 0b	 cmp	 DWORD PTR tv156[ebp], 11 ; 0000000bH
  001a1	77 1e		 ja	 SHORT $LN2@switch_sea
  001a3	8b 4d b8	 mov	 ecx, DWORD PTR tv156[ebp]
  001a6	0f b6 91 00 00
	00 00		 movzx	 edx, BYTE PTR $LN32@switch_sea[ecx]
  001ad	ff 24 95 00 00
	00 00		 jmp	 DWORD PTR $LN34@switch_sea[edx*4]
$LN13@switch_sea:

; 2960 : 		{
; 2961 : 		case WIDEVIEW_COMANCHE_PILOT:
; 2962 : 		case WIDEVIEW_HOKUM_PILOT:
; 2963 : 		case WIDEVIEW_APACHE_PILOT:
; 2964 : 		case WIDEVIEW_HIND_PILOT:
; 2965 : 		case WIDEVIEW_VIPER_PILOT:
; 2966 : 		case WIDEVIEW_KIOWA_PILOT:
; 2967 : 			wide_cockpit_nr++;  // swtiches to co-pilot

  001b4	a1 00 00 00 00	 mov	 eax, DWORD PTR ?wide_cockpit_nr@@3HA ; wide_cockpit_nr
  001b9	83 c0 01	 add	 eax, 1
  001bc	a3 00 00 00 00	 mov	 DWORD PTR ?wide_cockpit_nr@@3HA, eax ; wide_cockpit_nr
$LN2@switch_sea:

; 2968 : 			break;
; 2969 : 		default:
; 2970 : 			break;
; 2971 : 		}
; 2972 : 
; 2973 : 		// start periscope check by GCsDriver  08-12-2007
; 2974 : 	  	// as copilot is no longer periscopes default position it can already be active
; 2975 : 		if(command_line_pilot_as_periscope_default){

  001c1	83 3d 00 00 00
	00 00		 cmp	 DWORD PTR ?command_line_pilot_as_periscope_default@@3HA, 0 ; command_line_pilot_as_periscope_default
  001c8	74 10		 je	 SHORT $LN15@switch_sea

; 2976 : 	  	if (target_acquisition_system == TARGET_ACQUISITION_SYSTEM_PERISCOPE)

  001ca	83 3d 00 00 00
	00 07		 cmp	 DWORD PTR ?target_acquisition_system@@3W4TARGET_ACQUISITION_SYSTEMS@@A, 7 ; target_acquisition_system
  001d1	75 07		 jne	 SHORT $LN15@switch_sea

; 2977 : 	  	{
; 2978 : 			set_view_mode (VIEW_MODE_VIRTUAL_COCKPIT_PERISCOPE);

  001d3	6a 25		 push	 37			; 00000025H
  001d5	e8 00 00 00 00	 call	 ?set_view_mode@@YGHW4VIEW_MODES@@@Z ; set_view_mode
$LN15@switch_sea:

; 2979 : 		}
; 2980 : 		}
; 2981 : 		// end periscope check by GCsDriver  08-12-2007
; 2982 : 
; 2983 : 	}
; 2984 : 	else

  001da	e9 be 00 00 00	 jmp	 $LN1@switch_sea
$LN11@switch_sea:

; 2985 : 	{
; 2986 : 		////////////////////////////////////////
; 2987 : 		//
; 2988 : 		// CO-PILOT ---> PILOT
; 2989 : 		//
; 2990 : 		////////////////////////////////////////
; 2991 : 
; 2992 : 		set_local_entity_int_value (en, INT_TYPE_CREW_ROLE, CREW_ROLE_PILOT);

  001df	83 7d fc 00	 cmp	 DWORD PTR _en$[ebp], 0
  001e3	74 0a		 je	 SHORT $LN28@switch_sea
  001e5	8b 45 fc	 mov	 eax, DWORD PTR _en$[ebp]
  001e8	8b 08		 mov	 ecx, DWORD PTR [eax]
  001ea	89 4d b8	 mov	 DWORD PTR tv168[ebp], ecx
  001ed	eb 21		 jmp	 SHORT $LN29@switch_sea
$LN28@switch_sea:
  001ef	8b 15 00 00 00
	00		 mov	 edx, DWORD PTR ?__LINE__Var@?0??switch_seat_position@@YGXXZ@4JA
  001f5	83 c2 40	 add	 edx, 64			; 00000040H
  001f8	52		 push	 edx
  001f9	68 00 00 00 00	 push	 OFFSET ??_C@_0EG@KKKJIDAO@c?3?2users?2nhv90?2projects?2eech?2ap@
  001fe	a1 00 00 00 00	 mov	 eax, DWORD PTR ?null_entity_pointer_message@@3PBDB ; null_entity_pointer_message
  00203	50		 push	 eax
  00204	e8 00 00 00 00	 call	 ?process_assert@@YGXPBD0H@Z ; process_assert
  00209	c7 45 b8 00 00
	00 00		 mov	 DWORD PTR tv168[ebp], 0
$LN29@switch_sea:
  00210	b9 01 00 00 00	 mov	 ecx, 1
  00215	85 c9		 test	 ecx, ecx
  00217	74 09		 je	 SHORT $LN30@switch_sea
  00219	c7 45 b4 23 00
	00 00		 mov	 DWORD PTR tv176[ebp], 35 ; 00000023H
  00220	eb 21		 jmp	 SHORT $LN31@switch_sea
$LN30@switch_sea:
  00222	8b 15 00 00 00
	00		 mov	 edx, DWORD PTR ?__LINE__Var@?0??switch_seat_position@@YGXXZ@4JA
  00228	83 c2 40	 add	 edx, 64			; 00000040H
  0022b	52		 push	 edx
  0022c	68 00 00 00 00	 push	 OFFSET ??_C@_0EG@KKKJIDAO@c?3?2users?2nhv90?2projects?2eech?2ap@
  00231	a1 00 00 00 00	 mov	 eax, DWORD PTR ?overload_invalid_int_type_message@@3PBDB ; overload_invalid_int_type_message
  00236	50		 push	 eax
  00237	e8 00 00 00 00	 call	 ?process_assert@@YGXPBD0H@Z ; process_assert
  0023c	c7 45 b4 00 00
	00 00		 mov	 DWORD PTR tv176[ebp], 0
$LN31@switch_sea:
  00243	6a 00		 push	 0
  00245	6a 23		 push	 35			; 00000023H
  00247	8b 4d fc	 mov	 ecx, DWORD PTR _en$[ebp]
  0024a	51		 push	 ecx
  0024b	69 55 b8 5c 04
	00 00		 imul	 edx, DWORD PTR tv168[ebp], 1116
  00252	8b 45 b4	 mov	 eax, DWORD PTR tv176[ebp]
  00255	8b 8c 82 00 00
	00 00		 mov	 ecx, DWORD PTR ?fn_set_local_entity_int_value@@3PAY0BBH@P6GXPAUENTITY@@W4INT_TYPES@@H@ZA[edx+eax*4]
  0025c	ff d1		 call	 ecx

; 2993 : 
; 2994 : 		store_co_pilot_seat_values ();

  0025e	e8 00 00 00 00	 call	 ?store_co_pilot_seat_values@@YGXXZ ; store_co_pilot_seat_values

; 2995 : 
; 2996 : 		restore_pilot_seat_values ();

  00263	e8 00 00 00 00	 call	 ?restore_pilot_seat_values@@YGXXZ ; restore_pilot_seat_values

; 2997 : 
; 2998 : 		switch (wide_cockpit_nr)

  00268	a1 00 00 00 00	 mov	 eax, DWORD PTR ?wide_cockpit_nr@@3HA ; wide_cockpit_nr
  0026d	89 45 b8	 mov	 DWORD PTR tv182[ebp], eax
  00270	8b 4d b8	 mov	 ecx, DWORD PTR tv182[ebp]
  00273	83 e9 01	 sub	 ecx, 1
  00276	89 4d b8	 mov	 DWORD PTR tv182[ebp], ecx
  00279	83 7d b8 0b	 cmp	 DWORD PTR tv182[ebp], 11 ; 0000000bH
  0027d	77 1e		 ja	 SHORT $LN1@switch_sea
  0027f	8b 55 b8	 mov	 edx, DWORD PTR tv182[ebp]
  00282	0f b6 82 00 00
	00 00		 movzx	 eax, BYTE PTR $LN33@switch_sea[edx]
  00289	ff 24 85 00 00
	00 00		 jmp	 DWORD PTR $LN35@switch_sea[eax*4]
$LN17@switch_sea:

; 2999 : 		{
; 3000 : 		case WIDEVIEW_COMANCHE_COPILOT:
; 3001 : 		case WIDEVIEW_HOKUM_COPILOT:
; 3002 : 		case WIDEVIEW_APACHE_COPILOT:
; 3003 : 		case WIDEVIEW_HIND_COPILOT:
; 3004 : 		case WIDEVIEW_VIPER_COPILOT:
; 3005 : 		case WIDEVIEW_KIOWA_COPILOT:
; 3006 : 			wide_cockpit_nr--;  // swtiches to pilot

  00290	a1 00 00 00 00	 mov	 eax, DWORD PTR ?wide_cockpit_nr@@3HA ; wide_cockpit_nr
  00295	83 e8 01	 sub	 eax, 1
  00298	a3 00 00 00 00	 mov	 DWORD PTR ?wide_cockpit_nr@@3HA, eax ; wide_cockpit_nr
$LN1@switch_sea:

; 3007 : 			break;
; 3008 : 		default:
; 3009 : 			break;
; 3010 : 		}
; 3011 : 	}
; 3012 : }

  0029d	5f		 pop	 edi
  0029e	5e		 pop	 esi
  0029f	5b		 pop	 ebx
  002a0	8b e5		 mov	 esp, ebp
  002a2	5d		 pop	 ebp
  002a3	c3		 ret	 0
$LN34@switch_sea:
  002a4	00 00 00 00	 DD	 $LN13@switch_sea
  002a8	00 00 00 00	 DD	 $LN2@switch_sea
$LN32@switch_sea:
  002ac	00		 DB	 0
  002ad	01		 DB	 1
  002ae	00		 DB	 0
  002af	01		 DB	 1
  002b0	00		 DB	 0
  002b1	01		 DB	 1
  002b2	01		 DB	 1
  002b3	00		 DB	 0
  002b4	01		 DB	 1
  002b5	00		 DB	 0
  002b6	01		 DB	 1
  002b7	00		 DB	 0
$LN35@switch_sea:
  002b8	00 00 00 00	 DD	 $LN17@switch_sea
  002bc	00 00 00 00	 DD	 $LN1@switch_sea
$LN33@switch_sea:
  002c0	00		 DB	 0
  002c1	01		 DB	 1
  002c2	00		 DB	 0
  002c3	01		 DB	 1
  002c4	00		 DB	 0
  002c5	01		 DB	 1
  002c6	01		 DB	 1
  002c7	00		 DB	 0
  002c8	01		 DB	 1
  002c9	00		 DB	 0
  002ca	01		 DB	 1
  002cb	00		 DB	 0
?switch_seat_position@@YGXXZ ENDP			; switch_seat_position
_TEXT	ENDS
; Function compile flags: /Odtp /ZI
; File c:\users\nhv90\projects\eech\aphavoc\source\gunships\views\vm_vckpt.c
;	COMDAT ?draw_virtual_cockpit_3d_display_view@@YGXXZ
_TEXT	SEGMENT
tv78 = -72						; size = 4
tv71 = -68						; size = 4
tv64 = -68						; size = 4
?draw_virtual_cockpit_3d_display_view@@YGXXZ PROC	; draw_virtual_cockpit_3d_display_view, COMDAT

; 2559 : {

  00000	55		 push	 ebp
  00001	8b ec		 mov	 ebp, esp
  00003	83 ec 48	 sub	 esp, 72			; 00000048H
  00006	53		 push	 ebx
  00007	56		 push	 esi
  00008	57		 push	 edi

; 2560 : 	//VJ# THIS CODE IS ONLY REACHED WHEN CLOSEUP F3 or F4!!!!!!!
; 2561 : 	//
; 2562 : 
; 2563 : 	switch (get_global_gunship_type ())

  00009	a1 0c 00 00 00	 mov	 eax, DWORD PTR ?global_options@@3UGLOBAL_OPTIONS_DATA@@A+12
  0000e	89 45 bc	 mov	 DWORD PTR tv64[ebp], eax
  00011	83 7d bc 09	 cmp	 DWORD PTR tv64[ebp], 9
  00015	0f 87 c9 01 00
	00		 ja	 $LN18@draw_virtu
  0001b	8b 4d bc	 mov	 ecx, DWORD PTR tv64[ebp]
  0001e	ff 24 8d 00 00
	00 00		 jmp	 DWORD PTR $LN24@draw_virtu[ecx*4]
$LN4@draw_virtu:

; 2564 : 	{
; 2565 : 		////////////////////////////////////////
; 2566 : 		// JB 030313 Fly any aircraft
; 2567 : //		default:
; 2568 : 		case GUNSHIP_TYPE_APACHE:
; 2569 : 		////////////////////////////////////////
; 2570 : 		{
; 2571 : 			set_pilots_full_screen_params (FALSE);

  00025	6a 00		 push	 0
  00027	e8 00 00 00 00	 call	 ?set_pilots_full_screen_params@@YGXH@Z ; set_pilots_full_screen_params

; 2572 : 
; 2573 : 			if (get_local_entity_int_value (get_pilot_entity (), INT_TYPE_CREW_ROLE) == CREW_ROLE_PILOT)

  0002c	83 3d 00 00 00
	00 00		 cmp	 DWORD PTR ?pilot_entity@@3PAUENTITY@@A, 0 ; pilot_entity
  00033	74 0c		 je	 SHORT $LN20@draw_virtu
  00035	a1 00 00 00 00	 mov	 eax, DWORD PTR ?pilot_entity@@3PAUENTITY@@A ; pilot_entity
  0003a	8b 08		 mov	 ecx, DWORD PTR [eax]
  0003c	89 4d bc	 mov	 DWORD PTR tv71[ebp], ecx
  0003f	eb 1d		 jmp	 SHORT $LN21@draw_virtu
$LN20@draw_virtu:
  00041	68 0d 0a 00 00	 push	 2573			; 00000a0dH
  00046	68 00 00 00 00	 push	 OFFSET ??_C@_0EG@KKKJIDAO@c?3?2users?2nhv90?2projects?2eech?2ap@
  0004b	8b 15 00 00 00
	00		 mov	 edx, DWORD PTR ?null_entity_pointer_message@@3PBDB ; null_entity_pointer_message
  00051	52		 push	 edx
  00052	e8 00 00 00 00	 call	 ?process_assert@@YGXPBD0H@Z ; process_assert
  00057	c7 45 bc 00 00
	00 00		 mov	 DWORD PTR tv71[ebp], 0
$LN21@draw_virtu:
  0005e	b8 01 00 00 00	 mov	 eax, 1
  00063	85 c0		 test	 eax, eax
  00065	74 09		 je	 SHORT $LN22@draw_virtu
  00067	c7 45 b8 23 00
	00 00		 mov	 DWORD PTR tv78[ebp], 35	; 00000023H
  0006e	eb 1d		 jmp	 SHORT $LN23@draw_virtu
$LN22@draw_virtu:
  00070	68 0d 0a 00 00	 push	 2573			; 00000a0dH
  00075	68 00 00 00 00	 push	 OFFSET ??_C@_0EG@KKKJIDAO@c?3?2users?2nhv90?2projects?2eech?2ap@
  0007a	8b 0d 00 00 00
	00		 mov	 ecx, DWORD PTR ?overload_invalid_int_type_message@@3PBDB ; overload_invalid_int_type_message
  00080	51		 push	 ecx
  00081	e8 00 00 00 00	 call	 ?process_assert@@YGXPBD0H@Z ; process_assert
  00086	c7 45 b8 00 00
	00 00		 mov	 DWORD PTR tv78[ebp], 0
$LN23@draw_virtu:
  0008d	6a 23		 push	 35			; 00000023H
  0008f	8b 15 00 00 00
	00		 mov	 edx, DWORD PTR ?pilot_entity@@3PAUENTITY@@A ; pilot_entity
  00095	52		 push	 edx
  00096	69 45 bc 5c 04
	00 00		 imul	 eax, DWORD PTR tv71[ebp], 1116
  0009d	8b 4d b8	 mov	 ecx, DWORD PTR tv78[ebp]
  000a0	8b 94 88 00 00
	00 00		 mov	 edx, DWORD PTR ?fn_get_local_entity_int_value@@3PAY0BBH@P6GHPAUENTITY@@W4INT_TYPES@@@ZA[eax+ecx*4]
  000a7	ff d2		 call	 edx
  000a9	85 c0		 test	 eax, eax
  000ab	75 0c		 jne	 SHORT $LN5@draw_virtu

; 2574 : 				draw_apache_internal_virtual_cockpit

  000ad	68 61 00 0a 00	 push	 655457			; 000a0061H
  000b2	e8 00 00 00 00	 call	 ?draw_apache_internal_virtual_cockpit@@YGXI@Z ; draw_apache_internal_virtual_cockpit

; 2575 : 				(
; 2576 : 					VIRTUAL_COCKPIT_COCKPIT |
; 2577 : 					VIRTUAL_COCKPIT_UPFRONT_DISPLAY |
; 2578 : 					VIRTUAL_COCKPIT_PILOT_LHS_MFD_DISPLAY |
; 2579 : 					VIRTUAL_COCKPIT_PILOT_RHS_MFD_DISPLAY |
; 2580 : 					VIRTUAL_COCKPIT_INSTRUMENT_NEEDLES
; 2581 : 				);
; 2582 : 			else

  000b7	eb 0a		 jmp	 SHORT $LN6@draw_virtu
$LN5@draw_virtu:

; 2583 : 				draw_apache_internal_virtual_cockpit

  000b9	68 01 00 e8 00	 push	 15204353		; 00e80001H
  000be	e8 00 00 00 00	 call	 ?draw_apache_internal_virtual_cockpit@@YGXI@Z ; draw_apache_internal_virtual_cockpit
$LN6@draw_virtu:

; 2584 : 				(
; 2585 : 					VIRTUAL_COCKPIT_COCKPIT |
; 2586 : 					VIRTUAL_COCKPIT_UPFRONT_DISPLAY |
; 2587 : 					VIRTUAL_COCKPIT_CPG_LHS_MFD_DISPLAY |
; 2588 : 					VIRTUAL_COCKPIT_CPG_RHS_MFD_DISPLAY |
; 2589 : 					VIRTUAL_COCKPIT_ORT_DISPLAY
; 2590 : 				);
; 2591 : 
; 2592 : #if 0
; 2593 : 			draw_apache_internal_virtual_cockpit
; 2594 : 			(
; 2595 : 				VIRTUAL_COCKPIT_DISPLAY_VIEW |
; 2596 : 				VIRTUAL_COCKPIT_COCKPIT |
; 2597 : 				VIRTUAL_COCKPIT_LHS_MFD_DISPLAY |
; 2598 : 				VIRTUAL_COCKPIT_RHS_MFD_DISPLAY
; 2599 : 			);
; 2600 : #endif
; 2601 : 			break;

  000c3	e9 2d 01 00 00	 jmp	 $LN2@draw_virtu
$LN7@draw_virtu:

; 2602 : 		}
; 2603 : 		////////////////////////////////////////
; 2604 : 		case GUNSHIP_TYPE_HAVOC:
; 2605 : 		////////////////////////////////////////
; 2606 : 		{
; 2607 : 			set_pilots_full_screen_params (FALSE);

  000c8	6a 00		 push	 0
  000ca	e8 00 00 00 00	 call	 ?set_pilots_full_screen_params@@YGXH@Z ; set_pilots_full_screen_params

; 2608 : 
; 2609 : 			draw_havoc_internal_virtual_cockpit

  000cf	68 11 08 00 00	 push	 2065			; 00000811H
  000d4	e8 00 00 00 00	 call	 ?draw_havoc_internal_virtual_cockpit@@YGXI@Z ; draw_havoc_internal_virtual_cockpit

; 2610 : 			(
; 2611 : 				VIRTUAL_COCKPIT_COCKPIT |
; 2612 : 				VIRTUAL_COCKPIT_CRT_DISPLAY |
; 2613 : 				VIRTUAL_COCKPIT_EKRAN_DISPLAY
; 2614 : 			);
; 2615 : 
; 2616 : 			break;

  000d9	e9 17 01 00 00	 jmp	 $LN2@draw_virtu
$LN8@draw_virtu:

; 2617 : 		}
; 2618 : 		////////////////////////////////////////
; 2619 : 		case GUNSHIP_TYPE_COMANCHE:
; 2620 : 		////////////////////////////////////////
; 2621 : 		{
; 2622 : 			pre_render_comanche_virtual_cockpit_displays ();

  000de	e8 00 00 00 00	 call	 ?pre_render_comanche_virtual_cockpit_displays@@YGXXZ ; pre_render_comanche_virtual_cockpit_displays

; 2623 : 
; 2624 : 			set_pilots_full_screen_params (FALSE);

  000e3	6a 00		 push	 0
  000e5	e8 00 00 00 00	 call	 ?set_pilots_full_screen_params@@YGXH@Z ; set_pilots_full_screen_params

; 2625 : //VJ#
; 2626 : 			get_comanche_display_viewpoint (get_view_mode ());

  000ea	a1 00 00 00 00	 mov	 eax, DWORD PTR ?view_mode@@3W4VIEW_MODES@@A ; view_mode
  000ef	50		 push	 eax
  000f0	e8 00 00 00 00	 call	 ?get_comanche_display_viewpoint@@YGXW4VIEW_MODES@@@Z ; get_comanche_display_viewpoint

; 2627 : 
; 2628 : 			draw_comanche_virtual_cockpit ();

  000f5	e8 00 00 00 00	 call	 ?draw_comanche_virtual_cockpit@@YGXXZ ; draw_comanche_virtual_cockpit

; 2629 : 
; 2630 : 			draw_comanche_full_screen_display ();

  000fa	e8 00 00 00 00	 call	 ?draw_comanche_full_screen_display@@YGXXZ ; draw_comanche_full_screen_display

; 2631 : 
; 2632 : 			break;

  000ff	e9 f1 00 00 00	 jmp	 $LN2@draw_virtu
$LN9@draw_virtu:

; 2633 : 		}
; 2634 : 		////////////////////////////////////////
; 2635 : 		case GUNSHIP_TYPE_HOKUM:
; 2636 : 		////////////////////////////////////////
; 2637 : 		{
; 2638 : 			pre_render_hokum_virtual_cockpit_displays ();

  00104	e8 00 00 00 00	 call	 ?pre_render_hokum_virtual_cockpit_displays@@YGXXZ ; pre_render_hokum_virtual_cockpit_displays

; 2639 : 
; 2640 : 			set_pilots_full_screen_params (FALSE);

  00109	6a 00		 push	 0
  0010b	e8 00 00 00 00	 call	 ?set_pilots_full_screen_params@@YGXH@Z ; set_pilots_full_screen_params

; 2641 : 
; 2642 : 			get_hokum_display_viewpoint (get_view_mode ());

  00110	a1 00 00 00 00	 mov	 eax, DWORD PTR ?view_mode@@3W4VIEW_MODES@@A ; view_mode
  00115	50		 push	 eax
  00116	e8 00 00 00 00	 call	 ?get_hokum_display_viewpoint@@YGXW4VIEW_MODES@@@Z ; get_hokum_display_viewpoint

; 2643 : 
; 2644 : 			draw_hokum_virtual_cockpit ();

  0011b	e8 00 00 00 00	 call	 ?draw_hokum_virtual_cockpit@@YGXXZ ; draw_hokum_virtual_cockpit

; 2645 : 
; 2646 : 			draw_hokum_full_screen_display ();

  00120	e8 00 00 00 00	 call	 ?draw_hokum_full_screen_display@@YGXXZ ; draw_hokum_full_screen_display

; 2647 : 
; 2648 : 			break;

  00125	e9 cb 00 00 00	 jmp	 $LN2@draw_virtu
$LN10@draw_virtu:

; 2649 : 		}
; 2650 : 		////Moje 030518 Start
; 2651 : 		case GUNSHIP_TYPE_BLACKHAWK:
; 2652 : 		////////////////////////////////////////
; 2653 : 		{
; 2654 : 			set_pilots_full_screen_params (FALSE);

  0012a	6a 00		 push	 0
  0012c	e8 00 00 00 00	 call	 ?set_pilots_full_screen_params@@YGXH@Z ; set_pilots_full_screen_params

; 2655 : 
; 2656 : 			draw_blackhawk_internal_virtual_cockpit

  00131	68 61 00 10 00	 push	 1048673			; 00100061H
  00136	e8 00 00 00 00	 call	 ?draw_blackhawk_internal_virtual_cockpit@@YGXI@Z ; draw_blackhawk_internal_virtual_cockpit

; 2657 : 			(
; 2658 : 				VIRTUAL_COCKPIT_DISPLAY_VIEW |
; 2659 : 				VIRTUAL_COCKPIT_COCKPIT |
; 2660 : 				VIRTUAL_COCKPIT_LHS_MFD_DISPLAY |
; 2661 : 				VIRTUAL_COCKPIT_RHS_MFD_DISPLAY
; 2662 : 			);
; 2663 : 
; 2664 : 			break;

  0013b	e9 b5 00 00 00	 jmp	 $LN2@draw_virtu
$LN11@draw_virtu:

; 2665 : 		}
; 2666 : 		////Moje 030518 End
; 2667 : 		////Moje 030612 Start
; 2668 : 		////////////////////////////////////////
; 2669 : 		case GUNSHIP_TYPE_HIND:
; 2670 : 		////////////////////////////////////////
; 2671 : 		{
; 2672 : 			set_pilots_full_screen_params (FALSE);

  00140	6a 00		 push	 0
  00142	e8 00 00 00 00	 call	 ?set_pilots_full_screen_params@@YGXH@Z ; set_pilots_full_screen_params

; 2673 : 
; 2674 : 			if (custom_3d_models.arneh_mi24v_cockpit)

  00147	83 3d 04 00 00
	00 00		 cmp	 DWORD PTR ?custom_3d_models@@3Uinstalled_custom_3d_models@@A+4, 0
  0014e	74 09		 je	 SHORT $LN12@draw_virtu

; 2675 : 				draw_hind_internal_3d_cockpit(0);

  00150	6a 00		 push	 0
  00152	e8 00 00 00 00	 call	 ?draw_hind_internal_3d_cockpit@@YGXI@Z ; draw_hind_internal_3d_cockpit

; 2676 : 			else

  00157	eb 0a		 jmp	 SHORT $LN13@draw_virtu
$LN12@draw_virtu:

; 2677 : 				draw_hind_internal_virtual_cockpit

  00159	68 11 08 00 00	 push	 2065			; 00000811H
  0015e	e8 00 00 00 00	 call	 ?draw_hind_internal_virtual_cockpit@@YGXI@Z ; draw_hind_internal_virtual_cockpit
$LN13@draw_virtu:

; 2678 : 				(
; 2679 : 					VIRTUAL_COCKPIT_COCKPIT |
; 2680 : 					VIRTUAL_COCKPIT_CRT_DISPLAY |
; 2681 : 					VIRTUAL_COCKPIT_EKRAN_DISPLAY
; 2682 : 				);
; 2683 : 
; 2684 : 			break;

  00163	e9 8d 00 00 00	 jmp	 $LN2@draw_virtu
$LN14@draw_virtu:

; 2685 : 		}
; 2686 : 		////Moje 030612 End
; 2687 : 		////Moje 030816 Start
; 2688 : 		case GUNSHIP_TYPE_AH64A:
; 2689 : 		////////////////////////////////////////
; 2690 : 		{
; 2691 : 			set_pilots_full_screen_params (FALSE);

  00168	6a 00		 push	 0
  0016a	e8 00 00 00 00	 call	 ?set_pilots_full_screen_params@@YGXH@Z ; set_pilots_full_screen_params

; 2692 : 
; 2693 : 			draw_ah64a_internal_virtual_cockpit

  0016f	68 61 00 10 00	 push	 1048673			; 00100061H
  00174	e8 00 00 00 00	 call	 ?draw_ah64a_internal_virtual_cockpit@@YGXI@Z ; draw_ah64a_internal_virtual_cockpit

; 2694 : 			(
; 2695 : 				VIRTUAL_COCKPIT_DISPLAY_VIEW |
; 2696 : 				VIRTUAL_COCKPIT_COCKPIT |
; 2697 : 				VIRTUAL_COCKPIT_LHS_MFD_DISPLAY |
; 2698 : 				VIRTUAL_COCKPIT_RHS_MFD_DISPLAY
; 2699 : 			);
; 2700 : 
; 2701 : 			break;

  00179	eb 7a		 jmp	 SHORT $LN2@draw_virtu
$LN15@draw_virtu:

; 2702 : 		}
; 2703 : 		////////////////////////////////////////
; 2704 : 		case GUNSHIP_TYPE_KA50:
; 2705 : 		////////////////////////////////////////
; 2706 : 		{
; 2707 : 			pre_render_ka50_virtual_cockpit_displays ();

  0017b	e8 00 00 00 00	 call	 ?pre_render_ka50_virtual_cockpit_displays@@YGXXZ ; pre_render_ka50_virtual_cockpit_displays

; 2708 : 
; 2709 : 			set_pilots_full_screen_params (FALSE);

  00180	6a 00		 push	 0
  00182	e8 00 00 00 00	 call	 ?set_pilots_full_screen_params@@YGXH@Z ; set_pilots_full_screen_params

; 2710 : 
; 2711 : 			get_ka50_display_viewpoint (get_view_mode ());

  00187	a1 00 00 00 00	 mov	 eax, DWORD PTR ?view_mode@@3W4VIEW_MODES@@A ; view_mode
  0018c	50		 push	 eax
  0018d	e8 00 00 00 00	 call	 ?get_ka50_display_viewpoint@@YGXW4VIEW_MODES@@@Z ; get_ka50_display_viewpoint

; 2712 : 
; 2713 : 			draw_ka50_virtual_cockpit ();

  00192	e8 00 00 00 00	 call	 ?draw_ka50_virtual_cockpit@@YGXXZ ; draw_ka50_virtual_cockpit

; 2714 : 
; 2715 : 			draw_ka50_full_screen_display ();

  00197	e8 00 00 00 00	 call	 ?draw_ka50_full_screen_display@@YGXXZ ; draw_ka50_full_screen_display

; 2716 : 
; 2717 : 			break;

  0019c	eb 57		 jmp	 SHORT $LN2@draw_virtu
$LN16@draw_virtu:

; 2718 : 		}
; 2719 : 		////Moje 030816 End
; 2720 : 		////////////////////////////////////////
; 2721 : 		case GUNSHIP_TYPE_VIPER:
; 2722 : 		////////////////////////////////////////
; 2723 : 		{
; 2724 : 			pre_render_viper_virtual_cockpit_displays ();

  0019e	e8 00 00 00 00	 call	 ?pre_render_viper_virtual_cockpit_displays@@YGXXZ ; pre_render_viper_virtual_cockpit_displays

; 2725 : 
; 2726 : 			set_pilots_full_screen_params (FALSE);

  001a3	6a 00		 push	 0
  001a5	e8 00 00 00 00	 call	 ?set_pilots_full_screen_params@@YGXH@Z ; set_pilots_full_screen_params

; 2727 : //VJ#
; 2728 : 			get_viper_display_viewpoint (get_view_mode ());

  001aa	a1 00 00 00 00	 mov	 eax, DWORD PTR ?view_mode@@3W4VIEW_MODES@@A ; view_mode
  001af	50		 push	 eax
  001b0	e8 00 00 00 00	 call	 ?get_viper_display_viewpoint@@YGXW4VIEW_MODES@@@Z ; get_viper_display_viewpoint

; 2729 : 
; 2730 : 			draw_viper_virtual_cockpit ();

  001b5	e8 00 00 00 00	 call	 ?draw_viper_virtual_cockpit@@YGXXZ ; draw_viper_virtual_cockpit

; 2731 : 
; 2732 : 			draw_viper_full_screen_display ();

  001ba	e8 00 00 00 00	 call	 ?draw_viper_full_screen_display@@YGXXZ ; draw_viper_full_screen_display

; 2733 : 
; 2734 : 			break;

  001bf	eb 34		 jmp	 SHORT $LN2@draw_virtu
$LN17@draw_virtu:

; 2735 : 		}
; 2736 : 		////////////////////////////////////////
; 2737 : 		case GUNSHIP_TYPE_KIOWA:
; 2738 : 		////////////////////////////////////////
; 2739 : 		{
; 2740 : 			pre_render_kiowa_virtual_cockpit_displays ();

  001c1	e8 00 00 00 00	 call	 ?pre_render_kiowa_virtual_cockpit_displays@@YGXXZ ; pre_render_kiowa_virtual_cockpit_displays

; 2741 : 
; 2742 : 			set_pilots_full_screen_params (FALSE);

  001c6	6a 00		 push	 0
  001c8	e8 00 00 00 00	 call	 ?set_pilots_full_screen_params@@YGXH@Z ; set_pilots_full_screen_params

; 2743 : //VJ#
; 2744 : 			get_kiowa_display_viewpoint (get_view_mode ());

  001cd	a1 00 00 00 00	 mov	 eax, DWORD PTR ?view_mode@@3W4VIEW_MODES@@A ; view_mode
  001d2	50		 push	 eax
  001d3	e8 00 00 00 00	 call	 ?get_kiowa_display_viewpoint@@YGXW4VIEW_MODES@@@Z ; get_kiowa_display_viewpoint

; 2745 : 
; 2746 : 			draw_kiowa_virtual_cockpit ();

  001d8	e8 00 00 00 00	 call	 ?draw_kiowa_virtual_cockpit@@YGXXZ ; draw_kiowa_virtual_cockpit

; 2747 : 
; 2748 : 			draw_kiowa_full_screen_display ();

  001dd	e8 00 00 00 00	 call	 ?draw_kiowa_full_screen_display@@YGXXZ ; draw_kiowa_full_screen_display

; 2749 : 
; 2750 : 			break;

  001e2	eb 11		 jmp	 SHORT $LN2@draw_virtu
$LN18@draw_virtu:

; 2751 : 		}
; 2752 : 		////////////////////////////////////////
; 2753 : 
; 2754 : 		////////////////////////////////////////
; 2755 : 		// GCsDriver  08-12-2007
; 2756 : 		default:
; 2757 : 		////////////////////////////////////////
; 2758 : 		{
; 2759 : 			set_pilots_full_screen_params (FALSE);

  001e4	6a 00		 push	 0
  001e6	e8 00 00 00 00	 call	 ?set_pilots_full_screen_params@@YGXH@Z ; set_pilots_full_screen_params

; 2760 : 
; 2761 : 			draw_default_internal_virtual_cockpit

  001eb	68 61 00 10 00	 push	 1048673			; 00100061H
  001f0	e8 00 00 00 00	 call	 ?draw_default_internal_virtual_cockpit@@YGXI@Z ; draw_default_internal_virtual_cockpit
$LN2@draw_virtu:

; 2762 : 			(
; 2763 : 				VIRTUAL_COCKPIT_DISPLAY_VIEW |
; 2764 : 				VIRTUAL_COCKPIT_COCKPIT |
; 2765 : 				VIRTUAL_COCKPIT_LHS_MFD_DISPLAY |
; 2766 : 				VIRTUAL_COCKPIT_RHS_MFD_DISPLAY
; 2767 : 			);
; 2768 : 
; 2769 : 			break;
; 2770 : 		}
; 2771 : 
; 2772 : 	}
; 2773 : 
; 2774 : 	//
; 2775 : 	// restore virtual cockpit 3D instance
; 2776 : 	//
; 2777 : 
; 2778 : 	get_pilot_head_viewpoint ();

  001f5	e8 00 00 00 00	 call	 ?get_pilot_head_viewpoint@@YGXXZ ; get_pilot_head_viewpoint

; 2779 : }

  001fa	5f		 pop	 edi
  001fb	5e		 pop	 esi
  001fc	5b		 pop	 ebx
  001fd	8b e5		 mov	 esp, ebp
  001ff	5d		 pop	 ebp
  00200	c3		 ret	 0
  00201	0f 1f 00	 npad	 3
$LN24@draw_virtu:
  00204	00 00 00 00	 DD	 $LN4@draw_virtu
  00208	00 00 00 00	 DD	 $LN7@draw_virtu
  0020c	00 00 00 00	 DD	 $LN8@draw_virtu
  00210	00 00 00 00	 DD	 $LN9@draw_virtu
  00214	00 00 00 00	 DD	 $LN10@draw_virtu
  00218	00 00 00 00	 DD	 $LN11@draw_virtu
  0021c	00 00 00 00	 DD	 $LN14@draw_virtu
  00220	00 00 00 00	 DD	 $LN15@draw_virtu
  00224	00 00 00 00	 DD	 $LN16@draw_virtu
  00228	00 00 00 00	 DD	 $LN17@draw_virtu
?draw_virtual_cockpit_3d_display_view@@YGXXZ ENDP	; draw_virtual_cockpit_3d_display_view
_TEXT	ENDS
; Function compile flags: /Odtp /ZI
; File c:\users\nhv90\projects\eech\aphavoc\source\gunships\views\vm_vckpt.c
;	COMDAT ?draw_virtual_cockpit_3d_periscope_view@@YGXXZ
_TEXT	SEGMENT
tv80 = -80						; size = 4
_x_max$ = -12						; size = 4
_x_min$ = -8						; size = 4
_x_excess$ = -4						; size = 4
?draw_virtual_cockpit_3d_periscope_view@@YGXXZ PROC	; draw_virtual_cockpit_3d_periscope_view, COMDAT

; 2518 : {

  00000	55		 push	 ebp
  00001	8b ec		 mov	 ebp, esp
  00003	83 ec 50	 sub	 esp, 80			; 00000050H
  00006	53		 push	 ebx
  00007	56		 push	 esi
  00008	57		 push	 edi

; 2519 : 	int
; 2520 : 		x_excess = ((full_screen_x_max - full_screen_x_min) - (full_screen_y_max - full_screen_y_min)) / 2,

  00009	f3 0f 10 05 00
	00 00 00	 movss	 xmm0, DWORD PTR ?full_screen_x_max@@3MA
  00011	f3 0f 5c 05 00
	00 00 00	 subss	 xmm0, DWORD PTR ?full_screen_x_min@@3MA
  00019	f3 0f 10 0d 00
	00 00 00	 movss	 xmm1, DWORD PTR ?full_screen_y_max@@3MA
  00021	f3 0f 5c 0d 00
	00 00 00	 subss	 xmm1, DWORD PTR ?full_screen_y_min@@3MA
  00029	f3 0f 5c c1	 subss	 xmm0, xmm1
  0002d	f3 0f 5e 05 00
	00 00 00	 divss	 xmm0, DWORD PTR __real@40000000
  00035	f3 0f 2c c0	 cvttss2si eax, xmm0
  00039	89 45 fc	 mov	 DWORD PTR _x_excess$[ebp], eax

; 2521 : 		x_min = full_screen_x_min + x_excess,

  0003c	f3 0f 2a 45 fc	 cvtsi2ss xmm0, DWORD PTR _x_excess$[ebp]
  00041	f3 0f 58 05 00
	00 00 00	 addss	 xmm0, DWORD PTR ?full_screen_x_min@@3MA
  00049	f3 0f 2c c0	 cvttss2si eax, xmm0
  0004d	89 45 f8	 mov	 DWORD PTR _x_min$[ebp], eax

; 2522 : 		x_max = full_screen_x_max - x_excess;

  00050	f3 0f 2a 45 fc	 cvtsi2ss xmm0, DWORD PTR _x_excess$[ebp]
  00055	f3 0f 10 0d 00
	00 00 00	 movss	 xmm1, DWORD PTR ?full_screen_x_max@@3MA
  0005d	f3 0f 5c c8	 subss	 xmm1, xmm0
  00061	f3 0f 2c c1	 cvttss2si eax, xmm1
  00065	89 45 f4	 mov	 DWORD PTR _x_max$[ebp], eax

; 2523 : 
; 2524 : 
; 2525 : 	ASSERT (get_gunship_entity ());

  00068	83 3d 00 00 00
	00 00		 cmp	 DWORD PTR ?gunship_entity@@3PAUENTITY@@A, 0 ; gunship_entity
  0006f	75 18		 jne	 SHORT $LN4@draw_virtu
  00071	a1 00 00 00 00	 mov	 eax, DWORD PTR ?__LINE__Var@?0??draw_virtual_cockpit_3d_periscope_view@@YGXXZ@4JA
  00076	83 c0 07	 add	 eax, 7
  00079	50		 push	 eax
  0007a	68 00 00 00 00	 push	 OFFSET ??_C@_0EG@KKKJIDAO@c?3?2users?2nhv90?2projects?2eech?2ap@
  0007f	68 00 00 00 00	 push	 OFFSET ??_C@_0BG@EANNPEON@get_gunship_entity?5?$CI?$CJ@
  00084	e8 00 00 00 00	 call	 ?process_assert@@YGXPBD0H@Z ; process_assert
$LN4@draw_virtu:

; 2526 : 
; 2527 : 	switch (get_global_gunship_type())

  00089	a1 0c 00 00 00	 mov	 eax, DWORD PTR ?global_options@@3UGLOBAL_OPTIONS_DATA@@A+12
  0008e	89 45 b0	 mov	 DWORD PTR tv80[ebp], eax
  00091	83 7d b0 00	 cmp	 DWORD PTR tv80[ebp], 0
  00095	74 0e		 je	 SHORT $LN5@draw_virtu
  00097	83 7d b0 03	 cmp	 DWORD PTR tv80[ebp], 3
  0009b	74 2e		 je	 SHORT $LN6@draw_virtu
  0009d	83 7d b0 05	 cmp	 DWORD PTR tv80[ebp], 5
  000a1	74 4d		 je	 SHORT $LN7@draw_virtu
  000a3	eb 71		 jmp	 SHORT $LN8@draw_virtu
$LN5@draw_virtu:

; 2528 : 	{
; 2529 : 	case  GUNSHIP_TYPE_APACHE:
; 2530 : 		draw_apache_virtual_cockpit_ort_view(x_min, x_max - x_excess);

  000a5	8b 45 f4	 mov	 eax, DWORD PTR _x_max$[ebp]
  000a8	2b 45 fc	 sub	 eax, DWORD PTR _x_excess$[ebp]
  000ab	50		 push	 eax
  000ac	8b 4d f8	 mov	 ecx, DWORD PTR _x_min$[ebp]
  000af	51		 push	 ecx
  000b0	e8 00 00 00 00	 call	 ?draw_apache_virtual_cockpit_ort_view@@YGXHH@Z ; draw_apache_virtual_cockpit_ort_view

; 2531 : 		draw_virtual_cockpit_periscope_mask (x_min, x_max, TRUE);

  000b5	6a 01		 push	 1
  000b7	8b 45 f4	 mov	 eax, DWORD PTR _x_max$[ebp]
  000ba	50		 push	 eax
  000bb	8b 4d f8	 mov	 ecx, DWORD PTR _x_min$[ebp]
  000be	51		 push	 ecx
  000bf	e8 00 00 00 00	 call	 ?draw_virtual_cockpit_periscope_mask@@YGXHHH@Z ; draw_virtual_cockpit_periscope_mask

; 2532 : 		draw_apache_virtual_cockpit_ort_symbology();

  000c4	e8 00 00 00 00	 call	 ?draw_apache_virtual_cockpit_ort_symbology@@YGXXZ ; draw_apache_virtual_cockpit_ort_symbology

; 2533 : 		break;

  000c9	eb 6c		 jmp	 SHORT $LN2@draw_virtu
$LN6@draw_virtu:

; 2534 : 	case GUNSHIP_TYPE_HOKUM:
; 2535 : 		draw_hokum_virtual_cockpit_periscope_view ();

  000cb	e8 00 00 00 00	 call	 ?draw_hokum_virtual_cockpit_periscope_view@@YGXXZ ; draw_hokum_virtual_cockpit_periscope_view

; 2536 : 		draw_virtual_cockpit_periscope_mask (full_screen_x_min, full_screen_x_max, FALSE);

  000d0	6a 00		 push	 0
  000d2	f3 0f 2c 05 00
	00 00 00	 cvttss2si eax, DWORD PTR ?full_screen_x_max@@3MA
  000da	50		 push	 eax
  000db	f3 0f 2c 0d 00
	00 00 00	 cvttss2si ecx, DWORD PTR ?full_screen_x_min@@3MA
  000e3	51		 push	 ecx
  000e4	e8 00 00 00 00	 call	 ?draw_virtual_cockpit_periscope_mask@@YGXHHH@Z ; draw_virtual_cockpit_periscope_mask

; 2537 : 		draw_hokum_virtual_cockpit_periscope_symbology ();

  000e9	e8 00 00 00 00	 call	 ?draw_hokum_virtual_cockpit_periscope_symbology@@YGXXZ ; draw_hokum_virtual_cockpit_periscope_symbology

; 2538 : 		break;

  000ee	eb 47		 jmp	 SHORT $LN2@draw_virtu
$LN7@draw_virtu:

; 2539 : 	case GUNSHIP_TYPE_HIND:
; 2540 : 		draw_hind_virtual_cockpit_ort_view(x_min, x_max - x_excess);

  000f0	8b 45 f4	 mov	 eax, DWORD PTR _x_max$[ebp]
  000f3	2b 45 fc	 sub	 eax, DWORD PTR _x_excess$[ebp]
  000f6	50		 push	 eax
  000f7	8b 4d f8	 mov	 ecx, DWORD PTR _x_min$[ebp]
  000fa	51		 push	 ecx
  000fb	e8 00 00 00 00	 call	 ?draw_hind_virtual_cockpit_ort_view@@YGXHH@Z ; draw_hind_virtual_cockpit_ort_view

; 2541 : 		draw_virtual_cockpit_periscope_mask (x_min, x_max, TRUE);

  00100	6a 01		 push	 1
  00102	8b 45 f4	 mov	 eax, DWORD PTR _x_max$[ebp]
  00105	50		 push	 eax
  00106	8b 4d f8	 mov	 ecx, DWORD PTR _x_min$[ebp]
  00109	51		 push	 ecx
  0010a	e8 00 00 00 00	 call	 ?draw_virtual_cockpit_periscope_mask@@YGXHHH@Z ; draw_virtual_cockpit_periscope_mask

; 2542 : 		draw_hind_virtual_cockpit_ort_symbology();

  0010f	e8 00 00 00 00	 call	 ?draw_hind_virtual_cockpit_ort_symbology@@YGXXZ ; draw_hind_virtual_cockpit_ort_symbology

; 2543 : 		break;

  00114	eb 21		 jmp	 SHORT $LN2@draw_virtu
$LN8@draw_virtu:

; 2544 : 	default:
; 2545 : 		ASSERT(FALSE);

  00116	b8 01 00 00 00	 mov	 eax, 1
  0011b	85 c0		 test	 eax, eax
  0011d	74 18		 je	 SHORT $LN9@draw_virtu
  0011f	a1 00 00 00 00	 mov	 eax, DWORD PTR ?__LINE__Var@?0??draw_virtual_cockpit_3d_periscope_view@@YGXXZ@4JA
  00124	83 c0 1b	 add	 eax, 27			; 0000001bH
  00127	50		 push	 eax
  00128	68 00 00 00 00	 push	 OFFSET ??_C@_0EG@KKKJIDAO@c?3?2users?2nhv90?2projects?2eech?2ap@
  0012d	68 00 00 00 00	 push	 OFFSET ??_C@_05MAJJAKPI@FALSE@
  00132	e8 00 00 00 00	 call	 ?process_assert@@YGXPBD0H@Z ; process_assert
$LN9@draw_virtu:
$LN2@draw_virtu:

; 2546 : 	}
; 2547 : 	//
; 2548 : 	// restore virtual cockpit 3D instance
; 2549 : 	//
; 2550 : 
; 2551 : 	get_pilot_head_viewpoint ();

  00137	e8 00 00 00 00	 call	 ?get_pilot_head_viewpoint@@YGXXZ ; get_pilot_head_viewpoint

; 2552 : }

  0013c	5f		 pop	 edi
  0013d	5e		 pop	 esi
  0013e	5b		 pop	 ebx
  0013f	8b e5		 mov	 esp, ebp
  00141	5d		 pop	 ebp
  00142	c3		 ret	 0
?draw_virtual_cockpit_3d_periscope_view@@YGXXZ ENDP	; draw_virtual_cockpit_3d_periscope_view
_TEXT	ENDS
; Function compile flags: /Odtp /ZI
; File c:\users\nhv90\projects\eech\aphavoc\source\gunships\views\vm_vckpt.c
;	COMDAT ?update_virtual_cockpit_periscope_view@@YGXXZ
_TEXT	SEGMENT
?update_virtual_cockpit_periscope_view@@YGXXZ PROC	; update_virtual_cockpit_periscope_view, COMDAT

; 872  : {

  00000	55		 push	 ebp
  00001	8b ec		 mov	 ebp, esp
  00003	83 ec 40	 sub	 esp, 64			; 00000040H
  00006	53		 push	 ebx
  00007	56		 push	 esi
  00008	57		 push	 edi

; 873  : }

  00009	5f		 pop	 edi
  0000a	5e		 pop	 esi
  0000b	5b		 pop	 ebx
  0000c	8b e5		 mov	 esp, ebp
  0000e	5d		 pop	 ebp
  0000f	c3		 ret	 0
?update_virtual_cockpit_periscope_view@@YGXXZ ENDP	; update_virtual_cockpit_periscope_view
_TEXT	ENDS
; Function compile flags: /Odtp /ZI
; File c:\users\nhv90\projects\eech\aphavoc\source\gunships\views\vm_vckpt.c
;	COMDAT ?draw_virtual_cockpit_3d_hud_view@@YGXXZ
_TEXT	SEGMENT
tv250 = -96						; size = 4
tv168 = -96						; size = 4
tv242 = -92						; size = 4
tv216 = -92						; size = 4
tv160 = -92						; size = 4
tv134 = -92						; size = 4
tv69 = -92						; size = 4
_position$1 = -24					; size = 12
_position$2 = -12					; size = 12
?draw_virtual_cockpit_3d_hud_view@@YGXXZ PROC		; draw_virtual_cockpit_3d_hud_view, COMDAT

; 2299 : {

  00000	55		 push	 ebp
  00001	8b ec		 mov	 ebp, esp
  00003	83 ec 60	 sub	 esp, 96			; 00000060H
  00006	53		 push	 ebx
  00007	56		 push	 esi
  00008	57		 push	 edi

; 2300 : 	ASSERT (get_gunship_entity ());

  00009	83 3d 00 00 00
	00 00		 cmp	 DWORD PTR ?gunship_entity@@3PAUENTITY@@A, 0 ; gunship_entity
  00010	75 18		 jne	 SHORT $LN4@draw_virtu
  00012	a1 00 00 00 00	 mov	 eax, DWORD PTR ?__LINE__Var@?0??draw_virtual_cockpit_3d_hud_view@@YGXXZ@4JA
  00017	83 c0 01	 add	 eax, 1
  0001a	50		 push	 eax
  0001b	68 00 00 00 00	 push	 OFFSET ??_C@_0EG@KKKJIDAO@c?3?2users?2nhv90?2projects?2eech?2ap@
  00020	68 00 00 00 00	 push	 OFFSET ??_C@_0BG@EANNPEON@get_gunship_entity?5?$CI?$CJ@
  00025	e8 00 00 00 00	 call	 ?process_assert@@YGXPBD0H@Z ; process_assert
$LN4@draw_virtu:

; 2301 : 
; 2302 : 	switch (get_global_gunship_type ())

  0002a	a1 0c 00 00 00	 mov	 eax, DWORD PTR ?global_options@@3UGLOBAL_OPTIONS_DATA@@A+12
  0002f	89 45 a4	 mov	 DWORD PTR tv69[ebp], eax
  00032	8b 4d a4	 mov	 ecx, DWORD PTR tv69[ebp]
  00035	83 e9 01	 sub	 ecx, 1
  00038	89 4d a4	 mov	 DWORD PTR tv69[ebp], ecx
  0003b	83 7d a4 06	 cmp	 DWORD PTR tv69[ebp], 6
  0003f	0f 87 5f 05 00
	00		 ja	 $LN2@draw_virtu
  00045	8b 55 a4	 mov	 edx, DWORD PTR tv69[ebp]
  00048	ff 24 95 00 00
	00 00		 jmp	 DWORD PTR $LN32@draw_virtu[edx*4]
$LN5@draw_virtu:

; 2303 : 	{
; 2304 : 		////////////////////////////////////////
; 2305 : 		case GUNSHIP_TYPE_HAVOC:
; 2306 : 		////////////////////////////////////////
; 2307 : 		{
; 2308 : 			set_pilots_full_screen_params (night_vision_system_active);

  0004f	a1 00 00 00 00	 mov	 eax, DWORD PTR ?night_vision_system_active@@3HA ; night_vision_system_active
  00054	50		 push	 eax
  00055	e8 00 00 00 00	 call	 ?set_pilots_full_screen_params@@YGXH@Z ; set_pilots_full_screen_params

; 2309 : 
; 2310 : 			draw_main_3d_scene (&main_vp);

  0005a	68 00 00 00 00	 push	 OFFSET ?main_vp@@3UVIEWPOINT@@A ; main_vp
  0005f	e8 00 00 00 00	 call	 ?draw_main_3d_scene@@YGXPAUVIEWPOINT@@@Z ; draw_main_3d_scene

; 2311 : 
; 2312 : 			if (get_global_draw_cockpit_graphics ())

  00064	83 3d b8 01 00
	00 00		 cmp	 DWORD PTR ?global_options@@3UGLOBAL_OPTIONS_DATA@@A+440, 0
  0006b	74 1c		 je	 SHORT $LN6@draw_virtu

; 2313 : 			{
; 2314 : 				set_pilots_full_screen_params (FALSE);

  0006d	6a 00		 push	 0
  0006f	e8 00 00 00 00	 call	 ?set_pilots_full_screen_params@@YGXH@Z ; set_pilots_full_screen_params

; 2315 : 
; 2316 : 				draw_havoc_external_virtual_cockpit

  00074	6a 00		 push	 0
  00076	68 00 d0 01 00	 push	 118784			; 0001d000H
  0007b	e8 00 00 00 00	 call	 ?draw_havoc_external_virtual_cockpit@@YGXIPAE@Z ; draw_havoc_external_virtual_cockpit

; 2317 : 				(
; 2318 : 					VIRTUAL_COCKPIT_STOWED_WIPER |
; 2319 : 					VIRTUAL_COCKPIT_MOVING_WIPER |
; 2320 : 					VIRTUAL_COCKPIT_RAIN_EFFECT |
; 2321 : 					VIRTUAL_COCKPIT_MAIN_ROTOR,
; 2322 : 					NULL
; 2323 : 				);
; 2324 : 
; 2325 : 				draw_havoc_internal_virtual_cockpit

  00080	6a 05		 push	 5
  00082	e8 00 00 00 00	 call	 ?draw_havoc_internal_virtual_cockpit@@YGXI@Z ; draw_havoc_internal_virtual_cockpit

; 2326 : 				(
; 2327 : 					VIRTUAL_COCKPIT_COCKPIT |
; 2328 : 					VIRTUAL_COCKPIT_HUD_GLASS
; 2329 : 				);
; 2330 : 			}
; 2331 : 			else

  00087	eb 50		 jmp	 SHORT $LN8@draw_virtu
$LN6@draw_virtu:

; 2332 : 			{
; 2333 : 				if (get_global_draw_overlaid_instruments ())

  00089	83 3d bc 01 00
	00 00		 cmp	 DWORD PTR ?global_options@@3UGLOBAL_OPTIONS_DATA@@A+444, 0
  00090	74 47		 je	 SHORT $LN8@draw_virtu

; 2334 : 				{
; 2335 : 					draw_overlaid_havoc_mfd (68.0, 412.0, 128.0);

  00092	51		 push	 ecx
  00093	f3 0f 10 05 00
	00 00 00	 movss	 xmm0, DWORD PTR __real@43000000
  0009b	f3 0f 11 04 24	 movss	 DWORD PTR [esp], xmm0
  000a0	51		 push	 ecx
  000a1	f3 0f 10 05 00
	00 00 00	 movss	 xmm0, DWORD PTR __real@43ce0000
  000a9	f3 0f 11 04 24	 movss	 DWORD PTR [esp], xmm0
  000ae	51		 push	 ecx
  000af	f3 0f 10 05 00
	00 00 00	 movss	 xmm0, DWORD PTR __real@42880000
  000b7	f3 0f 11 04 24	 movss	 DWORD PTR [esp], xmm0
  000bc	e8 00 00 00 00	 call	 ?draw_overlaid_havoc_mfd@@YGXMMM@Z ; draw_overlaid_havoc_mfd

; 2336 : 
; 2337 : 					draw_overlaid_threat_warning_display (int_full_screen_width - 64, int_full_screen_height - 84);

  000c1	a1 00 00 00 00	 mov	 eax, DWORD PTR ?int_full_screen_height@@3HA ; int_full_screen_height
  000c6	83 e8 54	 sub	 eax, 84			; 00000054H
  000c9	50		 push	 eax
  000ca	8b 0d 00 00 00
	00		 mov	 ecx, DWORD PTR ?int_full_screen_width@@3HA ; int_full_screen_width
  000d0	83 e9 40	 sub	 ecx, 64			; 00000040H
  000d3	51		 push	 ecx
  000d4	e8 00 00 00 00	 call	 ?draw_overlaid_threat_warning_display@@YGXHH@Z ; draw_overlaid_threat_warning_display
$LN8@draw_virtu:

; 2338 : 				}
; 2339 : 			}
; 2340 : 
; 2341 : 			draw_external_havoc_hud ();

  000d9	e8 00 00 00 00	 call	 ?draw_external_havoc_hud@@YGXXZ ; draw_external_havoc_hud

; 2342 : 
; 2343 : 			draw_havoc_hms ();

  000de	e8 00 00 00 00	 call	 ?draw_havoc_hms@@YGXXZ	; draw_havoc_hms

; 2344 : 
; 2345 : 			break;

  000e3	e9 bc 04 00 00	 jmp	 $LN2@draw_virtu
$LN9@draw_virtu:

; 2346 : 		}
; 2347 : 		////////////////////////////////////////
; 2348 : 		case GUNSHIP_TYPE_HOKUM:
; 2349 : 		////////////////////////////////////////
; 2350 : 		{
; 2351 : 			vec3d
; 2352 : 				position;
; 2353 : 
; 2354 : 			ASSERT (virtual_cockpit_inst3d);

  000e8	83 3d 00 00 00
	00 00		 cmp	 DWORD PTR ?virtual_cockpit_inst3d@@3PAUOBJECT_3D_INSTANCE@@A, 0 ; virtual_cockpit_inst3d
  000ef	75 18		 jne	 SHORT $LN10@draw_virtu
  000f1	a1 00 00 00 00	 mov	 eax, DWORD PTR ?__LINE__Var@?0??draw_virtual_cockpit_3d_hud_view@@YGXXZ@4JA
  000f6	83 c0 37	 add	 eax, 55			; 00000037H
  000f9	50		 push	 eax
  000fa	68 00 00 00 00	 push	 OFFSET ??_C@_0EG@KKKJIDAO@c?3?2users?2nhv90?2projects?2eech?2ap@
  000ff	68 00 00 00 00	 push	 OFFSET ??_C@_0BH@OJOOJLIP@virtual_cockpit_inst3d@
  00104	e8 00 00 00 00	 call	 ?process_assert@@YGXPBD0H@Z ; process_assert
$LN10@draw_virtu:

; 2355 : 
; 2356 : 			pre_render_hokum_virtual_cockpit_displays ();

  00109	e8 00 00 00 00	 call	 ?pre_render_hokum_virtual_cockpit_displays@@YGXXZ ; pre_render_hokum_virtual_cockpit_displays

; 2357 : 
; 2358 : 			//
; 2359 : 			// get camera viewpoint
; 2360 : 			//
; 2361 : 
; 2362 : 			virtual_cockpit_inst3d->vp.x = 0.0;

  0010e	a1 00 00 00 00	 mov	 eax, DWORD PTR ?virtual_cockpit_inst3d@@3PAUOBJECT_3D_INSTANCE@@A ; virtual_cockpit_inst3d
  00113	0f 57 c0	 xorps	 xmm0, xmm0
  00116	f3 0f 11 40 08	 movss	 DWORD PTR [eax+8], xmm0

; 2363 : 			virtual_cockpit_inst3d->vp.y = 0.0;

  0011b	a1 00 00 00 00	 mov	 eax, DWORD PTR ?virtual_cockpit_inst3d@@3PAUOBJECT_3D_INSTANCE@@A ; virtual_cockpit_inst3d
  00120	0f 57 c0	 xorps	 xmm0, xmm0
  00123	f3 0f 11 40 0c	 movss	 DWORD PTR [eax+12], xmm0

; 2364 : 			virtual_cockpit_inst3d->vp.z = 0.0;

  00128	a1 00 00 00 00	 mov	 eax, DWORD PTR ?virtual_cockpit_inst3d@@3PAUOBJECT_3D_INSTANCE@@A ; virtual_cockpit_inst3d
  0012d	0f 57 c0	 xorps	 xmm0, xmm0
  00130	f3 0f 11 40 10	 movss	 DWORD PTR [eax+16], xmm0

; 2365 : 
; 2366 : 			get_local_entity_attitude_matrix (get_gunship_entity (), virtual_cockpit_inst3d->vp.attitude);

  00135	83 3d 00 00 00
	00 00		 cmp	 DWORD PTR ?gunship_entity@@3PAUENTITY@@A, 0 ; gunship_entity
  0013c	74 0c		 je	 SHORT $LN20@draw_virtu
  0013e	a1 00 00 00 00	 mov	 eax, DWORD PTR ?gunship_entity@@3PAUENTITY@@A ; gunship_entity
  00143	8b 08		 mov	 ecx, DWORD PTR [eax]
  00145	89 4d a4	 mov	 DWORD PTR tv134[ebp], ecx
  00148	eb 21		 jmp	 SHORT $LN21@draw_virtu
$LN20@draw_virtu:
  0014a	8b 15 00 00 00
	00		 mov	 edx, DWORD PTR ?__LINE__Var@?0??draw_virtual_cockpit_3d_hud_view@@YGXXZ@4JA
  00150	83 c2 43	 add	 edx, 67			; 00000043H
  00153	52		 push	 edx
  00154	68 00 00 00 00	 push	 OFFSET ??_C@_0EG@KKKJIDAO@c?3?2users?2nhv90?2projects?2eech?2ap@
  00159	a1 00 00 00 00	 mov	 eax, DWORD PTR ?null_entity_pointer_message@@3PBDB ; null_entity_pointer_message
  0015e	50		 push	 eax
  0015f	e8 00 00 00 00	 call	 ?process_assert@@YGXPBD0H@Z ; process_assert
  00164	c7 45 a4 00 00
	00 00		 mov	 DWORD PTR tv134[ebp], 0
$LN21@draw_virtu:
  0016b	8b 0d 00 00 00
	00		 mov	 ecx, DWORD PTR ?virtual_cockpit_inst3d@@3PAUOBJECT_3D_INSTANCE@@A ; virtual_cockpit_inst3d
  00171	83 c1 14	 add	 ecx, 20			; 00000014H
  00174	51		 push	 ecx
  00175	8b 15 00 00 00
	00		 mov	 edx, DWORD PTR ?gunship_entity@@3PAUENTITY@@A ; gunship_entity
  0017b	52		 push	 edx
  0017c	8b 45 a4	 mov	 eax, DWORD PTR tv134[ebp]
  0017f	8b 0c 85 00 00
	00 00		 mov	 ecx, DWORD PTR ?fn_get_local_entity_attitude_matrix@@3PAP6GXPAUENTITY@@QAY02M@ZA[eax*4]
  00186	ff d1		 call	 ecx

; 2367 : 
; 2368 : 			get_object_3d_camera_position (virtual_cockpit_inst3d, OBJECT_3D_CAMERA_VIEW_STATIC_HUD, 0, 0.0, &main_vp);

  00188	68 00 00 00 00	 push	 OFFSET ?main_vp@@3UVIEWPOINT@@A ; main_vp
  0018d	51		 push	 ecx
  0018e	0f 57 c0	 xorps	 xmm0, xmm0
  00191	f3 0f 11 04 24	 movss	 DWORD PTR [esp], xmm0
  00196	6a 00		 push	 0
  00198	6a 0b		 push	 11			; 0000000bH
  0019a	a1 00 00 00 00	 mov	 eax, DWORD PTR ?virtual_cockpit_inst3d@@3PAUOBJECT_3D_INSTANCE@@A ; virtual_cockpit_inst3d
  0019f	50		 push	 eax
  001a0	e8 00 00 00 00	 call	 ?get_object_3d_camera_position@@YGHPAUOBJECT_3D_INSTANCE@@HHMPAUVIEWPOINT@@@Z ; get_object_3d_camera_position

; 2369 : 
; 2370 : 			position.x = -main_vp.x;

  001a5	f3 0f 10 05 00
	00 00 00	 movss	 xmm0, DWORD PTR ?main_vp@@3UVIEWPOINT@@A
  001ad	0f 57 05 00 00
	00 00		 xorps	 xmm0, DWORD PTR __xmm@80000000800000008000000080000000
  001b4	f3 0f 11 45 f4	 movss	 DWORD PTR _position$2[ebp], xmm0

; 2371 : 			position.y = -main_vp.y;

  001b9	f3 0f 10 05 04
	00 00 00	 movss	 xmm0, DWORD PTR ?main_vp@@3UVIEWPOINT@@A+4
  001c1	0f 57 05 00 00
	00 00		 xorps	 xmm0, DWORD PTR __xmm@80000000800000008000000080000000
  001c8	f3 0f 11 45 f8	 movss	 DWORD PTR _position$2[ebp+4], xmm0

; 2372 : 			position.z = -main_vp.z;

  001cd	f3 0f 10 05 08
	00 00 00	 movss	 xmm0, DWORD PTR ?main_vp@@3UVIEWPOINT@@A+8
  001d5	0f 57 05 00 00
	00 00		 xorps	 xmm0, DWORD PTR __xmm@80000000800000008000000080000000
  001dc	f3 0f 11 45 fc	 movss	 DWORD PTR _position$2[ebp+8], xmm0

; 2373 : 
; 2374 : 			multiply_transpose_matrix3x3_vec3d (&virtual_cockpit_inst3d->vp.position, main_vp.attitude, &position);

  001e1	8d 45 f4	 lea	 eax, DWORD PTR _position$2[ebp]
  001e4	50		 push	 eax
  001e5	68 0c 00 00 00	 push	 OFFSET ?main_vp@@3UVIEWPOINT@@A+12
  001ea	8b 0d 00 00 00
	00		 mov	 ecx, DWORD PTR ?virtual_cockpit_inst3d@@3PAUOBJECT_3D_INSTANCE@@A ; virtual_cockpit_inst3d
  001f0	83 c1 08	 add	 ecx, 8
  001f3	51		 push	 ecx
  001f4	e8 00 00 00 00	 call	 ?multiply_transpose_matrix3x3_vec3d@@YGXPAUVEC3D@@QAY02$$CBMPBU1@@Z ; multiply_transpose_matrix3x3_vec3d

; 2375 : 
; 2376 : 			get_local_entity_vec3d (get_gunship_entity (), VEC3D_TYPE_POSITION, &position);

  001f9	83 3d 00 00 00
	00 00		 cmp	 DWORD PTR ?gunship_entity@@3PAUENTITY@@A, 0 ; gunship_entity
  00200	74 0c		 je	 SHORT $LN22@draw_virtu
  00202	a1 00 00 00 00	 mov	 eax, DWORD PTR ?gunship_entity@@3PAUENTITY@@A ; gunship_entity
  00207	8b 08		 mov	 ecx, DWORD PTR [eax]
  00209	89 4d a4	 mov	 DWORD PTR tv160[ebp], ecx
  0020c	eb 21		 jmp	 SHORT $LN23@draw_virtu
$LN22@draw_virtu:
  0020e	8b 15 00 00 00
	00		 mov	 edx, DWORD PTR ?__LINE__Var@?0??draw_virtual_cockpit_3d_hud_view@@YGXXZ@4JA
  00214	83 c2 4d	 add	 edx, 77			; 0000004dH
  00217	52		 push	 edx
  00218	68 00 00 00 00	 push	 OFFSET ??_C@_0EG@KKKJIDAO@c?3?2users?2nhv90?2projects?2eech?2ap@
  0021d	a1 00 00 00 00	 mov	 eax, DWORD PTR ?null_entity_pointer_message@@3PBDB ; null_entity_pointer_message
  00222	50		 push	 eax
  00223	e8 00 00 00 00	 call	 ?process_assert@@YGXPBD0H@Z ; process_assert
  00228	c7 45 a4 00 00
	00 00		 mov	 DWORD PTR tv160[ebp], 0
$LN23@draw_virtu:
  0022f	b9 01 00 00 00	 mov	 ecx, 1
  00234	85 c9		 test	 ecx, ecx
  00236	74 09		 je	 SHORT $LN24@draw_virtu
  00238	c7 45 a0 08 00
	00 00		 mov	 DWORD PTR tv168[ebp], 8
  0023f	eb 21		 jmp	 SHORT $LN25@draw_virtu
$LN24@draw_virtu:
  00241	8b 15 00 00 00
	00		 mov	 edx, DWORD PTR ?__LINE__Var@?0??draw_virtual_cockpit_3d_hud_view@@YGXXZ@4JA
  00247	83 c2 4d	 add	 edx, 77			; 0000004dH
  0024a	52		 push	 edx
  0024b	68 00 00 00 00	 push	 OFFSET ??_C@_0EG@KKKJIDAO@c?3?2users?2nhv90?2projects?2eech?2ap@
  00250	a1 00 00 00 00	 mov	 eax, DWORD PTR ?overload_invalid_vec3d_type_message@@3PBDB ; overload_invalid_vec3d_type_message
  00255	50		 push	 eax
  00256	e8 00 00 00 00	 call	 ?process_assert@@YGXPBD0H@Z ; process_assert
  0025b	c7 45 a0 00 00
	00 00		 mov	 DWORD PTR tv168[ebp], 0
$LN25@draw_virtu:
  00262	8d 4d f4	 lea	 ecx, DWORD PTR _position$2[ebp]
  00265	51		 push	 ecx
  00266	6a 08		 push	 8
  00268	8b 15 00 00 00
	00		 mov	 edx, DWORD PTR ?gunship_entity@@3PAUENTITY@@A ; gunship_entity
  0026e	52		 push	 edx
  0026f	6b 45 a4 60	 imul	 eax, DWORD PTR tv160[ebp], 96
  00273	8b 4d a0	 mov	 ecx, DWORD PTR tv168[ebp]
  00276	8b 94 88 00 00
	00 00		 mov	 edx, DWORD PTR ?fn_get_local_entity_vec3d@@3PAY0BI@P6GXPAUENTITY@@W4VEC3D_TYPES@@PAUVEC3D@@@ZA[eax+ecx*4]
  0027d	ff d2		 call	 edx

; 2377 : 
; 2378 : 			main_vp.x += position.x;

  0027f	f3 0f 10 05 00
	00 00 00	 movss	 xmm0, DWORD PTR ?main_vp@@3UVIEWPOINT@@A
  00287	f3 0f 58 45 f4	 addss	 xmm0, DWORD PTR _position$2[ebp]
  0028c	f3 0f 11 05 00
	00 00 00	 movss	 DWORD PTR ?main_vp@@3UVIEWPOINT@@A, xmm0

; 2379 : 			main_vp.y += position.y;

  00294	f3 0f 10 05 04
	00 00 00	 movss	 xmm0, DWORD PTR ?main_vp@@3UVIEWPOINT@@A+4
  0029c	f3 0f 58 45 f8	 addss	 xmm0, DWORD PTR _position$2[ebp+4]
  002a1	f3 0f 11 05 04
	00 00 00	 movss	 DWORD PTR ?main_vp@@3UVIEWPOINT@@A+4, xmm0

; 2380 : 			main_vp.z += position.z;

  002a9	f3 0f 10 05 08
	00 00 00	 movss	 xmm0, DWORD PTR ?main_vp@@3UVIEWPOINT@@A+8
  002b1	f3 0f 58 45 fc	 addss	 xmm0, DWORD PTR _position$2[ebp+8]
  002b6	f3 0f 11 05 08
	00 00 00	 movss	 DWORD PTR ?main_vp@@3UVIEWPOINT@@A+8, xmm0

; 2381 : 
; 2382 : 			//
; 2383 : 			// draw view
; 2384 : 			//
; 2385 : 
; 2386 : 			set_pilots_full_screen_params (night_vision_system_active);

  002be	a1 00 00 00 00	 mov	 eax, DWORD PTR ?night_vision_system_active@@3HA ; night_vision_system_active
  002c3	50		 push	 eax
  002c4	e8 00 00 00 00	 call	 ?set_pilots_full_screen_params@@YGXH@Z ; set_pilots_full_screen_params

; 2387 : 
; 2388 : 			draw_main_3d_scene (&main_vp);

  002c9	68 00 00 00 00	 push	 OFFSET ?main_vp@@3UVIEWPOINT@@A ; main_vp
  002ce	e8 00 00 00 00	 call	 ?draw_main_3d_scene@@YGXPAUVIEWPOINT@@@Z ; draw_main_3d_scene

; 2389 : 
; 2390 : 			set_pilots_full_screen_params (FALSE);

  002d3	6a 00		 push	 0
  002d5	e8 00 00 00 00	 call	 ?set_pilots_full_screen_params@@YGXH@Z ; set_pilots_full_screen_params

; 2391 : 
; 2392 : 			draw_hokum_virtual_cockpit ();

  002da	e8 00 00 00 00	 call	 ?draw_hokum_virtual_cockpit@@YGXXZ ; draw_hokum_virtual_cockpit

; 2393 : 
; 2394 : 			draw_hokum_hms ();

  002df	e8 00 00 00 00	 call	 ?draw_hokum_hms@@YGXXZ	; draw_hokum_hms

; 2395 : 
; 2396 : 			break;

  002e4	e9 bb 02 00 00	 jmp	 $LN2@draw_virtu
$LN11@draw_virtu:

; 2397 : 		}
; 2398 : 		////moje 030615 think I missed out a section here. This code isn't in the 030615 exe
; 2399 : 		////////////////////////////////////////
; 2400 : 		case GUNSHIP_TYPE_HIND:
; 2401 : 		////////////////////////////////////////
; 2402 : 		{
; 2403 : 			set_pilots_full_screen_params (night_vision_system_active);

  002e9	a1 00 00 00 00	 mov	 eax, DWORD PTR ?night_vision_system_active@@3HA ; night_vision_system_active
  002ee	50		 push	 eax
  002ef	e8 00 00 00 00	 call	 ?set_pilots_full_screen_params@@YGXH@Z ; set_pilots_full_screen_params

; 2404 : 
; 2405 : 			draw_main_3d_scene (&main_vp);

  002f4	68 00 00 00 00	 push	 OFFSET ?main_vp@@3UVIEWPOINT@@A ; main_vp
  002f9	e8 00 00 00 00	 call	 ?draw_main_3d_scene@@YGXPAUVIEWPOINT@@@Z ; draw_main_3d_scene

; 2406 : 
; 2407 : 			if (get_global_draw_cockpit_graphics ())

  002fe	83 3d b8 01 00
	00 00		 cmp	 DWORD PTR ?global_options@@3UGLOBAL_OPTIONS_DATA@@A+440, 0
  00305	74 37		 je	 SHORT $LN12@draw_virtu

; 2408 : 			{
; 2409 : 				set_pilots_full_screen_params (FALSE);

  00307	6a 00		 push	 0
  00309	e8 00 00 00 00	 call	 ?set_pilots_full_screen_params@@YGXH@Z ; set_pilots_full_screen_params

; 2410 : 
; 2411 : 				if (custom_3d_models.arneh_mi24v_cockpit)

  0030e	83 3d 04 00 00
	00 00		 cmp	 DWORD PTR ?custom_3d_models@@3Uinstalled_custom_3d_models@@A+4, 0
  00315	74 12		 je	 SHORT $LN14@draw_virtu

; 2412 : 				{
; 2413 : 					draw_hind_external_3d_cockpit(0, NULL);

  00317	6a 00		 push	 0
  00319	6a 00		 push	 0
  0031b	e8 00 00 00 00	 call	 ?draw_hind_external_3d_cockpit@@YGXIPAE@Z ; draw_hind_external_3d_cockpit

; 2414 : 					draw_hind_internal_3d_cockpit(0);

  00320	6a 00		 push	 0
  00322	e8 00 00 00 00	 call	 ?draw_hind_internal_3d_cockpit@@YGXI@Z ; draw_hind_internal_3d_cockpit

; 2415 : 				}
; 2416 : 				else

  00327	eb 13		 jmp	 SHORT $LN15@draw_virtu
$LN14@draw_virtu:

; 2417 : 				{
; 2418 : 					draw_hind_external_virtual_cockpit

  00329	6a 00		 push	 0
  0032b	68 00 d0 01 00	 push	 118784			; 0001d000H
  00330	e8 00 00 00 00	 call	 ?draw_hind_external_virtual_cockpit@@YGXIPAE@Z ; draw_hind_external_virtual_cockpit

; 2419 : 					(
; 2420 : 						VIRTUAL_COCKPIT_STOWED_WIPER |
; 2421 : 						VIRTUAL_COCKPIT_MOVING_WIPER |
; 2422 : 						VIRTUAL_COCKPIT_RAIN_EFFECT |
; 2423 : 						VIRTUAL_COCKPIT_MAIN_ROTOR,
; 2424 : 						NULL
; 2425 : 					);
; 2426 : 
; 2427 : 					draw_hind_internal_virtual_cockpit

  00335	6a 05		 push	 5
  00337	e8 00 00 00 00	 call	 ?draw_hind_internal_virtual_cockpit@@YGXI@Z ; draw_hind_internal_virtual_cockpit
$LN15@draw_virtu:

; 2428 : 					(
; 2429 : 						VIRTUAL_COCKPIT_COCKPIT |
; 2430 : 						VIRTUAL_COCKPIT_HUD_GLASS
; 2431 : 					);
; 2432 : 				}
; 2433 : 			}
; 2434 : 			else

  0033c	eb 50		 jmp	 SHORT $LN16@draw_virtu
$LN12@draw_virtu:

; 2435 : 			{
; 2436 : 				if (get_global_draw_overlaid_instruments ())

  0033e	83 3d bc 01 00
	00 00		 cmp	 DWORD PTR ?global_options@@3UGLOBAL_OPTIONS_DATA@@A+444, 0
  00345	74 47		 je	 SHORT $LN16@draw_virtu

; 2437 : 				{
; 2438 : 					draw_overlaid_hind_mfd (68.0, 412.0, 128.0);

  00347	51		 push	 ecx
  00348	f3 0f 10 05 00
	00 00 00	 movss	 xmm0, DWORD PTR __real@43000000
  00350	f3 0f 11 04 24	 movss	 DWORD PTR [esp], xmm0
  00355	51		 push	 ecx
  00356	f3 0f 10 05 00
	00 00 00	 movss	 xmm0, DWORD PTR __real@43ce0000
  0035e	f3 0f 11 04 24	 movss	 DWORD PTR [esp], xmm0
  00363	51		 push	 ecx
  00364	f3 0f 10 05 00
	00 00 00	 movss	 xmm0, DWORD PTR __real@42880000
  0036c	f3 0f 11 04 24	 movss	 DWORD PTR [esp], xmm0
  00371	e8 00 00 00 00	 call	 ?draw_overlaid_hind_mfd@@YGXMMM@Z ; draw_overlaid_hind_mfd

; 2439 : 
; 2440 : 					draw_overlaid_hind_threat_warning_display (int_full_screen_width - 64, int_full_screen_height - 84);

  00376	a1 00 00 00 00	 mov	 eax, DWORD PTR ?int_full_screen_height@@3HA ; int_full_screen_height
  0037b	83 e8 54	 sub	 eax, 84			; 00000054H
  0037e	50		 push	 eax
  0037f	8b 0d 00 00 00
	00		 mov	 ecx, DWORD PTR ?int_full_screen_width@@3HA ; int_full_screen_width
  00385	83 e9 40	 sub	 ecx, 64			; 00000040H
  00388	51		 push	 ecx
  00389	e8 00 00 00 00	 call	 ?draw_overlaid_hind_threat_warning_display@@YGXHH@Z ; draw_overlaid_hind_threat_warning_display
$LN16@draw_virtu:

; 2441 : 				}
; 2442 : 			}
; 2443 : 
; 2444 : 			draw_external_hind_hud ();

  0038e	e8 00 00 00 00	 call	 ?draw_external_hind_hud@@YGXXZ ; draw_external_hind_hud

; 2445 : 
; 2446 : 			draw_hind_hms ();

  00393	e8 00 00 00 00	 call	 ?draw_hind_hms@@YGXXZ	; draw_hind_hms

; 2447 : 
; 2448 : 			break;

  00398	e9 07 02 00 00	 jmp	 $LN2@draw_virtu
$LN17@draw_virtu:

; 2449 : 		}
; 2450 : 		////Moje 030615 end
; 2451 : 		////moje 030816
; 2452 : 		////////////////////////////////////////
; 2453 : 		case GUNSHIP_TYPE_KA50:
; 2454 : 		////////////////////////////////////////
; 2455 : 		{
; 2456 : 			vec3d
; 2457 : 				position;
; 2458 : 
; 2459 : 			ASSERT (virtual_cockpit_inst3d);

  0039d	83 3d 00 00 00
	00 00		 cmp	 DWORD PTR ?virtual_cockpit_inst3d@@3PAUOBJECT_3D_INSTANCE@@A, 0 ; virtual_cockpit_inst3d
  003a4	75 1a		 jne	 SHORT $LN18@draw_virtu
  003a6	a1 00 00 00 00	 mov	 eax, DWORD PTR ?__LINE__Var@?0??draw_virtual_cockpit_3d_hud_view@@YGXXZ@4JA
  003ab	05 a0 00 00 00	 add	 eax, 160		; 000000a0H
  003b0	50		 push	 eax
  003b1	68 00 00 00 00	 push	 OFFSET ??_C@_0EG@KKKJIDAO@c?3?2users?2nhv90?2projects?2eech?2ap@
  003b6	68 00 00 00 00	 push	 OFFSET ??_C@_0BH@OJOOJLIP@virtual_cockpit_inst3d@
  003bb	e8 00 00 00 00	 call	 ?process_assert@@YGXPBD0H@Z ; process_assert
$LN18@draw_virtu:

; 2460 : 
; 2461 : 			pre_render_hokum_virtual_cockpit_displays ();

  003c0	e8 00 00 00 00	 call	 ?pre_render_hokum_virtual_cockpit_displays@@YGXXZ ; pre_render_hokum_virtual_cockpit_displays

; 2462 : 
; 2463 : 			//
; 2464 : 			// get camera viewpoint
; 2465 : 			//
; 2466 : 
; 2467 : 			virtual_cockpit_inst3d->vp.x = 0.0;

  003c5	a1 00 00 00 00	 mov	 eax, DWORD PTR ?virtual_cockpit_inst3d@@3PAUOBJECT_3D_INSTANCE@@A ; virtual_cockpit_inst3d
  003ca	0f 57 c0	 xorps	 xmm0, xmm0
  003cd	f3 0f 11 40 08	 movss	 DWORD PTR [eax+8], xmm0

; 2468 : 			virtual_cockpit_inst3d->vp.y = 0.0;

  003d2	a1 00 00 00 00	 mov	 eax, DWORD PTR ?virtual_cockpit_inst3d@@3PAUOBJECT_3D_INSTANCE@@A ; virtual_cockpit_inst3d
  003d7	0f 57 c0	 xorps	 xmm0, xmm0
  003da	f3 0f 11 40 0c	 movss	 DWORD PTR [eax+12], xmm0

; 2469 : 			virtual_cockpit_inst3d->vp.z = 0.0;

  003df	a1 00 00 00 00	 mov	 eax, DWORD PTR ?virtual_cockpit_inst3d@@3PAUOBJECT_3D_INSTANCE@@A ; virtual_cockpit_inst3d
  003e4	0f 57 c0	 xorps	 xmm0, xmm0
  003e7	f3 0f 11 40 10	 movss	 DWORD PTR [eax+16], xmm0

; 2470 : 
; 2471 : 			get_local_entity_attitude_matrix (get_gunship_entity (), virtual_cockpit_inst3d->vp.attitude);

  003ec	83 3d 00 00 00
	00 00		 cmp	 DWORD PTR ?gunship_entity@@3PAUENTITY@@A, 0 ; gunship_entity
  003f3	74 0c		 je	 SHORT $LN26@draw_virtu
  003f5	a1 00 00 00 00	 mov	 eax, DWORD PTR ?gunship_entity@@3PAUENTITY@@A ; gunship_entity
  003fa	8b 08		 mov	 ecx, DWORD PTR [eax]
  003fc	89 4d a4	 mov	 DWORD PTR tv216[ebp], ecx
  003ff	eb 24		 jmp	 SHORT $LN27@draw_virtu
$LN26@draw_virtu:
  00401	8b 15 00 00 00
	00		 mov	 edx, DWORD PTR ?__LINE__Var@?0??draw_virtual_cockpit_3d_hud_view@@YGXXZ@4JA
  00407	81 c2 ac 00 00
	00		 add	 edx, 172		; 000000acH
  0040d	52		 push	 edx
  0040e	68 00 00 00 00	 push	 OFFSET ??_C@_0EG@KKKJIDAO@c?3?2users?2nhv90?2projects?2eech?2ap@
  00413	a1 00 00 00 00	 mov	 eax, DWORD PTR ?null_entity_pointer_message@@3PBDB ; null_entity_pointer_message
  00418	50		 push	 eax
  00419	e8 00 00 00 00	 call	 ?process_assert@@YGXPBD0H@Z ; process_assert
  0041e	c7 45 a4 00 00
	00 00		 mov	 DWORD PTR tv216[ebp], 0
$LN27@draw_virtu:
  00425	8b 0d 00 00 00
	00		 mov	 ecx, DWORD PTR ?virtual_cockpit_inst3d@@3PAUOBJECT_3D_INSTANCE@@A ; virtual_cockpit_inst3d
  0042b	83 c1 14	 add	 ecx, 20			; 00000014H
  0042e	51		 push	 ecx
  0042f	8b 15 00 00 00
	00		 mov	 edx, DWORD PTR ?gunship_entity@@3PAUENTITY@@A ; gunship_entity
  00435	52		 push	 edx
  00436	8b 45 a4	 mov	 eax, DWORD PTR tv216[ebp]
  00439	8b 0c 85 00 00
	00 00		 mov	 ecx, DWORD PTR ?fn_get_local_entity_attitude_matrix@@3PAP6GXPAUENTITY@@QAY02M@ZA[eax*4]
  00440	ff d1		 call	 ecx

; 2472 : 
; 2473 : 			get_object_3d_camera_position (virtual_cockpit_inst3d, OBJECT_3D_CAMERA_VIEW_STATIC_HUD, 0, 0.0, &main_vp);

  00442	68 00 00 00 00	 push	 OFFSET ?main_vp@@3UVIEWPOINT@@A ; main_vp
  00447	51		 push	 ecx
  00448	0f 57 c0	 xorps	 xmm0, xmm0
  0044b	f3 0f 11 04 24	 movss	 DWORD PTR [esp], xmm0
  00450	6a 00		 push	 0
  00452	6a 0b		 push	 11			; 0000000bH
  00454	a1 00 00 00 00	 mov	 eax, DWORD PTR ?virtual_cockpit_inst3d@@3PAUOBJECT_3D_INSTANCE@@A ; virtual_cockpit_inst3d
  00459	50		 push	 eax
  0045a	e8 00 00 00 00	 call	 ?get_object_3d_camera_position@@YGHPAUOBJECT_3D_INSTANCE@@HHMPAUVIEWPOINT@@@Z ; get_object_3d_camera_position

; 2474 : 
; 2475 : 			position.x = -main_vp.x;

  0045f	f3 0f 10 05 00
	00 00 00	 movss	 xmm0, DWORD PTR ?main_vp@@3UVIEWPOINT@@A
  00467	0f 57 05 00 00
	00 00		 xorps	 xmm0, DWORD PTR __xmm@80000000800000008000000080000000
  0046e	f3 0f 11 45 e8	 movss	 DWORD PTR _position$1[ebp], xmm0

; 2476 : 			position.y = -main_vp.y;

  00473	f3 0f 10 05 04
	00 00 00	 movss	 xmm0, DWORD PTR ?main_vp@@3UVIEWPOINT@@A+4
  0047b	0f 57 05 00 00
	00 00		 xorps	 xmm0, DWORD PTR __xmm@80000000800000008000000080000000
  00482	f3 0f 11 45 ec	 movss	 DWORD PTR _position$1[ebp+4], xmm0

; 2477 : 			position.z = -main_vp.z;

  00487	f3 0f 10 05 08
	00 00 00	 movss	 xmm0, DWORD PTR ?main_vp@@3UVIEWPOINT@@A+8
  0048f	0f 57 05 00 00
	00 00		 xorps	 xmm0, DWORD PTR __xmm@80000000800000008000000080000000
  00496	f3 0f 11 45 f0	 movss	 DWORD PTR _position$1[ebp+8], xmm0

; 2478 : 
; 2479 : 			multiply_transpose_matrix3x3_vec3d (&virtual_cockpit_inst3d->vp.position, main_vp.attitude, &position);

  0049b	8d 45 e8	 lea	 eax, DWORD PTR _position$1[ebp]
  0049e	50		 push	 eax
  0049f	68 0c 00 00 00	 push	 OFFSET ?main_vp@@3UVIEWPOINT@@A+12
  004a4	8b 0d 00 00 00
	00		 mov	 ecx, DWORD PTR ?virtual_cockpit_inst3d@@3PAUOBJECT_3D_INSTANCE@@A ; virtual_cockpit_inst3d
  004aa	83 c1 08	 add	 ecx, 8
  004ad	51		 push	 ecx
  004ae	e8 00 00 00 00	 call	 ?multiply_transpose_matrix3x3_vec3d@@YGXPAUVEC3D@@QAY02$$CBMPBU1@@Z ; multiply_transpose_matrix3x3_vec3d

; 2480 : 
; 2481 : 			get_local_entity_vec3d (get_gunship_entity (), VEC3D_TYPE_POSITION, &position);

  004b3	83 3d 00 00 00
	00 00		 cmp	 DWORD PTR ?gunship_entity@@3PAUENTITY@@A, 0 ; gunship_entity
  004ba	74 0c		 je	 SHORT $LN28@draw_virtu
  004bc	a1 00 00 00 00	 mov	 eax, DWORD PTR ?gunship_entity@@3PAUENTITY@@A ; gunship_entity
  004c1	8b 08		 mov	 ecx, DWORD PTR [eax]
  004c3	89 4d a4	 mov	 DWORD PTR tv242[ebp], ecx
  004c6	eb 24		 jmp	 SHORT $LN29@draw_virtu
$LN28@draw_virtu:
  004c8	8b 15 00 00 00
	00		 mov	 edx, DWORD PTR ?__LINE__Var@?0??draw_virtual_cockpit_3d_hud_view@@YGXXZ@4JA
  004ce	81 c2 b6 00 00
	00		 add	 edx, 182		; 000000b6H
  004d4	52		 push	 edx
  004d5	68 00 00 00 00	 push	 OFFSET ??_C@_0EG@KKKJIDAO@c?3?2users?2nhv90?2projects?2eech?2ap@
  004da	a1 00 00 00 00	 mov	 eax, DWORD PTR ?null_entity_pointer_message@@3PBDB ; null_entity_pointer_message
  004df	50		 push	 eax
  004e0	e8 00 00 00 00	 call	 ?process_assert@@YGXPBD0H@Z ; process_assert
  004e5	c7 45 a4 00 00
	00 00		 mov	 DWORD PTR tv242[ebp], 0
$LN29@draw_virtu:
  004ec	b9 01 00 00 00	 mov	 ecx, 1
  004f1	85 c9		 test	 ecx, ecx
  004f3	74 09		 je	 SHORT $LN30@draw_virtu
  004f5	c7 45 a0 08 00
	00 00		 mov	 DWORD PTR tv250[ebp], 8
  004fc	eb 24		 jmp	 SHORT $LN31@draw_virtu
$LN30@draw_virtu:
  004fe	8b 15 00 00 00
	00		 mov	 edx, DWORD PTR ?__LINE__Var@?0??draw_virtual_cockpit_3d_hud_view@@YGXXZ@4JA
  00504	81 c2 b6 00 00
	00		 add	 edx, 182		; 000000b6H
  0050a	52		 push	 edx
  0050b	68 00 00 00 00	 push	 OFFSET ??_C@_0EG@KKKJIDAO@c?3?2users?2nhv90?2projects?2eech?2ap@
  00510	a1 00 00 00 00	 mov	 eax, DWORD PTR ?overload_invalid_vec3d_type_message@@3PBDB ; overload_invalid_vec3d_type_message
  00515	50		 push	 eax
  00516	e8 00 00 00 00	 call	 ?process_assert@@YGXPBD0H@Z ; process_assert
  0051b	c7 45 a0 00 00
	00 00		 mov	 DWORD PTR tv250[ebp], 0
$LN31@draw_virtu:
  00522	8d 4d e8	 lea	 ecx, DWORD PTR _position$1[ebp]
  00525	51		 push	 ecx
  00526	6a 08		 push	 8
  00528	8b 15 00 00 00
	00		 mov	 edx, DWORD PTR ?gunship_entity@@3PAUENTITY@@A ; gunship_entity
  0052e	52		 push	 edx
  0052f	6b 45 a4 60	 imul	 eax, DWORD PTR tv242[ebp], 96
  00533	8b 4d a0	 mov	 ecx, DWORD PTR tv250[ebp]
  00536	8b 94 88 00 00
	00 00		 mov	 edx, DWORD PTR ?fn_get_local_entity_vec3d@@3PAY0BI@P6GXPAUENTITY@@W4VEC3D_TYPES@@PAUVEC3D@@@ZA[eax+ecx*4]
  0053d	ff d2		 call	 edx

; 2482 : 
; 2483 : 			main_vp.x += position.x;

  0053f	f3 0f 10 05 00
	00 00 00	 movss	 xmm0, DWORD PTR ?main_vp@@3UVIEWPOINT@@A
  00547	f3 0f 58 45 e8	 addss	 xmm0, DWORD PTR _position$1[ebp]
  0054c	f3 0f 11 05 00
	00 00 00	 movss	 DWORD PTR ?main_vp@@3UVIEWPOINT@@A, xmm0

; 2484 : 			main_vp.y += position.y;

  00554	f3 0f 10 05 04
	00 00 00	 movss	 xmm0, DWORD PTR ?main_vp@@3UVIEWPOINT@@A+4
  0055c	f3 0f 58 45 ec	 addss	 xmm0, DWORD PTR _position$1[ebp+4]
  00561	f3 0f 11 05 04
	00 00 00	 movss	 DWORD PTR ?main_vp@@3UVIEWPOINT@@A+4, xmm0

; 2485 : 			main_vp.z += position.z;

  00569	f3 0f 10 05 08
	00 00 00	 movss	 xmm0, DWORD PTR ?main_vp@@3UVIEWPOINT@@A+8
  00571	f3 0f 58 45 f0	 addss	 xmm0, DWORD PTR _position$1[ebp+8]
  00576	f3 0f 11 05 08
	00 00 00	 movss	 DWORD PTR ?main_vp@@3UVIEWPOINT@@A+8, xmm0

; 2486 : 
; 2487 : 			//
; 2488 : 			// draw view
; 2489 : 			//
; 2490 : 
; 2491 : 			set_pilots_full_screen_params (night_vision_system_active);

  0057e	a1 00 00 00 00	 mov	 eax, DWORD PTR ?night_vision_system_active@@3HA ; night_vision_system_active
  00583	50		 push	 eax
  00584	e8 00 00 00 00	 call	 ?set_pilots_full_screen_params@@YGXH@Z ; set_pilots_full_screen_params

; 2492 : 
; 2493 : 			draw_main_3d_scene (&main_vp);

  00589	68 00 00 00 00	 push	 OFFSET ?main_vp@@3UVIEWPOINT@@A ; main_vp
  0058e	e8 00 00 00 00	 call	 ?draw_main_3d_scene@@YGXPAUVIEWPOINT@@@Z ; draw_main_3d_scene

; 2494 : 
; 2495 : 			set_pilots_full_screen_params (FALSE);

  00593	6a 00		 push	 0
  00595	e8 00 00 00 00	 call	 ?set_pilots_full_screen_params@@YGXH@Z ; set_pilots_full_screen_params

; 2496 : 
; 2497 : 			draw_hokum_virtual_cockpit ();

  0059a	e8 00 00 00 00	 call	 ?draw_hokum_virtual_cockpit@@YGXXZ ; draw_hokum_virtual_cockpit

; 2498 : 
; 2499 : 			draw_hokum_hms ();

  0059f	e8 00 00 00 00	 call	 ?draw_hokum_hms@@YGXXZ	; draw_hokum_hms
$LN2@draw_virtu:

; 2500 : 
; 2501 : 			break;
; 2502 : 		}
; 2503 : 		////Moje 030816 end
; 2504 : 	}
; 2505 : 
; 2506 : 	//
; 2507 : 	// restore virtual cockpit 3D instance
; 2508 : 	//
; 2509 : 
; 2510 : 	get_pilot_head_viewpoint ();

  005a4	e8 00 00 00 00	 call	 ?get_pilot_head_viewpoint@@YGXXZ ; get_pilot_head_viewpoint

; 2511 : }

  005a9	5f		 pop	 edi
  005aa	5e		 pop	 esi
  005ab	5b		 pop	 ebx
  005ac	8b e5		 mov	 esp, ebp
  005ae	5d		 pop	 ebp
  005af	c3		 ret	 0
$LN32@draw_virtu:
  005b0	00 00 00 00	 DD	 $LN5@draw_virtu
  005b4	00 00 00 00	 DD	 $LN2@draw_virtu
  005b8	00 00 00 00	 DD	 $LN9@draw_virtu
  005bc	00 00 00 00	 DD	 $LN2@draw_virtu
  005c0	00 00 00 00	 DD	 $LN11@draw_virtu
  005c4	00 00 00 00	 DD	 $LN2@draw_virtu
  005c8	00 00 00 00	 DD	 $LN17@draw_virtu
?draw_virtual_cockpit_3d_hud_view@@YGXXZ ENDP		; draw_virtual_cockpit_3d_hud_view
_TEXT	ENDS
; Function compile flags: /Odtp /ZI
; File c:\users\nhv90\projects\eech\aphavoc\source\gunships\views\vm_vckpt.c
;	COMDAT ?draw_virtual_cockpit_3d_crew_view@@YGXXZ
_TEXT	SEGMENT
tv236 = -84						; size = 4
tv169 = -84						; size = 4
tv150 = -84						; size = 4
tv246 = -80						; size = 4
tv228 = -80						; size = 4
tv196 = -80						; size = 4
tv177 = -80						; size = 4
tv162 = -80						; size = 4
tv143 = -80						; size = 4
_position$ = -12					; size = 12
?draw_virtual_cockpit_3d_crew_view@@YGXXZ PROC		; draw_virtual_cockpit_3d_crew_view, COMDAT

; 2131 : {

  00000	55		 push	 ebp
  00001	8b ec		 mov	 ebp, esp
  00003	83 ec 54	 sub	 esp, 84			; 00000054H
  00006	53		 push	 ebx
  00007	56		 push	 esi
  00008	57		 push	 edi

; 2132 : 	vec3d
; 2133 : 		position;
; 2134 : 
; 2135 : 	ASSERT (get_gunship_entity ());

  00009	83 3d 00 00 00
	00 00		 cmp	 DWORD PTR ?gunship_entity@@3PAUENTITY@@A, 0 ; gunship_entity
  00010	75 18		 jne	 SHORT $LN6@draw_virtu
  00012	a1 00 00 00 00	 mov	 eax, DWORD PTR ?__LINE__Var@?0??draw_virtual_cockpit_3d_crew_view@@YGXXZ@4JA
  00017	83 c0 04	 add	 eax, 4
  0001a	50		 push	 eax
  0001b	68 00 00 00 00	 push	 OFFSET ??_C@_0EG@KKKJIDAO@c?3?2users?2nhv90?2projects?2eech?2ap@
  00020	68 00 00 00 00	 push	 OFFSET ??_C@_0BG@EANNPEON@get_gunship_entity?5?$CI?$CJ@
  00025	e8 00 00 00 00	 call	 ?process_assert@@YGXPBD0H@Z ; process_assert
$LN6@draw_virtu:

; 2136 : 
; 2137 : 	ASSERT (get_comanche_hokum_gunship ());

  0002a	a1 0c 00 00 00	 mov	 eax, DWORD PTR ?global_options@@3UGLOBAL_OPTIONS_DATA@@A+12
  0002f	0f b6 88 00 00
	00 00		 movzx	 ecx, BYTE PTR ?new_gunship@@3QBDB[eax]
  00036	85 c9		 test	 ecx, ecx
  00038	75 18		 jne	 SHORT $LN7@draw_virtu
  0003a	a1 00 00 00 00	 mov	 eax, DWORD PTR ?__LINE__Var@?0??draw_virtual_cockpit_3d_crew_view@@YGXXZ@4JA
  0003f	83 c0 06	 add	 eax, 6
  00042	50		 push	 eax
  00043	68 00 00 00 00	 push	 OFFSET ??_C@_0EG@KKKJIDAO@c?3?2users?2nhv90?2projects?2eech?2ap@
  00048	68 00 00 00 00	 push	 OFFSET ??_C@_0BO@DFHCFDJ@get_comanche_hokum_gunship?5?$CI?$CJ@
  0004d	e8 00 00 00 00	 call	 ?process_assert@@YGXPBD0H@Z ; process_assert
$LN7@draw_virtu:

; 2138 : 
; 2139 : 	ASSERT (virtual_cockpit_inst3d);

  00052	83 3d 00 00 00
	00 00		 cmp	 DWORD PTR ?virtual_cockpit_inst3d@@3PAUOBJECT_3D_INSTANCE@@A, 0 ; virtual_cockpit_inst3d
  00059	75 18		 jne	 SHORT $LN8@draw_virtu
  0005b	a1 00 00 00 00	 mov	 eax, DWORD PTR ?__LINE__Var@?0??draw_virtual_cockpit_3d_crew_view@@YGXXZ@4JA
  00060	83 c0 08	 add	 eax, 8
  00063	50		 push	 eax
  00064	68 00 00 00 00	 push	 OFFSET ??_C@_0EG@KKKJIDAO@c?3?2users?2nhv90?2projects?2eech?2ap@
  00069	68 00 00 00 00	 push	 OFFSET ??_C@_0BH@OJOOJLIP@virtual_cockpit_inst3d@
  0006e	e8 00 00 00 00	 call	 ?process_assert@@YGXPBD0H@Z ; process_assert
$LN8@draw_virtu:

; 2140 : 
; 2141 : 	ASSERT (get_crew_camera_index (get_crew_role ()) != OBJECT_3D_INVALID_CAMERA_INDEX);

  00073	e8 00 00 00 00	 call	 ?get_crew_role@@YG?AW4CREW_ROLES@@XZ ; get_crew_role
  00078	50		 push	 eax
  00079	e8 00 00 00 00	 call	 ?get_crew_camera_index@@YGHW4CREW_ROLES@@@Z ; get_crew_camera_index
  0007e	85 c0		 test	 eax, eax
  00080	75 18		 jne	 SHORT $LN9@draw_virtu
  00082	a1 00 00 00 00	 mov	 eax, DWORD PTR ?__LINE__Var@?0??draw_virtual_cockpit_3d_crew_view@@YGXXZ@4JA
  00087	83 c0 0a	 add	 eax, 10			; 0000000aH
  0008a	50		 push	 eax
  0008b	68 00 00 00 00	 push	 OFFSET ??_C@_0EG@KKKJIDAO@c?3?2users?2nhv90?2projects?2eech?2ap@
  00090	68 00 00 00 00	 push	 OFFSET ??_C@_0EL@CHGNJEAA@get_crew_camera_index?5?$CIget_crew@
  00095	e8 00 00 00 00	 call	 ?process_assert@@YGXPBD0H@Z ; process_assert
$LN9@draw_virtu:

; 2142 : 
; 2143 : 	ASSERT (get_num_virtual_cockpit_cameras (get_crew_role ()) > 0);

  0009a	e8 00 00 00 00	 call	 ?get_crew_role@@YG?AW4CREW_ROLES@@XZ ; get_crew_role
  0009f	50		 push	 eax
  000a0	e8 00 00 00 00	 call	 ?get_num_virtual_cockpit_cameras@@YGHW4CREW_ROLES@@@Z ; get_num_virtual_cockpit_cameras
  000a5	85 c0		 test	 eax, eax
  000a7	7f 18		 jg	 SHORT $LN10@draw_virtu
  000a9	a1 00 00 00 00	 mov	 eax, DWORD PTR ?__LINE__Var@?0??draw_virtual_cockpit_3d_crew_view@@YGXXZ@4JA
  000ae	83 c0 0c	 add	 eax, 12			; 0000000cH
  000b1	50		 push	 eax
  000b2	68 00 00 00 00	 push	 OFFSET ??_C@_0EG@KKKJIDAO@c?3?2users?2nhv90?2projects?2eech?2ap@
  000b7	68 00 00 00 00	 push	 OFFSET ??_C@_0DH@JHHILHGC@get_num_virtual_cockpit_cameras@
  000bc	e8 00 00 00 00	 call	 ?process_assert@@YGXPBD0H@Z ; process_assert
$LN10@draw_virtu:

; 2144 : 
; 2145 : 	ASSERT (get_current_virtual_cockpit_camera (get_crew_role ()) != INVALID_VIRTUAL_COCKPIT_CAMERA);

  000c1	e8 00 00 00 00	 call	 ?get_crew_role@@YG?AW4CREW_ROLES@@XZ ; get_crew_role
  000c6	50		 push	 eax
  000c7	e8 00 00 00 00	 call	 ?get_current_virtual_cockpit_camera@@YGHW4CREW_ROLES@@@Z ; get_current_virtual_cockpit_camera
  000cc	83 f8 ff	 cmp	 eax, -1
  000cf	75 18		 jne	 SHORT $LN11@draw_virtu
  000d1	a1 00 00 00 00	 mov	 eax, DWORD PTR ?__LINE__Var@?0??draw_virtual_cockpit_3d_crew_view@@YGXXZ@4JA
  000d6	83 c0 0e	 add	 eax, 14			; 0000000eH
  000d9	50		 push	 eax
  000da	68 00 00 00 00	 push	 OFFSET ??_C@_0EG@KKKJIDAO@c?3?2users?2nhv90?2projects?2eech?2ap@
  000df	68 00 00 00 00	 push	 OFFSET ??_C@_0FI@FFICFCHP@get_current_virtual_cockpit_cam@
  000e4	e8 00 00 00 00	 call	 ?process_assert@@YGXPBD0H@Z ; process_assert
$LN11@draw_virtu:

; 2146 : 
; 2147 : 	////////////////////////////////////////
; 2148 : 	//
; 2149 : 	// check if the gunship has been destroyed before the pilot's ejected
; 2150 : 	//
; 2151 : 
; 2152 : 	if (get_local_entity_int_value (get_gunship_entity (), INT_TYPE_EJECTED))

  000e9	83 3d 00 00 00
	00 00		 cmp	 DWORD PTR ?gunship_entity@@3PAUENTITY@@A, 0 ; gunship_entity
  000f0	74 0c		 je	 SHORT $LN25@draw_virtu
  000f2	a1 00 00 00 00	 mov	 eax, DWORD PTR ?gunship_entity@@3PAUENTITY@@A ; gunship_entity
  000f7	8b 08		 mov	 ecx, DWORD PTR [eax]
  000f9	89 4d b0	 mov	 DWORD PTR tv143[ebp], ecx
  000fc	eb 1d		 jmp	 SHORT $LN26@draw_virtu
$LN25@draw_virtu:
  000fe	68 68 08 00 00	 push	 2152			; 00000868H
  00103	68 00 00 00 00	 push	 OFFSET ??_C@_0EG@KKKJIDAO@c?3?2users?2nhv90?2projects?2eech?2ap@
  00108	8b 15 00 00 00
	00		 mov	 edx, DWORD PTR ?null_entity_pointer_message@@3PBDB ; null_entity_pointer_message
  0010e	52		 push	 edx
  0010f	e8 00 00 00 00	 call	 ?process_assert@@YGXPBD0H@Z ; process_assert
  00114	c7 45 b0 00 00
	00 00		 mov	 DWORD PTR tv143[ebp], 0
$LN26@draw_virtu:
  0011b	b8 01 00 00 00	 mov	 eax, 1
  00120	85 c0		 test	 eax, eax
  00122	74 09		 je	 SHORT $LN27@draw_virtu
  00124	c7 45 ac 31 00
	00 00		 mov	 DWORD PTR tv150[ebp], 49 ; 00000031H
  0012b	eb 1d		 jmp	 SHORT $LN28@draw_virtu
$LN27@draw_virtu:
  0012d	68 68 08 00 00	 push	 2152			; 00000868H
  00132	68 00 00 00 00	 push	 OFFSET ??_C@_0EG@KKKJIDAO@c?3?2users?2nhv90?2projects?2eech?2ap@
  00137	8b 0d 00 00 00
	00		 mov	 ecx, DWORD PTR ?overload_invalid_int_type_message@@3PBDB ; overload_invalid_int_type_message
  0013d	51		 push	 ecx
  0013e	e8 00 00 00 00	 call	 ?process_assert@@YGXPBD0H@Z ; process_assert
  00143	c7 45 ac 00 00
	00 00		 mov	 DWORD PTR tv150[ebp], 0
$LN28@draw_virtu:
  0014a	6a 31		 push	 49			; 00000031H
  0014c	8b 15 00 00 00
	00		 mov	 edx, DWORD PTR ?gunship_entity@@3PAUENTITY@@A ; gunship_entity
  00152	52		 push	 edx
  00153	69 45 b0 5c 04
	00 00		 imul	 eax, DWORD PTR tv143[ebp], 1116
  0015a	8b 4d ac	 mov	 ecx, DWORD PTR tv150[ebp]
  0015d	8b 94 88 00 00
	00 00		 mov	 edx, DWORD PTR ?fn_get_local_entity_int_value@@3PAY0BBH@P6GHPAUENTITY@@W4INT_TYPES@@@ZA[eax+ecx*4]
  00164	ff d2		 call	 edx
  00166	85 c0		 test	 eax, eax
  00168	0f 84 a0 00 00
	00		 je	 $LN13@draw_virtu

; 2153 : 	{
; 2154 : 		if (!get_local_entity_int_value (get_gunship_entity (), INT_TYPE_ALIVE))

  0016e	83 3d 00 00 00
	00 00		 cmp	 DWORD PTR ?gunship_entity@@3PAUENTITY@@A, 0 ; gunship_entity
  00175	74 0c		 je	 SHORT $LN29@draw_virtu
  00177	a1 00 00 00 00	 mov	 eax, DWORD PTR ?gunship_entity@@3PAUENTITY@@A ; gunship_entity
  0017c	8b 08		 mov	 ecx, DWORD PTR [eax]
  0017e	89 4d b0	 mov	 DWORD PTR tv162[ebp], ecx
  00181	eb 1d		 jmp	 SHORT $LN30@draw_virtu
$LN29@draw_virtu:
  00183	68 6a 08 00 00	 push	 2154			; 0000086aH
  00188	68 00 00 00 00	 push	 OFFSET ??_C@_0EG@KKKJIDAO@c?3?2users?2nhv90?2projects?2eech?2ap@
  0018d	8b 15 00 00 00
	00		 mov	 edx, DWORD PTR ?null_entity_pointer_message@@3PBDB ; null_entity_pointer_message
  00193	52		 push	 edx
  00194	e8 00 00 00 00	 call	 ?process_assert@@YGXPBD0H@Z ; process_assert
  00199	c7 45 b0 00 00
	00 00		 mov	 DWORD PTR tv162[ebp], 0
$LN30@draw_virtu:
  001a0	b8 01 00 00 00	 mov	 eax, 1
  001a5	85 c0		 test	 eax, eax
  001a7	74 09		 je	 SHORT $LN31@draw_virtu
  001a9	c7 45 ac 07 00
	00 00		 mov	 DWORD PTR tv169[ebp], 7
  001b0	eb 1d		 jmp	 SHORT $LN32@draw_virtu
$LN31@draw_virtu:
  001b2	68 6a 08 00 00	 push	 2154			; 0000086aH
  001b7	68 00 00 00 00	 push	 OFFSET ??_C@_0EG@KKKJIDAO@c?3?2users?2nhv90?2projects?2eech?2ap@
  001bc	8b 0d 00 00 00
	00		 mov	 ecx, DWORD PTR ?overload_invalid_int_type_message@@3PBDB ; overload_invalid_int_type_message
  001c2	51		 push	 ecx
  001c3	e8 00 00 00 00	 call	 ?process_assert@@YGXPBD0H@Z ; process_assert
  001c8	c7 45 ac 00 00
	00 00		 mov	 DWORD PTR tv169[ebp], 0
$LN32@draw_virtu:
  001cf	6a 07		 push	 7
  001d1	8b 15 00 00 00
	00		 mov	 edx, DWORD PTR ?gunship_entity@@3PAUENTITY@@A ; gunship_entity
  001d7	52		 push	 edx
  001d8	69 45 b0 5c 04
	00 00		 imul	 eax, DWORD PTR tv162[ebp], 1116
  001df	8b 4d ac	 mov	 ecx, DWORD PTR tv169[ebp]
  001e2	8b 94 88 00 00
	00 00		 mov	 edx, DWORD PTR ?fn_get_local_entity_int_value@@3PAY0BBH@P6GHPAUENTITY@@W4INT_TYPES@@@ZA[eax+ecx*4]
  001e9	ff d2		 call	 edx
  001eb	85 c0		 test	 eax, eax
  001ed	75 1f		 jne	 SHORT $LN13@draw_virtu

; 2155 : 		{
; 2156 : 			set_external_view_entity (get_gunship_entity ());

  001ef	a1 00 00 00 00	 mov	 eax, DWORD PTR ?gunship_entity@@3PAUENTITY@@A ; gunship_entity
  001f4	50		 push	 eax
  001f5	e8 00 00 00 00	 call	 ?set_external_view_entity@@YGXPAUENTITY@@@Z ; set_external_view_entity

; 2157 : 
; 2158 : 			notify_local_entity (ENTITY_MESSAGE_SET_CAMERA_ACTION, get_camera_entity (), NULL, CAMERA_ACTION_EJECT);

  001fa	6a 07		 push	 7
  001fc	6a 00		 push	 0
  001fe	a1 00 00 00 00	 mov	 eax, DWORD PTR ?camera_entity@@3PAUENTITY@@A ; camera_entity
  00203	50		 push	 eax
  00204	6a 2f		 push	 47			; 0000002fH
  00206	e8 00 00 00 00	 call	 ?notify_local_entity@@YAHW4ENTITY_MESSAGES@@PAUENTITY@@1ZZ ; notify_local_entity
  0020b	83 c4 10	 add	 esp, 16			; 00000010H
$LN13@draw_virtu:

; 2159 : 		}
; 2160 : 	}
; 2161 : 
; 2162 : 	//
; 2163 : 	////////////////////////////////////////
; 2164 : 
; 2165 : 	switch (get_global_gunship_type ())

  0020e	a1 0c 00 00 00	 mov	 eax, DWORD PTR ?global_options@@3UGLOBAL_OPTIONS_DATA@@A+12
  00213	89 45 b0	 mov	 DWORD PTR tv177[ebp], eax
  00216	8b 4d b0	 mov	 ecx, DWORD PTR tv177[ebp]
  00219	83 e9 02	 sub	 ecx, 2
  0021c	89 4d b0	 mov	 DWORD PTR tv177[ebp], ecx
  0021f	83 7d b0 07	 cmp	 DWORD PTR tv177[ebp], 7
  00223	77 2b		 ja	 SHORT $LN2@draw_virtu
  00225	8b 55 b0	 mov	 edx, DWORD PTR tv177[ebp]
  00228	ff 24 95 00 00
	00 00		 jmp	 DWORD PTR $LN39@draw_virtu[edx*4]
$LN14@draw_virtu:

; 2166 : 	{
; 2167 : 		////////////////////////////////////////
; 2168 : 		case GUNSHIP_TYPE_COMANCHE:
; 2169 : 		////////////////////////////////////////
; 2170 : 		{
; 2171 : 			pre_render_comanche_virtual_cockpit_displays ();

  0022f	e8 00 00 00 00	 call	 ?pre_render_comanche_virtual_cockpit_displays@@YGXXZ ; pre_render_comanche_virtual_cockpit_displays

; 2172 : 
; 2173 : 			break;

  00234	eb 1a		 jmp	 SHORT $LN2@draw_virtu
$LN15@draw_virtu:

; 2174 : 		}
; 2175 : 		////////////////////////////////////////
; 2176 : 		case GUNSHIP_TYPE_HOKUM:
; 2177 : 		////////////////////////////////////////
; 2178 : 		{
; 2179 : 			pre_render_hokum_virtual_cockpit_displays ();

  00236	e8 00 00 00 00	 call	 ?pre_render_hokum_virtual_cockpit_displays@@YGXXZ ; pre_render_hokum_virtual_cockpit_displays

; 2180 : 
; 2181 : 			break;

  0023b	eb 13		 jmp	 SHORT $LN2@draw_virtu
$LN16@draw_virtu:

; 2182 : 		}
; 2183 : 		////////////////////////////////////////
; 2184 : 		case GUNSHIP_TYPE_VIPER:
; 2185 : 		////////////////////////////////////////
; 2186 : 		{
; 2187 : 			pre_render_viper_virtual_cockpit_displays ();

  0023d	e8 00 00 00 00	 call	 ?pre_render_viper_virtual_cockpit_displays@@YGXXZ ; pre_render_viper_virtual_cockpit_displays

; 2188 : 
; 2189 : 			break;

  00242	eb 0c		 jmp	 SHORT $LN2@draw_virtu
$LN17@draw_virtu:

; 2190 : 		}
; 2191 : 		////////////////////////////////////////
; 2192 : 		case GUNSHIP_TYPE_KIOWA:
; 2193 : 		////////////////////////////////////////
; 2194 : 		{
; 2195 : 			pre_render_kiowa_virtual_cockpit_displays ();

  00244	e8 00 00 00 00	 call	 ?pre_render_kiowa_virtual_cockpit_displays@@YGXXZ ; pre_render_kiowa_virtual_cockpit_displays

; 2196 : 
; 2197 : 			break;

  00249	eb 05		 jmp	 SHORT $LN2@draw_virtu
$LN18@draw_virtu:

; 2198 : 		}
; 2199 : 		////////////////////////////////////////
; 2200 : 		case GUNSHIP_TYPE_KA50:
; 2201 : 		////////////////////////////////////////
; 2202 : 		{
; 2203 : 			pre_render_ka50_virtual_cockpit_displays ();

  0024b	e8 00 00 00 00	 call	 ?pre_render_ka50_virtual_cockpit_displays@@YGXXZ ; pre_render_ka50_virtual_cockpit_displays
$LN2@draw_virtu:

; 2204 : 
; 2205 : 			break;
; 2206 : 		}
; 2207 : 		////////////////////////////////////////
; 2208 : 	}
; 2209 : 
; 2210 : 	//
; 2211 : 	// get camera viewpoint
; 2212 : 	//
; 2213 : 
; 2214 : 	virtual_cockpit_inst3d->vp.x = 0.0;

  00250	a1 00 00 00 00	 mov	 eax, DWORD PTR ?virtual_cockpit_inst3d@@3PAUOBJECT_3D_INSTANCE@@A ; virtual_cockpit_inst3d
  00255	0f 57 c0	 xorps	 xmm0, xmm0
  00258	f3 0f 11 40 08	 movss	 DWORD PTR [eax+8], xmm0

; 2215 : 	virtual_cockpit_inst3d->vp.y = 0.0;

  0025d	a1 00 00 00 00	 mov	 eax, DWORD PTR ?virtual_cockpit_inst3d@@3PAUOBJECT_3D_INSTANCE@@A ; virtual_cockpit_inst3d
  00262	0f 57 c0	 xorps	 xmm0, xmm0
  00265	f3 0f 11 40 0c	 movss	 DWORD PTR [eax+12], xmm0

; 2216 : 	virtual_cockpit_inst3d->vp.z = 0.0;

  0026a	a1 00 00 00 00	 mov	 eax, DWORD PTR ?virtual_cockpit_inst3d@@3PAUOBJECT_3D_INSTANCE@@A ; virtual_cockpit_inst3d
  0026f	0f 57 c0	 xorps	 xmm0, xmm0
  00272	f3 0f 11 40 10	 movss	 DWORD PTR [eax+16], xmm0

; 2217 : 
; 2218 : 	get_local_entity_attitude_matrix (get_gunship_entity (), virtual_cockpit_inst3d->vp.attitude);

  00277	83 3d 00 00 00
	00 00		 cmp	 DWORD PTR ?gunship_entity@@3PAUENTITY@@A, 0 ; gunship_entity
  0027e	74 0c		 je	 SHORT $LN33@draw_virtu
  00280	a1 00 00 00 00	 mov	 eax, DWORD PTR ?gunship_entity@@3PAUENTITY@@A ; gunship_entity
  00285	8b 08		 mov	 ecx, DWORD PTR [eax]
  00287	89 4d b0	 mov	 DWORD PTR tv196[ebp], ecx
  0028a	eb 21		 jmp	 SHORT $LN34@draw_virtu
$LN33@draw_virtu:
  0028c	8b 15 00 00 00
	00		 mov	 edx, DWORD PTR ?__LINE__Var@?0??draw_virtual_cockpit_3d_crew_view@@YGXXZ@4JA
  00292	83 c2 57	 add	 edx, 87			; 00000057H
  00295	52		 push	 edx
  00296	68 00 00 00 00	 push	 OFFSET ??_C@_0EG@KKKJIDAO@c?3?2users?2nhv90?2projects?2eech?2ap@
  0029b	a1 00 00 00 00	 mov	 eax, DWORD PTR ?null_entity_pointer_message@@3PBDB ; null_entity_pointer_message
  002a0	50		 push	 eax
  002a1	e8 00 00 00 00	 call	 ?process_assert@@YGXPBD0H@Z ; process_assert
  002a6	c7 45 b0 00 00
	00 00		 mov	 DWORD PTR tv196[ebp], 0
$LN34@draw_virtu:
  002ad	8b 0d 00 00 00
	00		 mov	 ecx, DWORD PTR ?virtual_cockpit_inst3d@@3PAUOBJECT_3D_INSTANCE@@A ; virtual_cockpit_inst3d
  002b3	83 c1 14	 add	 ecx, 20			; 00000014H
  002b6	51		 push	 ecx
  002b7	8b 15 00 00 00
	00		 mov	 edx, DWORD PTR ?gunship_entity@@3PAUENTITY@@A ; gunship_entity
  002bd	52		 push	 edx
  002be	8b 45 b0	 mov	 eax, DWORD PTR tv196[ebp]
  002c1	8b 0c 85 00 00
	00 00		 mov	 ecx, DWORD PTR ?fn_get_local_entity_attitude_matrix@@3PAP6GXPAUENTITY@@QAY02M@ZA[eax*4]
  002c8	ff d1		 call	 ecx

; 2219 : 
; 2220 : 	get_object_3d_camera_position (virtual_cockpit_inst3d, get_crew_camera_index (get_crew_role ()), get_current_virtual_cockpit_camera (get_crew_role ()), 0.0, &main_vp);

  002ca	68 00 00 00 00	 push	 OFFSET ?main_vp@@3UVIEWPOINT@@A ; main_vp
  002cf	51		 push	 ecx
  002d0	0f 57 c0	 xorps	 xmm0, xmm0
  002d3	f3 0f 11 04 24	 movss	 DWORD PTR [esp], xmm0
  002d8	e8 00 00 00 00	 call	 ?get_crew_role@@YG?AW4CREW_ROLES@@XZ ; get_crew_role
  002dd	50		 push	 eax
  002de	e8 00 00 00 00	 call	 ?get_current_virtual_cockpit_camera@@YGHW4CREW_ROLES@@@Z ; get_current_virtual_cockpit_camera
  002e3	50		 push	 eax
  002e4	e8 00 00 00 00	 call	 ?get_crew_role@@YG?AW4CREW_ROLES@@XZ ; get_crew_role
  002e9	50		 push	 eax
  002ea	e8 00 00 00 00	 call	 ?get_crew_camera_index@@YGHW4CREW_ROLES@@@Z ; get_crew_camera_index
  002ef	50		 push	 eax
  002f0	a1 00 00 00 00	 mov	 eax, DWORD PTR ?virtual_cockpit_inst3d@@3PAUOBJECT_3D_INSTANCE@@A ; virtual_cockpit_inst3d
  002f5	50		 push	 eax
  002f6	e8 00 00 00 00	 call	 ?get_object_3d_camera_position@@YGHPAUOBJECT_3D_INSTANCE@@HHMPAUVIEWPOINT@@@Z ; get_object_3d_camera_position

; 2221 : 
; 2222 : 	position.x = -main_vp.x;

  002fb	f3 0f 10 05 00
	00 00 00	 movss	 xmm0, DWORD PTR ?main_vp@@3UVIEWPOINT@@A
  00303	0f 57 05 00 00
	00 00		 xorps	 xmm0, DWORD PTR __xmm@80000000800000008000000080000000
  0030a	f3 0f 11 45 f4	 movss	 DWORD PTR _position$[ebp], xmm0

; 2223 : 	position.y = -main_vp.y;

  0030f	f3 0f 10 05 04
	00 00 00	 movss	 xmm0, DWORD PTR ?main_vp@@3UVIEWPOINT@@A+4
  00317	0f 57 05 00 00
	00 00		 xorps	 xmm0, DWORD PTR __xmm@80000000800000008000000080000000
  0031e	f3 0f 11 45 f8	 movss	 DWORD PTR _position$[ebp+4], xmm0

; 2224 : 	position.z = -main_vp.z;

  00323	f3 0f 10 05 08
	00 00 00	 movss	 xmm0, DWORD PTR ?main_vp@@3UVIEWPOINT@@A+8
  0032b	0f 57 05 00 00
	00 00		 xorps	 xmm0, DWORD PTR __xmm@80000000800000008000000080000000
  00332	f3 0f 11 45 fc	 movss	 DWORD PTR _position$[ebp+8], xmm0

; 2225 : 
; 2226 : 	multiply_transpose_matrix3x3_vec3d (&virtual_cockpit_inst3d->vp.position, main_vp.attitude, &position);

  00337	8d 45 f4	 lea	 eax, DWORD PTR _position$[ebp]
  0033a	50		 push	 eax
  0033b	68 0c 00 00 00	 push	 OFFSET ?main_vp@@3UVIEWPOINT@@A+12
  00340	8b 0d 00 00 00
	00		 mov	 ecx, DWORD PTR ?virtual_cockpit_inst3d@@3PAUOBJECT_3D_INSTANCE@@A ; virtual_cockpit_inst3d
  00346	83 c1 08	 add	 ecx, 8
  00349	51		 push	 ecx
  0034a	e8 00 00 00 00	 call	 ?multiply_transpose_matrix3x3_vec3d@@YGXPAUVEC3D@@QAY02$$CBMPBU1@@Z ; multiply_transpose_matrix3x3_vec3d

; 2227 : 
; 2228 : 	get_local_entity_vec3d (get_gunship_entity (), VEC3D_TYPE_POSITION, &position);

  0034f	83 3d 00 00 00
	00 00		 cmp	 DWORD PTR ?gunship_entity@@3PAUENTITY@@A, 0 ; gunship_entity
  00356	74 0c		 je	 SHORT $LN35@draw_virtu
  00358	a1 00 00 00 00	 mov	 eax, DWORD PTR ?gunship_entity@@3PAUENTITY@@A ; gunship_entity
  0035d	8b 08		 mov	 ecx, DWORD PTR [eax]
  0035f	89 4d b0	 mov	 DWORD PTR tv228[ebp], ecx
  00362	eb 21		 jmp	 SHORT $LN36@draw_virtu
$LN35@draw_virtu:
  00364	8b 15 00 00 00
	00		 mov	 edx, DWORD PTR ?__LINE__Var@?0??draw_virtual_cockpit_3d_crew_view@@YGXXZ@4JA
  0036a	83 c2 61	 add	 edx, 97			; 00000061H
  0036d	52		 push	 edx
  0036e	68 00 00 00 00	 push	 OFFSET ??_C@_0EG@KKKJIDAO@c?3?2users?2nhv90?2projects?2eech?2ap@
  00373	a1 00 00 00 00	 mov	 eax, DWORD PTR ?null_entity_pointer_message@@3PBDB ; null_entity_pointer_message
  00378	50		 push	 eax
  00379	e8 00 00 00 00	 call	 ?process_assert@@YGXPBD0H@Z ; process_assert
  0037e	c7 45 b0 00 00
	00 00		 mov	 DWORD PTR tv228[ebp], 0
$LN36@draw_virtu:
  00385	b9 01 00 00 00	 mov	 ecx, 1
  0038a	85 c9		 test	 ecx, ecx
  0038c	74 09		 je	 SHORT $LN37@draw_virtu
  0038e	c7 45 ac 08 00
	00 00		 mov	 DWORD PTR tv236[ebp], 8
  00395	eb 21		 jmp	 SHORT $LN38@draw_virtu
$LN37@draw_virtu:
  00397	8b 15 00 00 00
	00		 mov	 edx, DWORD PTR ?__LINE__Var@?0??draw_virtual_cockpit_3d_crew_view@@YGXXZ@4JA
  0039d	83 c2 61	 add	 edx, 97			; 00000061H
  003a0	52		 push	 edx
  003a1	68 00 00 00 00	 push	 OFFSET ??_C@_0EG@KKKJIDAO@c?3?2users?2nhv90?2projects?2eech?2ap@
  003a6	a1 00 00 00 00	 mov	 eax, DWORD PTR ?overload_invalid_vec3d_type_message@@3PBDB ; overload_invalid_vec3d_type_message
  003ab	50		 push	 eax
  003ac	e8 00 00 00 00	 call	 ?process_assert@@YGXPBD0H@Z ; process_assert
  003b1	c7 45 ac 00 00
	00 00		 mov	 DWORD PTR tv236[ebp], 0
$LN38@draw_virtu:
  003b8	8d 4d f4	 lea	 ecx, DWORD PTR _position$[ebp]
  003bb	51		 push	 ecx
  003bc	6a 08		 push	 8
  003be	8b 15 00 00 00
	00		 mov	 edx, DWORD PTR ?gunship_entity@@3PAUENTITY@@A ; gunship_entity
  003c4	52		 push	 edx
  003c5	6b 45 b0 60	 imul	 eax, DWORD PTR tv228[ebp], 96
  003c9	8b 4d ac	 mov	 ecx, DWORD PTR tv236[ebp]
  003cc	8b 94 88 00 00
	00 00		 mov	 edx, DWORD PTR ?fn_get_local_entity_vec3d@@3PAY0BI@P6GXPAUENTITY@@W4VEC3D_TYPES@@PAUVEC3D@@@ZA[eax+ecx*4]
  003d3	ff d2		 call	 edx

; 2229 : 
; 2230 : 	main_vp.x += position.x;

  003d5	f3 0f 10 05 00
	00 00 00	 movss	 xmm0, DWORD PTR ?main_vp@@3UVIEWPOINT@@A
  003dd	f3 0f 58 45 f4	 addss	 xmm0, DWORD PTR _position$[ebp]
  003e2	f3 0f 11 05 00
	00 00 00	 movss	 DWORD PTR ?main_vp@@3UVIEWPOINT@@A, xmm0

; 2231 : 	main_vp.y += position.y;

  003ea	f3 0f 10 05 04
	00 00 00	 movss	 xmm0, DWORD PTR ?main_vp@@3UVIEWPOINT@@A+4
  003f2	f3 0f 58 45 f8	 addss	 xmm0, DWORD PTR _position$[ebp+4]
  003f7	f3 0f 11 05 04
	00 00 00	 movss	 DWORD PTR ?main_vp@@3UVIEWPOINT@@A+4, xmm0

; 2232 : 	main_vp.z += position.z;

  003ff	f3 0f 10 05 08
	00 00 00	 movss	 xmm0, DWORD PTR ?main_vp@@3UVIEWPOINT@@A+8
  00407	f3 0f 58 45 fc	 addss	 xmm0, DWORD PTR _position$[ebp+8]
  0040c	f3 0f 11 05 08
	00 00 00	 movss	 DWORD PTR ?main_vp@@3UVIEWPOINT@@A+8, xmm0

; 2233 : 
; 2234 : 	//
; 2235 : 	// draw view
; 2236 : 	//
; 2237 : 
; 2238 : 	set_crew_view_full_screen_params ();

  00414	e8 00 00 00 00	 call	 ?set_crew_view_full_screen_params@@YGXXZ ; set_crew_view_full_screen_params

; 2239 : 
; 2240 : 	draw_main_3d_scene (&main_vp);

  00419	68 00 00 00 00	 push	 OFFSET ?main_vp@@3UVIEWPOINT@@A ; main_vp
  0041e	e8 00 00 00 00	 call	 ?draw_main_3d_scene@@YGXPAUVIEWPOINT@@@Z ; draw_main_3d_scene

; 2241 : 
; 2242 : 	switch (get_global_gunship_type ())

  00423	a1 0c 00 00 00	 mov	 eax, DWORD PTR ?global_options@@3UGLOBAL_OPTIONS_DATA@@A+12
  00428	89 45 b0	 mov	 DWORD PTR tv246[ebp], eax
  0042b	8b 4d b0	 mov	 ecx, DWORD PTR tv246[ebp]
  0042e	83 e9 02	 sub	 ecx, 2
  00431	89 4d b0	 mov	 DWORD PTR tv246[ebp], ecx
  00434	83 7d b0 07	 cmp	 DWORD PTR tv246[ebp], 7
  00438	77 2b		 ja	 SHORT $LN4@draw_virtu
  0043a	8b 55 b0	 mov	 edx, DWORD PTR tv246[ebp]
  0043d	ff 24 95 00 00
	00 00		 jmp	 DWORD PTR $LN40@draw_virtu[edx*4]
$LN19@draw_virtu:

; 2243 : 	{
; 2244 : 		////////////////////////////////////////
; 2245 : 		case GUNSHIP_TYPE_COMANCHE:
; 2246 : 		////////////////////////////////////////
; 2247 : 		{
; 2248 : 			draw_comanche_virtual_cockpit ();

  00444	e8 00 00 00 00	 call	 ?draw_comanche_virtual_cockpit@@YGXXZ ; draw_comanche_virtual_cockpit

; 2249 : 
; 2250 : 			break;

  00449	eb 1a		 jmp	 SHORT $LN4@draw_virtu
$LN20@draw_virtu:

; 2251 : 		}
; 2252 : 		////////////////////////////////////////
; 2253 : 		case GUNSHIP_TYPE_HOKUM:
; 2254 : 		////////////////////////////////////////
; 2255 : 		{
; 2256 : 			draw_hokum_virtual_cockpit ();

  0044b	e8 00 00 00 00	 call	 ?draw_hokum_virtual_cockpit@@YGXXZ ; draw_hokum_virtual_cockpit

; 2257 : 
; 2258 : 			break;

  00450	eb 13		 jmp	 SHORT $LN4@draw_virtu
$LN21@draw_virtu:

; 2259 : 		}
; 2260 : 		////////////////////////////////////////
; 2261 : 		case GUNSHIP_TYPE_VIPER:
; 2262 : 		////////////////////////////////////////
; 2263 : 		{
; 2264 : 			draw_viper_virtual_cockpit ();

  00452	e8 00 00 00 00	 call	 ?draw_viper_virtual_cockpit@@YGXXZ ; draw_viper_virtual_cockpit

; 2265 : 
; 2266 : 			break;

  00457	eb 0c		 jmp	 SHORT $LN4@draw_virtu
$LN22@draw_virtu:

; 2267 : 		}
; 2268 : 		////////////////////////////////////////
; 2269 : 		case GUNSHIP_TYPE_KIOWA:
; 2270 : 		////////////////////////////////////////
; 2271 : 		{
; 2272 : 			draw_kiowa_virtual_cockpit ();

  00459	e8 00 00 00 00	 call	 ?draw_kiowa_virtual_cockpit@@YGXXZ ; draw_kiowa_virtual_cockpit

; 2273 : 
; 2274 : 			break;

  0045e	eb 05		 jmp	 SHORT $LN4@draw_virtu
$LN23@draw_virtu:

; 2275 : 		}
; 2276 : 		////////////////////////////////////////
; 2277 : 		case GUNSHIP_TYPE_KA50:
; 2278 : 		////////////////////////////////////////
; 2279 : 		{
; 2280 : 			draw_ka50_virtual_cockpit ();

  00460	e8 00 00 00 00	 call	 ?draw_ka50_virtual_cockpit@@YGXXZ ; draw_ka50_virtual_cockpit
$LN4@draw_virtu:

; 2281 : 
; 2282 : 			break;
; 2283 : 		}
; 2284 : 		////////////////////////////////////////
; 2285 : 	}
; 2286 : 
; 2287 : 	//
; 2288 : 	// restore virtual cockpit 3D instance
; 2289 : 	//
; 2290 : 
; 2291 : 	get_pilot_head_viewpoint ();

  00465	e8 00 00 00 00	 call	 ?get_pilot_head_viewpoint@@YGXXZ ; get_pilot_head_viewpoint

; 2292 : }

  0046a	5f		 pop	 edi
  0046b	5e		 pop	 esi
  0046c	5b		 pop	 ebx
  0046d	8b e5		 mov	 esp, ebp
  0046f	5d		 pop	 ebp
  00470	c3		 ret	 0
  00471	0f 1f 00	 npad	 3
$LN39@draw_virtu:
  00474	00 00 00 00	 DD	 $LN14@draw_virtu
  00478	00 00 00 00	 DD	 $LN15@draw_virtu
  0047c	00 00 00 00	 DD	 $LN2@draw_virtu
  00480	00 00 00 00	 DD	 $LN2@draw_virtu
  00484	00 00 00 00	 DD	 $LN2@draw_virtu
  00488	00 00 00 00	 DD	 $LN18@draw_virtu
  0048c	00 00 00 00	 DD	 $LN16@draw_virtu
  00490	00 00 00 00	 DD	 $LN17@draw_virtu
$LN40@draw_virtu:
  00494	00 00 00 00	 DD	 $LN19@draw_virtu
  00498	00 00 00 00	 DD	 $LN20@draw_virtu
  0049c	00 00 00 00	 DD	 $LN4@draw_virtu
  004a0	00 00 00 00	 DD	 $LN4@draw_virtu
  004a4	00 00 00 00	 DD	 $LN4@draw_virtu
  004a8	00 00 00 00	 DD	 $LN23@draw_virtu
  004ac	00 00 00 00	 DD	 $LN21@draw_virtu
  004b0	00 00 00 00	 DD	 $LN22@draw_virtu
?draw_virtual_cockpit_3d_crew_view@@YGXXZ ENDP		; draw_virtual_cockpit_3d_crew_view
_TEXT	ENDS
; Function compile flags: /Odtp /ZI
; File c:\users\nhv90\projects\eech\aphavoc\source\gunships\views\vm_vckpt.c
;	COMDAT ?draw_virtual_cockpit_3d_view@@YGXXZ
_TEXT	SEGMENT
tv293 = -128						; size = 4
tv95 = -128						; size = 4
tv305 = -124						; size = 4
tv285 = -124						; size = 4
tv88 = -124						; size = 4
tv78 = -124						; size = 4
tv72 = -124						; size = 4
_vp$1 = -56						; size = 48
_target$2 = -8						; size = 4
_source$3 = -4						; size = 4
?draw_virtual_cockpit_3d_view@@YGXXZ PROC		; draw_virtual_cockpit_3d_view, COMDAT

; 1466 : {

  00000	55		 push	 ebp
  00001	8b ec		 mov	 ebp, esp
  00003	81 ec 80 00 00
	00		 sub	 esp, 128		; 00000080H
  00009	53		 push	 ebx
  0000a	56		 push	 esi
  0000b	57		 push	 edi

; 1467 : 	ASSERT (get_gunship_entity ());

  0000c	83 3d 00 00 00
	00 00		 cmp	 DWORD PTR ?gunship_entity@@3PAUENTITY@@A, 0 ; gunship_entity
  00013	75 18		 jne	 SHORT $LN6@draw_virtu
  00015	a1 00 00 00 00	 mov	 eax, DWORD PTR ?__LINE__Var@?0??draw_virtual_cockpit_3d_view@@YGXXZ@4JA
  0001a	83 c0 01	 add	 eax, 1
  0001d	50		 push	 eax
  0001e	68 00 00 00 00	 push	 OFFSET ??_C@_0EG@KKKJIDAO@c?3?2users?2nhv90?2projects?2eech?2ap@
  00023	68 00 00 00 00	 push	 OFFSET ??_C@_0BG@EANNPEON@get_gunship_entity?5?$CI?$CJ@
  00028	e8 00 00 00 00	 call	 ?process_assert@@YGXPBD0H@Z ; process_assert
$LN6@draw_virtu:

; 1468 : 
; 1469 : 	set_main_3d_full_screen_params (DISPLAY_3D_TINT_CLEAR, DISPLAY_3D_LIGHT_LEVEL_HIGH, DISPLAY_3D_NOISE_LEVEL_NONE);

  0002d	6a 00		 push	 0
  0002f	6a 02		 push	 2
  00031	6a 00		 push	 0
  00033	e8 00 00 00 00	 call	 ?set_main_3d_full_screen_params@@YGXW4DISPLAY_3D_TINTS@@W4DISPLAY_3D_LIGHT_LEVELS@@W4DISPLAY_3D_NOISE_LEVELS@@@Z ; set_main_3d_full_screen_params

; 1470 : 
; 1471 : 	switch (get_global_gunship_type ())

  00038	a1 0c 00 00 00	 mov	 eax, DWORD PTR ?global_options@@3UGLOBAL_OPTIONS_DATA@@A+12
  0003d	89 45 84	 mov	 DWORD PTR tv72[ebp], eax
  00040	8b 4d 84	 mov	 ecx, DWORD PTR tv72[ebp]
  00043	83 e9 02	 sub	 ecx, 2
  00046	89 4d 84	 mov	 DWORD PTR tv72[ebp], ecx
  00049	83 7d 84 07	 cmp	 DWORD PTR tv72[ebp], 7
  0004d	77 2b		 ja	 SHORT $LN2@draw_virtu
  0004f	8b 55 84	 mov	 edx, DWORD PTR tv72[ebp]
  00052	ff 24 95 00 00
	00 00		 jmp	 DWORD PTR $LN96@draw_virtu[edx*4]
$LN7@draw_virtu:

; 1472 : 	{
; 1473 : 		////////////////////////////////////////
; 1474 : 		case GUNSHIP_TYPE_COMANCHE:
; 1475 : 		////////////////////////////////////////
; 1476 : 		{
; 1477 : 			pre_render_comanche_virtual_cockpit_displays ();

  00059	e8 00 00 00 00	 call	 ?pre_render_comanche_virtual_cockpit_displays@@YGXXZ ; pre_render_comanche_virtual_cockpit_displays

; 1478 : 
; 1479 : 			break;

  0005e	eb 1a		 jmp	 SHORT $LN2@draw_virtu
$LN8@draw_virtu:

; 1480 : 		}
; 1481 : 		////////////////////////////////////////
; 1482 : 		case GUNSHIP_TYPE_HOKUM:
; 1483 : 		////////////////////////////////////////
; 1484 : 		{
; 1485 : 			pre_render_hokum_virtual_cockpit_displays ();

  00060	e8 00 00 00 00	 call	 ?pre_render_hokum_virtual_cockpit_displays@@YGXXZ ; pre_render_hokum_virtual_cockpit_displays

; 1486 : 
; 1487 : 			break;

  00065	eb 13		 jmp	 SHORT $LN2@draw_virtu
$LN9@draw_virtu:

; 1488 : 		}
; 1489 : 		////////////////////////////////////////
; 1490 : 		case GUNSHIP_TYPE_VIPER:
; 1491 : 		////////////////////////////////////////
; 1492 : 		{
; 1493 : 			pre_render_viper_virtual_cockpit_displays ();

  00067	e8 00 00 00 00	 call	 ?pre_render_viper_virtual_cockpit_displays@@YGXXZ ; pre_render_viper_virtual_cockpit_displays

; 1494 : 
; 1495 : 			break;

  0006c	eb 0c		 jmp	 SHORT $LN2@draw_virtu
$LN10@draw_virtu:

; 1496 : 		}
; 1497 : 		////////////////////////////////////////
; 1498 : 		case GUNSHIP_TYPE_KIOWA:
; 1499 : 		////////////////////////////////////////
; 1500 : 		{
; 1501 : 			pre_render_kiowa_virtual_cockpit_displays ();

  0006e	e8 00 00 00 00	 call	 ?pre_render_kiowa_virtual_cockpit_displays@@YGXXZ ; pre_render_kiowa_virtual_cockpit_displays

; 1502 : 
; 1503 : 			break;

  00073	eb 05		 jmp	 SHORT $LN2@draw_virtu
$LN11@draw_virtu:

; 1504 : 		}
; 1505 : 		////////////////////////////////////////
; 1506 : 		case GUNSHIP_TYPE_KA50:
; 1507 : 		////////////////////////////////////////
; 1508 : 		{
; 1509 : 			pre_render_ka50_virtual_cockpit_displays ();

  00075	e8 00 00 00 00	 call	 ?pre_render_ka50_virtual_cockpit_displays@@YGXXZ ; pre_render_ka50_virtual_cockpit_displays
$LN2@draw_virtu:

; 1510 : 
; 1511 : 			break;
; 1512 : 		}
; 1513 : 		////////////////////////////////////////
; 1514 : 	}
; 1515 : 
; 1516 : 	set_pilots_full_screen_params (night_vision_active());

  0007a	e8 00 00 00 00	 call	 ?night_vision_active@@YGHXZ ; night_vision_active
  0007f	50		 push	 eax
  00080	e8 00 00 00 00	 call	 ?set_pilots_full_screen_params@@YGXH@Z ; set_pilots_full_screen_params

; 1517 : 
; 1518 : 	draw_main_3d_scene (&main_vp);

  00085	68 00 00 00 00	 push	 OFFSET ?main_vp@@3UVIEWPOINT@@A ; main_vp
  0008a	e8 00 00 00 00	 call	 ?draw_main_3d_scene@@YGXPAUVIEWPOINT@@@Z ; draw_main_3d_scene

; 1519 : 
; 1520 : //	if (command_line_restricted_nvg_fov && night_vision_active() && !get_global_draw_cockpit_graphics ())
; 1521 : //		draw_night_vision_mask();
; 1522 : 
; 1523 : 	switch (get_global_gunship_type ())

  0008f	a1 0c 00 00 00	 mov	 eax, DWORD PTR ?global_options@@3UGLOBAL_OPTIONS_DATA@@A+12
  00094	89 45 84	 mov	 DWORD PTR tv78[ebp], eax
  00097	83 7d 84 09	 cmp	 DWORD PTR tv78[ebp], 9
  0009b	0f 87 88 05 00
	00		 ja	 $LN73@draw_virtu
  000a1	8b 4d 84	 mov	 ecx, DWORD PTR tv78[ebp]
  000a4	ff 24 8d 00 00
	00 00		 jmp	 DWORD PTR $LN97@draw_virtu[ecx*4]
$LN12@draw_virtu:

; 1524 : 	{
; 1525 : 		////////////////////////////////////////
; 1526 : 		// JB 030313 Fly any aircraft
; 1527 : //		default:
; 1528 : 		case GUNSHIP_TYPE_APACHE:
; 1529 : 		////////////////////////////////////////
; 1530 : 		{
; 1531 : 			if (get_global_draw_cockpit_graphics ())

  000ab	83 3d b8 01 00
	00 00		 cmp	 DWORD PTR ?global_options@@3UGLOBAL_OPTIONS_DATA@@A+440, 0
  000b2	0f 84 af 00 00
	00		 je	 $LN13@draw_virtu

; 1532 : 			{
; 1533 : 				set_pilots_full_screen_params (FALSE);

  000b8	6a 00		 push	 0
  000ba	e8 00 00 00 00	 call	 ?set_pilots_full_screen_params@@YGXH@Z ; set_pilots_full_screen_params

; 1534 : 
; 1535 : #if 0  // the old experimental 3D cockpit by gotcha - not used anymore
; 1536 : 				if (command_line_3d_cockpit)
; 1537 : 				{
; 1538 : 
; 1539 : 					draw_apache_external_virtual_cockpit_3d
; 1540 : 					(
; 1541 : 						VIRTUAL_COCKPIT_STOWED_WIPER |
; 1542 : 						VIRTUAL_COCKPIT_MOVING_WIPER |
; 1543 : 						VIRTUAL_COCKPIT_ADI |
; 1544 : 						VIRTUAL_COCKPIT_COMPASS |
; 1545 : 						VIRTUAL_COCKPIT_RAIN_EFFECT |
; 1546 : 						VIRTUAL_COCKPIT_MAIN_ROTOR//,NULL
; 1547 : 					);
; 1548 : 
; 1549 : 					draw_apache_internal_virtual_cockpit_3d
; 1550 : 					(
; 1551 : 						VIRTUAL_COCKPIT_COCKPIT |
; 1552 : 						VIRTUAL_COCKPIT_LHS_MFD_DISPLAY |
; 1553 : 						VIRTUAL_COCKPIT_RHS_MFD_DISPLAY |
; 1554 : 						VIRTUAL_COCKPIT_UPFRONT_DISPLAY |
; 1555 : 						VIRTUAL_COCKPIT_INSTRUMENT_NEEDLES
; 1556 : 					);
; 1557 : 				}
; 1558 : 				else
; 1559 : #endif
; 1560 : 				{
; 1561 : 					draw_apache_external_virtual_cockpit

  000bf	6a 00		 push	 0
  000c1	68 80 d4 01 00	 push	 119936			; 0001d480H
  000c6	e8 00 00 00 00	 call	 ?draw_apache_external_virtual_cockpit@@YGXIPAE@Z ; draw_apache_external_virtual_cockpit

; 1562 : 					(
; 1563 : 						VIRTUAL_COCKPIT_STOWED_WIPER |
; 1564 : 						VIRTUAL_COCKPIT_MOVING_WIPER |
; 1565 : 						VIRTUAL_COCKPIT_ADI |
; 1566 : 						VIRTUAL_COCKPIT_COMPASS |
; 1567 : 						VIRTUAL_COCKPIT_RAIN_EFFECT |
; 1568 : 						VIRTUAL_COCKPIT_MAIN_ROTOR,
; 1569 : 						NULL
; 1570 : 					);
; 1571 : 
; 1572 : 					if (get_local_entity_int_value (get_pilot_entity (), INT_TYPE_CREW_ROLE) == CREW_ROLE_PILOT)

  000cb	83 3d 00 00 00
	00 00		 cmp	 DWORD PTR ?pilot_entity@@3PAUENTITY@@A, 0 ; pilot_entity
  000d2	74 0c		 je	 SHORT $LN86@draw_virtu
  000d4	a1 00 00 00 00	 mov	 eax, DWORD PTR ?pilot_entity@@3PAUENTITY@@A ; pilot_entity
  000d9	8b 08		 mov	 ecx, DWORD PTR [eax]
  000db	89 4d 84	 mov	 DWORD PTR tv88[ebp], ecx
  000de	eb 1d		 jmp	 SHORT $LN87@draw_virtu
$LN86@draw_virtu:
  000e0	68 24 06 00 00	 push	 1572			; 00000624H
  000e5	68 00 00 00 00	 push	 OFFSET ??_C@_0EG@KKKJIDAO@c?3?2users?2nhv90?2projects?2eech?2ap@
  000ea	8b 15 00 00 00
	00		 mov	 edx, DWORD PTR ?null_entity_pointer_message@@3PBDB ; null_entity_pointer_message
  000f0	52		 push	 edx
  000f1	e8 00 00 00 00	 call	 ?process_assert@@YGXPBD0H@Z ; process_assert
  000f6	c7 45 84 00 00
	00 00		 mov	 DWORD PTR tv88[ebp], 0
$LN87@draw_virtu:
  000fd	b8 01 00 00 00	 mov	 eax, 1
  00102	85 c0		 test	 eax, eax
  00104	74 09		 je	 SHORT $LN88@draw_virtu
  00106	c7 45 80 23 00
	00 00		 mov	 DWORD PTR tv95[ebp], 35	; 00000023H
  0010d	eb 1d		 jmp	 SHORT $LN89@draw_virtu
$LN88@draw_virtu:
  0010f	68 24 06 00 00	 push	 1572			; 00000624H
  00114	68 00 00 00 00	 push	 OFFSET ??_C@_0EG@KKKJIDAO@c?3?2users?2nhv90?2projects?2eech?2ap@
  00119	8b 0d 00 00 00
	00		 mov	 ecx, DWORD PTR ?overload_invalid_int_type_message@@3PBDB ; overload_invalid_int_type_message
  0011f	51		 push	 ecx
  00120	e8 00 00 00 00	 call	 ?process_assert@@YGXPBD0H@Z ; process_assert
  00125	c7 45 80 00 00
	00 00		 mov	 DWORD PTR tv95[ebp], 0
$LN89@draw_virtu:
  0012c	6a 23		 push	 35			; 00000023H
  0012e	8b 15 00 00 00
	00		 mov	 edx, DWORD PTR ?pilot_entity@@3PAUENTITY@@A ; pilot_entity
  00134	52		 push	 edx
  00135	69 45 84 5c 04
	00 00		 imul	 eax, DWORD PTR tv88[ebp], 1116
  0013c	8b 4d 80	 mov	 ecx, DWORD PTR tv95[ebp]
  0013f	8b 94 88 00 00
	00 00		 mov	 edx, DWORD PTR ?fn_get_local_entity_int_value@@3PAY0BBH@P6GHPAUENTITY@@W4INT_TYPES@@@ZA[eax+ecx*4]
  00146	ff d2		 call	 edx
  00148	85 c0		 test	 eax, eax
  0014a	75 0c		 jne	 SHORT $LN15@draw_virtu

; 1573 : 						draw_apache_internal_virtual_cockpit

  0014c	68 61 00 0a 00	 push	 655457			; 000a0061H
  00151	e8 00 00 00 00	 call	 ?draw_apache_internal_virtual_cockpit@@YGXI@Z ; draw_apache_internal_virtual_cockpit

; 1574 : 						(
; 1575 : 							VIRTUAL_COCKPIT_COCKPIT |
; 1576 : 							VIRTUAL_COCKPIT_UPFRONT_DISPLAY |
; 1577 : 							VIRTUAL_COCKPIT_PILOT_LHS_MFD_DISPLAY |
; 1578 : 							VIRTUAL_COCKPIT_PILOT_RHS_MFD_DISPLAY |
; 1579 : 							VIRTUAL_COCKPIT_INSTRUMENT_NEEDLES
; 1580 : 						);
; 1581 : 					else

  00156	eb 0a		 jmp	 SHORT $LN16@draw_virtu
$LN15@draw_virtu:

; 1582 : 						draw_apache_internal_virtual_cockpit

  00158	68 01 00 e8 00	 push	 15204353		; 00e80001H
  0015d	e8 00 00 00 00	 call	 ?draw_apache_internal_virtual_cockpit@@YGXI@Z ; draw_apache_internal_virtual_cockpit
$LN16@draw_virtu:

; 1583 : 						(
; 1584 : 							VIRTUAL_COCKPIT_COCKPIT |
; 1585 : 							VIRTUAL_COCKPIT_UPFRONT_DISPLAY |
; 1586 : 							VIRTUAL_COCKPIT_CPG_LHS_MFD_DISPLAY |
; 1587 : 							VIRTUAL_COCKPIT_CPG_RHS_MFD_DISPLAY |
; 1588 : 							VIRTUAL_COCKPIT_ORT_DISPLAY
; 1589 : 						);
; 1590 : 				}
; 1591 : 			}
; 1592 : 			else

  00162	e9 84 00 00 00	 jmp	 $LN19@draw_virtu
$LN13@draw_virtu:

; 1593 : 			{
; 1594 : 				if(command_line_export_mfd)

  00167	83 3d 00 00 00
	00 00		 cmp	 DWORD PTR ?command_line_export_mfd@@3HA, 0 ; command_line_export_mfd
  0016e	74 10		 je	 SHORT $LN17@draw_virtu

; 1595 : 				{
; 1596 : 					draw_apache_mfd_on_texture(MFD_LOCATION_LHS);

  00170	6a 00		 push	 0
  00172	e8 00 00 00 00	 call	 ?draw_apache_mfd_on_texture@@YGXW4MFD_LOCATIONS@@@Z ; draw_apache_mfd_on_texture

; 1597 : 					draw_apache_mfd_on_texture(MFD_LOCATION_RHS);

  00177	6a 01		 push	 1
  00179	e8 00 00 00 00	 call	 ?draw_apache_mfd_on_texture@@YGXW4MFD_LOCATIONS@@@Z ; draw_apache_mfd_on_texture

; 1598 : 				}
; 1599 : 				else

  0017e	eb 6b		 jmp	 SHORT $LN19@draw_virtu
$LN17@draw_virtu:

; 1600 : 				{
; 1601 : 					if (get_global_draw_overlaid_instruments ())

  00180	83 3d bc 01 00
	00 00		 cmp	 DWORD PTR ?global_options@@3UGLOBAL_OPTIONS_DATA@@A+444, 0
  00187	74 62		 je	 SHORT $LN19@draw_virtu

; 1602 : 					{
; 1603 : 						draw_overlaid_apache_mfd (100.0, 380.0, 192.0, MFD_LOCATION_LHS);

  00189	6a 00		 push	 0
  0018b	51		 push	 ecx
  0018c	f3 0f 10 05 00
	00 00 00	 movss	 xmm0, DWORD PTR __real@43400000
  00194	f3 0f 11 04 24	 movss	 DWORD PTR [esp], xmm0
  00199	51		 push	 ecx
  0019a	f3 0f 10 05 00
	00 00 00	 movss	 xmm0, DWORD PTR __real@43be0000
  001a2	f3 0f 11 04 24	 movss	 DWORD PTR [esp], xmm0
  001a7	51		 push	 ecx
  001a8	f3 0f 10 05 00
	00 00 00	 movss	 xmm0, DWORD PTR __real@42c80000
  001b0	f3 0f 11 04 24	 movss	 DWORD PTR [esp], xmm0
  001b5	e8 00 00 00 00	 call	 ?draw_overlaid_apache_mfd@@YGXMMMW4MFD_LOCATIONS@@@Z ; draw_overlaid_apache_mfd

; 1604 : 						draw_overlaid_apache_mfd (540.0, 380.0, 192.0, MFD_LOCATION_RHS);

  001ba	6a 01		 push	 1
  001bc	51		 push	 ecx
  001bd	f3 0f 10 05 00
	00 00 00	 movss	 xmm0, DWORD PTR __real@43400000
  001c5	f3 0f 11 04 24	 movss	 DWORD PTR [esp], xmm0
  001ca	51		 push	 ecx
  001cb	f3 0f 10 05 00
	00 00 00	 movss	 xmm0, DWORD PTR __real@43be0000
  001d3	f3 0f 11 04 24	 movss	 DWORD PTR [esp], xmm0
  001d8	51		 push	 ecx
  001d9	f3 0f 10 05 00
	00 00 00	 movss	 xmm0, DWORD PTR __real@44070000
  001e1	f3 0f 11 04 24	 movss	 DWORD PTR [esp], xmm0
  001e6	e8 00 00 00 00	 call	 ?draw_overlaid_apache_mfd@@YGXMMMW4MFD_LOCATIONS@@@Z ; draw_overlaid_apache_mfd
$LN19@draw_virtu:

; 1605 : 					}
; 1606 : 				}
; 1607 : 			}
; 1608 : 
; 1609 : 			draw_apache_hud ();

  001eb	e8 00 00 00 00	 call	 ?draw_apache_hud@@YGXXZ	; draw_apache_hud

; 1610 : 
; 1611 : 			break;

  001f0	e9 07 05 00 00	 jmp	 $LN4@draw_virtu
$LN20@draw_virtu:

; 1612 : 		}
; 1613 : 		////////////////////////////////////////
; 1614 : 		case GUNSHIP_TYPE_HAVOC:
; 1615 : 		////////////////////////////////////////
; 1616 : 		{
; 1617 : 			if (get_global_draw_cockpit_graphics ())

  001f5	83 3d b8 01 00
	00 00		 cmp	 DWORD PTR ?global_options@@3UGLOBAL_OPTIONS_DATA@@A+440, 0
  001fc	74 22		 je	 SHORT $LN21@draw_virtu

; 1618 : 			{
; 1619 : 				set_pilots_full_screen_params (FALSE);

  001fe	6a 00		 push	 0
  00200	e8 00 00 00 00	 call	 ?set_pilots_full_screen_params@@YGXH@Z ; set_pilots_full_screen_params

; 1620 : 				draw_havoc_external_virtual_cockpit

  00205	6a 00		 push	 0
  00207	68 80 d6 01 00	 push	 120448			; 0001d680H
  0020c	e8 00 00 00 00	 call	 ?draw_havoc_external_virtual_cockpit@@YGXIPAE@Z ; draw_havoc_external_virtual_cockpit

; 1621 : 				(
; 1622 : 					VIRTUAL_COCKPIT_STOWED_WIPER |
; 1623 : 					VIRTUAL_COCKPIT_MOVING_WIPER |
; 1624 : 					VIRTUAL_COCKPIT_ADI |
; 1625 : 					VIRTUAL_COCKPIT_HSI |
; 1626 : 					VIRTUAL_COCKPIT_COMPASS |
; 1627 : 					VIRTUAL_COCKPIT_RAIN_EFFECT |
; 1628 : 					VIRTUAL_COCKPIT_MAIN_ROTOR,
; 1629 : 					NULL
; 1630 : 				);
; 1631 : 
; 1632 : 				draw_havoc_internal_virtual_cockpit

  00211	68 1d 08 02 00	 push	 133149			; 0002081dH
  00216	e8 00 00 00 00	 call	 ?draw_havoc_internal_virtual_cockpit@@YGXI@Z ; draw_havoc_internal_virtual_cockpit

; 1633 : 				(
; 1634 : 					VIRTUAL_COCKPIT_COCKPIT |
; 1635 : 					VIRTUAL_COCKPIT_HUD_GLASS |
; 1636 : 					VIRTUAL_COCKPIT_HUD_DISPLAY |
; 1637 : 					VIRTUAL_COCKPIT_CRT_DISPLAY |
; 1638 : 					VIRTUAL_COCKPIT_EKRAN_DISPLAY |
; 1639 : 					VIRTUAL_COCKPIT_INSTRUMENT_NEEDLES
; 1640 : 				);
; 1641 : 			}
; 1642 : 			else

  0021b	e9 86 00 00 00	 jmp	 $LN26@draw_virtu
$LN21@draw_virtu:

; 1643 : 			{
; 1644 : 				draw_external_havoc_hud ();

  00220	e8 00 00 00 00	 call	 ?draw_external_havoc_hud@@YGXXZ ; draw_external_havoc_hud

; 1645 : 
; 1646 : 				if(command_line_export_mfd)

  00225	83 3d 00 00 00
	00 00		 cmp	 DWORD PTR ?command_line_export_mfd@@3HA, 0 ; command_line_export_mfd
  0022c	74 28		 je	 SHORT $LN23@draw_virtu

; 1647 : 				{
; 1648 : 					draw_havoc_mfd_on_texture();

  0022e	e8 00 00 00 00	 call	 ?draw_havoc_mfd_on_texture@@YGXXZ ; draw_havoc_mfd_on_texture

; 1649 : 					if (get_global_draw_overlaid_instruments ())

  00233	83 3d bc 01 00
	00 00		 cmp	 DWORD PTR ?global_options@@3UGLOBAL_OPTIONS_DATA@@A+444, 0
  0023a	74 18		 je	 SHORT $LN25@draw_virtu

; 1650 : 					{
; 1651 : 						draw_overlaid_threat_warning_display (int_full_screen_width - 64, int_full_screen_height - 84);

  0023c	a1 00 00 00 00	 mov	 eax, DWORD PTR ?int_full_screen_height@@3HA ; int_full_screen_height
  00241	83 e8 54	 sub	 eax, 84			; 00000054H
  00244	50		 push	 eax
  00245	8b 0d 00 00 00
	00		 mov	 ecx, DWORD PTR ?int_full_screen_width@@3HA ; int_full_screen_width
  0024b	83 e9 40	 sub	 ecx, 64			; 00000040H
  0024e	51		 push	 ecx
  0024f	e8 00 00 00 00	 call	 ?draw_overlaid_threat_warning_display@@YGXHH@Z ; draw_overlaid_threat_warning_display
$LN25@draw_virtu:

; 1652 : 					}
; 1653 : 				}
; 1654 : 				else

  00254	eb 50		 jmp	 SHORT $LN26@draw_virtu
$LN23@draw_virtu:

; 1655 : 				{
; 1656 : 					if (get_global_draw_overlaid_instruments ())

  00256	83 3d bc 01 00
	00 00		 cmp	 DWORD PTR ?global_options@@3UGLOBAL_OPTIONS_DATA@@A+444, 0
  0025d	74 47		 je	 SHORT $LN26@draw_virtu

; 1657 : 					{
; 1658 : 						draw_overlaid_havoc_mfd (100.0, 380.0, 192.0);

  0025f	51		 push	 ecx
  00260	f3 0f 10 05 00
	00 00 00	 movss	 xmm0, DWORD PTR __real@43400000
  00268	f3 0f 11 04 24	 movss	 DWORD PTR [esp], xmm0
  0026d	51		 push	 ecx
  0026e	f3 0f 10 05 00
	00 00 00	 movss	 xmm0, DWORD PTR __real@43be0000
  00276	f3 0f 11 04 24	 movss	 DWORD PTR [esp], xmm0
  0027b	51		 push	 ecx
  0027c	f3 0f 10 05 00
	00 00 00	 movss	 xmm0, DWORD PTR __real@42c80000
  00284	f3 0f 11 04 24	 movss	 DWORD PTR [esp], xmm0
  00289	e8 00 00 00 00	 call	 ?draw_overlaid_havoc_mfd@@YGXMMM@Z ; draw_overlaid_havoc_mfd

; 1659 : 						draw_overlaid_threat_warning_display (int_full_screen_width - 64, int_full_screen_height - 84);

  0028e	a1 00 00 00 00	 mov	 eax, DWORD PTR ?int_full_screen_height@@3HA ; int_full_screen_height
  00293	83 e8 54	 sub	 eax, 84			; 00000054H
  00296	50		 push	 eax
  00297	8b 0d 00 00 00
	00		 mov	 ecx, DWORD PTR ?int_full_screen_width@@3HA ; int_full_screen_width
  0029d	83 e9 40	 sub	 ecx, 64			; 00000040H
  002a0	51		 push	 ecx
  002a1	e8 00 00 00 00	 call	 ?draw_overlaid_threat_warning_display@@YGXHH@Z ; draw_overlaid_threat_warning_display
$LN26@draw_virtu:

; 1660 : 					}
; 1661 : 				}
; 1662 : 			}
; 1663 : 
; 1664 : 			draw_havoc_hms ();

  002a6	e8 00 00 00 00	 call	 ?draw_havoc_hms@@YGXXZ	; draw_havoc_hms

; 1665 : 
; 1666 : 			break;

  002ab	e9 4c 04 00 00	 jmp	 $LN4@draw_virtu
$LN27@draw_virtu:

; 1667 : 		}
; 1668 : 		////////////////////////////////////////
; 1669 : 		case GUNSHIP_TYPE_COMANCHE:
; 1670 : 		////////////////////////////////////////
; 1671 : 		{
; 1672 : 			set_pilots_full_screen_params (FALSE);

  002b0	6a 00		 push	 0
  002b2	e8 00 00 00 00	 call	 ?set_pilots_full_screen_params@@YGXH@Z ; set_pilots_full_screen_params

; 1673 : 
; 1674 : 			draw_comanche_virtual_cockpit ();

  002b7	e8 00 00 00 00	 call	 ?draw_comanche_virtual_cockpit@@YGXXZ ; draw_comanche_virtual_cockpit

; 1675 : 
; 1676 : 			if (!get_global_draw_cockpit_graphics ())

  002bc	83 3d b8 01 00
	00 00		 cmp	 DWORD PTR ?global_options@@3UGLOBAL_OPTIONS_DATA@@A+440, 0
  002c3	75 1e		 jne	 SHORT $LN31@draw_virtu

; 1677 : 			{
; 1678 : 				if(command_line_export_mfd)

  002c5	83 3d 00 00 00
	00 00		 cmp	 DWORD PTR ?command_line_export_mfd@@3HA, 0 ; command_line_export_mfd
  002cc	74 07		 je	 SHORT $LN29@draw_virtu

; 1679 : 				{
; 1680 : 					draw_comanche_mfd();

  002ce	e8 00 00 00 00	 call	 ?draw_comanche_mfd@@YGXXZ ; draw_comanche_mfd

; 1681 : 				}
; 1682 : 				else

  002d3	eb 0e		 jmp	 SHORT $LN31@draw_virtu
$LN29@draw_virtu:

; 1683 : 				{
; 1684 : 					if (get_global_draw_overlaid_instruments ())

  002d5	83 3d bc 01 00
	00 00		 cmp	 DWORD PTR ?global_options@@3UGLOBAL_OPTIONS_DATA@@A+444, 0
  002dc	74 05		 je	 SHORT $LN31@draw_virtu

; 1685 : 					{
; 1686 : 						draw_overlaid_comanche_mfd ();

  002de	e8 00 00 00 00	 call	 ?draw_overlaid_comanche_mfd@@YGXXZ ; draw_overlaid_comanche_mfd
$LN31@draw_virtu:

; 1687 : 					}
; 1688 : 				}
; 1689 : 			}
; 1690 : 
; 1691 : 			draw_comanche_hud ();

  002e3	e8 00 00 00 00	 call	 ?draw_comanche_hud@@YGXXZ ; draw_comanche_hud

; 1692 : 
; 1693 : 			break;

  002e8	e9 0f 04 00 00	 jmp	 $LN4@draw_virtu
$LN32@draw_virtu:

; 1694 : 		}
; 1695 : 		////////////////////////////////////////
; 1696 : 		case GUNSHIP_TYPE_HOKUM:
; 1697 : 		////////////////////////////////////////
; 1698 : 		{
; 1699 : 			set_pilots_full_screen_params (FALSE);

  002ed	6a 00		 push	 0
  002ef	e8 00 00 00 00	 call	 ?set_pilots_full_screen_params@@YGXH@Z ; set_pilots_full_screen_params

; 1700 : 
; 1701 : 			draw_hokum_virtual_cockpit ();

  002f4	e8 00 00 00 00	 call	 ?draw_hokum_virtual_cockpit@@YGXXZ ; draw_hokum_virtual_cockpit

; 1702 : 
; 1703 : 			if (!get_global_draw_cockpit_graphics ())

  002f9	83 3d b8 01 00
	00 00		 cmp	 DWORD PTR ?global_options@@3UGLOBAL_OPTIONS_DATA@@A+440, 0
  00300	75 1e		 jne	 SHORT $LN36@draw_virtu

; 1704 : 			{
; 1705 : 				if(command_line_export_mfd)

  00302	83 3d 00 00 00
	00 00		 cmp	 DWORD PTR ?command_line_export_mfd@@3HA, 0 ; command_line_export_mfd
  00309	74 07		 je	 SHORT $LN34@draw_virtu

; 1706 : 				{
; 1707 : 					draw_hokum_mfd();

  0030b	e8 00 00 00 00	 call	 ?draw_hokum_mfd@@YGXXZ	; draw_hokum_mfd

; 1708 : 				}
; 1709 : 				else

  00310	eb 0e		 jmp	 SHORT $LN36@draw_virtu
$LN34@draw_virtu:

; 1710 : 				{
; 1711 : 					if (get_global_draw_overlaid_instruments ())

  00312	83 3d bc 01 00
	00 00		 cmp	 DWORD PTR ?global_options@@3UGLOBAL_OPTIONS_DATA@@A+444, 0
  00319	74 05		 je	 SHORT $LN36@draw_virtu

; 1712 : 					{
; 1713 : 						draw_overlaid_hokum_mfd ();

  0031b	e8 00 00 00 00	 call	 ?draw_overlaid_hokum_mfd@@YGXXZ ; draw_overlaid_hokum_mfd
$LN36@draw_virtu:

; 1714 : 					}
; 1715 : 				}
; 1716 : 			}
; 1717 : 
; 1718 : 			draw_hokum_hms ();

  00320	e8 00 00 00 00	 call	 ?draw_hokum_hms@@YGXXZ	; draw_hokum_hms

; 1719 : 
; 1720 : 			break;

  00325	e9 d2 03 00 00	 jmp	 $LN4@draw_virtu
$LN37@draw_virtu:

; 1721 : 		}
; 1722 : 		////Moje 030518 Start
; 1723 : 		case GUNSHIP_TYPE_BLACKHAWK:
; 1724 : 		////////////////////////////////////////
; 1725 : 		{
; 1726 : 			if (get_global_draw_cockpit_graphics ())

  0032a	83 3d b8 01 00
	00 00		 cmp	 DWORD PTR ?global_options@@3UGLOBAL_OPTIONS_DATA@@A+440, 0
  00331	74 22		 je	 SHORT $LN38@draw_virtu

; 1727 : 			{
; 1728 : 				set_pilots_full_screen_params (FALSE);

  00333	6a 00		 push	 0
  00335	e8 00 00 00 00	 call	 ?set_pilots_full_screen_params@@YGXH@Z ; set_pilots_full_screen_params

; 1729 : /* VJ 050114 doesn't work yet
; 1730 : 				if (command_line_3d_cockpit)
; 1731 : 				{
; 1732 : 					draw_blackhawk_external_virtual_cockpit_3d
; 1733 : 					(
; 1734 : 						VIRTUAL_COCKPIT_STOWED_WIPER |
; 1735 : 						VIRTUAL_COCKPIT_MOVING_WIPER |
; 1736 : 						VIRTUAL_COCKPIT_ADI |
; 1737 : 						VIRTUAL_COCKPIT_COMPASS |
; 1738 : 						VIRTUAL_COCKPIT_RAIN_EFFECT |
; 1739 : 						VIRTUAL_COCKPIT_MAIN_ROTOR
; 1740 : 					);
; 1741 : 
; 1742 : 					draw_blackhawk_internal_virtual_cockpit_3d
; 1743 : 					(
; 1744 : 						VIRTUAL_COCKPIT_COCKPIT |
; 1745 : 						VIRTUAL_COCKPIT_LHS_MFD_DISPLAY |
; 1746 : 						VIRTUAL_COCKPIT_RHS_MFD_DISPLAY |
; 1747 : 						VIRTUAL_COCKPIT_UPFRONT_DISPLAY |
; 1748 : 						VIRTUAL_COCKPIT_INSTRUMENT_NEEDLES
; 1749 : 					);
; 1750 : 
; 1751 : 				}
; 1752 : 				else
; 1753 : 				{
; 1754 : */
; 1755 : 					draw_blackhawk_external_virtual_cockpit

  0033a	6a 00		 push	 0
  0033c	68 80 d4 01 00	 push	 119936			; 0001d480H
  00341	e8 00 00 00 00	 call	 ?draw_blackhawk_external_virtual_cockpit@@YGXIPAE@Z ; draw_blackhawk_external_virtual_cockpit

; 1756 : 					(
; 1757 : 						VIRTUAL_COCKPIT_STOWED_WIPER |
; 1758 : 						VIRTUAL_COCKPIT_MOVING_WIPER |
; 1759 : 						VIRTUAL_COCKPIT_ADI |
; 1760 : 						VIRTUAL_COCKPIT_COMPASS |
; 1761 : 						VIRTUAL_COCKPIT_RAIN_EFFECT |
; 1762 : 						VIRTUAL_COCKPIT_MAIN_ROTOR,
; 1763 : 						NULL
; 1764 : 					);
; 1765 : 
; 1766 : 					draw_blackhawk_internal_virtual_cockpit

  00346	68 61 00 0a 00	 push	 655457			; 000a0061H
  0034b	e8 00 00 00 00	 call	 ?draw_blackhawk_internal_virtual_cockpit@@YGXI@Z ; draw_blackhawk_internal_virtual_cockpit

; 1767 : 					(
; 1768 : 						VIRTUAL_COCKPIT_COCKPIT |
; 1769 : 						VIRTUAL_COCKPIT_LHS_MFD_DISPLAY |
; 1770 : 						VIRTUAL_COCKPIT_RHS_MFD_DISPLAY |
; 1771 : 						VIRTUAL_COCKPIT_UPFRONT_DISPLAY |
; 1772 : 						VIRTUAL_COCKPIT_INSTRUMENT_NEEDLES
; 1773 : 					);
; 1774 : //				}
; 1775 : 
; 1776 : 			}
; 1777 : 			else

  00350	e9 84 00 00 00	 jmp	 $LN42@draw_virtu
$LN38@draw_virtu:

; 1778 : 			{
; 1779 : 				if(command_line_export_mfd)

  00355	83 3d 00 00 00
	00 00		 cmp	 DWORD PTR ?command_line_export_mfd@@3HA, 0 ; command_line_export_mfd
  0035c	74 10		 je	 SHORT $LN40@draw_virtu

; 1780 : 				{
; 1781 : 					draw_blackhawk_mfd_on_texture(MFD_LOCATION_LHS);

  0035e	6a 00		 push	 0
  00360	e8 00 00 00 00	 call	 ?draw_blackhawk_mfd_on_texture@@YGXW4MFD_LOCATIONS@@@Z ; draw_blackhawk_mfd_on_texture

; 1782 : 					draw_blackhawk_mfd_on_texture(MFD_LOCATION_RHS);

  00365	6a 01		 push	 1
  00367	e8 00 00 00 00	 call	 ?draw_blackhawk_mfd_on_texture@@YGXW4MFD_LOCATIONS@@@Z ; draw_blackhawk_mfd_on_texture

; 1783 : 				}
; 1784 : 				else

  0036c	eb 6b		 jmp	 SHORT $LN42@draw_virtu
$LN40@draw_virtu:

; 1785 : 				{
; 1786 : 					if (get_global_draw_overlaid_instruments ())

  0036e	83 3d bc 01 00
	00 00		 cmp	 DWORD PTR ?global_options@@3UGLOBAL_OPTIONS_DATA@@A+444, 0
  00375	74 62		 je	 SHORT $LN42@draw_virtu

; 1787 : 					{
; 1788 : 						draw_overlaid_blackhawk_mfd (68.0, 412.0, 128.0, MFD_LOCATION_LHS);

  00377	6a 00		 push	 0
  00379	51		 push	 ecx
  0037a	f3 0f 10 05 00
	00 00 00	 movss	 xmm0, DWORD PTR __real@43000000
  00382	f3 0f 11 04 24	 movss	 DWORD PTR [esp], xmm0
  00387	51		 push	 ecx
  00388	f3 0f 10 05 00
	00 00 00	 movss	 xmm0, DWORD PTR __real@43ce0000
  00390	f3 0f 11 04 24	 movss	 DWORD PTR [esp], xmm0
  00395	51		 push	 ecx
  00396	f3 0f 10 05 00
	00 00 00	 movss	 xmm0, DWORD PTR __real@42880000
  0039e	f3 0f 11 04 24	 movss	 DWORD PTR [esp], xmm0
  003a3	e8 00 00 00 00	 call	 ?draw_overlaid_blackhawk_mfd@@YGXMMMW4MFD_LOCATIONS@@@Z ; draw_overlaid_blackhawk_mfd

; 1789 : 						draw_overlaid_blackhawk_mfd (572.0, 412.0, 128.0, MFD_LOCATION_RHS);

  003a8	6a 01		 push	 1
  003aa	51		 push	 ecx
  003ab	f3 0f 10 05 00
	00 00 00	 movss	 xmm0, DWORD PTR __real@43000000
  003b3	f3 0f 11 04 24	 movss	 DWORD PTR [esp], xmm0
  003b8	51		 push	 ecx
  003b9	f3 0f 10 05 00
	00 00 00	 movss	 xmm0, DWORD PTR __real@43ce0000
  003c1	f3 0f 11 04 24	 movss	 DWORD PTR [esp], xmm0
  003c6	51		 push	 ecx
  003c7	f3 0f 10 05 00
	00 00 00	 movss	 xmm0, DWORD PTR __real@440f0000
  003cf	f3 0f 11 04 24	 movss	 DWORD PTR [esp], xmm0
  003d4	e8 00 00 00 00	 call	 ?draw_overlaid_blackhawk_mfd@@YGXMMMW4MFD_LOCATIONS@@@Z ; draw_overlaid_blackhawk_mfd
$LN42@draw_virtu:

; 1790 : 					}
; 1791 : 				}
; 1792 : 			}
; 1793 : 
; 1794 : 			draw_blackhawk_hud ();

  003d9	e8 00 00 00 00	 call	 ?draw_blackhawk_hud@@YGXXZ ; draw_blackhawk_hud

; 1795 : 
; 1796 : 			break;

  003de	e9 19 03 00 00	 jmp	 $LN4@draw_virtu
$LN43@draw_virtu:

; 1797 : 		}
; 1798 : 
; 1799 : 		////Moje 030518 End
; 1800 : 		////Moje 030612 Start
; 1801 : 		////////////////////////////////////////
; 1802 : 		case GUNSHIP_TYPE_HIND:
; 1803 : 		////////////////////////////////////////
; 1804 : 		{
; 1805 : 			if (get_global_draw_cockpit_graphics ())

  003e3	83 3d b8 01 00
	00 00		 cmp	 DWORD PTR ?global_options@@3UGLOBAL_OPTIONS_DATA@@A+440, 0
  003ea	74 3d		 je	 SHORT $LN44@draw_virtu

; 1806 : 			{
; 1807 : 				set_pilots_full_screen_params (FALSE);

  003ec	6a 00		 push	 0
  003ee	e8 00 00 00 00	 call	 ?set_pilots_full_screen_params@@YGXH@Z ; set_pilots_full_screen_params

; 1808 : 
; 1809 : 				if (custom_3d_models.arneh_mi24v_cockpit)

  003f3	83 3d 04 00 00
	00 00		 cmp	 DWORD PTR ?custom_3d_models@@3Uinstalled_custom_3d_models@@A+4, 0
  003fa	74 12		 je	 SHORT $LN46@draw_virtu

; 1810 : 				{
; 1811 : 					draw_hind_external_3d_cockpit(0, NULL);

  003fc	6a 00		 push	 0
  003fe	6a 00		 push	 0
  00400	e8 00 00 00 00	 call	 ?draw_hind_external_3d_cockpit@@YGXIPAE@Z ; draw_hind_external_3d_cockpit

; 1812 : 					draw_hind_internal_3d_cockpit(0);

  00405	6a 00		 push	 0
  00407	e8 00 00 00 00	 call	 ?draw_hind_internal_3d_cockpit@@YGXI@Z ; draw_hind_internal_3d_cockpit

; 1813 : 				}
; 1814 : 				else

  0040c	eb 16		 jmp	 SHORT $LN47@draw_virtu
$LN46@draw_virtu:

; 1815 : 				{
; 1816 : 					draw_hind_external_virtual_cockpit

  0040e	6a 00		 push	 0
  00410	68 80 d6 01 00	 push	 120448			; 0001d680H
  00415	e8 00 00 00 00	 call	 ?draw_hind_external_virtual_cockpit@@YGXIPAE@Z ; draw_hind_external_virtual_cockpit

; 1817 : 					(
; 1818 : 						VIRTUAL_COCKPIT_STOWED_WIPER |
; 1819 : 						VIRTUAL_COCKPIT_MOVING_WIPER |
; 1820 : 						VIRTUAL_COCKPIT_ADI |
; 1821 : 						VIRTUAL_COCKPIT_HSI |
; 1822 : 						VIRTUAL_COCKPIT_COMPASS |
; 1823 : 						VIRTUAL_COCKPIT_RAIN_EFFECT |
; 1824 : 						VIRTUAL_COCKPIT_MAIN_ROTOR,
; 1825 : 						NULL
; 1826 : 					);
; 1827 : 
; 1828 : 					draw_hind_internal_virtual_cockpit

  0041a	68 1d 08 02 00	 push	 133149			; 0002081dH
  0041f	e8 00 00 00 00	 call	 ?draw_hind_internal_virtual_cockpit@@YGXI@Z ; draw_hind_internal_virtual_cockpit
$LN47@draw_virtu:

; 1829 : 					(
; 1830 : 						VIRTUAL_COCKPIT_COCKPIT |
; 1831 : 						VIRTUAL_COCKPIT_HUD_GLASS |
; 1832 : 						VIRTUAL_COCKPIT_HUD_DISPLAY |
; 1833 : 						VIRTUAL_COCKPIT_CRT_DISPLAY |
; 1834 : 						VIRTUAL_COCKPIT_EKRAN_DISPLAY |
; 1835 : 						VIRTUAL_COCKPIT_INSTRUMENT_NEEDLES
; 1836 : 					);
; 1837 : 				}
; 1838 : 			}
; 1839 : 			else

  00424	e9 86 00 00 00	 jmp	 $LN51@draw_virtu
$LN44@draw_virtu:

; 1840 : 			{
; 1841 : 				draw_external_hind_hud ();

  00429	e8 00 00 00 00	 call	 ?draw_external_hind_hud@@YGXXZ ; draw_external_hind_hud

; 1842 : 
; 1843 : 				if(command_line_export_mfd)

  0042e	83 3d 00 00 00
	00 00		 cmp	 DWORD PTR ?command_line_export_mfd@@3HA, 0 ; command_line_export_mfd
  00435	74 28		 je	 SHORT $LN48@draw_virtu

; 1844 : 				{
; 1845 : 					draw_hind_mfd_on_texture();

  00437	e8 00 00 00 00	 call	 ?draw_hind_mfd_on_texture@@YGXXZ ; draw_hind_mfd_on_texture

; 1846 : 					if (get_global_draw_overlaid_instruments ())

  0043c	83 3d bc 01 00
	00 00		 cmp	 DWORD PTR ?global_options@@3UGLOBAL_OPTIONS_DATA@@A+444, 0
  00443	74 18		 je	 SHORT $LN50@draw_virtu

; 1847 : 					{
; 1848 : 						draw_overlaid_hind_threat_warning_display (int_full_screen_width - 64, int_full_screen_height - 84);

  00445	a1 00 00 00 00	 mov	 eax, DWORD PTR ?int_full_screen_height@@3HA ; int_full_screen_height
  0044a	83 e8 54	 sub	 eax, 84			; 00000054H
  0044d	50		 push	 eax
  0044e	8b 0d 00 00 00
	00		 mov	 ecx, DWORD PTR ?int_full_screen_width@@3HA ; int_full_screen_width
  00454	83 e9 40	 sub	 ecx, 64			; 00000040H
  00457	51		 push	 ecx
  00458	e8 00 00 00 00	 call	 ?draw_overlaid_hind_threat_warning_display@@YGXHH@Z ; draw_overlaid_hind_threat_warning_display
$LN50@draw_virtu:

; 1849 : 					}
; 1850 : 				}
; 1851 : 				else

  0045d	eb 50		 jmp	 SHORT $LN51@draw_virtu
$LN48@draw_virtu:

; 1852 : 				{
; 1853 : 					if (get_global_draw_overlaid_instruments ())

  0045f	83 3d bc 01 00
	00 00		 cmp	 DWORD PTR ?global_options@@3UGLOBAL_OPTIONS_DATA@@A+444, 0
  00466	74 47		 je	 SHORT $LN51@draw_virtu

; 1854 : 					{
; 1855 : 						draw_overlaid_hind_mfd (68.0, 412.0, 128.0);

  00468	51		 push	 ecx
  00469	f3 0f 10 05 00
	00 00 00	 movss	 xmm0, DWORD PTR __real@43000000
  00471	f3 0f 11 04 24	 movss	 DWORD PTR [esp], xmm0
  00476	51		 push	 ecx
  00477	f3 0f 10 05 00
	00 00 00	 movss	 xmm0, DWORD PTR __real@43ce0000
  0047f	f3 0f 11 04 24	 movss	 DWORD PTR [esp], xmm0
  00484	51		 push	 ecx
  00485	f3 0f 10 05 00
	00 00 00	 movss	 xmm0, DWORD PTR __real@42880000
  0048d	f3 0f 11 04 24	 movss	 DWORD PTR [esp], xmm0
  00492	e8 00 00 00 00	 call	 ?draw_overlaid_hind_mfd@@YGXMMM@Z ; draw_overlaid_hind_mfd

; 1856 : 						draw_overlaid_hind_threat_warning_display (int_full_screen_width - 64, int_full_screen_height - 84);

  00497	a1 00 00 00 00	 mov	 eax, DWORD PTR ?int_full_screen_height@@3HA ; int_full_screen_height
  0049c	83 e8 54	 sub	 eax, 84			; 00000054H
  0049f	50		 push	 eax
  004a0	8b 0d 00 00 00
	00		 mov	 ecx, DWORD PTR ?int_full_screen_width@@3HA ; int_full_screen_width
  004a6	83 e9 40	 sub	 ecx, 64			; 00000040H
  004a9	51		 push	 ecx
  004aa	e8 00 00 00 00	 call	 ?draw_overlaid_hind_threat_warning_display@@YGXHH@Z ; draw_overlaid_hind_threat_warning_display
$LN51@draw_virtu:

; 1857 : 					}
; 1858 : 				}
; 1859 : 			}
; 1860 : 
; 1861 : 			draw_hind_hms ();

  004af	e8 00 00 00 00	 call	 ?draw_hind_hms@@YGXXZ	; draw_hind_hms

; 1862 : 
; 1863 : 			break;

  004b4	e9 43 02 00 00	 jmp	 $LN4@draw_virtu
$LN52@draw_virtu:

; 1864 : 		}
; 1865 : 		////Moje 030612 End
; 1866 : 		////Moje 030816 Start
; 1867 : 		case GUNSHIP_TYPE_AH64A:
; 1868 : 		////////////////////////////////////////
; 1869 : 		{
; 1870 : 			if (get_global_draw_cockpit_graphics ())

  004b9	83 3d b8 01 00
	00 00		 cmp	 DWORD PTR ?global_options@@3UGLOBAL_OPTIONS_DATA@@A+440, 0
  004c0	74 22		 je	 SHORT $LN53@draw_virtu

; 1871 : 			{
; 1872 : 				set_pilots_full_screen_params (FALSE);

  004c2	6a 00		 push	 0
  004c4	e8 00 00 00 00	 call	 ?set_pilots_full_screen_params@@YGXH@Z ; set_pilots_full_screen_params

; 1873 : 
; 1874 : 				draw_ah64a_external_virtual_cockpit

  004c9	6a 00		 push	 0
  004cb	68 80 d4 01 00	 push	 119936			; 0001d480H
  004d0	e8 00 00 00 00	 call	 ?draw_ah64a_external_virtual_cockpit@@YGXIPAE@Z ; draw_ah64a_external_virtual_cockpit

; 1875 : 				(
; 1876 : 					VIRTUAL_COCKPIT_STOWED_WIPER |
; 1877 : 					VIRTUAL_COCKPIT_MOVING_WIPER |
; 1878 : 					VIRTUAL_COCKPIT_ADI |
; 1879 : 					VIRTUAL_COCKPIT_COMPASS |
; 1880 : 					VIRTUAL_COCKPIT_RAIN_EFFECT |
; 1881 : 					VIRTUAL_COCKPIT_MAIN_ROTOR,
; 1882 : 					NULL
; 1883 : 				);
; 1884 : 
; 1885 : 				draw_ah64a_internal_virtual_cockpit

  004d5	68 61 00 0a 00	 push	 655457			; 000a0061H
  004da	e8 00 00 00 00	 call	 ?draw_ah64a_internal_virtual_cockpit@@YGXI@Z ; draw_ah64a_internal_virtual_cockpit

; 1886 : 				(
; 1887 : 					VIRTUAL_COCKPIT_COCKPIT |
; 1888 : 					VIRTUAL_COCKPIT_LHS_MFD_DISPLAY |
; 1889 : 					VIRTUAL_COCKPIT_RHS_MFD_DISPLAY |
; 1890 : 					VIRTUAL_COCKPIT_UPFRONT_DISPLAY |
; 1891 : 					VIRTUAL_COCKPIT_INSTRUMENT_NEEDLES
; 1892 : 				);
; 1893 : 			}
; 1894 : 			else

  004df	e9 84 00 00 00	 jmp	 $LN57@draw_virtu
$LN53@draw_virtu:

; 1895 : 			{
; 1896 : 				if(command_line_export_mfd)

  004e4	83 3d 00 00 00
	00 00		 cmp	 DWORD PTR ?command_line_export_mfd@@3HA, 0 ; command_line_export_mfd
  004eb	74 10		 je	 SHORT $LN55@draw_virtu

; 1897 : 				{
; 1898 : 					draw_ah64a_mfd_on_texture(MFD_LOCATION_LHS);

  004ed	6a 00		 push	 0
  004ef	e8 00 00 00 00	 call	 ?draw_ah64a_mfd_on_texture@@YGXW4MFD_LOCATIONS@@@Z ; draw_ah64a_mfd_on_texture

; 1899 : 					draw_ah64a_mfd_on_texture(MFD_LOCATION_RHS);

  004f4	6a 01		 push	 1
  004f6	e8 00 00 00 00	 call	 ?draw_ah64a_mfd_on_texture@@YGXW4MFD_LOCATIONS@@@Z ; draw_ah64a_mfd_on_texture

; 1900 : 				}
; 1901 : 				else

  004fb	eb 6b		 jmp	 SHORT $LN57@draw_virtu
$LN55@draw_virtu:

; 1902 : 				{
; 1903 : 					if (get_global_draw_overlaid_instruments ())

  004fd	83 3d bc 01 00
	00 00		 cmp	 DWORD PTR ?global_options@@3UGLOBAL_OPTIONS_DATA@@A+444, 0
  00504	74 62		 je	 SHORT $LN57@draw_virtu

; 1904 : 					{
; 1905 : 						draw_overlaid_ah64a_mfd (68.0, 412.0, 128.0, MFD_LOCATION_LHS);

  00506	6a 00		 push	 0
  00508	51		 push	 ecx
  00509	f3 0f 10 05 00
	00 00 00	 movss	 xmm0, DWORD PTR __real@43000000
  00511	f3 0f 11 04 24	 movss	 DWORD PTR [esp], xmm0
  00516	51		 push	 ecx
  00517	f3 0f 10 05 00
	00 00 00	 movss	 xmm0, DWORD PTR __real@43ce0000
  0051f	f3 0f 11 04 24	 movss	 DWORD PTR [esp], xmm0
  00524	51		 push	 ecx
  00525	f3 0f 10 05 00
	00 00 00	 movss	 xmm0, DWORD PTR __real@42880000
  0052d	f3 0f 11 04 24	 movss	 DWORD PTR [esp], xmm0
  00532	e8 00 00 00 00	 call	 ?draw_overlaid_ah64a_mfd@@YGXMMMW4MFD_LOCATIONS@@@Z ; draw_overlaid_ah64a_mfd

; 1906 : 						draw_overlaid_ah64a_mfd (572.0, 412.0, 128.0, MFD_LOCATION_RHS);

  00537	6a 01		 push	 1
  00539	51		 push	 ecx
  0053a	f3 0f 10 05 00
	00 00 00	 movss	 xmm0, DWORD PTR __real@43000000
  00542	f3 0f 11 04 24	 movss	 DWORD PTR [esp], xmm0
  00547	51		 push	 ecx
  00548	f3 0f 10 05 00
	00 00 00	 movss	 xmm0, DWORD PTR __real@43ce0000
  00550	f3 0f 11 04 24	 movss	 DWORD PTR [esp], xmm0
  00555	51		 push	 ecx
  00556	f3 0f 10 05 00
	00 00 00	 movss	 xmm0, DWORD PTR __real@440f0000
  0055e	f3 0f 11 04 24	 movss	 DWORD PTR [esp], xmm0
  00563	e8 00 00 00 00	 call	 ?draw_overlaid_ah64a_mfd@@YGXMMMW4MFD_LOCATIONS@@@Z ; draw_overlaid_ah64a_mfd
$LN57@draw_virtu:

; 1907 : 					}
; 1908 : 				}
; 1909 : 			}
; 1910 : 
; 1911 : 			draw_ah64a_hud ();

  00568	e8 00 00 00 00	 call	 ?draw_ah64a_hud@@YGXXZ	; draw_ah64a_hud

; 1912 : 
; 1913 : 			break;

  0056d	e9 8a 01 00 00	 jmp	 $LN4@draw_virtu
$LN58@draw_virtu:

; 1914 : 		}
; 1915 : 		////////////////////////////////////////
; 1916 : 		case GUNSHIP_TYPE_KA50:
; 1917 : 		////////////////////////////////////////
; 1918 : 		{
; 1919 : 			set_pilots_full_screen_params (FALSE);

  00572	6a 00		 push	 0
  00574	e8 00 00 00 00	 call	 ?set_pilots_full_screen_params@@YGXH@Z ; set_pilots_full_screen_params

; 1920 : 
; 1921 : 			draw_ka50_virtual_cockpit ();

  00579	e8 00 00 00 00	 call	 ?draw_ka50_virtual_cockpit@@YGXXZ ; draw_ka50_virtual_cockpit

; 1922 : 
; 1923 : 			if (!get_global_draw_cockpit_graphics ())

  0057e	83 3d b8 01 00
	00 00		 cmp	 DWORD PTR ?global_options@@3UGLOBAL_OPTIONS_DATA@@A+440, 0
  00585	75 1e		 jne	 SHORT $LN62@draw_virtu

; 1924 : 			{
; 1925 : 				if (command_line_export_mfd)

  00587	83 3d 00 00 00
	00 00		 cmp	 DWORD PTR ?command_line_export_mfd@@3HA, 0 ; command_line_export_mfd
  0058e	74 07		 je	 SHORT $LN60@draw_virtu

; 1926 : 				{
; 1927 : 					draw_ka50_mfd ();

  00590	e8 00 00 00 00	 call	 ?draw_ka50_mfd@@YGXXZ	; draw_ka50_mfd

; 1928 : 				}
; 1929 : 				else

  00595	eb 0e		 jmp	 SHORT $LN62@draw_virtu
$LN60@draw_virtu:

; 1930 : 				{
; 1931 : 					if (get_global_draw_overlaid_instruments ())

  00597	83 3d bc 01 00
	00 00		 cmp	 DWORD PTR ?global_options@@3UGLOBAL_OPTIONS_DATA@@A+444, 0
  0059e	74 05		 je	 SHORT $LN62@draw_virtu

; 1932 : 					{
; 1933 : 						draw_overlaid_ka50_mfd ();

  005a0	e8 00 00 00 00	 call	 ?draw_overlaid_ka50_mfd@@YGXXZ ; draw_overlaid_ka50_mfd
$LN62@draw_virtu:

; 1934 : 					}
; 1935 : 				}
; 1936 : 			}
; 1937 : 
; 1938 : 			draw_ka50_hms ();

  005a5	e8 00 00 00 00	 call	 ?draw_ka50_hms@@YGXXZ	; draw_ka50_hms

; 1939 : 
; 1940 : 			break;

  005aa	e9 4d 01 00 00	 jmp	 $LN4@draw_virtu
$LN63@draw_virtu:

; 1941 : 		}
; 1942 : 		////Moje 030816 End
; 1943 : 		////////////////////////////////////////
; 1944 : 		case GUNSHIP_TYPE_VIPER:
; 1945 : 		////////////////////////////////////////
; 1946 : 		{
; 1947 : 			set_pilots_full_screen_params (FALSE);

  005af	6a 00		 push	 0
  005b1	e8 00 00 00 00	 call	 ?set_pilots_full_screen_params@@YGXH@Z ; set_pilots_full_screen_params

; 1948 : 
; 1949 : 			draw_viper_virtual_cockpit ();

  005b6	e8 00 00 00 00	 call	 ?draw_viper_virtual_cockpit@@YGXXZ ; draw_viper_virtual_cockpit

; 1950 : 
; 1951 : 			if (!get_global_draw_cockpit_graphics ())

  005bb	83 3d b8 01 00
	00 00		 cmp	 DWORD PTR ?global_options@@3UGLOBAL_OPTIONS_DATA@@A+440, 0
  005c2	75 1e		 jne	 SHORT $LN67@draw_virtu

; 1952 : 			{
; 1953 : 				if (command_line_export_mfd)

  005c4	83 3d 00 00 00
	00 00		 cmp	 DWORD PTR ?command_line_export_mfd@@3HA, 0 ; command_line_export_mfd
  005cb	74 07		 je	 SHORT $LN65@draw_virtu

; 1954 : 				{
; 1955 : 					draw_viper_mfd ();

  005cd	e8 00 00 00 00	 call	 ?draw_viper_mfd@@YGXXZ	; draw_viper_mfd

; 1956 : 				}
; 1957 : 				else

  005d2	eb 0e		 jmp	 SHORT $LN67@draw_virtu
$LN65@draw_virtu:

; 1958 : 				{
; 1959 : 					if (get_global_draw_overlaid_instruments ())

  005d4	83 3d bc 01 00
	00 00		 cmp	 DWORD PTR ?global_options@@3UGLOBAL_OPTIONS_DATA@@A+444, 0
  005db	74 05		 je	 SHORT $LN67@draw_virtu

; 1960 : 					{
; 1961 : 						draw_overlaid_viper_mfd ();

  005dd	e8 00 00 00 00	 call	 ?draw_overlaid_viper_mfd@@YGXXZ ; draw_overlaid_viper_mfd
$LN67@draw_virtu:

; 1962 : 					}
; 1963 : 				}
; 1964 : 			}
; 1965 : 
; 1966 : 			draw_viper_hud ();

  005e2	e8 00 00 00 00	 call	 ?draw_viper_hud@@YGXXZ	; draw_viper_hud

; 1967 : 
; 1968 : 			break;

  005e7	e9 10 01 00 00	 jmp	 $LN4@draw_virtu
$LN68@draw_virtu:

; 1969 : 		}
; 1970 : 		////////////////////////////////////////
; 1971 : 		case GUNSHIP_TYPE_KIOWA:
; 1972 : 		////////////////////////////////////////
; 1973 : 		{
; 1974 : 			set_pilots_full_screen_params (FALSE);

  005ec	6a 00		 push	 0
  005ee	e8 00 00 00 00	 call	 ?set_pilots_full_screen_params@@YGXH@Z ; set_pilots_full_screen_params

; 1975 : 
; 1976 : 			draw_kiowa_virtual_cockpit ();

  005f3	e8 00 00 00 00	 call	 ?draw_kiowa_virtual_cockpit@@YGXXZ ; draw_kiowa_virtual_cockpit

; 1977 : 
; 1978 : 			if (!get_global_draw_cockpit_graphics ())

  005f8	83 3d b8 01 00
	00 00		 cmp	 DWORD PTR ?global_options@@3UGLOBAL_OPTIONS_DATA@@A+440, 0
  005ff	75 1e		 jne	 SHORT $LN72@draw_virtu

; 1979 : 			{
; 1980 : 				if (command_line_export_mfd)

  00601	83 3d 00 00 00
	00 00		 cmp	 DWORD PTR ?command_line_export_mfd@@3HA, 0 ; command_line_export_mfd
  00608	74 07		 je	 SHORT $LN70@draw_virtu

; 1981 : 				{
; 1982 : 					draw_kiowa_mfd ();

  0060a	e8 00 00 00 00	 call	 ?draw_kiowa_mfd@@YGXXZ	; draw_kiowa_mfd

; 1983 : 				}
; 1984 : 				else

  0060f	eb 0e		 jmp	 SHORT $LN72@draw_virtu
$LN70@draw_virtu:

; 1985 : 				{
; 1986 : 					if (get_global_draw_overlaid_instruments ())

  00611	83 3d bc 01 00
	00 00		 cmp	 DWORD PTR ?global_options@@3UGLOBAL_OPTIONS_DATA@@A+444, 0
  00618	74 05		 je	 SHORT $LN72@draw_virtu

; 1987 : 					{
; 1988 : 						draw_overlaid_kiowa_mfd ();

  0061a	e8 00 00 00 00	 call	 ?draw_overlaid_kiowa_mfd@@YGXXZ ; draw_overlaid_kiowa_mfd
$LN72@draw_virtu:

; 1989 : 					}
; 1990 : 				}
; 1991 : 			}
; 1992 : 
; 1993 : 			draw_kiowa_hud ();

  0061f	e8 00 00 00 00	 call	 ?draw_kiowa_hud@@YGXXZ	; draw_kiowa_hud

; 1994 : 
; 1995 : 			break;

  00624	e9 d3 00 00 00	 jmp	 $LN4@draw_virtu
$LN73@draw_virtu:

; 1996 : 		}
; 1997 : 		////////////////////////////////////////
; 1998 : 
; 1999 : 		////////////////////////////////////////
; 2000 : 		// GCsDriver  08-12-2007
; 2001 : 		default:
; 2002 : 		////////////////////////////////////////
; 2003 : 		{
; 2004 : 			if (get_global_draw_cockpit_graphics ())

  00629	83 3d b8 01 00
	00 00		 cmp	 DWORD PTR ?global_options@@3UGLOBAL_OPTIONS_DATA@@A+440, 0
  00630	74 41		 je	 SHORT $LN74@draw_virtu

; 2005 : 			{
; 2006 : 				set_pilots_full_screen_params (FALSE);

  00632	6a 00		 push	 0
  00634	e8 00 00 00 00	 call	 ?set_pilots_full_screen_params@@YGXH@Z ; set_pilots_full_screen_params

; 2007 : 
; 2008 : 				if (command_line_3d_cockpit)

  00639	83 3d 00 00 00
	00 00		 cmp	 DWORD PTR ?command_line_3d_cockpit@@3HA, 0 ; command_line_3d_cockpit
  00640	74 16		 je	 SHORT $LN76@draw_virtu

; 2009 : 				{
; 2010 : 
; 2011 : 					draw_default_external_virtual_cockpit_3d

  00642	68 80 d4 01 00	 push	 119936			; 0001d480H
  00647	e8 00 00 00 00	 call	 ?draw_default_external_virtual_cockpit_3d@@YGXI@Z ; draw_default_external_virtual_cockpit_3d

; 2012 : 					(
; 2013 : 						VIRTUAL_COCKPIT_STOWED_WIPER |
; 2014 : 						VIRTUAL_COCKPIT_MOVING_WIPER |
; 2015 : 						VIRTUAL_COCKPIT_ADI |
; 2016 : 						VIRTUAL_COCKPIT_COMPASS |
; 2017 : 						VIRTUAL_COCKPIT_RAIN_EFFECT |
; 2018 : 						VIRTUAL_COCKPIT_MAIN_ROTOR//,NULL
; 2019 : 					);
; 2020 : 
; 2021 : 					draw_default_internal_virtual_cockpit_3d

  0064c	68 61 00 0a 00	 push	 655457			; 000a0061H
  00651	e8 00 00 00 00	 call	 ?draw_default_internal_virtual_cockpit_3d@@YGXI@Z ; draw_default_internal_virtual_cockpit_3d

; 2022 : 					(
; 2023 : 						VIRTUAL_COCKPIT_COCKPIT |
; 2024 : 						VIRTUAL_COCKPIT_LHS_MFD_DISPLAY |
; 2025 : 						VIRTUAL_COCKPIT_RHS_MFD_DISPLAY |
; 2026 : 						VIRTUAL_COCKPIT_UPFRONT_DISPLAY |
; 2027 : 						VIRTUAL_COCKPIT_INSTRUMENT_NEEDLES
; 2028 : 					);
; 2029 : 				}
; 2030 : 				else

  00656	eb 16		 jmp	 SHORT $LN77@draw_virtu
$LN76@draw_virtu:

; 2031 : 				{
; 2032 : 					draw_default_external_virtual_cockpit

  00658	6a 00		 push	 0
  0065a	68 80 d4 01 00	 push	 119936			; 0001d480H
  0065f	e8 00 00 00 00	 call	 ?draw_default_external_virtual_cockpit@@YGXIPAE@Z ; draw_default_external_virtual_cockpit

; 2033 : 					(
; 2034 : 						VIRTUAL_COCKPIT_STOWED_WIPER |
; 2035 : 						VIRTUAL_COCKPIT_MOVING_WIPER |
; 2036 : 						VIRTUAL_COCKPIT_ADI |
; 2037 : 						VIRTUAL_COCKPIT_COMPASS |
; 2038 : 						VIRTUAL_COCKPIT_RAIN_EFFECT |
; 2039 : 						VIRTUAL_COCKPIT_MAIN_ROTOR,
; 2040 : 						NULL
; 2041 : 					);
; 2042 : 
; 2043 : 					draw_default_internal_virtual_cockpit

  00664	68 61 00 0a 00	 push	 655457			; 000a0061H
  00669	e8 00 00 00 00	 call	 ?draw_default_internal_virtual_cockpit@@YGXI@Z ; draw_default_internal_virtual_cockpit
$LN77@draw_virtu:

; 2044 : 					(
; 2045 : 						VIRTUAL_COCKPIT_COCKPIT |
; 2046 : 						VIRTUAL_COCKPIT_LHS_MFD_DISPLAY |
; 2047 : 						VIRTUAL_COCKPIT_RHS_MFD_DISPLAY |
; 2048 : 						VIRTUAL_COCKPIT_UPFRONT_DISPLAY |
; 2049 : 						VIRTUAL_COCKPIT_INSTRUMENT_NEEDLES
; 2050 : 					);
; 2051 : 				}
; 2052 : 			}
; 2053 : 			else

  0066e	e9 84 00 00 00	 jmp	 $LN80@draw_virtu
$LN74@draw_virtu:

; 2054 : 			{
; 2055 : 				if(command_line_export_mfd)

  00673	83 3d 00 00 00
	00 00		 cmp	 DWORD PTR ?command_line_export_mfd@@3HA, 0 ; command_line_export_mfd
  0067a	74 10		 je	 SHORT $LN78@draw_virtu

; 2056 : 				{
; 2057 : 					draw_default_mfd_on_texture(MFD_LOCATION_LHS);

  0067c	6a 00		 push	 0
  0067e	e8 00 00 00 00	 call	 ?draw_default_mfd_on_texture@@YGXW4MFD_LOCATIONS@@@Z ; draw_default_mfd_on_texture

; 2058 : 					draw_default_mfd_on_texture(MFD_LOCATION_RHS);

  00683	6a 01		 push	 1
  00685	e8 00 00 00 00	 call	 ?draw_default_mfd_on_texture@@YGXW4MFD_LOCATIONS@@@Z ; draw_default_mfd_on_texture

; 2059 : 				}
; 2060 : 				else

  0068a	eb 6b		 jmp	 SHORT $LN80@draw_virtu
$LN78@draw_virtu:

; 2061 : 				{
; 2062 : 					if (get_global_draw_overlaid_instruments ())

  0068c	83 3d bc 01 00
	00 00		 cmp	 DWORD PTR ?global_options@@3UGLOBAL_OPTIONS_DATA@@A+444, 0
  00693	74 62		 je	 SHORT $LN80@draw_virtu

; 2063 : 					{
; 2064 : 						draw_overlaid_default_mfd (100.0, 380.0, 192.0, MFD_LOCATION_LHS);

  00695	6a 00		 push	 0
  00697	51		 push	 ecx
  00698	f3 0f 10 05 00
	00 00 00	 movss	 xmm0, DWORD PTR __real@43400000
  006a0	f3 0f 11 04 24	 movss	 DWORD PTR [esp], xmm0
  006a5	51		 push	 ecx
  006a6	f3 0f 10 05 00
	00 00 00	 movss	 xmm0, DWORD PTR __real@43be0000
  006ae	f3 0f 11 04 24	 movss	 DWORD PTR [esp], xmm0
  006b3	51		 push	 ecx
  006b4	f3 0f 10 05 00
	00 00 00	 movss	 xmm0, DWORD PTR __real@42c80000
  006bc	f3 0f 11 04 24	 movss	 DWORD PTR [esp], xmm0
  006c1	e8 00 00 00 00	 call	 ?draw_overlaid_default_mfd@@YGXMMMW4MFD_LOCATIONS@@@Z ; draw_overlaid_default_mfd

; 2065 : 						draw_overlaid_default_mfd (540.0, 380.0, 192.0, MFD_LOCATION_RHS);

  006c6	6a 01		 push	 1
  006c8	51		 push	 ecx
  006c9	f3 0f 10 05 00
	00 00 00	 movss	 xmm0, DWORD PTR __real@43400000
  006d1	f3 0f 11 04 24	 movss	 DWORD PTR [esp], xmm0
  006d6	51		 push	 ecx
  006d7	f3 0f 10 05 00
	00 00 00	 movss	 xmm0, DWORD PTR __real@43be0000
  006df	f3 0f 11 04 24	 movss	 DWORD PTR [esp], xmm0
  006e4	51		 push	 ecx
  006e5	f3 0f 10 05 00
	00 00 00	 movss	 xmm0, DWORD PTR __real@44070000
  006ed	f3 0f 11 04 24	 movss	 DWORD PTR [esp], xmm0
  006f2	e8 00 00 00 00	 call	 ?draw_overlaid_default_mfd@@YGXMMMW4MFD_LOCATIONS@@@Z ; draw_overlaid_default_mfd
$LN80@draw_virtu:

; 2066 : 					}
; 2067 : 				}
; 2068 : 			}
; 2069 : 
; 2070 : 			draw_default_hud ();

  006f7	e8 00 00 00 00	 call	 ?draw_default_hud@@YGXXZ ; draw_default_hud
$LN4@draw_virtu:

; 2071 : 
; 2072 : 			break;
; 2073 : 		}
; 2074 : 
; 2075 : 
; 2076 : 	}
; 2077 : 
; 2078 : 	if (command_line_restricted_nvg_fov && night_vision_system_active && get_global_draw_cockpit_graphics ())

  006fc	83 3d 00 00 00
	00 00		 cmp	 DWORD PTR ?command_line_restricted_nvg_fov@@3HA, 0 ; command_line_restricted_nvg_fov
  00703	74 17		 je	 SHORT $LN81@draw_virtu
  00705	83 3d 00 00 00
	00 00		 cmp	 DWORD PTR ?night_vision_system_active@@3HA, 0 ; night_vision_system_active
  0070c	74 0e		 je	 SHORT $LN81@draw_virtu
  0070e	83 3d b8 01 00
	00 00		 cmp	 DWORD PTR ?global_options@@3UGLOBAL_OPTIONS_DATA@@A+440, 0
  00715	74 05		 je	 SHORT $LN81@draw_virtu

; 2079 : 		draw_night_vision_mask();

  00717	e8 00 00 00 00	 call	 ?draw_night_vision_mask@@YGXXZ ; draw_night_vision_mask
$LN81@draw_virtu:

; 2080 : 
; 2081 : 	// Jabberwock 031016 Inset view - cockpit
; 2082 : 	if (external_view_inset_target)

  0071c	83 3d 00 00 00
	00 00		 cmp	 DWORD PTR ?external_view_inset_target@@3HA, 0 ; external_view_inset_target
  00723	0f 84 46 01 00
	00		 je	 $LN84@draw_virtu

; 2083 : 	{
; 2084 : 		entity
; 2085 : 			*source,
; 2086 : 			*target;
; 2087 : 
; 2088 : 		viewpoint
; 2089 : 			vp;
; 2090 : 
; 2091 : 		source = get_external_view_entity ();

  00729	e8 00 00 00 00	 call	 ?get_external_view_entity@@YGPAUENTITY@@XZ ; get_external_view_entity
  0072e	89 45 fc	 mov	 DWORD PTR _source$3[ebp], eax

; 2092 : 
; 2093 : 		target = get_inset ();

  00731	e8 00 00 00 00	 call	 ?get_inset@@YGPAUENTITY@@XZ ; get_inset
  00736	89 45 f8	 mov	 DWORD PTR _target$2[ebp], eax

; 2094 : 
; 2095 : 		ASSERT (source);

  00739	83 7d fc 00	 cmp	 DWORD PTR _source$3[ebp], 0
  0073d	75 1a		 jne	 SHORT $LN83@draw_virtu
  0073f	a1 00 00 00 00	 mov	 eax, DWORD PTR ?__LINE__Var@?0??draw_virtual_cockpit_3d_view@@YGXXZ@4JA
  00744	05 75 02 00 00	 add	 eax, 629		; 00000275H
  00749	50		 push	 eax
  0074a	68 00 00 00 00	 push	 OFFSET ??_C@_0EG@KKKJIDAO@c?3?2users?2nhv90?2projects?2eech?2ap@
  0074f	68 00 00 00 00	 push	 OFFSET ??_C@_06OEKOLKIL@source@
  00754	e8 00 00 00 00	 call	 ?process_assert@@YGXPBD0H@Z ; process_assert
$LN83@draw_virtu:

; 2096 : 
; 2097 : 		if (target)

  00759	83 7d f8 00	 cmp	 DWORD PTR _target$2[ebp], 0
  0075d	0f 84 0c 01 00
	00		 je	 $LN84@draw_virtu

; 2098 : 		{
; 2099 : 			store_reverse_tactical_camera_values ();

  00763	e8 00 00 00 00	 call	 ?store_reverse_tactical_camera_values@@YGXXZ ; store_reverse_tactical_camera_values

; 2100 : 
; 2101 : 			set_reverse_tactical_camera_values (source, target);

  00768	8b 45 f8	 mov	 eax, DWORD PTR _target$2[ebp]
  0076b	50		 push	 eax
  0076c	8b 4d fc	 mov	 ecx, DWORD PTR _source$3[ebp]
  0076f	51		 push	 ecx
  00770	e8 00 00 00 00	 call	 ?set_reverse_tactical_camera_values@@YGXPAUENTITY@@0@Z ; set_reverse_tactical_camera_values

; 2102 : 
; 2103 : 		   	get_local_entity_vec3d (get_camera_entity (), VEC3D_TYPE_POSITION, &vp.position);

  00775	83 3d 00 00 00
	00 00		 cmp	 DWORD PTR ?camera_entity@@3PAUENTITY@@A, 0 ; camera_entity
  0077c	74 0c		 je	 SHORT $LN90@draw_virtu
  0077e	a1 00 00 00 00	 mov	 eax, DWORD PTR ?camera_entity@@3PAUENTITY@@A ; camera_entity
  00783	8b 08		 mov	 ecx, DWORD PTR [eax]
  00785	89 4d 84	 mov	 DWORD PTR tv285[ebp], ecx
  00788	eb 24		 jmp	 SHORT $LN91@draw_virtu
$LN90@draw_virtu:
  0078a	8b 15 00 00 00
	00		 mov	 edx, DWORD PTR ?__LINE__Var@?0??draw_virtual_cockpit_3d_view@@YGXXZ@4JA
  00790	81 c2 7d 02 00
	00		 add	 edx, 637		; 0000027dH
  00796	52		 push	 edx
  00797	68 00 00 00 00	 push	 OFFSET ??_C@_0EG@KKKJIDAO@c?3?2users?2nhv90?2projects?2eech?2ap@
  0079c	a1 00 00 00 00	 mov	 eax, DWORD PTR ?null_entity_pointer_message@@3PBDB ; null_entity_pointer_message
  007a1	50		 push	 eax
  007a2	e8 00 00 00 00	 call	 ?process_assert@@YGXPBD0H@Z ; process_assert
  007a7	c7 45 84 00 00
	00 00		 mov	 DWORD PTR tv285[ebp], 0
$LN91@draw_virtu:
  007ae	b9 01 00 00 00	 mov	 ecx, 1
  007b3	85 c9		 test	 ecx, ecx
  007b5	74 09		 je	 SHORT $LN92@draw_virtu
  007b7	c7 45 80 08 00
	00 00		 mov	 DWORD PTR tv293[ebp], 8
  007be	eb 24		 jmp	 SHORT $LN93@draw_virtu
$LN92@draw_virtu:
  007c0	8b 15 00 00 00
	00		 mov	 edx, DWORD PTR ?__LINE__Var@?0??draw_virtual_cockpit_3d_view@@YGXXZ@4JA
  007c6	81 c2 7d 02 00
	00		 add	 edx, 637		; 0000027dH
  007cc	52		 push	 edx
  007cd	68 00 00 00 00	 push	 OFFSET ??_C@_0EG@KKKJIDAO@c?3?2users?2nhv90?2projects?2eech?2ap@
  007d2	a1 00 00 00 00	 mov	 eax, DWORD PTR ?overload_invalid_vec3d_type_message@@3PBDB ; overload_invalid_vec3d_type_message
  007d7	50		 push	 eax
  007d8	e8 00 00 00 00	 call	 ?process_assert@@YGXPBD0H@Z ; process_assert
  007dd	c7 45 80 00 00
	00 00		 mov	 DWORD PTR tv293[ebp], 0
$LN93@draw_virtu:
  007e4	8d 4d c8	 lea	 ecx, DWORD PTR _vp$1[ebp]
  007e7	51		 push	 ecx
  007e8	6a 08		 push	 8
  007ea	8b 15 00 00 00
	00		 mov	 edx, DWORD PTR ?camera_entity@@3PAUENTITY@@A ; camera_entity
  007f0	52		 push	 edx
  007f1	6b 45 84 60	 imul	 eax, DWORD PTR tv285[ebp], 96
  007f5	8b 4d 80	 mov	 ecx, DWORD PTR tv293[ebp]
  007f8	8b 94 88 00 00
	00 00		 mov	 edx, DWORD PTR ?fn_get_local_entity_vec3d@@3PAY0BI@P6GXPAUENTITY@@W4VEC3D_TYPES@@PAUVEC3D@@@ZA[eax+ecx*4]
  007ff	ff d2		 call	 edx

; 2104 : 
; 2105 :    			get_local_entity_attitude_matrix (get_camera_entity (), vp.attitude);

  00801	83 3d 00 00 00
	00 00		 cmp	 DWORD PTR ?camera_entity@@3PAUENTITY@@A, 0 ; camera_entity
  00808	74 0c		 je	 SHORT $LN94@draw_virtu
  0080a	a1 00 00 00 00	 mov	 eax, DWORD PTR ?camera_entity@@3PAUENTITY@@A ; camera_entity
  0080f	8b 08		 mov	 ecx, DWORD PTR [eax]
  00811	89 4d 84	 mov	 DWORD PTR tv305[ebp], ecx
  00814	eb 24		 jmp	 SHORT $LN95@draw_virtu
$LN94@draw_virtu:
  00816	8b 15 00 00 00
	00		 mov	 edx, DWORD PTR ?__LINE__Var@?0??draw_virtual_cockpit_3d_view@@YGXXZ@4JA
  0081c	81 c2 7f 02 00
	00		 add	 edx, 639		; 0000027fH
  00822	52		 push	 edx
  00823	68 00 00 00 00	 push	 OFFSET ??_C@_0EG@KKKJIDAO@c?3?2users?2nhv90?2projects?2eech?2ap@
  00828	a1 00 00 00 00	 mov	 eax, DWORD PTR ?null_entity_pointer_message@@3PBDB ; null_entity_pointer_message
  0082d	50		 push	 eax
  0082e	e8 00 00 00 00	 call	 ?process_assert@@YGXPBD0H@Z ; process_assert
  00833	c7 45 84 00 00
	00 00		 mov	 DWORD PTR tv305[ebp], 0
$LN95@draw_virtu:
  0083a	8d 4d d4	 lea	 ecx, DWORD PTR _vp$1[ebp+12]
  0083d	51		 push	 ecx
  0083e	8b 15 00 00 00
	00		 mov	 edx, DWORD PTR ?camera_entity@@3PAUENTITY@@A ; camera_entity
  00844	52		 push	 edx
  00845	8b 45 84	 mov	 eax, DWORD PTR tv305[ebp]
  00848	8b 0c 85 00 00
	00 00		 mov	 ecx, DWORD PTR ?fn_get_local_entity_attitude_matrix@@3PAP6GXPAUENTITY@@QAY02M@ZA[eax*4]
  0084f	ff d1		 call	 ecx

; 2106 : 
; 2107 : 			set_main_3d_inset_target_screen_params ();

  00851	e8 00 00 00 00	 call	 ?set_main_3d_inset_target_screen_params@@YGXXZ ; set_main_3d_inset_target_screen_params

; 2108 : 
; 2109 : 			draw_main_3d_scene (&vp);

  00856	8d 45 c8	 lea	 eax, DWORD PTR _vp$1[ebp]
  00859	50		 push	 eax
  0085a	e8 00 00 00 00	 call	 ?draw_main_3d_scene@@YGXPAUVIEWPOINT@@@Z ; draw_main_3d_scene

; 2110 : 
; 2111 : 			restore_reverse_tactical_camera_values ();

  0085f	e8 00 00 00 00	 call	 ?restore_reverse_tactical_camera_values@@YGXXZ ; restore_reverse_tactical_camera_values

; 2112 : 
; 2113 : 			set_main_3d_full_screen_params (DISPLAY_3D_TINT_CLEAR, DISPLAY_3D_LIGHT_LEVEL_HIGH, DISPLAY_3D_NOISE_LEVEL_NONE);

  00864	6a 00		 push	 0
  00866	6a 02		 push	 2
  00868	6a 00		 push	 0
  0086a	e8 00 00 00 00	 call	 ?set_main_3d_full_screen_params@@YGXW4DISPLAY_3D_TINTS@@W4DISPLAY_3D_LIGHT_LEVELS@@W4DISPLAY_3D_NOISE_LEVELS@@@Z ; set_main_3d_full_screen_params
$LN84@draw_virtu:

; 2114 : 		}
; 2115 : 	}
; 2116 : 	// Jabberwock 031016 ends
; 2117 : 
; 2118 : 
; 2119 : 	//
; 2120 : 	// restore virtual cockpit 3D instance
; 2121 : 	//
; 2122 : 
; 2123 : 	get_pilot_head_viewpoint ();

  0086f	e8 00 00 00 00	 call	 ?get_pilot_head_viewpoint@@YGXXZ ; get_pilot_head_viewpoint

; 2124 : }

  00874	5f		 pop	 edi
  00875	5e		 pop	 esi
  00876	5b		 pop	 ebx
  00877	8b e5		 mov	 esp, ebp
  00879	5d		 pop	 ebp
  0087a	c3		 ret	 0
  0087b	90		 npad	 1
$LN96@draw_virtu:
  0087c	00 00 00 00	 DD	 $LN7@draw_virtu
  00880	00 00 00 00	 DD	 $LN8@draw_virtu
  00884	00 00 00 00	 DD	 $LN2@draw_virtu
  00888	00 00 00 00	 DD	 $LN2@draw_virtu
  0088c	00 00 00 00	 DD	 $LN2@draw_virtu
  00890	00 00 00 00	 DD	 $LN11@draw_virtu
  00894	00 00 00 00	 DD	 $LN9@draw_virtu
  00898	00 00 00 00	 DD	 $LN10@draw_virtu
$LN97@draw_virtu:
  0089c	00 00 00 00	 DD	 $LN12@draw_virtu
  008a0	00 00 00 00	 DD	 $LN20@draw_virtu
  008a4	00 00 00 00	 DD	 $LN27@draw_virtu
  008a8	00 00 00 00	 DD	 $LN32@draw_virtu
  008ac	00 00 00 00	 DD	 $LN37@draw_virtu
  008b0	00 00 00 00	 DD	 $LN43@draw_virtu
  008b4	00 00 00 00	 DD	 $LN52@draw_virtu
  008b8	00 00 00 00	 DD	 $LN58@draw_virtu
  008bc	00 00 00 00	 DD	 $LN63@draw_virtu
  008c0	00 00 00 00	 DD	 $LN68@draw_virtu
?draw_virtual_cockpit_3d_view@@YGXXZ ENDP		; draw_virtual_cockpit_3d_view
_TEXT	ENDS
; Function compile flags: /Odtp /ZI
; File c:\users\nhv90\projects\eech\aphavoc\source\gunships\views\vm_vckpt.c
;	COMDAT ?get_pilot_head_heading_and_pitch_to_target@@YGXPAUENTITY@@@Z
_TEXT	SEGMENT
tv162 = -128						; size = 4
tv146 = -128						; size = 4
tv271 = -124						; size = 4
tv244 = -124						; size = 4
tv163 = -120						; size = 4
tv147 = -120						; size = 4
tv81 = -120						; size = 4
tv265 = -116						; size = 4
tv238 = -116						; size = 4
tv234 = -116						; size = 4
tv74 = -116						; size = 4
_offset_vector$ = -48					; size = 12
_target_vector$ = -36					; size = 12
_target_position$ = -24					; size = 12
_pitch$ = -12						; size = 4
_heading$ = -8						; size = 4
_flat_range$ = -4					; size = 4
_target$ = 8						; size = 4
?get_pilot_head_heading_and_pitch_to_target@@YGXPAUENTITY@@@Z PROC ; get_pilot_head_heading_and_pitch_to_target, COMDAT

; 1194 : {

  00000	55		 push	 ebp
  00001	8b ec		 mov	 ebp, esp
  00003	81 ec 80 00 00
	00		 sub	 esp, 128		; 00000080H
  00009	53		 push	 ebx
  0000a	56		 push	 esi
  0000b	57		 push	 edi

; 1195 : 	float
; 1196 : 		flat_range,
; 1197 : 		heading,
; 1198 : 		pitch;
; 1199 : 
; 1200 : 	vec3d
; 1201 : 		target_position,
; 1202 : 		target_vector,
; 1203 : 		offset_vector;
; 1204 : 
; 1205 : 	ASSERT (target);

  0000c	83 7d 08 00	 cmp	 DWORD PTR _target$[ebp], 0
  00010	75 18		 jne	 SHORT $LN2@get_pilot_
  00012	a1 00 00 00 00	 mov	 eax, DWORD PTR ?__LINE__Var@?0??get_pilot_head_heading_and_pitch_to_target@@YGXPAUENTITY@@@Z@4JA
  00017	83 c0 0b	 add	 eax, 11			; 0000000bH
  0001a	50		 push	 eax
  0001b	68 00 00 00 00	 push	 OFFSET ??_C@_0EG@KKKJIDAO@c?3?2users?2nhv90?2projects?2eech?2ap@
  00020	68 00 00 00 00	 push	 OFFSET ??_C@_06JJLAMBGK@target@
  00025	e8 00 00 00 00	 call	 ?process_assert@@YGXPBD0H@Z ; process_assert
$LN2@get_pilot_:

; 1206 : 
; 1207 : 	pilot_head_heading = 0.0;

  0002a	0f 57 c0	 xorps	 xmm0, xmm0
  0002d	f3 0f 11 05 00
	00 00 00	 movss	 DWORD PTR ?pilot_head_heading@@3MA, xmm0

; 1208 : 
; 1209 : 	pilot_head_pitch = 0.0;

  00035	0f 57 c0	 xorps	 xmm0, xmm0
  00038	f3 0f 11 05 00
	00 00 00	 movss	 DWORD PTR ?pilot_head_pitch@@3MA, xmm0

; 1210 : 
; 1211 : 	get_pilot_head_viewpoint ();

  00040	e8 00 00 00 00	 call	 ?get_pilot_head_viewpoint@@YGXXZ ; get_pilot_head_viewpoint

; 1212 : 
; 1213 : 	if (!get_local_entity_int_value (target, INT_TYPE_IDENTIFY_WAYPOINT))

  00045	83 7d 08 00	 cmp	 DWORD PTR _target$[ebp], 0
  00049	74 0a		 je	 SHORT $LN7@get_pilot_
  0004b	8b 45 08	 mov	 eax, DWORD PTR _target$[ebp]
  0004e	8b 08		 mov	 ecx, DWORD PTR [eax]
  00050	89 4d 8c	 mov	 DWORD PTR tv74[ebp], ecx
  00053	eb 1d		 jmp	 SHORT $LN8@get_pilot_
$LN7@get_pilot_:
  00055	68 bd 04 00 00	 push	 1213			; 000004bdH
  0005a	68 00 00 00 00	 push	 OFFSET ??_C@_0EG@KKKJIDAO@c?3?2users?2nhv90?2projects?2eech?2ap@
  0005f	8b 15 00 00 00
	00		 mov	 edx, DWORD PTR ?null_entity_pointer_message@@3PBDB ; null_entity_pointer_message
  00065	52		 push	 edx
  00066	e8 00 00 00 00	 call	 ?process_assert@@YGXPBD0H@Z ; process_assert
  0006b	c7 45 8c 00 00
	00 00		 mov	 DWORD PTR tv74[ebp], 0
$LN8@get_pilot_:
  00072	b8 01 00 00 00	 mov	 eax, 1
  00077	85 c0		 test	 eax, eax
  00079	74 09		 je	 SHORT $LN9@get_pilot_
  0007b	c7 45 88 61 00
	00 00		 mov	 DWORD PTR tv81[ebp], 97	; 00000061H
  00082	eb 1d		 jmp	 SHORT $LN10@get_pilot_
$LN9@get_pilot_:
  00084	68 bd 04 00 00	 push	 1213			; 000004bdH
  00089	68 00 00 00 00	 push	 OFFSET ??_C@_0EG@KKKJIDAO@c?3?2users?2nhv90?2projects?2eech?2ap@
  0008e	8b 0d 00 00 00
	00		 mov	 ecx, DWORD PTR ?overload_invalid_int_type_message@@3PBDB ; overload_invalid_int_type_message
  00094	51		 push	 ecx
  00095	e8 00 00 00 00	 call	 ?process_assert@@YGXPBD0H@Z ; process_assert
  0009a	c7 45 88 00 00
	00 00		 mov	 DWORD PTR tv81[ebp], 0
$LN10@get_pilot_:
  000a1	6a 61		 push	 97			; 00000061H
  000a3	8b 55 08	 mov	 edx, DWORD PTR _target$[ebp]
  000a6	52		 push	 edx
  000a7	69 45 8c 5c 04
	00 00		 imul	 eax, DWORD PTR tv74[ebp], 1116
  000ae	8b 4d 88	 mov	 ecx, DWORD PTR tv81[ebp]
  000b1	8b 94 88 00 00
	00 00		 mov	 edx, DWORD PTR ?fn_get_local_entity_int_value@@3PAY0BBH@P6GHPAUENTITY@@W4INT_TYPES@@@ZA[eax+ecx*4]
  000b8	ff d2		 call	 edx
  000ba	85 c0		 test	 eax, eax
  000bc	75 0f		 jne	 SHORT $LN3@get_pilot_

; 1214 : 	{
; 1215 : 		get_local_entity_target_point (target, &target_position);

  000be	8d 45 e8	 lea	 eax, DWORD PTR _target_position$[ebp]
  000c1	50		 push	 eax
  000c2	8b 4d 08	 mov	 ecx, DWORD PTR _target$[ebp]
  000c5	51		 push	 ecx
  000c6	e8 00 00 00 00	 call	 ?get_local_entity_target_point@@YGXPAUENTITY@@PAUVEC3D@@@Z ; get_local_entity_target_point

; 1216 : 	}
; 1217 : 	else

  000cb	eb 35		 jmp	 SHORT $LN4@get_pilot_
$LN3@get_pilot_:

; 1218 : 	{
; 1219 : 		//
; 1220 : 		// assume that the target will only be a waypoint for padlock views
; 1221 : 		//
; 1222 : 
; 1223 : 		ASSERT (get_gunship_entity ());

  000cd	83 3d 00 00 00
	00 00		 cmp	 DWORD PTR ?gunship_entity@@3PAUENTITY@@A, 0 ; gunship_entity
  000d4	75 18		 jne	 SHORT $LN5@get_pilot_
  000d6	a1 00 00 00 00	 mov	 eax, DWORD PTR ?__LINE__Var@?0??get_pilot_head_heading_and_pitch_to_target@@YGXPAUENTITY@@@Z@4JA
  000db	83 c0 1d	 add	 eax, 29			; 0000001dH
  000de	50		 push	 eax
  000df	68 00 00 00 00	 push	 OFFSET ??_C@_0EG@KKKJIDAO@c?3?2users?2nhv90?2projects?2eech?2ap@
  000e4	68 00 00 00 00	 push	 OFFSET ??_C@_0BG@EANNPEON@get_gunship_entity?5?$CI?$CJ@
  000e9	e8 00 00 00 00	 call	 ?process_assert@@YGXPBD0H@Z ; process_assert
$LN5@get_pilot_:

; 1224 : 
; 1225 : 		get_waypoint_display_position (get_gunship_entity (), target, &target_position);

  000ee	8d 45 e8	 lea	 eax, DWORD PTR _target_position$[ebp]
  000f1	50		 push	 eax
  000f2	8b 4d 08	 mov	 ecx, DWORD PTR _target$[ebp]
  000f5	51		 push	 ecx
  000f6	8b 15 00 00 00
	00		 mov	 edx, DWORD PTR ?gunship_entity@@3PAUENTITY@@A ; gunship_entity
  000fc	52		 push	 edx
  000fd	e8 00 00 00 00	 call	 ?get_waypoint_display_position@@YGXPAUENTITY@@0PAUVEC3D@@@Z ; get_waypoint_display_position
$LN4@get_pilot_:

; 1226 : 	}
; 1227 : 
; 1228 : 	target_vector.x = target_position.x - pilot_head_vp.position.x;

  00102	f3 0f 10 45 e8	 movss	 xmm0, DWORD PTR _target_position$[ebp]
  00107	f3 0f 5c 05 00
	00 00 00	 subss	 xmm0, DWORD PTR ?pilot_head_vp@@3UVIEWPOINT@@A
  0010f	f3 0f 11 45 dc	 movss	 DWORD PTR _target_vector$[ebp], xmm0

; 1229 : 	target_vector.y = target_position.y - pilot_head_vp.position.y;

  00114	f3 0f 10 45 ec	 movss	 xmm0, DWORD PTR _target_position$[ebp+4]
  00119	f3 0f 5c 05 04
	00 00 00	 subss	 xmm0, DWORD PTR ?pilot_head_vp@@3UVIEWPOINT@@A+4
  00121	f3 0f 11 45 e0	 movss	 DWORD PTR _target_vector$[ebp+4], xmm0

; 1230 : 	target_vector.z = target_position.z - pilot_head_vp.position.z;

  00126	f3 0f 10 45 f0	 movss	 xmm0, DWORD PTR _target_position$[ebp+8]
  0012b	f3 0f 5c 05 08
	00 00 00	 subss	 xmm0, DWORD PTR ?pilot_head_vp@@3UVIEWPOINT@@A+8
  00133	f3 0f 11 45 e4	 movss	 DWORD PTR _target_vector$[ebp+8], xmm0

; 1231 : 
; 1232 : 	multiply_transpose_matrix3x3_vec3d (&offset_vector, pilot_head_vp.attitude, &target_vector);

  00138	8d 45 dc	 lea	 eax, DWORD PTR _target_vector$[ebp]
  0013b	50		 push	 eax
  0013c	68 0c 00 00 00	 push	 OFFSET ?pilot_head_vp@@3UVIEWPOINT@@A+12
  00141	8d 4d d0	 lea	 ecx, DWORD PTR _offset_vector$[ebp]
  00144	51		 push	 ecx
  00145	e8 00 00 00 00	 call	 ?multiply_transpose_matrix3x3_vec3d@@YGXPAUVEC3D@@QAY02$$CBMPBU1@@Z ; multiply_transpose_matrix3x3_vec3d

; 1233 : 
; 1234 : 	heading = -atan2 (offset_vector.x, offset_vector.z);

  0014a	51		 push	 ecx
  0014b	f3 0f 10 45 d8	 movss	 xmm0, DWORD PTR _offset_vector$[ebp+8]
  00150	f3 0f 11 04 24	 movss	 DWORD PTR [esp], xmm0
  00155	51		 push	 ecx
  00156	f3 0f 10 45 d0	 movss	 xmm0, DWORD PTR _offset_vector$[ebp]
  0015b	f3 0f 11 04 24	 movss	 DWORD PTR [esp], xmm0
  00160	e8 00 00 00 00	 call	 ?atan2@@YGMMM@Z		; atan2
  00165	d9 5d 8c	 fstp	 DWORD PTR tv234[ebp]
  00168	f3 0f 10 45 8c	 movss	 xmm0, DWORD PTR tv234[ebp]
  0016d	0f 57 05 00 00
	00 00		 xorps	 xmm0, DWORD PTR __xmm@80000000800000008000000080000000
  00174	f3 0f 11 45 f8	 movss	 DWORD PTR _heading$[ebp], xmm0

; 1235 : 
; 1236 : 	pilot_head_heading = bound (heading, get_rotate_right_limit (), get_rotate_left_limit ());

  00179	e8 00 00 00 00	 call	 ?get_rotate_right_limit@@YGMXZ ; get_rotate_right_limit
  0017e	d9 5d 8c	 fstp	 DWORD PTR tv238[ebp]
  00181	f3 0f 10 45 8c	 movss	 xmm0, DWORD PTR tv238[ebp]
  00186	0f 2f 45 f8	 comiss	 xmm0, DWORD PTR _heading$[ebp]
  0018a	76 0a		 jbe	 SHORT $LN13@get_pilot_
  0018c	e8 00 00 00 00	 call	 ?get_rotate_right_limit@@YGMXZ ; get_rotate_right_limit
  00191	d9 5d 88	 fstp	 DWORD PTR tv147[ebp]
  00194	eb 31		 jmp	 SHORT $LN14@get_pilot_
$LN13@get_pilot_:
  00196	e8 00 00 00 00	 call	 ?get_rotate_left_limit@@YGMXZ ; get_rotate_left_limit
  0019b	d9 5d 84	 fstp	 DWORD PTR tv244[ebp]
  0019e	f3 0f 10 45 f8	 movss	 xmm0, DWORD PTR _heading$[ebp]
  001a3	0f 2f 45 84	 comiss	 xmm0, DWORD PTR tv244[ebp]
  001a7	76 0a		 jbe	 SHORT $LN11@get_pilot_
  001a9	e8 00 00 00 00	 call	 ?get_rotate_left_limit@@YGMXZ ; get_rotate_left_limit
  001ae	d9 5d 80	 fstp	 DWORD PTR tv146[ebp]
  001b1	eb 0a		 jmp	 SHORT $LN12@get_pilot_
$LN11@get_pilot_:
  001b3	f3 0f 10 45 f8	 movss	 xmm0, DWORD PTR _heading$[ebp]
  001b8	f3 0f 11 45 80	 movss	 DWORD PTR tv146[ebp], xmm0
$LN12@get_pilot_:
  001bd	f3 0f 10 45 80	 movss	 xmm0, DWORD PTR tv146[ebp]
  001c2	f3 0f 11 45 88	 movss	 DWORD PTR tv147[ebp], xmm0
$LN14@get_pilot_:
  001c7	f3 0f 10 45 88	 movss	 xmm0, DWORD PTR tv147[ebp]
  001cc	f3 0f 11 05 00
	00 00 00	 movss	 DWORD PTR ?pilot_head_heading@@3MA, xmm0

; 1237 : 
; 1238 : 	flat_range = sqrt ((offset_vector.x * offset_vector.x) + (offset_vector.z * offset_vector.z));

  001d4	f3 0f 10 45 d0	 movss	 xmm0, DWORD PTR _offset_vector$[ebp]
  001d9	f3 0f 59 45 d0	 mulss	 xmm0, DWORD PTR _offset_vector$[ebp]
  001de	f3 0f 10 4d d8	 movss	 xmm1, DWORD PTR _offset_vector$[ebp+8]
  001e3	f3 0f 59 4d d8	 mulss	 xmm1, DWORD PTR _offset_vector$[ebp+8]
  001e8	f3 0f 58 c1	 addss	 xmm0, xmm1
  001ec	51		 push	 ecx
  001ed	f3 0f 11 04 24	 movss	 DWORD PTR [esp], xmm0
  001f2	e8 00 00 00 00	 call	 ?sqrt@@YGMM@Z		; sqrt
  001f7	d9 5d fc	 fstp	 DWORD PTR _flat_range$[ebp]

; 1239 : 
; 1240 : 	pitch = atan2 (offset_vector.y, flat_range);

  001fa	51		 push	 ecx
  001fb	f3 0f 10 45 fc	 movss	 xmm0, DWORD PTR _flat_range$[ebp]
  00200	f3 0f 11 04 24	 movss	 DWORD PTR [esp], xmm0
  00205	51		 push	 ecx
  00206	f3 0f 10 45 d4	 movss	 xmm0, DWORD PTR _offset_vector$[ebp+4]
  0020b	f3 0f 11 04 24	 movss	 DWORD PTR [esp], xmm0
  00210	e8 00 00 00 00	 call	 ?atan2@@YGMMM@Z		; atan2
  00215	d9 5d f4	 fstp	 DWORD PTR _pitch$[ebp]

; 1241 : 
; 1242 : 	pilot_head_pitch = bound (pitch, get_rotate_down_limit (), get_rotate_up_limit ());

  00218	e8 00 00 00 00	 call	 ?get_rotate_down_limit@@YGMXZ ; get_rotate_down_limit
  0021d	d9 5d 8c	 fstp	 DWORD PTR tv265[ebp]
  00220	f3 0f 10 45 8c	 movss	 xmm0, DWORD PTR tv265[ebp]
  00225	0f 2f 45 f4	 comiss	 xmm0, DWORD PTR _pitch$[ebp]
  00229	76 0a		 jbe	 SHORT $LN17@get_pilot_
  0022b	e8 00 00 00 00	 call	 ?get_rotate_down_limit@@YGMXZ ; get_rotate_down_limit
  00230	d9 5d 88	 fstp	 DWORD PTR tv163[ebp]
  00233	eb 31		 jmp	 SHORT $LN18@get_pilot_
$LN17@get_pilot_:
  00235	e8 00 00 00 00	 call	 ?get_rotate_up_limit@@YGMXZ ; get_rotate_up_limit
  0023a	d9 5d 84	 fstp	 DWORD PTR tv271[ebp]
  0023d	f3 0f 10 45 f4	 movss	 xmm0, DWORD PTR _pitch$[ebp]
  00242	0f 2f 45 84	 comiss	 xmm0, DWORD PTR tv271[ebp]
  00246	76 0a		 jbe	 SHORT $LN15@get_pilot_
  00248	e8 00 00 00 00	 call	 ?get_rotate_up_limit@@YGMXZ ; get_rotate_up_limit
  0024d	d9 5d 80	 fstp	 DWORD PTR tv162[ebp]
  00250	eb 0a		 jmp	 SHORT $LN16@get_pilot_
$LN15@get_pilot_:
  00252	f3 0f 10 45 f4	 movss	 xmm0, DWORD PTR _pitch$[ebp]
  00257	f3 0f 11 45 80	 movss	 DWORD PTR tv162[ebp], xmm0
$LN16@get_pilot_:
  0025c	f3 0f 10 45 80	 movss	 xmm0, DWORD PTR tv162[ebp]
  00261	f3 0f 11 45 88	 movss	 DWORD PTR tv163[ebp], xmm0
$LN18@get_pilot_:
  00266	f3 0f 10 45 88	 movss	 xmm0, DWORD PTR tv163[ebp]
  0026b	f3 0f 11 05 00
	00 00 00	 movss	 DWORD PTR ?pilot_head_pitch@@3MA, xmm0

; 1243 : }

  00273	5f		 pop	 edi
  00274	5e		 pop	 esi
  00275	5b		 pop	 ebx
  00276	8b e5		 mov	 esp, ebp
  00278	5d		 pop	 ebp
  00279	c2 04 00	 ret	 4
?get_pilot_head_heading_and_pitch_to_target@@YGXPAUENTITY@@@Z ENDP ; get_pilot_head_heading_and_pitch_to_target
_TEXT	ENDS
; Function compile flags: /Odtp /ZI
; File c:\users\nhv90\projects\eech\aphavoc\source\gunships\views\vm_vckpt.c
;	COMDAT ?get_pilot_head_viewpoint@@YGXXZ
_TEXT	SEGMENT
tv364 = -372						; size = 4
tv309 = -372						; size = 4
tv222 = -372						; size = 4
tv167 = -372						; size = 4
tv80 = -372						; size = 4
tv376 = -368						; size = 4
tv356 = -368						; size = 4
tv321 = -368						; size = 4
tv301 = -368						; size = 4
tv234 = -368						; size = 4
tv214 = -368						; size = 4
tv179 = -368						; size = 4
tv159 = -368						; size = 4
tv92 = -368						; size = 4
tv72 = -368						; size = 4
tv65 = -368						; size = 4
_world_relative_position$1 = -300			; size = 12
_relative_position$2 = -288				; size = 12
_m$3 = -276						; size = 36
_world_relative_position$4 = -240			; size = 12
_relative_position$5 = -228				; size = 12
_m$6 = -216						; size = 36
_world_relative_position$7 = -180			; size = 12
_relative_position$8 = -168				; size = 12
_m$9 = -156						; size = 36
_world_relative_position$10 = -120			; size = 12
_relative_position$11 = -108				; size = 12
_m$12 = -96						; size = 36
_world_relative_position$13 = -60			; size = 12
_relative_position$14 = -48				; size = 12
_m$15 = -36						; size = 36
?get_pilot_head_viewpoint@@YGXXZ PROC			; get_pilot_head_viewpoint, COMDAT

; 888  : {

  00000	55		 push	 ebp
  00001	8b ec		 mov	 ebp, esp
  00003	81 ec 74 01 00
	00		 sub	 esp, 372		; 00000174H
  00009	53		 push	 ebx
  0000a	56		 push	 esi
  0000b	57		 push	 edi

; 889  : 	if (get_gunship_entity ())

  0000c	83 3d 00 00 00
	00 00		 cmp	 DWORD PTR ?gunship_entity@@3PAUENTITY@@A, 0 ; gunship_entity
  00013	0f 84 8b 0a 00
	00		 je	 $LN4@get_pilot_

; 890  : 	{
; 891  : 		switch (get_global_gunship_type ())

  00019	a1 0c 00 00 00	 mov	 eax, DWORD PTR ?global_options@@3UGLOBAL_OPTIONS_DATA@@A+12
  0001e	89 85 90 fe ff
	ff		 mov	 DWORD PTR tv65[ebp], eax
  00024	8b 8d 90 fe ff
	ff		 mov	 ecx, DWORD PTR tv65[ebp]
  0002a	83 e9 01	 sub	 ecx, 1
  0002d	89 8d 90 fe ff
	ff		 mov	 DWORD PTR tv65[ebp], ecx
  00033	83 bd 90 fe ff
	ff 08		 cmp	 DWORD PTR tv65[ebp], 8
  0003a	77 0d		 ja	 SHORT $LN6@get_pilot_
  0003c	8b 95 90 fe ff
	ff		 mov	 edx, DWORD PTR tv65[ebp]
  00042	ff 24 95 00 00
	00 00		 jmp	 DWORD PTR $LN47@get_pilot_[edx*4]
$LN6@get_pilot_:

; 892  : 		{
; 893  : 			////////////////////////////////////////
; 894  : 			// JB 030313 Fly any aircraft
; 895  : 			default:
; 896  : 			case GUNSHIP_TYPE_APACHE:
; 897  : 			////////////////////////////////////////
; 898  : 			{
; 899  : 				matrix3x3
; 900  : 					m;
; 901  : 
; 902  : 				vec3d
; 903  : 					relative_position,
; 904  : 					world_relative_position;
; 905  : 
; 906  : 				//
; 907  : 				// get aircraft position and attitude
; 908  : 				//
; 909  : 
; 910  : 				get_local_entity_vec3d (get_gunship_entity (), VEC3D_TYPE_POSITION, &pilot_head_vp.position);

  00049	83 3d 00 00 00
	00 00		 cmp	 DWORD PTR ?gunship_entity@@3PAUENTITY@@A, 0 ; gunship_entity
  00050	74 0f		 je	 SHORT $LN17@get_pilot_
  00052	a1 00 00 00 00	 mov	 eax, DWORD PTR ?gunship_entity@@3PAUENTITY@@A ; gunship_entity
  00057	8b 08		 mov	 ecx, DWORD PTR [eax]
  00059	89 8d 90 fe ff
	ff		 mov	 DWORD PTR tv72[ebp], ecx
  0005f	eb 24		 jmp	 SHORT $LN18@get_pilot_
$LN17@get_pilot_:
  00061	8b 15 00 00 00
	00		 mov	 edx, DWORD PTR ?__LINE__Var@?0??get_pilot_head_viewpoint@@YGXXZ@4JA
  00067	83 c2 16	 add	 edx, 22			; 00000016H
  0006a	52		 push	 edx
  0006b	68 00 00 00 00	 push	 OFFSET ??_C@_0EG@KKKJIDAO@c?3?2users?2nhv90?2projects?2eech?2ap@
  00070	a1 00 00 00 00	 mov	 eax, DWORD PTR ?null_entity_pointer_message@@3PBDB ; null_entity_pointer_message
  00075	50		 push	 eax
  00076	e8 00 00 00 00	 call	 ?process_assert@@YGXPBD0H@Z ; process_assert
  0007b	c7 85 90 fe ff
	ff 00 00 00 00	 mov	 DWORD PTR tv72[ebp], 0
$LN18@get_pilot_:
  00085	b9 01 00 00 00	 mov	 ecx, 1
  0008a	85 c9		 test	 ecx, ecx
  0008c	74 0c		 je	 SHORT $LN19@get_pilot_
  0008e	c7 85 8c fe ff
	ff 08 00 00 00	 mov	 DWORD PTR tv80[ebp], 8
  00098	eb 24		 jmp	 SHORT $LN20@get_pilot_
$LN19@get_pilot_:
  0009a	8b 15 00 00 00
	00		 mov	 edx, DWORD PTR ?__LINE__Var@?0??get_pilot_head_viewpoint@@YGXXZ@4JA
  000a0	83 c2 16	 add	 edx, 22			; 00000016H
  000a3	52		 push	 edx
  000a4	68 00 00 00 00	 push	 OFFSET ??_C@_0EG@KKKJIDAO@c?3?2users?2nhv90?2projects?2eech?2ap@
  000a9	a1 00 00 00 00	 mov	 eax, DWORD PTR ?overload_invalid_vec3d_type_message@@3PBDB ; overload_invalid_vec3d_type_message
  000ae	50		 push	 eax
  000af	e8 00 00 00 00	 call	 ?process_assert@@YGXPBD0H@Z ; process_assert
  000b4	c7 85 8c fe ff
	ff 00 00 00 00	 mov	 DWORD PTR tv80[ebp], 0
$LN20@get_pilot_:
  000be	68 00 00 00 00	 push	 OFFSET ?pilot_head_vp@@3UVIEWPOINT@@A ; pilot_head_vp
  000c3	6a 08		 push	 8
  000c5	8b 0d 00 00 00
	00		 mov	 ecx, DWORD PTR ?gunship_entity@@3PAUENTITY@@A ; gunship_entity
  000cb	51		 push	 ecx
  000cc	6b 95 90 fe ff
	ff 60		 imul	 edx, DWORD PTR tv72[ebp], 96
  000d3	8b 85 8c fe ff
	ff		 mov	 eax, DWORD PTR tv80[ebp]
  000d9	8b 8c 82 00 00
	00 00		 mov	 ecx, DWORD PTR ?fn_get_local_entity_vec3d@@3PAY0BI@P6GXPAUENTITY@@W4VEC3D_TYPES@@PAUVEC3D@@@ZA[edx+eax*4]
  000e0	ff d1		 call	 ecx

; 911  : 
; 912  : 				get_local_entity_attitude_matrix (get_gunship_entity (), pilot_head_vp.attitude);

  000e2	83 3d 00 00 00
	00 00		 cmp	 DWORD PTR ?gunship_entity@@3PAUENTITY@@A, 0 ; gunship_entity
  000e9	74 0f		 je	 SHORT $LN21@get_pilot_
  000eb	a1 00 00 00 00	 mov	 eax, DWORD PTR ?gunship_entity@@3PAUENTITY@@A ; gunship_entity
  000f0	8b 08		 mov	 ecx, DWORD PTR [eax]
  000f2	89 8d 90 fe ff
	ff		 mov	 DWORD PTR tv92[ebp], ecx
  000f8	eb 24		 jmp	 SHORT $LN22@get_pilot_
$LN21@get_pilot_:
  000fa	8b 15 00 00 00
	00		 mov	 edx, DWORD PTR ?__LINE__Var@?0??get_pilot_head_viewpoint@@YGXXZ@4JA
  00100	83 c2 18	 add	 edx, 24			; 00000018H
  00103	52		 push	 edx
  00104	68 00 00 00 00	 push	 OFFSET ??_C@_0EG@KKKJIDAO@c?3?2users?2nhv90?2projects?2eech?2ap@
  00109	a1 00 00 00 00	 mov	 eax, DWORD PTR ?null_entity_pointer_message@@3PBDB ; null_entity_pointer_message
  0010e	50		 push	 eax
  0010f	e8 00 00 00 00	 call	 ?process_assert@@YGXPBD0H@Z ; process_assert
  00114	c7 85 90 fe ff
	ff 00 00 00 00	 mov	 DWORD PTR tv92[ebp], 0
$LN22@get_pilot_:
  0011e	68 0c 00 00 00	 push	 OFFSET ?pilot_head_vp@@3UVIEWPOINT@@A+12
  00123	8b 0d 00 00 00
	00		 mov	 ecx, DWORD PTR ?gunship_entity@@3PAUENTITY@@A ; gunship_entity
  00129	51		 push	 ecx
  0012a	8b 95 90 fe ff
	ff		 mov	 edx, DWORD PTR tv92[ebp]
  00130	8b 04 95 00 00
	00 00		 mov	 eax, DWORD PTR ?fn_get_local_entity_attitude_matrix@@3PAP6GXPAUENTITY@@QAY02M@ZA[edx*4]
  00137	ff d0		 call	 eax

; 913  : //VJ#
; 914  : 				relative_position.x = 0.0;

  00139	0f 57 c0	 xorps	 xmm0, xmm0
  0013c	f3 0f 11 45 d0	 movss	 DWORD PTR _relative_position$14[ebp], xmm0

; 915  : 				relative_position.y = -1.2705;

  00141	f3 0f 10 05 00
	00 00 00	 movss	 xmm0, DWORD PTR __real@bfa29fbe
  00149	f3 0f 11 45 d4	 movss	 DWORD PTR _relative_position$14[ebp+4], xmm0

; 916  : 				relative_position.z = 1.2325;

  0014e	f3 0f 10 05 00
	00 00 00	 movss	 xmm0, DWORD PTR __real@3f9dc28f
  00156	f3 0f 11 45 d8	 movss	 DWORD PTR _relative_position$14[ebp+8], xmm0

; 917  : 
; 918  : 				multiply_matrix3x3_vec3d (&world_relative_position, pilot_head_vp.attitude, &relative_position);

  0015b	8d 45 d0	 lea	 eax, DWORD PTR _relative_position$14[ebp]
  0015e	50		 push	 eax
  0015f	68 0c 00 00 00	 push	 OFFSET ?pilot_head_vp@@3UVIEWPOINT@@A+12
  00164	8d 4d c4	 lea	 ecx, DWORD PTR _world_relative_position$13[ebp]
  00167	51		 push	 ecx
  00168	e8 00 00 00 00	 call	 ?multiply_matrix3x3_vec3d@@YGXPAUVEC3D@@QAY02$$CBMPBU1@@Z ; multiply_matrix3x3_vec3d

; 919  : 
; 920  : 				pilot_head_vp.position.x += world_relative_position.x;

  0016d	f3 0f 10 05 00
	00 00 00	 movss	 xmm0, DWORD PTR ?pilot_head_vp@@3UVIEWPOINT@@A
  00175	f3 0f 58 45 c4	 addss	 xmm0, DWORD PTR _world_relative_position$13[ebp]
  0017a	f3 0f 11 05 00
	00 00 00	 movss	 DWORD PTR ?pilot_head_vp@@3UVIEWPOINT@@A, xmm0

; 921  : 				pilot_head_vp.position.y += world_relative_position.y;

  00182	f3 0f 10 05 04
	00 00 00	 movss	 xmm0, DWORD PTR ?pilot_head_vp@@3UVIEWPOINT@@A+4
  0018a	f3 0f 58 45 c8	 addss	 xmm0, DWORD PTR _world_relative_position$13[ebp+4]
  0018f	f3 0f 11 05 04
	00 00 00	 movss	 DWORD PTR ?pilot_head_vp@@3UVIEWPOINT@@A+4, xmm0

; 922  : 				pilot_head_vp.position.z += world_relative_position.z;

  00197	f3 0f 10 05 08
	00 00 00	 movss	 xmm0, DWORD PTR ?pilot_head_vp@@3UVIEWPOINT@@A+8
  0019f	f3 0f 58 45 cc	 addss	 xmm0, DWORD PTR _world_relative_position$13[ebp+8]
  001a4	f3 0f 11 05 08
	00 00 00	 movss	 DWORD PTR ?pilot_head_vp@@3UVIEWPOINT@@A+8, xmm0

; 923  : 
; 924  : 				//
; 925  : 				// rotate view wrt pilot's head heading and pitch
; 926  : 				//
; 927  : 
; 928  : 				get_arbitrary_rotation_matrix (m, &pilot_head_vp.yv, pilot_head_heading);

  001ac	51		 push	 ecx
  001ad	f3 0f 10 05 00
	00 00 00	 movss	 xmm0, DWORD PTR ?pilot_head_heading@@3MA
  001b5	f3 0f 11 04 24	 movss	 DWORD PTR [esp], xmm0
  001ba	68 18 00 00 00	 push	 OFFSET ?pilot_head_vp@@3UVIEWPOINT@@A+24
  001bf	8d 45 dc	 lea	 eax, DWORD PTR _m$15[ebp]
  001c2	50		 push	 eax
  001c3	e8 00 00 00 00	 call	 ?get_arbitrary_rotation_matrix@@YGXQAY02MPBUVEC3D@@M@Z ; get_arbitrary_rotation_matrix

; 929  : 
; 930  : 				multiply_matrix3x3_vec3d (&pilot_head_vp.xv, m, &pilot_head_vp.xv);

  001c8	68 0c 00 00 00	 push	 OFFSET ?pilot_head_vp@@3UVIEWPOINT@@A+12
  001cd	8d 45 dc	 lea	 eax, DWORD PTR _m$15[ebp]
  001d0	50		 push	 eax
  001d1	68 0c 00 00 00	 push	 OFFSET ?pilot_head_vp@@3UVIEWPOINT@@A+12
  001d6	e8 00 00 00 00	 call	 ?multiply_matrix3x3_vec3d@@YGXPAUVEC3D@@QAY02$$CBMPBU1@@Z ; multiply_matrix3x3_vec3d

; 931  : 
; 932  : 				multiply_matrix3x3_vec3d (&pilot_head_vp.zv, m, &pilot_head_vp.zv);

  001db	68 24 00 00 00	 push	 OFFSET ?pilot_head_vp@@3UVIEWPOINT@@A+36
  001e0	8d 45 dc	 lea	 eax, DWORD PTR _m$15[ebp]
  001e3	50		 push	 eax
  001e4	68 24 00 00 00	 push	 OFFSET ?pilot_head_vp@@3UVIEWPOINT@@A+36
  001e9	e8 00 00 00 00	 call	 ?multiply_matrix3x3_vec3d@@YGXPAUVEC3D@@QAY02$$CBMPBU1@@Z ; multiply_matrix3x3_vec3d

; 933  : 
; 934  : 				get_arbitrary_rotation_matrix (m, &pilot_head_vp.xv, pilot_head_pitch);

  001ee	51		 push	 ecx
  001ef	f3 0f 10 05 00
	00 00 00	 movss	 xmm0, DWORD PTR ?pilot_head_pitch@@3MA
  001f7	f3 0f 11 04 24	 movss	 DWORD PTR [esp], xmm0
  001fc	68 0c 00 00 00	 push	 OFFSET ?pilot_head_vp@@3UVIEWPOINT@@A+12
  00201	8d 45 dc	 lea	 eax, DWORD PTR _m$15[ebp]
  00204	50		 push	 eax
  00205	e8 00 00 00 00	 call	 ?get_arbitrary_rotation_matrix@@YGXQAY02MPBUVEC3D@@M@Z ; get_arbitrary_rotation_matrix

; 935  : 
; 936  : 				multiply_matrix3x3_vec3d (&pilot_head_vp.yv, m, &pilot_head_vp.yv);

  0020a	68 18 00 00 00	 push	 OFFSET ?pilot_head_vp@@3UVIEWPOINT@@A+24
  0020f	8d 45 dc	 lea	 eax, DWORD PTR _m$15[ebp]
  00212	50		 push	 eax
  00213	68 18 00 00 00	 push	 OFFSET ?pilot_head_vp@@3UVIEWPOINT@@A+24
  00218	e8 00 00 00 00	 call	 ?multiply_matrix3x3_vec3d@@YGXPAUVEC3D@@QAY02$$CBMPBU1@@Z ; multiply_matrix3x3_vec3d

; 937  : 
; 938  : 				multiply_matrix3x3_vec3d (&pilot_head_vp.zv, m, &pilot_head_vp.zv);

  0021d	68 24 00 00 00	 push	 OFFSET ?pilot_head_vp@@3UVIEWPOINT@@A+36
  00222	8d 45 dc	 lea	 eax, DWORD PTR _m$15[ebp]
  00225	50		 push	 eax
  00226	68 24 00 00 00	 push	 OFFSET ?pilot_head_vp@@3UVIEWPOINT@@A+36
  0022b	e8 00 00 00 00	 call	 ?multiply_matrix3x3_vec3d@@YGXPAUVEC3D@@QAY02$$CBMPBU1@@Z ; multiply_matrix3x3_vec3d

; 939  : 
; 940  : 				break;

  00230	e9 6d 08 00 00	 jmp	 $LN2@get_pilot_
$LN7@get_pilot_:

; 941  : 			}
; 942  : 			////////////////////////////////////////
; 943  : 			case GUNSHIP_TYPE_HAVOC:
; 944  : 			////////////////////////////////////////
; 945  : 			{
; 946  : 				matrix3x3
; 947  : 					m;
; 948  : 
; 949  : 				vec3d
; 950  : 					relative_position,
; 951  : 					world_relative_position;
; 952  : 
; 953  : 				//
; 954  : 				// get aircraft position and attitude
; 955  : 				//
; 956  : 
; 957  : 				get_local_entity_vec3d (get_gunship_entity (), VEC3D_TYPE_POSITION, &pilot_head_vp.position);

  00235	83 3d 00 00 00
	00 00		 cmp	 DWORD PTR ?gunship_entity@@3PAUENTITY@@A, 0 ; gunship_entity
  0023c	74 0f		 je	 SHORT $LN23@get_pilot_
  0023e	a1 00 00 00 00	 mov	 eax, DWORD PTR ?gunship_entity@@3PAUENTITY@@A ; gunship_entity
  00243	8b 08		 mov	 ecx, DWORD PTR [eax]
  00245	89 8d 90 fe ff
	ff		 mov	 DWORD PTR tv159[ebp], ecx
  0024b	eb 24		 jmp	 SHORT $LN24@get_pilot_
$LN23@get_pilot_:
  0024d	8b 15 00 00 00
	00		 mov	 edx, DWORD PTR ?__LINE__Var@?0??get_pilot_head_viewpoint@@YGXXZ@4JA
  00253	83 c2 45	 add	 edx, 69			; 00000045H
  00256	52		 push	 edx
  00257	68 00 00 00 00	 push	 OFFSET ??_C@_0EG@KKKJIDAO@c?3?2users?2nhv90?2projects?2eech?2ap@
  0025c	a1 00 00 00 00	 mov	 eax, DWORD PTR ?null_entity_pointer_message@@3PBDB ; null_entity_pointer_message
  00261	50		 push	 eax
  00262	e8 00 00 00 00	 call	 ?process_assert@@YGXPBD0H@Z ; process_assert
  00267	c7 85 90 fe ff
	ff 00 00 00 00	 mov	 DWORD PTR tv159[ebp], 0
$LN24@get_pilot_:
  00271	b9 01 00 00 00	 mov	 ecx, 1
  00276	85 c9		 test	 ecx, ecx
  00278	74 0c		 je	 SHORT $LN25@get_pilot_
  0027a	c7 85 8c fe ff
	ff 08 00 00 00	 mov	 DWORD PTR tv167[ebp], 8
  00284	eb 24		 jmp	 SHORT $LN26@get_pilot_
$LN25@get_pilot_:
  00286	8b 15 00 00 00
	00		 mov	 edx, DWORD PTR ?__LINE__Var@?0??get_pilot_head_viewpoint@@YGXXZ@4JA
  0028c	83 c2 45	 add	 edx, 69			; 00000045H
  0028f	52		 push	 edx
  00290	68 00 00 00 00	 push	 OFFSET ??_C@_0EG@KKKJIDAO@c?3?2users?2nhv90?2projects?2eech?2ap@
  00295	a1 00 00 00 00	 mov	 eax, DWORD PTR ?overload_invalid_vec3d_type_message@@3PBDB ; overload_invalid_vec3d_type_message
  0029a	50		 push	 eax
  0029b	e8 00 00 00 00	 call	 ?process_assert@@YGXPBD0H@Z ; process_assert
  002a0	c7 85 8c fe ff
	ff 00 00 00 00	 mov	 DWORD PTR tv167[ebp], 0
$LN26@get_pilot_:
  002aa	68 00 00 00 00	 push	 OFFSET ?pilot_head_vp@@3UVIEWPOINT@@A ; pilot_head_vp
  002af	6a 08		 push	 8
  002b1	8b 0d 00 00 00
	00		 mov	 ecx, DWORD PTR ?gunship_entity@@3PAUENTITY@@A ; gunship_entity
  002b7	51		 push	 ecx
  002b8	6b 95 90 fe ff
	ff 60		 imul	 edx, DWORD PTR tv159[ebp], 96
  002bf	8b 85 8c fe ff
	ff		 mov	 eax, DWORD PTR tv167[ebp]
  002c5	8b 8c 82 00 00
	00 00		 mov	 ecx, DWORD PTR ?fn_get_local_entity_vec3d@@3PAY0BI@P6GXPAUENTITY@@W4VEC3D_TYPES@@PAUVEC3D@@@ZA[edx+eax*4]
  002cc	ff d1		 call	 ecx

; 958  : 
; 959  : 				get_local_entity_attitude_matrix (get_gunship_entity (), pilot_head_vp.attitude);

  002ce	83 3d 00 00 00
	00 00		 cmp	 DWORD PTR ?gunship_entity@@3PAUENTITY@@A, 0 ; gunship_entity
  002d5	74 0f		 je	 SHORT $LN27@get_pilot_
  002d7	a1 00 00 00 00	 mov	 eax, DWORD PTR ?gunship_entity@@3PAUENTITY@@A ; gunship_entity
  002dc	8b 08		 mov	 ecx, DWORD PTR [eax]
  002de	89 8d 90 fe ff
	ff		 mov	 DWORD PTR tv179[ebp], ecx
  002e4	eb 24		 jmp	 SHORT $LN28@get_pilot_
$LN27@get_pilot_:
  002e6	8b 15 00 00 00
	00		 mov	 edx, DWORD PTR ?__LINE__Var@?0??get_pilot_head_viewpoint@@YGXXZ@4JA
  002ec	83 c2 47	 add	 edx, 71			; 00000047H
  002ef	52		 push	 edx
  002f0	68 00 00 00 00	 push	 OFFSET ??_C@_0EG@KKKJIDAO@c?3?2users?2nhv90?2projects?2eech?2ap@
  002f5	a1 00 00 00 00	 mov	 eax, DWORD PTR ?null_entity_pointer_message@@3PBDB ; null_entity_pointer_message
  002fa	50		 push	 eax
  002fb	e8 00 00 00 00	 call	 ?process_assert@@YGXPBD0H@Z ; process_assert
  00300	c7 85 90 fe ff
	ff 00 00 00 00	 mov	 DWORD PTR tv179[ebp], 0
$LN28@get_pilot_:
  0030a	68 0c 00 00 00	 push	 OFFSET ?pilot_head_vp@@3UVIEWPOINT@@A+12
  0030f	8b 0d 00 00 00
	00		 mov	 ecx, DWORD PTR ?gunship_entity@@3PAUENTITY@@A ; gunship_entity
  00315	51		 push	 ecx
  00316	8b 95 90 fe ff
	ff		 mov	 edx, DWORD PTR tv179[ebp]
  0031c	8b 04 95 00 00
	00 00		 mov	 eax, DWORD PTR ?fn_get_local_entity_attitude_matrix@@3PAP6GXPAUENTITY@@QAY02M@ZA[edx*4]
  00323	ff d0		 call	 eax

; 960  : 
; 961  : 				relative_position.x = 0.0;

  00325	0f 57 c0	 xorps	 xmm0, xmm0
  00328	f3 0f 11 45 94	 movss	 DWORD PTR _relative_position$11[ebp], xmm0

; 962  : 				relative_position.y = -0.86575;

  0032d	f3 0f 10 05 00
	00 00 00	 movss	 xmm0, DWORD PTR __real@bf5da1cb
  00335	f3 0f 11 45 98	 movss	 DWORD PTR _relative_position$11[ebp+4], xmm0

; 963  : 				relative_position.z = 1.252;

  0033a	f3 0f 10 05 00
	00 00 00	 movss	 xmm0, DWORD PTR __real@3fa04189
  00342	f3 0f 11 45 9c	 movss	 DWORD PTR _relative_position$11[ebp+8], xmm0

; 964  : 
; 965  : 				multiply_matrix3x3_vec3d (&world_relative_position, pilot_head_vp.attitude, &relative_position);

  00347	8d 45 94	 lea	 eax, DWORD PTR _relative_position$11[ebp]
  0034a	50		 push	 eax
  0034b	68 0c 00 00 00	 push	 OFFSET ?pilot_head_vp@@3UVIEWPOINT@@A+12
  00350	8d 4d 88	 lea	 ecx, DWORD PTR _world_relative_position$10[ebp]
  00353	51		 push	 ecx
  00354	e8 00 00 00 00	 call	 ?multiply_matrix3x3_vec3d@@YGXPAUVEC3D@@QAY02$$CBMPBU1@@Z ; multiply_matrix3x3_vec3d

; 966  : 
; 967  : 				pilot_head_vp.position.x += world_relative_position.x;

  00359	f3 0f 10 05 00
	00 00 00	 movss	 xmm0, DWORD PTR ?pilot_head_vp@@3UVIEWPOINT@@A
  00361	f3 0f 58 45 88	 addss	 xmm0, DWORD PTR _world_relative_position$10[ebp]
  00366	f3 0f 11 05 00
	00 00 00	 movss	 DWORD PTR ?pilot_head_vp@@3UVIEWPOINT@@A, xmm0

; 968  : 				pilot_head_vp.position.y += world_relative_position.y;

  0036e	f3 0f 10 05 04
	00 00 00	 movss	 xmm0, DWORD PTR ?pilot_head_vp@@3UVIEWPOINT@@A+4
  00376	f3 0f 58 45 8c	 addss	 xmm0, DWORD PTR _world_relative_position$10[ebp+4]
  0037b	f3 0f 11 05 04
	00 00 00	 movss	 DWORD PTR ?pilot_head_vp@@3UVIEWPOINT@@A+4, xmm0

; 969  : 				pilot_head_vp.position.z += world_relative_position.z;

  00383	f3 0f 10 05 08
	00 00 00	 movss	 xmm0, DWORD PTR ?pilot_head_vp@@3UVIEWPOINT@@A+8
  0038b	f3 0f 58 45 90	 addss	 xmm0, DWORD PTR _world_relative_position$10[ebp+8]
  00390	f3 0f 11 05 08
	00 00 00	 movss	 DWORD PTR ?pilot_head_vp@@3UVIEWPOINT@@A+8, xmm0

; 970  : 
; 971  : 				//
; 972  : 				// rotate view wrt pilot's head heading and pitch
; 973  : 				//
; 974  : 
; 975  : 				get_arbitrary_rotation_matrix (m, &pilot_head_vp.yv, pilot_head_heading);

  00398	51		 push	 ecx
  00399	f3 0f 10 05 00
	00 00 00	 movss	 xmm0, DWORD PTR ?pilot_head_heading@@3MA
  003a1	f3 0f 11 04 24	 movss	 DWORD PTR [esp], xmm0
  003a6	68 18 00 00 00	 push	 OFFSET ?pilot_head_vp@@3UVIEWPOINT@@A+24
  003ab	8d 45 a0	 lea	 eax, DWORD PTR _m$12[ebp]
  003ae	50		 push	 eax
  003af	e8 00 00 00 00	 call	 ?get_arbitrary_rotation_matrix@@YGXQAY02MPBUVEC3D@@M@Z ; get_arbitrary_rotation_matrix

; 976  : 
; 977  : 				multiply_matrix3x3_vec3d (&pilot_head_vp.xv, m, &pilot_head_vp.xv);

  003b4	68 0c 00 00 00	 push	 OFFSET ?pilot_head_vp@@3UVIEWPOINT@@A+12
  003b9	8d 45 a0	 lea	 eax, DWORD PTR _m$12[ebp]
  003bc	50		 push	 eax
  003bd	68 0c 00 00 00	 push	 OFFSET ?pilot_head_vp@@3UVIEWPOINT@@A+12
  003c2	e8 00 00 00 00	 call	 ?multiply_matrix3x3_vec3d@@YGXPAUVEC3D@@QAY02$$CBMPBU1@@Z ; multiply_matrix3x3_vec3d

; 978  : 
; 979  : 				multiply_matrix3x3_vec3d (&pilot_head_vp.zv, m, &pilot_head_vp.zv);

  003c7	68 24 00 00 00	 push	 OFFSET ?pilot_head_vp@@3UVIEWPOINT@@A+36
  003cc	8d 45 a0	 lea	 eax, DWORD PTR _m$12[ebp]
  003cf	50		 push	 eax
  003d0	68 24 00 00 00	 push	 OFFSET ?pilot_head_vp@@3UVIEWPOINT@@A+36
  003d5	e8 00 00 00 00	 call	 ?multiply_matrix3x3_vec3d@@YGXPAUVEC3D@@QAY02$$CBMPBU1@@Z ; multiply_matrix3x3_vec3d

; 980  : 
; 981  : 				get_arbitrary_rotation_matrix (m, &pilot_head_vp.xv, pilot_head_pitch);

  003da	51		 push	 ecx
  003db	f3 0f 10 05 00
	00 00 00	 movss	 xmm0, DWORD PTR ?pilot_head_pitch@@3MA
  003e3	f3 0f 11 04 24	 movss	 DWORD PTR [esp], xmm0
  003e8	68 0c 00 00 00	 push	 OFFSET ?pilot_head_vp@@3UVIEWPOINT@@A+12
  003ed	8d 45 a0	 lea	 eax, DWORD PTR _m$12[ebp]
  003f0	50		 push	 eax
  003f1	e8 00 00 00 00	 call	 ?get_arbitrary_rotation_matrix@@YGXQAY02MPBUVEC3D@@M@Z ; get_arbitrary_rotation_matrix

; 982  : 
; 983  : 				multiply_matrix3x3_vec3d (&pilot_head_vp.yv, m, &pilot_head_vp.yv);

  003f6	68 18 00 00 00	 push	 OFFSET ?pilot_head_vp@@3UVIEWPOINT@@A+24
  003fb	8d 45 a0	 lea	 eax, DWORD PTR _m$12[ebp]
  003fe	50		 push	 eax
  003ff	68 18 00 00 00	 push	 OFFSET ?pilot_head_vp@@3UVIEWPOINT@@A+24
  00404	e8 00 00 00 00	 call	 ?multiply_matrix3x3_vec3d@@YGXPAUVEC3D@@QAY02$$CBMPBU1@@Z ; multiply_matrix3x3_vec3d

; 984  : 
; 985  : 				multiply_matrix3x3_vec3d (&pilot_head_vp.zv, m, &pilot_head_vp.zv);

  00409	68 24 00 00 00	 push	 OFFSET ?pilot_head_vp@@3UVIEWPOINT@@A+36
  0040e	8d 45 a0	 lea	 eax, DWORD PTR _m$12[ebp]
  00411	50		 push	 eax
  00412	68 24 00 00 00	 push	 OFFSET ?pilot_head_vp@@3UVIEWPOINT@@A+36
  00417	e8 00 00 00 00	 call	 ?multiply_matrix3x3_vec3d@@YGXPAUVEC3D@@QAY02$$CBMPBU1@@Z ; multiply_matrix3x3_vec3d

; 986  : 
; 987  : 				break;

  0041c	e9 81 06 00 00	 jmp	 $LN2@get_pilot_
$LN8@get_pilot_:

; 988  : 			}
; 989  : 			////////////////////////////////////////
; 990  : 			case GUNSHIP_TYPE_COMANCHE:
; 991  : 			////////////////////////////////////////
; 992  : 			{
; 993  : //VJ#	this does the proper viepoint?
; 994  : 				get_comanche_crew_viewpoint ();

  00421	e8 00 00 00 00	 call	 ?get_comanche_crew_viewpoint@@YGXXZ ; get_comanche_crew_viewpoint

; 995  : 
; 996  : 				break;

  00426	e9 77 06 00 00	 jmp	 $LN2@get_pilot_
$LN9@get_pilot_:

; 997  : 			}
; 998  : 			////////////////////////////////////////
; 999  : 			case GUNSHIP_TYPE_HOKUM:
; 1000 : 			////////////////////////////////////////
; 1001 : 			{
; 1002 : 				get_hokum_crew_viewpoint ();

  0042b	e8 00 00 00 00	 call	 ?get_hokum_crew_viewpoint@@YGXXZ ; get_hokum_crew_viewpoint

; 1003 : 
; 1004 : 				break;

  00430	e9 6d 06 00 00	 jmp	 $LN2@get_pilot_
$LN10@get_pilot_:

; 1005 : 			}
; 1006 : 			////Moje 030518 Start
; 1007 : 			case GUNSHIP_TYPE_BLACKHAWK:
; 1008 : 			////////////////////////////////////////
; 1009 : 			{
; 1010 : 				matrix3x3
; 1011 : 					m;
; 1012 : 
; 1013 : 				vec3d
; 1014 : 					relative_position,
; 1015 : 					world_relative_position;
; 1016 : 
; 1017 : 				//
; 1018 : 				// get aircraft position and attitude
; 1019 : 				//
; 1020 : 
; 1021 : 				get_local_entity_vec3d (get_gunship_entity (), VEC3D_TYPE_POSITION, &pilot_head_vp.position);

  00435	83 3d 00 00 00
	00 00		 cmp	 DWORD PTR ?gunship_entity@@3PAUENTITY@@A, 0 ; gunship_entity
  0043c	74 0f		 je	 SHORT $LN29@get_pilot_
  0043e	a1 00 00 00 00	 mov	 eax, DWORD PTR ?gunship_entity@@3PAUENTITY@@A ; gunship_entity
  00443	8b 08		 mov	 ecx, DWORD PTR [eax]
  00445	89 8d 90 fe ff
	ff		 mov	 DWORD PTR tv214[ebp], ecx
  0044b	eb 27		 jmp	 SHORT $LN30@get_pilot_
$LN29@get_pilot_:
  0044d	8b 15 00 00 00
	00		 mov	 edx, DWORD PTR ?__LINE__Var@?0??get_pilot_head_viewpoint@@YGXXZ@4JA
  00453	81 c2 85 00 00
	00		 add	 edx, 133		; 00000085H
  00459	52		 push	 edx
  0045a	68 00 00 00 00	 push	 OFFSET ??_C@_0EG@KKKJIDAO@c?3?2users?2nhv90?2projects?2eech?2ap@
  0045f	a1 00 00 00 00	 mov	 eax, DWORD PTR ?null_entity_pointer_message@@3PBDB ; null_entity_pointer_message
  00464	50		 push	 eax
  00465	e8 00 00 00 00	 call	 ?process_assert@@YGXPBD0H@Z ; process_assert
  0046a	c7 85 90 fe ff
	ff 00 00 00 00	 mov	 DWORD PTR tv214[ebp], 0
$LN30@get_pilot_:
  00474	b9 01 00 00 00	 mov	 ecx, 1
  00479	85 c9		 test	 ecx, ecx
  0047b	74 0c		 je	 SHORT $LN31@get_pilot_
  0047d	c7 85 8c fe ff
	ff 08 00 00 00	 mov	 DWORD PTR tv222[ebp], 8
  00487	eb 27		 jmp	 SHORT $LN32@get_pilot_
$LN31@get_pilot_:
  00489	8b 15 00 00 00
	00		 mov	 edx, DWORD PTR ?__LINE__Var@?0??get_pilot_head_viewpoint@@YGXXZ@4JA
  0048f	81 c2 85 00 00
	00		 add	 edx, 133		; 00000085H
  00495	52		 push	 edx
  00496	68 00 00 00 00	 push	 OFFSET ??_C@_0EG@KKKJIDAO@c?3?2users?2nhv90?2projects?2eech?2ap@
  0049b	a1 00 00 00 00	 mov	 eax, DWORD PTR ?overload_invalid_vec3d_type_message@@3PBDB ; overload_invalid_vec3d_type_message
  004a0	50		 push	 eax
  004a1	e8 00 00 00 00	 call	 ?process_assert@@YGXPBD0H@Z ; process_assert
  004a6	c7 85 8c fe ff
	ff 00 00 00 00	 mov	 DWORD PTR tv222[ebp], 0
$LN32@get_pilot_:
  004b0	68 00 00 00 00	 push	 OFFSET ?pilot_head_vp@@3UVIEWPOINT@@A ; pilot_head_vp
  004b5	6a 08		 push	 8
  004b7	8b 0d 00 00 00
	00		 mov	 ecx, DWORD PTR ?gunship_entity@@3PAUENTITY@@A ; gunship_entity
  004bd	51		 push	 ecx
  004be	6b 95 90 fe ff
	ff 60		 imul	 edx, DWORD PTR tv214[ebp], 96
  004c5	8b 85 8c fe ff
	ff		 mov	 eax, DWORD PTR tv222[ebp]
  004cb	8b 8c 82 00 00
	00 00		 mov	 ecx, DWORD PTR ?fn_get_local_entity_vec3d@@3PAY0BI@P6GXPAUENTITY@@W4VEC3D_TYPES@@PAUVEC3D@@@ZA[edx+eax*4]
  004d2	ff d1		 call	 ecx

; 1022 : 
; 1023 : 				get_local_entity_attitude_matrix (get_gunship_entity (), pilot_head_vp.attitude);

  004d4	83 3d 00 00 00
	00 00		 cmp	 DWORD PTR ?gunship_entity@@3PAUENTITY@@A, 0 ; gunship_entity
  004db	74 0f		 je	 SHORT $LN33@get_pilot_
  004dd	a1 00 00 00 00	 mov	 eax, DWORD PTR ?gunship_entity@@3PAUENTITY@@A ; gunship_entity
  004e2	8b 08		 mov	 ecx, DWORD PTR [eax]
  004e4	89 8d 90 fe ff
	ff		 mov	 DWORD PTR tv234[ebp], ecx
  004ea	eb 27		 jmp	 SHORT $LN34@get_pilot_
$LN33@get_pilot_:
  004ec	8b 15 00 00 00
	00		 mov	 edx, DWORD PTR ?__LINE__Var@?0??get_pilot_head_viewpoint@@YGXXZ@4JA
  004f2	81 c2 87 00 00
	00		 add	 edx, 135		; 00000087H
  004f8	52		 push	 edx
  004f9	68 00 00 00 00	 push	 OFFSET ??_C@_0EG@KKKJIDAO@c?3?2users?2nhv90?2projects?2eech?2ap@
  004fe	a1 00 00 00 00	 mov	 eax, DWORD PTR ?null_entity_pointer_message@@3PBDB ; null_entity_pointer_message
  00503	50		 push	 eax
  00504	e8 00 00 00 00	 call	 ?process_assert@@YGXPBD0H@Z ; process_assert
  00509	c7 85 90 fe ff
	ff 00 00 00 00	 mov	 DWORD PTR tv234[ebp], 0
$LN34@get_pilot_:
  00513	68 0c 00 00 00	 push	 OFFSET ?pilot_head_vp@@3UVIEWPOINT@@A+12
  00518	8b 0d 00 00 00
	00		 mov	 ecx, DWORD PTR ?gunship_entity@@3PAUENTITY@@A ; gunship_entity
  0051e	51		 push	 ecx
  0051f	8b 95 90 fe ff
	ff		 mov	 edx, DWORD PTR tv234[ebp]
  00525	8b 04 95 00 00
	00 00		 mov	 eax, DWORD PTR ?fn_get_local_entity_attitude_matrix@@3PAP6GXPAUENTITY@@QAY02M@ZA[edx*4]
  0052c	ff d0		 call	 eax

; 1024 : 
; 1025 : 				relative_position.x = 0.0;

  0052e	0f 57 c0	 xorps	 xmm0, xmm0
  00531	f3 0f 11 85 58
	ff ff ff	 movss	 DWORD PTR _relative_position$8[ebp], xmm0

; 1026 : 				relative_position.y = -1.2705;

  00539	f3 0f 10 05 00
	00 00 00	 movss	 xmm0, DWORD PTR __real@bfa29fbe
  00541	f3 0f 11 85 5c
	ff ff ff	 movss	 DWORD PTR _relative_position$8[ebp+4], xmm0

; 1027 : 				relative_position.z = 1.2325;

  00549	f3 0f 10 05 00
	00 00 00	 movss	 xmm0, DWORD PTR __real@3f9dc28f
  00551	f3 0f 11 85 60
	ff ff ff	 movss	 DWORD PTR _relative_position$8[ebp+8], xmm0

; 1028 : 
; 1029 : 				multiply_matrix3x3_vec3d (&world_relative_position, pilot_head_vp.attitude, &relative_position);

  00559	8d 85 58 ff ff
	ff		 lea	 eax, DWORD PTR _relative_position$8[ebp]
  0055f	50		 push	 eax
  00560	68 0c 00 00 00	 push	 OFFSET ?pilot_head_vp@@3UVIEWPOINT@@A+12
  00565	8d 8d 4c ff ff
	ff		 lea	 ecx, DWORD PTR _world_relative_position$7[ebp]
  0056b	51		 push	 ecx
  0056c	e8 00 00 00 00	 call	 ?multiply_matrix3x3_vec3d@@YGXPAUVEC3D@@QAY02$$CBMPBU1@@Z ; multiply_matrix3x3_vec3d

; 1030 : 
; 1031 : 				pilot_head_vp.position.x += world_relative_position.x;

  00571	f3 0f 10 05 00
	00 00 00	 movss	 xmm0, DWORD PTR ?pilot_head_vp@@3UVIEWPOINT@@A
  00579	f3 0f 58 85 4c
	ff ff ff	 addss	 xmm0, DWORD PTR _world_relative_position$7[ebp]
  00581	f3 0f 11 05 00
	00 00 00	 movss	 DWORD PTR ?pilot_head_vp@@3UVIEWPOINT@@A, xmm0

; 1032 : 				pilot_head_vp.position.y += world_relative_position.y;

  00589	f3 0f 10 05 04
	00 00 00	 movss	 xmm0, DWORD PTR ?pilot_head_vp@@3UVIEWPOINT@@A+4
  00591	f3 0f 58 85 50
	ff ff ff	 addss	 xmm0, DWORD PTR _world_relative_position$7[ebp+4]
  00599	f3 0f 11 05 04
	00 00 00	 movss	 DWORD PTR ?pilot_head_vp@@3UVIEWPOINT@@A+4, xmm0

; 1033 : 				pilot_head_vp.position.z += world_relative_position.z;

  005a1	f3 0f 10 05 08
	00 00 00	 movss	 xmm0, DWORD PTR ?pilot_head_vp@@3UVIEWPOINT@@A+8
  005a9	f3 0f 58 85 54
	ff ff ff	 addss	 xmm0, DWORD PTR _world_relative_position$7[ebp+8]
  005b1	f3 0f 11 05 08
	00 00 00	 movss	 DWORD PTR ?pilot_head_vp@@3UVIEWPOINT@@A+8, xmm0

; 1034 : 
; 1035 : 				//
; 1036 : 				// rotate view wrt pilot's head heading and pitch
; 1037 : 				//
; 1038 : 
; 1039 : 				get_arbitrary_rotation_matrix (m, &pilot_head_vp.yv, pilot_head_heading);

  005b9	51		 push	 ecx
  005ba	f3 0f 10 05 00
	00 00 00	 movss	 xmm0, DWORD PTR ?pilot_head_heading@@3MA
  005c2	f3 0f 11 04 24	 movss	 DWORD PTR [esp], xmm0
  005c7	68 18 00 00 00	 push	 OFFSET ?pilot_head_vp@@3UVIEWPOINT@@A+24
  005cc	8d 85 64 ff ff
	ff		 lea	 eax, DWORD PTR _m$9[ebp]
  005d2	50		 push	 eax
  005d3	e8 00 00 00 00	 call	 ?get_arbitrary_rotation_matrix@@YGXQAY02MPBUVEC3D@@M@Z ; get_arbitrary_rotation_matrix

; 1040 : 
; 1041 : 				multiply_matrix3x3_vec3d (&pilot_head_vp.xv, m, &pilot_head_vp.xv);

  005d8	68 0c 00 00 00	 push	 OFFSET ?pilot_head_vp@@3UVIEWPOINT@@A+12
  005dd	8d 85 64 ff ff
	ff		 lea	 eax, DWORD PTR _m$9[ebp]
  005e3	50		 push	 eax
  005e4	68 0c 00 00 00	 push	 OFFSET ?pilot_head_vp@@3UVIEWPOINT@@A+12
  005e9	e8 00 00 00 00	 call	 ?multiply_matrix3x3_vec3d@@YGXPAUVEC3D@@QAY02$$CBMPBU1@@Z ; multiply_matrix3x3_vec3d

; 1042 : 
; 1043 : 				multiply_matrix3x3_vec3d (&pilot_head_vp.zv, m, &pilot_head_vp.zv);

  005ee	68 24 00 00 00	 push	 OFFSET ?pilot_head_vp@@3UVIEWPOINT@@A+36
  005f3	8d 85 64 ff ff
	ff		 lea	 eax, DWORD PTR _m$9[ebp]
  005f9	50		 push	 eax
  005fa	68 24 00 00 00	 push	 OFFSET ?pilot_head_vp@@3UVIEWPOINT@@A+36
  005ff	e8 00 00 00 00	 call	 ?multiply_matrix3x3_vec3d@@YGXPAUVEC3D@@QAY02$$CBMPBU1@@Z ; multiply_matrix3x3_vec3d

; 1044 : 
; 1045 : 				get_arbitrary_rotation_matrix (m, &pilot_head_vp.xv, pilot_head_pitch);

  00604	51		 push	 ecx
  00605	f3 0f 10 05 00
	00 00 00	 movss	 xmm0, DWORD PTR ?pilot_head_pitch@@3MA
  0060d	f3 0f 11 04 24	 movss	 DWORD PTR [esp], xmm0
  00612	68 0c 00 00 00	 push	 OFFSET ?pilot_head_vp@@3UVIEWPOINT@@A+12
  00617	8d 85 64 ff ff
	ff		 lea	 eax, DWORD PTR _m$9[ebp]
  0061d	50		 push	 eax
  0061e	e8 00 00 00 00	 call	 ?get_arbitrary_rotation_matrix@@YGXQAY02MPBUVEC3D@@M@Z ; get_arbitrary_rotation_matrix

; 1046 : 
; 1047 : 				multiply_matrix3x3_vec3d (&pilot_head_vp.yv, m, &pilot_head_vp.yv);

  00623	68 18 00 00 00	 push	 OFFSET ?pilot_head_vp@@3UVIEWPOINT@@A+24
  00628	8d 85 64 ff ff
	ff		 lea	 eax, DWORD PTR _m$9[ebp]
  0062e	50		 push	 eax
  0062f	68 18 00 00 00	 push	 OFFSET ?pilot_head_vp@@3UVIEWPOINT@@A+24
  00634	e8 00 00 00 00	 call	 ?multiply_matrix3x3_vec3d@@YGXPAUVEC3D@@QAY02$$CBMPBU1@@Z ; multiply_matrix3x3_vec3d

; 1048 : 
; 1049 : 				multiply_matrix3x3_vec3d (&pilot_head_vp.zv, m, &pilot_head_vp.zv);

  00639	68 24 00 00 00	 push	 OFFSET ?pilot_head_vp@@3UVIEWPOINT@@A+36
  0063e	8d 85 64 ff ff
	ff		 lea	 eax, DWORD PTR _m$9[ebp]
  00644	50		 push	 eax
  00645	68 24 00 00 00	 push	 OFFSET ?pilot_head_vp@@3UVIEWPOINT@@A+36
  0064a	e8 00 00 00 00	 call	 ?multiply_matrix3x3_vec3d@@YGXPAUVEC3D@@QAY02$$CBMPBU1@@Z ; multiply_matrix3x3_vec3d

; 1050 : 
; 1051 : 				break;

  0064f	e9 4e 04 00 00	 jmp	 $LN2@get_pilot_
$LN11@get_pilot_:

; 1052 : 			}
; 1053 : 
; 1054 : 			////Moje 030518 End
; 1055 : 			////Moje 030612 Start
; 1056 : 			////////////////////////////////////////
; 1057 : 			case GUNSHIP_TYPE_HIND:
; 1058 : 			////////////////////////////////////////
; 1059 : 			{
; 1060 : 				matrix3x3
; 1061 : 					m;
; 1062 : 
; 1063 : 				vec3d
; 1064 : 					relative_position,
; 1065 : 					world_relative_position;
; 1066 : 
; 1067 : 				//
; 1068 : 				// get aircraft position and attitude
; 1069 : 				//
; 1070 : 
; 1071 : 				get_local_entity_vec3d (get_gunship_entity (), VEC3D_TYPE_POSITION, &pilot_head_vp.position);

  00654	83 3d 00 00 00
	00 00		 cmp	 DWORD PTR ?gunship_entity@@3PAUENTITY@@A, 0 ; gunship_entity
  0065b	74 0f		 je	 SHORT $LN35@get_pilot_
  0065d	a1 00 00 00 00	 mov	 eax, DWORD PTR ?gunship_entity@@3PAUENTITY@@A ; gunship_entity
  00662	8b 08		 mov	 ecx, DWORD PTR [eax]
  00664	89 8d 90 fe ff
	ff		 mov	 DWORD PTR tv301[ebp], ecx
  0066a	eb 27		 jmp	 SHORT $LN36@get_pilot_
$LN35@get_pilot_:
  0066c	8b 15 00 00 00
	00		 mov	 edx, DWORD PTR ?__LINE__Var@?0??get_pilot_head_viewpoint@@YGXXZ@4JA
  00672	81 c2 b7 00 00
	00		 add	 edx, 183		; 000000b7H
  00678	52		 push	 edx
  00679	68 00 00 00 00	 push	 OFFSET ??_C@_0EG@KKKJIDAO@c?3?2users?2nhv90?2projects?2eech?2ap@
  0067e	a1 00 00 00 00	 mov	 eax, DWORD PTR ?null_entity_pointer_message@@3PBDB ; null_entity_pointer_message
  00683	50		 push	 eax
  00684	e8 00 00 00 00	 call	 ?process_assert@@YGXPBD0H@Z ; process_assert
  00689	c7 85 90 fe ff
	ff 00 00 00 00	 mov	 DWORD PTR tv301[ebp], 0
$LN36@get_pilot_:
  00693	b9 01 00 00 00	 mov	 ecx, 1
  00698	85 c9		 test	 ecx, ecx
  0069a	74 0c		 je	 SHORT $LN37@get_pilot_
  0069c	c7 85 8c fe ff
	ff 08 00 00 00	 mov	 DWORD PTR tv309[ebp], 8
  006a6	eb 27		 jmp	 SHORT $LN38@get_pilot_
$LN37@get_pilot_:
  006a8	8b 15 00 00 00
	00		 mov	 edx, DWORD PTR ?__LINE__Var@?0??get_pilot_head_viewpoint@@YGXXZ@4JA
  006ae	81 c2 b7 00 00
	00		 add	 edx, 183		; 000000b7H
  006b4	52		 push	 edx
  006b5	68 00 00 00 00	 push	 OFFSET ??_C@_0EG@KKKJIDAO@c?3?2users?2nhv90?2projects?2eech?2ap@
  006ba	a1 00 00 00 00	 mov	 eax, DWORD PTR ?overload_invalid_vec3d_type_message@@3PBDB ; overload_invalid_vec3d_type_message
  006bf	50		 push	 eax
  006c0	e8 00 00 00 00	 call	 ?process_assert@@YGXPBD0H@Z ; process_assert
  006c5	c7 85 8c fe ff
	ff 00 00 00 00	 mov	 DWORD PTR tv309[ebp], 0
$LN38@get_pilot_:
  006cf	68 00 00 00 00	 push	 OFFSET ?pilot_head_vp@@3UVIEWPOINT@@A ; pilot_head_vp
  006d4	6a 08		 push	 8
  006d6	8b 0d 00 00 00
	00		 mov	 ecx, DWORD PTR ?gunship_entity@@3PAUENTITY@@A ; gunship_entity
  006dc	51		 push	 ecx
  006dd	6b 95 90 fe ff
	ff 60		 imul	 edx, DWORD PTR tv301[ebp], 96
  006e4	8b 85 8c fe ff
	ff		 mov	 eax, DWORD PTR tv309[ebp]
  006ea	8b 8c 82 00 00
	00 00		 mov	 ecx, DWORD PTR ?fn_get_local_entity_vec3d@@3PAY0BI@P6GXPAUENTITY@@W4VEC3D_TYPES@@PAUVEC3D@@@ZA[edx+eax*4]
  006f1	ff d1		 call	 ecx

; 1072 : 
; 1073 : 				get_local_entity_attitude_matrix (get_gunship_entity (), pilot_head_vp.attitude);

  006f3	83 3d 00 00 00
	00 00		 cmp	 DWORD PTR ?gunship_entity@@3PAUENTITY@@A, 0 ; gunship_entity
  006fa	74 0f		 je	 SHORT $LN39@get_pilot_
  006fc	a1 00 00 00 00	 mov	 eax, DWORD PTR ?gunship_entity@@3PAUENTITY@@A ; gunship_entity
  00701	8b 08		 mov	 ecx, DWORD PTR [eax]
  00703	89 8d 90 fe ff
	ff		 mov	 DWORD PTR tv321[ebp], ecx
  00709	eb 27		 jmp	 SHORT $LN40@get_pilot_
$LN39@get_pilot_:
  0070b	8b 15 00 00 00
	00		 mov	 edx, DWORD PTR ?__LINE__Var@?0??get_pilot_head_viewpoint@@YGXXZ@4JA
  00711	81 c2 b9 00 00
	00		 add	 edx, 185		; 000000b9H
  00717	52		 push	 edx
  00718	68 00 00 00 00	 push	 OFFSET ??_C@_0EG@KKKJIDAO@c?3?2users?2nhv90?2projects?2eech?2ap@
  0071d	a1 00 00 00 00	 mov	 eax, DWORD PTR ?null_entity_pointer_message@@3PBDB ; null_entity_pointer_message
  00722	50		 push	 eax
  00723	e8 00 00 00 00	 call	 ?process_assert@@YGXPBD0H@Z ; process_assert
  00728	c7 85 90 fe ff
	ff 00 00 00 00	 mov	 DWORD PTR tv321[ebp], 0
$LN40@get_pilot_:
  00732	68 0c 00 00 00	 push	 OFFSET ?pilot_head_vp@@3UVIEWPOINT@@A+12
  00737	8b 0d 00 00 00
	00		 mov	 ecx, DWORD PTR ?gunship_entity@@3PAUENTITY@@A ; gunship_entity
  0073d	51		 push	 ecx
  0073e	8b 95 90 fe ff
	ff		 mov	 edx, DWORD PTR tv321[ebp]
  00744	8b 04 95 00 00
	00 00		 mov	 eax, DWORD PTR ?fn_get_local_entity_attitude_matrix@@3PAP6GXPAUENTITY@@QAY02M@ZA[edx*4]
  0074b	ff d0		 call	 eax

; 1074 : 
; 1075 : 				relative_position.x = 0.0;

  0074d	0f 57 c0	 xorps	 xmm0, xmm0
  00750	f3 0f 11 85 1c
	ff ff ff	 movss	 DWORD PTR _relative_position$5[ebp], xmm0

; 1076 : 				relative_position.y = -0.86575;

  00758	f3 0f 10 05 00
	00 00 00	 movss	 xmm0, DWORD PTR __real@bf5da1cb
  00760	f3 0f 11 85 20
	ff ff ff	 movss	 DWORD PTR _relative_position$5[ebp+4], xmm0

; 1077 : 				relative_position.z = 1.252;

  00768	f3 0f 10 05 00
	00 00 00	 movss	 xmm0, DWORD PTR __real@3fa04189
  00770	f3 0f 11 85 24
	ff ff ff	 movss	 DWORD PTR _relative_position$5[ebp+8], xmm0

; 1078 : 
; 1079 : 				multiply_matrix3x3_vec3d (&world_relative_position, pilot_head_vp.attitude, &relative_position);

  00778	8d 85 1c ff ff
	ff		 lea	 eax, DWORD PTR _relative_position$5[ebp]
  0077e	50		 push	 eax
  0077f	68 0c 00 00 00	 push	 OFFSET ?pilot_head_vp@@3UVIEWPOINT@@A+12
  00784	8d 8d 10 ff ff
	ff		 lea	 ecx, DWORD PTR _world_relative_position$4[ebp]
  0078a	51		 push	 ecx
  0078b	e8 00 00 00 00	 call	 ?multiply_matrix3x3_vec3d@@YGXPAUVEC3D@@QAY02$$CBMPBU1@@Z ; multiply_matrix3x3_vec3d

; 1080 : 
; 1081 : 				pilot_head_vp.position.x += world_relative_position.x;

  00790	f3 0f 10 05 00
	00 00 00	 movss	 xmm0, DWORD PTR ?pilot_head_vp@@3UVIEWPOINT@@A
  00798	f3 0f 58 85 10
	ff ff ff	 addss	 xmm0, DWORD PTR _world_relative_position$4[ebp]
  007a0	f3 0f 11 05 00
	00 00 00	 movss	 DWORD PTR ?pilot_head_vp@@3UVIEWPOINT@@A, xmm0

; 1082 : 				pilot_head_vp.position.y += world_relative_position.y;

  007a8	f3 0f 10 05 04
	00 00 00	 movss	 xmm0, DWORD PTR ?pilot_head_vp@@3UVIEWPOINT@@A+4
  007b0	f3 0f 58 85 14
	ff ff ff	 addss	 xmm0, DWORD PTR _world_relative_position$4[ebp+4]
  007b8	f3 0f 11 05 04
	00 00 00	 movss	 DWORD PTR ?pilot_head_vp@@3UVIEWPOINT@@A+4, xmm0

; 1083 : 				pilot_head_vp.position.z += world_relative_position.z;

  007c0	f3 0f 10 05 08
	00 00 00	 movss	 xmm0, DWORD PTR ?pilot_head_vp@@3UVIEWPOINT@@A+8
  007c8	f3 0f 58 85 18
	ff ff ff	 addss	 xmm0, DWORD PTR _world_relative_position$4[ebp+8]
  007d0	f3 0f 11 05 08
	00 00 00	 movss	 DWORD PTR ?pilot_head_vp@@3UVIEWPOINT@@A+8, xmm0

; 1084 : 
; 1085 : 				//
; 1086 : 				// rotate view wrt pilot's head heading and pitch
; 1087 : 				//
; 1088 : 
; 1089 : 				get_arbitrary_rotation_matrix (m, &pilot_head_vp.yv, pilot_head_heading);

  007d8	51		 push	 ecx
  007d9	f3 0f 10 05 00
	00 00 00	 movss	 xmm0, DWORD PTR ?pilot_head_heading@@3MA
  007e1	f3 0f 11 04 24	 movss	 DWORD PTR [esp], xmm0
  007e6	68 18 00 00 00	 push	 OFFSET ?pilot_head_vp@@3UVIEWPOINT@@A+24
  007eb	8d 85 28 ff ff
	ff		 lea	 eax, DWORD PTR _m$6[ebp]
  007f1	50		 push	 eax
  007f2	e8 00 00 00 00	 call	 ?get_arbitrary_rotation_matrix@@YGXQAY02MPBUVEC3D@@M@Z ; get_arbitrary_rotation_matrix

; 1090 : 
; 1091 : 				multiply_matrix3x3_vec3d (&pilot_head_vp.xv, m, &pilot_head_vp.xv);

  007f7	68 0c 00 00 00	 push	 OFFSET ?pilot_head_vp@@3UVIEWPOINT@@A+12
  007fc	8d 85 28 ff ff
	ff		 lea	 eax, DWORD PTR _m$6[ebp]
  00802	50		 push	 eax
  00803	68 0c 00 00 00	 push	 OFFSET ?pilot_head_vp@@3UVIEWPOINT@@A+12
  00808	e8 00 00 00 00	 call	 ?multiply_matrix3x3_vec3d@@YGXPAUVEC3D@@QAY02$$CBMPBU1@@Z ; multiply_matrix3x3_vec3d

; 1092 : 
; 1093 : 				multiply_matrix3x3_vec3d (&pilot_head_vp.zv, m, &pilot_head_vp.zv);

  0080d	68 24 00 00 00	 push	 OFFSET ?pilot_head_vp@@3UVIEWPOINT@@A+36
  00812	8d 85 28 ff ff
	ff		 lea	 eax, DWORD PTR _m$6[ebp]
  00818	50		 push	 eax
  00819	68 24 00 00 00	 push	 OFFSET ?pilot_head_vp@@3UVIEWPOINT@@A+36
  0081e	e8 00 00 00 00	 call	 ?multiply_matrix3x3_vec3d@@YGXPAUVEC3D@@QAY02$$CBMPBU1@@Z ; multiply_matrix3x3_vec3d

; 1094 : 
; 1095 : 				get_arbitrary_rotation_matrix (m, &pilot_head_vp.xv, pilot_head_pitch);

  00823	51		 push	 ecx
  00824	f3 0f 10 05 00
	00 00 00	 movss	 xmm0, DWORD PTR ?pilot_head_pitch@@3MA
  0082c	f3 0f 11 04 24	 movss	 DWORD PTR [esp], xmm0
  00831	68 0c 00 00 00	 push	 OFFSET ?pilot_head_vp@@3UVIEWPOINT@@A+12
  00836	8d 85 28 ff ff
	ff		 lea	 eax, DWORD PTR _m$6[ebp]
  0083c	50		 push	 eax
  0083d	e8 00 00 00 00	 call	 ?get_arbitrary_rotation_matrix@@YGXQAY02MPBUVEC3D@@M@Z ; get_arbitrary_rotation_matrix

; 1096 : 
; 1097 : 				multiply_matrix3x3_vec3d (&pilot_head_vp.yv, m, &pilot_head_vp.yv);

  00842	68 18 00 00 00	 push	 OFFSET ?pilot_head_vp@@3UVIEWPOINT@@A+24
  00847	8d 85 28 ff ff
	ff		 lea	 eax, DWORD PTR _m$6[ebp]
  0084d	50		 push	 eax
  0084e	68 18 00 00 00	 push	 OFFSET ?pilot_head_vp@@3UVIEWPOINT@@A+24
  00853	e8 00 00 00 00	 call	 ?multiply_matrix3x3_vec3d@@YGXPAUVEC3D@@QAY02$$CBMPBU1@@Z ; multiply_matrix3x3_vec3d

; 1098 : 
; 1099 : 				multiply_matrix3x3_vec3d (&pilot_head_vp.zv, m, &pilot_head_vp.zv);

  00858	68 24 00 00 00	 push	 OFFSET ?pilot_head_vp@@3UVIEWPOINT@@A+36
  0085d	8d 85 28 ff ff
	ff		 lea	 eax, DWORD PTR _m$6[ebp]
  00863	50		 push	 eax
  00864	68 24 00 00 00	 push	 OFFSET ?pilot_head_vp@@3UVIEWPOINT@@A+36
  00869	e8 00 00 00 00	 call	 ?multiply_matrix3x3_vec3d@@YGXPAUVEC3D@@QAY02$$CBMPBU1@@Z ; multiply_matrix3x3_vec3d

; 1100 : 
; 1101 : 				break;

  0086e	e9 2f 02 00 00	 jmp	 $LN2@get_pilot_
$LN12@get_pilot_:

; 1102 : 			}
; 1103 : 			////Moje 030612 End
; 1104 : 			////Moje 030816 Start
; 1105 : 			case GUNSHIP_TYPE_AH64A:
; 1106 : 			////////////////////////////////////////
; 1107 : 			{
; 1108 : 				matrix3x3
; 1109 : 					m;
; 1110 : 
; 1111 : 				vec3d
; 1112 : 					relative_position,
; 1113 : 					world_relative_position;
; 1114 : 
; 1115 : 				//
; 1116 : 				// get aircraft position and attitude
; 1117 : 				//
; 1118 : 
; 1119 : 				get_local_entity_vec3d (get_gunship_entity (), VEC3D_TYPE_POSITION, &pilot_head_vp.position);

  00873	83 3d 00 00 00
	00 00		 cmp	 DWORD PTR ?gunship_entity@@3PAUENTITY@@A, 0 ; gunship_entity
  0087a	74 0f		 je	 SHORT $LN41@get_pilot_
  0087c	a1 00 00 00 00	 mov	 eax, DWORD PTR ?gunship_entity@@3PAUENTITY@@A ; gunship_entity
  00881	8b 08		 mov	 ecx, DWORD PTR [eax]
  00883	89 8d 90 fe ff
	ff		 mov	 DWORD PTR tv356[ebp], ecx
  00889	eb 27		 jmp	 SHORT $LN42@get_pilot_
$LN41@get_pilot_:
  0088b	8b 15 00 00 00
	00		 mov	 edx, DWORD PTR ?__LINE__Var@?0??get_pilot_head_viewpoint@@YGXXZ@4JA
  00891	81 c2 e7 00 00
	00		 add	 edx, 231		; 000000e7H
  00897	52		 push	 edx
  00898	68 00 00 00 00	 push	 OFFSET ??_C@_0EG@KKKJIDAO@c?3?2users?2nhv90?2projects?2eech?2ap@
  0089d	a1 00 00 00 00	 mov	 eax, DWORD PTR ?null_entity_pointer_message@@3PBDB ; null_entity_pointer_message
  008a2	50		 push	 eax
  008a3	e8 00 00 00 00	 call	 ?process_assert@@YGXPBD0H@Z ; process_assert
  008a8	c7 85 90 fe ff
	ff 00 00 00 00	 mov	 DWORD PTR tv356[ebp], 0
$LN42@get_pilot_:
  008b2	b9 01 00 00 00	 mov	 ecx, 1
  008b7	85 c9		 test	 ecx, ecx
  008b9	74 0c		 je	 SHORT $LN43@get_pilot_
  008bb	c7 85 8c fe ff
	ff 08 00 00 00	 mov	 DWORD PTR tv364[ebp], 8
  008c5	eb 27		 jmp	 SHORT $LN44@get_pilot_
$LN43@get_pilot_:
  008c7	8b 15 00 00 00
	00		 mov	 edx, DWORD PTR ?__LINE__Var@?0??get_pilot_head_viewpoint@@YGXXZ@4JA
  008cd	81 c2 e7 00 00
	00		 add	 edx, 231		; 000000e7H
  008d3	52		 push	 edx
  008d4	68 00 00 00 00	 push	 OFFSET ??_C@_0EG@KKKJIDAO@c?3?2users?2nhv90?2projects?2eech?2ap@
  008d9	a1 00 00 00 00	 mov	 eax, DWORD PTR ?overload_invalid_vec3d_type_message@@3PBDB ; overload_invalid_vec3d_type_message
  008de	50		 push	 eax
  008df	e8 00 00 00 00	 call	 ?process_assert@@YGXPBD0H@Z ; process_assert
  008e4	c7 85 8c fe ff
	ff 00 00 00 00	 mov	 DWORD PTR tv364[ebp], 0
$LN44@get_pilot_:
  008ee	68 00 00 00 00	 push	 OFFSET ?pilot_head_vp@@3UVIEWPOINT@@A ; pilot_head_vp
  008f3	6a 08		 push	 8
  008f5	8b 0d 00 00 00
	00		 mov	 ecx, DWORD PTR ?gunship_entity@@3PAUENTITY@@A ; gunship_entity
  008fb	51		 push	 ecx
  008fc	6b 95 90 fe ff
	ff 60		 imul	 edx, DWORD PTR tv356[ebp], 96
  00903	8b 85 8c fe ff
	ff		 mov	 eax, DWORD PTR tv364[ebp]
  00909	8b 8c 82 00 00
	00 00		 mov	 ecx, DWORD PTR ?fn_get_local_entity_vec3d@@3PAY0BI@P6GXPAUENTITY@@W4VEC3D_TYPES@@PAUVEC3D@@@ZA[edx+eax*4]
  00910	ff d1		 call	 ecx

; 1120 : 
; 1121 : 				get_local_entity_attitude_matrix (get_gunship_entity (), pilot_head_vp.attitude);

  00912	83 3d 00 00 00
	00 00		 cmp	 DWORD PTR ?gunship_entity@@3PAUENTITY@@A, 0 ; gunship_entity
  00919	74 0f		 je	 SHORT $LN45@get_pilot_
  0091b	a1 00 00 00 00	 mov	 eax, DWORD PTR ?gunship_entity@@3PAUENTITY@@A ; gunship_entity
  00920	8b 08		 mov	 ecx, DWORD PTR [eax]
  00922	89 8d 90 fe ff
	ff		 mov	 DWORD PTR tv376[ebp], ecx
  00928	eb 27		 jmp	 SHORT $LN46@get_pilot_
$LN45@get_pilot_:
  0092a	8b 15 00 00 00
	00		 mov	 edx, DWORD PTR ?__LINE__Var@?0??get_pilot_head_viewpoint@@YGXXZ@4JA
  00930	81 c2 e9 00 00
	00		 add	 edx, 233		; 000000e9H
  00936	52		 push	 edx
  00937	68 00 00 00 00	 push	 OFFSET ??_C@_0EG@KKKJIDAO@c?3?2users?2nhv90?2projects?2eech?2ap@
  0093c	a1 00 00 00 00	 mov	 eax, DWORD PTR ?null_entity_pointer_message@@3PBDB ; null_entity_pointer_message
  00941	50		 push	 eax
  00942	e8 00 00 00 00	 call	 ?process_assert@@YGXPBD0H@Z ; process_assert
  00947	c7 85 90 fe ff
	ff 00 00 00 00	 mov	 DWORD PTR tv376[ebp], 0
$LN46@get_pilot_:
  00951	68 0c 00 00 00	 push	 OFFSET ?pilot_head_vp@@3UVIEWPOINT@@A+12
  00956	8b 0d 00 00 00
	00		 mov	 ecx, DWORD PTR ?gunship_entity@@3PAUENTITY@@A ; gunship_entity
  0095c	51		 push	 ecx
  0095d	8b 95 90 fe ff
	ff		 mov	 edx, DWORD PTR tv376[ebp]
  00963	8b 04 95 00 00
	00 00		 mov	 eax, DWORD PTR ?fn_get_local_entity_attitude_matrix@@3PAP6GXPAUENTITY@@QAY02M@ZA[edx*4]
  0096a	ff d0		 call	 eax

; 1122 : 
; 1123 : 				relative_position.x = 0.0;

  0096c	0f 57 c0	 xorps	 xmm0, xmm0
  0096f	f3 0f 11 85 e0
	fe ff ff	 movss	 DWORD PTR _relative_position$2[ebp], xmm0

; 1124 : 				relative_position.y = -1.2705;

  00977	f3 0f 10 05 00
	00 00 00	 movss	 xmm0, DWORD PTR __real@bfa29fbe
  0097f	f3 0f 11 85 e4
	fe ff ff	 movss	 DWORD PTR _relative_position$2[ebp+4], xmm0

; 1125 : 				relative_position.z = 1.2325;

  00987	f3 0f 10 05 00
	00 00 00	 movss	 xmm0, DWORD PTR __real@3f9dc28f
  0098f	f3 0f 11 85 e8
	fe ff ff	 movss	 DWORD PTR _relative_position$2[ebp+8], xmm0

; 1126 : 
; 1127 : 				multiply_matrix3x3_vec3d (&world_relative_position, pilot_head_vp.attitude, &relative_position);

  00997	8d 85 e0 fe ff
	ff		 lea	 eax, DWORD PTR _relative_position$2[ebp]
  0099d	50		 push	 eax
  0099e	68 0c 00 00 00	 push	 OFFSET ?pilot_head_vp@@3UVIEWPOINT@@A+12
  009a3	8d 8d d4 fe ff
	ff		 lea	 ecx, DWORD PTR _world_relative_position$1[ebp]
  009a9	51		 push	 ecx
  009aa	e8 00 00 00 00	 call	 ?multiply_matrix3x3_vec3d@@YGXPAUVEC3D@@QAY02$$CBMPBU1@@Z ; multiply_matrix3x3_vec3d

; 1128 : 
; 1129 : 				pilot_head_vp.position.x += world_relative_position.x;

  009af	f3 0f 10 05 00
	00 00 00	 movss	 xmm0, DWORD PTR ?pilot_head_vp@@3UVIEWPOINT@@A
  009b7	f3 0f 58 85 d4
	fe ff ff	 addss	 xmm0, DWORD PTR _world_relative_position$1[ebp]
  009bf	f3 0f 11 05 00
	00 00 00	 movss	 DWORD PTR ?pilot_head_vp@@3UVIEWPOINT@@A, xmm0

; 1130 : 				pilot_head_vp.position.y += world_relative_position.y;

  009c7	f3 0f 10 05 04
	00 00 00	 movss	 xmm0, DWORD PTR ?pilot_head_vp@@3UVIEWPOINT@@A+4
  009cf	f3 0f 58 85 d8
	fe ff ff	 addss	 xmm0, DWORD PTR _world_relative_position$1[ebp+4]
  009d7	f3 0f 11 05 04
	00 00 00	 movss	 DWORD PTR ?pilot_head_vp@@3UVIEWPOINT@@A+4, xmm0

; 1131 : 				pilot_head_vp.position.z += world_relative_position.z;

  009df	f3 0f 10 05 08
	00 00 00	 movss	 xmm0, DWORD PTR ?pilot_head_vp@@3UVIEWPOINT@@A+8
  009e7	f3 0f 58 85 dc
	fe ff ff	 addss	 xmm0, DWORD PTR _world_relative_position$1[ebp+8]
  009ef	f3 0f 11 05 08
	00 00 00	 movss	 DWORD PTR ?pilot_head_vp@@3UVIEWPOINT@@A+8, xmm0

; 1132 : 
; 1133 : 				//
; 1134 : 				// rotate view wrt pilot's head heading and pitch
; 1135 : 				//
; 1136 : 
; 1137 : 				get_arbitrary_rotation_matrix (m, &pilot_head_vp.yv, pilot_head_heading);

  009f7	51		 push	 ecx
  009f8	f3 0f 10 05 00
	00 00 00	 movss	 xmm0, DWORD PTR ?pilot_head_heading@@3MA
  00a00	f3 0f 11 04 24	 movss	 DWORD PTR [esp], xmm0
  00a05	68 18 00 00 00	 push	 OFFSET ?pilot_head_vp@@3UVIEWPOINT@@A+24
  00a0a	8d 85 ec fe ff
	ff		 lea	 eax, DWORD PTR _m$3[ebp]
  00a10	50		 push	 eax
  00a11	e8 00 00 00 00	 call	 ?get_arbitrary_rotation_matrix@@YGXQAY02MPBUVEC3D@@M@Z ; get_arbitrary_rotation_matrix

; 1138 : 
; 1139 : 				multiply_matrix3x3_vec3d (&pilot_head_vp.xv, m, &pilot_head_vp.xv);

  00a16	68 0c 00 00 00	 push	 OFFSET ?pilot_head_vp@@3UVIEWPOINT@@A+12
  00a1b	8d 85 ec fe ff
	ff		 lea	 eax, DWORD PTR _m$3[ebp]
  00a21	50		 push	 eax
  00a22	68 0c 00 00 00	 push	 OFFSET ?pilot_head_vp@@3UVIEWPOINT@@A+12
  00a27	e8 00 00 00 00	 call	 ?multiply_matrix3x3_vec3d@@YGXPAUVEC3D@@QAY02$$CBMPBU1@@Z ; multiply_matrix3x3_vec3d

; 1140 : 
; 1141 : 				multiply_matrix3x3_vec3d (&pilot_head_vp.zv, m, &pilot_head_vp.zv);

  00a2c	68 24 00 00 00	 push	 OFFSET ?pilot_head_vp@@3UVIEWPOINT@@A+36
  00a31	8d 85 ec fe ff
	ff		 lea	 eax, DWORD PTR _m$3[ebp]
  00a37	50		 push	 eax
  00a38	68 24 00 00 00	 push	 OFFSET ?pilot_head_vp@@3UVIEWPOINT@@A+36
  00a3d	e8 00 00 00 00	 call	 ?multiply_matrix3x3_vec3d@@YGXPAUVEC3D@@QAY02$$CBMPBU1@@Z ; multiply_matrix3x3_vec3d

; 1142 : 
; 1143 : 				get_arbitrary_rotation_matrix (m, &pilot_head_vp.xv, pilot_head_pitch);

  00a42	51		 push	 ecx
  00a43	f3 0f 10 05 00
	00 00 00	 movss	 xmm0, DWORD PTR ?pilot_head_pitch@@3MA
  00a4b	f3 0f 11 04 24	 movss	 DWORD PTR [esp], xmm0
  00a50	68 0c 00 00 00	 push	 OFFSET ?pilot_head_vp@@3UVIEWPOINT@@A+12
  00a55	8d 85 ec fe ff
	ff		 lea	 eax, DWORD PTR _m$3[ebp]
  00a5b	50		 push	 eax
  00a5c	e8 00 00 00 00	 call	 ?get_arbitrary_rotation_matrix@@YGXQAY02MPBUVEC3D@@M@Z ; get_arbitrary_rotation_matrix

; 1144 : 
; 1145 : 				multiply_matrix3x3_vec3d (&pilot_head_vp.yv, m, &pilot_head_vp.yv);

  00a61	68 18 00 00 00	 push	 OFFSET ?pilot_head_vp@@3UVIEWPOINT@@A+24
  00a66	8d 85 ec fe ff
	ff		 lea	 eax, DWORD PTR _m$3[ebp]
  00a6c	50		 push	 eax
  00a6d	68 18 00 00 00	 push	 OFFSET ?pilot_head_vp@@3UVIEWPOINT@@A+24
  00a72	e8 00 00 00 00	 call	 ?multiply_matrix3x3_vec3d@@YGXPAUVEC3D@@QAY02$$CBMPBU1@@Z ; multiply_matrix3x3_vec3d

; 1146 : 
; 1147 : 				multiply_matrix3x3_vec3d (&pilot_head_vp.zv, m, &pilot_head_vp.zv);

  00a77	68 24 00 00 00	 push	 OFFSET ?pilot_head_vp@@3UVIEWPOINT@@A+36
  00a7c	8d 85 ec fe ff
	ff		 lea	 eax, DWORD PTR _m$3[ebp]
  00a82	50		 push	 eax
  00a83	68 24 00 00 00	 push	 OFFSET ?pilot_head_vp@@3UVIEWPOINT@@A+36
  00a88	e8 00 00 00 00	 call	 ?multiply_matrix3x3_vec3d@@YGXPAUVEC3D@@QAY02$$CBMPBU1@@Z ; multiply_matrix3x3_vec3d

; 1148 : 
; 1149 : 				break;

  00a8d	eb 13		 jmp	 SHORT $LN2@get_pilot_
$LN13@get_pilot_:

; 1150 : 			}
; 1151 : 			////////////////////////////////////////
; 1152 : 			case GUNSHIP_TYPE_KA50:
; 1153 : 			////////////////////////////////////////
; 1154 : 			{
; 1155 : 				get_ka50_crew_viewpoint ();

  00a8f	e8 00 00 00 00	 call	 ?get_ka50_crew_viewpoint@@YGXXZ ; get_ka50_crew_viewpoint

; 1156 : 
; 1157 : 				break;

  00a94	eb 0c		 jmp	 SHORT $LN2@get_pilot_
$LN14@get_pilot_:

; 1158 : 			}
; 1159 : 			////Moje 030816 End
; 1160 : 			case GUNSHIP_TYPE_VIPER:
; 1161 : 			////////////////////////////////////////
; 1162 : 			{
; 1163 : //VJ#	this does the proper viepoint?
; 1164 : 				get_viper_crew_viewpoint ();

  00a96	e8 00 00 00 00	 call	 ?get_viper_crew_viewpoint@@YGXXZ ; get_viper_crew_viewpoint

; 1165 : 
; 1166 : 				break;

  00a9b	eb 05		 jmp	 SHORT $LN2@get_pilot_
$LN15@get_pilot_:

; 1167 : 			}
; 1168 : 			case GUNSHIP_TYPE_KIOWA:
; 1169 : 			////////////////////////////////////////
; 1170 : 			{
; 1171 : //VJ#	this does the proper viepoint?
; 1172 : 				get_kiowa_crew_viewpoint ();

  00a9d	e8 00 00 00 00	 call	 ?get_kiowa_crew_viewpoint@@YGXXZ ; get_kiowa_crew_viewpoint
$LN2@get_pilot_:

; 1173 : 
; 1174 : 				break;
; 1175 : 			}
; 1176 : 			////////////////////////////////////////
; 1177 : 		}
; 1178 : 	}
; 1179 : 	else

  00aa2	eb 3a		 jmp	 SHORT $LN5@get_pilot_
$LN4@get_pilot_:

; 1180 : 	{
; 1181 : 		pilot_head_vp.position.x = MID_MAP_X;

  00aa4	f3 0f 10 05 30
	00 00 00	 movss	 xmm0, DWORD PTR ?world_map@@3UWORLD_MAP_DATA@@A+48
  00aac	f3 0f 11 05 00
	00 00 00	 movss	 DWORD PTR ?pilot_head_vp@@3UVIEWPOINT@@A, xmm0

; 1182 : 		pilot_head_vp.position.y = MID_MAP_Y;

  00ab4	f3 0f 10 05 34
	00 00 00	 movss	 xmm0, DWORD PTR ?world_map@@3UWORLD_MAP_DATA@@A+52
  00abc	f3 0f 11 05 04
	00 00 00	 movss	 DWORD PTR ?pilot_head_vp@@3UVIEWPOINT@@A+4, xmm0

; 1183 : 		pilot_head_vp.position.z = MID_MAP_Z;

  00ac4	f3 0f 10 05 38
	00 00 00	 movss	 xmm0, DWORD PTR ?world_map@@3UWORLD_MAP_DATA@@A+56
  00acc	f3 0f 11 05 08
	00 00 00	 movss	 DWORD PTR ?pilot_head_vp@@3UVIEWPOINT@@A+8, xmm0

; 1184 : 
; 1185 : 		get_identity_matrix3x3 (pilot_head_vp.attitude);

  00ad4	68 0c 00 00 00	 push	 OFFSET ?pilot_head_vp@@3UVIEWPOINT@@A+12
  00ad9	e8 00 00 00 00	 call	 ?get_identity_matrix3x3@@YGXQAY02M@Z ; get_identity_matrix3x3
$LN5@get_pilot_:

; 1186 : 	}
; 1187 : }

  00ade	5f		 pop	 edi
  00adf	5e		 pop	 esi
  00ae0	5b		 pop	 ebx
  00ae1	8b e5		 mov	 esp, ebp
  00ae3	5d		 pop	 ebp
  00ae4	c3		 ret	 0
  00ae5	0f 1f 00	 npad	 3
$LN47@get_pilot_:
  00ae8	00 00 00 00	 DD	 $LN7@get_pilot_
  00aec	00 00 00 00	 DD	 $LN8@get_pilot_
  00af0	00 00 00 00	 DD	 $LN9@get_pilot_
  00af4	00 00 00 00	 DD	 $LN10@get_pilot_
  00af8	00 00 00 00	 DD	 $LN11@get_pilot_
  00afc	00 00 00 00	 DD	 $LN12@get_pilot_
  00b00	00 00 00 00	 DD	 $LN13@get_pilot_
  00b04	00 00 00 00	 DD	 $LN14@get_pilot_
  00b08	00 00 00 00	 DD	 $LN15@get_pilot_
?get_pilot_head_viewpoint@@YGXXZ ENDP			; get_pilot_head_viewpoint
_TEXT	ENDS
; Function compile flags: /Odtp /ZI
; File c:\users\nhv90\projects\eech\aphavoc\source\gunships\views\vm_vckpt.c
;	COMDAT ?update_virtual_cockpit_display_view@@YGXXZ
_TEXT	SEGMENT
?update_virtual_cockpit_display_view@@YGXXZ PROC	; update_virtual_cockpit_display_view, COMDAT

; 880  : {

  00000	55		 push	 ebp
  00001	8b ec		 mov	 ebp, esp
  00003	83 ec 40	 sub	 esp, 64			; 00000040H
  00006	53		 push	 ebx
  00007	56		 push	 esi
  00008	57		 push	 edi

; 881  : }

  00009	5f		 pop	 edi
  0000a	5e		 pop	 esi
  0000b	5b		 pop	 ebx
  0000c	8b e5		 mov	 esp, ebp
  0000e	5d		 pop	 ebp
  0000f	c3		 ret	 0
?update_virtual_cockpit_display_view@@YGXXZ ENDP	; update_virtual_cockpit_display_view
_TEXT	ENDS
; Function compile flags: /Odtp /ZI
; File c:\users\nhv90\projects\eech\aphavoc\source\gunships\views\vm_vckpt.c
;	COMDAT ?update_virtual_cockpit_hud_view@@YGXXZ
_TEXT	SEGMENT
?update_virtual_cockpit_hud_view@@YGXXZ PROC		; update_virtual_cockpit_hud_view, COMDAT

; 864  : {

  00000	55		 push	 ebp
  00001	8b ec		 mov	 ebp, esp
  00003	83 ec 40	 sub	 esp, 64			; 00000040H
  00006	53		 push	 ebx
  00007	56		 push	 esi
  00008	57		 push	 edi

; 865  : }

  00009	5f		 pop	 edi
  0000a	5e		 pop	 esi
  0000b	5b		 pop	 ebx
  0000c	8b e5		 mov	 esp, ebp
  0000e	5d		 pop	 ebp
  0000f	c3		 ret	 0
?update_virtual_cockpit_hud_view@@YGXXZ ENDP		; update_virtual_cockpit_hud_view
_TEXT	ENDS
; Function compile flags: /Odtp /ZI
; File c:\users\nhv90\projects\eech\aphavoc\source\gunships\views\vm_vckpt.c
;	COMDAT ?update_virtual_cockpit_crew_view@@YGXXZ
_TEXT	SEGMENT
?update_virtual_cockpit_crew_view@@YGXXZ PROC		; update_virtual_cockpit_crew_view, COMDAT

; 856  : {

  00000	55		 push	 ebp
  00001	8b ec		 mov	 ebp, esp
  00003	83 ec 40	 sub	 esp, 64			; 00000040H
  00006	53		 push	 ebx
  00007	56		 push	 esi
  00008	57		 push	 edi

; 857  : }

  00009	5f		 pop	 edi
  0000a	5e		 pop	 esi
  0000b	5b		 pop	 ebx
  0000c	8b e5		 mov	 esp, ebp
  0000e	5d		 pop	 ebp
  0000f	c3		 ret	 0
?update_virtual_cockpit_crew_view@@YGXXZ ENDP		; update_virtual_cockpit_crew_view
_TEXT	ENDS
; Function compile flags: /Odtp /ZI
; File c:\users\nhv90\projects\eech\aphavoc\source\gunships\views\vm_vckpt.c
;	COMDAT ?update_virtual_cockpit_track_target_view@@YGXXZ
_TEXT	SEGMENT
tv157 = -96						; size = 4
tv147 = -96						; size = 4
tv134 = -96						; size = 4
tv94 = -96						; size = 4
tv78 = -96						; size = 4
tv158 = -92						; size = 4
tv148 = -92						; size = 4
tv135 = -92						; size = 4
tv95 = -92						; size = 4
tv70 = -92						; size = 4
_target$ = -24						; size = 4
_frame_rotate_rate$ = -20				; size = 4
_delta_pitch$ = -16					; size = 4
_delta_heading$ = -12					; size = 4
_old_pitch$ = -8					; size = 4
_old_heading$ = -4					; size = 4
?update_virtual_cockpit_track_target_view@@YGXXZ PROC	; update_virtual_cockpit_track_target_view, COMDAT

; 791  : {

  00000	55		 push	 ebp
  00001	8b ec		 mov	 ebp, esp
  00003	83 ec 60	 sub	 esp, 96			; 00000060H
  00006	53		 push	 ebx
  00007	56		 push	 esi
  00008	57		 push	 edi

; 792  : 	float
; 793  : 		old_heading,
; 794  : 		old_pitch,
; 795  : 		delta_heading,
; 796  : 		delta_pitch,
; 797  : 		frame_rotate_rate;
; 798  : 
; 799  : 	entity
; 800  : 		*target;
; 801  : 
; 802  : 	target = get_local_entity_parent (get_gunship_entity (), LIST_TYPE_TARGET);

  00009	83 3d 00 00 00
	00 00		 cmp	 DWORD PTR ?gunship_entity@@3PAUENTITY@@A, 0 ; gunship_entity
  00010	74 0c		 je	 SHORT $LN6@update_vir
  00012	a1 00 00 00 00	 mov	 eax, DWORD PTR ?gunship_entity@@3PAUENTITY@@A ; gunship_entity
  00017	8b 08		 mov	 ecx, DWORD PTR [eax]
  00019	89 4d a4	 mov	 DWORD PTR tv70[ebp], ecx
  0001c	eb 21		 jmp	 SHORT $LN7@update_vir
$LN6@update_vir:
  0001e	8b 15 00 00 00
	00		 mov	 edx, DWORD PTR ?__LINE__Var@?0??update_virtual_cockpit_track_target_view@@YGXXZ@4JA
  00024	83 c2 0b	 add	 edx, 11			; 0000000bH
  00027	52		 push	 edx
  00028	68 00 00 00 00	 push	 OFFSET ??_C@_0EG@KKKJIDAO@c?3?2users?2nhv90?2projects?2eech?2ap@
  0002d	a1 00 00 00 00	 mov	 eax, DWORD PTR ?null_entity_pointer_message@@3PBDB ; null_entity_pointer_message
  00032	50		 push	 eax
  00033	e8 00 00 00 00	 call	 ?process_assert@@YGXPBD0H@Z ; process_assert
  00038	c7 45 a4 00 00
	00 00		 mov	 DWORD PTR tv70[ebp], 0
$LN7@update_vir:
  0003f	b9 01 00 00 00	 mov	 ecx, 1
  00044	85 c9		 test	 ecx, ecx
  00046	74 09		 je	 SHORT $LN8@update_vir
  00048	c7 45 a0 26 00
	00 00		 mov	 DWORD PTR tv78[ebp], 38	; 00000026H
  0004f	eb 21		 jmp	 SHORT $LN9@update_vir
$LN8@update_vir:
  00051	8b 15 00 00 00
	00		 mov	 edx, DWORD PTR ?__LINE__Var@?0??update_virtual_cockpit_track_target_view@@YGXXZ@4JA
  00057	83 c2 0b	 add	 edx, 11			; 0000000bH
  0005a	52		 push	 edx
  0005b	68 00 00 00 00	 push	 OFFSET ??_C@_0EG@KKKJIDAO@c?3?2users?2nhv90?2projects?2eech?2ap@
  00060	a1 00 00 00 00	 mov	 eax, DWORD PTR ?overload_invalid_list_type_message@@3PBDB ; overload_invalid_list_type_message
  00065	50		 push	 eax
  00066	e8 00 00 00 00	 call	 ?process_assert@@YGXPBD0H@Z ; process_assert
  0006b	c7 45 a0 00 00
	00 00		 mov	 DWORD PTR tv78[ebp], 0
$LN9@update_vir:
  00072	6a 26		 push	 38			; 00000026H
  00074	8b 0d 00 00 00
	00		 mov	 ecx, DWORD PTR ?gunship_entity@@3PAUENTITY@@A ; gunship_entity
  0007a	51		 push	 ecx
  0007b	69 55 a4 b4 00
	00 00		 imul	 edx, DWORD PTR tv70[ebp], 180
  00082	8b 45 a0	 mov	 eax, DWORD PTR tv78[ebp]
  00085	8b 8c 82 00 00
	00 00		 mov	 ecx, DWORD PTR ?fn_get_local_entity_parent@@3PAY0CN@P6GPAUENTITY@@PAU1@W4LIST_TYPES@@@ZA[edx+eax*4]
  0008c	ff d1		 call	 ecx
  0008e	89 45 e8	 mov	 DWORD PTR _target$[ebp], eax

; 803  : 
; 804  : 	if (target)

  00091	83 7d e8 00	 cmp	 DWORD PTR _target$[ebp], 0
  00095	0f 84 3d 01 00
	00		 je	 $LN2@update_vir

; 805  : 	{
; 806  : 		old_heading = pilot_head_heading;

  0009b	f3 0f 10 05 00
	00 00 00	 movss	 xmm0, DWORD PTR ?pilot_head_heading@@3MA
  000a3	f3 0f 11 45 fc	 movss	 DWORD PTR _old_heading$[ebp], xmm0

; 807  : 
; 808  : 		old_pitch = pilot_head_pitch;

  000a8	f3 0f 10 05 00
	00 00 00	 movss	 xmm0, DWORD PTR ?pilot_head_pitch@@3MA
  000b0	f3 0f 11 45 f8	 movss	 DWORD PTR _old_pitch$[ebp], xmm0

; 809  : 
; 810  : 		get_pilot_head_heading_and_pitch_to_target (target);

  000b5	8b 45 e8	 mov	 eax, DWORD PTR _target$[ebp]
  000b8	50		 push	 eax
  000b9	e8 00 00 00 00	 call	 ?get_pilot_head_heading_and_pitch_to_target@@YGXPAUENTITY@@@Z ; get_pilot_head_heading_and_pitch_to_target

; 811  : 
; 812  : 		frame_rotate_rate = rad (45.0) * get_delta_time ();

  000be	f3 0f 5a 05 00
	00 00 00	 cvtss2sd xmm0, DWORD PTR ?system_delta_time@@3MA
  000c6	f2 0f 59 05 00
	00 00 00	 mulsd	 xmm0, QWORD PTR __real@3fe921fb51000000
  000ce	f2 0f 5a c0	 cvtsd2ss xmm0, xmm0
  000d2	f3 0f 11 45 ec	 movss	 DWORD PTR _frame_rotate_rate$[ebp], xmm0

; 813  : 
; 814  : 		delta_heading = pilot_head_heading - old_heading;

  000d7	f3 0f 10 05 00
	00 00 00	 movss	 xmm0, DWORD PTR ?pilot_head_heading@@3MA
  000df	f3 0f 5c 45 fc	 subss	 xmm0, DWORD PTR _old_heading$[ebp]
  000e4	f3 0f 11 45 f4	 movss	 DWORD PTR _delta_heading$[ebp], xmm0

; 815  : 
; 816  : 		delta_heading = bound (delta_heading, -frame_rotate_rate, frame_rotate_rate);

  000e9	f3 0f 10 45 ec	 movss	 xmm0, DWORD PTR _frame_rotate_rate$[ebp]
  000ee	0f 57 05 00 00
	00 00		 xorps	 xmm0, DWORD PTR __xmm@80000000800000008000000080000000
  000f5	0f 2f 45 f4	 comiss	 xmm0, DWORD PTR _delta_heading$[ebp]
  000f9	76 13		 jbe	 SHORT $LN12@update_vir
  000fb	f3 0f 10 45 ec	 movss	 xmm0, DWORD PTR _frame_rotate_rate$[ebp]
  00100	0f 57 05 00 00
	00 00		 xorps	 xmm0, DWORD PTR __xmm@80000000800000008000000080000000
  00107	f3 0f 11 45 a4	 movss	 DWORD PTR tv95[ebp], xmm0
  0010c	eb 2b		 jmp	 SHORT $LN13@update_vir
$LN12@update_vir:
  0010e	f3 0f 10 45 f4	 movss	 xmm0, DWORD PTR _delta_heading$[ebp]
  00113	0f 2f 45 ec	 comiss	 xmm0, DWORD PTR _frame_rotate_rate$[ebp]
  00117	76 0c		 jbe	 SHORT $LN10@update_vir
  00119	f3 0f 10 45 ec	 movss	 xmm0, DWORD PTR _frame_rotate_rate$[ebp]
  0011e	f3 0f 11 45 a0	 movss	 DWORD PTR tv94[ebp], xmm0
  00123	eb 0a		 jmp	 SHORT $LN11@update_vir
$LN10@update_vir:
  00125	f3 0f 10 45 f4	 movss	 xmm0, DWORD PTR _delta_heading$[ebp]
  0012a	f3 0f 11 45 a0	 movss	 DWORD PTR tv94[ebp], xmm0
$LN11@update_vir:
  0012f	f3 0f 10 45 a0	 movss	 xmm0, DWORD PTR tv94[ebp]
  00134	f3 0f 11 45 a4	 movss	 DWORD PTR tv95[ebp], xmm0
$LN13@update_vir:
  00139	f3 0f 10 45 a4	 movss	 xmm0, DWORD PTR tv95[ebp]
  0013e	f3 0f 11 45 f4	 movss	 DWORD PTR _delta_heading$[ebp], xmm0

; 817  : 
; 818  : 		pilot_head_heading = old_heading + delta_heading;

  00143	f3 0f 10 45 fc	 movss	 xmm0, DWORD PTR _old_heading$[ebp]
  00148	f3 0f 58 45 f4	 addss	 xmm0, DWORD PTR _delta_heading$[ebp]
  0014d	f3 0f 11 05 00
	00 00 00	 movss	 DWORD PTR ?pilot_head_heading@@3MA, xmm0

; 819  : 
; 820  : 		delta_pitch = pilot_head_pitch - old_pitch;

  00155	f3 0f 10 05 00
	00 00 00	 movss	 xmm0, DWORD PTR ?pilot_head_pitch@@3MA
  0015d	f3 0f 5c 45 f8	 subss	 xmm0, DWORD PTR _old_pitch$[ebp]
  00162	f3 0f 11 45 f0	 movss	 DWORD PTR _delta_pitch$[ebp], xmm0

; 821  : 
; 822  : 		delta_pitch = bound (delta_pitch, -frame_rotate_rate, frame_rotate_rate);

  00167	f3 0f 10 45 ec	 movss	 xmm0, DWORD PTR _frame_rotate_rate$[ebp]
  0016c	0f 57 05 00 00
	00 00		 xorps	 xmm0, DWORD PTR __xmm@80000000800000008000000080000000
  00173	0f 2f 45 f0	 comiss	 xmm0, DWORD PTR _delta_pitch$[ebp]
  00177	76 13		 jbe	 SHORT $LN16@update_vir
  00179	f3 0f 10 45 ec	 movss	 xmm0, DWORD PTR _frame_rotate_rate$[ebp]
  0017e	0f 57 05 00 00
	00 00		 xorps	 xmm0, DWORD PTR __xmm@80000000800000008000000080000000
  00185	f3 0f 11 45 a4	 movss	 DWORD PTR tv135[ebp], xmm0
  0018a	eb 2b		 jmp	 SHORT $LN17@update_vir
$LN16@update_vir:
  0018c	f3 0f 10 45 f0	 movss	 xmm0, DWORD PTR _delta_pitch$[ebp]
  00191	0f 2f 45 ec	 comiss	 xmm0, DWORD PTR _frame_rotate_rate$[ebp]
  00195	76 0c		 jbe	 SHORT $LN14@update_vir
  00197	f3 0f 10 45 ec	 movss	 xmm0, DWORD PTR _frame_rotate_rate$[ebp]
  0019c	f3 0f 11 45 a0	 movss	 DWORD PTR tv134[ebp], xmm0
  001a1	eb 0a		 jmp	 SHORT $LN15@update_vir
$LN14@update_vir:
  001a3	f3 0f 10 45 f0	 movss	 xmm0, DWORD PTR _delta_pitch$[ebp]
  001a8	f3 0f 11 45 a0	 movss	 DWORD PTR tv134[ebp], xmm0
$LN15@update_vir:
  001ad	f3 0f 10 45 a0	 movss	 xmm0, DWORD PTR tv134[ebp]
  001b2	f3 0f 11 45 a4	 movss	 DWORD PTR tv135[ebp], xmm0
$LN17@update_vir:
  001b7	f3 0f 10 45 a4	 movss	 xmm0, DWORD PTR tv135[ebp]
  001bc	f3 0f 11 45 f0	 movss	 DWORD PTR _delta_pitch$[ebp], xmm0

; 823  : 
; 824  : 		pilot_head_pitch = old_pitch + delta_pitch;

  001c1	f3 0f 10 45 f8	 movss	 xmm0, DWORD PTR _old_pitch$[ebp]
  001c6	f3 0f 58 45 f0	 addss	 xmm0, DWORD PTR _delta_pitch$[ebp]
  001cb	f3 0f 11 05 00
	00 00 00	 movss	 DWORD PTR ?pilot_head_pitch@@3MA, xmm0

; 825  : 	}
; 826  : 	else

  001d3	e9 92 01 00 00	 jmp	 $LN4@update_vir
$LN2@update_vir:

; 827  : 	{
; 828  : 		frame_rotate_rate = rad (45.0) * get_delta_time ();

  001d8	f3 0f 5a 05 00
	00 00 00	 cvtss2sd xmm0, DWORD PTR ?system_delta_time@@3MA
  001e0	f2 0f 59 05 00
	00 00 00	 mulsd	 xmm0, QWORD PTR __real@3fe921fb51000000
  001e8	f2 0f 5a c0	 cvtsd2ss xmm0, xmm0
  001ec	f3 0f 11 45 ec	 movss	 DWORD PTR _frame_rotate_rate$[ebp], xmm0

; 829  : 
; 830  : 		delta_heading = bound (-pilot_head_heading, -frame_rotate_rate, frame_rotate_rate);

  001f1	f3 0f 10 05 00
	00 00 00	 movss	 xmm0, DWORD PTR ?pilot_head_heading@@3MA
  001f9	0f 57 05 00 00
	00 00		 xorps	 xmm0, DWORD PTR __xmm@80000000800000008000000080000000
  00200	f3 0f 10 4d ec	 movss	 xmm1, DWORD PTR _frame_rotate_rate$[ebp]
  00205	0f 57 0d 00 00
	00 00		 xorps	 xmm1, DWORD PTR __xmm@80000000800000008000000080000000
  0020c	0f 2f c8	 comiss	 xmm1, xmm0
  0020f	76 13		 jbe	 SHORT $LN20@update_vir
  00211	f3 0f 10 45 ec	 movss	 xmm0, DWORD PTR _frame_rotate_rate$[ebp]
  00216	0f 57 05 00 00
	00 00		 xorps	 xmm0, DWORD PTR __xmm@80000000800000008000000080000000
  0021d	f3 0f 11 45 a4	 movss	 DWORD PTR tv148[ebp], xmm0
  00222	eb 3f		 jmp	 SHORT $LN21@update_vir
$LN20@update_vir:
  00224	f3 0f 10 05 00
	00 00 00	 movss	 xmm0, DWORD PTR ?pilot_head_heading@@3MA
  0022c	0f 57 05 00 00
	00 00		 xorps	 xmm0, DWORD PTR __xmm@80000000800000008000000080000000
  00233	0f 2f 45 ec	 comiss	 xmm0, DWORD PTR _frame_rotate_rate$[ebp]
  00237	76 0c		 jbe	 SHORT $LN18@update_vir
  00239	f3 0f 10 45 ec	 movss	 xmm0, DWORD PTR _frame_rotate_rate$[ebp]
  0023e	f3 0f 11 45 a0	 movss	 DWORD PTR tv147[ebp], xmm0
  00243	eb 14		 jmp	 SHORT $LN19@update_vir
$LN18@update_vir:
  00245	f3 0f 10 05 00
	00 00 00	 movss	 xmm0, DWORD PTR ?pilot_head_heading@@3MA
  0024d	0f 57 05 00 00
	00 00		 xorps	 xmm0, DWORD PTR __xmm@80000000800000008000000080000000
  00254	f3 0f 11 45 a0	 movss	 DWORD PTR tv147[ebp], xmm0
$LN19@update_vir:
  00259	f3 0f 10 45 a0	 movss	 xmm0, DWORD PTR tv147[ebp]
  0025e	f3 0f 11 45 a4	 movss	 DWORD PTR tv148[ebp], xmm0
$LN21@update_vir:
  00263	f3 0f 10 45 a4	 movss	 xmm0, DWORD PTR tv148[ebp]
  00268	f3 0f 11 45 f4	 movss	 DWORD PTR _delta_heading$[ebp], xmm0

; 831  : 
; 832  : 		pilot_head_heading += delta_heading;

  0026d	f3 0f 10 05 00
	00 00 00	 movss	 xmm0, DWORD PTR ?pilot_head_heading@@3MA
  00275	f3 0f 58 45 f4	 addss	 xmm0, DWORD PTR _delta_heading$[ebp]
  0027a	f3 0f 11 05 00
	00 00 00	 movss	 DWORD PTR ?pilot_head_heading@@3MA, xmm0

; 833  : 
; 834  : 		delta_pitch = bound (-pilot_head_pitch, -frame_rotate_rate, frame_rotate_rate);

  00282	f3 0f 10 05 00
	00 00 00	 movss	 xmm0, DWORD PTR ?pilot_head_pitch@@3MA
  0028a	0f 57 05 00 00
	00 00		 xorps	 xmm0, DWORD PTR __xmm@80000000800000008000000080000000
  00291	f3 0f 10 4d ec	 movss	 xmm1, DWORD PTR _frame_rotate_rate$[ebp]
  00296	0f 57 0d 00 00
	00 00		 xorps	 xmm1, DWORD PTR __xmm@80000000800000008000000080000000
  0029d	0f 2f c8	 comiss	 xmm1, xmm0
  002a0	76 13		 jbe	 SHORT $LN24@update_vir
  002a2	f3 0f 10 45 ec	 movss	 xmm0, DWORD PTR _frame_rotate_rate$[ebp]
  002a7	0f 57 05 00 00
	00 00		 xorps	 xmm0, DWORD PTR __xmm@80000000800000008000000080000000
  002ae	f3 0f 11 45 a4	 movss	 DWORD PTR tv158[ebp], xmm0
  002b3	eb 3f		 jmp	 SHORT $LN25@update_vir
$LN24@update_vir:
  002b5	f3 0f 10 05 00
	00 00 00	 movss	 xmm0, DWORD PTR ?pilot_head_pitch@@3MA
  002bd	0f 57 05 00 00
	00 00		 xorps	 xmm0, DWORD PTR __xmm@80000000800000008000000080000000
  002c4	0f 2f 45 ec	 comiss	 xmm0, DWORD PTR _frame_rotate_rate$[ebp]
  002c8	76 0c		 jbe	 SHORT $LN22@update_vir
  002ca	f3 0f 10 45 ec	 movss	 xmm0, DWORD PTR _frame_rotate_rate$[ebp]
  002cf	f3 0f 11 45 a0	 movss	 DWORD PTR tv157[ebp], xmm0
  002d4	eb 14		 jmp	 SHORT $LN23@update_vir
$LN22@update_vir:
  002d6	f3 0f 10 05 00
	00 00 00	 movss	 xmm0, DWORD PTR ?pilot_head_pitch@@3MA
  002de	0f 57 05 00 00
	00 00		 xorps	 xmm0, DWORD PTR __xmm@80000000800000008000000080000000
  002e5	f3 0f 11 45 a0	 movss	 DWORD PTR tv157[ebp], xmm0
$LN23@update_vir:
  002ea	f3 0f 10 45 a0	 movss	 xmm0, DWORD PTR tv157[ebp]
  002ef	f3 0f 11 45 a4	 movss	 DWORD PTR tv158[ebp], xmm0
$LN25@update_vir:
  002f4	f3 0f 10 45 a4	 movss	 xmm0, DWORD PTR tv158[ebp]
  002f9	f3 0f 11 45 f0	 movss	 DWORD PTR _delta_pitch$[ebp], xmm0

; 835  : 
; 836  : 		pilot_head_pitch += delta_pitch;

  002fe	f3 0f 10 05 00
	00 00 00	 movss	 xmm0, DWORD PTR ?pilot_head_pitch@@3MA
  00306	f3 0f 58 45 f0	 addss	 xmm0, DWORD PTR _delta_pitch$[ebp]
  0030b	f3 0f 11 05 00
	00 00 00	 movss	 DWORD PTR ?pilot_head_pitch@@3MA, xmm0

; 837  : 
; 838  : 		if
; 839  : 		(
; 840  : 			(pilot_head_heading >= rad (-1.0)) &&
; 841  : 			(pilot_head_heading <= rad (1.0)) &&
; 842  : 			(pilot_head_pitch >= rad (-1.0)) &&

  00313	f3 0f 5a 05 00
	00 00 00	 cvtss2sd xmm0, DWORD PTR ?pilot_head_heading@@3MA
  0031b	66 0f 2f 05 00
	00 00 00	 comisd	 xmm0, QWORD PTR __real@bf91df46a0000000
  00323	72 45		 jb	 SHORT $LN4@update_vir
  00325	f3 0f 5a 05 00
	00 00 00	 cvtss2sd xmm0, DWORD PTR ?pilot_head_heading@@3MA
  0032d	f2 0f 10 0d 00
	00 00 00	 movsd	 xmm1, QWORD PTR __real@3f91df46a0000000
  00335	66 0f 2f c8	 comisd	 xmm1, xmm0
  00339	72 2f		 jb	 SHORT $LN4@update_vir
  0033b	f3 0f 5a 05 00
	00 00 00	 cvtss2sd xmm0, DWORD PTR ?pilot_head_pitch@@3MA
  00343	66 0f 2f 05 00
	00 00 00	 comisd	 xmm0, QWORD PTR __real@bf91df46a0000000
  0034b	72 1d		 jb	 SHORT $LN4@update_vir
  0034d	f3 0f 5a 05 00
	00 00 00	 cvtss2sd xmm0, DWORD PTR ?pilot_head_pitch@@3MA
  00355	f2 0f 10 0d 00
	00 00 00	 movsd	 xmm1, QWORD PTR __real@3f91df46a0000000
  0035d	66 0f 2f c8	 comisd	 xmm1, xmm0
  00361	72 07		 jb	 SHORT $LN4@update_vir

; 843  : 			(pilot_head_pitch <= rad (1.0))
; 844  : 		)
; 845  : 		{
; 846  : 			set_view_mode (VIEW_MODE_COCKPIT_PANEL_LEVEL_AHEAD);

  00363	6a 11		 push	 17			; 00000011H
  00365	e8 00 00 00 00	 call	 ?set_view_mode@@YGHW4VIEW_MODES@@@Z ; set_view_mode
$LN4@update_vir:

; 847  : 		}
; 848  : 	}
; 849  : }

  0036a	5f		 pop	 edi
  0036b	5e		 pop	 esi
  0036c	5b		 pop	 ebx
  0036d	8b e5		 mov	 esp, ebp
  0036f	5d		 pop	 ebp
  00370	c3		 ret	 0
?update_virtual_cockpit_track_target_view@@YGXXZ ENDP	; update_virtual_cockpit_track_target_view
_TEXT	ENDS
; Function compile flags: /Odtp /ZI
; File c:\users\nhv90\projects\eech\aphavoc\source\gunships\views\vm_vckpt.c
;	COMDAT ?update_virtual_cockpit_view@@YGXXZ
_TEXT	SEGMENT
tv249 = -144						; size = 4
tv238 = -144						; size = 4
$T1 = -140						; size = 4
$T2 = -136						; size = 4
$T3 = -132						; size = 4
$T4 = -128						; size = 4
$T5 = -124						; size = 4
$T6 = -120						; size = 4
$T7 = -116						; size = 4
$T8 = -112						; size = 4
$T9 = -108						; size = 4
$T10 = -104						; size = 4
$T11 = -100						; size = 4
$T12 = -96						; size = 4
_dp$13 = -28						; size = 4
_dh$14 = -24						; size = 4
_temp_h$15 = -20					; size = 4
_temp_p$16 = -16					; size = 4
_pos$17 = -12						; size = 4
_stp$18 = -8						; size = 4
_ROTATE_RATE$ = -4					; size = 4
?update_virtual_cockpit_view@@YGXXZ PROC		; update_virtual_cockpit_view, COMDAT

; 668  : {

  00000	55		 push	 ebp
  00001	8b ec		 mov	 ebp, esp
  00003	81 ec 90 00 00
	00		 sub	 esp, 144		; 00000090H
  00009	53		 push	 ebx
  0000a	56		 push	 esi
  0000b	57		 push	 edi

; 669  : 	float
; 670  : 		ROTATE_RATE;
; 671  : 
; 672  : 	ROTATE_RATE = (float) command_line_mouse_look_speed / 6.0; // Jabberwock 031016 - variable POV speed

  0000c	f3 0f 2a 05 00
	00 00 00	 cvtsi2ss xmm0, DWORD PTR ?command_line_mouse_look_speed@@3HA ; command_line_mouse_look_speed
  00014	f3 0f 5a c0	 cvtss2sd xmm0, xmm0
  00018	f2 0f 5e 05 00
	00 00 00	 divsd	 xmm0, QWORD PTR __real@4018000000000000
  00020	f2 0f 5a c0	 cvtsd2ss xmm0, xmm0
  00024	f3 0f 11 45 fc	 movss	 DWORD PTR _ROTATE_RATE$[ebp], xmm0

; 673  : 
; 674  : 	// lfriembichler 030317 start
; 675  : 	// enabled panning by mouse/trackir
; 676  : 	// trackir only works with mousepanning enabled AND the naturalpoint window
; 677  : 	// loaded BEFORE EECH is started !
; 678  : 	// changes for fov control thealx 130212
; 679  : 
; 680  : 		if (command_line_joylook_joystick_index != -1) // Jabberwock 030311 Joystick look

  00029	83 3d 00 00 00
	00 ff		 cmp	 DWORD PTR ?command_line_joylook_joystick_index@@3HA, -1 ; command_line_joylook_joystick_index
  00030	0f 84 2e 01 00
	00		 je	 $LN2@update_vir

; 681  : 		{
; 682  : 			float
; 683  : 				stp,
; 684  : 				pos;
; 685  : 
; 686  : 			stp = (float) command_line_joylook_step / 1000.0;

  00036	f3 0f 2a 05 00
	00 00 00	 cvtsi2ss xmm0, DWORD PTR ?command_line_joylook_step@@3HA ; command_line_joylook_step
  0003e	f3 0f 5a c0	 cvtss2sd xmm0, xmm0
  00042	f2 0f 5e 05 00
	00 00 00	 divsd	 xmm0, QWORD PTR __real@408f400000000000
  0004a	f2 0f 5a c0	 cvtsd2ss xmm0, xmm0
  0004e	f3 0f 11 45 f8	 movss	 DWORD PTR _stp$18[ebp], xmm0

; 687  : 
; 688  : 			pos = (float) get_joystick_axis (command_line_joylook_joystick_index, command_line_joylookh_joystick_axis);

  00053	a1 00 00 00 00	 mov	 eax, DWORD PTR ?command_line_joylookh_joystick_axis@@3HA ; command_line_joylookh_joystick_axis
  00058	50		 push	 eax
  00059	8b 0d 00 00 00
	00		 mov	 ecx, DWORD PTR ?command_line_joylook_joystick_index@@3HA ; command_line_joylook_joystick_index
  0005f	51		 push	 ecx
  00060	e8 00 00 00 00	 call	 ?get_joystick_axis@@YGHHH@Z ; get_joystick_axis
  00065	f3 0f 2a c0	 cvtsi2ss xmm0, eax
  00069	f3 0f 11 45 f4	 movss	 DWORD PTR _pos$17[ebp], xmm0

; 689  : 
; 690  : 			pos = ((get_rotate_right_limit ()) * pos) / 10000.0;

  0006e	e8 00 00 00 00	 call	 ?get_rotate_right_limit@@YGMXZ ; get_rotate_right_limit
  00073	d9 9d 70 ff ff
	ff		 fstp	 DWORD PTR tv238[ebp]
  00079	f3 0f 10 85 70
	ff ff ff	 movss	 xmm0, DWORD PTR tv238[ebp]
  00081	f3 0f 59 45 f4	 mulss	 xmm0, DWORD PTR _pos$17[ebp]
  00086	f3 0f 5a c0	 cvtss2sd xmm0, xmm0
  0008a	f2 0f 5e 05 00
	00 00 00	 divsd	 xmm0, QWORD PTR __real@40c3880000000000
  00092	f2 0f 5a c0	 cvtsd2ss xmm0, xmm0
  00096	f3 0f 11 45 f4	 movss	 DWORD PTR _pos$17[ebp], xmm0

; 691  : 
; 692  : 			if (((pilot_head_heading - (pos)) > stp) || ((pilot_head_heading - (pos) < -stp)))

  0009b	f3 0f 10 05 00
	00 00 00	 movss	 xmm0, DWORD PTR ?pilot_head_heading@@3MA
  000a3	f3 0f 5c 45 f4	 subss	 xmm0, DWORD PTR _pos$17[ebp]
  000a8	0f 2f 45 f8	 comiss	 xmm0, DWORD PTR _stp$18[ebp]
  000ac	77 1e		 ja	 SHORT $LN5@update_vir
  000ae	f3 0f 10 05 00
	00 00 00	 movss	 xmm0, DWORD PTR ?pilot_head_heading@@3MA
  000b6	f3 0f 5c 45 f4	 subss	 xmm0, DWORD PTR _pos$17[ebp]
  000bb	f3 0f 10 4d f8	 movss	 xmm1, DWORD PTR _stp$18[ebp]
  000c0	0f 57 0d 00 00
	00 00		 xorps	 xmm1, DWORD PTR __xmm@80000000800000008000000080000000
  000c7	0f 2f c8	 comiss	 xmm1, xmm0
  000ca	76 0d		 jbe	 SHORT $LN4@update_vir
$LN5@update_vir:

; 693  : 			{
; 694  : 				pilot_head_heading = (pos);

  000cc	f3 0f 10 45 f4	 movss	 xmm0, DWORD PTR _pos$17[ebp]
  000d1	f3 0f 11 05 00
	00 00 00	 movss	 DWORD PTR ?pilot_head_heading@@3MA, xmm0
$LN4@update_vir:

; 695  : 			}
; 696  : 
; 697  : 			pos = (float) get_joystick_axis (command_line_joylook_joystick_index, command_line_joylookv_joystick_axis);

  000d9	a1 00 00 00 00	 mov	 eax, DWORD PTR ?command_line_joylookv_joystick_axis@@3HA ; command_line_joylookv_joystick_axis
  000de	50		 push	 eax
  000df	8b 0d 00 00 00
	00		 mov	 ecx, DWORD PTR ?command_line_joylook_joystick_index@@3HA ; command_line_joylook_joystick_index
  000e5	51		 push	 ecx
  000e6	e8 00 00 00 00	 call	 ?get_joystick_axis@@YGHHH@Z ; get_joystick_axis
  000eb	f3 0f 2a c0	 cvtsi2ss xmm0, eax
  000ef	f3 0f 11 45 f4	 movss	 DWORD PTR _pos$17[ebp], xmm0

; 698  : 
; 699  : 			pos = (get_rotate_up_limit ()) * pos / 10000.0;

  000f4	e8 00 00 00 00	 call	 ?get_rotate_up_limit@@YGMXZ ; get_rotate_up_limit
  000f9	d9 9d 70 ff ff
	ff		 fstp	 DWORD PTR tv249[ebp]
  000ff	f3 0f 10 85 70
	ff ff ff	 movss	 xmm0, DWORD PTR tv249[ebp]
  00107	f3 0f 59 45 f4	 mulss	 xmm0, DWORD PTR _pos$17[ebp]
  0010c	f3 0f 5a c0	 cvtss2sd xmm0, xmm0
  00110	f2 0f 5e 05 00
	00 00 00	 divsd	 xmm0, QWORD PTR __real@40c3880000000000
  00118	f2 0f 5a c0	 cvtsd2ss xmm0, xmm0
  0011c	f3 0f 11 45 f4	 movss	 DWORD PTR _pos$17[ebp], xmm0

; 700  : 
; 701  : 			if (((pilot_head_pitch - (pos)) > stp) || ((pilot_head_pitch - (pos)) < -stp))

  00121	f3 0f 10 05 00
	00 00 00	 movss	 xmm0, DWORD PTR ?pilot_head_pitch@@3MA
  00129	f3 0f 5c 45 f4	 subss	 xmm0, DWORD PTR _pos$17[ebp]
  0012e	0f 2f 45 f8	 comiss	 xmm0, DWORD PTR _stp$18[ebp]
  00132	77 1e		 ja	 SHORT $LN7@update_vir
  00134	f3 0f 10 05 00
	00 00 00	 movss	 xmm0, DWORD PTR ?pilot_head_pitch@@3MA
  0013c	f3 0f 5c 45 f4	 subss	 xmm0, DWORD PTR _pos$17[ebp]
  00141	f3 0f 10 4d f8	 movss	 xmm1, DWORD PTR _stp$18[ebp]
  00146	0f 57 0d 00 00
	00 00		 xorps	 xmm1, DWORD PTR __xmm@80000000800000008000000080000000
  0014d	0f 2f c8	 comiss	 xmm1, xmm0
  00150	76 0d		 jbe	 SHORT $LN6@update_vir
$LN7@update_vir:

; 702  : 			{
; 703  : 				pilot_head_pitch = (pos);

  00152	f3 0f 10 45 f4	 movss	 xmm0, DWORD PTR _pos$17[ebp]
  00157	f3 0f 11 05 00
	00 00 00	 movss	 DWORD PTR ?pilot_head_pitch@@3MA, xmm0
$LN6@update_vir:

; 704  : 			}
; 705  : 		} // Jabberwock 030311 ends

  0015f	e9 bb 03 00 00	 jmp	 $LN22@update_vir
$LN2@update_vir:

; 706  : 
; 707  : 		else if ( (query_TIR_active () == TRUE) && (command_line_mouse_look != MOUSELOOK_EXTERNAL) )	// Use mouse/TIR, all by Retro 030317, 030318

  00164	e8 00 00 00 00	 call	 ?query_TIR_active@@YAHXZ ; query_TIR_active
  00169	83 f8 01	 cmp	 eax, 1
  0016c	0f 85 10 01 00
	00		 jne	 $LN8@update_vir
  00172	83 3d 00 00 00
	00 02		 cmp	 DWORD PTR ?command_line_mouse_look@@3HA, 2 ; command_line_mouse_look
  00179	0f 84 03 01 00
	00		 je	 $LN8@update_vir

; 708  : 		{
; 709  : 		
; 710  : 		float
; 711  : 			temp_p,
; 712  : 			temp_h;
; 713  : 		
; 714  : 			temp_p = TIR_GetPitch();

  0017f	e8 00 00 00 00	 call	 ?TIR_GetPitch@@YGMXZ	; TIR_GetPitch
  00184	d9 5d f0	 fstp	 DWORD PTR _temp_p$16[ebp]

; 715  : 			temp_h = TIR_GetYaw();

  00187	e8 00 00 00 00	 call	 ?TIR_GetYaw@@YGMXZ	; TIR_GetYaw
  0018c	d9 5d ec	 fstp	 DWORD PTR _temp_h$15[ebp]

; 716  : 
; 717  : 			temp_p = -45. * temp_p / 16383.;	// Those are the max-possible values as they are restriced above in this file

  0018f	f3 0f 5a 45 f0	 cvtss2sd xmm0, DWORD PTR _temp_p$16[ebp]
  00194	f2 0f 59 05 00
	00 00 00	 mulsd	 xmm0, QWORD PTR __real@c046800000000000
  0019c	f2 0f 5e 05 00
	00 00 00	 divsd	 xmm0, QWORD PTR __real@40cfff8000000000
  001a4	f2 0f 5a c0	 cvtsd2ss xmm0, xmm0
  001a8	f3 0f 11 45 f0	 movss	 DWORD PTR _temp_p$16[ebp], xmm0

; 718  : 			temp_h = MAX_LOOK_ANGLE_LEFT_RIGHT1 * temp_h / 16383.;

  001ad	f3 0f 5a 45 ec	 cvtss2sd xmm0, DWORD PTR _temp_h$15[ebp]
  001b2	f2 0f 59 05 00
	00 00 00	 mulsd	 xmm0, QWORD PTR __real@4060e00000000000
  001ba	f2 0f 5e 05 00
	00 00 00	 divsd	 xmm0, QWORD PTR __real@40cfff8000000000
  001c2	f2 0f 5a c0	 cvtsd2ss xmm0, xmm0
  001c6	f3 0f 11 45 ec	 movss	 DWORD PTR _temp_h$15[ebp], xmm0

; 719  : 
; 720  : 			pilot_head_pitch = rad(temp_p);

  001cb	f3 0f 10 45 f0	 movss	 xmm0, DWORD PTR _temp_p$16[ebp]
  001d0	f3 0f 59 05 00
	00 00 00	 mulss	 xmm0, DWORD PTR __real@3c8efa35
  001d8	f3 0f 11 05 00
	00 00 00	 movss	 DWORD PTR ?pilot_head_pitch@@3MA, xmm0

; 721  : 			pilot_head_heading = rad(temp_h);

  001e0	f3 0f 10 45 ec	 movss	 xmm0, DWORD PTR _temp_h$15[ebp]
  001e5	f3 0f 59 05 00
	00 00 00	 mulss	 xmm0, DWORD PTR __real@3c8efa35
  001ed	f3 0f 11 05 00
	00 00 00	 movss	 DWORD PTR ?pilot_head_heading@@3MA, xmm0

; 722  : 		
; 723  : 
; 724  : 			pilot_head_heading = min (get_rotate_left_limit (), pilot_head_heading);

  001f5	e8 00 00 00 00	 call	 ?get_rotate_left_limit@@YGMXZ ; get_rotate_left_limit
  001fa	d9 5d a0	 fstp	 DWORD PTR $T12[ebp]
  001fd	68 00 00 00 00	 push	 OFFSET ?pilot_head_heading@@3MA ; pilot_head_heading
  00202	8d 45 a0	 lea	 eax, DWORD PTR $T12[ebp]
  00205	50		 push	 eax
  00206	e8 00 00 00 00	 call	 ??$min@M@std@@YGABMABM0@Z ; std::min<float>
  0020b	f3 0f 10 00	 movss	 xmm0, DWORD PTR [eax]
  0020f	f3 0f 11 05 00
	00 00 00	 movss	 DWORD PTR ?pilot_head_heading@@3MA, xmm0

; 725  : 			pilot_head_heading = max (get_rotate_right_limit (), pilot_head_heading);

  00217	e8 00 00 00 00	 call	 ?get_rotate_right_limit@@YGMXZ ; get_rotate_right_limit
  0021c	d9 5d 9c	 fstp	 DWORD PTR $T11[ebp]
  0021f	68 00 00 00 00	 push	 OFFSET ?pilot_head_heading@@3MA ; pilot_head_heading
  00224	8d 45 9c	 lea	 eax, DWORD PTR $T11[ebp]
  00227	50		 push	 eax
  00228	e8 00 00 00 00	 call	 ??$max@M@std@@YGABMABM0@Z ; std::max<float>
  0022d	f3 0f 10 00	 movss	 xmm0, DWORD PTR [eax]
  00231	f3 0f 11 05 00
	00 00 00	 movss	 DWORD PTR ?pilot_head_heading@@3MA, xmm0

; 726  : 
; 727  : 			pilot_head_pitch = min (get_rotate_up_limit (), pilot_head_pitch);

  00239	e8 00 00 00 00	 call	 ?get_rotate_up_limit@@YGMXZ ; get_rotate_up_limit
  0023e	d9 5d 98	 fstp	 DWORD PTR $T10[ebp]
  00241	68 00 00 00 00	 push	 OFFSET ?pilot_head_pitch@@3MA ; pilot_head_pitch
  00246	8d 45 98	 lea	 eax, DWORD PTR $T10[ebp]
  00249	50		 push	 eax
  0024a	e8 00 00 00 00	 call	 ??$min@M@std@@YGABMABM0@Z ; std::min<float>
  0024f	f3 0f 10 00	 movss	 xmm0, DWORD PTR [eax]
  00253	f3 0f 11 05 00
	00 00 00	 movss	 DWORD PTR ?pilot_head_pitch@@3MA, xmm0

; 728  : 			pilot_head_pitch = max (get_rotate_down_limit (), pilot_head_pitch);

  0025b	e8 00 00 00 00	 call	 ?get_rotate_down_limit@@YGMXZ ; get_rotate_down_limit
  00260	d9 5d 94	 fstp	 DWORD PTR $T9[ebp]
  00263	68 00 00 00 00	 push	 OFFSET ?pilot_head_pitch@@3MA ; pilot_head_pitch
  00268	8d 45 94	 lea	 eax, DWORD PTR $T9[ebp]
  0026b	50		 push	 eax
  0026c	e8 00 00 00 00	 call	 ??$max@M@std@@YGABMABM0@Z ; std::max<float>
  00271	f3 0f 10 00	 movss	 xmm0, DWORD PTR [eax]
  00275	f3 0f 11 05 00
	00 00 00	 movss	 DWORD PTR ?pilot_head_pitch@@3MA, xmm0
  0027d	e9 9d 02 00 00	 jmp	 $LN22@update_vir
$LN8@update_vir:

; 729  : 		} // end Retro 030317
; 730  : 	
; 731  : 		else if ( command_line_mouse_look  == MOUSELOOK_ON )

  00282	83 3d 00 00 00
	00 03		 cmp	 DWORD PTR ?command_line_mouse_look@@3HA, 3 ; command_line_mouse_look
  00289	0f 85 21 01 00
	00		 jne	 $LN10@update_vir

; 732  : 		{
; 733  : 			
; 734  : 			static int previous_mouse_update_flag = 1;
; 735  : 			float dh, dp;
; 736  : 
; 737  : 			if (previous_mouse_update_flag != get_mouse_update_flag())

  0028f	e8 00 00 00 00	 call	 ?get_mouse_update_flag@@YGHXZ ; get_mouse_update_flag
  00294	39 05 00 00 00
	00		 cmp	 DWORD PTR ?previous_mouse_update_flag@?BD@??update_virtual_cockpit_view@@YGXXZ@4HA, eax
  0029a	0f 84 83 00 00
	00		 je	 $LN12@update_vir

; 738  : 			{
; 739  : 				dh = get_mouse_move_delta_x() * -MAX_LOOK_ANGLE_LEFT_RIGHT1 / 8000.0;

  002a0	e8 00 00 00 00	 call	 ?get_mouse_move_delta_x@@YGHXZ ; get_mouse_move_delta_x
  002a5	f2 0f 2a c0	 cvtsi2sd xmm0, eax
  002a9	f2 0f 59 05 00
	00 00 00	 mulsd	 xmm0, QWORD PTR __real@c060e00000000000
  002b1	f2 0f 5e 05 00
	00 00 00	 divsd	 xmm0, QWORD PTR __real@40bf400000000000
  002b9	f2 0f 5a c0	 cvtsd2ss xmm0, xmm0
  002bd	f3 0f 11 45 e8	 movss	 DWORD PTR _dh$14[ebp], xmm0

; 740  : 				dp = get_mouse_move_delta_y() * -45 / 8000.0;

  002c2	e8 00 00 00 00	 call	 ?get_mouse_move_delta_y@@YGHXZ ; get_mouse_move_delta_y
  002c7	6b c0 d3	 imul	 eax, eax, -45
  002ca	f2 0f 2a c0	 cvtsi2sd xmm0, eax
  002ce	f2 0f 5e 05 00
	00 00 00	 divsd	 xmm0, QWORD PTR __real@40bf400000000000
  002d6	f2 0f 5a c0	 cvtsd2ss xmm0, xmm0
  002da	f3 0f 11 45 e4	 movss	 DWORD PTR _dp$13[ebp], xmm0

; 741  : 
; 742  : 				previous_mouse_update_flag = get_mouse_update_flag();

  002df	e8 00 00 00 00	 call	 ?get_mouse_update_flag@@YGHXZ ; get_mouse_update_flag
  002e4	a3 00 00 00 00	 mov	 DWORD PTR ?previous_mouse_update_flag@?BD@??update_virtual_cockpit_view@@YGXXZ@4HA, eax

; 743  : 
; 744  : 				pilot_head_heading += rad(dh);

  002e9	f3 0f 10 45 e8	 movss	 xmm0, DWORD PTR _dh$14[ebp]
  002ee	f3 0f 59 05 00
	00 00 00	 mulss	 xmm0, DWORD PTR __real@3c8efa35
  002f6	f3 0f 58 05 00
	00 00 00	 addss	 xmm0, DWORD PTR ?pilot_head_heading@@3MA
  002fe	f3 0f 11 05 00
	00 00 00	 movss	 DWORD PTR ?pilot_head_heading@@3MA, xmm0

; 745  : 				pilot_head_pitch += rad(dp);

  00306	f3 0f 10 45 e4	 movss	 xmm0, DWORD PTR _dp$13[ebp]
  0030b	f3 0f 59 05 00
	00 00 00	 mulss	 xmm0, DWORD PTR __real@3c8efa35
  00313	f3 0f 58 05 00
	00 00 00	 addss	 xmm0, DWORD PTR ?pilot_head_pitch@@3MA
  0031b	f3 0f 11 05 00
	00 00 00	 movss	 DWORD PTR ?pilot_head_pitch@@3MA, xmm0
$LN12@update_vir:

; 746  : 			}
; 747  : 
; 748  : 			pilot_head_heading = min (get_rotate_left_limit (), pilot_head_heading);

  00323	e8 00 00 00 00	 call	 ?get_rotate_left_limit@@YGMXZ ; get_rotate_left_limit
  00328	d9 5d 90	 fstp	 DWORD PTR $T8[ebp]
  0032b	68 00 00 00 00	 push	 OFFSET ?pilot_head_heading@@3MA ; pilot_head_heading
  00330	8d 45 90	 lea	 eax, DWORD PTR $T8[ebp]
  00333	50		 push	 eax
  00334	e8 00 00 00 00	 call	 ??$min@M@std@@YGABMABM0@Z ; std::min<float>
  00339	f3 0f 10 00	 movss	 xmm0, DWORD PTR [eax]
  0033d	f3 0f 11 05 00
	00 00 00	 movss	 DWORD PTR ?pilot_head_heading@@3MA, xmm0

; 749  : 			pilot_head_heading = max (get_rotate_right_limit (), pilot_head_heading);

  00345	e8 00 00 00 00	 call	 ?get_rotate_right_limit@@YGMXZ ; get_rotate_right_limit
  0034a	d9 5d 8c	 fstp	 DWORD PTR $T7[ebp]
  0034d	68 00 00 00 00	 push	 OFFSET ?pilot_head_heading@@3MA ; pilot_head_heading
  00352	8d 45 8c	 lea	 eax, DWORD PTR $T7[ebp]
  00355	50		 push	 eax
  00356	e8 00 00 00 00	 call	 ??$max@M@std@@YGABMABM0@Z ; std::max<float>
  0035b	f3 0f 10 00	 movss	 xmm0, DWORD PTR [eax]
  0035f	f3 0f 11 05 00
	00 00 00	 movss	 DWORD PTR ?pilot_head_heading@@3MA, xmm0

; 750  : 
; 751  : 			pilot_head_pitch = min (get_rotate_up_limit (), pilot_head_pitch);

  00367	e8 00 00 00 00	 call	 ?get_rotate_up_limit@@YGMXZ ; get_rotate_up_limit
  0036c	d9 5d 88	 fstp	 DWORD PTR $T6[ebp]
  0036f	68 00 00 00 00	 push	 OFFSET ?pilot_head_pitch@@3MA ; pilot_head_pitch
  00374	8d 45 88	 lea	 eax, DWORD PTR $T6[ebp]
  00377	50		 push	 eax
  00378	e8 00 00 00 00	 call	 ??$min@M@std@@YGABMABM0@Z ; std::min<float>
  0037d	f3 0f 10 00	 movss	 xmm0, DWORD PTR [eax]
  00381	f3 0f 11 05 00
	00 00 00	 movss	 DWORD PTR ?pilot_head_pitch@@3MA, xmm0

; 752  : 			pilot_head_pitch = max (get_rotate_down_limit (), pilot_head_pitch);

  00389	e8 00 00 00 00	 call	 ?get_rotate_down_limit@@YGMXZ ; get_rotate_down_limit
  0038e	d9 5d 84	 fstp	 DWORD PTR $T5[ebp]
  00391	68 00 00 00 00	 push	 OFFSET ?pilot_head_pitch@@3MA ; pilot_head_pitch
  00396	8d 45 84	 lea	 eax, DWORD PTR $T5[ebp]
  00399	50		 push	 eax
  0039a	e8 00 00 00 00	 call	 ??$max@M@std@@YGABMABM0@Z ; std::max<float>
  0039f	f3 0f 10 00	 movss	 xmm0, DWORD PTR [eax]
  003a3	f3 0f 11 05 00
	00 00 00	 movss	 DWORD PTR ?pilot_head_pitch@@3MA, xmm0
  003ab	e9 6f 01 00 00	 jmp	 $LN22@update_vir
$LN10@update_vir:

; 753  : 		}
; 754  : 		
; 755  : 		else if ( command_line_mouse_look  != MOUSELOOK_ON )

  003b0	83 3d 00 00 00
	00 03		 cmp	 DWORD PTR ?command_line_mouse_look@@3HA, 3 ; command_line_mouse_look
  003b7	0f 84 62 01 00
	00		 je	 $LN22@update_vir

; 756  : 		{
; 757  : 		if (adjust_view_left_key || joystick_pov_left)

  003bd	83 3d 00 00 00
	00 00		 cmp	 DWORD PTR ?adjust_view_left_key@@3HA, 0 ; adjust_view_left_key
  003c4	75 09		 jne	 SHORT $LN16@update_vir
  003c6	83 3d 00 00 00
	00 00		 cmp	 DWORD PTR ?joystick_pov_left@@3HA, 0 ; joystick_pov_left
  003cd	74 41		 je	 SHORT $LN14@update_vir
$LN16@update_vir:

; 758  : 		{
; 759  : 			pilot_head_heading += ROTATE_RATE * get_delta_time ();

  003cf	f3 0f 10 45 fc	 movss	 xmm0, DWORD PTR _ROTATE_RATE$[ebp]
  003d4	f3 0f 59 05 00
	00 00 00	 mulss	 xmm0, DWORD PTR ?system_delta_time@@3MA
  003dc	f3 0f 58 05 00
	00 00 00	 addss	 xmm0, DWORD PTR ?pilot_head_heading@@3MA
  003e4	f3 0f 11 05 00
	00 00 00	 movss	 DWORD PTR ?pilot_head_heading@@3MA, xmm0

; 760  : 
; 761  : 			pilot_head_heading = min (get_rotate_left_limit (), pilot_head_heading);

  003ec	e8 00 00 00 00	 call	 ?get_rotate_left_limit@@YGMXZ ; get_rotate_left_limit
  003f1	d9 5d 80	 fstp	 DWORD PTR $T4[ebp]
  003f4	68 00 00 00 00	 push	 OFFSET ?pilot_head_heading@@3MA ; pilot_head_heading
  003f9	8d 45 80	 lea	 eax, DWORD PTR $T4[ebp]
  003fc	50		 push	 eax
  003fd	e8 00 00 00 00	 call	 ??$min@M@std@@YGABMABM0@Z ; std::min<float>
  00402	f3 0f 10 00	 movss	 xmm0, DWORD PTR [eax]
  00406	f3 0f 11 05 00
	00 00 00	 movss	 DWORD PTR ?pilot_head_heading@@3MA, xmm0
  0040e	eb 5b		 jmp	 SHORT $LN17@update_vir
$LN14@update_vir:

; 762  : 		}
; 763  : 		else if (adjust_view_right_key || joystick_pov_right)

  00410	83 3d 00 00 00
	00 00		 cmp	 DWORD PTR ?adjust_view_right_key@@3HA, 0 ; adjust_view_right_key
  00417	75 09		 jne	 SHORT $LN18@update_vir
  00419	83 3d 00 00 00
	00 00		 cmp	 DWORD PTR ?joystick_pov_right@@3HA, 0 ; joystick_pov_right
  00420	74 49		 je	 SHORT $LN17@update_vir
$LN18@update_vir:

; 764  : 		{
; 765  : 			pilot_head_heading -= ROTATE_RATE * get_delta_time ();

  00422	f3 0f 10 45 fc	 movss	 xmm0, DWORD PTR _ROTATE_RATE$[ebp]
  00427	f3 0f 59 05 00
	00 00 00	 mulss	 xmm0, DWORD PTR ?system_delta_time@@3MA
  0042f	f3 0f 10 0d 00
	00 00 00	 movss	 xmm1, DWORD PTR ?pilot_head_heading@@3MA
  00437	f3 0f 5c c8	 subss	 xmm1, xmm0
  0043b	f3 0f 11 0d 00
	00 00 00	 movss	 DWORD PTR ?pilot_head_heading@@3MA, xmm1

; 766  : 
; 767  : 			pilot_head_heading = max (get_rotate_right_limit (), pilot_head_heading);

  00443	e8 00 00 00 00	 call	 ?get_rotate_right_limit@@YGMXZ ; get_rotate_right_limit
  00448	d9 9d 7c ff ff
	ff		 fstp	 DWORD PTR $T3[ebp]
  0044e	68 00 00 00 00	 push	 OFFSET ?pilot_head_heading@@3MA ; pilot_head_heading
  00453	8d 85 7c ff ff
	ff		 lea	 eax, DWORD PTR $T3[ebp]
  00459	50		 push	 eax
  0045a	e8 00 00 00 00	 call	 ??$max@M@std@@YGABMABM0@Z ; std::max<float>
  0045f	f3 0f 10 00	 movss	 xmm0, DWORD PTR [eax]
  00463	f3 0f 11 05 00
	00 00 00	 movss	 DWORD PTR ?pilot_head_heading@@3MA, xmm0
$LN17@update_vir:

; 768  : 		}
; 769  : 
; 770  : 		if (adjust_view_up_key || joystick_pov_up)

  0046b	83 3d 00 00 00
	00 00		 cmp	 DWORD PTR ?adjust_view_up_key@@3HA, 0 ; adjust_view_up_key
  00472	75 09		 jne	 SHORT $LN21@update_vir
  00474	83 3d 00 00 00
	00 00		 cmp	 DWORD PTR ?joystick_pov_up@@3HA, 0 ; joystick_pov_up
  0047b	74 47		 je	 SHORT $LN19@update_vir
$LN21@update_vir:

; 771  : 		{
; 772  : 			pilot_head_pitch += ROTATE_RATE * get_delta_time ();

  0047d	f3 0f 10 45 fc	 movss	 xmm0, DWORD PTR _ROTATE_RATE$[ebp]
  00482	f3 0f 59 05 00
	00 00 00	 mulss	 xmm0, DWORD PTR ?system_delta_time@@3MA
  0048a	f3 0f 58 05 00
	00 00 00	 addss	 xmm0, DWORD PTR ?pilot_head_pitch@@3MA
  00492	f3 0f 11 05 00
	00 00 00	 movss	 DWORD PTR ?pilot_head_pitch@@3MA, xmm0

; 773  : 
; 774  : 			pilot_head_pitch = min (get_rotate_up_limit (), pilot_head_pitch);

  0049a	e8 00 00 00 00	 call	 ?get_rotate_up_limit@@YGMXZ ; get_rotate_up_limit
  0049f	d9 9d 78 ff ff
	ff		 fstp	 DWORD PTR $T2[ebp]
  004a5	68 00 00 00 00	 push	 OFFSET ?pilot_head_pitch@@3MA ; pilot_head_pitch
  004aa	8d 85 78 ff ff
	ff		 lea	 eax, DWORD PTR $T2[ebp]
  004b0	50		 push	 eax
  004b1	e8 00 00 00 00	 call	 ??$min@M@std@@YGABMABM0@Z ; std::min<float>
  004b6	f3 0f 10 00	 movss	 xmm0, DWORD PTR [eax]
  004ba	f3 0f 11 05 00
	00 00 00	 movss	 DWORD PTR ?pilot_head_pitch@@3MA, xmm0
  004c2	eb 5b		 jmp	 SHORT $LN22@update_vir
$LN19@update_vir:

; 775  : 		}
; 776  : 		else if (adjust_view_down_key || joystick_pov_down)

  004c4	83 3d 00 00 00
	00 00		 cmp	 DWORD PTR ?adjust_view_down_key@@3HA, 0 ; adjust_view_down_key
  004cb	75 09		 jne	 SHORT $LN23@update_vir
  004cd	83 3d 00 00 00
	00 00		 cmp	 DWORD PTR ?joystick_pov_down@@3HA, 0 ; joystick_pov_down
  004d4	74 49		 je	 SHORT $LN22@update_vir
$LN23@update_vir:

; 777  : 		{
; 778  : 			pilot_head_pitch -= (ROTATE_RATE * get_delta_time ());

  004d6	f3 0f 10 45 fc	 movss	 xmm0, DWORD PTR _ROTATE_RATE$[ebp]
  004db	f3 0f 59 05 00
	00 00 00	 mulss	 xmm0, DWORD PTR ?system_delta_time@@3MA
  004e3	f3 0f 10 0d 00
	00 00 00	 movss	 xmm1, DWORD PTR ?pilot_head_pitch@@3MA
  004eb	f3 0f 5c c8	 subss	 xmm1, xmm0
  004ef	f3 0f 11 0d 00
	00 00 00	 movss	 DWORD PTR ?pilot_head_pitch@@3MA, xmm1

; 779  : 
; 780  : 			pilot_head_pitch = max (get_rotate_down_limit (), pilot_head_pitch);

  004f7	e8 00 00 00 00	 call	 ?get_rotate_down_limit@@YGMXZ ; get_rotate_down_limit
  004fc	d9 9d 74 ff ff
	ff		 fstp	 DWORD PTR $T1[ebp]
  00502	68 00 00 00 00	 push	 OFFSET ?pilot_head_pitch@@3MA ; pilot_head_pitch
  00507	8d 85 74 ff ff
	ff		 lea	 eax, DWORD PTR $T1[ebp]
  0050d	50		 push	 eax
  0050e	e8 00 00 00 00	 call	 ??$max@M@std@@YGABMABM0@Z ; std::max<float>
  00513	f3 0f 10 00	 movss	 xmm0, DWORD PTR [eax]
  00517	f3 0f 11 05 00
	00 00 00	 movss	 DWORD PTR ?pilot_head_pitch@@3MA, xmm0
$LN22@update_vir:

; 781  : 		}
; 782  : 		}
; 783  : 	
; 784  : 
; 785  : }

  0051f	5f		 pop	 edi
  00520	5e		 pop	 esi
  00521	5b		 pop	 ebx
  00522	8b e5		 mov	 esp, ebp
  00524	5d		 pop	 ebp
  00525	c3		 ret	 0
?update_virtual_cockpit_view@@YGXXZ ENDP		; update_virtual_cockpit_view
_TEXT	ENDS
; Function compile flags: /Odtp /ZI
; File c:\users\nhv90\projects\eech\aphavoc\source\gunships\views\vm_vckpt.c
;	COMDAT ?deinitialise_virtual_cockpit_view@@YGXXZ
_TEXT	SEGMENT
?deinitialise_virtual_cockpit_view@@YGXXZ PROC		; deinitialise_virtual_cockpit_view, COMDAT

; 652  : {

  00000	55		 push	 ebp
  00001	8b ec		 mov	 ebp, esp
  00003	83 ec 40	 sub	 esp, 64			; 00000040H
  00006	53		 push	 ebx
  00007	56		 push	 esi
  00008	57		 push	 edi

; 653  : 	//
; 654  : 	// padlock
; 655  : 	//
; 656  : 
; 657  : 	if (get_gunship_entity ())

  00009	83 3d 00 00 00
	00 00		 cmp	 DWORD PTR ?gunship_entity@@3PAUENTITY@@A, 0 ; gunship_entity
  00010	74 0d		 je	 SHORT $LN1@deinitiali

; 658  : 	{
; 659  : 		unlink_local_entity_children (get_gunship_entity (), LIST_TYPE_PADLOCK);

  00012	6a 1b		 push	 27			; 0000001bH
  00014	a1 00 00 00 00	 mov	 eax, DWORD PTR ?gunship_entity@@3PAUENTITY@@A ; gunship_entity
  00019	50		 push	 eax
  0001a	e8 00 00 00 00	 call	 ?unlink_local_entity_children@@YGXPAUENTITY@@W4LIST_TYPES@@@Z ; unlink_local_entity_children
$LN1@deinitiali:

; 660  : 	}
; 661  : }

  0001f	5f		 pop	 edi
  00020	5e		 pop	 esi
  00021	5b		 pop	 ebx
  00022	8b e5		 mov	 esp, ebp
  00024	5d		 pop	 ebp
  00025	c3		 ret	 0
?deinitialise_virtual_cockpit_view@@YGXXZ ENDP		; deinitialise_virtual_cockpit_view
_TEXT	ENDS
; Function compile flags: /Odtp /ZI
; File c:\users\nhv90\projects\eech\aphavoc\source\gunships\views\vm_vckpt.c
;	COMDAT ?reinitialise_virtual_cockpit_view@@YGXXZ
_TEXT	SEGMENT
tv68 = -68						; size = 4
?reinitialise_virtual_cockpit_view@@YGXXZ PROC		; reinitialise_virtual_cockpit_view, COMDAT

; 604  : {

  00000	55		 push	 ebp
  00001	8b ec		 mov	 ebp, esp
  00003	83 ec 44	 sub	 esp, 68			; 00000044H
  00006	53		 push	 ebx
  00007	56		 push	 esi
  00008	57		 push	 edi

; 605  : 	pilot_head_vp.position.x = MID_MAP_X;

  00009	f3 0f 10 05 30
	00 00 00	 movss	 xmm0, DWORD PTR ?world_map@@3UWORLD_MAP_DATA@@A+48
  00011	f3 0f 11 05 00
	00 00 00	 movss	 DWORD PTR ?pilot_head_vp@@3UVIEWPOINT@@A, xmm0

; 606  : 	pilot_head_vp.position.y = MID_MAP_Y;

  00019	f3 0f 10 05 34
	00 00 00	 movss	 xmm0, DWORD PTR ?world_map@@3UWORLD_MAP_DATA@@A+52
  00021	f3 0f 11 05 04
	00 00 00	 movss	 DWORD PTR ?pilot_head_vp@@3UVIEWPOINT@@A+4, xmm0

; 607  : 	pilot_head_vp.position.z = MID_MAP_Z;

  00029	f3 0f 10 05 38
	00 00 00	 movss	 xmm0, DWORD PTR ?world_map@@3UWORLD_MAP_DATA@@A+56
  00031	f3 0f 11 05 08
	00 00 00	 movss	 DWORD PTR ?pilot_head_vp@@3UVIEWPOINT@@A+8, xmm0

; 608  : 
; 609  : 	get_identity_matrix3x3 (pilot_head_vp.attitude);

  00039	68 0c 00 00 00	 push	 OFFSET ?pilot_head_vp@@3UVIEWPOINT@@A+12
  0003e	e8 00 00 00 00	 call	 ?get_identity_matrix3x3@@YGXQAY02M@Z ; get_identity_matrix3x3

; 610  : 
; 611  : 	//
; 612  : 	// stored values
; 613  : 	//
; 614  : 
; 615  : 	stored_pilot_head_heading = rad (0.0);

  00043	0f 57 c0	 xorps	 xmm0, xmm0
  00046	f3 0f 11 05 00
	00 00 00	 movss	 DWORD PTR ?stored_pilot_head_heading@@3MA, xmm0

; 616  : 	stored_pilot_head_pitch = rad (0.0);

  0004e	0f 57 c0	 xorps	 xmm0, xmm0
  00051	f3 0f 11 05 00
	00 00 00	 movss	 DWORD PTR ?stored_pilot_head_pitch@@3MA, xmm0

; 617  : 
; 618  : 	stored_co_pilot_head_heading = rad (0.0);

  00059	0f 57 c0	 xorps	 xmm0, xmm0
  0005c	f3 0f 11 05 00
	00 00 00	 movss	 DWORD PTR ?stored_co_pilot_head_heading@@3MA, xmm0

; 619  : 	stored_co_pilot_head_pitch = rad (0.0);

  00064	0f 57 c0	 xorps	 xmm0, xmm0
  00067	f3 0f 11 05 00
	00 00 00	 movss	 DWORD PTR ?stored_co_pilot_head_pitch@@3MA, xmm0

; 620  : 
; 621  : 	stored_pilot_view_mode = VIEW_MODE_VIRTUAL_COCKPIT;

  0006f	c7 05 00 00 00
	00 20 00 00 00	 mov	 DWORD PTR ?stored_pilot_view_mode@@3W4VIEW_MODES@@A, 32 ; stored_pilot_view_mode, 00000020H

; 622  : 	stored_co_pilot_view_mode = VIEW_MODE_VIRTUAL_COCKPIT;

  00079	c7 05 00 00 00
	00 20 00 00 00	 mov	 DWORD PTR ?stored_co_pilot_view_mode@@3W4VIEW_MODES@@A, 32 ; stored_co_pilot_view_mode, 00000020H

; 623  : 
; 624  : 	stored_pilot_padlock_mode = PADLOCK_MODE_NONE;

  00083	c7 05 00 00 00
	00 00 00 00 00	 mov	 DWORD PTR ?stored_pilot_padlock_mode@@3W4PADLOCK_MODES@@A, 0 ; stored_pilot_padlock_mode

; 625  : 	stored_co_pilot_padlock_mode = PADLOCK_MODE_NONE;

  0008d	c7 05 00 00 00
	00 00 00 00 00	 mov	 DWORD PTR ?stored_co_pilot_padlock_mode@@3W4PADLOCK_MODES@@A, 0 ; stored_co_pilot_padlock_mode

; 626  : 
; 627  : 	//
; 628  : 	// padlock
; 629  : 	//
; 630  : 
; 631  : 	if (get_gunship_entity ())

  00097	83 3d 00 00 00
	00 00		 cmp	 DWORD PTR ?gunship_entity@@3PAUENTITY@@A, 0 ; gunship_entity
  0009e	74 5d		 je	 SHORT $LN2@reinitiali

; 632  : 	{
; 633  : 		unlink_local_entity_children (get_gunship_entity (), LIST_TYPE_PADLOCK);

  000a0	6a 1b		 push	 27			; 0000001bH
  000a2	a1 00 00 00 00	 mov	 eax, DWORD PTR ?gunship_entity@@3PAUENTITY@@A ; gunship_entity
  000a7	50		 push	 eax
  000a8	e8 00 00 00 00	 call	 ?unlink_local_entity_children@@YGXPAUENTITY@@W4LIST_TYPES@@@Z ; unlink_local_entity_children

; 634  : 
; 635  : 		switch (get_global_gunship_type())

  000ad	a1 0c 00 00 00	 mov	 eax, DWORD PTR ?global_options@@3UGLOBAL_OPTIONS_DATA@@A+12
  000b2	89 45 bc	 mov	 DWORD PTR tv68[ebp], eax
  000b5	83 7d bc 00	 cmp	 DWORD PTR tv68[ebp], 0
  000b9	74 02		 je	 SHORT $LN5@reinitiali
  000bb	eb 40		 jmp	 SHORT $LN2@reinitiali
$LN5@reinitiali:

; 636  : 		{
; 637  : 		case GUNSHIP_TYPE_APACHE:
; 638  : 			stored_pilot_head_pitch = rad(wide_cockpit_position[WIDEVIEW_APACHE_PILOT].c.p);

  000bd	b8 24 00 00 00	 mov	 eax, 36			; 00000024H
  000c2	c1 e0 02	 shl	 eax, 2
  000c5	f3 0f 10 80 20
	00 00 00	 movss	 xmm0, DWORD PTR ?wide_cockpit_position@@3PAUCOCKPIT_POSITION@@A[eax+32]
  000cd	f3 0f 59 05 00
	00 00 00	 mulss	 xmm0, DWORD PTR __real@3c8efa35
  000d5	f3 0f 11 05 00
	00 00 00	 movss	 DWORD PTR ?stored_pilot_head_pitch@@3MA, xmm0

; 639  : 			stored_co_pilot_head_pitch = rad(wide_cockpit_position[WIDEVIEW_APACHE_COPILOT].c.p);

  000dd	b8 24 00 00 00	 mov	 eax, 36			; 00000024H
  000e2	6b c8 05	 imul	 ecx, eax, 5
  000e5	f3 0f 10 81 20
	00 00 00	 movss	 xmm0, DWORD PTR ?wide_cockpit_position@@3PAUCOCKPIT_POSITION@@A[ecx+32]
  000ed	f3 0f 59 05 00
	00 00 00	 mulss	 xmm0, DWORD PTR __real@3c8efa35
  000f5	f3 0f 11 05 00
	00 00 00	 movss	 DWORD PTR ?stored_co_pilot_head_pitch@@3MA, xmm0
$LN2@reinitiali:

; 640  : 			break;
; 641  : 		}
; 642  : 	}
; 643  : 
; 644  : 	padlock_mode = PADLOCK_MODE_NONE;

  000fd	c7 05 00 00 00
	00 00 00 00 00	 mov	 DWORD PTR ?padlock_mode@@3W4PADLOCK_MODES@@A, 0

; 645  : }

  00107	5f		 pop	 edi
  00108	5e		 pop	 esi
  00109	5b		 pop	 ebx
  0010a	8b e5		 mov	 esp, ebp
  0010c	5d		 pop	 ebp
  0010d	c3		 ret	 0
?reinitialise_virtual_cockpit_view@@YGXXZ ENDP		; reinitialise_virtual_cockpit_view
_TEXT	ENDS
; Function compile flags: /Odtp /ZI
; File c:\users\nhv90\projects\eech\aphavoc\source\gunships\views\vm_vckpt.c
;	COMDAT ?initialise_virtual_cockpit_view@@YGXXZ
_TEXT	SEGMENT
?initialise_virtual_cockpit_view@@YGXXZ PROC		; initialise_virtual_cockpit_view, COMDAT

; 564  : {

  00000	55		 push	 ebp
  00001	8b ec		 mov	 ebp, esp
  00003	83 ec 40	 sub	 esp, 64			; 00000040H
  00006	53		 push	 ebx
  00007	56		 push	 esi
  00008	57		 push	 edi

; 565  : 	pilot_head_vp.position.x = MID_MAP_X;

  00009	f3 0f 10 05 30
	00 00 00	 movss	 xmm0, DWORD PTR ?world_map@@3UWORLD_MAP_DATA@@A+48
  00011	f3 0f 11 05 00
	00 00 00	 movss	 DWORD PTR ?pilot_head_vp@@3UVIEWPOINT@@A, xmm0

; 566  : 	pilot_head_vp.position.y = MID_MAP_Y;

  00019	f3 0f 10 05 34
	00 00 00	 movss	 xmm0, DWORD PTR ?world_map@@3UWORLD_MAP_DATA@@A+52
  00021	f3 0f 11 05 04
	00 00 00	 movss	 DWORD PTR ?pilot_head_vp@@3UVIEWPOINT@@A+4, xmm0

; 567  : 	pilot_head_vp.position.z = MID_MAP_Z;

  00029	f3 0f 10 05 38
	00 00 00	 movss	 xmm0, DWORD PTR ?world_map@@3UWORLD_MAP_DATA@@A+56
  00031	f3 0f 11 05 08
	00 00 00	 movss	 DWORD PTR ?pilot_head_vp@@3UVIEWPOINT@@A+8, xmm0

; 568  : 
; 569  : 	current_custom_cockpit_viewpoint.x = 0.0;

  00039	0f 57 c0	 xorps	 xmm0, xmm0
  0003c	f3 0f 11 05 00
	00 00 00	 movss	 DWORD PTR ?current_custom_cockpit_viewpoint@@3UCOCKPIT_VIEW@@A, xmm0

; 570  : 	current_custom_cockpit_viewpoint.y = 0.0;

  00044	0f 57 c0	 xorps	 xmm0, xmm0
  00047	f3 0f 11 05 04
	00 00 00	 movss	 DWORD PTR ?current_custom_cockpit_viewpoint@@3UCOCKPIT_VIEW@@A+4, xmm0

; 571  : 	current_custom_cockpit_viewpoint.z = 0.0;

  0004f	0f 57 c0	 xorps	 xmm0, xmm0
  00052	f3 0f 11 05 08
	00 00 00	 movss	 DWORD PTR ?current_custom_cockpit_viewpoint@@3UCOCKPIT_VIEW@@A+8, xmm0

; 572  : 
; 573  : 
; 574  : 	get_identity_matrix3x3 (pilot_head_vp.attitude);

  0005a	68 0c 00 00 00	 push	 OFFSET ?pilot_head_vp@@3UVIEWPOINT@@A+12
  0005f	e8 00 00 00 00	 call	 ?get_identity_matrix3x3@@YGXQAY02M@Z ; get_identity_matrix3x3

; 575  : 
; 576  : 	//
; 577  : 	// stored values
; 578  : 	//
; 579  : 
; 580  : 	stored_pilot_head_heading = rad (0.0);

  00064	0f 57 c0	 xorps	 xmm0, xmm0
  00067	f3 0f 11 05 00
	00 00 00	 movss	 DWORD PTR ?stored_pilot_head_heading@@3MA, xmm0

; 581  : 	stored_pilot_head_pitch = rad (0.0);

  0006f	0f 57 c0	 xorps	 xmm0, xmm0
  00072	f3 0f 11 05 00
	00 00 00	 movss	 DWORD PTR ?stored_pilot_head_pitch@@3MA, xmm0

; 582  : 
; 583  : 	stored_co_pilot_head_heading = rad (0.0);

  0007a	0f 57 c0	 xorps	 xmm0, xmm0
  0007d	f3 0f 11 05 00
	00 00 00	 movss	 DWORD PTR ?stored_co_pilot_head_heading@@3MA, xmm0

; 584  : 	stored_co_pilot_head_pitch = rad (0.0);

  00085	0f 57 c0	 xorps	 xmm0, xmm0
  00088	f3 0f 11 05 00
	00 00 00	 movss	 DWORD PTR ?stored_co_pilot_head_pitch@@3MA, xmm0

; 585  : 
; 586  : 	stored_pilot_view_mode = VIEW_MODE_VIRTUAL_COCKPIT;

  00090	c7 05 00 00 00
	00 20 00 00 00	 mov	 DWORD PTR ?stored_pilot_view_mode@@3W4VIEW_MODES@@A, 32 ; stored_pilot_view_mode, 00000020H

; 587  : 	stored_co_pilot_view_mode = VIEW_MODE_VIRTUAL_COCKPIT;

  0009a	c7 05 00 00 00
	00 20 00 00 00	 mov	 DWORD PTR ?stored_co_pilot_view_mode@@3W4VIEW_MODES@@A, 32 ; stored_co_pilot_view_mode, 00000020H

; 588  : 
; 589  : 	stored_pilot_padlock_mode = PADLOCK_MODE_NONE;

  000a4	c7 05 00 00 00
	00 00 00 00 00	 mov	 DWORD PTR ?stored_pilot_padlock_mode@@3W4PADLOCK_MODES@@A, 0 ; stored_pilot_padlock_mode

; 590  : 	stored_co_pilot_padlock_mode = PADLOCK_MODE_NONE;

  000ae	c7 05 00 00 00
	00 00 00 00 00	 mov	 DWORD PTR ?stored_co_pilot_padlock_mode@@3W4PADLOCK_MODES@@A, 0 ; stored_co_pilot_padlock_mode

; 591  : 
; 592  : 	//
; 593  : 	// padlock
; 594  : 	//
; 595  : 
; 596  : 	padlock_mode = PADLOCK_MODE_NONE;

  000b8	c7 05 00 00 00
	00 00 00 00 00	 mov	 DWORD PTR ?padlock_mode@@3W4PADLOCK_MODES@@A, 0

; 597  : }

  000c2	5f		 pop	 edi
  000c3	5e		 pop	 esi
  000c4	5b		 pop	 ebx
  000c5	8b e5		 mov	 esp, ebp
  000c7	5d		 pop	 ebp
  000c8	c3		 ret	 0
?initialise_virtual_cockpit_view@@YGXXZ ENDP		; initialise_virtual_cockpit_view
_TEXT	ENDS
; Function compile flags: /Odtp /ZI
; File c:\program files (x86)\microsoft visual studio\2017\community\vc\tools\msvc\14.16.27023\include\cmath
;	COMDAT ?sqrt@@YGMM@Z
_TEXT	SEGMENT
__Xx$ = 8						; size = 4
?sqrt@@YGMM@Z PROC					; sqrt, COMDAT

; 294  : 	{

  00000	55		 push	 ebp
  00001	8b ec		 mov	 ebp, esp
  00003	83 ec 40	 sub	 esp, 64			; 00000040H
  00006	53		 push	 ebx
  00007	56		 push	 esi
  00008	57		 push	 edi

; 295  : 	return (_CSTD sqrtf(_Xx));

  00009	51		 push	 ecx
  0000a	f3 0f 10 45 08	 movss	 xmm0, DWORD PTR __Xx$[ebp]
  0000f	f3 0f 11 04 24	 movss	 DWORD PTR [esp], xmm0
  00014	e8 00 00 00 00	 call	 _sqrtf
  00019	83 c4 04	 add	 esp, 4

; 296  : 	}

  0001c	5f		 pop	 edi
  0001d	5e		 pop	 esi
  0001e	5b		 pop	 ebx
  0001f	8b e5		 mov	 esp, ebp
  00021	5d		 pop	 ebp
  00022	c2 04 00	 ret	 4
?sqrt@@YGMM@Z ENDP					; sqrt
_TEXT	ENDS
; Function compile flags: /Odtp /ZI
; File c:\program files (x86)\microsoft visual studio\2017\community\vc\tools\msvc\14.16.27023\include\cmath
;	COMDAT ?atan2@@YGMMM@Z
_TEXT	SEGMENT
__Yx$ = 8						; size = 4
__Xx$ = 12						; size = 4
?atan2@@YGMMM@Z PROC					; atan2, COMDAT

; 56   : 	{

  00000	55		 push	 ebp
  00001	8b ec		 mov	 ebp, esp
  00003	83 ec 40	 sub	 esp, 64			; 00000040H
  00006	53		 push	 ebx
  00007	56		 push	 esi
  00008	57		 push	 edi

; 57   : 	return (_CSTD atan2f(_Yx, _Xx));

  00009	51		 push	 ecx
  0000a	f3 0f 10 45 0c	 movss	 xmm0, DWORD PTR __Xx$[ebp]
  0000f	f3 0f 11 04 24	 movss	 DWORD PTR [esp], xmm0
  00014	51		 push	 ecx
  00015	f3 0f 10 45 08	 movss	 xmm0, DWORD PTR __Yx$[ebp]
  0001a	f3 0f 11 04 24	 movss	 DWORD PTR [esp], xmm0
  0001f	e8 00 00 00 00	 call	 _atan2f
  00024	83 c4 08	 add	 esp, 8

; 58   : 	}

  00027	5f		 pop	 edi
  00028	5e		 pop	 esi
  00029	5b		 pop	 ebx
  0002a	8b e5		 mov	 esp, ebp
  0002c	5d		 pop	 ebp
  0002d	c2 08 00	 ret	 8
?atan2@@YGMMM@Z ENDP					; atan2
_TEXT	ENDS
; Function compile flags: /Odtp /ZI
; File c:\program files (x86)\windows kits\10\include\10.0.18362.0\ucrt\corecrt_math.h
;	COMDAT _sqrtf
_TEXT	SEGMENT
tv71 = -68						; size = 4
__X$ = 8						; size = 4
_sqrtf	PROC						; COMDAT

; 759  :         {

  00000	55		 push	 ebp
  00001	8b ec		 mov	 ebp, esp
  00003	83 ec 44	 sub	 esp, 68			; 00000044H
  00006	53		 push	 ebx
  00007	56		 push	 esi
  00008	57		 push	 edi

; 760  :             return (float)sqrt(_X);

  00009	f3 0f 5a 45 08	 cvtss2sd xmm0, DWORD PTR __X$[ebp]
  0000e	83 ec 08	 sub	 esp, 8
  00011	f2 0f 11 04 24	 movsd	 QWORD PTR [esp], xmm0
  00016	e8 00 00 00 00	 call	 _sqrt
  0001b	83 c4 08	 add	 esp, 8
  0001e	d9 5d bc	 fstp	 DWORD PTR tv71[ebp]
  00021	d9 45 bc	 fld	 DWORD PTR tv71[ebp]

; 761  :         }

  00024	5f		 pop	 edi
  00025	5e		 pop	 esi
  00026	5b		 pop	 ebx
  00027	8b e5		 mov	 esp, ebp
  00029	5d		 pop	 ebp
  0002a	c3		 ret	 0
_sqrtf	ENDP
_TEXT	ENDS
; Function compile flags: /Odtp /ZI
; File c:\program files (x86)\windows kits\10\include\10.0.18362.0\ucrt\corecrt_math.h
;	COMDAT _atan2f
_TEXT	SEGMENT
tv74 = -68						; size = 4
__Y$ = 8						; size = 4
__X$ = 12						; size = 4
_atan2f	PROC						; COMDAT

; 633  :         {

  00000	55		 push	 ebp
  00001	8b ec		 mov	 ebp, esp
  00003	83 ec 44	 sub	 esp, 68			; 00000044H
  00006	53		 push	 ebx
  00007	56		 push	 esi
  00008	57		 push	 edi

; 634  :             return (float)atan2(_Y, _X);

  00009	f3 0f 5a 45 0c	 cvtss2sd xmm0, DWORD PTR __X$[ebp]
  0000e	83 ec 08	 sub	 esp, 8
  00011	f2 0f 11 04 24	 movsd	 QWORD PTR [esp], xmm0
  00016	f3 0f 5a 45 08	 cvtss2sd xmm0, DWORD PTR __Y$[ebp]
  0001b	83 ec 08	 sub	 esp, 8
  0001e	f2 0f 11 04 24	 movsd	 QWORD PTR [esp], xmm0
  00023	e8 00 00 00 00	 call	 _atan2
  00028	83 c4 10	 add	 esp, 16			; 00000010H
  0002b	d9 5d bc	 fstp	 DWORD PTR tv74[ebp]
  0002e	d9 45 bc	 fld	 DWORD PTR tv74[ebp]

; 635  :         }

  00031	5f		 pop	 edi
  00032	5e		 pop	 esi
  00033	5b		 pop	 ebx
  00034	8b e5		 mov	 esp, ebp
  00036	5d		 pop	 ebp
  00037	c3		 ret	 0
_atan2f	ENDP
_TEXT	ENDS
; Function compile flags: /Odtp /ZI
; File c:\program files (x86)\windows kits\10\include\10.0.18362.0\ucrt\stdio.h
;	COMDAT _sprintf
_TEXT	SEGMENT
__ArgList$ = -8						; size = 4
__Result$ = -4						; size = 4
__Buffer$ = 8						; size = 4
__Format$ = 12						; size = 4
_sprintf PROC						; COMDAT

; 1781 :     {

  00000	55		 push	 ebp
  00001	8b ec		 mov	 ebp, esp
  00003	83 ec 4c	 sub	 esp, 76			; 0000004cH
  00006	53		 push	 ebx
  00007	56		 push	 esi
  00008	57		 push	 edi

; 1782 :         int _Result;
; 1783 :         va_list _ArgList;
; 1784 :         __crt_va_start(_ArgList, _Format);

  00009	8d 45 10	 lea	 eax, DWORD PTR __Format$[ebp+4]
  0000c	89 45 f8	 mov	 DWORD PTR __ArgList$[ebp], eax

; 1785 : 
; 1786 :         #pragma warning(push)
; 1787 :         #pragma warning(disable: 4996) // Deprecation
; 1788 :         _Result = _vsprintf_l(_Buffer, _Format, NULL, _ArgList);

  0000f	8b 45 f8	 mov	 eax, DWORD PTR __ArgList$[ebp]
  00012	50		 push	 eax
  00013	6a 00		 push	 0
  00015	8b 4d 0c	 mov	 ecx, DWORD PTR __Format$[ebp]
  00018	51		 push	 ecx
  00019	8b 55 08	 mov	 edx, DWORD PTR __Buffer$[ebp]
  0001c	52		 push	 edx
  0001d	e8 00 00 00 00	 call	 __vsprintf_l
  00022	83 c4 10	 add	 esp, 16			; 00000010H
  00025	89 45 fc	 mov	 DWORD PTR __Result$[ebp], eax

; 1789 :         #pragma warning(pop)
; 1790 : 
; 1791 :         __crt_va_end(_ArgList);

  00028	c7 45 f8 00 00
	00 00		 mov	 DWORD PTR __ArgList$[ebp], 0

; 1792 :         return _Result;

  0002f	8b 45 fc	 mov	 eax, DWORD PTR __Result$[ebp]

; 1793 :     }

  00032	5f		 pop	 edi
  00033	5e		 pop	 esi
  00034	5b		 pop	 ebx
  00035	8b e5		 mov	 esp, ebp
  00037	5d		 pop	 ebp
  00038	c3		 ret	 0
_sprintf ENDP
_TEXT	ENDS
; Function compile flags: /Odtp /ZI
; File c:\program files (x86)\windows kits\10\include\10.0.18362.0\ucrt\stdio.h
;	COMDAT __vsprintf_l
_TEXT	SEGMENT
__Buffer$ = 8						; size = 4
__Format$ = 12						; size = 4
__Locale$ = 16						; size = 4
__ArgList$ = 20						; size = 4
__vsprintf_l PROC					; COMDAT

; 1459 :     {

  00000	55		 push	 ebp
  00001	8b ec		 mov	 ebp, esp
  00003	83 ec 40	 sub	 esp, 64			; 00000040H
  00006	53		 push	 ebx
  00007	56		 push	 esi
  00008	57		 push	 edi

; 1460 :         #pragma warning(push)
; 1461 :         #pragma warning(disable: 4996) // Deprecation
; 1462 :         return _vsnprintf_l(_Buffer, (size_t)-1, _Format, _Locale, _ArgList);

  00009	8b 45 14	 mov	 eax, DWORD PTR __ArgList$[ebp]
  0000c	50		 push	 eax
  0000d	8b 4d 10	 mov	 ecx, DWORD PTR __Locale$[ebp]
  00010	51		 push	 ecx
  00011	8b 55 0c	 mov	 edx, DWORD PTR __Format$[ebp]
  00014	52		 push	 edx
  00015	6a ff		 push	 -1
  00017	8b 45 08	 mov	 eax, DWORD PTR __Buffer$[ebp]
  0001a	50		 push	 eax
  0001b	e8 00 00 00 00	 call	 __vsnprintf_l
  00020	83 c4 14	 add	 esp, 20			; 00000014H

; 1463 :         #pragma warning(pop)
; 1464 :     }

  00023	5f		 pop	 edi
  00024	5e		 pop	 esi
  00025	5b		 pop	 ebx
  00026	8b e5		 mov	 esp, ebp
  00028	5d		 pop	 ebp
  00029	c3		 ret	 0
__vsprintf_l ENDP
_TEXT	ENDS
; Function compile flags: /Odtp /ZI
; File c:\program files (x86)\windows kits\10\include\10.0.18362.0\ucrt\stdio.h
;	COMDAT __vsnprintf_l
_TEXT	SEGMENT
tv74 = -72						; size = 4
__Result$ = -4						; size = 4
__Buffer$ = 8						; size = 4
__BufferCount$ = 12					; size = 4
__Format$ = 16						; size = 4
__Locale$ = 20						; size = 4
__ArgList$ = 24						; size = 4
__vsnprintf_l PROC					; COMDAT

; 1389 :     {

  00000	55		 push	 ebp
  00001	8b ec		 mov	 ebp, esp
  00003	83 ec 48	 sub	 esp, 72			; 00000048H
  00006	53		 push	 ebx
  00007	56		 push	 esi
  00008	57		 push	 edi

; 1390 :         int const _Result = __stdio_common_vsprintf(

  00009	8b 45 18	 mov	 eax, DWORD PTR __ArgList$[ebp]
  0000c	50		 push	 eax
  0000d	8b 4d 14	 mov	 ecx, DWORD PTR __Locale$[ebp]
  00010	51		 push	 ecx
  00011	8b 55 10	 mov	 edx, DWORD PTR __Format$[ebp]
  00014	52		 push	 edx
  00015	8b 45 0c	 mov	 eax, DWORD PTR __BufferCount$[ebp]
  00018	50		 push	 eax
  00019	8b 4d 08	 mov	 ecx, DWORD PTR __Buffer$[ebp]
  0001c	51		 push	 ecx
  0001d	e8 00 00 00 00	 call	 ___local_stdio_printf_options
  00022	8b 10		 mov	 edx, DWORD PTR [eax]
  00024	83 ca 01	 or	 edx, 1
  00027	8b 40 04	 mov	 eax, DWORD PTR [eax+4]
  0002a	50		 push	 eax
  0002b	52		 push	 edx
  0002c	ff 15 00 00 00
	00		 call	 DWORD PTR __imp____stdio_common_vsprintf
  00032	83 c4 1c	 add	 esp, 28			; 0000001cH
  00035	89 45 fc	 mov	 DWORD PTR __Result$[ebp], eax

; 1391 :             _CRT_INTERNAL_LOCAL_PRINTF_OPTIONS | _CRT_INTERNAL_PRINTF_LEGACY_VSPRINTF_NULL_TERMINATION,
; 1392 :             _Buffer, _BufferCount, _Format, _Locale, _ArgList);
; 1393 : 
; 1394 :         return _Result < 0 ? -1 : _Result;

  00038	83 7d fc 00	 cmp	 DWORD PTR __Result$[ebp], 0
  0003c	7d 09		 jge	 SHORT $LN3@vsnprintf_
  0003e	c7 45 b8 ff ff
	ff ff		 mov	 DWORD PTR tv74[ebp], -1
  00045	eb 06		 jmp	 SHORT $LN4@vsnprintf_
$LN3@vsnprintf_:
  00047	8b 45 fc	 mov	 eax, DWORD PTR __Result$[ebp]
  0004a	89 45 b8	 mov	 DWORD PTR tv74[ebp], eax
$LN4@vsnprintf_:
  0004d	8b 45 b8	 mov	 eax, DWORD PTR tv74[ebp]

; 1395 :     }

  00050	5f		 pop	 edi
  00051	5e		 pop	 esi
  00052	5b		 pop	 ebx
  00053	8b e5		 mov	 esp, ebp
  00055	5d		 pop	 ebp
  00056	c3		 ret	 0
__vsnprintf_l ENDP
_TEXT	ENDS
; Function compile flags: /Odtp /ZI
; File c:\program files (x86)\windows kits\10\include\10.0.18362.0\ucrt\corecrt_stdio_config.h
;	COMDAT ___local_stdio_printf_options
_TEXT	SEGMENT
___local_stdio_printf_options PROC			; COMDAT

; 86   :     {

  00000	55		 push	 ebp
  00001	8b ec		 mov	 ebp, esp
  00003	83 ec 40	 sub	 esp, 64			; 00000040H
  00006	53		 push	 ebx
  00007	56		 push	 esi
  00008	57		 push	 edi

; 87   :         static unsigned __int64 _OptionsStorage;
; 88   :         return &_OptionsStorage;

  00009	b8 00 00 00 00	 mov	 eax, OFFSET ?_OptionsStorage@?1??__local_stdio_printf_options@@9@4_KA ; `__local_stdio_printf_options'::`2'::_OptionsStorage

; 89   :     }

  0000e	5f		 pop	 edi
  0000f	5e		 pop	 esi
  00010	5b		 pop	 ebx
  00011	8b e5		 mov	 esp, ebp
  00013	5d		 pop	 ebp
  00014	c3		 ret	 0
___local_stdio_printf_options ENDP
_TEXT	ENDS
END
