; Listing generated by Microsoft (R) Optimizing Compiler Version 19.16.27045.0 

	TITLE	C:\Users\nhv90\Projects\eech\aphavoc\source\entity\mobile\weapon\wn_dbase.c
	.686P
	.XMM
	include listing.inc
	.model	flat

INCLUDELIB MSVCRTD
INCLUDELIB OLDNAMES

PUBLIC	?weapon_database@@3PAUWEAPON_DATA@@A		; weapon_database
PUBLIC	?weapon_config_database@@3PAY0CA@UWEAPON_PACKAGE@@A ; weapon_config_database
PUBLIC	?muzzle_flash_animation_database@@3PAUMUZZLE_FLASH_ANIMATION@@A ; muzzle_flash_animation_database
PUBLIC	?target_point_offsets@@3PAUVEC3D@@A		; target_point_offsets
PUBLIC	??_C@_09CPHJPBDM@No?5Weapon@			; `string'
PUBLIC	??_C@_01OGPIMHDM@?$DP@				; `string'
PUBLIC	??_C@_04OHJIHAFH@None@				; `string'
PUBLIC	??_C@_0N@OANBKDJO@12?47mm?5Round@		; `string'
PUBLIC	??_C@_06KGGEDECF@12?47mm@			; `string'
PUBLIC	??_C@_09EKHHIFDP@M2?512?47mm@			; `string'
PUBLIC	??_C@_0BD@LCIIOPMC@Browning?5M2?512?47mm@	; `string'
PUBLIC	??_C@_0BB@MEMCKMOI@M61A1?520mm?5Round@		; `string'
PUBLIC	??_C@_0BA@FCAADKOM@M197?520mm?5Round@		; `string'
PUBLIC	??_C@_03NMPFMOLH@GUN@				; `string'
PUBLIC	??_C@_04GKJEHFPF@M197@				; `string'
PUBLIC	??_C@_0BB@LCFGFHDI@M197?520mm?5Cannon@		; `string'
PUBLIC	??_C@_0BE@MMDOIFJF@GAU?912?1U?525mm?5Round@	; `string'
PUBLIC	??_C@_0BA@PIBFIJJ@M242?525mm?5Round@		; `string'
PUBLIC	??_C@_0BD@ICDPJIJK@GAU?98?1A?530mm?5Round@	; `string'
PUBLIC	??_C@_0BA@CNLHFDJG@M230?530mm?5Round@		; `string'
PUBLIC	??_C@_04DKPHMJAK@M230@				; `string'
PUBLIC	??_C@_0BE@EGAMEMKP@M230?530mm?5Chain?5Gun@	; `string'
PUBLIC	??_C@_0P@NKHLIJHL@M75?576mm?5Round@		; `string'
PUBLIC	??_C@_0BB@OLABECEF@M256?5120mm?5Round@		; `string'
PUBLIC	??_C@_0BB@DJHDCKCD@M284?5155mm?5Round@		; `string'
PUBLIC	??_C@_0BD@BLDKBEJL@M26A1?5227mm?5Rocket@	; `string'
PUBLIC	??_C@_05NPBDNBKI@Yak?9B@			; `string'
PUBLIC	??_C@_05LOOAFBJC@YAK?9B@			; `string'
PUBLIC	??_C@_0BJ@BKIOPJPD@Yak?9B?512?47mm?5Gatling?5Gun@ ; `string'
PUBLIC	??_C@_0N@LBJNGED@14?45mm?5Round@		; `string'
PUBLIC	??_C@_06LBAPKEBD@UPK?923@			; `string'
PUBLIC	??_C@_0BL@FHOAOHPB@UPK?923?9250?523mm?5Cannon?5Pod@ ; `string'
PUBLIC	??_C@_0BD@NGCCPFHE@GSh?9301?530mm?5Round@	; `string'
PUBLIC	??_C@_0BB@EJBEPNAJ@2A38M?530mm?5Round@		; `string'
PUBLIC	??_C@_0BA@GOILCIOL@2A42?530mm?5Round@		; `string'
PUBLIC	??_C@_0BD@LJGEFFKM@2A42?530mm?5HE?5Round@	; `string'
PUBLIC	??_C@_07KICNLOBD@Gun?$CIHE?$CJ@			; `string'
PUBLIC	??_C@_09BNELPKNF@2A42?5?$CIHE?$CJ@		; `string'
PUBLIC	??_C@_0BB@CMAOEJIJ@2A42?530mm?5Cannon@		; `string'
PUBLIC	??_C@_0BD@CBJMNMLI@2A42?530mm?5AP?5Round@	; `string'
PUBLIC	??_C@_07MPMIJAAC@Gun?$CIAP?$CJ@			; `string'
PUBLIC	??_C@_09HKKONEME@2A42?5?$CIAP?$CJ@		; `string'
PUBLIC	??_C@_0BA@BCOKANDA@2A72?530mm?5Round@		; `string'
PUBLIC	??_C@_0BC@DOPOIKMK@AO?917A?530mm?5Round@	; `string'
PUBLIC	??_C@_0BE@LNOJLHAE@ADMG?9630?530mm?5Round@	; `string'
PUBLIC	??_C@_0L@JMKGFJLB@76mm?5Round@			; `string'
PUBLIC	??_C@_0M@CHFNDBJN@100mm?5Round@			; `string'
PUBLIC	??_C@_0BB@MOENKJC@2K23?5100mm?5Round@		; `string'
PUBLIC	??_C@_0BD@PPFKPIHF@BM?921?5122mm?5Rocket@	; `string'
PUBLIC	??_C@_0BD@HHEJIGHP@2A46M1?5125mm?5Round@	; `string'
PUBLIC	??_C@_0BB@PPELDCBE@2A65?5152mm?5Round@		; `string'
PUBLIC	??_C@_0O@KBMPLCE@Hydra?570?5M255@		; `string'
PUBLIC	??_C@_07MBMLHLJI@RKT?$CIHE?$CJ@			; `string'
PUBLIC	??_C@_04EDANEBPN@M255@				; `string'
PUBLIC	??_C@_0O@GMDGIAHJ@Hydra?570?5M261@		; `string'
PUBLIC	??_C@_07OMPIOKDB@RKT?$CIMP?$CJ@			; `string'
PUBLIC	??_C@_04CFCHDKKA@M261@				; `string'
PUBLIC	??_C@_08HHIJIMFN@LAU?969?1A@			; `string'
PUBLIC	??_C@_03JFKHJHKK@S?95@				; `string'
PUBLIC	??_C@_03CAAJOJOH@S?98@				; `string'
PUBLIC	??_C@_04MFPECAIN@S?913@				; `string'
PUBLIC	??_C@_0BA@BIFGEJCB@AIM?992A?5Stinger@		; `string'
PUBLIC	??_C@_03MJJMMJAE@AAM@				; `string'
PUBLIC	??_C@_06JMEJGEJN@AIM?992@			; `string'
PUBLIC	??_C@_0P@EKLPJAGG@AIM?992?5Stinger@		; `string'
PUBLIC	??_C@_0BC@NHGJJPOK@AIM?99M?5Sidewinder@		; `string'
PUBLIC	??_C@_05IILFGFEE@AIM?99@			; `string'
PUBLIC	??_C@_0BB@GJPPLJPD@AIM?99?5SIDEWINDER@		; `string'
PUBLIC	??_C@_0BA@KAJEFGNL@AIM?9120C?5AMRAAM@		; `string'
PUBLIC	??_C@_0M@NANGLIAK@9K38?5Igla?9V@		; `string'
PUBLIC	??_C@_06KFNNAKIC@Igla?9V@			; `string'
PUBLIC	??_C@_06MDICIPIO@IGLA?9V@			; `string'
PUBLIC	??_C@_04PHOEJFMC@Igla@				; `string'
PUBLIC	??_C@_04NGPGEMHL@R?960@				; `string'
PUBLIC	??_C@_05ICNGGPLA@R?960M@			; `string'
PUBLIC	??_C@_05MFKBOAPM@R?927R@			; `string'
PUBLIC	??_C@_05JDPLEHHK@R?927T@			; `string'
PUBLIC	??_C@_04PMBJHFIP@R?973@				; `string'
PUBLIC	??_C@_0BK@PGIJDKCB@AGM?9114L?5Longbow?5Hellfire@ ; `string'
PUBLIC	??_C@_06HMCJBKIE@AGM?$CIR?$CJ@			; `string'
PUBLIC	??_C@_08MGNBHGAH@AGM?9114L@			; `string'
PUBLIC	??_C@_0BF@EIICHKEF@AGM?9114K?5Hellfire?5II@	; `string'
PUBLIC	??_C@_06GKJBJEPO@AGM?$CIL?$CJ@			; `string'
PUBLIC	??_C@_08IJJAOAMA@AGM?9114K@			; `string'
PUBLIC	??_C@_0BB@JMHPEGGN@AGM?965D?5Maverick@		; `string'
PUBLIC	??_C@_0BB@MEBDPPKM@AGM?965F?5Maverick@		; `string'
PUBLIC	??_C@_0O@ELFJFHNL@9M120?5Ataka?9V@		; `string'
PUBLIC	??_C@_05PBKPMNKD@ATAKA@				; `string'
PUBLIC	??_C@_05DNJFCPNL@Ataka@				; `string'
PUBLIC	??_C@_0M@PAMPLL@9K121?5Vikhr@			; `string'
PUBLIC	??_C@_05HLBILDBM@VIKHR@				; `string'
PUBLIC	??_C@_05LHCCFBGE@Vikhr@				; `string'
PUBLIC	??_C@_0N@PEOHACHO@9K114?5Shturm@		; `string'
PUBLIC	??_C@_06IIAKAGKH@SHTURM@			; `string'
PUBLIC	??_C@_06EDJMOBOJ@Shturm@			; `string'
PUBLIC	??_C@_07FHMAIPPB@Kh?925MT@			; `string'
PUBLIC	??_C@_06NEDNIJLM@Kh?929L@			; `string'
PUBLIC	??_C@_0BC@LGFKJMHD@MIM?972G?5Chaparral@		; `string'
PUBLIC	??_C@_0BA@OFKPLBFE@FIM?992A?5Stinger@		; `string'
PUBLIC	??_C@_0BA@GACELEJL@SM?91MR?5Standard@		; `string'
PUBLIC	??_C@_0BD@JMNDEBKB@RIM?97P?5Sea?5Sparrow@	; `string'
PUBLIC	??_C@_0O@GHACKDLE@9K32?5Strela?52@		; `string'
PUBLIC	??_C@_05PNPDPNHH@9M333@				; `string'
PUBLIC	??_C@_05MMEBELJL@9M311@				; `string'
PUBLIC	??_C@_0M@DOEIGEAM@M?911?5Shtorm@		; `string'
PUBLIC	??_C@_05MDAPFMKP@9K33M@				; `string'
PUBLIC	??_C@_0O@LKCFNNKC@BGM?971D?5TOW?92@		; `string'
PUBLIC	??_C@_05IILOGNPM@TOW?92@			; `string'
PUBLIC	??_C@_0O@GMKLJFFC@9M113?5Konkurs@		; `string'
PUBLIC	??_C@_0O@IGJFPAFA@9M117?5Bastion@		; `string'
PUBLIC	??_C@_0L@INIJHENP@9M119?5Svir@			; `string'
PUBLIC	??_C@_05FOOOBDLP@CHAFF@				; `string'
PUBLIC	??_C@_05MLKBHMKD@FLARE@				; `string'
PUBLIC	??_C@_0O@DEACIOFP@SMOKE?5GRENADE@		; `string'
PUBLIC	??_C@_05EADBLIEB@CRATE@				; `string'
PUBLIC	??_C@_0M@GKAGEI@Rotor?5Blade@			; `string'
PUBLIC	??_C@_0O@DFPLFLLG@Ejected?5Pilot@		; `string'
PUBLIC	??_C@_0BB@BAHFLPEL@Ejected?5Co?9pilot@		; `string'
PUBLIC	??_C@_09JBHBALIA@Crew?5Door@			; `string'
_BSS	SEGMENT
?target_point_offsets@@3PAUVEC3D@@A DB 082b0H DUP (?)	; target_point_offsets
_BSS	ENDS
;	COMDAT ??_C@_09JBHBALIA@Crew?5Door@
CONST	SEGMENT
??_C@_09JBHBALIA@Crew?5Door@ DB 'Crew Door', 00H	; `string'
CONST	ENDS
;	COMDAT ??_C@_0BB@BAHFLPEL@Ejected?5Co?9pilot@
CONST	SEGMENT
??_C@_0BB@BAHFLPEL@Ejected?5Co?9pilot@ DB 'Ejected Co-pilot', 00H ; `string'
CONST	ENDS
;	COMDAT ??_C@_0O@DFPLFLLG@Ejected?5Pilot@
CONST	SEGMENT
??_C@_0O@DFPLFLLG@Ejected?5Pilot@ DB 'Ejected Pilot', 00H ; `string'
CONST	ENDS
;	COMDAT ??_C@_0M@GKAGEI@Rotor?5Blade@
CONST	SEGMENT
??_C@_0M@GKAGEI@Rotor?5Blade@ DB 'Rotor Blade', 00H	; `string'
CONST	ENDS
;	COMDAT ??_C@_05EADBLIEB@CRATE@
CONST	SEGMENT
??_C@_05EADBLIEB@CRATE@ DB 'CRATE', 00H			; `string'
CONST	ENDS
;	COMDAT ??_C@_0O@DEACIOFP@SMOKE?5GRENADE@
CONST	SEGMENT
??_C@_0O@DEACIOFP@SMOKE?5GRENADE@ DB 'SMOKE GRENADE', 00H ; `string'
CONST	ENDS
;	COMDAT ??_C@_05MLKBHMKD@FLARE@
CONST	SEGMENT
??_C@_05MLKBHMKD@FLARE@ DB 'FLARE', 00H			; `string'
CONST	ENDS
;	COMDAT ??_C@_05FOOOBDLP@CHAFF@
CONST	SEGMENT
??_C@_05FOOOBDLP@CHAFF@ DB 'CHAFF', 00H			; `string'
CONST	ENDS
;	COMDAT ??_C@_0L@INIJHENP@9M119?5Svir@
CONST	SEGMENT
??_C@_0L@INIJHENP@9M119?5Svir@ DB '9M119 Svir', 00H	; `string'
CONST	ENDS
;	COMDAT ??_C@_0O@IGJFPAFA@9M117?5Bastion@
CONST	SEGMENT
??_C@_0O@IGJFPAFA@9M117?5Bastion@ DB '9M117 Bastion', 00H ; `string'
CONST	ENDS
;	COMDAT ??_C@_0O@GMKLJFFC@9M113?5Konkurs@
CONST	SEGMENT
??_C@_0O@GMKLJFFC@9M113?5Konkurs@ DB '9M113 Konkurs', 00H ; `string'
CONST	ENDS
;	COMDAT ??_C@_05IILOGNPM@TOW?92@
CONST	SEGMENT
??_C@_05IILOGNPM@TOW?92@ DB 'TOW-2', 00H		; `string'
CONST	ENDS
;	COMDAT ??_C@_0O@LKCFNNKC@BGM?971D?5TOW?92@
CONST	SEGMENT
??_C@_0O@LKCFNNKC@BGM?971D?5TOW?92@ DB 'BGM-71D TOW-2', 00H ; `string'
CONST	ENDS
;	COMDAT ??_C@_05MDAPFMKP@9K33M@
CONST	SEGMENT
??_C@_05MDAPFMKP@9K33M@ DB '9K33M', 00H			; `string'
CONST	ENDS
;	COMDAT ??_C@_0M@DOEIGEAM@M?911?5Shtorm@
CONST	SEGMENT
??_C@_0M@DOEIGEAM@M?911?5Shtorm@ DB 'M-11 Shtorm', 00H	; `string'
CONST	ENDS
;	COMDAT ??_C@_05MMEBELJL@9M311@
CONST	SEGMENT
??_C@_05MMEBELJL@9M311@ DB '9M311', 00H			; `string'
CONST	ENDS
;	COMDAT ??_C@_05PNPDPNHH@9M333@
CONST	SEGMENT
??_C@_05PNPDPNHH@9M333@ DB '9M333', 00H			; `string'
CONST	ENDS
;	COMDAT ??_C@_0O@GHACKDLE@9K32?5Strela?52@
CONST	SEGMENT
??_C@_0O@GHACKDLE@9K32?5Strela?52@ DB '9K32 Strela 2', 00H ; `string'
CONST	ENDS
;	COMDAT ??_C@_0BD@JMNDEBKB@RIM?97P?5Sea?5Sparrow@
CONST	SEGMENT
??_C@_0BD@JMNDEBKB@RIM?97P?5Sea?5Sparrow@ DB 'RIM-7P Sea Sparrow', 00H ; `string'
CONST	ENDS
;	COMDAT ??_C@_0BA@GACELEJL@SM?91MR?5Standard@
CONST	SEGMENT
??_C@_0BA@GACELEJL@SM?91MR?5Standard@ DB 'SM-1MR Standard', 00H ; `string'
CONST	ENDS
;	COMDAT ??_C@_0BA@OFKPLBFE@FIM?992A?5Stinger@
CONST	SEGMENT
??_C@_0BA@OFKPLBFE@FIM?992A?5Stinger@ DB 'FIM-92A Stinger', 00H ; `string'
CONST	ENDS
;	COMDAT ??_C@_0BC@LGFKJMHD@MIM?972G?5Chaparral@
CONST	SEGMENT
??_C@_0BC@LGFKJMHD@MIM?972G?5Chaparral@ DB 'MIM-72G Chaparral', 00H ; `string'
CONST	ENDS
;	COMDAT ??_C@_06NEDNIJLM@Kh?929L@
CONST	SEGMENT
??_C@_06NEDNIJLM@Kh?929L@ DB 'Kh-29L', 00H		; `string'
CONST	ENDS
;	COMDAT ??_C@_07FHMAIPPB@Kh?925MT@
CONST	SEGMENT
??_C@_07FHMAIPPB@Kh?925MT@ DB 'Kh-25MT', 00H		; `string'
CONST	ENDS
;	COMDAT ??_C@_06EDJMOBOJ@Shturm@
CONST	SEGMENT
??_C@_06EDJMOBOJ@Shturm@ DB 'Shturm', 00H		; `string'
CONST	ENDS
;	COMDAT ??_C@_06IIAKAGKH@SHTURM@
CONST	SEGMENT
??_C@_06IIAKAGKH@SHTURM@ DB 'SHTURM', 00H		; `string'
CONST	ENDS
;	COMDAT ??_C@_0N@PEOHACHO@9K114?5Shturm@
CONST	SEGMENT
??_C@_0N@PEOHACHO@9K114?5Shturm@ DB '9K114 Shturm', 00H	; `string'
CONST	ENDS
;	COMDAT ??_C@_05LHCCFBGE@Vikhr@
CONST	SEGMENT
??_C@_05LHCCFBGE@Vikhr@ DB 'Vikhr', 00H			; `string'
CONST	ENDS
;	COMDAT ??_C@_05HLBILDBM@VIKHR@
CONST	SEGMENT
??_C@_05HLBILDBM@VIKHR@ DB 'VIKHR', 00H			; `string'
CONST	ENDS
;	COMDAT ??_C@_0M@PAMPLL@9K121?5Vikhr@
CONST	SEGMENT
??_C@_0M@PAMPLL@9K121?5Vikhr@ DB '9K121 Vikhr', 00H	; `string'
CONST	ENDS
;	COMDAT ??_C@_05DNJFCPNL@Ataka@
CONST	SEGMENT
??_C@_05DNJFCPNL@Ataka@ DB 'Ataka', 00H			; `string'
CONST	ENDS
;	COMDAT ??_C@_05PBKPMNKD@ATAKA@
CONST	SEGMENT
??_C@_05PBKPMNKD@ATAKA@ DB 'ATAKA', 00H			; `string'
CONST	ENDS
;	COMDAT ??_C@_0O@ELFJFHNL@9M120?5Ataka?9V@
CONST	SEGMENT
??_C@_0O@ELFJFHNL@9M120?5Ataka?9V@ DB '9M120 Ataka-V', 00H ; `string'
CONST	ENDS
;	COMDAT ??_C@_0BB@MEBDPPKM@AGM?965F?5Maverick@
CONST	SEGMENT
??_C@_0BB@MEBDPPKM@AGM?965F?5Maverick@ DB 'AGM-65F Maverick', 00H ; `string'
CONST	ENDS
;	COMDAT ??_C@_0BB@JMHPEGGN@AGM?965D?5Maverick@
CONST	SEGMENT
??_C@_0BB@JMHPEGGN@AGM?965D?5Maverick@ DB 'AGM-65D Maverick', 00H ; `string'
CONST	ENDS
;	COMDAT ??_C@_08IJJAOAMA@AGM?9114K@
CONST	SEGMENT
??_C@_08IJJAOAMA@AGM?9114K@ DB 'AGM-114K', 00H		; `string'
CONST	ENDS
;	COMDAT ??_C@_06GKJBJEPO@AGM?$CIL?$CJ@
CONST	SEGMENT
??_C@_06GKJBJEPO@AGM?$CIL?$CJ@ DB 'AGM(L)', 00H		; `string'
CONST	ENDS
;	COMDAT ??_C@_0BF@EIICHKEF@AGM?9114K?5Hellfire?5II@
CONST	SEGMENT
??_C@_0BF@EIICHKEF@AGM?9114K?5Hellfire?5II@ DB 'AGM-114K Hellfire II', 00H ; `string'
CONST	ENDS
;	COMDAT ??_C@_08MGNBHGAH@AGM?9114L@
CONST	SEGMENT
??_C@_08MGNBHGAH@AGM?9114L@ DB 'AGM-114L', 00H		; `string'
CONST	ENDS
;	COMDAT ??_C@_06HMCJBKIE@AGM?$CIR?$CJ@
CONST	SEGMENT
??_C@_06HMCJBKIE@AGM?$CIR?$CJ@ DB 'AGM(R)', 00H		; `string'
CONST	ENDS
;	COMDAT ??_C@_0BK@PGIJDKCB@AGM?9114L?5Longbow?5Hellfire@
CONST	SEGMENT
??_C@_0BK@PGIJDKCB@AGM?9114L?5Longbow?5Hellfire@ DB 'AGM-114L Longbow Hel'
	DB	'lfire', 00H					; `string'
CONST	ENDS
;	COMDAT ??_C@_04PMBJHFIP@R?973@
CONST	SEGMENT
??_C@_04PMBJHFIP@R?973@ DB 'R-73', 00H			; `string'
CONST	ENDS
;	COMDAT ??_C@_05JDPLEHHK@R?927T@
CONST	SEGMENT
??_C@_05JDPLEHHK@R?927T@ DB 'R-27T', 00H		; `string'
CONST	ENDS
;	COMDAT ??_C@_05MFKBOAPM@R?927R@
CONST	SEGMENT
??_C@_05MFKBOAPM@R?927R@ DB 'R-27R', 00H		; `string'
CONST	ENDS
;	COMDAT ??_C@_05ICNGGPLA@R?960M@
CONST	SEGMENT
??_C@_05ICNGGPLA@R?960M@ DB 'R-60M', 00H		; `string'
CONST	ENDS
;	COMDAT ??_C@_04NGPGEMHL@R?960@
CONST	SEGMENT
??_C@_04NGPGEMHL@R?960@ DB 'R-60', 00H			; `string'
CONST	ENDS
;	COMDAT ??_C@_04PHOEJFMC@Igla@
CONST	SEGMENT
??_C@_04PHOEJFMC@Igla@ DB 'Igla', 00H			; `string'
CONST	ENDS
;	COMDAT ??_C@_06MDICIPIO@IGLA?9V@
CONST	SEGMENT
??_C@_06MDICIPIO@IGLA?9V@ DB 'IGLA-V', 00H		; `string'
CONST	ENDS
;	COMDAT ??_C@_06KFNNAKIC@Igla?9V@
CONST	SEGMENT
??_C@_06KFNNAKIC@Igla?9V@ DB 'Igla-V', 00H		; `string'
CONST	ENDS
;	COMDAT ??_C@_0M@NANGLIAK@9K38?5Igla?9V@
CONST	SEGMENT
??_C@_0M@NANGLIAK@9K38?5Igla?9V@ DB '9K38 Igla-V', 00H	; `string'
CONST	ENDS
;	COMDAT ??_C@_0BA@KAJEFGNL@AIM?9120C?5AMRAAM@
CONST	SEGMENT
??_C@_0BA@KAJEFGNL@AIM?9120C?5AMRAAM@ DB 'AIM-120C AMRAAM', 00H ; `string'
CONST	ENDS
;	COMDAT ??_C@_0BB@GJPPLJPD@AIM?99?5SIDEWINDER@
CONST	SEGMENT
??_C@_0BB@GJPPLJPD@AIM?99?5SIDEWINDER@ DB 'AIM-9 SIDEWINDER', 00H ; `string'
CONST	ENDS
;	COMDAT ??_C@_05IILFGFEE@AIM?99@
CONST	SEGMENT
??_C@_05IILFGFEE@AIM?99@ DB 'AIM-9', 00H		; `string'
CONST	ENDS
;	COMDAT ??_C@_0BC@NHGJJPOK@AIM?99M?5Sidewinder@
CONST	SEGMENT
??_C@_0BC@NHGJJPOK@AIM?99M?5Sidewinder@ DB 'AIM-9M Sidewinder', 00H ; `string'
CONST	ENDS
;	COMDAT ??_C@_0P@EKLPJAGG@AIM?992?5Stinger@
CONST	SEGMENT
??_C@_0P@EKLPJAGG@AIM?992?5Stinger@ DB 'AIM-92 Stinger', 00H ; `string'
CONST	ENDS
;	COMDAT ??_C@_06JMEJGEJN@AIM?992@
CONST	SEGMENT
??_C@_06JMEJGEJN@AIM?992@ DB 'AIM-92', 00H		; `string'
CONST	ENDS
;	COMDAT ??_C@_03MJJMMJAE@AAM@
CONST	SEGMENT
??_C@_03MJJMMJAE@AAM@ DB 'AAM', 00H			; `string'
CONST	ENDS
;	COMDAT ??_C@_0BA@BIFGEJCB@AIM?992A?5Stinger@
CONST	SEGMENT
??_C@_0BA@BIFGEJCB@AIM?992A?5Stinger@ DB 'AIM-92A Stinger', 00H ; `string'
CONST	ENDS
;	COMDAT ??_C@_04MFPECAIN@S?913@
CONST	SEGMENT
??_C@_04MFPECAIN@S?913@ DB 'S-13', 00H			; `string'
CONST	ENDS
;	COMDAT ??_C@_03CAAJOJOH@S?98@
CONST	SEGMENT
??_C@_03CAAJOJOH@S?98@ DB 'S-8', 00H			; `string'
CONST	ENDS
;	COMDAT ??_C@_03JFKHJHKK@S?95@
CONST	SEGMENT
??_C@_03JFKHJHKK@S?95@ DB 'S-5', 00H			; `string'
CONST	ENDS
;	COMDAT ??_C@_08HHIJIMFN@LAU?969?1A@
CONST	SEGMENT
??_C@_08HHIJIMFN@LAU?969?1A@ DB 'LAU-69/A', 00H		; `string'
CONST	ENDS
;	COMDAT ??_C@_04CFCHDKKA@M261@
CONST	SEGMENT
??_C@_04CFCHDKKA@M261@ DB 'M261', 00H			; `string'
CONST	ENDS
;	COMDAT ??_C@_07OMPIOKDB@RKT?$CIMP?$CJ@
CONST	SEGMENT
??_C@_07OMPIOKDB@RKT?$CIMP?$CJ@ DB 'RKT(MP)', 00H	; `string'
CONST	ENDS
;	COMDAT ??_C@_0O@GMDGIAHJ@Hydra?570?5M261@
CONST	SEGMENT
??_C@_0O@GMDGIAHJ@Hydra?570?5M261@ DB 'Hydra 70 M261', 00H ; `string'
CONST	ENDS
;	COMDAT ??_C@_04EDANEBPN@M255@
CONST	SEGMENT
??_C@_04EDANEBPN@M255@ DB 'M255', 00H			; `string'
CONST	ENDS
;	COMDAT ??_C@_07MBMLHLJI@RKT?$CIHE?$CJ@
CONST	SEGMENT
??_C@_07MBMLHLJI@RKT?$CIHE?$CJ@ DB 'RKT(HE)', 00H	; `string'
CONST	ENDS
;	COMDAT ??_C@_0O@KBMPLCE@Hydra?570?5M255@
CONST	SEGMENT
??_C@_0O@KBMPLCE@Hydra?570?5M255@ DB 'Hydra 70 M255', 00H ; `string'
CONST	ENDS
;	COMDAT ??_C@_0BB@PPELDCBE@2A65?5152mm?5Round@
CONST	SEGMENT
??_C@_0BB@PPELDCBE@2A65?5152mm?5Round@ DB '2A65 152mm Round', 00H ; `string'
CONST	ENDS
;	COMDAT ??_C@_0BD@HHEJIGHP@2A46M1?5125mm?5Round@
CONST	SEGMENT
??_C@_0BD@HHEJIGHP@2A46M1?5125mm?5Round@ DB '2A46M1 125mm Round', 00H ; `string'
CONST	ENDS
;	COMDAT ??_C@_0BD@PPFKPIHF@BM?921?5122mm?5Rocket@
CONST	SEGMENT
??_C@_0BD@PPFKPIHF@BM?921?5122mm?5Rocket@ DB 'BM-21 122mm Rocket', 00H ; `string'
CONST	ENDS
;	COMDAT ??_C@_0BB@MOENKJC@2K23?5100mm?5Round@
CONST	SEGMENT
??_C@_0BB@MOENKJC@2K23?5100mm?5Round@ DB '2K23 100mm Round', 00H ; `string'
CONST	ENDS
;	COMDAT ??_C@_0M@CHFNDBJN@100mm?5Round@
CONST	SEGMENT
??_C@_0M@CHFNDBJN@100mm?5Round@ DB '100mm Round', 00H	; `string'
CONST	ENDS
;	COMDAT ??_C@_0L@JMKGFJLB@76mm?5Round@
CONST	SEGMENT
??_C@_0L@JMKGFJLB@76mm?5Round@ DB '76mm Round', 00H	; `string'
CONST	ENDS
;	COMDAT ??_C@_0BE@LNOJLHAE@ADMG?9630?530mm?5Round@
CONST	SEGMENT
??_C@_0BE@LNOJLHAE@ADMG?9630?530mm?5Round@ DB 'ADMG-630 30mm Round', 00H ; `string'
CONST	ENDS
;	COMDAT ??_C@_0BC@DOPOIKMK@AO?917A?530mm?5Round@
CONST	SEGMENT
??_C@_0BC@DOPOIKMK@AO?917A?530mm?5Round@ DB 'AO-17A 30mm Round', 00H ; `string'
CONST	ENDS
;	COMDAT ??_C@_0BA@BCOKANDA@2A72?530mm?5Round@
CONST	SEGMENT
??_C@_0BA@BCOKANDA@2A72?530mm?5Round@ DB '2A72 30mm Round', 00H ; `string'
CONST	ENDS
;	COMDAT ??_C@_09HKKONEME@2A42?5?$CIAP?$CJ@
CONST	SEGMENT
??_C@_09HKKONEME@2A42?5?$CIAP?$CJ@ DB '2A42 (AP)', 00H	; `string'
CONST	ENDS
;	COMDAT ??_C@_07MPMIJAAC@Gun?$CIAP?$CJ@
CONST	SEGMENT
??_C@_07MPMIJAAC@Gun?$CIAP?$CJ@ DB 'Gun(AP)', 00H	; `string'
CONST	ENDS
;	COMDAT ??_C@_0BD@CBJMNMLI@2A42?530mm?5AP?5Round@
CONST	SEGMENT
??_C@_0BD@CBJMNMLI@2A42?530mm?5AP?5Round@ DB '2A42 30mm AP Round', 00H ; `string'
CONST	ENDS
;	COMDAT ??_C@_0BB@CMAOEJIJ@2A42?530mm?5Cannon@
CONST	SEGMENT
??_C@_0BB@CMAOEJIJ@2A42?530mm?5Cannon@ DB '2A42 30mm Cannon', 00H ; `string'
CONST	ENDS
;	COMDAT ??_C@_09BNELPKNF@2A42?5?$CIHE?$CJ@
CONST	SEGMENT
??_C@_09BNELPKNF@2A42?5?$CIHE?$CJ@ DB '2A42 (HE)', 00H	; `string'
CONST	ENDS
;	COMDAT ??_C@_07KICNLOBD@Gun?$CIHE?$CJ@
CONST	SEGMENT
??_C@_07KICNLOBD@Gun?$CIHE?$CJ@ DB 'Gun(HE)', 00H	; `string'
CONST	ENDS
;	COMDAT ??_C@_0BD@LJGEFFKM@2A42?530mm?5HE?5Round@
CONST	SEGMENT
??_C@_0BD@LJGEFFKM@2A42?530mm?5HE?5Round@ DB '2A42 30mm HE Round', 00H ; `string'
CONST	ENDS
;	COMDAT ??_C@_0BA@GOILCIOL@2A42?530mm?5Round@
CONST	SEGMENT
??_C@_0BA@GOILCIOL@2A42?530mm?5Round@ DB '2A42 30mm Round', 00H ; `string'
CONST	ENDS
;	COMDAT ??_C@_0BB@EJBEPNAJ@2A38M?530mm?5Round@
CONST	SEGMENT
??_C@_0BB@EJBEPNAJ@2A38M?530mm?5Round@ DB '2A38M 30mm Round', 00H ; `string'
CONST	ENDS
;	COMDAT ??_C@_0BD@NGCCPFHE@GSh?9301?530mm?5Round@
CONST	SEGMENT
??_C@_0BD@NGCCPFHE@GSh?9301?530mm?5Round@ DB 'GSh-301 30mm Round', 00H ; `string'
CONST	ENDS
;	COMDAT ??_C@_0BL@FHOAOHPB@UPK?923?9250?523mm?5Cannon?5Pod@
CONST	SEGMENT
??_C@_0BL@FHOAOHPB@UPK?923?9250?523mm?5Cannon?5Pod@ DB 'UPK-23-250 23mm C'
	DB	'annon Pod', 00H				; `string'
CONST	ENDS
;	COMDAT ??_C@_06LBAPKEBD@UPK?923@
CONST	SEGMENT
??_C@_06LBAPKEBD@UPK?923@ DB 'UPK-23', 00H		; `string'
CONST	ENDS
;	COMDAT ??_C@_0N@LBJNGED@14?45mm?5Round@
CONST	SEGMENT
??_C@_0N@LBJNGED@14?45mm?5Round@ DB '14.5mm Round', 00H	; `string'
CONST	ENDS
;	COMDAT ??_C@_0BJ@BKIOPJPD@Yak?9B?512?47mm?5Gatling?5Gun@
CONST	SEGMENT
??_C@_0BJ@BKIOPJPD@Yak?9B?512?47mm?5Gatling?5Gun@ DB 'Yak-B 12.7mm Gatlin'
	DB	'g Gun', 00H					; `string'
CONST	ENDS
;	COMDAT ??_C@_05LOOAFBJC@YAK?9B@
CONST	SEGMENT
??_C@_05LOOAFBJC@YAK?9B@ DB 'YAK-B', 00H		; `string'
CONST	ENDS
;	COMDAT ??_C@_05NPBDNBKI@Yak?9B@
CONST	SEGMENT
??_C@_05NPBDNBKI@Yak?9B@ DB 'Yak-B', 00H		; `string'
CONST	ENDS
;	COMDAT ??_C@_0BD@BLDKBEJL@M26A1?5227mm?5Rocket@
CONST	SEGMENT
??_C@_0BD@BLDKBEJL@M26A1?5227mm?5Rocket@ DB 'M26A1 227mm Rocket', 00H ; `string'
CONST	ENDS
;	COMDAT ??_C@_0BB@DJHDCKCD@M284?5155mm?5Round@
CONST	SEGMENT
??_C@_0BB@DJHDCKCD@M284?5155mm?5Round@ DB 'M284 155mm Round', 00H ; `string'
CONST	ENDS
;	COMDAT ??_C@_0BB@OLABECEF@M256?5120mm?5Round@
CONST	SEGMENT
??_C@_0BB@OLABECEF@M256?5120mm?5Round@ DB 'M256 120mm Round', 00H ; `string'
CONST	ENDS
;	COMDAT ??_C@_0P@NKHLIJHL@M75?576mm?5Round@
CONST	SEGMENT
??_C@_0P@NKHLIJHL@M75?576mm?5Round@ DB 'M75 76mm Round', 00H ; `string'
CONST	ENDS
;	COMDAT ??_C@_0BE@EGAMEMKP@M230?530mm?5Chain?5Gun@
CONST	SEGMENT
??_C@_0BE@EGAMEMKP@M230?530mm?5Chain?5Gun@ DB 'M230 30mm Chain Gun', 00H ; `string'
CONST	ENDS
;	COMDAT ??_C@_04DKPHMJAK@M230@
CONST	SEGMENT
??_C@_04DKPHMJAK@M230@ DB 'M230', 00H			; `string'
CONST	ENDS
;	COMDAT ??_C@_0BA@CNLHFDJG@M230?530mm?5Round@
CONST	SEGMENT
??_C@_0BA@CNLHFDJG@M230?530mm?5Round@ DB 'M230 30mm Round', 00H ; `string'
CONST	ENDS
;	COMDAT ??_C@_0BD@ICDPJIJK@GAU?98?1A?530mm?5Round@
CONST	SEGMENT
??_C@_0BD@ICDPJIJK@GAU?98?1A?530mm?5Round@ DB 'GAU-8/A 30mm Round', 00H ; `string'
CONST	ENDS
;	COMDAT ??_C@_0BA@PIBFIJJ@M242?525mm?5Round@
CONST	SEGMENT
??_C@_0BA@PIBFIJJ@M242?525mm?5Round@ DB 'M242 25mm Round', 00H ; `string'
CONST	ENDS
;	COMDAT ??_C@_0BE@MMDOIFJF@GAU?912?1U?525mm?5Round@
CONST	SEGMENT
??_C@_0BE@MMDOIFJF@GAU?912?1U?525mm?5Round@ DB 'GAU-12/U 25mm Round', 00H ; `string'
CONST	ENDS
;	COMDAT ??_C@_0BB@LCFGFHDI@M197?520mm?5Cannon@
CONST	SEGMENT
??_C@_0BB@LCFGFHDI@M197?520mm?5Cannon@ DB 'M197 20mm Cannon', 00H ; `string'
CONST	ENDS
;	COMDAT ??_C@_04GKJEHFPF@M197@
CONST	SEGMENT
??_C@_04GKJEHFPF@M197@ DB 'M197', 00H			; `string'
CONST	ENDS
;	COMDAT ??_C@_03NMPFMOLH@GUN@
CONST	SEGMENT
??_C@_03NMPFMOLH@GUN@ DB 'GUN', 00H			; `string'
CONST	ENDS
;	COMDAT ??_C@_0BA@FCAADKOM@M197?520mm?5Round@
CONST	SEGMENT
??_C@_0BA@FCAADKOM@M197?520mm?5Round@ DB 'M197 20mm Round', 00H ; `string'
CONST	ENDS
;	COMDAT ??_C@_0BB@MEMCKMOI@M61A1?520mm?5Round@
CONST	SEGMENT
??_C@_0BB@MEMCKMOI@M61A1?520mm?5Round@ DB 'M61A1 20mm Round', 00H ; `string'
CONST	ENDS
;	COMDAT ??_C@_0BD@LCIIOPMC@Browning?5M2?512?47mm@
CONST	SEGMENT
??_C@_0BD@LCIIOPMC@Browning?5M2?512?47mm@ DB 'Browning M2 12.7mm', 00H ; `string'
CONST	ENDS
;	COMDAT ??_C@_09EKHHIFDP@M2?512?47mm@
CONST	SEGMENT
??_C@_09EKHHIFDP@M2?512?47mm@ DB 'M2 12.7mm', 00H	; `string'
CONST	ENDS
;	COMDAT ??_C@_06KGGEDECF@12?47mm@
CONST	SEGMENT
??_C@_06KGGEDECF@12?47mm@ DB '12.7mm', 00H		; `string'
CONST	ENDS
;	COMDAT ??_C@_0N@OANBKDJO@12?47mm?5Round@
CONST	SEGMENT
??_C@_0N@OANBKDJO@12?47mm?5Round@ DB '12.7mm Round', 00H ; `string'
CONST	ENDS
;	COMDAT ??_C@_04OHJIHAFH@None@
CONST	SEGMENT
??_C@_04OHJIHAFH@None@ DB 'None', 00H			; `string'
CONST	ENDS
;	COMDAT ??_C@_01OGPIMHDM@?$DP@
CONST	SEGMENT
??_C@_01OGPIMHDM@?$DP@ DB '?', 00H			; `string'
CONST	ENDS
;	COMDAT ??_C@_09CPHJPBDM@No?5Weapon@
CONST	SEGMENT
??_C@_09CPHJPBDM@No?5Weapon@ DB 'No Weapon', 00H	; `string'
CONST	ENDS
_DATA	SEGMENT
?weapon_database@@3PAUWEAPON_DATA@@A DD FLAT:??_C@_09CPHJPBDM@No?5Weapon@ ; weapon_database
	DD	FLAT:??_C@_01OGPIMHDM@?$DP@
	DD	FLAT:??_C@_01OGPIMHDM@?$DP@
	DD	FLAT:??_C@_04OHJIHAFH@None@
	DD	FLAT:??_C@_04OHJIHAFH@None@
	DD	00H
	DD	00H
	DD	00H
	DD	00H
	DD	00H
	DD	00H
	DD	00H
	DD	00H
	DD	00H
	DD	0ffffffffH
	DD	0ffffffffH
	DD	0ffffffffH
	DD	0ffffffffH
	DD	0ffffffffH
	DD	00H
	DD	00H
	DD	00H
	DD	00H
	DD	00H
	DD	00H
	DD	00H
	DD	00H
	DD	00H
	DD	00H
	DD	00H
	DD	00H
	DD	00H
	DD	00H
	DD	00H
	DD	000000000r			; 0
	DD	000000000r			; 0
	DD	000000000r			; 0
	DD	000000000r			; 0
	DD	000000000r			; 0
	DD	000000000r			; 0
	DD	000000000r			; 0
	DD	000000000r			; 0
	DD	000000000r			; 0
	DD	000000000r			; 0
	DD	000000000r			; 0
	DD	000000000r			; 0
	DD	000000000r			; 0
	DD	000000000r			; 0
	DD	000000000r			; 0
	DD	000000000r			; 0
	DD	000000000r			; 0
	DD	000000000r			; 0
	DD	000000000r			; 0
	DD	000000000r			; 0
	DD	03f800000r			; 1
	ORG $+4
	DD	FLAT:??_C@_0N@OANBKDJO@12?47mm?5Round@
	DD	FLAT:??_C@_06KGGEDECF@12?47mm@
	DD	FLAT:??_C@_06KGGEDECF@12?47mm@
	DD	FLAT:??_C@_09EKHHIFDP@M2?512?47mm@
	DD	FLAT:??_C@_0BD@LCIIOPMC@Browning?5M2?512?47mm@
	DD	0a0cH
	DD	00H
	DD	01H
	DD	00H
	DD	01H
	DD	00H
	DD	010H
	DD	02aH
	DD	02aH
	DD	00H
	DD	0ffffffffH
	DD	0ffffffffH
	DD	0ffffffffH
	DD	0ffffffffH
	DD	00H
	DD	00H
	DD	01H
	DD	04H
	DD	00H
	DD	00H
	DD	01H
	DD	01H
	DD	00H
	DD	01H
	DD	00H
	DD	00H
	DD	00H
	DD	00H
	DD	0cH
	DD	000000000r			; 0
	DD	000000000r			; 0
	DD	044e10000r			; 1800
	DD	044160000r			; 600
	DD	000000000r			; 0
	DD	044e10000r			; 1800
	DD	000000000r			; 0
	DD	044160000r			; 600
	DD	000000000r			; 0
	DD	044160000r			; 600
	DD	000000000r			; 0
	DD	000000000r			; 0
	DD	040400000r			; 3
	DD	000000000r			; 0
	DD	000000000r			; 0
	DD	040400000r			; 3
	DD	0447a0000r			; 1000
	DD	041200000r			; 10
	DD	03c8efa35r			; 0.0174533
	DD	000000000r			; 0
	DD	03f19999ar			; 0.6
	DD	03a83126fr			; 0.001
	DD	FLAT:??_C@_0BB@MEMCKMOI@M61A1?520mm?5Round@
	DD	FLAT:??_C@_01OGPIMHDM@?$DP@
	DD	FLAT:??_C@_01OGPIMHDM@?$DP@
	DD	FLAT:??_C@_01OGPIMHDM@?$DP@
	DD	FLAT:??_C@_01OGPIMHDM@?$DP@
	DD	0a0eH
	DD	00H
	DD	01H
	DD	00H
	DD	01H
	DD	00H
	DD	010H
	DD	02aH
	DD	02aH
	DD	00H
	DD	0ffffffffH
	DD	0ffffffffH
	DD	0ffffffffH
	DD	0ffffffffH
	DD	00H
	DD	00H
	DD	01H
	DD	0cH
	DD	00H
	DD	00H
	DD	01H
	DD	01H
	DD	00H
	DD	01H
	DD	00H
	DD	00H
	DD	00H
	DD	00H
	DD	0fH
	DD	000000000r			; 0
	DD	000000000r			; 0
	DD	044c80000r			; 1600
	DD	044160000r			; 600
	DD	000000000r			; 0
	DD	044c80000r			; 1600
	DD	000000000r			; 0
	DD	0445d0000r			; 884
	DD	000000000r			; 0
	DD	0445d0000r			; 884
	DD	000000000r			; 0
	DD	000000000r			; 0
	DD	03fe7ac99r			; 1.80995
	DD	000000000r			; 0
	DD	000000000r			; 0
	DD	040400000r			; 3
	DD	0447a0000r			; 1000
	DD	041200000r			; 10
	DD	03c8efa35r			; 0.0174533
	DD	000000000r			; 0
	DD	03f19999ar			; 0.6
	DD	03a83126fr			; 0.001
	DD	FLAT:??_C@_0BA@FCAADKOM@M197?520mm?5Round@
	DD	FLAT:??_C@_03NMPFMOLH@GUN@
	DD	FLAT:??_C@_03NMPFMOLH@GUN@
	DD	FLAT:??_C@_04GKJEHFPF@M197@
	DD	FLAT:??_C@_0BB@LCFGFHDI@M197?520mm?5Cannon@
	DD	0a0eH
	DD	00H
	DD	01H
	DD	00H
	DD	01H
	DD	00H
	DD	011H
	DD	02aH
	DD	02aH
	DD	00H
	DD	01fH
	DD	03cH
	DD	045H
	DD	0ffffffffH
	DD	00H
	DD	00H
	DD	01H
	DD	0cH
	DD	05H
	DD	00H
	DD	01H
	DD	01H
	DD	00H
	DD	01H
	DD	00H
	DD	00H
	DD	00H
	DD	00H
	DD	03H
	DD	03e839581r			; 0.257
	DD	000000000r			; 0
	DD	044c80000r			; 1600
	DD	043fa0000r			; 500
	DD	000000000r			; 0
	DD	044c80000r			; 1600
	DD	000000000r			; 0
	DD	0445d0000r			; 884
	DD	000000000r			; 0
	DD	0445d0000r			; 884
	DD	000000000r			; 0
	DD	000000000r			; 0
	DD	03fe7ac99r			; 1.80995
	DD	000000000r			; 0
	DD	000000000r			; 0
	DD	040400000r			; 3
	DD	0443b8000r			; 750
	DD	000000000r			; 0
	DD	03c8efa35r			; 0.0174533
	DD	000000000r			; 0
	DD	03f333333r			; 0.7
	DD	03aaec33er			; 0.00133333
	DD	FLAT:??_C@_0BE@MMDOIFJF@GAU?912?1U?525mm?5Round@
	DD	FLAT:??_C@_01OGPIMHDM@?$DP@
	DD	FLAT:??_C@_01OGPIMHDM@?$DP@
	DD	FLAT:??_C@_01OGPIMHDM@?$DP@
	DD	FLAT:??_C@_01OGPIMHDM@?$DP@
	DD	0a0cH
	DD	00H
	DD	01H
	DD	00H
	DD	01H
	DD	00H
	DD	010H
	DD	02aH
	DD	02aH
	DD	00H
	DD	0ffffffffH
	DD	0ffffffffH
	DD	0ffffffffH
	DD	0ffffffffH
	DD	00H
	DD	00H
	DD	01H
	DD	0fH
	DD	03H
	DD	00H
	DD	01H
	DD	01H
	DD	00H
	DD	01H
	DD	00H
	DD	00H
	DD	00H
	DD	00H
	DD	03H
	DD	000000000r			; 0
	DD	000000000r			; 0
	DD	044c80000r			; 1600
	DD	044160000r			; 600
	DD	000000000r			; 0
	DD	044c80000r			; 1600
	DD	000000000r			; 0
	DD	044836000r			; 1051
	DD	000000000r			; 0
	DD	044836000r			; 1051
	DD	000000000r			; 0
	DD	000000000r			; 0
	DD	03fc2dcaer			; 1.52236
	DD	000000000r			; 0
	DD	000000000r			; 0
	DD	040400000r			; 3
	DD	044ce4000r			; 1650
	DD	000000000r			; 0
	DD	03c8efa35r			; 0.0174533
	DD	000000000r			; 0
	DD	03f333333r			; 0.7
	DD	03a1ee00ar			; 0.000606061
	DD	FLAT:??_C@_0BA@PIBFIJJ@M242?525mm?5Round@
	DD	FLAT:??_C@_01OGPIMHDM@?$DP@
	DD	FLAT:??_C@_01OGPIMHDM@?$DP@
	DD	FLAT:??_C@_01OGPIMHDM@?$DP@
	DD	FLAT:??_C@_01OGPIMHDM@?$DP@
	DD	0a0fH
	DD	00H
	DD	01H
	DD	00H
	DD	01H
	DD	00H
	DD	010H
	DD	02aH
	DD	02aH
	DD	00H
	DD	0ffffffffH
	DD	0ffffffffH
	DD	0ffffffffH
	DD	0ffffffffH
	DD	00H
	DD	00H
	DD	01H
	DD	010H
	DD	06H
	DD	00H
	DD	01H
	DD	01H
	DD	00H
	DD	01H
	DD	00H
	DD	00H
	DD	00H
	DD	00H
	DD	0cH
	DD	000000000r			; 0
	DD	000000000r			; 0
	DD	0455ac000r			; 3500
	DD	044fa0000r			; 2000
	DD	000000000r			; 0
	DD	0455ac000r			; 3500
	DD	000000000r			; 0
	DD	0447a0000r			; 1000
	DD	000000000r			; 0
	DD	0447a0000r			; 1000
	DD	000000000r			; 0
	DD	000000000r			; 0
	DD	040600000r			; 3.5
	DD	000000000r			; 0
	DD	000000000r			; 0
	DD	040400000r			; 3
	DD	0447a0000r			; 1000
	DD	041100000r			; 9
	DD	03c8efa35r			; 0.0174533
	DD	000000000r			; 0
	DD	03f333333r			; 0.7
	DD	03a83126fr			; 0.001
	DD	FLAT:??_C@_0BD@ICDPJIJK@GAU?98?1A?530mm?5Round@
	DD	FLAT:??_C@_01OGPIMHDM@?$DP@
	DD	FLAT:??_C@_01OGPIMHDM@?$DP@
	DD	FLAT:??_C@_01OGPIMHDM@?$DP@
	DD	FLAT:??_C@_01OGPIMHDM@?$DP@
	DD	0a0cH
	DD	00H
	DD	01H
	DD	00H
	DD	03H
	DD	00H
	DD	010H
	DD	02bH
	DD	02bH
	DD	00H
	DD	0ffffffffH
	DD	0ffffffffH
	DD	0ffffffffH
	DD	0ffffffffH
	DD	00H
	DD	00H
	DD	01H
	DD	064H
	DD	064H
	DD	00H
	DD	01H
	DD	01H
	DD	00H
	DD	01H
	DD	00H
	DD	00H
	DD	00H
	DD	00H
	DD	03H
	DD	000000000r			; 0
	DD	000000000r			; 0
	DD	044960000r			; 1200
	DD	044160000r			; 600
	DD	000000000r			; 0
	DD	044960000r			; 1200
	DD	000000000r			; 0
	DD	04480c000r			; 1030
	DD	000000000r			; 0
	DD	04480c000r			; 1030
	DD	000000000r			; 0
	DD	000000000r			; 0
	DD	03f952050r			; 1.16505
	DD	000000000r			; 0
	DD	000000000r			; 0
	DD	040400000r			; 3
	DD	045034000r			; 2100
	DD	000000000r			; 0
	DD	03c8efa35r			; 0.0174533
	DD	000000000r			; 0
	DD	03e800000r			; 0.25
	DD	039f9a934r			; 0.00047619
	DD	FLAT:??_C@_0BA@CNLHFDJG@M230?530mm?5Round@
	DD	FLAT:??_C@_03NMPFMOLH@GUN@
	DD	FLAT:??_C@_01OGPIMHDM@?$DP@
	DD	FLAT:??_C@_04DKPHMJAK@M230@
	DD	FLAT:??_C@_0BE@EGAMEMKP@M230?530mm?5Chain?5Gun@
	DD	0a0eH
	DD	00H
	DD	01H
	DD	00H
	DD	02H
	DD	00H
	DD	010H
	DD	020H
	DD	015H
	DD	00H
	DD	01fH
	DD	03cH
	DD	045H
	DD	0ffffffffH
	DD	00H
	DD	032H
	DD	01H
	DD	01eH
	DD	0fH
	DD	00H
	DD	01H
	DD	01H
	DD	00H
	DD	01H
	DD	00H
	DD	00H
	DD	00H
	DD	00H
	DD	03H
	DD	03efd70a4r			; 0.495
	DD	000000000r			; 0
	DD	044960000r			; 1200
	DD	044480000r			; 800
	DD	000000000r			; 0
	DD	044960000r			; 1200
	DD	000000000r			; 0
	DD	044460000r			; 792
	DD	000000000r			; 0
	DD	044460000r			; 792
	DD	000000000r			; 0
	DD	000000000r			; 0
	DD	03fc1f07cr			; 1.51515
	DD	000000000r			; 0
	DD	000000000r			; 0
	DD	040400000r			; 3
	DD	0441c4000r			; 625
	DD	000000000r			; 0
	DD	03c8efa35r			; 0.0174533
	DD	000000000r			; 0
	DD	03f333333r			; 0.7
	DD	03ad1b717r			; 0.0016
	DD	FLAT:??_C@_0P@NKHLIJHL@M75?576mm?5Round@
	DD	FLAT:??_C@_01OGPIMHDM@?$DP@
	DD	FLAT:??_C@_01OGPIMHDM@?$DP@
	DD	FLAT:??_C@_01OGPIMHDM@?$DP@
	DD	FLAT:??_C@_01OGPIMHDM@?$DP@
	DD	0a08H
	DD	00H
	DD	02H
	DD	00H
	DD	02H
	DD	00H
	DD	01aH
	DD	02fH
	DD	02fH
	DD	00H
	DD	0ffffffffH
	DD	0ffffffffH
	DD	0ffffffffH
	DD	0ffffffffH
	DD	0ffffffffH
	DD	00H
	DD	00H
	DD	01c2H
	DD	01c2H
	DD	00H
	DD	00H
	DD	00H
	DD	00H
	DD	00H
	DD	01H
	DD	00H
	DD	00H
	DD	00H
	DD	08H
	DD	000000000r			; 0
	DD	04520b666r			; 2571.4
	DD	0457a0000r			; 4000
	DD	044fa0000r			; 2000
	DD	04520b666r			; 2571.4
	DD	0457a0000r			; 4000
	DD	03c4ccccdr			; 0.0125
	DD	04346199ar			; 198.1
	DD	000000000r			; 0
	DD	04346199ar			; 198.1
	DD	000000000r			; 0
	DD	000000000r			; 0
	DD	041e4cccdr			; 28.6
	DD	000000000r			; 0
	DD	000000000r			; 0
	DD	000000000r			; 0
	DD	000000000r			; 0
	DD	041a00000r			; 20
	DD	03c8efa35r			; 0.0174533
	DD	000000000r			; 0
	DD	000000000r			; 0
	DD	03c23d70ar			; 0.01
	DD	FLAT:??_C@_0BB@OLABECEF@M256?5120mm?5Round@
	DD	FLAT:??_C@_01OGPIMHDM@?$DP@
	DD	FLAT:??_C@_01OGPIMHDM@?$DP@
	DD	FLAT:??_C@_01OGPIMHDM@?$DP@
	DD	FLAT:??_C@_01OGPIMHDM@?$DP@
	DD	0a08H
	DD	00H
	DD	02H
	DD	00H
	DD	04H
	DD	00H
	DD	01aH
	DD	02fH
	DD	02fH
	DD	00H
	DD	0ffffffffH
	DD	0ffffffffH
	DD	0ffffffffH
	DD	0ffffffffH
	DD	0ffffffffH
	DD	00H
	DD	00H
	DD	027aH
	DD	027aH
	DD	00H
	DD	00H
	DD	00H
	DD	00H
	DD	00H
	DD	01H
	DD	00H
	DD	00H
	DD	00H
	DD	08H
	DD	000000000r			; 0
	DD	000000000r			; 0
	DD	0457a0000r			; 4000
	DD	044fa0000r			; 2000
	DD	000000000r			; 0
	DD	0457a0000r			; 4000
	DD	03c4ccccdr			; 0.0125
	DD	04377199ar			; 247.1
	DD	000000000r			; 0
	DD	04377199ar			; 247.1
	DD	000000000r			; 0
	DD	000000000r			; 0
	DD	04189999ar			; 17.2
	DD	000000000r			; 0
	DD	000000000r			; 0
	DD	000000000r			; 0
	DD	000000000r			; 0
	DD	041700000r			; 15
	DD	03c8efa35r			; 0.0174533
	DD	000000000r			; 0
	DD	03f000000r			; 0.5
	DD	03c23d70ar			; 0.01
	DD	FLAT:??_C@_0BB@DJHDCKCD@M284?5155mm?5Round@
	DD	FLAT:??_C@_01OGPIMHDM@?$DP@
	DD	FLAT:??_C@_01OGPIMHDM@?$DP@
	DD	FLAT:??_C@_01OGPIMHDM@?$DP@
	DD	FLAT:??_C@_01OGPIMHDM@?$DP@
	DD	0a08H
	DD	00H
	DD	02H
	DD	00H
	DD	04H
	DD	00H
	DD	01aH
	DD	02fH
	DD	02fH
	DD	00H
	DD	0ffffffffH
	DD	0ffffffffH
	DD	0ffffffffH
	DD	0ffffffffH
	DD	0ffffffffH
	DD	00H
	DD	00H
	DD	064aH
	DD	064aH
	DD	00H
	DD	00H
	DD	00H
	DD	00H
	DD	00H
	DD	01H
	DD	00H
	DD	00H
	DD	00H
	DD	08H
	DD	000000000r			; 0
	DD	000000000r			; 0
	DD	046ea6000r			; 30000
	DD	0466a6000r			; 15000
	DD	000000000r			; 0
	DD	046ea6000r			; 30000
	DD	03ba3d70ar			; 0.005
	DD	04407a000r			; 542.5
	DD	000000000r			; 0
	DD	04407a000r			; 542.5
	DD	000000000r			; 0
	DD	000000000r			; 0
	DD	0429c6666r			; 78.2
	DD	000000000r			; 0
	DD	000000000r			; 0
	DD	000000000r			; 0
	DD	000000000r			; 0
	DD	041a00000r			; 20
	DD	03c8efa35r			; 0.0174533
	DD	000000000r			; 0
	DD	000000000r			; 0
	DD	03c23d70ar			; 0.01
	DD	FLAT:??_C@_0BD@BLDKBEJL@M26A1?5227mm?5Rocket@
	DD	FLAT:??_C@_01OGPIMHDM@?$DP@
	DD	FLAT:??_C@_01OGPIMHDM@?$DP@
	DD	FLAT:??_C@_01OGPIMHDM@?$DP@
	DD	FLAT:??_C@_01OGPIMHDM@?$DP@
	DD	0ac6H
	DD	00H
	DD	02H
	DD	00H
	DD	04H
	DD	00H
	DD	01aH
	DD	017H
	DD	017H
	DD	057H
	DD	0ffffffffH
	DD	0ffffffffH
	DD	0ffffffffH
	DD	0ffffffffH
	DD	0ffffffffH
	DD	00H
	DD	00H
	DD	09c4H
	DD	09c4H
	DD	01H
	DD	00H
	DD	00H
	DD	00H
	DD	00H
	DD	01H
	DD	00H
	DD	00H
	DD	00H
	DD	08H
	DD	000000000r			; 0
	DD	04676e600r			; 15801.5
	DD	046f6e000r			; 31600
	DD	0466a6000r			; 15000
	DD	04676e600r			; 15801.5
	DD	046f6e000r			; 31600
	DD	03b9b8b57r			; 0.00474684
	DD	0440b3333r			; 556.8
	DD	000000000r			; 0
	DD	0440b3333r			; 556.8
	DD	000000000r			; 0
	DD	000000000r			; 0
	DD	042a0999ar			; 80.3
	DD	000000000r			; 0
	DD	000000000r			; 0
	DD	000000000r			; 0
	DD	000000000r			; 0
	DD	041c80000r			; 25
	DD	03c8efa35r			; 0.0174533
	DD	000000000r			; 0
	DD	000000000r			; 0
	DD	03c23d70ar			; 0.01
	DD	FLAT:??_C@_0N@OANBKDJO@12?47mm?5Round@
	DD	FLAT:??_C@_01OGPIMHDM@?$DP@
	DD	FLAT:??_C@_01OGPIMHDM@?$DP@
	DD	FLAT:??_C@_01OGPIMHDM@?$DP@
	DD	FLAT:??_C@_01OGPIMHDM@?$DP@
	DD	0a0fH
	DD	00H
	DD	01H
	DD	00H
	DD	01H
	DD	00H
	DD	010H
	DD	02aH
	DD	02aH
	DD	00H
	DD	0ffffffffH
	DD	0ffffffffH
	DD	0ffffffffH
	DD	0ffffffffH
	DD	00H
	DD	00H
	DD	01H
	DD	04H
	DD	00H
	DD	00H
	DD	01H
	DD	01H
	DD	00H
	DD	01H
	DD	00H
	DD	00H
	DD	00H
	DD	00H
	DD	0cH
	DD	000000000r			; 0
	DD	000000000r			; 0
	DD	044e10000r			; 1800
	DD	044160000r			; 600
	DD	000000000r			; 0
	DD	044e10000r			; 1800
	DD	000000000r			; 0
	DD	044160000r			; 600
	DD	000000000r			; 0
	DD	044160000r			; 600
	DD	000000000r			; 0
	DD	000000000r			; 0
	DD	040400000r			; 3
	DD	000000000r			; 0
	DD	000000000r			; 0
	DD	040400000r			; 3
	DD	0447a0000r			; 1000
	DD	041200000r			; 10
	DD	03c8efa35r			; 0.0174533
	DD	000000000r			; 0
	DD	03f19999ar			; 0.6
	DD	03a83126fr			; 0.001
	DD	FLAT:??_C@_05NPBDNBKI@Yak?9B@
	DD	FLAT:??_C@_05LOOAFBJC@YAK?9B@
	DD	FLAT:??_C@_05LOOAFBJC@YAK?9B@
	DD	FLAT:??_C@_05NPBDNBKI@Yak?9B@
	DD	FLAT:??_C@_0BJ@BKIOPJPD@Yak?9B?512?47mm?5Gatling?5Gun@
	DD	0a0cH
	DD	00H
	DD	01H
	DD	00H
	DD	01H
	DD	00H
	DD	011H
	DD	02aH
	DD	02aH
	DD	00H
	DD	01fH
	DD	03cH
	DD	045H
	DD	0ffffffffH
	DD	00H
	DD	00H
	DD	01H
	DD	05H
	DD	00H
	DD	00H
	DD	01H
	DD	01H
	DD	00H
	DD	01H
	DD	00H
	DD	00H
	DD	00H
	DD	00H
	DD	03H
	DD	03e083127r			; 0.133
	DD	000000000r			; 0
	DD	044bb8000r			; 1500
	DD	044480000r			; 800
	DD	000000000r			; 0
	DD	044bb8000r			; 1500
	DD	000000000r			; 0
	DD	044160000r			; 600
	DD	000000000r			; 0
	DD	044160000r			; 600
	DD	000000000r			; 0
	DD	000000000r			; 0
	DD	040200000r			; 2.5
	DD	000000000r			; 0
	DD	000000000r			; 0
	DD	040400000r			; 3
	DD	0457a0000r			; 4000
	DD	000000000r			; 0
	DD	03c8efa35r			; 0.0174533
	DD	000000000r			; 0
	DD	03f19999ar			; 0.6
	DD	03983126fr			; 0.00025
	DD	FLAT:??_C@_0N@LBJNGED@14?45mm?5Round@
	DD	FLAT:??_C@_01OGPIMHDM@?$DP@
	DD	FLAT:??_C@_01OGPIMHDM@?$DP@
	DD	FLAT:??_C@_01OGPIMHDM@?$DP@
	DD	FLAT:??_C@_01OGPIMHDM@?$DP@
	DD	0a0fH
	DD	00H
	DD	01H
	DD	00H
	DD	01H
	DD	00H
	DD	010H
	DD	02aH
	DD	02aH
	DD	00H
	DD	0ffffffffH
	DD	0ffffffffH
	DD	0ffffffffH
	DD	0ffffffffH
	DD	00H
	DD	00H
	DD	01H
	DD	06H
	DD	00H
	DD	00H
	DD	01H
	DD	01H
	DD	00H
	DD	01H
	DD	00H
	DD	00H
	DD	00H
	DD	00H
	DD	0cH
	DD	000000000r			; 0
	DD	000000000r			; 0
	DD	044c80000r			; 1600
	DD	044160000r			; 600
	DD	000000000r			; 0
	DD	044c80000r			; 1600
	DD	000000000r			; 0
	DD	044160000r			; 600
	DD	000000000r			; 0
	DD	044160000r			; 600
	DD	000000000r			; 0
	DD	000000000r			; 0
	DD	0402aaaabr			; 2.66667
	DD	000000000r			; 0
	DD	000000000r			; 0
	DD	040400000r			; 3
	DD	0447a0000r			; 1000
	DD	041400000r			; 12
	DD	03c8efa35r			; 0.0174533
	DD	000000000r			; 0
	DD	03f19999ar			; 0.6
	DD	03a83126fr			; 0.001
	DD	FLAT:??_C@_06LBAPKEBD@UPK?923@
	DD	FLAT:??_C@_06LBAPKEBD@UPK?923@
	DD	FLAT:??_C@_06LBAPKEBD@UPK?923@
	DD	FLAT:??_C@_06LBAPKEBD@UPK?923@
	DD	FLAT:??_C@_0BL@FHOAOHPB@UPK?923?9250?523mm?5Cannon?5Pod@
	DD	0a0cH
	DD	00H
	DD	01H
	DD	00H
	DD	01H
	DD	00H
	DD	012H
	DD	02bH
	DD	02bH
	DD	00H
	DD	021H
	DD	03cH
	DD	045H
	DD	0ffffffffH
	DD	00H
	DD	028H
	DD	01H
	DD	019H
	DD	08H
	DD	00H
	DD	01H
	DD	01H
	DD	00H
	DD	01H
	DD	00H
	DD	01H
	DD	00H
	DD	00H
	DD	03H
	DD	03f666666r			; 0.9
	DD	000000000r			; 0
	DD	044fa0000r			; 2000
	DD	043fa0000r			; 500
	DD	000000000r			; 0
	DD	044fa0000r			; 2000
	DD	000000000r			; 0
	DD	044688000r			; 930
	DD	000000000r			; 0
	DD	044688000r			; 930
	DD	000000000r			; 0
	DD	000000000r			; 0
	DD	04009a269r			; 2.15054
	DD	000000000r			; 0
	DD	000000000r			; 0
	DD	040400000r			; 3
	DD	045480000r			; 3200
	DD	000000000r			; 0
	DD	03c8efa35r			; 0.0174533
	DD	000000000r			; 0
	DD	03f333333r			; 0.7
	DD	039a3d70ar			; 0.0003125
	DD	FLAT:??_C@_0BD@NGCCPFHE@GSh?9301?530mm?5Round@
	DD	FLAT:??_C@_01OGPIMHDM@?$DP@
	DD	FLAT:??_C@_01OGPIMHDM@?$DP@
	DD	FLAT:??_C@_01OGPIMHDM@?$DP@
	DD	FLAT:??_C@_01OGPIMHDM@?$DP@
	DD	0a0eH
	DD	00H
	DD	01H
	DD	00H
	DD	02H
	DD	00H
	DD	010H
	DD	02bH
	DD	02bH
	DD	00H
	DD	0ffffffffH
	DD	0ffffffffH
	DD	0ffffffffH
	DD	0ffffffffH
	DD	00H
	DD	00H
	DD	01H
	DD	028H
	DD	019H
	DD	00H
	DD	01H
	DD	01H
	DD	00H
	DD	01H
	DD	00H
	DD	00H
	DD	00H
	DD	00H
	DD	03H
	DD	000000000r			; 0
	DD	000000000r			; 0
	DD	044c80000r			; 1600
	DD	044480000r			; 800
	DD	000000000r			; 0
	DD	044c80000r			; 1600
	DD	000000000r			; 0
	DD	044480000r			; 800
	DD	000000000r			; 0
	DD	044480000r			; 800
	DD	000000000r			; 0
	DD	000000000r			; 0
	DD	040000000r			; 2
	DD	000000000r			; 0
	DD	000000000r			; 0
	DD	040400000r			; 3
	DD	044bb8000r			; 1500
	DD	000000000r			; 0
	DD	03c8efa35r			; 0.0174533
	DD	000000000r			; 0
	DD	03f333333r			; 0.7
	DD	03a2ec33er			; 0.000666667
	DD	FLAT:??_C@_0BB@EJBEPNAJ@2A38M?530mm?5Round@
	DD	FLAT:??_C@_01OGPIMHDM@?$DP@
	DD	FLAT:??_C@_01OGPIMHDM@?$DP@
	DD	FLAT:??_C@_01OGPIMHDM@?$DP@
	DD	FLAT:??_C@_01OGPIMHDM@?$DP@
	DD	0a0eH
	DD	00H
	DD	01H
	DD	00H
	DD	02H
	DD	00H
	DD	010H
	DD	02bH
	DD	02bH
	DD	00H
	DD	0ffffffffH
	DD	0ffffffffH
	DD	0ffffffffH
	DD	0ffffffffH
	DD	00H
	DD	00H
	DD	01H
	DD	019H
	DD	0aH
	DD	00H
	DD	01H
	DD	01H
	DD	00H
	DD	01H
	DD	00H
	DD	00H
	DD	00H
	DD	00H
	DD	04H
	DD	000000000r			; 0
	DD	000000000r			; 0
	DD	0451c4000r			; 2500
	DD	044bb8000r			; 1500
	DD	000000000r			; 0
	DD	0451c4000r			; 2500
	DD	000000000r			; 0
	DD	044700000r			; 960
	DD	000000000r			; 0
	DD	044960000r			; 1200
	DD	000000000r			; 0
	DD	000000000r			; 0
	DD	040055555r			; 2.08333
	DD	000000000r			; 0
	DD	000000000r			; 0
	DD	040400000r			; 3
	DD	044fa0000r			; 2000
	DD	041700000r			; 15
	DD	03c8efa35r			; 0.0174533
	DD	000000000r			; 0
	DD	03f333333r			; 0.7
	DD	03a03126fr			; 0.0005
	DD	FLAT:??_C@_0BA@GOILCIOL@2A42?530mm?5Round@
	DD	FLAT:??_C@_01OGPIMHDM@?$DP@
	DD	FLAT:??_C@_01OGPIMHDM@?$DP@
	DD	FLAT:??_C@_01OGPIMHDM@?$DP@
	DD	FLAT:??_C@_01OGPIMHDM@?$DP@
	DD	0a0cH
	DD	00H
	DD	01H
	DD	00H
	DD	02H
	DD	00H
	DD	010H
	DD	02bH
	DD	02bH
	DD	00H
	DD	0ffffffffH
	DD	0ffffffffH
	DD	0ffffffffH
	DD	0ffffffffH
	DD	00H
	DD	00H
	DD	01H
	DD	01eH
	DD	0fH
	DD	00H
	DD	01H
	DD	01H
	DD	00H
	DD	01H
	DD	00H
	DD	00H
	DD	00H
	DD	00H
	DD	0cH
	DD	000000000r			; 0
	DD	000000000r			; 0
	DD	0457a0000r			; 4000
	DD	044480000r			; 800
	DD	000000000r			; 0
	DD	0457a0000r			; 4000
	DD	000000000r			; 0
	DD	0447a0000r			; 1000
	DD	000000000r			; 0
	DD	0447a0000r			; 1000
	DD	000000000r			; 0
	DD	000000000r			; 0
	DD	040800000r			; 4
	DD	000000000r			; 0
	DD	000000000r			; 0
	DD	040400000r			; 3
	DD	044160000r			; 600
	DD	041700000r			; 15
	DD	03c8efa35r			; 0.0174533
	DD	000000000r			; 0
	DD	03f19999ar			; 0.6
	DD	03ada740er			; 0.00166667
	DD	FLAT:??_C@_0BD@LJGEFFKM@2A42?530mm?5HE?5Round@
	DD	FLAT:??_C@_07KICNLOBD@Gun?$CIHE?$CJ@
	DD	FLAT:??_C@_01OGPIMHDM@?$DP@
	DD	FLAT:??_C@_09BNELPKNF@2A42?5?$CIHE?$CJ@
	DD	FLAT:??_C@_0BB@CMAOEJIJ@2A42?530mm?5Cannon@
	DD	0a0cH
	DD	00H
	DD	01H
	DD	00H
	DD	02H
	DD	00H
	DD	010H
	DD	020H
	DD	015H
	DD	00H
	DD	020H
	DD	03cH
	DD	045H
	DD	0ffffffffH
	DD	00H
	DD	014H
	DD	01H
	DD	01eH
	DD	0fH
	DD	00H
	DD	01H
	DD	01H
	DD	00H
	DD	01H
	DD	00H
	DD	00H
	DD	00H
	DD	00H
	DD	03H
	DD	03f800000r			; 1
	DD	000000000r			; 0
	DD	044fa0000r			; 2000
	DD	044160000r			; 600
	DD	000000000r			; 0
	DD	044fa0000r			; 2000
	DD	000000000r			; 0
	DD	0447a0000r			; 1000
	DD	000000000r			; 0
	DD	0447a0000r			; 1000
	DD	000000000r			; 0
	DD	000000000r			; 0
	DD	040000000r			; 2
	DD	000000000r			; 0
	DD	000000000r			; 0
	DD	040400000r			; 3
	DD	044160000r			; 600
	DD	000000000r			; 0
	DD	03c8efa35r			; 0.0174533
	DD	000000000r			; 0
	DD	03f19999ar			; 0.6
	DD	03ada740er			; 0.00166667
	DD	FLAT:??_C@_0BD@CBJMNMLI@2A42?530mm?5AP?5Round@
	DD	FLAT:??_C@_07MPMIJAAC@Gun?$CIAP?$CJ@
	DD	FLAT:??_C@_01OGPIMHDM@?$DP@
	DD	FLAT:??_C@_09HKKONEME@2A42?5?$CIAP?$CJ@
	DD	FLAT:??_C@_0BB@CMAOEJIJ@2A42?530mm?5Cannon@
	DD	0a0cH
	DD	00H
	DD	01H
	DD	00H
	DD	03H
	DD	00H
	DD	010H
	DD	020H
	DD	015H
	DD	00H
	DD	029H
	DD	03cH
	DD	045H
	DD	0ffffffffH
	DD	00H
	DD	014H
	DD	01H
	DD	019H
	DD	019H
	DD	00H
	DD	01H
	DD	01H
	DD	00H
	DD	01H
	DD	00H
	DD	00H
	DD	00H
	DD	00H
	DD	03H
	DD	03f800000r			; 1
	DD	000000000r			; 0
	DD	044fa0000r			; 2000
	DD	044160000r			; 600
	DD	000000000r			; 0
	DD	044fa0000r			; 2000
	DD	000000000r			; 0
	DD	0447a0000r			; 1000
	DD	000000000r			; 0
	DD	0447a0000r			; 1000
	DD	000000000r			; 0
	DD	000000000r			; 0
	DD	040000000r			; 2
	DD	000000000r			; 0
	DD	000000000r			; 0
	DD	040400000r			; 3
	DD	043af0000r			; 350
	DD	000000000r			; 0
	DD	03c8efa35r			; 0.0174533
	DD	000000000r			; 0
	DD	03f19999ar			; 0.6
	DD	03b3b3ee7r			; 0.00285714
	DD	FLAT:??_C@_0BA@BCOKANDA@2A72?530mm?5Round@
	DD	FLAT:??_C@_01OGPIMHDM@?$DP@
	DD	FLAT:??_C@_01OGPIMHDM@?$DP@
	DD	FLAT:??_C@_01OGPIMHDM@?$DP@
	DD	FLAT:??_C@_01OGPIMHDM@?$DP@
	DD	0a0eH
	DD	00H
	DD	01H
	DD	00H
	DD	02H
	DD	00H
	DD	010H
	DD	02bH
	DD	02bH
	DD	00H
	DD	0ffffffffH
	DD	0ffffffffH
	DD	0ffffffffH
	DD	0ffffffffH
	DD	00H
	DD	00H
	DD	01H
	DD	01eH
	DD	0fH
	DD	00H
	DD	01H
	DD	01H
	DD	00H
	DD	01H
	DD	00H
	DD	00H
	DD	00H
	DD	00H
	DD	0cH
	DD	000000000r			; 0
	DD	000000000r			; 0
	DD	044fa0000r			; 2000
	DD	0447a0000r			; 1000
	DD	000000000r			; 0
	DD	044fa0000r			; 2000
	DD	000000000r			; 0
	DD	044480000r			; 800
	DD	000000000r			; 0
	DD	044480000r			; 800
	DD	000000000r			; 0
	DD	000000000r			; 0
	DD	040200000r			; 2.5
	DD	000000000r			; 0
	DD	000000000r			; 0
	DD	040400000r			; 3
	DD	0447a0000r			; 1000
	DD	041800000r			; 16
	DD	03c8efa35r			; 0.0174533
	DD	000000000r			; 0
	DD	03f333333r			; 0.7
	DD	03c23d70ar			; 0.01
	DD	FLAT:??_C@_0BC@DOPOIKMK@AO?917A?530mm?5Round@
	DD	FLAT:??_C@_01OGPIMHDM@?$DP@
	DD	FLAT:??_C@_01OGPIMHDM@?$DP@
	DD	FLAT:??_C@_01OGPIMHDM@?$DP@
	DD	FLAT:??_C@_01OGPIMHDM@?$DP@
	DD	0a0eH
	DD	00H
	DD	01H
	DD	00H
	DD	03H
	DD	00H
	DD	010H
	DD	02bH
	DD	02bH
	DD	00H
	DD	0ffffffffH
	DD	0ffffffffH
	DD	0ffffffffH
	DD	0ffffffffH
	DD	00H
	DD	00H
	DD	01H
	DD	01eH
	DD	0fH
	DD	00H
	DD	01H
	DD	01H
	DD	00H
	DD	01H
	DD	00H
	DD	00H
	DD	00H
	DD	00H
	DD	03H
	DD	000000000r			; 0
	DD	000000000r			; 0
	DD	044bb8000r			; 1500
	DD	044480000r			; 800
	DD	000000000r			; 0
	DD	044bb8000r			; 1500
	DD	000000000r			; 0
	DD	0447a0000r			; 1000
	DD	000000000r			; 0
	DD	0447a0000r			; 1000
	DD	000000000r			; 0
	DD	000000000r			; 0
	DD	03fc00000r			; 1.5
	DD	000000000r			; 0
	DD	000000000r			; 0
	DD	040400000r			; 3
	DD	042c80000r			; 100
	DD	000000000r			; 0
	DD	03c8efa35r			; 0.0174533
	DD	000000000r			; 0
	DD	03f333333r			; 0.7
	DD	03c23d70ar			; 0.01
	DD	FLAT:??_C@_0BE@LNOJLHAE@ADMG?9630?530mm?5Round@
	DD	FLAT:??_C@_01OGPIMHDM@?$DP@
	DD	FLAT:??_C@_01OGPIMHDM@?$DP@
	DD	FLAT:??_C@_01OGPIMHDM@?$DP@
	DD	FLAT:??_C@_01OGPIMHDM@?$DP@
	DD	0a0fH
	DD	00H
	DD	01H
	DD	00H
	DD	02H
	DD	00H
	DD	010H
	DD	02bH
	DD	02bH
	DD	00H
	DD	0ffffffffH
	DD	0ffffffffH
	DD	0ffffffffH
	DD	0ffffffffH
	DD	00H
	DD	00H
	DD	01H
	DD	01eH
	DD	0fH
	DD	00H
	DD	01H
	DD	01H
	DD	00H
	DD	01H
	DD	00H
	DD	00H
	DD	00H
	DD	00H
	DD	04H
	DD	000000000r			; 0
	DD	000000000r			; 0
	DD	044bb8000r			; 1500
	DD	0447a0000r			; 1000
	DD	000000000r			; 0
	DD	044bb8000r			; 1500
	DD	000000000r			; 0
	DD	044480000r			; 800
	DD	000000000r			; 0
	DD	044480000r			; 800
	DD	000000000r			; 0
	DD	000000000r			; 0
	DD	03ff00000r			; 1.875
	DD	000000000r			; 0
	DD	000000000r			; 0
	DD	040400000r			; 3
	DD	0447a0000r			; 1000
	DD	041100000r			; 9
	DD	03c8efa35r			; 0.0174533
	DD	000000000r			; 0
	DD	03f333333r			; 0.7
	DD	03c23d70ar			; 0.01
	DD	FLAT:??_C@_0L@JMKGFJLB@76mm?5Round@
	DD	FLAT:??_C@_01OGPIMHDM@?$DP@
	DD	FLAT:??_C@_01OGPIMHDM@?$DP@
	DD	FLAT:??_C@_01OGPIMHDM@?$DP@
	DD	FLAT:??_C@_01OGPIMHDM@?$DP@
	DD	0a08H
	DD	00H
	DD	02H
	DD	00H
	DD	04H
	DD	00H
	DD	01aH
	DD	02fH
	DD	02fH
	DD	00H
	DD	0ffffffffH
	DD	0ffffffffH
	DD	0ffffffffH
	DD	0ffffffffH
	DD	0ffffffffH
	DD	00H
	DD	00H
	DD	01c2H
	DD	01c2H
	DD	00H
	DD	00H
	DD	00H
	DD	00H
	DD	00H
	DD	01H
	DD	00H
	DD	00H
	DD	00H
	DD	08H
	DD	000000000r			; 0
	DD	000000000r			; 0
	DD	0457a0000r			; 4000
	DD	044fa0000r			; 2000
	DD	000000000r			; 0
	DD	0457a0000r			; 4000
	DD	03c4ccccdr			; 0.0125
	DD	04346199ar			; 198.1
	DD	000000000r			; 0
	DD	04346199ar			; 198.1
	DD	000000000r			; 0
	DD	000000000r			; 0
	DD	041e4cccdr			; 28.6
	DD	000000000r			; 0
	DD	000000000r			; 0
	DD	000000000r			; 0
	DD	000000000r			; 0
	DD	041a00000r			; 20
	DD	03c8efa35r			; 0.0174533
	DD	000000000r			; 0
	DD	000000000r			; 0
	DD	03c23d70ar			; 0.01
	DD	FLAT:??_C@_0M@CHFNDBJN@100mm?5Round@
	DD	FLAT:??_C@_01OGPIMHDM@?$DP@
	DD	FLAT:??_C@_01OGPIMHDM@?$DP@
	DD	FLAT:??_C@_01OGPIMHDM@?$DP@
	DD	FLAT:??_C@_01OGPIMHDM@?$DP@
	DD	0a08H
	DD	00H
	DD	02H
	DD	00H
	DD	04H
	DD	00H
	DD	01aH
	DD	02fH
	DD	02fH
	DD	00H
	DD	0ffffffffH
	DD	0ffffffffH
	DD	0ffffffffH
	DD	0ffffffffH
	DD	0ffffffffH
	DD	00H
	DD	00H
	DD	028aH
	DD	028aH
	DD	00H
	DD	00H
	DD	00H
	DD	00H
	DD	00H
	DD	01H
	DD	00H
	DD	00H
	DD	00H
	DD	08H
	DD	000000000r			; 0
	DD	000000000r			; 0
	DD	0457a0000r			; 4000
	DD	044fa0000r			; 2000
	DD	000000000r			; 0
	DD	0457a0000r			; 4000
	DD	03c4ccccdr			; 0.0125
	DD	04346199ar			; 198.1
	DD	000000000r			; 0
	DD	04346199ar			; 198.1
	DD	000000000r			; 0
	DD	000000000r			; 0
	DD	041e4cccdr			; 28.6
	DD	000000000r			; 0
	DD	000000000r			; 0
	DD	000000000r			; 0
	DD	000000000r			; 0
	DD	041c80000r			; 25
	DD	03c8efa35r			; 0.0174533
	DD	000000000r			; 0
	DD	000000000r			; 0
	DD	03c23d70ar			; 0.01
	DD	FLAT:??_C@_0BB@MOENKJC@2K23?5100mm?5Round@
	DD	FLAT:??_C@_01OGPIMHDM@?$DP@
	DD	FLAT:??_C@_01OGPIMHDM@?$DP@
	DD	FLAT:??_C@_01OGPIMHDM@?$DP@
	DD	FLAT:??_C@_01OGPIMHDM@?$DP@
	DD	0a08H
	DD	00H
	DD	02H
	DD	00H
	DD	04H
	DD	00H
	DD	01aH
	DD	02fH
	DD	02fH
	DD	00H
	DD	0ffffffffH
	DD	0ffffffffH
	DD	0ffffffffH
	DD	0ffffffffH
	DD	0ffffffffH
	DD	00H
	DD	00H
	DD	028aH
	DD	028aH
	DD	00H
	DD	00H
	DD	00H
	DD	00H
	DD	00H
	DD	01H
	DD	00H
	DD	00H
	DD	00H
	DD	08H
	DD	000000000r			; 0
	DD	000000000r			; 0
	DD	0457a0000r			; 4000
	DD	044fa0000r			; 2000
	DD	000000000r			; 0
	DD	0457a0000r			; 4000
	DD	03c4ccccdr			; 0.0125
	DD	04346199ar			; 198.1
	DD	000000000r			; 0
	DD	04346199ar			; 198.1
	DD	000000000r			; 0
	DD	000000000r			; 0
	DD	041e4cccdr			; 28.6
	DD	000000000r			; 0
	DD	000000000r			; 0
	DD	000000000r			; 0
	DD	000000000r			; 0
	DD	041b00000r			; 22
	DD	03c8efa35r			; 0.0174533
	DD	000000000r			; 0
	DD	03e99999ar			; 0.3
	DD	03c23d70ar			; 0.01
	DD	FLAT:??_C@_0BD@PPFKPIHF@BM?921?5122mm?5Rocket@
	DD	FLAT:??_C@_01OGPIMHDM@?$DP@
	DD	FLAT:??_C@_01OGPIMHDM@?$DP@
	DD	FLAT:??_C@_01OGPIMHDM@?$DP@
	DD	FLAT:??_C@_01OGPIMHDM@?$DP@
	DD	0ac4H
	DD	00H
	DD	02H
	DD	00H
	DD	02H
	DD	00H
	DD	01aH
	DD	017H
	DD	017H
	DD	056H
	DD	0ffffffffH
	DD	0ffffffffH
	DD	0ffffffffH
	DD	0ffffffffH
	DD	0ffffffffH
	DD	00H
	DD	00H
	DD	0578H
	DD	0578H
	DD	01H
	DD	00H
	DD	00H
	DD	00H
	DD	00H
	DD	01H
	DD	00H
	DD	00H
	DD	00H
	DD	08H
	DD	000000000r			; 0
	DD	045a2cb33r			; 5209.4
	DD	046ea6000r			; 30000
	DD	0466a6000r			; 15000
	DD	045a2cb33r			; 5209.4
	DD	046ea6000r			; 30000
	DD	03ba3d70ar			; 0.005
	DD	04407a000r			; 542.5
	DD	000000000r			; 0
	DD	04407a000r			; 542.5
	DD	000000000r			; 0
	DD	000000000r			; 0
	DD	0429c6666r			; 78.2
	DD	000000000r			; 0
	DD	000000000r			; 0
	DD	000000000r			; 0
	DD	000000000r			; 0
	DD	041a00000r			; 20
	DD	03c8efa35r			; 0.0174533
	DD	000000000r			; 0
	DD	000000000r			; 0
	DD	03c23d70ar			; 0.01
	DD	FLAT:??_C@_0BD@HHEJIGHP@2A46M1?5125mm?5Round@
	DD	FLAT:??_C@_01OGPIMHDM@?$DP@
	DD	FLAT:??_C@_01OGPIMHDM@?$DP@
	DD	FLAT:??_C@_01OGPIMHDM@?$DP@
	DD	FLAT:??_C@_01OGPIMHDM@?$DP@
	DD	0a08H
	DD	00H
	DD	02H
	DD	00H
	DD	04H
	DD	00H
	DD	01aH
	DD	02fH
	DD	02fH
	DD	00H
	DD	0ffffffffH
	DD	0ffffffffH
	DD	0ffffffffH
	DD	0ffffffffH
	DD	0ffffffffH
	DD	00H
	DD	00H
	DD	02b0H
	DD	02b0H
	DD	00H
	DD	00H
	DD	00H
	DD	00H
	DD	00H
	DD	01H
	DD	00H
	DD	00H
	DD	00H
	DD	08H
	DD	000000000r			; 0
	DD	000000000r			; 0
	DD	0457a0000r			; 4000
	DD	0453b8000r			; 3000
	DD	000000000r			; 0
	DD	0457a0000r			; 4000
	DD	03c4ccccdr			; 0.0125
	DD	043908ccdr			; 289.1
	DD	000000000r			; 0
	DD	043908ccdr			; 289.1
	DD	000000000r			; 0
	DD	000000000r			; 0
	DD	04164cccdr			; 14.3
	DD	000000000r			; 0
	DD	000000000r			; 0
	DD	000000000r			; 0
	DD	000000000r			; 0
	DD	041700000r			; 15
	DD	03c8efa35r			; 0.0174533
	DD	000000000r			; 0
	DD	03f000000r			; 0.5
	DD	03c23d70ar			; 0.01
	DD	FLAT:??_C@_0BB@PPELDCBE@2A65?5152mm?5Round@
	DD	FLAT:??_C@_01OGPIMHDM@?$DP@
	DD	FLAT:??_C@_01OGPIMHDM@?$DP@
	DD	FLAT:??_C@_01OGPIMHDM@?$DP@
	DD	FLAT:??_C@_01OGPIMHDM@?$DP@
	DD	0a08H
	DD	00H
	DD	02H
	DD	00H
	DD	02H
	DD	00H
	DD	01aH
	DD	02fH
	DD	02fH
	DD	00H
	DD	0ffffffffH
	DD	0ffffffffH
	DD	0ffffffffH
	DD	0ffffffffH
	DD	0ffffffffH
	DD	00H
	DD	00H
	DD	060cH
	DD	060cH
	DD	00H
	DD	00H
	DD	00H
	DD	00H
	DD	00H
	DD	01H
	DD	00H
	DD	00H
	DD	00H
	DD	08H
	DD	000000000r			; 0
	DD	000000000r			; 0
	DD	046bb8000r			; 24000
	DD	0463b8000r			; 12000
	DD	000000000r			; 0
	DD	046bb8000r			; 24000
	DD	03bcccccdr			; 0.00625
	DD	043f2999ar			; 485.2
	DD	000000000r			; 0
	DD	043f2999ar			; 485.2
	DD	000000000r			; 0
	DD	000000000r			; 0
	DD	0428bcccdr			; 69.9
	DD	000000000r			; 0
	DD	000000000r			; 0
	DD	000000000r			; 0
	DD	000000000r			; 0
	DD	041c80000r			; 25
	DD	03c8efa35r			; 0.0174533
	DD	000000000r			; 0
	DD	03f333333r			; 0.7
	DD	03c23d70ar			; 0.01
	DD	FLAT:??_C@_0O@KBMPLCE@Hydra?570?5M255@
	DD	FLAT:??_C@_07MBMLHLJI@RKT?$CIHE?$CJ@
	DD	FLAT:??_C@_07MBMLHLJI@RKT?$CIHE?$CJ@
	DD	FLAT:??_C@_04EDANEBPN@M255@
	DD	FLAT:??_C@_0O@KBMPLCE@Hydra?570?5M255@
	DD	0ab3H
	DD	00H
	DD	01H
	DD	00H
	DD	02H
	DD	00H
	DD	01aH
	DD	022H
	DD	017H
	DD	056H
	DD	027H
	DD	03dH
	DD	046H
	DD	0ffffffffH
	DD	01H
	DD	05H
	DD	00H
	DD	01f4H
	DD	078H
	DD	01H
	DD	01H
	DD	01H
	DD	00H
	DD	01H
	DD	01H
	DD	01H
	DD	00H
	DD	00H
	DD	02H
	DD	040c00000r			; 6
	DD	042c80000r			; 100
	DD	0459c4000r			; 5000
	DD	044480000r			; 800
	DD	042c80000r			; 100
	DD	0459c4000r			; 5000
	DD	000000000r			; 0
	DD	042480000r			; 50
	DD	000000000r			; 0
	DD	044548000r			; 850
	DD	043932667r			; 294.3
	DD	0402df3b6r			; 2.718
	DD	0408e2d0er			; 4.443
	DD	000000000r			; 0
	DD	000000000r			; 0
	DD	000000000r			; 0
	DD	000000000r			; 0
	DD	000000000r			; 0
	DD	03ae4c388r			; 0.00174533
	DD	000000000r			; 0
	DD	03e99999ar			; 0.3
	DD	03c23d70ar			; 0.01
	DD	FLAT:??_C@_0O@GMDGIAHJ@Hydra?570?5M261@
	DD	FLAT:??_C@_07OMPIOKDB@RKT?$CIMP?$CJ@
	DD	FLAT:??_C@_07OMPIOKDB@RKT?$CIMP?$CJ@
	DD	FLAT:??_C@_04CFCHDKKA@M261@
	DD	FLAT:??_C@_0O@GMDGIAHJ@Hydra?570?5M261@
	DD	0ab3H
	DD	00H
	DD	01H
	DD	00H
	DD	04H
	DD	00H
	DD	01aH
	DD	022H
	DD	017H
	DD	056H
	DD	030H
	DD	03dH
	DD	046H
	DD	0ffffffffH
	DD	01H
	DD	05H
	DD	00H
	DD	0258H
	DD	0190H
	DD	01H
	DD	01H
	DD	01H
	DD	00H
	DD	01H
	DD	01H
	DD	01H
	DD	00H
	DD	00H
	DD	02H
	DD	040c00000r			; 6
	DD	042c80000r			; 100
	DD	0459c4000r			; 5000
	DD	044480000r			; 800
	DD	042c80000r			; 100
	DD	0459c4000r			; 5000
	DD	000000000r			; 0
	DD	042480000r			; 50
	DD	000000000r			; 0
	DD	044548000r			; 850
	DD	043932667r			; 294.3
	DD	0402df3b6r			; 2.718
	DD	0408e2d0er			; 4.443
	DD	000000000r			; 0
	DD	000000000r			; 0
	DD	000000000r			; 0
	DD	000000000r			; 0
	DD	000000000r			; 0
	DD	03ae4c388r			; 0.00174533
	DD	000000000r			; 0
	DD	03e99999ar			; 0.3
	DD	03c23d70ar			; 0.01
	DD	FLAT:??_C@_08HHIJIMFN@LAU?969?1A@
	DD	FLAT:??_C@_01OGPIMHDM@?$DP@
	DD	FLAT:??_C@_01OGPIMHDM@?$DP@
	DD	FLAT:??_C@_01OGPIMHDM@?$DP@
	DD	FLAT:??_C@_01OGPIMHDM@?$DP@
	DD	0ab3H
	DD	00H
	DD	01H
	DD	00H
	DD	02H
	DD	00H
	DD	01aH
	DD	017H
	DD	017H
	DD	056H
	DD	0ffffffffH
	DD	0ffffffffH
	DD	0ffffffffH
	DD	0ffffffffH
	DD	01H
	DD	00H
	DD	00H
	DD	01f4H
	DD	096H
	DD	01H
	DD	01H
	DD	01H
	DD	00H
	DD	01H
	DD	01H
	DD	00H
	DD	00H
	DD	00H
	DD	02H
	DD	000000000r			; 0
	DD	042c80000r			; 100
	DD	0459c4000r			; 5000
	DD	0443b8000r			; 750
	DD	042c80000r			; 100
	DD	0459c4000r			; 5000
	DD	000000000r			; 0
	DD	042480000r			; 50
	DD	000000000r			; 0
	DD	044548000r			; 850
	DD	043932667r			; 294.3
	DD	0402df3b6r			; 2.718
	DD	0408e2d0er			; 4.443
	DD	000000000r			; 0
	DD	000000000r			; 0
	DD	000000000r			; 0
	DD	000000000r			; 0
	DD	000000000r			; 0
	DD	03ae4c388r			; 0.00174533
	DD	000000000r			; 0
	DD	03e99999ar			; 0.3
	DD	03c23d70ar			; 0.01
	DD	FLAT:??_C@_03JFKHJHKK@S?95@
	DD	FLAT:??_C@_03JFKHJHKK@S?95@
	DD	FLAT:??_C@_03JFKHJHKK@S?95@
	DD	FLAT:??_C@_03JFKHJHKK@S?95@
	DD	FLAT:??_C@_03JFKHJHKK@S?95@
	DD	0aaeH
	DD	00H
	DD	01H
	DD	00H
	DD	02H
	DD	00H
	DD	01aH
	DD	017H
	DD	017H
	DD	056H
	DD	027H
	DD	03dH
	DD	046H
	DD	0ffffffffH
	DD	01H
	DD	00H
	DD	00H
	DD	01f4H
	DD	096H
	DD	01H
	DD	01H
	DD	01H
	DD	00H
	DD	01H
	DD	01H
	DD	00H
	DD	00H
	DD	00H
	DD	02H
	DD	041040000r			; 8.25
	DD	042c80000r			; 100
	DD	0453b8000r			; 3000
	DD	044160000r			; 600
	DD	042c80000r			; 100
	DD	0453b8000r			; 3000
	DD	000000000r			; 0
	DD	042480000r			; 50
	DD	000000000r			; 0
	DD	0442f0000r			; 700
	DD	043932667r			; 294.3
	DD	0400d6042r			; 2.209
	DD	04046978dr			; 3.103
	DD	000000000r			; 0
	DD	000000000r			; 0
	DD	000000000r			; 0
	DD	000000000r			; 0
	DD	000000000r			; 0
	DD	03ae4c388r			; 0.00174533
	DD	000000000r			; 0
	DD	03e99999ar			; 0.3
	DD	03c23d70ar			; 0.01
	DD	FLAT:??_C@_03CAAJOJOH@S?98@
	DD	FLAT:??_C@_03CAAJOJOH@S?98@
	DD	FLAT:??_C@_03CAAJOJOH@S?98@
	DD	FLAT:??_C@_03CAAJOJOH@S?98@
	DD	FLAT:??_C@_03CAAJOJOH@S?98@
	DD	0aafH
	DD	00H
	DD	01H
	DD	00H
	DD	04H
	DD	00H
	DD	01aH
	DD	017H
	DD	017H
	DD	056H
	DD	027H
	DD	03dH
	DD	046H
	DD	0ffffffffH
	DD	01H
	DD	05H
	DD	00H
	DD	0258H
	DD	0190H
	DD	01H
	DD	01H
	DD	01H
	DD	00H
	DD	01H
	DD	01H
	DD	01H
	DD	00H
	DD	00H
	DD	02H
	DD	04184cccdr			; 16.6
	DD	042c80000r			; 100
	DD	0457a0000r			; 4000
	DD	044160000r			; 600
	DD	042c80000r			; 100
	DD	0457a0000r			; 4000
	DD	000000000r			; 0
	DD	042480000r			; 50
	DD	000000000r			; 0
	DD	0443b8000r			; 750
	DD	043932667r			; 294.3
	DD	040184189r			; 2.379
	DD	04082147br			; 4.065
	DD	000000000r			; 0
	DD	000000000r			; 0
	DD	000000000r			; 0
	DD	000000000r			; 0
	DD	000000000r			; 0
	DD	03ae4c388r			; 0.00174533
	DD	000000000r			; 0
	DD	03e99999ar			; 0.3
	DD	03c23d70ar			; 0.01
	DD	FLAT:??_C@_04MFPECAIN@S?913@
	DD	FLAT:??_C@_04MFPECAIN@S?913@
	DD	FLAT:??_C@_04MFPECAIN@S?913@
	DD	FLAT:??_C@_04MFPECAIN@S?913@
	DD	FLAT:??_C@_04MFPECAIN@S?913@
	DD	0aadH
	DD	00H
	DD	01H
	DD	00H
	DD	04H
	DD	00H
	DD	01aH
	DD	017H
	DD	017H
	DD	057H
	DD	030H
	DD	03dH
	DD	046H
	DD	0ffffffffH
	DD	01H
	DD	03H
	DD	00H
	DD	0320H
	DD	0226H
	DD	01H
	DD	01H
	DD	01H
	DD	00H
	DD	01H
	DD	01H
	DD	01H
	DD	00H
	DD	00H
	DD	02H
	DD	042880000r			; 68
	DD	042c80000r			; 100
	DD	045bb8000r			; 6000
	DD	044160000r			; 600
	DD	042c80000r			; 100
	DD	045bb8000r			; 6000
	DD	000000000r			; 0
	DD	042480000r			; 50
	DD	000000000r			; 0
	DD	044480000r			; 800
	DD	043932667r			; 294.3
	DD	04023126fr			; 2.548
	DD	040c4ac08r			; 6.146
	DD	000000000r			; 0
	DD	000000000r			; 0
	DD	000000000r			; 0
	DD	000000000r			; 0
	DD	000000000r			; 0
	DD	03ae4c388r			; 0.00174533
	DD	000000000r			; 0
	DD	03e99999ar			; 0.3
	DD	03c23d70ar			; 0.01
	DD	FLAT:??_C@_0BA@BIFGEJCB@AIM?992A?5Stinger@
	DD	FLAT:??_C@_03MJJMMJAE@AAM@
	DD	FLAT:??_C@_03MJJMMJAE@AAM@
	DD	FLAT:??_C@_06JMEJGEJN@AIM?992@
	DD	FLAT:??_C@_0P@EKLPJAGG@AIM?992?5Stinger@
	DD	0ab4H
	DD	01H
	DD	01H
	DD	00H
	DD	02H
	DD	02H
	DD	01aH
	DD	07d8H
	DD	07d9H
	DD	056H
	DD	022H
	DD	03fH
	DD	048H
	DD	034H
	DD	02H
	DD	01H
	DD	00H
	DD	0226H
	DD	00H
	DD	01H
	DD	01H
	DD	00H
	DD	00H
	DD	01H
	DD	01H
	DD	00H
	DD	00H
	DD	00H
	DD	01H
	DD	04159999ar			; 13.6
	DD	043fa0000r			; 500
	DD	0459c4000r			; 5000
	DD	0451c4000r			; 2500
	DD	043fa0000r			; 500
	DD	0459c4000r			; 5000
	DD	000000000r			; 0
	DD	042480000r			; 50
	DD	000000000r			; 0
	DD	0442a0000r			; 680
	DD	043132667r			; 147.15
	DD	04088fdf4r			; 4.281
	DD	040a1c28fr			; 5.055
	DD	000000000r			; 0
	DD	03f800000r			; 1
	DD	000000000r			; 0
	DD	000000000r			; 0
	DD	000000000r			; 0
	DD	03f32b8c2r			; 0.698132
	DD	000000000r			; 0
	DD	000000000r			; 0
	DD	03c23d70ar			; 0.01
	DD	FLAT:??_C@_0BC@NHGJJPOK@AIM?99M?5Sidewinder@
	DD	FLAT:??_C@_05IILFGFEE@AIM?99@
	DD	FLAT:??_C@_05IILFGFEE@AIM?99@
	DD	FLAT:??_C@_0BB@GJPPLJPD@AIM?99?5SIDEWINDER@
	DD	FLAT:??_C@_0BB@GJPPLJPD@AIM?99?5SIDEWINDER@
	DD	0aa9H
	DD	01H
	DD	01H
	DD	00H
	DD	02H
	DD	02H
	DD	01aH
	DD	016H
	DD	016H
	DD	056H
	DD	022H
	DD	03fH
	DD	048H
	DD	034H
	DD	02H
	DD	01H
	DD	00H
	DD	03e8H
	DD	00H
	DD	01H
	DD	01H
	DD	00H
	DD	00H
	DD	01H
	DD	01H
	DD	00H
	DD	00H
	DD	00H
	DD	01H
	DD	042aa999ar			; 85.3
	DD	043fa0000r			; 500
	DD	0468ca000r			; 18000
	DD	0459c4000r			; 5000
	DD	043fa0000r			; 500
	DD	0468ca000r			; 18000
	DD	000000000r			; 0
	DD	042480000r			; 50
	DD	000000000r			; 0
	DD	044548000r			; 850
	DD	043132667r			; 147.15
	DD	040adfbe7r			; 5.437
	DD	04192624er			; 18.298
	DD	000000000r			; 0
	DD	03f800000r			; 1
	DD	000000000r			; 0
	DD	000000000r			; 0
	DD	000000000r			; 0
	DD	03f32b8c2r			; 0.698132
	DD	000000000r			; 0
	DD	000000000r			; 0
	DD	03c23d70ar			; 0.01
	DD	FLAT:??_C@_0BA@KAJEFGNL@AIM?9120C?5AMRAAM@
	DD	FLAT:??_C@_01OGPIMHDM@?$DP@
	DD	FLAT:??_C@_01OGPIMHDM@?$DP@
	DD	FLAT:??_C@_01OGPIMHDM@?$DP@
	DD	FLAT:??_C@_01OGPIMHDM@?$DP@
	DD	0ab8H
	DD	03H
	DD	01H
	DD	00H
	DD	02H
	DD	01H
	DD	01aH
	DD	016H
	DD	016H
	DD	056H
	DD	0ffffffffH
	DD	0ffffffffH
	DD	0ffffffffH
	DD	0ffffffffH
	DD	02H
	DD	00H
	DD	00H
	DD	0578H
	DD	032H
	DD	01H
	DD	01H
	DD	00H
	DD	00H
	DD	01H
	DD	01H
	DD	00H
	DD	00H
	DD	00H
	DD	01H
	DD	000000000r			; 0
	DD	043fa0000r			; 500
	DD	0477de800r			; 65000
	DD	0459c4000r			; 5000
	DD	043fa0000r			; 500
	DD	0477de800r			; 65000
	DD	000000000r			; 0
	DD	042480000r			; 50
	DD	000000000r			; 0
	DD	044a28000r			; 1300
	DD	043132667r			; 147.15
	DD	04107eb85r			; 8.495
	DD	042365b23r			; 45.589
	DD	000000000r			; 0
	DD	03f800000r			; 1
	DD	000000000r			; 0
	DD	000000000r			; 0
	DD	000000000r			; 0
	DD	03f490fdbr			; 0.785398
	DD	000000000r			; 0
	DD	000000000r			; 0
	DD	03c23d70ar			; 0.01
	DD	FLAT:??_C@_0M@NANGLIAK@9K38?5Igla?9V@
	DD	FLAT:??_C@_06KFNNAKIC@Igla?9V@
	DD	FLAT:??_C@_06MDICIPIO@IGLA?9V@
	DD	FLAT:??_C@_04PHOEJFMC@Igla@
	DD	FLAT:??_C@_0M@NANGLIAK@9K38?5Igla?9V@
	DD	0aacH
	DD	01H
	DD	01H
	DD	00H
	DD	02H
	DD	02H
	DD	01aH
	DD	021H
	DD	016H
	DD	056H
	DD	02cH
	DD	040H
	DD	049H
	DD	036H
	DD	02H
	DD	02H
	DD	00H
	DD	0226H
	DD	00H
	DD	01H
	DD	01H
	DD	00H
	DD	00H
	DD	01H
	DD	01H
	DD	00H
	DD	00H
	DD	00H
	DD	01H
	DD	04191999ar			; 18.2
	DD	043fa0000r			; 500
	DD	045a28000r			; 5200
	DD	0453b8000r			; 3000
	DD	043fa0000r			; 500
	DD	045a28000r			; 5200
	DD	000000000r			; 0
	DD	042480000r			; 50
	DD	000000000r			; 0
	DD	044548000r			; 850
	DD	043132667r			; 147.15
	DD	040adfbe7r			; 5.437
	DD	0404f4bc7r			; 3.239
	DD	000000000r			; 0
	DD	03f800000r			; 1
	DD	000000000r			; 0
	DD	000000000r			; 0
	DD	000000000r			; 0
	DD	03f060a92r			; 0.523599
	DD	000000000r			; 0
	DD	000000000r			; 0
	DD	03c23d70ar			; 0.01
	DD	FLAT:??_C@_04NGPGEMHL@R?960@
	DD	FLAT:??_C@_04NGPGEMHL@R?960@
	DD	FLAT:??_C@_04NGPGEMHL@R?960@
	DD	FLAT:??_C@_04NGPGEMHL@R?960@
	DD	FLAT:??_C@_04NGPGEMHL@R?960@
	DD	0aaaH
	DD	01H
	DD	01H
	DD	00H
	DD	02H
	DD	02H
	DD	01aH
	DD	016H
	DD	016H
	DD	056H
	DD	02cH
	DD	040H
	DD	049H
	DD	036H
	DD	02H
	DD	00H
	DD	00H
	DD	046cH
	DD	028H
	DD	01H
	DD	01H
	DD	00H
	DD	00H
	DD	01H
	DD	01H
	DD	00H
	DD	00H
	DD	00H
	DD	01H
	DD	0422e0000r			; 43.5
	DD	043fa0000r			; 500
	DD	045fa0000r			; 8000
	DD	0459c4000r			; 5000
	DD	043fa0000r			; 500
	DD	0461c4000r			; 10000
	DD	000000000r			; 0
	DD	042480000r			; 50
	DD	000000000r			; 0
	DD	0447a0000r			; 1000
	DD	043132667r			; 147.15
	DD	040ce978dr			; 6.456
	DD	040d38d50r			; 6.611
	DD	000000000r			; 0
	DD	03f800000r			; 1
	DD	000000000r			; 0
	DD	000000000r			; 0
	DD	000000000r			; 0
	DD	03f060a92r			; 0.523599
	DD	000000000r			; 0
	DD	000000000r			; 0
	DD	03c23d70ar			; 0.01
	DD	FLAT:??_C@_05ICNGGPLA@R?960M@
	DD	FLAT:??_C@_05ICNGGPLA@R?960M@
	DD	FLAT:??_C@_05ICNGGPLA@R?960M@
	DD	FLAT:??_C@_05ICNGGPLA@R?960M@
	DD	FLAT:??_C@_05ICNGGPLA@R?960M@
	DD	0aaaH
	DD	01H
	DD	01H
	DD	00H
	DD	02H
	DD	02H
	DD	01aH
	DD	016H
	DD	016H
	DD	056H
	DD	0ffffffffH
	DD	0ffffffffH
	DD	0ffffffffH
	DD	0ffffffffH
	DD	02H
	DD	00H
	DD	00H
	DD	046cH
	DD	028H
	DD	01H
	DD	01H
	DD	00H
	DD	00H
	DD	01H
	DD	01H
	DD	00H
	DD	00H
	DD	00H
	DD	01H
	DD	0422e0000r			; 43.5
	DD	043fa0000r			; 500
	DD	0466a6000r			; 15000
	DD	0459c4000r			; 5000
	DD	043fa0000r			; 500
	DD	0466a6000r			; 15000
	DD	000000000r			; 0
	DD	042480000r			; 50
	DD	000000000r			; 0
	DD	0447a0000r			; 1000
	DD	043132667r			; 147.15
	DD	040ce978dr			; 6.456
	DD	04139c6a8r			; 11.611
	DD	000000000r			; 0
	DD	03f800000r			; 1
	DD	000000000r			; 0
	DD	000000000r			; 0
	DD	000000000r			; 0
	DD	03f060a92r			; 0.523599
	DD	000000000r			; 0
	DD	000000000r			; 0
	DD	03c23d70ar			; 0.01
	DD	FLAT:??_C@_05MFKBOAPM@R?927R@
	DD	FLAT:??_C@_01OGPIMHDM@?$DP@
	DD	FLAT:??_C@_01OGPIMHDM@?$DP@
	DD	FLAT:??_C@_01OGPIMHDM@?$DP@
	DD	FLAT:??_C@_01OGPIMHDM@?$DP@
	DD	0ab6H
	DD	02H
	DD	01H
	DD	00H
	DD	02H
	DD	01H
	DD	01aH
	DD	016H
	DD	016H
	DD	056H
	DD	0ffffffffH
	DD	0ffffffffH
	DD	0ffffffffH
	DD	0ffffffffH
	DD	02H
	DD	00H
	DD	00H
	DD	04c4H
	DD	028H
	DD	01H
	DD	01H
	DD	00H
	DD	00H
	DD	01H
	DD	01H
	DD	00H
	DD	00H
	DD	00H
	DD	01H
	DD	000000000r			; 0
	DD	043fa0000r			; 500
	DD	0471c4000r			; 40000
	DD	0459c4000r			; 5000
	DD	043fa0000r			; 500
	DD	0471c4000r			; 40000
	DD	000000000r			; 0
	DD	042480000r			; 50
	DD	000000000r			; 0
	DD	044bb8000r			; 1500
	DD	043132667r			; 147.15
	DD	0411da9fcr			; 9.854
	DD	041ac999ar			; 21.575
	DD	000000000r			; 0
	DD	03f800000r			; 1
	DD	000000000r			; 0
	DD	000000000r			; 0
	DD	000000000r			; 0
	DD	03f060a92r			; 0.523599
	DD	000000000r			; 0
	DD	000000000r			; 0
	DD	03c23d70ar			; 0.01
	DD	FLAT:??_C@_05JDPLEHHK@R?927T@
	DD	FLAT:??_C@_01OGPIMHDM@?$DP@
	DD	FLAT:??_C@_01OGPIMHDM@?$DP@
	DD	FLAT:??_C@_01OGPIMHDM@?$DP@
	DD	FLAT:??_C@_01OGPIMHDM@?$DP@
	DD	0ab6H
	DD	01H
	DD	01H
	DD	00H
	DD	02H
	DD	02H
	DD	01aH
	DD	016H
	DD	016H
	DD	056H
	DD	0ffffffffH
	DD	0ffffffffH
	DD	0ffffffffH
	DD	0ffffffffH
	DD	02H
	DD	00H
	DD	00H
	DD	04e2H
	DD	028H
	DD	01H
	DD	01H
	DD	00H
	DD	00H
	DD	01H
	DD	01H
	DD	00H
	DD	00H
	DD	00H
	DD	01H
	DD	03f800000r			; 1
	DD	043fa0000r			; 500
	DD	0469c4000r			; 20000
	DD	0459c4000r			; 5000
	DD	043fa0000r			; 500
	DD	0469c4000r			; 20000
	DD	000000000r			; 0
	DD	042480000r			; 50
	DD	000000000r			; 0
	DD	044bb8000r			; 1500
	DD	043132667r			; 147.15
	DD	0411da9fcr			; 9.854
	DD	04103df3br			; 8.242
	DD	000000000r			; 0
	DD	03f800000r			; 1
	DD	000000000r			; 0
	DD	000000000r			; 0
	DD	000000000r			; 0
	DD	03f060a92r			; 0.523599
	DD	000000000r			; 0
	DD	000000000r			; 0
	DD	03c23d70ar			; 0.01
	DD	FLAT:??_C@_04PMBJHFIP@R?973@
	DD	FLAT:??_C@_01OGPIMHDM@?$DP@
	DD	FLAT:??_C@_01OGPIMHDM@?$DP@
	DD	FLAT:??_C@_01OGPIMHDM@?$DP@
	DD	FLAT:??_C@_01OGPIMHDM@?$DP@
	DD	0ab7H
	DD	01H
	DD	01H
	DD	00H
	DD	02H
	DD	02H
	DD	01aH
	DD	016H
	DD	016H
	DD	056H
	DD	0ffffffffH
	DD	0ffffffffH
	DD	0ffffffffH
	DD	0ffffffffH
	DD	02H
	DD	00H
	DD	00H
	DD	0514H
	DD	028H
	DD	01H
	DD	01H
	DD	00H
	DD	00H
	DD	01H
	DD	01H
	DD	00H
	DD	00H
	DD	00H
	DD	01H
	DD	03f800000r			; 1
	DD	043fa0000r			; 500
	DD	046ea6000r			; 30000
	DD	0459c4000r			; 5000
	DD	043fa0000r			; 500
	DD	046ea6000r			; 30000
	DD	000000000r			; 0
	DD	042480000r			; 50
	DD	000000000r			; 0
	DD	044548000r			; 850
	DD	043132667r			; 147.15
	DD	040adfbe7r			; 5.437
	DD	04201a9fcr			; 32.416
	DD	000000000r			; 0
	DD	03f800000r			; 1
	DD	000000000r			; 0
	DD	000000000r			; 0
	DD	000000000r			; 0
	DD	03f060a92r			; 0.523599
	DD	000000000r			; 0
	DD	000000000r			; 0
	DD	03c23d70ar			; 0.01
	DD	FLAT:??_C@_0BK@PGIJDKCB@AGM?9114L?5Longbow?5Hellfire@
	DD	FLAT:??_C@_06HMCJBKIE@AGM?$CIR?$CJ@
	DD	FLAT:??_C@_06HMCJBKIE@AGM?$CIR?$CJ@
	DD	FLAT:??_C@_08MGNBHGAH@AGM?9114L@
	DD	FLAT:??_C@_0BK@PGIJDKCB@AGM?9114L?5Longbow?5Hellfire@
	DD	0ab2H
	DD	03H
	DD	01H
	DD	00H
	DD	04H
	DD	01H
	DD	01aH
	DD	021H
	DD	016H
	DD	057H
	DD	024H
	DD	03eH
	DD	047H
	DD	035H
	DD	02H
	DD	02H
	DD	00H
	DD	07d0H
	DD	07d0H
	DD	01H
	DD	01H
	DD	00H
	DD	00H
	DD	01H
	DD	01H
	DD	00H
	DD	01H
	DD	00H
	DD	02H
	DD	042340000r			; 45
	DD	043fa0000r			; 500
	DD	045fa0000r			; 8000
	DD	0453b8000r			; 3000
	DD	044bb8000r			; 1500
	DD	045fa0000r			; 8000
	DD	000000000r			; 0
	DD	042480000r			; 50
	DD	000000000r			; 0
	DD	043dd0000r			; 442
	DD	042c43334r			; 98.1
	DD	0407fbe77r			; 3.996
	DD	041bc0000r			; 23.5
	DD	000000000r			; 0
	DD	03f800000r			; 1
	DD	000000000r			; 0
	DD	000000000r			; 0
	DD	000000000r			; 0
	DD	03f060a92r			; 0.523599
	DD	000000000r			; 0
	DD	000000000r			; 0
	DD	03c23d70ar			; 0.01
	DD	FLAT:??_C@_0BF@EIICHKEF@AGM?9114K?5Hellfire?5II@
	DD	FLAT:??_C@_06GKJBJEPO@AGM?$CIL?$CJ@
	DD	FLAT:??_C@_06GKJBJEPO@AGM?$CIL?$CJ@
	DD	FLAT:??_C@_08IJJAOAMA@AGM?9114K@
	DD	FLAT:??_C@_0BF@EIICHKEF@AGM?9114K?5Hellfire?5II@
	DD	0ab2H
	DD	04H
	DD	01H
	DD	00H
	DD	04H
	DD	03H
	DD	01aH
	DD	021H
	DD	016H
	DD	057H
	DD	02dH
	DD	03eH
	DD	047H
	DD	035H
	DD	02H
	DD	02H
	DD	00H
	DD	07d0H
	DD	07d0H
	DD	01H
	DD	01H
	DD	00H
	DD	00H
	DD	01H
	DD	01H
	DD	00H
	DD	01H
	DD	00H
	DD	02H
	DD	042340000r			; 45
	DD	043fa0000r			; 500
	DD	045fa0000r			; 8000
	DD	0453b8000r			; 3000
	DD	044bb8000r			; 1500
	DD	045fa0000r			; 8000
	DD	000000000r			; 0
	DD	042480000r			; 50
	DD	000000000r			; 0
	DD	043dd0000r			; 442
	DD	042c43334r			; 98.1
	DD	0407fbe77r			; 3.996
	DD	041bc0000r			; 23.5
	DD	000000000r			; 0
	DD	03f800000r			; 1
	DD	000000000r			; 0
	DD	000000000r			; 0
	DD	000000000r			; 0
	DD	03f060a92r			; 0.523599
	DD	000000000r			; 0
	DD	000000000r			; 0
	DD	03c23d70ar			; 0.01
	DD	FLAT:??_C@_0BB@JMHPEGGN@AGM?965D?5Maverick@
	DD	FLAT:??_C@_01OGPIMHDM@?$DP@
	DD	FLAT:??_C@_01OGPIMHDM@?$DP@
	DD	FLAT:??_C@_01OGPIMHDM@?$DP@
	DD	FLAT:??_C@_01OGPIMHDM@?$DP@
	DD	0abbH
	DD	01H
	DD	01H
	DD	00H
	DD	04H
	DD	02H
	DD	01aH
	DD	016H
	DD	016H
	DD	057H
	DD	0ffffffffH
	DD	0ffffffffH
	DD	0ffffffffH
	DD	0ffffffffH
	DD	02H
	DD	00H
	DD	00H
	DD	0bb8H
	DD	0bb8H
	DD	01H
	DD	01H
	DD	00H
	DD	00H
	DD	01H
	DD	01H
	DD	00H
	DD	00H
	DD	00H
	DD	02H
	DD	000000000r			; 0
	DD	043fa0000r			; 500
	DD	046bb8000r			; 24000
	DD	045bb8000r			; 6000
	DD	043fa0000r			; 500
	DD	046bb8000r			; 24000
	DD	000000000r			; 0
	DD	042480000r			; 50
	DD	000000000r			; 0
	DD	043aa0000r			; 340
	DD	042443334r			; 49.05
	DD	040bd2f1br			; 5.912
	DD	0428664ddr			; 67.197
	DD	000000000r			; 0
	DD	03f800000r			; 1
	DD	000000000r			; 0
	DD	000000000r			; 0
	DD	000000000r			; 0
	DD	03e32b8c2r			; 0.174533
	DD	000000000r			; 0
	DD	000000000r			; 0
	DD	03c23d70ar			; 0.01
	DD	FLAT:??_C@_0BB@MEBDPPKM@AGM?965F?5Maverick@
	DD	FLAT:??_C@_01OGPIMHDM@?$DP@
	DD	FLAT:??_C@_01OGPIMHDM@?$DP@
	DD	FLAT:??_C@_01OGPIMHDM@?$DP@
	DD	FLAT:??_C@_01OGPIMHDM@?$DP@
	DD	0abbH
	DD	01H
	DD	01H
	DD	00H
	DD	04H
	DD	02H
	DD	01aH
	DD	016H
	DD	016H
	DD	057H
	DD	0ffffffffH
	DD	0ffffffffH
	DD	0ffffffffH
	DD	0ffffffffH
	DD	02H
	DD	00H
	DD	00H
	DD	0bb8H
	DD	0bb8H
	DD	01H
	DD	01H
	DD	00H
	DD	00H
	DD	01H
	DD	01H
	DD	00H
	DD	00H
	DD	00H
	DD	02H
	DD	000000000r			; 0
	DD	043fa0000r			; 500
	DD	046bb8000r			; 24000
	DD	045bb8000r			; 6000
	DD	043fa0000r			; 500
	DD	046bb8000r			; 24000
	DD	000000000r			; 0
	DD	042480000r			; 50
	DD	000000000r			; 0
	DD	043aa0000r			; 340
	DD	042443334r			; 49.05
	DD	040bd2f1br			; 5.912
	DD	0428664ddr			; 67.197
	DD	000000000r			; 0
	DD	03f800000r			; 1
	DD	000000000r			; 0
	DD	000000000r			; 0
	DD	000000000r			; 0
	DD	03e32b8c2r			; 0.174533
	DD	000000000r			; 0
	DD	000000000r			; 0
	DD	03c23d70ar			; 0.01
	DD	FLAT:??_C@_0O@ELFJFHNL@9M120?5Ataka?9V@
	DD	FLAT:??_C@_05PBKPMNKD@ATAKA@
	DD	FLAT:??_C@_05PBKPMNKD@ATAKA@
	DD	FLAT:??_C@_05DNJFCPNL@Ataka@
	DD	FLAT:??_C@_0O@ELFJFHNL@9M120?5Ataka?9V@
	DD	0aabH
	DD	07H
	DD	01H
	DD	00H
	DD	04H
	DD	01H
	DD	01aH
	DD	07e8H
	DD	07e9H
	DD	057H
	DD	02eH
	DD	042H
	DD	04bH
	DD	037H
	DD	02H
	DD	02H
	DD	00H
	DD	07d0H
	DD	07d0H
	DD	01H
	DD	01H
	DD	00H
	DD	00H
	DD	01H
	DD	01H
	DD	00H
	DD	00H
	DD	00H
	DD	02H
	DD	0422a0000r			; 42.5
	DD	043fa0000r			; 500
	DD	045bb8000r			; 6000
	DD	0453b8000r			; 3000
	DD	043fa0000r			; 500
	DD	045bb8000r			; 6000
	DD	000000000r			; 0
	DD	042480000r			; 50
	DD	000000000r			; 0
	DD	043c80000r			; 400
	DD	042c43334r			; 98.1
	DD	040645a1dr			; 3.568
	DD	0414fe354r			; 12.993
	DD	000000000r			; 0
	DD	03f800000r			; 1
	DD	000000000r			; 0
	DD	000000000r			; 0
	DD	000000000r			; 0
	DD	03edf66f3r			; 0.436332
	DD	000000000r			; 0
	DD	000000000r			; 0
	DD	03c23d70ar			; 0.01
	DD	FLAT:??_C@_0M@PAMPLL@9K121?5Vikhr@
	DD	FLAT:??_C@_05HLBILDBM@VIKHR@
	DD	FLAT:??_C@_05HLBILDBM@VIKHR@
	DD	FLAT:??_C@_05LHCCFBGE@Vikhr@
	DD	FLAT:??_C@_0M@PAMPLL@9K121?5Vikhr@
	DD	0ab1H
	DD	04H
	DD	01H
	DD	00H
	DD	04H
	DD	03H
	DD	01aH
	DD	07e8H
	DD	07e9H
	DD	057H
	DD	026H
	DD	041H
	DD	04aH
	DD	038H
	DD	02H
	DD	00H
	DD	00H
	DD	07d0H
	DD	07d0H
	DD	01H
	DD	01H
	DD	00H
	DD	00H
	DD	01H
	DD	01H
	DD	00H
	DD	00H
	DD	01H
	DD	02H
	DD	042340000r			; 45
	DD	043fa0000r			; 500
	DD	0461c4000r			; 10000
	DD	0453b8000r			; 3000
	DD	043fa0000r			; 500
	DD	0461c4000r			; 10000
	DD	000000000r			; 0
	DD	042480000r			; 50
	DD	000000000r			; 0
	DD	043c80000r			; 400
	DD	042c43334r			; 98.1
	DD	040645a1dr			; 3.568
	DD	041b7f1aar			; 22.993
	DD	000000000r			; 0
	DD	03f800000r			; 1
	DD	000000000r			; 0
	DD	000000000r			; 0
	DD	000000000r			; 0
	DD	03edf66f3r			; 0.436332
	DD	000000000r			; 0
	DD	000000000r			; 0
	DD	03c23d70ar			; 0.01
	DD	FLAT:??_C@_0N@PEOHACHO@9K114?5Shturm@
	DD	FLAT:??_C@_06IIAKAGKH@SHTURM@
	DD	FLAT:??_C@_06IIAKAGKH@SHTURM@
	DD	FLAT:??_C@_06EDJMOBOJ@Shturm@
	DD	FLAT:??_C@_0N@PEOHACHO@9K114?5Shturm@
	DD	0ab5H
	DD	07H
	DD	01H
	DD	00H
	DD	04H
	DD	01H
	DD	01aH
	DD	016H
	DD	016H
	DD	057H
	DD	027H
	DD	03dH
	DD	046H
	DD	0ffffffffH
	DD	01H
	DD	00H
	DD	00H
	DD	02e8H
	DD	02e8H
	DD	01H
	DD	01H
	DD	00H
	DD	00H
	DD	01H
	DD	01H
	DD	00H
	DD	00H
	DD	00H
	DD	02H
	DD	041fb3333r			; 31.4
	DD	043c80000r			; 400
	DD	0459c4000r			; 5000
	DD	0453b8000r			; 3000
	DD	043c80000r			; 400
	DD	0459c4000r			; 5000
	DD	000000000r			; 0
	DD	042480000r			; 50
	DD	000000000r			; 0
	DD	043aa0000r			; 340
	DD	042c43334r			; 98.1
	DD	0403d2f1br			; 2.956
	DD	0419724ddr			; 18.893
	DD	000000000r			; 0
	DD	03f800000r			; 1
	DD	000000000r			; 0
	DD	000000000r			; 0
	DD	000000000r			; 0
	DD	03eb2b8c2r			; 0.349066
	DD	000000000r			; 0
	DD	000000000r			; 0
	DD	03c23d70ar			; 0.01
	DD	FLAT:??_C@_07FHMAIPPB@Kh?925MT@
	DD	FLAT:??_C@_01OGPIMHDM@?$DP@
	DD	FLAT:??_C@_01OGPIMHDM@?$DP@
	DD	FLAT:??_C@_01OGPIMHDM@?$DP@
	DD	FLAT:??_C@_01OGPIMHDM@?$DP@
	DD	0ab9H
	DD	01H
	DD	01H
	DD	00H
	DD	04H
	DD	02H
	DD	01aH
	DD	016H
	DD	016H
	DD	057H
	DD	0ffffffffH
	DD	0ffffffffH
	DD	0ffffffffH
	DD	0ffffffffH
	DD	02H
	DD	00H
	DD	00H
	DD	03e8H
	DD	03e8H
	DD	01H
	DD	01H
	DD	00H
	DD	00H
	DD	01H
	DD	01H
	DD	00H
	DD	00H
	DD	00H
	DD	02H
	DD	000000000r			; 0
	DD	043fa0000r			; 500
	DD	0461c4000r			; 10000
	DD	0457a0000r			; 4000
	DD	043fa0000r			; 500
	DD	0461c4000r			; 10000
	DD	000000000r			; 0
	DD	042480000r			; 50
	DD	000000000r			; 0
	DD	043aa0000r			; 340
	DD	042443334r			; 49.05
	DD	040bd2f1br			; 5.912
	DD	041d02b02r			; 26.021
	DD	000000000r			; 0
	DD	03f800000r			; 1
	DD	000000000r			; 0
	DD	000000000r			; 0
	DD	000000000r			; 0
	DD	03e32b8c2r			; 0.174533
	DD	000000000r			; 0
	DD	000000000r			; 0
	DD	03c23d70ar			; 0.01
	DD	FLAT:??_C@_06NEDNIJLM@Kh?929L@
	DD	FLAT:??_C@_01OGPIMHDM@?$DP@
	DD	FLAT:??_C@_01OGPIMHDM@?$DP@
	DD	FLAT:??_C@_01OGPIMHDM@?$DP@
	DD	FLAT:??_C@_01OGPIMHDM@?$DP@
	DD	0abaH
	DD	04H
	DD	01H
	DD	00H
	DD	04H
	DD	03H
	DD	01aH
	DD	016H
	DD	016H
	DD	057H
	DD	0ffffffffH
	DD	0ffffffffH
	DD	0ffffffffH
	DD	0ffffffffH
	DD	02H
	DD	00H
	DD	00H
	DD	018d2H
	DD	018d2H
	DD	01H
	DD	01H
	DD	00H
	DD	00H
	DD	01H
	DD	01H
	DD	00H
	DD	00H
	DD	00H
	DD	02H
	DD	000000000r			; 0
	DD	043fa0000r			; 500
	DD	0471c4000r			; 40000
	DD	045bb8000r			; 6000
	DD	043fa0000r			; 500
	DD	0471c4000r			; 40000
	DD	000000000r			; 0
	DD	042480000r			; 50
	DD	000000000r			; 0
	DD	043aa0000r			; 340
	DD	042443334r			; 49.05
	DD	040bd2f1br			; 5.912
	DD	042e48312r			; 114.256
	DD	000000000r			; 0
	DD	03f800000r			; 1
	DD	000000000r			; 0
	DD	000000000r			; 0
	DD	000000000r			; 0
	DD	03e32b8c2r			; 0.174533
	DD	000000000r			; 0
	DD	000000000r			; 0
	DD	03c23d70ar			; 0.01
	DD	FLAT:??_C@_0BC@LGFKJMHD@MIM?972G?5Chaparral@
	DD	FLAT:??_C@_01OGPIMHDM@?$DP@
	DD	FLAT:??_C@_01OGPIMHDM@?$DP@
	DD	FLAT:??_C@_01OGPIMHDM@?$DP@
	DD	FLAT:??_C@_01OGPIMHDM@?$DP@
	DD	0ac5H
	DD	01H
	DD	01H
	DD	00H
	DD	02H
	DD	02H
	DD	01aH
	DD	07eaH
	DD	07eaH
	DD	056H
	DD	0ffffffffH
	DD	0ffffffffH
	DD	0ffffffffH
	DD	0ffffffffH
	DD	0ffffffffH
	DD	00H
	DD	00H
	DD	012cH
	DD	00H
	DD	01H
	DD	01H
	DD	00H
	DD	00H
	DD	01H
	DD	01H
	DD	00H
	DD	00H
	DD	00H
	DD	04H
	DD	000000000r			; 0
	DD	043fa0000r			; 500
	DD	0459c4000r			; 5000
	DD	0455ac000r			; 3500
	DD	043fa0000r			; 500
	DD	0459c4000r			; 5000
	DD	000000000r			; 0
	DD	042480000r			; 50
	DD	000000000r			; 0
	DD	044548000r			; 850
	DD	043132667r			; 147.15
	DD	040adfbe7r			; 5.437
	DD	040404189r			; 3.004
	DD	000000000r			; 0
	DD	03f800000r			; 1
	DD	000000000r			; 0
	DD	000000000r			; 0
	DD	041c80000r			; 25
	DD	03f860a92r			; 1.0472
	DD	000000000r			; 0
	DD	000000000r			; 0
	DD	03c23d70ar			; 0.01
	DD	FLAT:??_C@_0BA@OFKPLBFE@FIM?992A?5Stinger@
	DD	FLAT:??_C@_01OGPIMHDM@?$DP@
	DD	FLAT:??_C@_01OGPIMHDM@?$DP@
	DD	FLAT:??_C@_01OGPIMHDM@?$DP@
	DD	FLAT:??_C@_01OGPIMHDM@?$DP@
	DD	0ab4H
	DD	01H
	DD	01H
	DD	00H
	DD	02H
	DD	02H
	DD	01aH
	DD	016H
	DD	016H
	DD	056H
	DD	0ffffffffH
	DD	0ffffffffH
	DD	0ffffffffH
	DD	0ffffffffH
	DD	0ffffffffH
	DD	00H
	DD	00H
	DD	012cH
	DD	00H
	DD	01H
	DD	01H
	DD	00H
	DD	00H
	DD	01H
	DD	01H
	DD	00H
	DD	00H
	DD	00H
	DD	04H
	DD	000000000r			; 0
	DD	043fa0000r			; 500
	DD	0459c4000r			; 5000
	DD	0455ac000r			; 3500
	DD	043fa0000r			; 500
	DD	0459c4000r			; 5000
	DD	000000000r			; 0
	DD	042480000r			; 50
	DD	000000000r			; 0
	DD	0442a0000r			; 680
	DD	043132667r			; 147.15
	DD	04088fdf4r			; 4.281
	DD	040a1c28fr			; 5.055
	DD	000000000r			; 0
	DD	03f800000r			; 1
	DD	000000000r			; 0
	DD	000000000r			; 0
	DD	041c80000r			; 25
	DD	03f32b8c2r			; 0.698132
	DD	000000000r			; 0
	DD	000000000r			; 0
	DD	03c23d70ar			; 0.01
	DD	FLAT:??_C@_0BA@GACELEJL@SM?91MR?5Standard@
	DD	FLAT:??_C@_01OGPIMHDM@?$DP@
	DD	FLAT:??_C@_01OGPIMHDM@?$DP@
	DD	FLAT:??_C@_01OGPIMHDM@?$DP@
	DD	FLAT:??_C@_01OGPIMHDM@?$DP@
	DD	0abfH
	DD	02H
	DD	01H
	DD	00H
	DD	02H
	DD	01H
	DD	01aH
	DD	016H
	DD	016H
	DD	056H
	DD	0ffffffffH
	DD	0ffffffffH
	DD	0ffffffffH
	DD	0ffffffffH
	DD	0ffffffffH
	DD	00H
	DD	00H
	DD	012cH
	DD	00H
	DD	01H
	DD	01H
	DD	00H
	DD	00H
	DD	01H
	DD	01H
	DD	00H
	DD	00H
	DD	00H
	DD	04H
	DD	000000000r			; 0
	DD	043fa0000r			; 500
	DD	046ea6000r			; 30000
	DD	0466a6000r			; 15000
	DD	043fa0000r			; 500
	DD	046ea6000r			; 30000
	DD	000000000r			; 0
	DD	042480000r			; 50
	DD	000000000r			; 0
	DD	044548000r			; 850
	DD	042c43334r			; 98.1
	DD	041027ae1r			; 8.155
	DD	041f7d0e5r			; 30.977
	DD	000000000r			; 0
	DD	03f800000r			; 1
	DD	000000000r			; 0
	DD	000000000r			; 0
	DD	041c80000r			; 25
	DD	03f860a92r			; 1.0472
	DD	000000000r			; 0
	DD	000000000r			; 0
	DD	03c23d70ar			; 0.01
	DD	FLAT:??_C@_0BD@JMNDEBKB@RIM?97P?5Sea?5Sparrow@
	DD	FLAT:??_C@_01OGPIMHDM@?$DP@
	DD	FLAT:??_C@_01OGPIMHDM@?$DP@
	DD	FLAT:??_C@_01OGPIMHDM@?$DP@
	DD	FLAT:??_C@_01OGPIMHDM@?$DP@
	DD	0abeH
	DD	02H
	DD	01H
	DD	00H
	DD	02H
	DD	01H
	DD	01aH
	DD	016H
	DD	016H
	DD	056H
	DD	0ffffffffH
	DD	0ffffffffH
	DD	0ffffffffH
	DD	0ffffffffH
	DD	0ffffffffH
	DD	00H
	DD	00H
	DD	012cH
	DD	00H
	DD	01H
	DD	01H
	DD	00H
	DD	00H
	DD	01H
	DD	01H
	DD	00H
	DD	00H
	DD	00H
	DD	04H
	DD	000000000r			; 0
	DD	043fa0000r			; 500
	DD	04756d800r			; 55000
	DD	0466a6000r			; 15000
	DD	043fa0000r			; 500
	DD	04756d800r			; 55000
	DD	000000000r			; 0
	DD	042480000r			; 50
	DD	000000000r			; 0
	DD	044548000r			; 850
	DD	042c43334r			; 98.1
	DD	041027ae1r			; 8.155
	DD	042718e56r			; 60.389
	DD	000000000r			; 0
	DD	03f800000r			; 1
	DD	000000000r			; 0
	DD	000000000r			; 0
	DD	041c80000r			; 25
	DD	03f860a92r			; 1.0472
	DD	000000000r			; 0
	DD	000000000r			; 0
	DD	03c23d70ar			; 0.01
	DD	FLAT:??_C@_0O@GHACKDLE@9K32?5Strela?52@
	DD	FLAT:??_C@_01OGPIMHDM@?$DP@
	DD	FLAT:??_C@_01OGPIMHDM@?$DP@
	DD	FLAT:??_C@_01OGPIMHDM@?$DP@
	DD	FLAT:??_C@_01OGPIMHDM@?$DP@
	DD	0ab0H
	DD	01H
	DD	01H
	DD	00H
	DD	02H
	DD	02H
	DD	01aH
	DD	016H
	DD	016H
	DD	056H
	DD	0ffffffffH
	DD	0ffffffffH
	DD	0ffffffffH
	DD	0ffffffffH
	DD	0ffffffffH
	DD	00H
	DD	00H
	DD	012cH
	DD	00H
	DD	01H
	DD	01H
	DD	00H
	DD	00H
	DD	01H
	DD	01H
	DD	00H
	DD	00H
	DD	00H
	DD	04H
	DD	000000000r			; 0
	DD	043fa0000r			; 500
	DD	045480000r			; 3200
	DD	044fa0000r			; 2000
	DD	043fa0000r			; 500
	DD	045480000r			; 3200
	DD	000000000r			; 0
	DD	042480000r			; 50
	DD	000000000r			; 0
	DD	043ff0000r			; 510
	DD	043132667r			; 147.15
	DD	040481062r			; 3.126
	DD	04091db23r			; 4.558
	DD	000000000r			; 0
	DD	03f800000r			; 1
	DD	000000000r			; 0
	DD	000000000r			; 0
	DD	041c80000r			; 25
	DD	03f060a92r			; 0.523599
	DD	000000000r			; 0
	DD	000000000r			; 0
	DD	03c23d70ar			; 0.01
	DD	FLAT:??_C@_05PNPDPNHH@9M333@
	DD	FLAT:??_C@_01OGPIMHDM@?$DP@
	DD	FLAT:??_C@_01OGPIMHDM@?$DP@
	DD	FLAT:??_C@_01OGPIMHDM@?$DP@
	DD	FLAT:??_C@_01OGPIMHDM@?$DP@
	DD	0ac7H
	DD	01H
	DD	01H
	DD	00H
	DD	02H
	DD	02H
	DD	01aH
	DD	07eaH
	DD	07eaH
	DD	056H
	DD	0ffffffffH
	DD	0ffffffffH
	DD	0ffffffffH
	DD	0ffffffffH
	DD	0ffffffffH
	DD	00H
	DD	00H
	DD	0190H
	DD	00H
	DD	01H
	DD	01H
	DD	00H
	DD	00H
	DD	01H
	DD	01H
	DD	00H
	DD	00H
	DD	00H
	DD	04H
	DD	000000000r			; 0
	DD	043fa0000r			; 500
	DD	0459c4000r			; 5000
	DD	0455ac000r			; 3500
	DD	043fa0000r			; 500
	DD	0459c4000r			; 5000
	DD	000000000r			; 0
	DD	042480000r			; 50
	DD	000000000r			; 0
	DD	043ff0000r			; 510
	DD	042c43334r			; 98.1
	DD	040960c4ar			; 4.689
	DD	040e75c29r			; 7.23
	DD	000000000r			; 0
	DD	03f800000r			; 1
	DD	000000000r			; 0
	DD	000000000r			; 0
	DD	041c80000r			; 25
	DD	03edf66f3r			; 0.436332
	DD	000000000r			; 0
	DD	000000000r			; 0
	DD	03c23d70ar			; 0.01
	DD	FLAT:??_C@_05MMEBELJL@9M311@
	DD	FLAT:??_C@_01OGPIMHDM@?$DP@
	DD	FLAT:??_C@_01OGPIMHDM@?$DP@
	DD	FLAT:??_C@_01OGPIMHDM@?$DP@
	DD	FLAT:??_C@_01OGPIMHDM@?$DP@
	DD	0ac8H
	DD	07H
	DD	01H
	DD	00H
	DD	02H
	DD	01H
	DD	01aH
	DD	016H
	DD	016H
	DD	056H
	DD	0ffffffffH
	DD	0ffffffffH
	DD	0ffffffffH
	DD	0ffffffffH
	DD	0ffffffffH
	DD	00H
	DD	00H
	DD	01c2H
	DD	00H
	DD	01H
	DD	01H
	DD	00H
	DD	00H
	DD	01H
	DD	01H
	DD	00H
	DD	00H
	DD	00H
	DD	04H
	DD	000000000r			; 0
	DD	043fa0000r			; 500
	DD	045fa0000r			; 8000
	DD	0459c4000r			; 5000
	DD	043fa0000r			; 500
	DD	045fa0000r			; 8000
	DD	000000000r			; 0
	DD	042480000r			; 50
	DD	000000000r			; 0
	DD	0445e8000r			; 890
	DD	043132667r			; 147.15
	DD	040b6a7f0r			; 5.708
	DD	040bf2b02r			; 5.974
	DD	000000000r			; 0
	DD	03f800000r			; 1
	DD	000000000r			; 0
	DD	000000000r			; 0
	DD	041c80000r			; 25
	DD	03f860a92r			; 1.0472
	DD	000000000r			; 0
	DD	000000000r			; 0
	DD	03c23d70ar			; 0.01
	DD	FLAT:??_C@_0M@DOEIGEAM@M?911?5Shtorm@
	DD	FLAT:??_C@_01OGPIMHDM@?$DP@
	DD	FLAT:??_C@_01OGPIMHDM@?$DP@
	DD	FLAT:??_C@_01OGPIMHDM@?$DP@
	DD	FLAT:??_C@_01OGPIMHDM@?$DP@
	DD	0abcH
	DD	07H
	DD	01H
	DD	00H
	DD	02H
	DD	01H
	DD	01aH
	DD	016H
	DD	016H
	DD	056H
	DD	0ffffffffH
	DD	0ffffffffH
	DD	0ffffffffH
	DD	0ffffffffH
	DD	0ffffffffH
	DD	00H
	DD	00H
	DD	015eH
	DD	00H
	DD	01H
	DD	01H
	DD	00H
	DD	00H
	DD	01H
	DD	01H
	DD	00H
	DD	00H
	DD	00H
	DD	04H
	DD	000000000r			; 0
	DD	043fa0000r			; 500
	DD	046bb8000r			; 24000
	DD	0463b8000r			; 12000
	DD	043fa0000r			; 500
	DD	046bb8000r			; 24000
	DD	000000000r			; 0
	DD	042480000r			; 50
	DD	000000000r			; 0
	DD	0446e0000r			; 952
	DD	042c43334r			; 98.1
	DD	041131eb8r			; 9.195
	DD	041a2f7cfr			; 20.371
	DD	000000000r			; 0
	DD	03f800000r			; 1
	DD	000000000r			; 0
	DD	000000000r			; 0
	DD	041c80000r			; 25
	DD	03f490fdbr			; 0.785398
	DD	000000000r			; 0
	DD	000000000r			; 0
	DD	03c23d70ar			; 0.01
	DD	FLAT:??_C@_05MDAPFMKP@9K33M@
	DD	FLAT:??_C@_01OGPIMHDM@?$DP@
	DD	FLAT:??_C@_01OGPIMHDM@?$DP@
	DD	FLAT:??_C@_01OGPIMHDM@?$DP@
	DD	FLAT:??_C@_01OGPIMHDM@?$DP@
	DD	0abdH
	DD	07H
	DD	01H
	DD	00H
	DD	02H
	DD	01H
	DD	01aH
	DD	016H
	DD	016H
	DD	056H
	DD	0ffffffffH
	DD	0ffffffffH
	DD	0ffffffffH
	DD	0ffffffffH
	DD	0ffffffffH
	DD	00H
	DD	00H
	DD	0190H
	DD	00H
	DD	01H
	DD	01H
	DD	00H
	DD	00H
	DD	01H
	DD	01H
	DD	00H
	DD	00H
	DD	00H
	DD	04H
	DD	000000000r			; 0
	DD	043fa0000r			; 500
	DD	0463b8000r			; 12000
	DD	045fa0000r			; 8000
	DD	043fa0000r			; 500
	DD	0463b8000r			; 12000
	DD	000000000r			; 0
	DD	042480000r			; 50
	DD	000000000r			; 0
	DD	044548000r			; 850
	DD	042c43334r			; 98.1
	DD	041027ae1r			; 8.155
	DD	0411ccccdr			; 9.8
	DD	000000000r			; 0
	DD	03f800000r			; 1
	DD	000000000r			; 0
	DD	000000000r			; 0
	DD	041c00000r			; 24
	DD	03f490fdbr			; 0.785398
	DD	000000000r			; 0
	DD	000000000r			; 0
	DD	03c23d70ar			; 0.01
	DD	FLAT:??_C@_0O@LKCFNNKC@BGM?971D?5TOW?92@
	DD	FLAT:??_C@_05IILOGNPM@TOW?92@
	DD	FLAT:??_C@_05IILOGNPM@TOW?92@
	DD	FLAT:??_C@_0O@LKCFNNKC@BGM?971D?5TOW?92@
	DD	FLAT:??_C@_0O@LKCFNNKC@BGM?971D?5TOW?92@
	DD	0ac9H
	DD	08H
	DD	01H
	DD	00H
	DD	04H
	DD	00H
	DD	01aH
	DD	017H
	DD	017H
	DD	057H
	DD	0ffffffffH
	DD	0ffffffffH
	DD	0ffffffffH
	DD	0ffffffffH
	DD	0ffffffffH
	DD	00H
	DD	00H
	DD	03f9H
	DD	03f9H
	DD	01H
	DD	01H
	DD	00H
	DD	00H
	DD	01H
	DD	01H
	DD	00H
	DD	00H
	DD	00H
	DD	08H
	DD	000000000r			; 0
	DD	042c80000r			; 100
	DD	0456a6000r			; 3750
	DD	0453b8000r			; 3000
	DD	042c80000r			; 100
	DD	0456a6000r			; 3750
	DD	000000000r			; 0
	DD	042480000r			; 50
	DD	000000000r			; 0
	DD	043960000r			; 300
	DD	042443334r			; 49.05
	DD	040a31aa0r			; 5.097
	DD	041186e98r			; 9.527
	DD	000000000r			; 0
	DD	03f800000r			; 1
	DD	000000000r			; 0
	DD	000000000r			; 0
	DD	041f00000r			; 30
	DD	03f060a92r			; 0.523599
	DD	000000000r			; 0
	DD	000000000r			; 0
	DD	03c23d70ar			; 0.01
	DD	FLAT:??_C@_0O@GMKLJFFC@9M113?5Konkurs@
	DD	FLAT:??_C@_01OGPIMHDM@?$DP@
	DD	FLAT:??_C@_01OGPIMHDM@?$DP@
	DD	FLAT:??_C@_01OGPIMHDM@?$DP@
	DD	FLAT:??_C@_01OGPIMHDM@?$DP@
	DD	0ac3H
	DD	02H
	DD	01H
	DD	00H
	DD	04H
	DD	01H
	DD	01aH
	DD	017H
	DD	017H
	DD	057H
	DD	0ffffffffH
	DD	0ffffffffH
	DD	0ffffffffH
	DD	0ffffffffH
	DD	0ffffffffH
	DD	00H
	DD	00H
	DD	0322H
	DD	0322H
	DD	01H
	DD	01H
	DD	00H
	DD	00H
	DD	01H
	DD	01H
	DD	00H
	DD	00H
	DD	00H
	DD	08H
	DD	000000000r			; 0
	DD	042c80000r			; 100
	DD	0457a0000r			; 4000
	DD	0453b8000r			; 3000
	DD	042c80000r			; 100
	DD	0457a0000r			; 4000
	DD	000000000r			; 0
	DD	042480000r			; 50
	DD	000000000r			; 0
	DD	043960000r			; 300
	DD	042443334r			; 49.05
	DD	040a31aa0r			; 5.097
	DD	04125c28fr			; 10.36
	DD	000000000r			; 0
	DD	03f800000r			; 1
	DD	000000000r			; 0
	DD	000000000r			; 0
	DD	041f00000r			; 30
	DD	03e860a92r			; 0.261799
	DD	000000000r			; 0
	DD	000000000r			; 0
	DD	03c23d70ar			; 0.01
	DD	FLAT:??_C@_0O@IGJFPAFA@9M117?5Bastion@
	DD	FLAT:??_C@_01OGPIMHDM@?$DP@
	DD	FLAT:??_C@_01OGPIMHDM@?$DP@
	DD	FLAT:??_C@_01OGPIMHDM@?$DP@
	DD	FLAT:??_C@_01OGPIMHDM@?$DP@
	DD	0ac1H
	DD	05H
	DD	01H
	DD	00H
	DD	04H
	DD	03H
	DD	01aH
	DD	017H
	DD	017H
	DD	057H
	DD	0ffffffffH
	DD	0ffffffffH
	DD	0ffffffffH
	DD	0ffffffffH
	DD	0ffffffffH
	DD	00H
	DD	00H
	DD	01b8H
	DD	01b8H
	DD	01H
	DD	01H
	DD	00H
	DD	00H
	DD	01H
	DD	01H
	DD	00H
	DD	00H
	DD	00H
	DD	08H
	DD	000000000r			; 0
	DD	042c80000r			; 100
	DD	0459c4000r			; 5000
	DD	0453b8000r			; 3000
	DD	042c80000r			; 100
	DD	0459c4000r			; 5000
	DD	000000000r			; 0
	DD	042480000r			; 50
	DD	000000000r			; 0
	DD	043960000r			; 300
	DD	042443334r			; 49.05
	DD	040a31aa0r			; 5.097
	DD	0415b1aa0r			; 13.694
	DD	000000000r			; 0
	DD	03f800000r			; 1
	DD	000000000r			; 0
	DD	000000000r			; 0
	DD	041f00000r			; 30
	DD	03eb2b8c2r			; 0.349066
	DD	000000000r			; 0
	DD	000000000r			; 0
	DD	03c23d70ar			; 0.01
	DD	FLAT:??_C@_0L@INIJHENP@9M119?5Svir@
	DD	FLAT:??_C@_01OGPIMHDM@?$DP@
	DD	FLAT:??_C@_01OGPIMHDM@?$DP@
	DD	FLAT:??_C@_01OGPIMHDM@?$DP@
	DD	FLAT:??_C@_01OGPIMHDM@?$DP@
	DD	0ac2H
	DD	05H
	DD	01H
	DD	00H
	DD	04H
	DD	03H
	DD	01aH
	DD	017H
	DD	017H
	DD	057H
	DD	0ffffffffH
	DD	0ffffffffH
	DD	0ffffffffH
	DD	0ffffffffH
	DD	0ffffffffH
	DD	00H
	DD	00H
	DD	02b0H
	DD	02b0H
	DD	01H
	DD	01H
	DD	00H
	DD	00H
	DD	01H
	DD	01H
	DD	00H
	DD	00H
	DD	00H
	DD	08H
	DD	000000000r			; 0
	DD	042c80000r			; 100
	DD	0457a0000r			; 4000
	DD	0453b8000r			; 3000
	DD	042c80000r			; 100
	DD	0457a0000r			; 4000
	DD	000000000r			; 0
	DD	042480000r			; 50
	DD	000000000r			; 0
	DD	043960000r			; 300
	DD	042443334r			; 49.05
	DD	040a31aa0r			; 5.097
	DD	04125c28fr			; 10.36
	DD	000000000r			; 0
	DD	03f800000r			; 1
	DD	000000000r			; 0
	DD	000000000r			; 0
	DD	041f00000r			; 30
	DD	03eb2b8c2r			; 0.349066
	DD	000000000r			; 0
	DD	000000000r			; 0
	DD	03c23d70ar			; 0.01
	DD	FLAT:??_C@_05FOOOBDLP@CHAFF@
	DD	FLAT:??_C@_01OGPIMHDM@?$DP@
	DD	FLAT:??_C@_01OGPIMHDM@?$DP@
	DD	FLAT:??_C@_01OGPIMHDM@?$DP@
	DD	FLAT:??_C@_01OGPIMHDM@?$DP@
	DD	0a11H
	DD	00H
	DD	00H
	DD	01H
	DD	00H
	DD	00H
	DD	01aH
	DD	023H
	DD	018H
	DD	00H
	DD	0ffffffffH
	DD	043H
	DD	04cH
	DD	0ffffffffH
	DD	0ffffffffH
	DD	0aH
	DD	00H
	DD	00H
	DD	00H
	DD	00H
	DD	00H
	DD	00H
	DD	00H
	DD	00H
	DD	00H
	DD	00H
	DD	00H
	DD	00H
	DD	010H
	DD	000000000r			; 0
	DD	000000000r			; 0
	DD	000000000r			; 0
	DD	000000000r			; 0
	DD	000000000r			; 0
	DD	000000000r			; 0
	DD	000000000r			; 0
	DD	041a00000r			; 20
	DD	040a00000r			; 5
	DD	041c80000r			; 25
	DD	000000000r			; 0
	DD	000000000r			; 0
	DD	040400000r			; 3
	DD	040000000r			; 2
	DD	000000000r			; 0
	DD	000000000r			; 0
	DD	000000000r			; 0
	DD	000000000r			; 0
	DD	000000000r			; 0
	DD	000000000r			; 0
	DD	000000000r			; 0
	DD	03c23d70ar			; 0.01
	DD	FLAT:??_C@_05MLKBHMKD@FLARE@
	DD	FLAT:??_C@_01OGPIMHDM@?$DP@
	DD	FLAT:??_C@_01OGPIMHDM@?$DP@
	DD	FLAT:??_C@_01OGPIMHDM@?$DP@
	DD	FLAT:??_C@_01OGPIMHDM@?$DP@
	DD	00H
	DD	00H
	DD	00H
	DD	02H
	DD	00H
	DD	00H
	DD	01aH
	DD	024H
	DD	019H
	DD	00H
	DD	0ffffffffH
	DD	044H
	DD	04dH
	DD	0ffffffffH
	DD	0ffffffffH
	DD	0aH
	DD	00H
	DD	00H
	DD	00H
	DD	03H
	DD	00H
	DD	00H
	DD	00H
	DD	00H
	DD	00H
	DD	00H
	DD	00H
	DD	00H
	DD	010H
	DD	000000000r			; 0
	DD	000000000r			; 0
	DD	000000000r			; 0
	DD	000000000r			; 0
	DD	000000000r			; 0
	DD	000000000r			; 0
	DD	000000000r			; 0
	DD	042200000r			; 40
	DD	041200000r			; 10
	DD	042480000r			; 50
	DD	000000000r			; 0
	DD	000000000r			; 0
	DD	040400000r			; 3
	DD	040000000r			; 2
	DD	000000000r			; 0
	DD	000000000r			; 0
	DD	000000000r			; 0
	DD	000000000r			; 0
	DD	000000000r			; 0
	DD	000000000r			; 0
	DD	000000000r			; 0
	DD	03c23d70ar			; 0.01
	DD	FLAT:??_C@_0O@DEACIOFP@SMOKE?5GRENADE@
	DD	FLAT:??_C@_01OGPIMHDM@?$DP@
	DD	FLAT:??_C@_01OGPIMHDM@?$DP@
	DD	FLAT:??_C@_01OGPIMHDM@?$DP@
	DD	FLAT:??_C@_01OGPIMHDM@?$DP@
	DD	00H
	DD	00H
	DD	00H
	DD	03H
	DD	05H
	DD	00H
	DD	01aH
	DD	07ebH
	DD	07ebH
	DD	00H
	DD	0ffffffffH
	DD	0ffffffffH
	DD	0ffffffffH
	DD	0ffffffffH
	DD	0ffffffffH
	DD	00H
	DD	00H
	DD	00H
	DD	00H
	DD	00H
	DD	00H
	DD	00H
	DD	01H
	DD	00H
	DD	00H
	DD	00H
	DD	00H
	DD	00H
	DD	010H
	DD	000000000r			; 0
	DD	000000000r			; 0
	DD	000000000r			; 0
	DD	000000000r			; 0
	DD	000000000r			; 0
	DD	000000000r			; 0
	DD	000000000r			; 0
	DD	040c00000r			; 6
	DD	000000000r			; 0
	DD	040c00000r			; 6
	DD	000000000r			; 0
	DD	000000000r			; 0
	DD	042340000r			; 45
	DD	041700000r			; 15
	DD	000000000r			; 0
	DD	000000000r			; 0
	DD	000000000r			; 0
	DD	000000000r			; 0
	DD	000000000r			; 0
	DD	000000000r			; 0
	DD	000000000r			; 0
	DD	03c23d70ar			; 0.01
	DD	FLAT:??_C@_05EADBLIEB@CRATE@
	DD	FLAT:??_C@_01OGPIMHDM@?$DP@
	DD	FLAT:??_C@_01OGPIMHDM@?$DP@
	DD	FLAT:??_C@_01OGPIMHDM@?$DP@
	DD	FLAT:??_C@_01OGPIMHDM@?$DP@
	DD	0a05H
	DD	00H
	DD	00H
	DD	00H
	DD	00H
	DD	00H
	DD	01aH
	DD	00H
	DD	00H
	DD	00H
	DD	0ffffffffH
	DD	0ffffffffH
	DD	0ffffffffH
	DD	0ffffffffH
	DD	0ffffffffH
	DD	00H
	DD	00H
	DD	00H
	DD	00H
	DD	00H
	DD	00H
	DD	00H
	DD	01H
	DD	00H
	DD	00H
	DD	00H
	DD	00H
	DD	00H
	DD	020H
	DD	000000000r			; 0
	DD	000000000r			; 0
	DD	000000000r			; 0
	DD	000000000r			; 0
	DD	000000000r			; 0
	DD	000000000r			; 0
	DD	000000000r			; 0
	DD	000000000r			; 0
	DD	000000000r			; 0
	DD	000000000r			; 0
	DD	000000000r			; 0
	DD	000000000r			; 0
	DD	043ff8000r			; 511
	DD	000000000r			; 0
	DD	000000000r			; 0
	DD	000000000r			; 0
	DD	000000000r			; 0
	DD	000000000r			; 0
	DD	000000000r			; 0
	DD	000000000r			; 0
	DD	000000000r			; 0
	DD	03c23d70ar			; 0.01
	DD	FLAT:??_C@_0M@GKAGEI@Rotor?5Blade@
	DD	FLAT:??_C@_01OGPIMHDM@?$DP@
	DD	FLAT:??_C@_01OGPIMHDM@?$DP@
	DD	FLAT:??_C@_01OGPIMHDM@?$DP@
	DD	FLAT:??_C@_01OGPIMHDM@?$DP@
	DD	0a03H
	DD	00H
	DD	00H
	DD	00H
	DD	01H
	DD	00H
	DD	01aH
	DD	00H
	DD	00H
	DD	00H
	DD	0ffffffffH
	DD	0ffffffffH
	DD	0ffffffffH
	DD	0ffffffffH
	DD	0ffffffffH
	DD	00H
	DD	00H
	DD	0226H
	DD	00H
	DD	00H
	DD	00H
	DD	00H
	DD	00H
	DD	01H
	DD	00H
	DD	00H
	DD	00H
	DD	00H
	DD	040H
	DD	000000000r			; 0
	DD	000000000r			; 0
	DD	000000000r			; 0
	DD	000000000r			; 0
	DD	000000000r			; 0
	DD	000000000r			; 0
	DD	000000000r			; 0
	DD	041700000r			; 15
	DD	040a00000r			; 5
	DD	041a00000r			; 20
	DD	000000000r			; 0
	DD	000000000r			; 0
	DD	041200000r			; 10
	DD	040a00000r			; 5
	DD	000000000r			; 0
	DD	000000000r			; 0
	DD	000000000r			; 0
	DD	000000000r			; 0
	DD	000000000r			; 0
	DD	000000000r			; 0
	DD	000000000r			; 0
	DD	03c23d70ar			; 0.01
	DD	FLAT:??_C@_0O@DFPLFLLG@Ejected?5Pilot@
	DD	FLAT:??_C@_01OGPIMHDM@?$DP@
	DD	FLAT:??_C@_01OGPIMHDM@?$DP@
	DD	FLAT:??_C@_01OGPIMHDM@?$DP@
	DD	FLAT:??_C@_01OGPIMHDM@?$DP@
	DD	0a02H
	DD	00H
	DD	00H
	DD	00H
	DD	01H
	DD	00H
	DD	01aH
	DD	021H
	DD	021H
	DD	056H
	DD	0ffffffffH
	DD	0ffffffffH
	DD	0ffffffffH
	DD	0ffffffffH
	DD	0ffffffffH
	DD	00H
	DD	00H
	DD	0226H
	DD	00H
	DD	02H
	DD	00H
	DD	00H
	DD	00H
	DD	01H
	DD	00H
	DD	00H
	DD	00H
	DD	00H
	DD	040H
	DD	000000000r			; 0
	DD	000000000r			; 0
	DD	000000000r			; 0
	DD	000000000r			; 0
	DD	000000000r			; 0
	DD	000000000r			; 0
	DD	000000000r			; 0
	DD	042480000r			; 50
	DD	041200000r			; 10
	DD	042700000r			; 60
	DD	000000000r			; 0
	DD	000000000r			; 0
	DD	043ff8000r			; 511
	DD	000000000r			; 0
	DD	000000000r			; 0
	DD	000000000r			; 0
	DD	000000000r			; 0
	DD	000000000r			; 0
	DD	000000000r			; 0
	DD	000000000r			; 0
	DD	000000000r			; 0
	DD	03c23d70ar			; 0.01
	DD	FLAT:??_C@_0BB@BAHFLPEL@Ejected?5Co?9pilot@
	DD	FLAT:??_C@_01OGPIMHDM@?$DP@
	DD	FLAT:??_C@_01OGPIMHDM@?$DP@
	DD	FLAT:??_C@_01OGPIMHDM@?$DP@
	DD	FLAT:??_C@_01OGPIMHDM@?$DP@
	DD	0a04H
	DD	00H
	DD	00H
	DD	00H
	DD	01H
	DD	00H
	DD	01aH
	DD	021H
	DD	021H
	DD	056H
	DD	0ffffffffH
	DD	0ffffffffH
	DD	0ffffffffH
	DD	0ffffffffH
	DD	0ffffffffH
	DD	00H
	DD	00H
	DD	0226H
	DD	00H
	DD	02H
	DD	00H
	DD	00H
	DD	00H
	DD	01H
	DD	00H
	DD	00H
	DD	00H
	DD	00H
	DD	040H
	DD	000000000r			; 0
	DD	000000000r			; 0
	DD	000000000r			; 0
	DD	000000000r			; 0
	DD	000000000r			; 0
	DD	000000000r			; 0
	DD	000000000r			; 0
	DD	042480000r			; 50
	DD	041200000r			; 10
	DD	042700000r			; 60
	DD	000000000r			; 0
	DD	000000000r			; 0
	DD	043ff8000r			; 511
	DD	000000000r			; 0
	DD	000000000r			; 0
	DD	000000000r			; 0
	DD	000000000r			; 0
	DD	000000000r			; 0
	DD	000000000r			; 0
	DD	000000000r			; 0
	DD	000000000r			; 0
	DD	03c23d70ar			; 0.01
	DD	FLAT:??_C@_09JBHBALIA@Crew?5Door@
	DD	FLAT:??_C@_01OGPIMHDM@?$DP@
	DD	FLAT:??_C@_01OGPIMHDM@?$DP@
	DD	FLAT:??_C@_01OGPIMHDM@?$DP@
	DD	FLAT:??_C@_01OGPIMHDM@?$DP@
	DD	0a00H
	DD	00H
	DD	00H
	DD	00H
	DD	01H
	DD	00H
	DD	01aH
	DD	02fH
	DD	02fH
	DD	00H
	DD	0ffffffffH
	DD	0ffffffffH
	DD	0ffffffffH
	DD	0ffffffffH
	DD	0ffffffffH
	DD	00H
	DD	00H
	DD	0226H
	DD	00H
	DD	00H
	DD	00H
	DD	00H
	DD	00H
	DD	01H
	DD	00H
	DD	00H
	DD	00H
	DD	00H
	DD	040H
	DD	000000000r			; 0
	DD	000000000r			; 0
	DD	000000000r			; 0
	DD	000000000r			; 0
	DD	000000000r			; 0
	DD	000000000r			; 0
	DD	000000000r			; 0
	DD	040c00000r			; 6
	DD	040000000r			; 2
	DD	041000000r			; 8
	DD	000000000r			; 0
	DD	000000000r			; 0
	DD	041200000r			; 10
	DD	040a00000r			; 5
	DD	000000000r			; 0
	DD	000000000r			; 0
	DD	000000000r			; 0
	DD	000000000r			; 0
	DD	000000000r			; 0
	DD	000000000r			; 0
	DD	000000000r			; 0
	DD	03c23d70ar			; 0.01
	DD	FLAT:??_C@_09JBHBALIA@Crew?5Door@
	DD	FLAT:??_C@_01OGPIMHDM@?$DP@
	DD	FLAT:??_C@_01OGPIMHDM@?$DP@
	DD	FLAT:??_C@_01OGPIMHDM@?$DP@
	DD	FLAT:??_C@_01OGPIMHDM@?$DP@
	DD	0a01H
	DD	00H
	DD	00H
	DD	00H
	DD	01H
	DD	00H
	DD	01aH
	DD	02fH
	DD	02fH
	DD	00H
	DD	0ffffffffH
	DD	0ffffffffH
	DD	0ffffffffH
	DD	0ffffffffH
	DD	0ffffffffH
	DD	00H
	DD	00H
	DD	0226H
	DD	00H
	DD	00H
	DD	00H
	DD	00H
	DD	00H
	DD	01H
	DD	00H
	DD	00H
	DD	00H
	DD	00H
	DD	040H
	DD	000000000r			; 0
	DD	000000000r			; 0
	DD	000000000r			; 0
	DD	000000000r			; 0
	DD	000000000r			; 0
	DD	000000000r			; 0
	DD	000000000r			; 0
	DD	040c00000r			; 6
	DD	040000000r			; 2
	DD	041000000r			; 8
	DD	000000000r			; 0
	DD	000000000r			; 0
	DD	041200000r			; 10
	DD	040a00000r			; 5
	DD	000000000r			; 0
	DD	000000000r			; 0
	DD	000000000r			; 0
	DD	000000000r			; 0
	DD	000000000r			; 0
	DD	000000000r			; 0
	DD	000000000r			; 0
	DD	03c23d70ar			; 0.01
?weapon_config_database@@3PAY0CA@UWEAPON_PACKAGE@@A DD 00H ; weapon_config_database
	ORG $+72
	DD	00H
	ORG $+72
	DD	00H
	ORG $+72
	DD	00H
	ORG $+72
	DD	00H
	ORG $+72
	DD	00H
	ORG $+72
	DD	00H
	ORG $+72
	DD	00H
	ORG $+72
	DD	00H
	ORG $+72
	DD	00H
	ORG $+72
	DD	00H
	ORG $+72
	DD	00H
	ORG $+72
	DD	00H
	ORG $+72
	DD	00H
	ORG $+72
	DD	00H
	ORG $+72
	DD	00H
	ORG $+72
	DD	00H
	ORG $+72
	DD	00H
	ORG $+72
	DD	00H
	ORG $+72
	DD	00H
	ORG $+72
	DD	00H
	ORG $+72
	DD	00H
	ORG $+72
	DD	00H
	ORG $+72
	DD	00H
	ORG $+72
	DD	00H
	ORG $+72
	DD	00H
	ORG $+72
	DD	00H
	ORG $+72
	DD	00H
	ORG $+72
	DD	00H
	ORG $+72
	DD	00H
	ORG $+72
	DD	00H
	ORG $+72
	DD	00H
	ORG $+72
	DD	043H
	DD	01eH
	DD	07H
	DD	00H
	DD	00H
	DD	00H
	DD	00H
	DD	01H
	DD	000000000r			; 0
	DD	000000000r			; 0
	DD	000000000r			; 0
	DD	000000000r			; 0
	DD	000000000r			; 0
	DD	000000000r			; 0
	DD	000000000r			; 0
	DD	045a10d97r			; 5153.7
	DD	00H
	DD	00H
	DD	00H
	DD	044H
	DD	01eH
	DD	07H
	DD	00H
	DD	00H
	DD	00H
	DD	00H
	DD	01H
	DD	000000000r			; 0
	DD	000000000r			; 0
	DD	000000000r			; 0
	DD	000000000r			; 0
	DD	000000000r			; 0
	DD	000000000r			; 0
	DD	000000000r			; 0
	DD	045a10d97r			; 5153.7
	DD	00H
	DD	00H
	DD	00H
	DD	07H
	DD	04b0H
	DD	06H
	DD	00H
	DD	00H
	DD	00H
	DD	01H
	DD	01H
	DD	03fc90fdbr			; 1.5708
	DD	0bff5be0br			; -1.91986
	DD	03ff5be0br			; 1.91986
	DD	03fc90fdbr			; 1.5708
	DD	0bf860a92r			; -1.0472
	DD	03e449809r			; 0.191986
	DD	000000000r			; 0
	DD	045a10d97r			; 5153.7
	DD	00H
	DD	00H
	DD	04H
	DD	00H
	ORG $+72
	DD	00H
	ORG $+72
	DD	00H
	ORG $+72
	DD	00H
	ORG $+72
	DD	00H
	ORG $+72
	DD	00H
	ORG $+72
	DD	00H
	ORG $+72
	DD	00H
	ORG $+72
	DD	00H
	ORG $+72
	DD	00H
	ORG $+72
	DD	00H
	ORG $+72
	DD	00H
	ORG $+72
	DD	00H
	ORG $+72
	DD	00H
	ORG $+72
	DD	00H
	ORG $+72
	DD	00H
	ORG $+72
	DD	00H
	ORG $+72
	DD	00H
	ORG $+72
	DD	00H
	ORG $+72
	DD	00H
	ORG $+72
	DD	00H
	ORG $+72
	DD	00H
	ORG $+72
	DD	00H
	ORG $+72
	DD	00H
	ORG $+72
	DD	00H
	ORG $+72
	DD	00H
	ORG $+72
	DD	00H
	ORG $+72
	DD	00H
	ORG $+72
	DD	00H
	ORG $+72
	DD	043H
	DD	01eH
	DD	07H
	DD	00H
	DD	00H
	DD	00H
	DD	00H
	DD	01H
	DD	000000000r			; 0
	DD	000000000r			; 0
	DD	000000000r			; 0
	DD	000000000r			; 0
	DD	000000000r			; 0
	DD	000000000r			; 0
	DD	000000000r			; 0
	DD	045a10d97r			; 5153.7
	DD	00H
	DD	00H
	DD	00H
	DD	044H
	DD	01eH
	DD	07H
	DD	00H
	DD	00H
	DD	00H
	DD	00H
	DD	01H
	DD	000000000r			; 0
	DD	000000000r			; 0
	DD	000000000r			; 0
	DD	000000000r			; 0
	DD	000000000r			; 0
	DD	000000000r			; 0
	DD	000000000r			; 0
	DD	045a10d97r			; 5153.7
	DD	00H
	DD	00H
	DD	00H
	DD	07H
	DD	04b0H
	DD	06H
	DD	00H
	DD	00H
	DD	00H
	DD	01H
	DD	01H
	DD	03fc90fdbr			; 1.5708
	DD	0bff5be0br			; -1.91986
	DD	03ff5be0br			; 1.91986
	DD	03fc90fdbr			; 1.5708
	DD	0bf860a92r			; -1.0472
	DD	03e449809r			; 0.191986
	DD	000000000r			; 0
	DD	045a10d97r			; 5153.7
	DD	00H
	DD	00H
	DD	04H
	DD	02dH
	DD	04H
	DD	00H
	DD	00H
	DD	00H
	DD	00H
	DD	00H
	DD	01H
	DD	000000000r			; 0
	DD	000000000r			; 0
	DD	000000000r			; 0
	DD	000000000r			; 0
	DD	000000000r			; 0
	DD	000000000r			; 0
	DD	000000000r			; 0
	DD	045a10d97r			; 5153.7
	DD	00H
	DD	00H
	DD	00H
	DD	02dH
	DD	04H
	DD	01H
	DD	00H
	DD	00H
	DD	00H
	DD	00H
	DD	01H
	DD	000000000r			; 0
	DD	000000000r			; 0
	DD	000000000r			; 0
	DD	000000000r			; 0
	DD	000000000r			; 0
	DD	000000000r			; 0
	DD	000000000r			; 0
	DD	045a10d97r			; 5153.7
	DD	00H
	DD	00H
	DD	00H
	DD	00H
	ORG $+72
	DD	00H
	ORG $+72
	DD	00H
	ORG $+72
	DD	00H
	ORG $+72
	DD	00H
	ORG $+72
	DD	00H
	ORG $+72
	DD	00H
	ORG $+72
	DD	00H
	ORG $+72
	DD	00H
	ORG $+72
	DD	00H
	ORG $+72
	DD	00H
	ORG $+72
	DD	00H
	ORG $+72
	DD	00H
	ORG $+72
	DD	00H
	ORG $+72
	DD	00H
	ORG $+72
	DD	00H
	ORG $+72
	DD	00H
	ORG $+72
	DD	00H
	ORG $+72
	DD	00H
	ORG $+72
	DD	00H
	ORG $+72
	DD	00H
	ORG $+72
	DD	00H
	ORG $+72
	DD	00H
	ORG $+72
	DD	00H
	ORG $+72
	DD	00H
	ORG $+72
	DD	00H
	ORG $+72
	DD	00H
	ORG $+72
	DD	043H
	DD	01eH
	DD	07H
	DD	00H
	DD	00H
	DD	00H
	DD	00H
	DD	01H
	DD	000000000r			; 0
	DD	000000000r			; 0
	DD	000000000r			; 0
	DD	000000000r			; 0
	DD	000000000r			; 0
	DD	000000000r			; 0
	DD	000000000r			; 0
	DD	045a10d97r			; 5153.7
	DD	00H
	DD	00H
	DD	00H
	DD	044H
	DD	01eH
	DD	07H
	DD	00H
	DD	00H
	DD	00H
	DD	00H
	DD	01H
	DD	000000000r			; 0
	DD	000000000r			; 0
	DD	000000000r			; 0
	DD	000000000r			; 0
	DD	000000000r			; 0
	DD	000000000r			; 0
	DD	000000000r			; 0
	DD	045a10d97r			; 5153.7
	DD	00H
	DD	00H
	DD	00H
	DD	07H
	DD	04b0H
	DD	06H
	DD	00H
	DD	00H
	DD	00H
	DD	01H
	DD	01H
	DD	03fc90fdbr			; 1.5708
	DD	0bff5be0br			; -1.91986
	DD	03ff5be0br			; 1.91986
	DD	03fc90fdbr			; 1.5708
	DD	0bf860a92r			; -1.0472
	DD	03e449809r			; 0.191986
	DD	000000000r			; 0
	DD	045a10d97r			; 5153.7
	DD	00H
	DD	00H
	DD	04H
	DD	02eH
	DD	04H
	DD	00H
	DD	00H
	DD	00H
	DD	00H
	DD	00H
	DD	01H
	DD	000000000r			; 0
	DD	000000000r			; 0
	DD	000000000r			; 0
	DD	000000000r			; 0
	DD	000000000r			; 0
	DD	000000000r			; 0
	DD	000000000r			; 0
	DD	045a10d97r			; 5153.7
	DD	00H
	DD	00H
	DD	00H
	DD	02eH
	DD	04H
	DD	01H
	DD	00H
	DD	00H
	DD	00H
	DD	00H
	DD	01H
	DD	000000000r			; 0
	DD	000000000r			; 0
	DD	000000000r			; 0
	DD	000000000r			; 0
	DD	000000000r			; 0
	DD	000000000r			; 0
	DD	000000000r			; 0
	DD	045a10d97r			; 5153.7
	DD	00H
	DD	00H
	DD	00H
	DD	00H
	ORG $+72
	DD	00H
	ORG $+72
	DD	00H
	ORG $+72
	DD	00H
	ORG $+72
	DD	00H
	ORG $+72
	DD	00H
	ORG $+72
	DD	00H
	ORG $+72
	DD	00H
	ORG $+72
	DD	00H
	ORG $+72
	DD	00H
	ORG $+72
	DD	00H
	ORG $+72
	DD	00H
	ORG $+72
	DD	00H
	ORG $+72
	DD	00H
	ORG $+72
	DD	00H
	ORG $+72
	DD	00H
	ORG $+72
	DD	00H
	ORG $+72
	DD	00H
	ORG $+72
	DD	00H
	ORG $+72
	DD	00H
	ORG $+72
	DD	00H
	ORG $+72
	DD	00H
	ORG $+72
	DD	00H
	ORG $+72
	DD	00H
	ORG $+72
	DD	00H
	ORG $+72
	DD	00H
	ORG $+72
	DD	00H
	ORG $+72
	DD	043H
	DD	01eH
	DD	07H
	DD	00H
	DD	00H
	DD	00H
	DD	00H
	DD	01H
	DD	000000000r			; 0
	DD	000000000r			; 0
	DD	000000000r			; 0
	DD	000000000r			; 0
	DD	000000000r			; 0
	DD	000000000r			; 0
	DD	000000000r			; 0
	DD	045a10d97r			; 5153.7
	DD	00H
	DD	00H
	DD	00H
	DD	044H
	DD	01eH
	DD	07H
	DD	00H
	DD	00H
	DD	00H
	DD	00H
	DD	01H
	DD	000000000r			; 0
	DD	000000000r			; 0
	DD	000000000r			; 0
	DD	000000000r			; 0
	DD	000000000r			; 0
	DD	000000000r			; 0
	DD	000000000r			; 0
	DD	045a10d97r			; 5153.7
	DD	00H
	DD	00H
	DD	00H
	DD	07H
	DD	04b0H
	DD	06H
	DD	00H
	DD	00H
	DD	00H
	DD	01H
	DD	01H
	DD	03fc90fdbr			; 1.5708
	DD	0bff5be0br			; -1.91986
	DD	03ff5be0br			; 1.91986
	DD	03fc90fdbr			; 1.5708
	DD	0bf860a92r			; -1.0472
	DD	03e449809r			; 0.191986
	DD	000000000r			; 0
	DD	045a10d97r			; 5153.7
	DD	00H
	DD	00H
	DD	04H
	DD	01eH
	DD	013H
	DD	00H
	DD	01H
	DD	00H
	DD	00H
	DD	01H
	DD	02H
	DD	000000000r			; 0
	DD	000000000r			; 0
	DD	000000000r			; 0
	DD	03eb2b8c2r			; 0.349066
	DD	0be860a92r			; -0.261799
	DD	03daf25b4r			; 0.0855211
	DD	000000000r			; 0
	DD	0424e25e0r			; 51.537
	DD	00H
	DD	00H
	DD	00H
	DD	01eH
	DD	013H
	DD	01H
	DD	01H
	DD	00H
	DD	00H
	DD	01H
	DD	02H
	DD	000000000r			; 0
	DD	000000000r			; 0
	DD	000000000r			; 0
	DD	03eb2b8c2r			; 0.349066
	DD	0be860a92r			; -0.261799
	DD	03daf25b4r			; 0.0855211
	DD	000000000r			; 0
	DD	0424e25e0r			; 51.537
	DD	00H
	DD	00H
	DD	00H
	DD	00H
	ORG $+72
	DD	00H
	ORG $+72
	DD	00H
	ORG $+72
	DD	00H
	ORG $+72
	DD	00H
	ORG $+72
	DD	00H
	ORG $+72
	DD	00H
	ORG $+72
	DD	00H
	ORG $+72
	DD	00H
	ORG $+72
	DD	00H
	ORG $+72
	DD	00H
	ORG $+72
	DD	00H
	ORG $+72
	DD	00H
	ORG $+72
	DD	00H
	ORG $+72
	DD	00H
	ORG $+72
	DD	00H
	ORG $+72
	DD	00H
	ORG $+72
	DD	00H
	ORG $+72
	DD	00H
	ORG $+72
	DD	00H
	ORG $+72
	DD	00H
	ORG $+72
	DD	00H
	ORG $+72
	DD	00H
	ORG $+72
	DD	00H
	ORG $+72
	DD	00H
	ORG $+72
	DD	00H
	ORG $+72
	DD	00H
	ORG $+72
	DD	043H
	DD	01eH
	DD	07H
	DD	00H
	DD	00H
	DD	00H
	DD	00H
	DD	01H
	DD	000000000r			; 0
	DD	000000000r			; 0
	DD	000000000r			; 0
	DD	000000000r			; 0
	DD	000000000r			; 0
	DD	000000000r			; 0
	DD	000000000r			; 0
	DD	045a10d97r			; 5153.7
	DD	00H
	DD	00H
	DD	00H
	DD	044H
	DD	01eH
	DD	07H
	DD	00H
	DD	00H
	DD	00H
	DD	00H
	DD	01H
	DD	000000000r			; 0
	DD	000000000r			; 0
	DD	000000000r			; 0
	DD	000000000r			; 0
	DD	000000000r			; 0
	DD	000000000r			; 0
	DD	000000000r			; 0
	DD	045a10d97r			; 5153.7
	DD	00H
	DD	00H
	DD	00H
	DD	07H
	DD	04b0H
	DD	06H
	DD	00H
	DD	00H
	DD	00H
	DD	01H
	DD	01H
	DD	03fc90fdbr			; 1.5708
	DD	0bff5be0br			; -1.91986
	DD	03ff5be0br			; 1.91986
	DD	03fc90fdbr			; 1.5708
	DD	0bf860a92r			; -1.0472
	DD	03e449809r			; 0.191986
	DD	000000000r			; 0
	DD	045a10d97r			; 5153.7
	DD	00H
	DD	00H
	DD	04H
	DD	01fH
	DD	013H
	DD	00H
	DD	01H
	DD	00H
	DD	00H
	DD	01H
	DD	02H
	DD	000000000r			; 0
	DD	000000000r			; 0
	DD	000000000r			; 0
	DD	03eb2b8c2r			; 0.349066
	DD	0be860a92r			; -0.261799
	DD	03daf25b4r			; 0.0855211
	DD	000000000r			; 0
	DD	0424e25e0r			; 51.537
	DD	00H
	DD	00H
	DD	00H
	DD	01fH
	DD	013H
	DD	01H
	DD	01H
	DD	00H
	DD	00H
	DD	01H
	DD	02H
	DD	000000000r			; 0
	DD	000000000r			; 0
	DD	000000000r			; 0
	DD	03eb2b8c2r			; 0.349066
	DD	0be860a92r			; -0.261799
	DD	03daf25b4r			; 0.0855211
	DD	000000000r			; 0
	DD	0424e25e0r			; 51.537
	DD	00H
	DD	00H
	DD	00H
	DD	00H
	ORG $+72
	DD	00H
	ORG $+72
	DD	00H
	ORG $+72
	DD	00H
	ORG $+72
	DD	00H
	ORG $+72
	DD	00H
	ORG $+72
	DD	00H
	ORG $+72
	DD	00H
	ORG $+72
	DD	00H
	ORG $+72
	DD	00H
	ORG $+72
	DD	00H
	ORG $+72
	DD	00H
	ORG $+72
	DD	00H
	ORG $+72
	DD	00H
	ORG $+72
	DD	00H
	ORG $+72
	DD	00H
	ORG $+72
	DD	00H
	ORG $+72
	DD	00H
	ORG $+72
	DD	00H
	ORG $+72
	DD	00H
	ORG $+72
	DD	00H
	ORG $+72
	DD	00H
	ORG $+72
	DD	00H
	ORG $+72
	DD	00H
	ORG $+72
	DD	00H
	ORG $+72
	DD	00H
	ORG $+72
	DD	00H
	ORG $+72
	DD	043H
	DD	01eH
	DD	07H
	DD	00H
	DD	00H
	DD	00H
	DD	00H
	DD	01H
	DD	000000000r			; 0
	DD	000000000r			; 0
	DD	000000000r			; 0
	DD	000000000r			; 0
	DD	000000000r			; 0
	DD	000000000r			; 0
	DD	000000000r			; 0
	DD	045a10d97r			; 5153.7
	DD	00H
	DD	00H
	DD	00H
	DD	044H
	DD	01eH
	DD	07H
	DD	00H
	DD	00H
	DD	00H
	DD	00H
	DD	01H
	DD	000000000r			; 0
	DD	000000000r			; 0
	DD	000000000r			; 0
	DD	000000000r			; 0
	DD	000000000r			; 0
	DD	000000000r			; 0
	DD	000000000r			; 0
	DD	045a10d97r			; 5153.7
	DD	00H
	DD	00H
	DD	00H
	DD	07H
	DD	04b0H
	DD	06H
	DD	00H
	DD	00H
	DD	00H
	DD	01H
	DD	01H
	DD	03fc90fdbr			; 1.5708
	DD	0bff5be0br			; -1.91986
	DD	03ff5be0br			; 1.91986
	DD	03fc90fdbr			; 1.5708
	DD	0bf860a92r			; -1.0472
	DD	03e449809r			; 0.191986
	DD	000000000r			; 0
	DD	045a10d97r			; 5153.7
	DD	00H
	DD	00H
	DD	04H
	DD	02dH
	DD	04H
	DD	02H
	DD	00H
	DD	00H
	DD	00H
	DD	00H
	DD	01H
	DD	000000000r			; 0
	DD	000000000r			; 0
	DD	000000000r			; 0
	DD	000000000r			; 0
	DD	000000000r			; 0
	DD	000000000r			; 0
	DD	000000000r			; 0
	DD	045a10d97r			; 5153.7
	DD	00H
	DD	00H
	DD	00H
	DD	02dH
	DD	04H
	DD	03H
	DD	00H
	DD	00H
	DD	00H
	DD	00H
	DD	01H
	DD	000000000r			; 0
	DD	000000000r			; 0
	DD	000000000r			; 0
	DD	000000000r			; 0
	DD	000000000r			; 0
	DD	000000000r			; 0
	DD	000000000r			; 0
	DD	045a10d97r			; 5153.7
	DD	00H
	DD	00H
	DD	00H
	DD	00H
	ORG $+72
	DD	00H
	ORG $+72
	DD	00H
	ORG $+72
	DD	00H
	ORG $+72
	DD	00H
	ORG $+72
	DD	00H
	ORG $+72
	DD	00H
	ORG $+72
	DD	00H
	ORG $+72
	DD	00H
	ORG $+72
	DD	00H
	ORG $+72
	DD	00H
	ORG $+72
	DD	00H
	ORG $+72
	DD	00H
	ORG $+72
	DD	00H
	ORG $+72
	DD	00H
	ORG $+72
	DD	00H
	ORG $+72
	DD	00H
	ORG $+72
	DD	00H
	ORG $+72
	DD	00H
	ORG $+72
	DD	00H
	ORG $+72
	DD	00H
	ORG $+72
	DD	00H
	ORG $+72
	DD	00H
	ORG $+72
	DD	00H
	ORG $+72
	DD	00H
	ORG $+72
	DD	00H
	ORG $+72
	DD	00H
	ORG $+72
	DD	043H
	DD	01eH
	DD	07H
	DD	00H
	DD	00H
	DD	00H
	DD	00H
	DD	01H
	DD	000000000r			; 0
	DD	000000000r			; 0
	DD	000000000r			; 0
	DD	000000000r			; 0
	DD	000000000r			; 0
	DD	000000000r			; 0
	DD	000000000r			; 0
	DD	045a10d97r			; 5153.7
	DD	00H
	DD	00H
	DD	00H
	DD	044H
	DD	01eH
	DD	07H
	DD	00H
	DD	00H
	DD	00H
	DD	00H
	DD	01H
	DD	000000000r			; 0
	DD	000000000r			; 0
	DD	000000000r			; 0
	DD	000000000r			; 0
	DD	000000000r			; 0
	DD	000000000r			; 0
	DD	000000000r			; 0
	DD	045a10d97r			; 5153.7
	DD	00H
	DD	00H
	DD	00H
	DD	07H
	DD	04b0H
	DD	06H
	DD	00H
	DD	00H
	DD	00H
	DD	01H
	DD	01H
	DD	03fc90fdbr			; 1.5708
	DD	0bff5be0br			; -1.91986
	DD	03ff5be0br			; 1.91986
	DD	03fc90fdbr			; 1.5708
	DD	0bf860a92r			; -1.0472
	DD	03e449809r			; 0.191986
	DD	000000000r			; 0
	DD	045a10d97r			; 5153.7
	DD	00H
	DD	00H
	DD	04H
	DD	02dH
	DD	04H
	DD	00H
	DD	00H
	DD	00H
	DD	00H
	DD	00H
	DD	01H
	DD	000000000r			; 0
	DD	000000000r			; 0
	DD	000000000r			; 0
	DD	000000000r			; 0
	DD	000000000r			; 0
	DD	000000000r			; 0
	DD	000000000r			; 0
	DD	045a10d97r			; 5153.7
	DD	00H
	DD	00H
	DD	00H
	DD	02dH
	DD	04H
	DD	01H
	DD	00H
	DD	00H
	DD	00H
	DD	00H
	DD	01H
	DD	000000000r			; 0
	DD	000000000r			; 0
	DD	000000000r			; 0
	DD	000000000r			; 0
	DD	000000000r			; 0
	DD	000000000r			; 0
	DD	000000000r			; 0
	DD	045a10d97r			; 5153.7
	DD	00H
	DD	00H
	DD	00H
	DD	02dH
	DD	04H
	DD	02H
	DD	00H
	DD	00H
	DD	00H
	DD	00H
	DD	01H
	DD	000000000r			; 0
	DD	000000000r			; 0
	DD	000000000r			; 0
	DD	000000000r			; 0
	DD	000000000r			; 0
	DD	000000000r			; 0
	DD	000000000r			; 0
	DD	045a10d97r			; 5153.7
	DD	00H
	DD	00H
	DD	00H
	DD	02dH
	DD	04H
	DD	03H
	DD	00H
	DD	00H
	DD	00H
	DD	00H
	DD	01H
	DD	000000000r			; 0
	DD	000000000r			; 0
	DD	000000000r			; 0
	DD	000000000r			; 0
	DD	000000000r			; 0
	DD	000000000r			; 0
	DD	000000000r			; 0
	DD	045a10d97r			; 5153.7
	DD	00H
	DD	00H
	DD	00H
	DD	00H
	ORG $+72
	DD	00H
	ORG $+72
	DD	00H
	ORG $+72
	DD	00H
	ORG $+72
	DD	00H
	ORG $+72
	DD	00H
	ORG $+72
	DD	00H
	ORG $+72
	DD	00H
	ORG $+72
	DD	00H
	ORG $+72
	DD	00H
	ORG $+72
	DD	00H
	ORG $+72
	DD	00H
	ORG $+72
	DD	00H
	ORG $+72
	DD	00H
	ORG $+72
	DD	00H
	ORG $+72
	DD	00H
	ORG $+72
	DD	00H
	ORG $+72
	DD	00H
	ORG $+72
	DD	00H
	ORG $+72
	DD	00H
	ORG $+72
	DD	00H
	ORG $+72
	DD	00H
	ORG $+72
	DD	00H
	ORG $+72
	DD	00H
	ORG $+72
	DD	00H
	ORG $+72
	DD	043H
	DD	01eH
	DD	07H
	DD	00H
	DD	00H
	DD	00H
	DD	00H
	DD	01H
	DD	000000000r			; 0
	DD	000000000r			; 0
	DD	000000000r			; 0
	DD	000000000r			; 0
	DD	000000000r			; 0
	DD	000000000r			; 0
	DD	000000000r			; 0
	DD	045a10d97r			; 5153.7
	DD	00H
	DD	00H
	DD	00H
	DD	044H
	DD	01eH
	DD	07H
	DD	00H
	DD	00H
	DD	00H
	DD	00H
	DD	01H
	DD	000000000r			; 0
	DD	000000000r			; 0
	DD	000000000r			; 0
	DD	000000000r			; 0
	DD	000000000r			; 0
	DD	000000000r			; 0
	DD	000000000r			; 0
	DD	045a10d97r			; 5153.7
	DD	00H
	DD	00H
	DD	00H
	DD	07H
	DD	04b0H
	DD	06H
	DD	00H
	DD	00H
	DD	00H
	DD	01H
	DD	01H
	DD	03fc90fdbr			; 1.5708
	DD	0bff5be0br			; -1.91986
	DD	03ff5be0br			; 1.91986
	DD	03fc90fdbr			; 1.5708
	DD	0bf860a92r			; -1.0472
	DD	03e449809r			; 0.191986
	DD	000000000r			; 0
	DD	045a10d97r			; 5153.7
	DD	00H
	DD	00H
	DD	04H
	DD	02eH
	DD	04H
	DD	00H
	DD	00H
	DD	00H
	DD	00H
	DD	00H
	DD	01H
	DD	000000000r			; 0
	DD	000000000r			; 0
	DD	000000000r			; 0
	DD	000000000r			; 0
	DD	000000000r			; 0
	DD	000000000r			; 0
	DD	000000000r			; 0
	DD	045a10d97r			; 5153.7
	DD	00H
	DD	00H
	DD	00H
	DD	02eH
	DD	04H
	DD	01H
	DD	00H
	DD	00H
	DD	00H
	DD	00H
	DD	01H
	DD	000000000r			; 0
	DD	000000000r			; 0
	DD	000000000r			; 0
	DD	000000000r			; 0
	DD	000000000r			; 0
	DD	000000000r			; 0
	DD	000000000r			; 0
	DD	045a10d97r			; 5153.7
	DD	00H
	DD	00H
	DD	00H
	DD	02dH
	DD	04H
	DD	02H
	DD	00H
	DD	00H
	DD	00H
	DD	00H
	DD	01H
	DD	000000000r			; 0
	DD	000000000r			; 0
	DD	000000000r			; 0
	DD	000000000r			; 0
	DD	000000000r			; 0
	DD	000000000r			; 0
	DD	000000000r			; 0
	DD	045a10d97r			; 5153.7
	DD	00H
	DD	00H
	DD	00H
	DD	02dH
	DD	04H
	DD	03H
	DD	00H
	DD	00H
	DD	00H
	DD	00H
	DD	01H
	DD	000000000r			; 0
	DD	000000000r			; 0
	DD	000000000r			; 0
	DD	000000000r			; 0
	DD	000000000r			; 0
	DD	000000000r			; 0
	DD	000000000r			; 0
	DD	045a10d97r			; 5153.7
	DD	00H
	DD	00H
	DD	00H
	DD	00H
	ORG $+72
	DD	00H
	ORG $+72
	DD	00H
	ORG $+72
	DD	00H
	ORG $+72
	DD	00H
	ORG $+72
	DD	00H
	ORG $+72
	DD	00H
	ORG $+72
	DD	00H
	ORG $+72
	DD	00H
	ORG $+72
	DD	00H
	ORG $+72
	DD	00H
	ORG $+72
	DD	00H
	ORG $+72
	DD	00H
	ORG $+72
	DD	00H
	ORG $+72
	DD	00H
	ORG $+72
	DD	00H
	ORG $+72
	DD	00H
	ORG $+72
	DD	00H
	ORG $+72
	DD	00H
	ORG $+72
	DD	00H
	ORG $+72
	DD	00H
	ORG $+72
	DD	00H
	ORG $+72
	DD	00H
	ORG $+72
	DD	00H
	ORG $+72
	DD	00H
	ORG $+72
	DD	043H
	DD	01eH
	DD	07H
	DD	00H
	DD	00H
	DD	00H
	DD	00H
	DD	01H
	DD	000000000r			; 0
	DD	000000000r			; 0
	DD	000000000r			; 0
	DD	000000000r			; 0
	DD	000000000r			; 0
	DD	000000000r			; 0
	DD	000000000r			; 0
	DD	045a10d97r			; 5153.7
	DD	00H
	DD	00H
	DD	00H
	DD	044H
	DD	01eH
	DD	07H
	DD	00H
	DD	00H
	DD	00H
	DD	00H
	DD	01H
	DD	000000000r			; 0
	DD	000000000r			; 0
	DD	000000000r			; 0
	DD	000000000r			; 0
	DD	000000000r			; 0
	DD	000000000r			; 0
	DD	000000000r			; 0
	DD	045a10d97r			; 5153.7
	DD	00H
	DD	00H
	DD	00H
	DD	07H
	DD	04b0H
	DD	06H
	DD	00H
	DD	00H
	DD	00H
	DD	01H
	DD	01H
	DD	03fc90fdbr			; 1.5708
	DD	0bff5be0br			; -1.91986
	DD	03ff5be0br			; 1.91986
	DD	03fc90fdbr			; 1.5708
	DD	0bf860a92r			; -1.0472
	DD	03e449809r			; 0.191986
	DD	000000000r			; 0
	DD	045a10d97r			; 5153.7
	DD	00H
	DD	00H
	DD	04H
	DD	01eH
	DD	013H
	DD	00H
	DD	01H
	DD	00H
	DD	00H
	DD	01H
	DD	02H
	DD	000000000r			; 0
	DD	000000000r			; 0
	DD	000000000r			; 0
	DD	03eb2b8c2r			; 0.349066
	DD	0be860a92r			; -0.261799
	DD	03daf25b4r			; 0.0855211
	DD	000000000r			; 0
	DD	0424e25e0r			; 51.537
	DD	00H
	DD	00H
	DD	00H
	DD	01eH
	DD	013H
	DD	01H
	DD	01H
	DD	00H
	DD	00H
	DD	01H
	DD	02H
	DD	000000000r			; 0
	DD	000000000r			; 0
	DD	000000000r			; 0
	DD	03eb2b8c2r			; 0.349066
	DD	0be860a92r			; -0.261799
	DD	03daf25b4r			; 0.0855211
	DD	000000000r			; 0
	DD	0424e25e0r			; 51.537
	DD	00H
	DD	00H
	DD	00H
	DD	02dH
	DD	04H
	DD	02H
	DD	00H
	DD	00H
	DD	00H
	DD	00H
	DD	01H
	DD	000000000r			; 0
	DD	000000000r			; 0
	DD	000000000r			; 0
	DD	000000000r			; 0
	DD	000000000r			; 0
	DD	000000000r			; 0
	DD	000000000r			; 0
	DD	045a10d97r			; 5153.7
	DD	00H
	DD	00H
	DD	00H
	DD	02dH
	DD	04H
	DD	03H
	DD	00H
	DD	00H
	DD	00H
	DD	00H
	DD	01H
	DD	000000000r			; 0
	DD	000000000r			; 0
	DD	000000000r			; 0
	DD	000000000r			; 0
	DD	000000000r			; 0
	DD	000000000r			; 0
	DD	000000000r			; 0
	DD	045a10d97r			; 5153.7
	DD	00H
	DD	00H
	DD	00H
	DD	00H
	ORG $+72
	DD	00H
	ORG $+72
	DD	00H
	ORG $+72
	DD	00H
	ORG $+72
	DD	00H
	ORG $+72
	DD	00H
	ORG $+72
	DD	00H
	ORG $+72
	DD	00H
	ORG $+72
	DD	00H
	ORG $+72
	DD	00H
	ORG $+72
	DD	00H
	ORG $+72
	DD	00H
	ORG $+72
	DD	00H
	ORG $+72
	DD	00H
	ORG $+72
	DD	00H
	ORG $+72
	DD	00H
	ORG $+72
	DD	00H
	ORG $+72
	DD	00H
	ORG $+72
	DD	00H
	ORG $+72
	DD	00H
	ORG $+72
	DD	00H
	ORG $+72
	DD	00H
	ORG $+72
	DD	00H
	ORG $+72
	DD	00H
	ORG $+72
	DD	00H
	ORG $+72
	DD	043H
	DD	01eH
	DD	07H
	DD	00H
	DD	00H
	DD	00H
	DD	00H
	DD	01H
	DD	000000000r			; 0
	DD	000000000r			; 0
	DD	000000000r			; 0
	DD	000000000r			; 0
	DD	000000000r			; 0
	DD	000000000r			; 0
	DD	000000000r			; 0
	DD	045a10d97r			; 5153.7
	DD	00H
	DD	00H
	DD	00H
	DD	044H
	DD	01eH
	DD	07H
	DD	00H
	DD	00H
	DD	00H
	DD	00H
	DD	01H
	DD	000000000r			; 0
	DD	000000000r			; 0
	DD	000000000r			; 0
	DD	000000000r			; 0
	DD	000000000r			; 0
	DD	000000000r			; 0
	DD	000000000r			; 0
	DD	045a10d97r			; 5153.7
	DD	00H
	DD	00H
	DD	00H
	DD	07H
	DD	04b0H
	DD	06H
	DD	00H
	DD	00H
	DD	00H
	DD	01H
	DD	01H
	DD	03fc90fdbr			; 1.5708
	DD	0bff5be0br			; -1.91986
	DD	03ff5be0br			; 1.91986
	DD	03fc90fdbr			; 1.5708
	DD	0bf860a92r			; -1.0472
	DD	03e449809r			; 0.191986
	DD	000000000r			; 0
	DD	045a10d97r			; 5153.7
	DD	00H
	DD	00H
	DD	04H
	DD	01fH
	DD	013H
	DD	00H
	DD	01H
	DD	00H
	DD	00H
	DD	01H
	DD	02H
	DD	000000000r			; 0
	DD	000000000r			; 0
	DD	000000000r			; 0
	DD	03eb2b8c2r			; 0.349066
	DD	0be860a92r			; -0.261799
	DD	03daf25b4r			; 0.0855211
	DD	000000000r			; 0
	DD	0424e25e0r			; 51.537
	DD	00H
	DD	00H
	DD	00H
	DD	01fH
	DD	013H
	DD	01H
	DD	01H
	DD	00H
	DD	00H
	DD	01H
	DD	02H
	DD	000000000r			; 0
	DD	000000000r			; 0
	DD	000000000r			; 0
	DD	03eb2b8c2r			; 0.349066
	DD	0be860a92r			; -0.261799
	DD	03daf25b4r			; 0.0855211
	DD	000000000r			; 0
	DD	0424e25e0r			; 51.537
	DD	00H
	DD	00H
	DD	00H
	DD	02dH
	DD	04H
	DD	02H
	DD	00H
	DD	00H
	DD	00H
	DD	00H
	DD	01H
	DD	000000000r			; 0
	DD	000000000r			; 0
	DD	000000000r			; 0
	DD	000000000r			; 0
	DD	000000000r			; 0
	DD	000000000r			; 0
	DD	000000000r			; 0
	DD	045a10d97r			; 5153.7
	DD	00H
	DD	00H
	DD	00H
	DD	02dH
	DD	04H
	DD	03H
	DD	00H
	DD	00H
	DD	00H
	DD	00H
	DD	01H
	DD	000000000r			; 0
	DD	000000000r			; 0
	DD	000000000r			; 0
	DD	000000000r			; 0
	DD	000000000r			; 0
	DD	000000000r			; 0
	DD	000000000r			; 0
	DD	045a10d97r			; 5153.7
	DD	00H
	DD	00H
	DD	00H
	DD	00H
	ORG $+72
	DD	00H
	ORG $+72
	DD	00H
	ORG $+72
	DD	00H
	ORG $+72
	DD	00H
	ORG $+72
	DD	00H
	ORG $+72
	DD	00H
	ORG $+72
	DD	00H
	ORG $+72
	DD	00H
	ORG $+72
	DD	00H
	ORG $+72
	DD	00H
	ORG $+72
	DD	00H
	ORG $+72
	DD	00H
	ORG $+72
	DD	00H
	ORG $+72
	DD	00H
	ORG $+72
	DD	00H
	ORG $+72
	DD	00H
	ORG $+72
	DD	00H
	ORG $+72
	DD	00H
	ORG $+72
	DD	00H
	ORG $+72
	DD	00H
	ORG $+72
	DD	00H
	ORG $+72
	DD	00H
	ORG $+72
	DD	00H
	ORG $+72
	DD	00H
	ORG $+72
	DD	043H
	DD	01eH
	DD	07H
	DD	00H
	DD	00H
	DD	00H
	DD	00H
	DD	01H
	DD	000000000r			; 0
	DD	000000000r			; 0
	DD	000000000r			; 0
	DD	000000000r			; 0
	DD	000000000r			; 0
	DD	000000000r			; 0
	DD	000000000r			; 0
	DD	045a10d97r			; 5153.7
	DD	00H
	DD	00H
	DD	00H
	DD	044H
	DD	01eH
	DD	07H
	DD	00H
	DD	00H
	DD	00H
	DD	00H
	DD	01H
	DD	000000000r			; 0
	DD	000000000r			; 0
	DD	000000000r			; 0
	DD	000000000r			; 0
	DD	000000000r			; 0
	DD	000000000r			; 0
	DD	000000000r			; 0
	DD	045a10d97r			; 5153.7
	DD	00H
	DD	00H
	DD	00H
	DD	07H
	DD	04b0H
	DD	06H
	DD	00H
	DD	00H
	DD	00H
	DD	01H
	DD	01H
	DD	03fc90fdbr			; 1.5708
	DD	0bff5be0br			; -1.91986
	DD	03ff5be0br			; 1.91986
	DD	03fc90fdbr			; 1.5708
	DD	0bf860a92r			; -1.0472
	DD	03e449809r			; 0.191986
	DD	000000000r			; 0
	DD	045a10d97r			; 5153.7
	DD	00H
	DD	00H
	DD	04H
	DD	02eH
	DD	04H
	DD	02H
	DD	00H
	DD	00H
	DD	00H
	DD	00H
	DD	01H
	DD	000000000r			; 0
	DD	000000000r			; 0
	DD	000000000r			; 0
	DD	000000000r			; 0
	DD	000000000r			; 0
	DD	000000000r			; 0
	DD	000000000r			; 0
	DD	045a10d97r			; 5153.7
	DD	00H
	DD	00H
	DD	00H
	DD	02eH
	DD	04H
	DD	03H
	DD	00H
	DD	00H
	DD	00H
	DD	00H
	DD	01H
	DD	000000000r			; 0
	DD	000000000r			; 0
	DD	000000000r			; 0
	DD	000000000r			; 0
	DD	000000000r			; 0
	DD	000000000r			; 0
	DD	000000000r			; 0
	DD	045a10d97r			; 5153.7
	DD	00H
	DD	00H
	DD	00H
	DD	00H
	ORG $+72
	DD	00H
	ORG $+72
	DD	00H
	ORG $+72
	DD	00H
	ORG $+72
	DD	00H
	ORG $+72
	DD	00H
	ORG $+72
	DD	00H
	ORG $+72
	DD	00H
	ORG $+72
	DD	00H
	ORG $+72
	DD	00H
	ORG $+72
	DD	00H
	ORG $+72
	DD	00H
	ORG $+72
	DD	00H
	ORG $+72
	DD	00H
	ORG $+72
	DD	00H
	ORG $+72
	DD	00H
	ORG $+72
	DD	00H
	ORG $+72
	DD	00H
	ORG $+72
	DD	00H
	ORG $+72
	DD	00H
	ORG $+72
	DD	00H
	ORG $+72
	DD	00H
	ORG $+72
	DD	00H
	ORG $+72
	DD	00H
	ORG $+72
	DD	00H
	ORG $+72
	DD	00H
	ORG $+72
	DD	00H
	ORG $+72
	DD	043H
	DD	01eH
	DD	07H
	DD	00H
	DD	00H
	DD	00H
	DD	00H
	DD	01H
	DD	000000000r			; 0
	DD	000000000r			; 0
	DD	000000000r			; 0
	DD	000000000r			; 0
	DD	000000000r			; 0
	DD	000000000r			; 0
	DD	000000000r			; 0
	DD	045a10d97r			; 5153.7
	DD	00H
	DD	00H
	DD	00H
	DD	044H
	DD	01eH
	DD	07H
	DD	00H
	DD	00H
	DD	00H
	DD	00H
	DD	01H
	DD	000000000r			; 0
	DD	000000000r			; 0
	DD	000000000r			; 0
	DD	000000000r			; 0
	DD	000000000r			; 0
	DD	000000000r			; 0
	DD	000000000r			; 0
	DD	045a10d97r			; 5153.7
	DD	00H
	DD	00H
	DD	00H
	DD	07H
	DD	04b0H
	DD	06H
	DD	00H
	DD	00H
	DD	00H
	DD	01H
	DD	01H
	DD	03fc90fdbr			; 1.5708
	DD	0bff5be0br			; -1.91986
	DD	03ff5be0br			; 1.91986
	DD	03fc90fdbr			; 1.5708
	DD	0bf860a92r			; -1.0472
	DD	03e449809r			; 0.191986
	DD	000000000r			; 0
	DD	045a10d97r			; 5153.7
	DD	00H
	DD	00H
	DD	04H
	DD	02dH
	DD	04H
	DD	00H
	DD	00H
	DD	00H
	DD	00H
	DD	00H
	DD	01H
	DD	000000000r			; 0
	DD	000000000r			; 0
	DD	000000000r			; 0
	DD	000000000r			; 0
	DD	000000000r			; 0
	DD	000000000r			; 0
	DD	000000000r			; 0
	DD	045a10d97r			; 5153.7
	DD	00H
	DD	00H
	DD	00H
	DD	02dH
	DD	04H
	DD	01H
	DD	00H
	DD	00H
	DD	00H
	DD	00H
	DD	01H
	DD	000000000r			; 0
	DD	000000000r			; 0
	DD	000000000r			; 0
	DD	000000000r			; 0
	DD	000000000r			; 0
	DD	000000000r			; 0
	DD	000000000r			; 0
	DD	045a10d97r			; 5153.7
	DD	00H
	DD	00H
	DD	00H
	DD	02eH
	DD	04H
	DD	02H
	DD	00H
	DD	00H
	DD	00H
	DD	00H
	DD	01H
	DD	000000000r			; 0
	DD	000000000r			; 0
	DD	000000000r			; 0
	DD	000000000r			; 0
	DD	000000000r			; 0
	DD	000000000r			; 0
	DD	000000000r			; 0
	DD	045a10d97r			; 5153.7
	DD	00H
	DD	00H
	DD	00H
	DD	02eH
	DD	04H
	DD	03H
	DD	00H
	DD	00H
	DD	00H
	DD	00H
	DD	01H
	DD	000000000r			; 0
	DD	000000000r			; 0
	DD	000000000r			; 0
	DD	000000000r			; 0
	DD	000000000r			; 0
	DD	000000000r			; 0
	DD	000000000r			; 0
	DD	045a10d97r			; 5153.7
	DD	00H
	DD	00H
	DD	00H
	DD	00H
	ORG $+72
	DD	00H
	ORG $+72
	DD	00H
	ORG $+72
	DD	00H
	ORG $+72
	DD	00H
	ORG $+72
	DD	00H
	ORG $+72
	DD	00H
	ORG $+72
	DD	00H
	ORG $+72
	DD	00H
	ORG $+72
	DD	00H
	ORG $+72
	DD	00H
	ORG $+72
	DD	00H
	ORG $+72
	DD	00H
	ORG $+72
	DD	00H
	ORG $+72
	DD	00H
	ORG $+72
	DD	00H
	ORG $+72
	DD	00H
	ORG $+72
	DD	00H
	ORG $+72
	DD	00H
	ORG $+72
	DD	00H
	ORG $+72
	DD	00H
	ORG $+72
	DD	00H
	ORG $+72
	DD	00H
	ORG $+72
	DD	00H
	ORG $+72
	DD	00H
	ORG $+72
	DD	043H
	DD	01eH
	DD	07H
	DD	00H
	DD	00H
	DD	00H
	DD	00H
	DD	01H
	DD	000000000r			; 0
	DD	000000000r			; 0
	DD	000000000r			; 0
	DD	000000000r			; 0
	DD	000000000r			; 0
	DD	000000000r			; 0
	DD	000000000r			; 0
	DD	045a10d97r			; 5153.7
	DD	00H
	DD	00H
	DD	00H
	DD	044H
	DD	01eH
	DD	07H
	DD	00H
	DD	00H
	DD	00H
	DD	00H
	DD	01H
	DD	000000000r			; 0
	DD	000000000r			; 0
	DD	000000000r			; 0
	DD	000000000r			; 0
	DD	000000000r			; 0
	DD	000000000r			; 0
	DD	000000000r			; 0
	DD	045a10d97r			; 5153.7
	DD	00H
	DD	00H
	DD	00H
	DD	07H
	DD	04b0H
	DD	06H
	DD	00H
	DD	00H
	DD	00H
	DD	01H
	DD	01H
	DD	03fc90fdbr			; 1.5708
	DD	0bff5be0br			; -1.91986
	DD	03ff5be0br			; 1.91986
	DD	03fc90fdbr			; 1.5708
	DD	0bf860a92r			; -1.0472
	DD	03e449809r			; 0.191986
	DD	000000000r			; 0
	DD	045a10d97r			; 5153.7
	DD	00H
	DD	00H
	DD	04H
	DD	02eH
	DD	04H
	DD	00H
	DD	00H
	DD	00H
	DD	00H
	DD	00H
	DD	01H
	DD	000000000r			; 0
	DD	000000000r			; 0
	DD	000000000r			; 0
	DD	000000000r			; 0
	DD	000000000r			; 0
	DD	000000000r			; 0
	DD	000000000r			; 0
	DD	045a10d97r			; 5153.7
	DD	00H
	DD	00H
	DD	00H
	DD	02eH
	DD	04H
	DD	01H
	DD	00H
	DD	00H
	DD	00H
	DD	00H
	DD	01H
	DD	000000000r			; 0
	DD	000000000r			; 0
	DD	000000000r			; 0
	DD	000000000r			; 0
	DD	000000000r			; 0
	DD	000000000r			; 0
	DD	000000000r			; 0
	DD	045a10d97r			; 5153.7
	DD	00H
	DD	00H
	DD	00H
	DD	02eH
	DD	04H
	DD	02H
	DD	00H
	DD	00H
	DD	00H
	DD	00H
	DD	01H
	DD	000000000r			; 0
	DD	000000000r			; 0
	DD	000000000r			; 0
	DD	000000000r			; 0
	DD	000000000r			; 0
	DD	000000000r			; 0
	DD	000000000r			; 0
	DD	045a10d97r			; 5153.7
	DD	00H
	DD	00H
	DD	00H
	DD	02eH
	DD	04H
	DD	03H
	DD	00H
	DD	00H
	DD	00H
	DD	00H
	DD	01H
	DD	000000000r			; 0
	DD	000000000r			; 0
	DD	000000000r			; 0
	DD	000000000r			; 0
	DD	000000000r			; 0
	DD	000000000r			; 0
	DD	000000000r			; 0
	DD	045a10d97r			; 5153.7
	DD	00H
	DD	00H
	DD	00H
	DD	00H
	ORG $+72
	DD	00H
	ORG $+72
	DD	00H
	ORG $+72
	DD	00H
	ORG $+72
	DD	00H
	ORG $+72
	DD	00H
	ORG $+72
	DD	00H
	ORG $+72
	DD	00H
	ORG $+72
	DD	00H
	ORG $+72
	DD	00H
	ORG $+72
	DD	00H
	ORG $+72
	DD	00H
	ORG $+72
	DD	00H
	ORG $+72
	DD	00H
	ORG $+72
	DD	00H
	ORG $+72
	DD	00H
	ORG $+72
	DD	00H
	ORG $+72
	DD	00H
	ORG $+72
	DD	00H
	ORG $+72
	DD	00H
	ORG $+72
	DD	00H
	ORG $+72
	DD	00H
	ORG $+72
	DD	00H
	ORG $+72
	DD	00H
	ORG $+72
	DD	00H
	ORG $+72
	DD	043H
	DD	01eH
	DD	07H
	DD	00H
	DD	00H
	DD	00H
	DD	00H
	DD	01H
	DD	000000000r			; 0
	DD	000000000r			; 0
	DD	000000000r			; 0
	DD	000000000r			; 0
	DD	000000000r			; 0
	DD	000000000r			; 0
	DD	000000000r			; 0
	DD	045a10d97r			; 5153.7
	DD	00H
	DD	00H
	DD	00H
	DD	044H
	DD	01eH
	DD	07H
	DD	00H
	DD	00H
	DD	00H
	DD	00H
	DD	01H
	DD	000000000r			; 0
	DD	000000000r			; 0
	DD	000000000r			; 0
	DD	000000000r			; 0
	DD	000000000r			; 0
	DD	000000000r			; 0
	DD	000000000r			; 0
	DD	045a10d97r			; 5153.7
	DD	00H
	DD	00H
	DD	00H
	DD	07H
	DD	04b0H
	DD	06H
	DD	00H
	DD	00H
	DD	00H
	DD	01H
	DD	01H
	DD	03fc90fdbr			; 1.5708
	DD	0bff5be0br			; -1.91986
	DD	03ff5be0br			; 1.91986
	DD	03fc90fdbr			; 1.5708
	DD	0bf860a92r			; -1.0472
	DD	03e449809r			; 0.191986
	DD	000000000r			; 0
	DD	045a10d97r			; 5153.7
	DD	00H
	DD	00H
	DD	04H
	DD	01eH
	DD	013H
	DD	00H
	DD	01H
	DD	00H
	DD	00H
	DD	01H
	DD	02H
	DD	000000000r			; 0
	DD	000000000r			; 0
	DD	000000000r			; 0
	DD	03eb2b8c2r			; 0.349066
	DD	0be860a92r			; -0.261799
	DD	03daf25b4r			; 0.0855211
	DD	000000000r			; 0
	DD	0424e25e0r			; 51.537
	DD	00H
	DD	00H
	DD	00H
	DD	01eH
	DD	013H
	DD	01H
	DD	01H
	DD	00H
	DD	00H
	DD	01H
	DD	02H
	DD	000000000r			; 0
	DD	000000000r			; 0
	DD	000000000r			; 0
	DD	03eb2b8c2r			; 0.349066
	DD	0be860a92r			; -0.261799
	DD	03daf25b4r			; 0.0855211
	DD	000000000r			; 0
	DD	0424e25e0r			; 51.537
	DD	00H
	DD	00H
	DD	00H
	DD	02eH
	DD	04H
	DD	02H
	DD	00H
	DD	00H
	DD	00H
	DD	00H
	DD	01H
	DD	000000000r			; 0
	DD	000000000r			; 0
	DD	000000000r			; 0
	DD	000000000r			; 0
	DD	000000000r			; 0
	DD	000000000r			; 0
	DD	000000000r			; 0
	DD	045a10d97r			; 5153.7
	DD	00H
	DD	00H
	DD	00H
	DD	02eH
	DD	04H
	DD	03H
	DD	00H
	DD	00H
	DD	00H
	DD	00H
	DD	01H
	DD	000000000r			; 0
	DD	000000000r			; 0
	DD	000000000r			; 0
	DD	000000000r			; 0
	DD	000000000r			; 0
	DD	000000000r			; 0
	DD	000000000r			; 0
	DD	045a10d97r			; 5153.7
	DD	00H
	DD	00H
	DD	00H
	DD	00H
	ORG $+72
	DD	00H
	ORG $+72
	DD	00H
	ORG $+72
	DD	00H
	ORG $+72
	DD	00H
	ORG $+72
	DD	00H
	ORG $+72
	DD	00H
	ORG $+72
	DD	00H
	ORG $+72
	DD	00H
	ORG $+72
	DD	00H
	ORG $+72
	DD	00H
	ORG $+72
	DD	00H
	ORG $+72
	DD	00H
	ORG $+72
	DD	00H
	ORG $+72
	DD	00H
	ORG $+72
	DD	00H
	ORG $+72
	DD	00H
	ORG $+72
	DD	00H
	ORG $+72
	DD	00H
	ORG $+72
	DD	00H
	ORG $+72
	DD	00H
	ORG $+72
	DD	00H
	ORG $+72
	DD	00H
	ORG $+72
	DD	00H
	ORG $+72
	DD	00H
	ORG $+72
	DD	043H
	DD	01eH
	DD	07H
	DD	00H
	DD	00H
	DD	00H
	DD	00H
	DD	01H
	DD	000000000r			; 0
	DD	000000000r			; 0
	DD	000000000r			; 0
	DD	000000000r			; 0
	DD	000000000r			; 0
	DD	000000000r			; 0
	DD	000000000r			; 0
	DD	045a10d97r			; 5153.7
	DD	00H
	DD	00H
	DD	00H
	DD	044H
	DD	01eH
	DD	07H
	DD	00H
	DD	00H
	DD	00H
	DD	00H
	DD	01H
	DD	000000000r			; 0
	DD	000000000r			; 0
	DD	000000000r			; 0
	DD	000000000r			; 0
	DD	000000000r			; 0
	DD	000000000r			; 0
	DD	000000000r			; 0
	DD	045a10d97r			; 5153.7
	DD	00H
	DD	00H
	DD	00H
	DD	07H
	DD	04b0H
	DD	06H
	DD	00H
	DD	00H
	DD	00H
	DD	01H
	DD	01H
	DD	03fc90fdbr			; 1.5708
	DD	0bff5be0br			; -1.91986
	DD	03ff5be0br			; 1.91986
	DD	03fc90fdbr			; 1.5708
	DD	0bf860a92r			; -1.0472
	DD	03e449809r			; 0.191986
	DD	000000000r			; 0
	DD	045a10d97r			; 5153.7
	DD	00H
	DD	00H
	DD	04H
	DD	01fH
	DD	013H
	DD	00H
	DD	01H
	DD	00H
	DD	00H
	DD	01H
	DD	02H
	DD	000000000r			; 0
	DD	000000000r			; 0
	DD	000000000r			; 0
	DD	03eb2b8c2r			; 0.349066
	DD	0be860a92r			; -0.261799
	DD	03daf25b4r			; 0.0855211
	DD	000000000r			; 0
	DD	0424e25e0r			; 51.537
	DD	00H
	DD	00H
	DD	00H
	DD	01fH
	DD	013H
	DD	01H
	DD	01H
	DD	00H
	DD	00H
	DD	01H
	DD	02H
	DD	000000000r			; 0
	DD	000000000r			; 0
	DD	000000000r			; 0
	DD	03eb2b8c2r			; 0.349066
	DD	0be860a92r			; -0.261799
	DD	03daf25b4r			; 0.0855211
	DD	000000000r			; 0
	DD	0424e25e0r			; 51.537
	DD	00H
	DD	00H
	DD	00H
	DD	02eH
	DD	04H
	DD	02H
	DD	00H
	DD	00H
	DD	00H
	DD	00H
	DD	01H
	DD	000000000r			; 0
	DD	000000000r			; 0
	DD	000000000r			; 0
	DD	000000000r			; 0
	DD	000000000r			; 0
	DD	000000000r			; 0
	DD	000000000r			; 0
	DD	045a10d97r			; 5153.7
	DD	00H
	DD	00H
	DD	00H
	DD	02eH
	DD	04H
	DD	03H
	DD	00H
	DD	00H
	DD	00H
	DD	00H
	DD	01H
	DD	000000000r			; 0
	DD	000000000r			; 0
	DD	000000000r			; 0
	DD	000000000r			; 0
	DD	000000000r			; 0
	DD	000000000r			; 0
	DD	000000000r			; 0
	DD	045a10d97r			; 5153.7
	DD	00H
	DD	00H
	DD	00H
	DD	00H
	ORG $+72
	DD	00H
	ORG $+72
	DD	00H
	ORG $+72
	DD	00H
	ORG $+72
	DD	00H
	ORG $+72
	DD	00H
	ORG $+72
	DD	00H
	ORG $+72
	DD	00H
	ORG $+72
	DD	00H
	ORG $+72
	DD	00H
	ORG $+72
	DD	00H
	ORG $+72
	DD	00H
	ORG $+72
	DD	00H
	ORG $+72
	DD	00H
	ORG $+72
	DD	00H
	ORG $+72
	DD	00H
	ORG $+72
	DD	00H
	ORG $+72
	DD	00H
	ORG $+72
	DD	00H
	ORG $+72
	DD	00H
	ORG $+72
	DD	00H
	ORG $+72
	DD	00H
	ORG $+72
	DD	00H
	ORG $+72
	DD	00H
	ORG $+72
	DD	00H
	ORG $+72
	DD	043H
	DD	01eH
	DD	07H
	DD	00H
	DD	00H
	DD	00H
	DD	00H
	DD	01H
	DD	000000000r			; 0
	DD	000000000r			; 0
	DD	000000000r			; 0
	DD	000000000r			; 0
	DD	000000000r			; 0
	DD	000000000r			; 0
	DD	000000000r			; 0
	DD	045a10d97r			; 5153.7
	DD	00H
	DD	00H
	DD	00H
	DD	044H
	DD	01eH
	DD	07H
	DD	00H
	DD	00H
	DD	00H
	DD	00H
	DD	01H
	DD	000000000r			; 0
	DD	000000000r			; 0
	DD	000000000r			; 0
	DD	000000000r			; 0
	DD	000000000r			; 0
	DD	000000000r			; 0
	DD	000000000r			; 0
	DD	045a10d97r			; 5153.7
	DD	00H
	DD	00H
	DD	00H
	DD	07H
	DD	04b0H
	DD	06H
	DD	00H
	DD	00H
	DD	00H
	DD	01H
	DD	01H
	DD	03fc90fdbr			; 1.5708
	DD	0bff5be0br			; -1.91986
	DD	03ff5be0br			; 1.91986
	DD	03fc90fdbr			; 1.5708
	DD	0bf860a92r			; -1.0472
	DD	03e449809r			; 0.191986
	DD	000000000r			; 0
	DD	045a10d97r			; 5153.7
	DD	00H
	DD	00H
	DD	04H
	DD	01eH
	DD	013H
	DD	02H
	DD	01H
	DD	00H
	DD	00H
	DD	01H
	DD	02H
	DD	000000000r			; 0
	DD	000000000r			; 0
	DD	000000000r			; 0
	DD	03eb2b8c2r			; 0.349066
	DD	0be860a92r			; -0.261799
	DD	03daf25b4r			; 0.0855211
	DD	000000000r			; 0
	DD	0424e25e0r			; 51.537
	DD	00H
	DD	00H
	DD	00H
	DD	01eH
	DD	013H
	DD	03H
	DD	01H
	DD	00H
	DD	00H
	DD	01H
	DD	02H
	DD	000000000r			; 0
	DD	000000000r			; 0
	DD	000000000r			; 0
	DD	03eb2b8c2r			; 0.349066
	DD	0be860a92r			; -0.261799
	DD	03daf25b4r			; 0.0855211
	DD	000000000r			; 0
	DD	0424e25e0r			; 51.537
	DD	00H
	DD	00H
	DD	00H
	DD	00H
	ORG $+72
	DD	00H
	ORG $+72
	DD	00H
	ORG $+72
	DD	00H
	ORG $+72
	DD	00H
	ORG $+72
	DD	00H
	ORG $+72
	DD	00H
	ORG $+72
	DD	00H
	ORG $+72
	DD	00H
	ORG $+72
	DD	00H
	ORG $+72
	DD	00H
	ORG $+72
	DD	00H
	ORG $+72
	DD	00H
	ORG $+72
	DD	00H
	ORG $+72
	DD	00H
	ORG $+72
	DD	00H
	ORG $+72
	DD	00H
	ORG $+72
	DD	00H
	ORG $+72
	DD	00H
	ORG $+72
	DD	00H
	ORG $+72
	DD	00H
	ORG $+72
	DD	00H
	ORG $+72
	DD	00H
	ORG $+72
	DD	00H
	ORG $+72
	DD	00H
	ORG $+72
	DD	00H
	ORG $+72
	DD	00H
	ORG $+72
	DD	043H
	DD	01eH
	DD	07H
	DD	00H
	DD	00H
	DD	00H
	DD	00H
	DD	01H
	DD	000000000r			; 0
	DD	000000000r			; 0
	DD	000000000r			; 0
	DD	000000000r			; 0
	DD	000000000r			; 0
	DD	000000000r			; 0
	DD	000000000r			; 0
	DD	045a10d97r			; 5153.7
	DD	00H
	DD	00H
	DD	00H
	DD	044H
	DD	01eH
	DD	07H
	DD	00H
	DD	00H
	DD	00H
	DD	00H
	DD	01H
	DD	000000000r			; 0
	DD	000000000r			; 0
	DD	000000000r			; 0
	DD	000000000r			; 0
	DD	000000000r			; 0
	DD	000000000r			; 0
	DD	000000000r			; 0
	DD	045a10d97r			; 5153.7
	DD	00H
	DD	00H
	DD	00H
	DD	07H
	DD	04b0H
	DD	06H
	DD	00H
	DD	00H
	DD	00H
	DD	01H
	DD	01H
	DD	03fc90fdbr			; 1.5708
	DD	0bff5be0br			; -1.91986
	DD	03ff5be0br			; 1.91986
	DD	03fc90fdbr			; 1.5708
	DD	0bf860a92r			; -1.0472
	DD	03e449809r			; 0.191986
	DD	000000000r			; 0
	DD	045a10d97r			; 5153.7
	DD	00H
	DD	00H
	DD	04H
	DD	02dH
	DD	04H
	DD	00H
	DD	00H
	DD	00H
	DD	00H
	DD	00H
	DD	01H
	DD	000000000r			; 0
	DD	000000000r			; 0
	DD	000000000r			; 0
	DD	000000000r			; 0
	DD	000000000r			; 0
	DD	000000000r			; 0
	DD	000000000r			; 0
	DD	045a10d97r			; 5153.7
	DD	00H
	DD	00H
	DD	00H
	DD	02dH
	DD	04H
	DD	01H
	DD	00H
	DD	00H
	DD	00H
	DD	00H
	DD	01H
	DD	000000000r			; 0
	DD	000000000r			; 0
	DD	000000000r			; 0
	DD	000000000r			; 0
	DD	000000000r			; 0
	DD	000000000r			; 0
	DD	000000000r			; 0
	DD	045a10d97r			; 5153.7
	DD	00H
	DD	00H
	DD	00H
	DD	01eH
	DD	013H
	DD	02H
	DD	01H
	DD	00H
	DD	00H
	DD	01H
	DD	02H
	DD	000000000r			; 0
	DD	000000000r			; 0
	DD	000000000r			; 0
	DD	03eb2b8c2r			; 0.349066
	DD	0be860a92r			; -0.261799
	DD	03daf25b4r			; 0.0855211
	DD	000000000r			; 0
	DD	0424e25e0r			; 51.537
	DD	00H
	DD	00H
	DD	00H
	DD	01eH
	DD	013H
	DD	03H
	DD	01H
	DD	00H
	DD	00H
	DD	01H
	DD	02H
	DD	000000000r			; 0
	DD	000000000r			; 0
	DD	000000000r			; 0
	DD	03eb2b8c2r			; 0.349066
	DD	0be860a92r			; -0.261799
	DD	03daf25b4r			; 0.0855211
	DD	000000000r			; 0
	DD	0424e25e0r			; 51.537
	DD	00H
	DD	00H
	DD	00H
	DD	00H
	ORG $+72
	DD	00H
	ORG $+72
	DD	00H
	ORG $+72
	DD	00H
	ORG $+72
	DD	00H
	ORG $+72
	DD	00H
	ORG $+72
	DD	00H
	ORG $+72
	DD	00H
	ORG $+72
	DD	00H
	ORG $+72
	DD	00H
	ORG $+72
	DD	00H
	ORG $+72
	DD	00H
	ORG $+72
	DD	00H
	ORG $+72
	DD	00H
	ORG $+72
	DD	00H
	ORG $+72
	DD	00H
	ORG $+72
	DD	00H
	ORG $+72
	DD	00H
	ORG $+72
	DD	00H
	ORG $+72
	DD	00H
	ORG $+72
	DD	00H
	ORG $+72
	DD	00H
	ORG $+72
	DD	00H
	ORG $+72
	DD	00H
	ORG $+72
	DD	00H
	ORG $+72
	DD	043H
	DD	01eH
	DD	07H
	DD	00H
	DD	00H
	DD	00H
	DD	00H
	DD	01H
	DD	000000000r			; 0
	DD	000000000r			; 0
	DD	000000000r			; 0
	DD	000000000r			; 0
	DD	000000000r			; 0
	DD	000000000r			; 0
	DD	000000000r			; 0
	DD	045a10d97r			; 5153.7
	DD	00H
	DD	00H
	DD	00H
	DD	044H
	DD	01eH
	DD	07H
	DD	00H
	DD	00H
	DD	00H
	DD	00H
	DD	01H
	DD	000000000r			; 0
	DD	000000000r			; 0
	DD	000000000r			; 0
	DD	000000000r			; 0
	DD	000000000r			; 0
	DD	000000000r			; 0
	DD	000000000r			; 0
	DD	045a10d97r			; 5153.7
	DD	00H
	DD	00H
	DD	00H
	DD	07H
	DD	04b0H
	DD	06H
	DD	00H
	DD	00H
	DD	00H
	DD	01H
	DD	01H
	DD	03fc90fdbr			; 1.5708
	DD	0bff5be0br			; -1.91986
	DD	03ff5be0br			; 1.91986
	DD	03fc90fdbr			; 1.5708
	DD	0bf860a92r			; -1.0472
	DD	03e449809r			; 0.191986
	DD	000000000r			; 0
	DD	045a10d97r			; 5153.7
	DD	00H
	DD	00H
	DD	04H
	DD	02eH
	DD	04H
	DD	00H
	DD	00H
	DD	00H
	DD	00H
	DD	00H
	DD	01H
	DD	000000000r			; 0
	DD	000000000r			; 0
	DD	000000000r			; 0
	DD	000000000r			; 0
	DD	000000000r			; 0
	DD	000000000r			; 0
	DD	000000000r			; 0
	DD	045a10d97r			; 5153.7
	DD	00H
	DD	00H
	DD	00H
	DD	02eH
	DD	04H
	DD	01H
	DD	00H
	DD	00H
	DD	00H
	DD	00H
	DD	01H
	DD	000000000r			; 0
	DD	000000000r			; 0
	DD	000000000r			; 0
	DD	000000000r			; 0
	DD	000000000r			; 0
	DD	000000000r			; 0
	DD	000000000r			; 0
	DD	045a10d97r			; 5153.7
	DD	00H
	DD	00H
	DD	00H
	DD	01eH
	DD	013H
	DD	02H
	DD	01H
	DD	00H
	DD	00H
	DD	01H
	DD	02H
	DD	000000000r			; 0
	DD	000000000r			; 0
	DD	000000000r			; 0
	DD	03eb2b8c2r			; 0.349066
	DD	0be860a92r			; -0.261799
	DD	03daf25b4r			; 0.0855211
	DD	000000000r			; 0
	DD	0424e25e0r			; 51.537
	DD	00H
	DD	00H
	DD	00H
	DD	01eH
	DD	013H
	DD	03H
	DD	01H
	DD	00H
	DD	00H
	DD	01H
	DD	02H
	DD	000000000r			; 0
	DD	000000000r			; 0
	DD	000000000r			; 0
	DD	03eb2b8c2r			; 0.349066
	DD	0be860a92r			; -0.261799
	DD	03daf25b4r			; 0.0855211
	DD	000000000r			; 0
	DD	0424e25e0r			; 51.537
	DD	00H
	DD	00H
	DD	00H
	DD	00H
	ORG $+72
	DD	00H
	ORG $+72
	DD	00H
	ORG $+72
	DD	00H
	ORG $+72
	DD	00H
	ORG $+72
	DD	00H
	ORG $+72
	DD	00H
	ORG $+72
	DD	00H
	ORG $+72
	DD	00H
	ORG $+72
	DD	00H
	ORG $+72
	DD	00H
	ORG $+72
	DD	00H
	ORG $+72
	DD	00H
	ORG $+72
	DD	00H
	ORG $+72
	DD	00H
	ORG $+72
	DD	00H
	ORG $+72
	DD	00H
	ORG $+72
	DD	00H
	ORG $+72
	DD	00H
	ORG $+72
	DD	00H
	ORG $+72
	DD	00H
	ORG $+72
	DD	00H
	ORG $+72
	DD	00H
	ORG $+72
	DD	00H
	ORG $+72
	DD	00H
	ORG $+72
	DD	043H
	DD	01eH
	DD	07H
	DD	00H
	DD	00H
	DD	00H
	DD	00H
	DD	01H
	DD	000000000r			; 0
	DD	000000000r			; 0
	DD	000000000r			; 0
	DD	000000000r			; 0
	DD	000000000r			; 0
	DD	000000000r			; 0
	DD	000000000r			; 0
	DD	045a10d97r			; 5153.7
	DD	00H
	DD	00H
	DD	00H
	DD	044H
	DD	01eH
	DD	07H
	DD	00H
	DD	00H
	DD	00H
	DD	00H
	DD	01H
	DD	000000000r			; 0
	DD	000000000r			; 0
	DD	000000000r			; 0
	DD	000000000r			; 0
	DD	000000000r			; 0
	DD	000000000r			; 0
	DD	000000000r			; 0
	DD	045a10d97r			; 5153.7
	DD	00H
	DD	00H
	DD	00H
	DD	07H
	DD	04b0H
	DD	06H
	DD	00H
	DD	00H
	DD	00H
	DD	01H
	DD	01H
	DD	03fc90fdbr			; 1.5708
	DD	0bff5be0br			; -1.91986
	DD	03ff5be0br			; 1.91986
	DD	03fc90fdbr			; 1.5708
	DD	0bf860a92r			; -1.0472
	DD	03e449809r			; 0.191986
	DD	000000000r			; 0
	DD	045a10d97r			; 5153.7
	DD	00H
	DD	00H
	DD	04H
	DD	01eH
	DD	013H
	DD	00H
	DD	01H
	DD	00H
	DD	00H
	DD	01H
	DD	02H
	DD	000000000r			; 0
	DD	000000000r			; 0
	DD	000000000r			; 0
	DD	03eb2b8c2r			; 0.349066
	DD	0be860a92r			; -0.261799
	DD	03daf25b4r			; 0.0855211
	DD	000000000r			; 0
	DD	0424e25e0r			; 51.537
	DD	00H
	DD	00H
	DD	00H
	DD	01eH
	DD	013H
	DD	01H
	DD	01H
	DD	00H
	DD	00H
	DD	01H
	DD	02H
	DD	000000000r			; 0
	DD	000000000r			; 0
	DD	000000000r			; 0
	DD	03eb2b8c2r			; 0.349066
	DD	0be860a92r			; -0.261799
	DD	03daf25b4r			; 0.0855211
	DD	000000000r			; 0
	DD	0424e25e0r			; 51.537
	DD	00H
	DD	00H
	DD	00H
	DD	01eH
	DD	013H
	DD	02H
	DD	01H
	DD	00H
	DD	00H
	DD	01H
	DD	02H
	DD	000000000r			; 0
	DD	000000000r			; 0
	DD	000000000r			; 0
	DD	03eb2b8c2r			; 0.349066
	DD	0be860a92r			; -0.261799
	DD	03daf25b4r			; 0.0855211
	DD	000000000r			; 0
	DD	0424e25e0r			; 51.537
	DD	00H
	DD	00H
	DD	00H
	DD	01eH
	DD	013H
	DD	03H
	DD	01H
	DD	00H
	DD	00H
	DD	01H
	DD	02H
	DD	000000000r			; 0
	DD	000000000r			; 0
	DD	000000000r			; 0
	DD	03eb2b8c2r			; 0.349066
	DD	0be860a92r			; -0.261799
	DD	03daf25b4r			; 0.0855211
	DD	000000000r			; 0
	DD	0424e25e0r			; 51.537
	DD	00H
	DD	00H
	DD	00H
	DD	00H
	ORG $+72
	DD	00H
	ORG $+72
	DD	00H
	ORG $+72
	DD	00H
	ORG $+72
	DD	00H
	ORG $+72
	DD	00H
	ORG $+72
	DD	00H
	ORG $+72
	DD	00H
	ORG $+72
	DD	00H
	ORG $+72
	DD	00H
	ORG $+72
	DD	00H
	ORG $+72
	DD	00H
	ORG $+72
	DD	00H
	ORG $+72
	DD	00H
	ORG $+72
	DD	00H
	ORG $+72
	DD	00H
	ORG $+72
	DD	00H
	ORG $+72
	DD	00H
	ORG $+72
	DD	00H
	ORG $+72
	DD	00H
	ORG $+72
	DD	00H
	ORG $+72
	DD	00H
	ORG $+72
	DD	00H
	ORG $+72
	DD	00H
	ORG $+72
	DD	00H
	ORG $+72
	DD	043H
	DD	01eH
	DD	07H
	DD	00H
	DD	00H
	DD	00H
	DD	00H
	DD	01H
	DD	000000000r			; 0
	DD	000000000r			; 0
	DD	000000000r			; 0
	DD	000000000r			; 0
	DD	000000000r			; 0
	DD	000000000r			; 0
	DD	000000000r			; 0
	DD	045a10d97r			; 5153.7
	DD	00H
	DD	00H
	DD	00H
	DD	044H
	DD	01eH
	DD	07H
	DD	00H
	DD	00H
	DD	00H
	DD	00H
	DD	01H
	DD	000000000r			; 0
	DD	000000000r			; 0
	DD	000000000r			; 0
	DD	000000000r			; 0
	DD	000000000r			; 0
	DD	000000000r			; 0
	DD	000000000r			; 0
	DD	045a10d97r			; 5153.7
	DD	00H
	DD	00H
	DD	00H
	DD	07H
	DD	04b0H
	DD	06H
	DD	00H
	DD	00H
	DD	00H
	DD	01H
	DD	01H
	DD	03fc90fdbr			; 1.5708
	DD	0bff5be0br			; -1.91986
	DD	03ff5be0br			; 1.91986
	DD	03fc90fdbr			; 1.5708
	DD	0bf860a92r			; -1.0472
	DD	03e449809r			; 0.191986
	DD	000000000r			; 0
	DD	045a10d97r			; 5153.7
	DD	00H
	DD	00H
	DD	04H
	DD	01fH
	DD	013H
	DD	00H
	DD	01H
	DD	00H
	DD	00H
	DD	01H
	DD	02H
	DD	000000000r			; 0
	DD	000000000r			; 0
	DD	000000000r			; 0
	DD	03eb2b8c2r			; 0.349066
	DD	0be860a92r			; -0.261799
	DD	03daf25b4r			; 0.0855211
	DD	000000000r			; 0
	DD	0424e25e0r			; 51.537
	DD	00H
	DD	00H
	DD	00H
	DD	01fH
	DD	013H
	DD	01H
	DD	01H
	DD	00H
	DD	00H
	DD	01H
	DD	02H
	DD	000000000r			; 0
	DD	000000000r			; 0
	DD	000000000r			; 0
	DD	03eb2b8c2r			; 0.349066
	DD	0be860a92r			; -0.261799
	DD	03daf25b4r			; 0.0855211
	DD	000000000r			; 0
	DD	0424e25e0r			; 51.537
	DD	00H
	DD	00H
	DD	00H
	DD	01eH
	DD	013H
	DD	02H
	DD	01H
	DD	00H
	DD	00H
	DD	01H
	DD	02H
	DD	000000000r			; 0
	DD	000000000r			; 0
	DD	000000000r			; 0
	DD	03eb2b8c2r			; 0.349066
	DD	0be860a92r			; -0.261799
	DD	03daf25b4r			; 0.0855211
	DD	000000000r			; 0
	DD	0424e25e0r			; 51.537
	DD	00H
	DD	00H
	DD	00H
	DD	01eH
	DD	013H
	DD	03H
	DD	01H
	DD	00H
	DD	00H
	DD	01H
	DD	02H
	DD	000000000r			; 0
	DD	000000000r			; 0
	DD	000000000r			; 0
	DD	03eb2b8c2r			; 0.349066
	DD	0be860a92r			; -0.261799
	DD	03daf25b4r			; 0.0855211
	DD	000000000r			; 0
	DD	0424e25e0r			; 51.537
	DD	00H
	DD	00H
	DD	00H
	DD	00H
	ORG $+72
	DD	00H
	ORG $+72
	DD	00H
	ORG $+72
	DD	00H
	ORG $+72
	DD	00H
	ORG $+72
	DD	00H
	ORG $+72
	DD	00H
	ORG $+72
	DD	00H
	ORG $+72
	DD	00H
	ORG $+72
	DD	00H
	ORG $+72
	DD	00H
	ORG $+72
	DD	00H
	ORG $+72
	DD	00H
	ORG $+72
	DD	00H
	ORG $+72
	DD	00H
	ORG $+72
	DD	00H
	ORG $+72
	DD	00H
	ORG $+72
	DD	00H
	ORG $+72
	DD	00H
	ORG $+72
	DD	00H
	ORG $+72
	DD	00H
	ORG $+72
	DD	00H
	ORG $+72
	DD	00H
	ORG $+72
	DD	00H
	ORG $+72
	DD	00H
	ORG $+72
	DD	043H
	DD	01eH
	DD	07H
	DD	00H
	DD	00H
	DD	00H
	DD	00H
	DD	01H
	DD	000000000r			; 0
	DD	000000000r			; 0
	DD	000000000r			; 0
	DD	000000000r			; 0
	DD	000000000r			; 0
	DD	000000000r			; 0
	DD	000000000r			; 0
	DD	045a10d97r			; 5153.7
	DD	00H
	DD	00H
	DD	00H
	DD	044H
	DD	01eH
	DD	07H
	DD	00H
	DD	00H
	DD	00H
	DD	00H
	DD	01H
	DD	000000000r			; 0
	DD	000000000r			; 0
	DD	000000000r			; 0
	DD	000000000r			; 0
	DD	000000000r			; 0
	DD	000000000r			; 0
	DD	000000000r			; 0
	DD	045a10d97r			; 5153.7
	DD	00H
	DD	00H
	DD	00H
	DD	07H
	DD	04b0H
	DD	06H
	DD	00H
	DD	00H
	DD	00H
	DD	01H
	DD	01H
	DD	03fc90fdbr			; 1.5708
	DD	0bff5be0br			; -1.91986
	DD	03ff5be0br			; 1.91986
	DD	03fc90fdbr			; 1.5708
	DD	0bf860a92r			; -1.0472
	DD	03e449809r			; 0.191986
	DD	000000000r			; 0
	DD	045a10d97r			; 5153.7
	DD	00H
	DD	00H
	DD	04H
	DD	01fH
	DD	013H
	DD	02H
	DD	01H
	DD	00H
	DD	00H
	DD	01H
	DD	02H
	DD	000000000r			; 0
	DD	000000000r			; 0
	DD	000000000r			; 0
	DD	03eb2b8c2r			; 0.349066
	DD	0be860a92r			; -0.261799
	DD	03daf25b4r			; 0.0855211
	DD	000000000r			; 0
	DD	0424e25e0r			; 51.537
	DD	00H
	DD	00H
	DD	00H
	DD	01fH
	DD	013H
	DD	03H
	DD	01H
	DD	00H
	DD	00H
	DD	01H
	DD	02H
	DD	000000000r			; 0
	DD	000000000r			; 0
	DD	000000000r			; 0
	DD	03eb2b8c2r			; 0.349066
	DD	0be860a92r			; -0.261799
	DD	03daf25b4r			; 0.0855211
	DD	000000000r			; 0
	DD	0424e25e0r			; 51.537
	DD	00H
	DD	00H
	DD	00H
	DD	00H
	ORG $+72
	DD	00H
	ORG $+72
	DD	00H
	ORG $+72
	DD	00H
	ORG $+72
	DD	00H
	ORG $+72
	DD	00H
	ORG $+72
	DD	00H
	ORG $+72
	DD	00H
	ORG $+72
	DD	00H
	ORG $+72
	DD	00H
	ORG $+72
	DD	00H
	ORG $+72
	DD	00H
	ORG $+72
	DD	00H
	ORG $+72
	DD	00H
	ORG $+72
	DD	00H
	ORG $+72
	DD	00H
	ORG $+72
	DD	00H
	ORG $+72
	DD	00H
	ORG $+72
	DD	00H
	ORG $+72
	DD	00H
	ORG $+72
	DD	00H
	ORG $+72
	DD	00H
	ORG $+72
	DD	00H
	ORG $+72
	DD	00H
	ORG $+72
	DD	00H
	ORG $+72
	DD	00H
	ORG $+72
	DD	00H
	ORG $+72
	DD	043H
	DD	01eH
	DD	07H
	DD	00H
	DD	00H
	DD	00H
	DD	00H
	DD	01H
	DD	000000000r			; 0
	DD	000000000r			; 0
	DD	000000000r			; 0
	DD	000000000r			; 0
	DD	000000000r			; 0
	DD	000000000r			; 0
	DD	000000000r			; 0
	DD	045a10d97r			; 5153.7
	DD	00H
	DD	00H
	DD	00H
	DD	044H
	DD	01eH
	DD	07H
	DD	00H
	DD	00H
	DD	00H
	DD	00H
	DD	01H
	DD	000000000r			; 0
	DD	000000000r			; 0
	DD	000000000r			; 0
	DD	000000000r			; 0
	DD	000000000r			; 0
	DD	000000000r			; 0
	DD	000000000r			; 0
	DD	045a10d97r			; 5153.7
	DD	00H
	DD	00H
	DD	00H
	DD	07H
	DD	04b0H
	DD	06H
	DD	00H
	DD	00H
	DD	00H
	DD	01H
	DD	01H
	DD	03fc90fdbr			; 1.5708
	DD	0bff5be0br			; -1.91986
	DD	03ff5be0br			; 1.91986
	DD	03fc90fdbr			; 1.5708
	DD	0bf860a92r			; -1.0472
	DD	03e449809r			; 0.191986
	DD	000000000r			; 0
	DD	045a10d97r			; 5153.7
	DD	00H
	DD	00H
	DD	04H
	DD	02dH
	DD	04H
	DD	00H
	DD	00H
	DD	00H
	DD	00H
	DD	00H
	DD	01H
	DD	000000000r			; 0
	DD	000000000r			; 0
	DD	000000000r			; 0
	DD	000000000r			; 0
	DD	000000000r			; 0
	DD	000000000r			; 0
	DD	000000000r			; 0
	DD	045a10d97r			; 5153.7
	DD	00H
	DD	00H
	DD	00H
	DD	02dH
	DD	04H
	DD	01H
	DD	00H
	DD	00H
	DD	00H
	DD	00H
	DD	01H
	DD	000000000r			; 0
	DD	000000000r			; 0
	DD	000000000r			; 0
	DD	000000000r			; 0
	DD	000000000r			; 0
	DD	000000000r			; 0
	DD	000000000r			; 0
	DD	045a10d97r			; 5153.7
	DD	00H
	DD	00H
	DD	00H
	DD	01fH
	DD	013H
	DD	02H
	DD	01H
	DD	00H
	DD	00H
	DD	01H
	DD	02H
	DD	000000000r			; 0
	DD	000000000r			; 0
	DD	000000000r			; 0
	DD	03eb2b8c2r			; 0.349066
	DD	0be860a92r			; -0.261799
	DD	03daf25b4r			; 0.0855211
	DD	000000000r			; 0
	DD	0424e25e0r			; 51.537
	DD	00H
	DD	00H
	DD	00H
	DD	01fH
	DD	013H
	DD	03H
	DD	01H
	DD	00H
	DD	00H
	DD	01H
	DD	02H
	DD	000000000r			; 0
	DD	000000000r			; 0
	DD	000000000r			; 0
	DD	03eb2b8c2r			; 0.349066
	DD	0be860a92r			; -0.261799
	DD	03daf25b4r			; 0.0855211
	DD	000000000r			; 0
	DD	0424e25e0r			; 51.537
	DD	00H
	DD	00H
	DD	00H
	DD	00H
	ORG $+72
	DD	00H
	ORG $+72
	DD	00H
	ORG $+72
	DD	00H
	ORG $+72
	DD	00H
	ORG $+72
	DD	00H
	ORG $+72
	DD	00H
	ORG $+72
	DD	00H
	ORG $+72
	DD	00H
	ORG $+72
	DD	00H
	ORG $+72
	DD	00H
	ORG $+72
	DD	00H
	ORG $+72
	DD	00H
	ORG $+72
	DD	00H
	ORG $+72
	DD	00H
	ORG $+72
	DD	00H
	ORG $+72
	DD	00H
	ORG $+72
	DD	00H
	ORG $+72
	DD	00H
	ORG $+72
	DD	00H
	ORG $+72
	DD	00H
	ORG $+72
	DD	00H
	ORG $+72
	DD	00H
	ORG $+72
	DD	00H
	ORG $+72
	DD	00H
	ORG $+72
	DD	043H
	DD	01eH
	DD	07H
	DD	00H
	DD	00H
	DD	00H
	DD	00H
	DD	01H
	DD	000000000r			; 0
	DD	000000000r			; 0
	DD	000000000r			; 0
	DD	000000000r			; 0
	DD	000000000r			; 0
	DD	000000000r			; 0
	DD	000000000r			; 0
	DD	045a10d97r			; 5153.7
	DD	00H
	DD	00H
	DD	00H
	DD	044H
	DD	01eH
	DD	07H
	DD	00H
	DD	00H
	DD	00H
	DD	00H
	DD	01H
	DD	000000000r			; 0
	DD	000000000r			; 0
	DD	000000000r			; 0
	DD	000000000r			; 0
	DD	000000000r			; 0
	DD	000000000r			; 0
	DD	000000000r			; 0
	DD	045a10d97r			; 5153.7
	DD	00H
	DD	00H
	DD	00H
	DD	07H
	DD	04b0H
	DD	06H
	DD	00H
	DD	00H
	DD	00H
	DD	01H
	DD	01H
	DD	03fc90fdbr			; 1.5708
	DD	0bff5be0br			; -1.91986
	DD	03ff5be0br			; 1.91986
	DD	03fc90fdbr			; 1.5708
	DD	0bf860a92r			; -1.0472
	DD	03e449809r			; 0.191986
	DD	000000000r			; 0
	DD	045a10d97r			; 5153.7
	DD	00H
	DD	00H
	DD	04H
	DD	02eH
	DD	04H
	DD	00H
	DD	00H
	DD	00H
	DD	00H
	DD	00H
	DD	01H
	DD	000000000r			; 0
	DD	000000000r			; 0
	DD	000000000r			; 0
	DD	000000000r			; 0
	DD	000000000r			; 0
	DD	000000000r			; 0
	DD	000000000r			; 0
	DD	045a10d97r			; 5153.7
	DD	00H
	DD	00H
	DD	00H
	DD	02eH
	DD	04H
	DD	01H
	DD	00H
	DD	00H
	DD	00H
	DD	00H
	DD	01H
	DD	000000000r			; 0
	DD	000000000r			; 0
	DD	000000000r			; 0
	DD	000000000r			; 0
	DD	000000000r			; 0
	DD	000000000r			; 0
	DD	000000000r			; 0
	DD	045a10d97r			; 5153.7
	DD	00H
	DD	00H
	DD	00H
	DD	01fH
	DD	013H
	DD	02H
	DD	01H
	DD	00H
	DD	00H
	DD	01H
	DD	02H
	DD	000000000r			; 0
	DD	000000000r			; 0
	DD	000000000r			; 0
	DD	03eb2b8c2r			; 0.349066
	DD	0be860a92r			; -0.261799
	DD	03daf25b4r			; 0.0855211
	DD	000000000r			; 0
	DD	0424e25e0r			; 51.537
	DD	00H
	DD	00H
	DD	00H
	DD	01fH
	DD	013H
	DD	03H
	DD	01H
	DD	00H
	DD	00H
	DD	01H
	DD	02H
	DD	000000000r			; 0
	DD	000000000r			; 0
	DD	000000000r			; 0
	DD	03eb2b8c2r			; 0.349066
	DD	0be860a92r			; -0.261799
	DD	03daf25b4r			; 0.0855211
	DD	000000000r			; 0
	DD	0424e25e0r			; 51.537
	DD	00H
	DD	00H
	DD	00H
	DD	00H
	ORG $+72
	DD	00H
	ORG $+72
	DD	00H
	ORG $+72
	DD	00H
	ORG $+72
	DD	00H
	ORG $+72
	DD	00H
	ORG $+72
	DD	00H
	ORG $+72
	DD	00H
	ORG $+72
	DD	00H
	ORG $+72
	DD	00H
	ORG $+72
	DD	00H
	ORG $+72
	DD	00H
	ORG $+72
	DD	00H
	ORG $+72
	DD	00H
	ORG $+72
	DD	00H
	ORG $+72
	DD	00H
	ORG $+72
	DD	00H
	ORG $+72
	DD	00H
	ORG $+72
	DD	00H
	ORG $+72
	DD	00H
	ORG $+72
	DD	00H
	ORG $+72
	DD	00H
	ORG $+72
	DD	00H
	ORG $+72
	DD	00H
	ORG $+72
	DD	00H
	ORG $+72
	DD	043H
	DD	01eH
	DD	07H
	DD	00H
	DD	00H
	DD	00H
	DD	00H
	DD	01H
	DD	000000000r			; 0
	DD	000000000r			; 0
	DD	000000000r			; 0
	DD	000000000r			; 0
	DD	000000000r			; 0
	DD	000000000r			; 0
	DD	000000000r			; 0
	DD	045a10d97r			; 5153.7
	DD	00H
	DD	00H
	DD	00H
	DD	044H
	DD	01eH
	DD	07H
	DD	00H
	DD	00H
	DD	00H
	DD	00H
	DD	01H
	DD	000000000r			; 0
	DD	000000000r			; 0
	DD	000000000r			; 0
	DD	000000000r			; 0
	DD	000000000r			; 0
	DD	000000000r			; 0
	DD	000000000r			; 0
	DD	045a10d97r			; 5153.7
	DD	00H
	DD	00H
	DD	00H
	DD	07H
	DD	04b0H
	DD	06H
	DD	00H
	DD	00H
	DD	00H
	DD	01H
	DD	01H
	DD	03fc90fdbr			; 1.5708
	DD	0bff5be0br			; -1.91986
	DD	03ff5be0br			; 1.91986
	DD	03fc90fdbr			; 1.5708
	DD	0bf860a92r			; -1.0472
	DD	03e449809r			; 0.191986
	DD	000000000r			; 0
	DD	045a10d97r			; 5153.7
	DD	00H
	DD	00H
	DD	04H
	DD	01eH
	DD	013H
	DD	00H
	DD	01H
	DD	00H
	DD	00H
	DD	01H
	DD	02H
	DD	000000000r			; 0
	DD	000000000r			; 0
	DD	000000000r			; 0
	DD	03eb2b8c2r			; 0.349066
	DD	0be860a92r			; -0.261799
	DD	03daf25b4r			; 0.0855211
	DD	000000000r			; 0
	DD	0424e25e0r			; 51.537
	DD	00H
	DD	00H
	DD	00H
	DD	01eH
	DD	013H
	DD	01H
	DD	01H
	DD	00H
	DD	00H
	DD	01H
	DD	02H
	DD	000000000r			; 0
	DD	000000000r			; 0
	DD	000000000r			; 0
	DD	03eb2b8c2r			; 0.349066
	DD	0be860a92r			; -0.261799
	DD	03daf25b4r			; 0.0855211
	DD	000000000r			; 0
	DD	0424e25e0r			; 51.537
	DD	00H
	DD	00H
	DD	00H
	DD	01fH
	DD	013H
	DD	02H
	DD	01H
	DD	00H
	DD	00H
	DD	01H
	DD	02H
	DD	000000000r			; 0
	DD	000000000r			; 0
	DD	000000000r			; 0
	DD	03eb2b8c2r			; 0.349066
	DD	0be860a92r			; -0.261799
	DD	03daf25b4r			; 0.0855211
	DD	000000000r			; 0
	DD	0424e25e0r			; 51.537
	DD	00H
	DD	00H
	DD	00H
	DD	01fH
	DD	013H
	DD	03H
	DD	01H
	DD	00H
	DD	00H
	DD	01H
	DD	02H
	DD	000000000r			; 0
	DD	000000000r			; 0
	DD	000000000r			; 0
	DD	03eb2b8c2r			; 0.349066
	DD	0be860a92r			; -0.261799
	DD	03daf25b4r			; 0.0855211
	DD	000000000r			; 0
	DD	0424e25e0r			; 51.537
	DD	00H
	DD	00H
	DD	00H
	DD	00H
	ORG $+72
	DD	00H
	ORG $+72
	DD	00H
	ORG $+72
	DD	00H
	ORG $+72
	DD	00H
	ORG $+72
	DD	00H
	ORG $+72
	DD	00H
	ORG $+72
	DD	00H
	ORG $+72
	DD	00H
	ORG $+72
	DD	00H
	ORG $+72
	DD	00H
	ORG $+72
	DD	00H
	ORG $+72
	DD	00H
	ORG $+72
	DD	00H
	ORG $+72
	DD	00H
	ORG $+72
	DD	00H
	ORG $+72
	DD	00H
	ORG $+72
	DD	00H
	ORG $+72
	DD	00H
	ORG $+72
	DD	00H
	ORG $+72
	DD	00H
	ORG $+72
	DD	00H
	ORG $+72
	DD	00H
	ORG $+72
	DD	00H
	ORG $+72
	DD	00H
	ORG $+72
	DD	043H
	DD	01eH
	DD	07H
	DD	00H
	DD	00H
	DD	00H
	DD	00H
	DD	01H
	DD	000000000r			; 0
	DD	000000000r			; 0
	DD	000000000r			; 0
	DD	000000000r			; 0
	DD	000000000r			; 0
	DD	000000000r			; 0
	DD	000000000r			; 0
	DD	045a10d97r			; 5153.7
	DD	00H
	DD	00H
	DD	00H
	DD	044H
	DD	01eH
	DD	07H
	DD	00H
	DD	00H
	DD	00H
	DD	00H
	DD	01H
	DD	000000000r			; 0
	DD	000000000r			; 0
	DD	000000000r			; 0
	DD	000000000r			; 0
	DD	000000000r			; 0
	DD	000000000r			; 0
	DD	000000000r			; 0
	DD	045a10d97r			; 5153.7
	DD	00H
	DD	00H
	DD	00H
	DD	07H
	DD	04b0H
	DD	06H
	DD	00H
	DD	00H
	DD	00H
	DD	01H
	DD	01H
	DD	03fc90fdbr			; 1.5708
	DD	0bff5be0br			; -1.91986
	DD	03ff5be0br			; 1.91986
	DD	03fc90fdbr			; 1.5708
	DD	0bf860a92r			; -1.0472
	DD	03e449809r			; 0.191986
	DD	000000000r			; 0
	DD	045a10d97r			; 5153.7
	DD	00H
	DD	00H
	DD	04H
	DD	01fH
	DD	013H
	DD	00H
	DD	01H
	DD	00H
	DD	00H
	DD	01H
	DD	02H
	DD	000000000r			; 0
	DD	000000000r			; 0
	DD	000000000r			; 0
	DD	03eb2b8c2r			; 0.349066
	DD	0be860a92r			; -0.261799
	DD	03daf25b4r			; 0.0855211
	DD	000000000r			; 0
	DD	0424e25e0r			; 51.537
	DD	00H
	DD	00H
	DD	00H
	DD	01fH
	DD	013H
	DD	01H
	DD	01H
	DD	00H
	DD	00H
	DD	01H
	DD	02H
	DD	000000000r			; 0
	DD	000000000r			; 0
	DD	000000000r			; 0
	DD	03eb2b8c2r			; 0.349066
	DD	0be860a92r			; -0.261799
	DD	03daf25b4r			; 0.0855211
	DD	000000000r			; 0
	DD	0424e25e0r			; 51.537
	DD	00H
	DD	00H
	DD	00H
	DD	01fH
	DD	013H
	DD	02H
	DD	01H
	DD	00H
	DD	00H
	DD	01H
	DD	02H
	DD	000000000r			; 0
	DD	000000000r			; 0
	DD	000000000r			; 0
	DD	03eb2b8c2r			; 0.349066
	DD	0be860a92r			; -0.261799
	DD	03daf25b4r			; 0.0855211
	DD	000000000r			; 0
	DD	0424e25e0r			; 51.537
	DD	00H
	DD	00H
	DD	00H
	DD	01fH
	DD	013H
	DD	03H
	DD	01H
	DD	00H
	DD	00H
	DD	01H
	DD	02H
	DD	000000000r			; 0
	DD	000000000r			; 0
	DD	000000000r			; 0
	DD	03eb2b8c2r			; 0.349066
	DD	0be860a92r			; -0.261799
	DD	03daf25b4r			; 0.0855211
	DD	000000000r			; 0
	DD	0424e25e0r			; 51.537
	DD	00H
	DD	00H
	DD	00H
	DD	00H
	ORG $+72
	DD	00H
	ORG $+72
	DD	00H
	ORG $+72
	DD	00H
	ORG $+72
	DD	00H
	ORG $+72
	DD	00H
	ORG $+72
	DD	00H
	ORG $+72
	DD	00H
	ORG $+72
	DD	00H
	ORG $+72
	DD	00H
	ORG $+72
	DD	00H
	ORG $+72
	DD	00H
	ORG $+72
	DD	00H
	ORG $+72
	DD	00H
	ORG $+72
	DD	00H
	ORG $+72
	DD	00H
	ORG $+72
	DD	00H
	ORG $+72
	DD	00H
	ORG $+72
	DD	00H
	ORG $+72
	DD	00H
	ORG $+72
	DD	00H
	ORG $+72
	DD	00H
	ORG $+72
	DD	00H
	ORG $+72
	DD	00H
	ORG $+72
	DD	00H
	ORG $+72
	DD	043H
	DD	01eH
	DD	07H
	DD	00H
	DD	00H
	DD	00H
	DD	00H
	DD	01H
	DD	000000000r			; 0
	DD	000000000r			; 0
	DD	000000000r			; 0
	DD	000000000r			; 0
	DD	000000000r			; 0
	DD	000000000r			; 0
	DD	000000000r			; 0
	DD	045a10d97r			; 5153.7
	DD	00H
	DD	00H
	DD	00H
	DD	044H
	DD	01eH
	DD	07H
	DD	00H
	DD	00H
	DD	00H
	DD	00H
	DD	01H
	DD	000000000r			; 0
	DD	000000000r			; 0
	DD	000000000r			; 0
	DD	000000000r			; 0
	DD	000000000r			; 0
	DD	000000000r			; 0
	DD	000000000r			; 0
	DD	045a10d97r			; 5153.7
	DD	00H
	DD	00H
	DD	00H
	DD	07H
	DD	04b0H
	DD	06H
	DD	00H
	DD	00H
	DD	00H
	DD	01H
	DD	01H
	DD	03fc90fdbr			; 1.5708
	DD	0bff5be0br			; -1.91986
	DD	03ff5be0br			; 1.91986
	DD	03fc90fdbr			; 1.5708
	DD	0bf860a92r			; -1.0472
	DD	03e449809r			; 0.191986
	DD	000000000r			; 0
	DD	045a10d97r			; 5153.7
	DD	00H
	DD	00H
	DD	04H
	DD	024H
	DD	02H
	DD	04H
	DD	00H
	DD	00H
	DD	00H
	DD	00H
	DD	01H
	DD	000000000r			; 0
	DD	000000000r			; 0
	DD	000000000r			; 0
	DD	000000000r			; 0
	DD	000000000r			; 0
	DD	000000000r			; 0
	DD	000000000r			; 0
	DD	045a10d97r			; 5153.7
	DD	00H
	DD	00H
	DD	00H
	DD	024H
	DD	02H
	DD	05H
	DD	00H
	DD	00H
	DD	00H
	DD	00H
	DD	01H
	DD	000000000r			; 0
	DD	000000000r			; 0
	DD	000000000r			; 0
	DD	000000000r			; 0
	DD	000000000r			; 0
	DD	000000000r			; 0
	DD	000000000r			; 0
	DD	045a10d97r			; 5153.7
	DD	00H
	DD	00H
	DD	00H
	DD	00H
	ORG $+72
	DD	00H
	ORG $+72
	DD	00H
	ORG $+72
	DD	00H
	ORG $+72
	DD	00H
	ORG $+72
	DD	00H
	ORG $+72
	DD	00H
	ORG $+72
	DD	00H
	ORG $+72
	DD	00H
	ORG $+72
	DD	00H
	ORG $+72
	DD	00H
	ORG $+72
	DD	00H
	ORG $+72
	DD	00H
	ORG $+72
	DD	00H
	ORG $+72
	DD	00H
	ORG $+72
	DD	00H
	ORG $+72
	DD	00H
	ORG $+72
	DD	00H
	ORG $+72
	DD	00H
	ORG $+72
	DD	00H
	ORG $+72
	DD	00H
	ORG $+72
	DD	00H
	ORG $+72
	DD	00H
	ORG $+72
	DD	00H
	ORG $+72
	DD	00H
	ORG $+72
	DD	00H
	ORG $+72
	DD	00H
	ORG $+72
	DD	043H
	DD	01eH
	DD	07H
	DD	00H
	DD	00H
	DD	00H
	DD	00H
	DD	01H
	DD	000000000r			; 0
	DD	000000000r			; 0
	DD	000000000r			; 0
	DD	000000000r			; 0
	DD	000000000r			; 0
	DD	000000000r			; 0
	DD	000000000r			; 0
	DD	045a10d97r			; 5153.7
	DD	00H
	DD	00H
	DD	00H
	DD	044H
	DD	01eH
	DD	07H
	DD	00H
	DD	00H
	DD	00H
	DD	00H
	DD	01H
	DD	000000000r			; 0
	DD	000000000r			; 0
	DD	000000000r			; 0
	DD	000000000r			; 0
	DD	000000000r			; 0
	DD	000000000r			; 0
	DD	000000000r			; 0
	DD	045a10d97r			; 5153.7
	DD	00H
	DD	00H
	DD	00H
	DD	07H
	DD	04b0H
	DD	06H
	DD	00H
	DD	00H
	DD	00H
	DD	01H
	DD	01H
	DD	03fc90fdbr			; 1.5708
	DD	0bff5be0br			; -1.91986
	DD	03ff5be0br			; 1.91986
	DD	03fc90fdbr			; 1.5708
	DD	0bf860a92r			; -1.0472
	DD	03e449809r			; 0.191986
	DD	000000000r			; 0
	DD	045a10d97r			; 5153.7
	DD	00H
	DD	00H
	DD	04H
	DD	024H
	DD	02H
	DD	04H
	DD	00H
	DD	00H
	DD	00H
	DD	00H
	DD	01H
	DD	000000000r			; 0
	DD	000000000r			; 0
	DD	000000000r			; 0
	DD	000000000r			; 0
	DD	000000000r			; 0
	DD	000000000r			; 0
	DD	000000000r			; 0
	DD	045a10d97r			; 5153.7
	DD	00H
	DD	00H
	DD	00H
	DD	024H
	DD	02H
	DD	05H
	DD	00H
	DD	00H
	DD	00H
	DD	00H
	DD	01H
	DD	000000000r			; 0
	DD	000000000r			; 0
	DD	000000000r			; 0
	DD	000000000r			; 0
	DD	000000000r			; 0
	DD	000000000r			; 0
	DD	000000000r			; 0
	DD	045a10d97r			; 5153.7
	DD	00H
	DD	00H
	DD	00H
	DD	02dH
	DD	04H
	DD	00H
	DD	00H
	DD	00H
	DD	00H
	DD	00H
	DD	01H
	DD	000000000r			; 0
	DD	000000000r			; 0
	DD	000000000r			; 0
	DD	000000000r			; 0
	DD	000000000r			; 0
	DD	000000000r			; 0
	DD	000000000r			; 0
	DD	045a10d97r			; 5153.7
	DD	00H
	DD	00H
	DD	00H
	DD	02dH
	DD	04H
	DD	01H
	DD	00H
	DD	00H
	DD	00H
	DD	00H
	DD	01H
	DD	000000000r			; 0
	DD	000000000r			; 0
	DD	000000000r			; 0
	DD	000000000r			; 0
	DD	000000000r			; 0
	DD	000000000r			; 0
	DD	000000000r			; 0
	DD	045a10d97r			; 5153.7
	DD	00H
	DD	00H
	DD	00H
	DD	00H
	ORG $+72
	DD	00H
	ORG $+72
	DD	00H
	ORG $+72
	DD	00H
	ORG $+72
	DD	00H
	ORG $+72
	DD	00H
	ORG $+72
	DD	00H
	ORG $+72
	DD	00H
	ORG $+72
	DD	00H
	ORG $+72
	DD	00H
	ORG $+72
	DD	00H
	ORG $+72
	DD	00H
	ORG $+72
	DD	00H
	ORG $+72
	DD	00H
	ORG $+72
	DD	00H
	ORG $+72
	DD	00H
	ORG $+72
	DD	00H
	ORG $+72
	DD	00H
	ORG $+72
	DD	00H
	ORG $+72
	DD	00H
	ORG $+72
	DD	00H
	ORG $+72
	DD	00H
	ORG $+72
	DD	00H
	ORG $+72
	DD	00H
	ORG $+72
	DD	00H
	ORG $+72
	DD	043H
	DD	01eH
	DD	07H
	DD	00H
	DD	00H
	DD	00H
	DD	00H
	DD	01H
	DD	000000000r			; 0
	DD	000000000r			; 0
	DD	000000000r			; 0
	DD	000000000r			; 0
	DD	000000000r			; 0
	DD	000000000r			; 0
	DD	000000000r			; 0
	DD	045a10d97r			; 5153.7
	DD	00H
	DD	00H
	DD	00H
	DD	044H
	DD	01eH
	DD	07H
	DD	00H
	DD	00H
	DD	00H
	DD	00H
	DD	01H
	DD	000000000r			; 0
	DD	000000000r			; 0
	DD	000000000r			; 0
	DD	000000000r			; 0
	DD	000000000r			; 0
	DD	000000000r			; 0
	DD	000000000r			; 0
	DD	045a10d97r			; 5153.7
	DD	00H
	DD	00H
	DD	00H
	DD	07H
	DD	04b0H
	DD	06H
	DD	00H
	DD	00H
	DD	00H
	DD	01H
	DD	01H
	DD	03fc90fdbr			; 1.5708
	DD	0bff5be0br			; -1.91986
	DD	03ff5be0br			; 1.91986
	DD	03fc90fdbr			; 1.5708
	DD	0bf860a92r			; -1.0472
	DD	03e449809r			; 0.191986
	DD	000000000r			; 0
	DD	045a10d97r			; 5153.7
	DD	00H
	DD	00H
	DD	04H
	DD	024H
	DD	02H
	DD	04H
	DD	00H
	DD	00H
	DD	00H
	DD	00H
	DD	01H
	DD	000000000r			; 0
	DD	000000000r			; 0
	DD	000000000r			; 0
	DD	000000000r			; 0
	DD	000000000r			; 0
	DD	000000000r			; 0
	DD	000000000r			; 0
	DD	045a10d97r			; 5153.7
	DD	00H
	DD	00H
	DD	00H
	DD	024H
	DD	02H
	DD	05H
	DD	00H
	DD	00H
	DD	00H
	DD	00H
	DD	01H
	DD	000000000r			; 0
	DD	000000000r			; 0
	DD	000000000r			; 0
	DD	000000000r			; 0
	DD	000000000r			; 0
	DD	000000000r			; 0
	DD	000000000r			; 0
	DD	045a10d97r			; 5153.7
	DD	00H
	DD	00H
	DD	00H
	DD	02eH
	DD	04H
	DD	00H
	DD	00H
	DD	00H
	DD	00H
	DD	00H
	DD	01H
	DD	000000000r			; 0
	DD	000000000r			; 0
	DD	000000000r			; 0
	DD	000000000r			; 0
	DD	000000000r			; 0
	DD	000000000r			; 0
	DD	000000000r			; 0
	DD	045a10d97r			; 5153.7
	DD	00H
	DD	00H
	DD	00H
	DD	02eH
	DD	04H
	DD	01H
	DD	00H
	DD	00H
	DD	00H
	DD	00H
	DD	01H
	DD	000000000r			; 0
	DD	000000000r			; 0
	DD	000000000r			; 0
	DD	000000000r			; 0
	DD	000000000r			; 0
	DD	000000000r			; 0
	DD	000000000r			; 0
	DD	045a10d97r			; 5153.7
	DD	00H
	DD	00H
	DD	00H
	DD	00H
	ORG $+72
	DD	00H
	ORG $+72
	DD	00H
	ORG $+72
	DD	00H
	ORG $+72
	DD	00H
	ORG $+72
	DD	00H
	ORG $+72
	DD	00H
	ORG $+72
	DD	00H
	ORG $+72
	DD	00H
	ORG $+72
	DD	00H
	ORG $+72
	DD	00H
	ORG $+72
	DD	00H
	ORG $+72
	DD	00H
	ORG $+72
	DD	00H
	ORG $+72
	DD	00H
	ORG $+72
	DD	00H
	ORG $+72
	DD	00H
	ORG $+72
	DD	00H
	ORG $+72
	DD	00H
	ORG $+72
	DD	00H
	ORG $+72
	DD	00H
	ORG $+72
	DD	00H
	ORG $+72
	DD	00H
	ORG $+72
	DD	00H
	ORG $+72
	DD	00H
	ORG $+72
	DD	043H
	DD	01eH
	DD	07H
	DD	00H
	DD	00H
	DD	00H
	DD	00H
	DD	01H
	DD	000000000r			; 0
	DD	000000000r			; 0
	DD	000000000r			; 0
	DD	000000000r			; 0
	DD	000000000r			; 0
	DD	000000000r			; 0
	DD	000000000r			; 0
	DD	045a10d97r			; 5153.7
	DD	00H
	DD	00H
	DD	00H
	DD	044H
	DD	01eH
	DD	07H
	DD	00H
	DD	00H
	DD	00H
	DD	00H
	DD	01H
	DD	000000000r			; 0
	DD	000000000r			; 0
	DD	000000000r			; 0
	DD	000000000r			; 0
	DD	000000000r			; 0
	DD	000000000r			; 0
	DD	000000000r			; 0
	DD	045a10d97r			; 5153.7
	DD	00H
	DD	00H
	DD	00H
	DD	07H
	DD	04b0H
	DD	06H
	DD	00H
	DD	00H
	DD	00H
	DD	01H
	DD	01H
	DD	03fc90fdbr			; 1.5708
	DD	0bff5be0br			; -1.91986
	DD	03ff5be0br			; 1.91986
	DD	03fc90fdbr			; 1.5708
	DD	0bf860a92r			; -1.0472
	DD	03e449809r			; 0.191986
	DD	000000000r			; 0
	DD	045a10d97r			; 5153.7
	DD	00H
	DD	00H
	DD	04H
	DD	024H
	DD	02H
	DD	04H
	DD	00H
	DD	00H
	DD	00H
	DD	00H
	DD	01H
	DD	000000000r			; 0
	DD	000000000r			; 0
	DD	000000000r			; 0
	DD	000000000r			; 0
	DD	000000000r			; 0
	DD	000000000r			; 0
	DD	000000000r			; 0
	DD	045a10d97r			; 5153.7
	DD	00H
	DD	00H
	DD	00H
	DD	024H
	DD	02H
	DD	05H
	DD	00H
	DD	00H
	DD	00H
	DD	00H
	DD	01H
	DD	000000000r			; 0
	DD	000000000r			; 0
	DD	000000000r			; 0
	DD	000000000r			; 0
	DD	000000000r			; 0
	DD	000000000r			; 0
	DD	000000000r			; 0
	DD	045a10d97r			; 5153.7
	DD	00H
	DD	00H
	DD	00H
	DD	01eH
	DD	013H
	DD	00H
	DD	01H
	DD	00H
	DD	00H
	DD	01H
	DD	02H
	DD	000000000r			; 0
	DD	000000000r			; 0
	DD	000000000r			; 0
	DD	03eb2b8c2r			; 0.349066
	DD	0be860a92r			; -0.261799
	DD	03daf25b4r			; 0.0855211
	DD	000000000r			; 0
	DD	0424e25e0r			; 51.537
	DD	00H
	DD	00H
	DD	00H
	DD	01eH
	DD	013H
	DD	01H
	DD	01H
	DD	00H
	DD	00H
	DD	01H
	DD	02H
	DD	000000000r			; 0
	DD	000000000r			; 0
	DD	000000000r			; 0
	DD	03eb2b8c2r			; 0.349066
	DD	0be860a92r			; -0.261799
	DD	03daf25b4r			; 0.0855211
	DD	000000000r			; 0
	DD	0424e25e0r			; 51.537
	DD	00H
	DD	00H
	DD	00H
	DD	00H
	ORG $+72
	DD	00H
	ORG $+72
	DD	00H
	ORG $+72
	DD	00H
	ORG $+72
	DD	00H
	ORG $+72
	DD	00H
	ORG $+72
	DD	00H
	ORG $+72
	DD	00H
	ORG $+72
	DD	00H
	ORG $+72
	DD	00H
	ORG $+72
	DD	00H
	ORG $+72
	DD	00H
	ORG $+72
	DD	00H
	ORG $+72
	DD	00H
	ORG $+72
	DD	00H
	ORG $+72
	DD	00H
	ORG $+72
	DD	00H
	ORG $+72
	DD	00H
	ORG $+72
	DD	00H
	ORG $+72
	DD	00H
	ORG $+72
	DD	00H
	ORG $+72
	DD	00H
	ORG $+72
	DD	00H
	ORG $+72
	DD	00H
	ORG $+72
	DD	00H
	ORG $+72
	DD	043H
	DD	01eH
	DD	07H
	DD	00H
	DD	00H
	DD	00H
	DD	00H
	DD	01H
	DD	000000000r			; 0
	DD	000000000r			; 0
	DD	000000000r			; 0
	DD	000000000r			; 0
	DD	000000000r			; 0
	DD	000000000r			; 0
	DD	000000000r			; 0
	DD	045a10d97r			; 5153.7
	DD	00H
	DD	00H
	DD	00H
	DD	044H
	DD	01eH
	DD	07H
	DD	00H
	DD	00H
	DD	00H
	DD	00H
	DD	01H
	DD	000000000r			; 0
	DD	000000000r			; 0
	DD	000000000r			; 0
	DD	000000000r			; 0
	DD	000000000r			; 0
	DD	000000000r			; 0
	DD	000000000r			; 0
	DD	045a10d97r			; 5153.7
	DD	00H
	DD	00H
	DD	00H
	DD	07H
	DD	04b0H
	DD	06H
	DD	00H
	DD	00H
	DD	00H
	DD	01H
	DD	01H
	DD	03fc90fdbr			; 1.5708
	DD	0bff5be0br			; -1.91986
	DD	03ff5be0br			; 1.91986
	DD	03fc90fdbr			; 1.5708
	DD	0bf860a92r			; -1.0472
	DD	03e449809r			; 0.191986
	DD	000000000r			; 0
	DD	045a10d97r			; 5153.7
	DD	00H
	DD	00H
	DD	04H
	DD	024H
	DD	02H
	DD	04H
	DD	00H
	DD	00H
	DD	00H
	DD	00H
	DD	01H
	DD	000000000r			; 0
	DD	000000000r			; 0
	DD	000000000r			; 0
	DD	000000000r			; 0
	DD	000000000r			; 0
	DD	000000000r			; 0
	DD	000000000r			; 0
	DD	045a10d97r			; 5153.7
	DD	00H
	DD	00H
	DD	00H
	DD	024H
	DD	02H
	DD	05H
	DD	00H
	DD	00H
	DD	00H
	DD	00H
	DD	01H
	DD	000000000r			; 0
	DD	000000000r			; 0
	DD	000000000r			; 0
	DD	000000000r			; 0
	DD	000000000r			; 0
	DD	000000000r			; 0
	DD	000000000r			; 0
	DD	045a10d97r			; 5153.7
	DD	00H
	DD	00H
	DD	00H
	DD	01fH
	DD	013H
	DD	00H
	DD	01H
	DD	00H
	DD	00H
	DD	01H
	DD	02H
	DD	000000000r			; 0
	DD	000000000r			; 0
	DD	000000000r			; 0
	DD	03eb2b8c2r			; 0.349066
	DD	0be860a92r			; -0.261799
	DD	03daf25b4r			; 0.0855211
	DD	000000000r			; 0
	DD	0424e25e0r			; 51.537
	DD	00H
	DD	00H
	DD	00H
	DD	01fH
	DD	013H
	DD	01H
	DD	01H
	DD	00H
	DD	00H
	DD	01H
	DD	02H
	DD	000000000r			; 0
	DD	000000000r			; 0
	DD	000000000r			; 0
	DD	03eb2b8c2r			; 0.349066
	DD	0be860a92r			; -0.261799
	DD	03daf25b4r			; 0.0855211
	DD	000000000r			; 0
	DD	0424e25e0r			; 51.537
	DD	00H
	DD	00H
	DD	00H
	DD	00H
	ORG $+72
	DD	00H
	ORG $+72
	DD	00H
	ORG $+72
	DD	00H
	ORG $+72
	DD	00H
	ORG $+72
	DD	00H
	ORG $+72
	DD	00H
	ORG $+72
	DD	00H
	ORG $+72
	DD	00H
	ORG $+72
	DD	00H
	ORG $+72
	DD	00H
	ORG $+72
	DD	00H
	ORG $+72
	DD	00H
	ORG $+72
	DD	00H
	ORG $+72
	DD	00H
	ORG $+72
	DD	00H
	ORG $+72
	DD	00H
	ORG $+72
	DD	00H
	ORG $+72
	DD	00H
	ORG $+72
	DD	00H
	ORG $+72
	DD	00H
	ORG $+72
	DD	00H
	ORG $+72
	DD	00H
	ORG $+72
	DD	00H
	ORG $+72
	DD	00H
	ORG $+72
	DD	043H
	DD	01eH
	DD	07H
	DD	00H
	DD	00H
	DD	00H
	DD	00H
	DD	01H
	DD	000000000r			; 0
	DD	000000000r			; 0
	DD	000000000r			; 0
	DD	000000000r			; 0
	DD	000000000r			; 0
	DD	000000000r			; 0
	DD	000000000r			; 0
	DD	045a10d97r			; 5153.7
	DD	00H
	DD	00H
	DD	00H
	DD	044H
	DD	01eH
	DD	07H
	DD	00H
	DD	00H
	DD	00H
	DD	00H
	DD	01H
	DD	000000000r			; 0
	DD	000000000r			; 0
	DD	000000000r			; 0
	DD	000000000r			; 0
	DD	000000000r			; 0
	DD	000000000r			; 0
	DD	000000000r			; 0
	DD	045a10d97r			; 5153.7
	DD	00H
	DD	00H
	DD	00H
	DD	07H
	DD	04b0H
	DD	06H
	DD	00H
	DD	00H
	DD	00H
	DD	01H
	DD	01H
	DD	03fc90fdbr			; 1.5708
	DD	0bff5be0br			; -1.91986
	DD	03ff5be0br			; 1.91986
	DD	03fc90fdbr			; 1.5708
	DD	0bf860a92r			; -1.0472
	DD	03e449809r			; 0.191986
	DD	000000000r			; 0
	DD	045a10d97r			; 5153.7
	DD	00H
	DD	00H
	DD	04H
	DD	024H
	DD	02H
	DD	04H
	DD	00H
	DD	00H
	DD	00H
	DD	00H
	DD	01H
	DD	000000000r			; 0
	DD	000000000r			; 0
	DD	000000000r			; 0
	DD	000000000r			; 0
	DD	000000000r			; 0
	DD	000000000r			; 0
	DD	000000000r			; 0
	DD	045a10d97r			; 5153.7
	DD	00H
	DD	00H
	DD	00H
	DD	024H
	DD	02H
	DD	05H
	DD	00H
	DD	00H
	DD	00H
	DD	00H
	DD	01H
	DD	000000000r			; 0
	DD	000000000r			; 0
	DD	000000000r			; 0
	DD	000000000r			; 0
	DD	000000000r			; 0
	DD	000000000r			; 0
	DD	000000000r			; 0
	DD	045a10d97r			; 5153.7
	DD	00H
	DD	00H
	DD	00H
	DD	02dH
	DD	04H
	DD	02H
	DD	00H
	DD	00H
	DD	00H
	DD	00H
	DD	01H
	DD	000000000r			; 0
	DD	000000000r			; 0
	DD	000000000r			; 0
	DD	000000000r			; 0
	DD	000000000r			; 0
	DD	000000000r			; 0
	DD	000000000r			; 0
	DD	045a10d97r			; 5153.7
	DD	00H
	DD	00H
	DD	00H
	DD	02dH
	DD	04H
	DD	03H
	DD	00H
	DD	00H
	DD	00H
	DD	00H
	DD	01H
	DD	000000000r			; 0
	DD	000000000r			; 0
	DD	000000000r			; 0
	DD	000000000r			; 0
	DD	000000000r			; 0
	DD	000000000r			; 0
	DD	000000000r			; 0
	DD	045a10d97r			; 5153.7
	DD	00H
	DD	00H
	DD	00H
	DD	00H
	ORG $+72
	DD	00H
	ORG $+72
	DD	00H
	ORG $+72
	DD	00H
	ORG $+72
	DD	00H
	ORG $+72
	DD	00H
	ORG $+72
	DD	00H
	ORG $+72
	DD	00H
	ORG $+72
	DD	00H
	ORG $+72
	DD	00H
	ORG $+72
	DD	00H
	ORG $+72
	DD	00H
	ORG $+72
	DD	00H
	ORG $+72
	DD	00H
	ORG $+72
	DD	00H
	ORG $+72
	DD	00H
	ORG $+72
	DD	00H
	ORG $+72
	DD	00H
	ORG $+72
	DD	00H
	ORG $+72
	DD	00H
	ORG $+72
	DD	00H
	ORG $+72
	DD	00H
	ORG $+72
	DD	00H
	ORG $+72
	DD	00H
	ORG $+72
	DD	00H
	ORG $+72
	DD	043H
	DD	01eH
	DD	07H
	DD	00H
	DD	00H
	DD	00H
	DD	00H
	DD	01H
	DD	000000000r			; 0
	DD	000000000r			; 0
	DD	000000000r			; 0
	DD	000000000r			; 0
	DD	000000000r			; 0
	DD	000000000r			; 0
	DD	000000000r			; 0
	DD	045a10d97r			; 5153.7
	DD	00H
	DD	00H
	DD	00H
	DD	044H
	DD	01eH
	DD	07H
	DD	00H
	DD	00H
	DD	00H
	DD	00H
	DD	01H
	DD	000000000r			; 0
	DD	000000000r			; 0
	DD	000000000r			; 0
	DD	000000000r			; 0
	DD	000000000r			; 0
	DD	000000000r			; 0
	DD	000000000r			; 0
	DD	045a10d97r			; 5153.7
	DD	00H
	DD	00H
	DD	00H
	DD	07H
	DD	04b0H
	DD	06H
	DD	00H
	DD	00H
	DD	00H
	DD	01H
	DD	01H
	DD	03fc90fdbr			; 1.5708
	DD	0bff5be0br			; -1.91986
	DD	03ff5be0br			; 1.91986
	DD	03fc90fdbr			; 1.5708
	DD	0bf860a92r			; -1.0472
	DD	03e449809r			; 0.191986
	DD	000000000r			; 0
	DD	045a10d97r			; 5153.7
	DD	00H
	DD	00H
	DD	04H
	DD	024H
	DD	02H
	DD	04H
	DD	00H
	DD	00H
	DD	00H
	DD	00H
	DD	01H
	DD	000000000r			; 0
	DD	000000000r			; 0
	DD	000000000r			; 0
	DD	000000000r			; 0
	DD	000000000r			; 0
	DD	000000000r			; 0
	DD	000000000r			; 0
	DD	045a10d97r			; 5153.7
	DD	00H
	DD	00H
	DD	00H
	DD	024H
	DD	02H
	DD	05H
	DD	00H
	DD	00H
	DD	00H
	DD	00H
	DD	01H
	DD	000000000r			; 0
	DD	000000000r			; 0
	DD	000000000r			; 0
	DD	000000000r			; 0
	DD	000000000r			; 0
	DD	000000000r			; 0
	DD	000000000r			; 0
	DD	045a10d97r			; 5153.7
	DD	00H
	DD	00H
	DD	00H
	DD	02dH
	DD	04H
	DD	00H
	DD	00H
	DD	00H
	DD	00H
	DD	00H
	DD	01H
	DD	000000000r			; 0
	DD	000000000r			; 0
	DD	000000000r			; 0
	DD	000000000r			; 0
	DD	000000000r			; 0
	DD	000000000r			; 0
	DD	000000000r			; 0
	DD	045a10d97r			; 5153.7
	DD	00H
	DD	00H
	DD	00H
	DD	02dH
	DD	04H
	DD	01H
	DD	00H
	DD	00H
	DD	00H
	DD	00H
	DD	01H
	DD	000000000r			; 0
	DD	000000000r			; 0
	DD	000000000r			; 0
	DD	000000000r			; 0
	DD	000000000r			; 0
	DD	000000000r			; 0
	DD	000000000r			; 0
	DD	045a10d97r			; 5153.7
	DD	00H
	DD	00H
	DD	00H
	DD	02dH
	DD	04H
	DD	02H
	DD	00H
	DD	00H
	DD	00H
	DD	00H
	DD	01H
	DD	000000000r			; 0
	DD	000000000r			; 0
	DD	000000000r			; 0
	DD	000000000r			; 0
	DD	000000000r			; 0
	DD	000000000r			; 0
	DD	000000000r			; 0
	DD	045a10d97r			; 5153.7
	DD	00H
	DD	00H
	DD	00H
	DD	02dH
	DD	04H
	DD	03H
	DD	00H
	DD	00H
	DD	00H
	DD	00H
	DD	01H
	DD	000000000r			; 0
	DD	000000000r			; 0
	DD	000000000r			; 0
	DD	000000000r			; 0
	DD	000000000r			; 0
	DD	000000000r			; 0
	DD	000000000r			; 0
	DD	045a10d97r			; 5153.7
	DD	00H
	DD	00H
	DD	00H
	DD	00H
	ORG $+72
	DD	00H
	ORG $+72
	DD	00H
	ORG $+72
	DD	00H
	ORG $+72
	DD	00H
	ORG $+72
	DD	00H
	ORG $+72
	DD	00H
	ORG $+72
	DD	00H
	ORG $+72
	DD	00H
	ORG $+72
	DD	00H
	ORG $+72
	DD	00H
	ORG $+72
	DD	00H
	ORG $+72
	DD	00H
	ORG $+72
	DD	00H
	ORG $+72
	DD	00H
	ORG $+72
	DD	00H
	ORG $+72
	DD	00H
	ORG $+72
	DD	00H
	ORG $+72
	DD	00H
	ORG $+72
	DD	00H
	ORG $+72
	DD	00H
	ORG $+72
	DD	00H
	ORG $+72
	DD	00H
	ORG $+72
	DD	043H
	DD	01eH
	DD	07H
	DD	00H
	DD	00H
	DD	00H
	DD	00H
	DD	01H
	DD	000000000r			; 0
	DD	000000000r			; 0
	DD	000000000r			; 0
	DD	000000000r			; 0
	DD	000000000r			; 0
	DD	000000000r			; 0
	DD	000000000r			; 0
	DD	045a10d97r			; 5153.7
	DD	00H
	DD	00H
	DD	00H
	DD	044H
	DD	01eH
	DD	07H
	DD	00H
	DD	00H
	DD	00H
	DD	00H
	DD	01H
	DD	000000000r			; 0
	DD	000000000r			; 0
	DD	000000000r			; 0
	DD	000000000r			; 0
	DD	000000000r			; 0
	DD	000000000r			; 0
	DD	000000000r			; 0
	DD	045a10d97r			; 5153.7
	DD	00H
	DD	00H
	DD	00H
	DD	07H
	DD	04b0H
	DD	06H
	DD	00H
	DD	00H
	DD	00H
	DD	01H
	DD	01H
	DD	03fc90fdbr			; 1.5708
	DD	0bff5be0br			; -1.91986
	DD	03ff5be0br			; 1.91986
	DD	03fc90fdbr			; 1.5708
	DD	0bf860a92r			; -1.0472
	DD	03e449809r			; 0.191986
	DD	000000000r			; 0
	DD	045a10d97r			; 5153.7
	DD	00H
	DD	00H
	DD	04H
	DD	024H
	DD	02H
	DD	04H
	DD	00H
	DD	00H
	DD	00H
	DD	00H
	DD	01H
	DD	000000000r			; 0
	DD	000000000r			; 0
	DD	000000000r			; 0
	DD	000000000r			; 0
	DD	000000000r			; 0
	DD	000000000r			; 0
	DD	000000000r			; 0
	DD	045a10d97r			; 5153.7
	DD	00H
	DD	00H
	DD	00H
	DD	024H
	DD	02H
	DD	05H
	DD	00H
	DD	00H
	DD	00H
	DD	00H
	DD	01H
	DD	000000000r			; 0
	DD	000000000r			; 0
	DD	000000000r			; 0
	DD	000000000r			; 0
	DD	000000000r			; 0
	DD	000000000r			; 0
	DD	000000000r			; 0
	DD	045a10d97r			; 5153.7
	DD	00H
	DD	00H
	DD	00H
	DD	02eH
	DD	04H
	DD	00H
	DD	00H
	DD	00H
	DD	00H
	DD	00H
	DD	01H
	DD	000000000r			; 0
	DD	000000000r			; 0
	DD	000000000r			; 0
	DD	000000000r			; 0
	DD	000000000r			; 0
	DD	000000000r			; 0
	DD	000000000r			; 0
	DD	045a10d97r			; 5153.7
	DD	00H
	DD	00H
	DD	00H
	DD	02eH
	DD	04H
	DD	01H
	DD	00H
	DD	00H
	DD	00H
	DD	00H
	DD	01H
	DD	000000000r			; 0
	DD	000000000r			; 0
	DD	000000000r			; 0
	DD	000000000r			; 0
	DD	000000000r			; 0
	DD	000000000r			; 0
	DD	000000000r			; 0
	DD	045a10d97r			; 5153.7
	DD	00H
	DD	00H
	DD	00H
	DD	02dH
	DD	04H
	DD	02H
	DD	00H
	DD	00H
	DD	00H
	DD	00H
	DD	01H
	DD	000000000r			; 0
	DD	000000000r			; 0
	DD	000000000r			; 0
	DD	000000000r			; 0
	DD	000000000r			; 0
	DD	000000000r			; 0
	DD	000000000r			; 0
	DD	045a10d97r			; 5153.7
	DD	00H
	DD	00H
	DD	00H
	DD	02dH
	DD	04H
	DD	03H
	DD	00H
	DD	00H
	DD	00H
	DD	00H
	DD	01H
	DD	000000000r			; 0
	DD	000000000r			; 0
	DD	000000000r			; 0
	DD	000000000r			; 0
	DD	000000000r			; 0
	DD	000000000r			; 0
	DD	000000000r			; 0
	DD	045a10d97r			; 5153.7
	DD	00H
	DD	00H
	DD	00H
	DD	00H
	ORG $+72
	DD	00H
	ORG $+72
	DD	00H
	ORG $+72
	DD	00H
	ORG $+72
	DD	00H
	ORG $+72
	DD	00H
	ORG $+72
	DD	00H
	ORG $+72
	DD	00H
	ORG $+72
	DD	00H
	ORG $+72
	DD	00H
	ORG $+72
	DD	00H
	ORG $+72
	DD	00H
	ORG $+72
	DD	00H
	ORG $+72
	DD	00H
	ORG $+72
	DD	00H
	ORG $+72
	DD	00H
	ORG $+72
	DD	00H
	ORG $+72
	DD	00H
	ORG $+72
	DD	00H
	ORG $+72
	DD	00H
	ORG $+72
	DD	00H
	ORG $+72
	DD	00H
	ORG $+72
	DD	00H
	ORG $+72
	DD	043H
	DD	01eH
	DD	07H
	DD	00H
	DD	00H
	DD	00H
	DD	00H
	DD	01H
	DD	000000000r			; 0
	DD	000000000r			; 0
	DD	000000000r			; 0
	DD	000000000r			; 0
	DD	000000000r			; 0
	DD	000000000r			; 0
	DD	000000000r			; 0
	DD	045a10d97r			; 5153.7
	DD	00H
	DD	00H
	DD	00H
	DD	044H
	DD	01eH
	DD	07H
	DD	00H
	DD	00H
	DD	00H
	DD	00H
	DD	01H
	DD	000000000r			; 0
	DD	000000000r			; 0
	DD	000000000r			; 0
	DD	000000000r			; 0
	DD	000000000r			; 0
	DD	000000000r			; 0
	DD	000000000r			; 0
	DD	045a10d97r			; 5153.7
	DD	00H
	DD	00H
	DD	00H
	DD	07H
	DD	04b0H
	DD	06H
	DD	00H
	DD	00H
	DD	00H
	DD	01H
	DD	01H
	DD	03fc90fdbr			; 1.5708
	DD	0bff5be0br			; -1.91986
	DD	03ff5be0br			; 1.91986
	DD	03fc90fdbr			; 1.5708
	DD	0bf860a92r			; -1.0472
	DD	03e449809r			; 0.191986
	DD	000000000r			; 0
	DD	045a10d97r			; 5153.7
	DD	00H
	DD	00H
	DD	04H
	DD	024H
	DD	02H
	DD	04H
	DD	00H
	DD	00H
	DD	00H
	DD	00H
	DD	01H
	DD	000000000r			; 0
	DD	000000000r			; 0
	DD	000000000r			; 0
	DD	000000000r			; 0
	DD	000000000r			; 0
	DD	000000000r			; 0
	DD	000000000r			; 0
	DD	045a10d97r			; 5153.7
	DD	00H
	DD	00H
	DD	00H
	DD	024H
	DD	02H
	DD	05H
	DD	00H
	DD	00H
	DD	00H
	DD	00H
	DD	01H
	DD	000000000r			; 0
	DD	000000000r			; 0
	DD	000000000r			; 0
	DD	000000000r			; 0
	DD	000000000r			; 0
	DD	000000000r			; 0
	DD	000000000r			; 0
	DD	045a10d97r			; 5153.7
	DD	00H
	DD	00H
	DD	00H
	DD	01eH
	DD	013H
	DD	00H
	DD	01H
	DD	00H
	DD	00H
	DD	01H
	DD	02H
	DD	000000000r			; 0
	DD	000000000r			; 0
	DD	000000000r			; 0
	DD	03eb2b8c2r			; 0.349066
	DD	0be860a92r			; -0.261799
	DD	03daf25b4r			; 0.0855211
	DD	000000000r			; 0
	DD	0424e25e0r			; 51.537
	DD	00H
	DD	00H
	DD	00H
	DD	01eH
	DD	013H
	DD	01H
	DD	01H
	DD	00H
	DD	00H
	DD	01H
	DD	02H
	DD	000000000r			; 0
	DD	000000000r			; 0
	DD	000000000r			; 0
	DD	03eb2b8c2r			; 0.349066
	DD	0be860a92r			; -0.261799
	DD	03daf25b4r			; 0.0855211
	DD	000000000r			; 0
	DD	0424e25e0r			; 51.537
	DD	00H
	DD	00H
	DD	00H
	DD	02dH
	DD	04H
	DD	02H
	DD	00H
	DD	00H
	DD	00H
	DD	00H
	DD	01H
	DD	000000000r			; 0
	DD	000000000r			; 0
	DD	000000000r			; 0
	DD	000000000r			; 0
	DD	000000000r			; 0
	DD	000000000r			; 0
	DD	000000000r			; 0
	DD	045a10d97r			; 5153.7
	DD	00H
	DD	00H
	DD	00H
	DD	02dH
	DD	04H
	DD	03H
	DD	00H
	DD	00H
	DD	00H
	DD	00H
	DD	01H
	DD	000000000r			; 0
	DD	000000000r			; 0
	DD	000000000r			; 0
	DD	000000000r			; 0
	DD	000000000r			; 0
	DD	000000000r			; 0
	DD	000000000r			; 0
	DD	045a10d97r			; 5153.7
	DD	00H
	DD	00H
	DD	00H
	DD	00H
	ORG $+72
	DD	00H
	ORG $+72
	DD	00H
	ORG $+72
	DD	00H
	ORG $+72
	DD	00H
	ORG $+72
	DD	00H
	ORG $+72
	DD	00H
	ORG $+72
	DD	00H
	ORG $+72
	DD	00H
	ORG $+72
	DD	00H
	ORG $+72
	DD	00H
	ORG $+72
	DD	00H
	ORG $+72
	DD	00H
	ORG $+72
	DD	00H
	ORG $+72
	DD	00H
	ORG $+72
	DD	00H
	ORG $+72
	DD	00H
	ORG $+72
	DD	00H
	ORG $+72
	DD	00H
	ORG $+72
	DD	00H
	ORG $+72
	DD	00H
	ORG $+72
	DD	00H
	ORG $+72
	DD	00H
	ORG $+72
	DD	043H
	DD	01eH
	DD	07H
	DD	00H
	DD	00H
	DD	00H
	DD	00H
	DD	01H
	DD	000000000r			; 0
	DD	000000000r			; 0
	DD	000000000r			; 0
	DD	000000000r			; 0
	DD	000000000r			; 0
	DD	000000000r			; 0
	DD	000000000r			; 0
	DD	045a10d97r			; 5153.7
	DD	00H
	DD	00H
	DD	00H
	DD	044H
	DD	01eH
	DD	07H
	DD	00H
	DD	00H
	DD	00H
	DD	00H
	DD	01H
	DD	000000000r			; 0
	DD	000000000r			; 0
	DD	000000000r			; 0
	DD	000000000r			; 0
	DD	000000000r			; 0
	DD	000000000r			; 0
	DD	000000000r			; 0
	DD	045a10d97r			; 5153.7
	DD	00H
	DD	00H
	DD	00H
	DD	07H
	DD	04b0H
	DD	06H
	DD	00H
	DD	00H
	DD	00H
	DD	01H
	DD	01H
	DD	03fc90fdbr			; 1.5708
	DD	0bff5be0br			; -1.91986
	DD	03ff5be0br			; 1.91986
	DD	03fc90fdbr			; 1.5708
	DD	0bf860a92r			; -1.0472
	DD	03e449809r			; 0.191986
	DD	000000000r			; 0
	DD	045a10d97r			; 5153.7
	DD	00H
	DD	00H
	DD	04H
	DD	024H
	DD	02H
	DD	04H
	DD	00H
	DD	00H
	DD	00H
	DD	00H
	DD	01H
	DD	000000000r			; 0
	DD	000000000r			; 0
	DD	000000000r			; 0
	DD	000000000r			; 0
	DD	000000000r			; 0
	DD	000000000r			; 0
	DD	000000000r			; 0
	DD	045a10d97r			; 5153.7
	DD	00H
	DD	00H
	DD	00H
	DD	024H
	DD	02H
	DD	05H
	DD	00H
	DD	00H
	DD	00H
	DD	00H
	DD	01H
	DD	000000000r			; 0
	DD	000000000r			; 0
	DD	000000000r			; 0
	DD	000000000r			; 0
	DD	000000000r			; 0
	DD	000000000r			; 0
	DD	000000000r			; 0
	DD	045a10d97r			; 5153.7
	DD	00H
	DD	00H
	DD	00H
	DD	01fH
	DD	013H
	DD	00H
	DD	01H
	DD	00H
	DD	00H
	DD	01H
	DD	02H
	DD	000000000r			; 0
	DD	000000000r			; 0
	DD	000000000r			; 0
	DD	03eb2b8c2r			; 0.349066
	DD	0be860a92r			; -0.261799
	DD	03daf25b4r			; 0.0855211
	DD	000000000r			; 0
	DD	0424e25e0r			; 51.537
	DD	00H
	DD	00H
	DD	00H
	DD	01fH
	DD	013H
	DD	01H
	DD	01H
	DD	00H
	DD	00H
	DD	01H
	DD	02H
	DD	000000000r			; 0
	DD	000000000r			; 0
	DD	000000000r			; 0
	DD	03eb2b8c2r			; 0.349066
	DD	0be860a92r			; -0.261799
	DD	03daf25b4r			; 0.0855211
	DD	000000000r			; 0
	DD	0424e25e0r			; 51.537
	DD	00H
	DD	00H
	DD	00H
	DD	02dH
	DD	04H
	DD	02H
	DD	00H
	DD	00H
	DD	00H
	DD	00H
	DD	01H
	DD	000000000r			; 0
	DD	000000000r			; 0
	DD	000000000r			; 0
	DD	000000000r			; 0
	DD	000000000r			; 0
	DD	000000000r			; 0
	DD	000000000r			; 0
	DD	045a10d97r			; 5153.7
	DD	00H
	DD	00H
	DD	00H
	DD	02dH
	DD	04H
	DD	03H
	DD	00H
	DD	00H
	DD	00H
	DD	00H
	DD	01H
	DD	000000000r			; 0
	DD	000000000r			; 0
	DD	000000000r			; 0
	DD	000000000r			; 0
	DD	000000000r			; 0
	DD	000000000r			; 0
	DD	000000000r			; 0
	DD	045a10d97r			; 5153.7
	DD	00H
	DD	00H
	DD	00H
	DD	00H
	ORG $+72
	DD	00H
	ORG $+72
	DD	00H
	ORG $+72
	DD	00H
	ORG $+72
	DD	00H
	ORG $+72
	DD	00H
	ORG $+72
	DD	00H
	ORG $+72
	DD	00H
	ORG $+72
	DD	00H
	ORG $+72
	DD	00H
	ORG $+72
	DD	00H
	ORG $+72
	DD	00H
	ORG $+72
	DD	00H
	ORG $+72
	DD	00H
	ORG $+72
	DD	00H
	ORG $+72
	DD	00H
	ORG $+72
	DD	00H
	ORG $+72
	DD	00H
	ORG $+72
	DD	00H
	ORG $+72
	DD	00H
	ORG $+72
	DD	00H
	ORG $+72
	DD	00H
	ORG $+72
	DD	00H
	ORG $+72
	DD	043H
	DD	01eH
	DD	07H
	DD	00H
	DD	00H
	DD	00H
	DD	00H
	DD	01H
	DD	000000000r			; 0
	DD	000000000r			; 0
	DD	000000000r			; 0
	DD	000000000r			; 0
	DD	000000000r			; 0
	DD	000000000r			; 0
	DD	000000000r			; 0
	DD	045a10d97r			; 5153.7
	DD	00H
	DD	00H
	DD	00H
	DD	044H
	DD	01eH
	DD	07H
	DD	00H
	DD	00H
	DD	00H
	DD	00H
	DD	01H
	DD	000000000r			; 0
	DD	000000000r			; 0
	DD	000000000r			; 0
	DD	000000000r			; 0
	DD	000000000r			; 0
	DD	000000000r			; 0
	DD	000000000r			; 0
	DD	045a10d97r			; 5153.7
	DD	00H
	DD	00H
	DD	00H
	DD	07H
	DD	04b0H
	DD	06H
	DD	00H
	DD	00H
	DD	00H
	DD	01H
	DD	01H
	DD	03fc90fdbr			; 1.5708
	DD	0bff5be0br			; -1.91986
	DD	03ff5be0br			; 1.91986
	DD	03fc90fdbr			; 1.5708
	DD	0bf860a92r			; -1.0472
	DD	03e449809r			; 0.191986
	DD	000000000r			; 0
	DD	045a10d97r			; 5153.7
	DD	00H
	DD	00H
	DD	04H
	DD	024H
	DD	02H
	DD	04H
	DD	00H
	DD	00H
	DD	00H
	DD	00H
	DD	01H
	DD	000000000r			; 0
	DD	000000000r			; 0
	DD	000000000r			; 0
	DD	000000000r			; 0
	DD	000000000r			; 0
	DD	000000000r			; 0
	DD	000000000r			; 0
	DD	045a10d97r			; 5153.7
	DD	00H
	DD	00H
	DD	00H
	DD	024H
	DD	02H
	DD	05H
	DD	00H
	DD	00H
	DD	00H
	DD	00H
	DD	01H
	DD	000000000r			; 0
	DD	000000000r			; 0
	DD	000000000r			; 0
	DD	000000000r			; 0
	DD	000000000r			; 0
	DD	000000000r			; 0
	DD	000000000r			; 0
	DD	045a10d97r			; 5153.7
	DD	00H
	DD	00H
	DD	00H
	DD	02eH
	DD	04H
	DD	02H
	DD	00H
	DD	00H
	DD	00H
	DD	00H
	DD	01H
	DD	000000000r			; 0
	DD	000000000r			; 0
	DD	000000000r			; 0
	DD	000000000r			; 0
	DD	000000000r			; 0
	DD	000000000r			; 0
	DD	000000000r			; 0
	DD	045a10d97r			; 5153.7
	DD	00H
	DD	00H
	DD	00H
	DD	02eH
	DD	04H
	DD	03H
	DD	00H
	DD	00H
	DD	00H
	DD	00H
	DD	01H
	DD	000000000r			; 0
	DD	000000000r			; 0
	DD	000000000r			; 0
	DD	000000000r			; 0
	DD	000000000r			; 0
	DD	000000000r			; 0
	DD	000000000r			; 0
	DD	045a10d97r			; 5153.7
	DD	00H
	DD	00H
	DD	00H
	DD	00H
	ORG $+72
	DD	00H
	ORG $+72
	DD	00H
	ORG $+72
	DD	00H
	ORG $+72
	DD	00H
	ORG $+72
	DD	00H
	ORG $+72
	DD	00H
	ORG $+72
	DD	00H
	ORG $+72
	DD	00H
	ORG $+72
	DD	00H
	ORG $+72
	DD	00H
	ORG $+72
	DD	00H
	ORG $+72
	DD	00H
	ORG $+72
	DD	00H
	ORG $+72
	DD	00H
	ORG $+72
	DD	00H
	ORG $+72
	DD	00H
	ORG $+72
	DD	00H
	ORG $+72
	DD	00H
	ORG $+72
	DD	00H
	ORG $+72
	DD	00H
	ORG $+72
	DD	00H
	ORG $+72
	DD	00H
	ORG $+72
	DD	00H
	ORG $+72
	DD	00H
	ORG $+72
	DD	043H
	DD	01eH
	DD	07H
	DD	00H
	DD	00H
	DD	00H
	DD	00H
	DD	01H
	DD	000000000r			; 0
	DD	000000000r			; 0
	DD	000000000r			; 0
	DD	000000000r			; 0
	DD	000000000r			; 0
	DD	000000000r			; 0
	DD	000000000r			; 0
	DD	045a10d97r			; 5153.7
	DD	00H
	DD	00H
	DD	00H
	DD	044H
	DD	01eH
	DD	07H
	DD	00H
	DD	00H
	DD	00H
	DD	00H
	DD	01H
	DD	000000000r			; 0
	DD	000000000r			; 0
	DD	000000000r			; 0
	DD	000000000r			; 0
	DD	000000000r			; 0
	DD	000000000r			; 0
	DD	000000000r			; 0
	DD	045a10d97r			; 5153.7
	DD	00H
	DD	00H
	DD	00H
	DD	07H
	DD	04b0H
	DD	06H
	DD	00H
	DD	00H
	DD	00H
	DD	01H
	DD	01H
	DD	03fc90fdbr			; 1.5708
	DD	0bff5be0br			; -1.91986
	DD	03ff5be0br			; 1.91986
	DD	03fc90fdbr			; 1.5708
	DD	0bf860a92r			; -1.0472
	DD	03e449809r			; 0.191986
	DD	000000000r			; 0
	DD	045a10d97r			; 5153.7
	DD	00H
	DD	00H
	DD	04H
	DD	024H
	DD	02H
	DD	04H
	DD	00H
	DD	00H
	DD	00H
	DD	00H
	DD	01H
	DD	000000000r			; 0
	DD	000000000r			; 0
	DD	000000000r			; 0
	DD	000000000r			; 0
	DD	000000000r			; 0
	DD	000000000r			; 0
	DD	000000000r			; 0
	DD	045a10d97r			; 5153.7
	DD	00H
	DD	00H
	DD	00H
	DD	024H
	DD	02H
	DD	05H
	DD	00H
	DD	00H
	DD	00H
	DD	00H
	DD	01H
	DD	000000000r			; 0
	DD	000000000r			; 0
	DD	000000000r			; 0
	DD	000000000r			; 0
	DD	000000000r			; 0
	DD	000000000r			; 0
	DD	000000000r			; 0
	DD	045a10d97r			; 5153.7
	DD	00H
	DD	00H
	DD	00H
	DD	02dH
	DD	04H
	DD	00H
	DD	00H
	DD	00H
	DD	00H
	DD	00H
	DD	01H
	DD	000000000r			; 0
	DD	000000000r			; 0
	DD	000000000r			; 0
	DD	000000000r			; 0
	DD	000000000r			; 0
	DD	000000000r			; 0
	DD	000000000r			; 0
	DD	045a10d97r			; 5153.7
	DD	00H
	DD	00H
	DD	00H
	DD	02dH
	DD	04H
	DD	01H
	DD	00H
	DD	00H
	DD	00H
	DD	00H
	DD	01H
	DD	000000000r			; 0
	DD	000000000r			; 0
	DD	000000000r			; 0
	DD	000000000r			; 0
	DD	000000000r			; 0
	DD	000000000r			; 0
	DD	000000000r			; 0
	DD	045a10d97r			; 5153.7
	DD	00H
	DD	00H
	DD	00H
	DD	02eH
	DD	04H
	DD	02H
	DD	00H
	DD	00H
	DD	00H
	DD	00H
	DD	01H
	DD	000000000r			; 0
	DD	000000000r			; 0
	DD	000000000r			; 0
	DD	000000000r			; 0
	DD	000000000r			; 0
	DD	000000000r			; 0
	DD	000000000r			; 0
	DD	045a10d97r			; 5153.7
	DD	00H
	DD	00H
	DD	00H
	DD	02eH
	DD	04H
	DD	03H
	DD	00H
	DD	00H
	DD	00H
	DD	00H
	DD	01H
	DD	000000000r			; 0
	DD	000000000r			; 0
	DD	000000000r			; 0
	DD	000000000r			; 0
	DD	000000000r			; 0
	DD	000000000r			; 0
	DD	000000000r			; 0
	DD	045a10d97r			; 5153.7
	DD	00H
	DD	00H
	DD	00H
	DD	00H
	ORG $+72
	DD	00H
	ORG $+72
	DD	00H
	ORG $+72
	DD	00H
	ORG $+72
	DD	00H
	ORG $+72
	DD	00H
	ORG $+72
	DD	00H
	ORG $+72
	DD	00H
	ORG $+72
	DD	00H
	ORG $+72
	DD	00H
	ORG $+72
	DD	00H
	ORG $+72
	DD	00H
	ORG $+72
	DD	00H
	ORG $+72
	DD	00H
	ORG $+72
	DD	00H
	ORG $+72
	DD	00H
	ORG $+72
	DD	00H
	ORG $+72
	DD	00H
	ORG $+72
	DD	00H
	ORG $+72
	DD	00H
	ORG $+72
	DD	00H
	ORG $+72
	DD	00H
	ORG $+72
	DD	00H
	ORG $+72
	DD	043H
	DD	01eH
	DD	07H
	DD	00H
	DD	00H
	DD	00H
	DD	00H
	DD	01H
	DD	000000000r			; 0
	DD	000000000r			; 0
	DD	000000000r			; 0
	DD	000000000r			; 0
	DD	000000000r			; 0
	DD	000000000r			; 0
	DD	000000000r			; 0
	DD	045a10d97r			; 5153.7
	DD	00H
	DD	00H
	DD	00H
	DD	044H
	DD	01eH
	DD	07H
	DD	00H
	DD	00H
	DD	00H
	DD	00H
	DD	01H
	DD	000000000r			; 0
	DD	000000000r			; 0
	DD	000000000r			; 0
	DD	000000000r			; 0
	DD	000000000r			; 0
	DD	000000000r			; 0
	DD	000000000r			; 0
	DD	045a10d97r			; 5153.7
	DD	00H
	DD	00H
	DD	00H
	DD	07H
	DD	04b0H
	DD	06H
	DD	00H
	DD	00H
	DD	00H
	DD	01H
	DD	01H
	DD	03fc90fdbr			; 1.5708
	DD	0bff5be0br			; -1.91986
	DD	03ff5be0br			; 1.91986
	DD	03fc90fdbr			; 1.5708
	DD	0bf860a92r			; -1.0472
	DD	03e449809r			; 0.191986
	DD	000000000r			; 0
	DD	045a10d97r			; 5153.7
	DD	00H
	DD	00H
	DD	04H
	DD	024H
	DD	02H
	DD	04H
	DD	00H
	DD	00H
	DD	00H
	DD	00H
	DD	01H
	DD	000000000r			; 0
	DD	000000000r			; 0
	DD	000000000r			; 0
	DD	000000000r			; 0
	DD	000000000r			; 0
	DD	000000000r			; 0
	DD	000000000r			; 0
	DD	045a10d97r			; 5153.7
	DD	00H
	DD	00H
	DD	00H
	DD	024H
	DD	02H
	DD	05H
	DD	00H
	DD	00H
	DD	00H
	DD	00H
	DD	01H
	DD	000000000r			; 0
	DD	000000000r			; 0
	DD	000000000r			; 0
	DD	000000000r			; 0
	DD	000000000r			; 0
	DD	000000000r			; 0
	DD	000000000r			; 0
	DD	045a10d97r			; 5153.7
	DD	00H
	DD	00H
	DD	00H
	DD	02eH
	DD	04H
	DD	00H
	DD	00H
	DD	00H
	DD	00H
	DD	00H
	DD	01H
	DD	000000000r			; 0
	DD	000000000r			; 0
	DD	000000000r			; 0
	DD	000000000r			; 0
	DD	000000000r			; 0
	DD	000000000r			; 0
	DD	000000000r			; 0
	DD	045a10d97r			; 5153.7
	DD	00H
	DD	00H
	DD	00H
	DD	02eH
	DD	04H
	DD	01H
	DD	00H
	DD	00H
	DD	00H
	DD	00H
	DD	01H
	DD	000000000r			; 0
	DD	000000000r			; 0
	DD	000000000r			; 0
	DD	000000000r			; 0
	DD	000000000r			; 0
	DD	000000000r			; 0
	DD	000000000r			; 0
	DD	045a10d97r			; 5153.7
	DD	00H
	DD	00H
	DD	00H
	DD	02eH
	DD	04H
	DD	02H
	DD	00H
	DD	00H
	DD	00H
	DD	00H
	DD	01H
	DD	000000000r			; 0
	DD	000000000r			; 0
	DD	000000000r			; 0
	DD	000000000r			; 0
	DD	000000000r			; 0
	DD	000000000r			; 0
	DD	000000000r			; 0
	DD	045a10d97r			; 5153.7
	DD	00H
	DD	00H
	DD	00H
	DD	02eH
	DD	04H
	DD	03H
	DD	00H
	DD	00H
	DD	00H
	DD	00H
	DD	01H
	DD	000000000r			; 0
	DD	000000000r			; 0
	DD	000000000r			; 0
	DD	000000000r			; 0
	DD	000000000r			; 0
	DD	000000000r			; 0
	DD	000000000r			; 0
	DD	045a10d97r			; 5153.7
	DD	00H
	DD	00H
	DD	00H
	DD	00H
	ORG $+72
	DD	00H
	ORG $+72
	DD	00H
	ORG $+72
	DD	00H
	ORG $+72
	DD	00H
	ORG $+72
	DD	00H
	ORG $+72
	DD	00H
	ORG $+72
	DD	00H
	ORG $+72
	DD	00H
	ORG $+72
	DD	00H
	ORG $+72
	DD	00H
	ORG $+72
	DD	00H
	ORG $+72
	DD	00H
	ORG $+72
	DD	00H
	ORG $+72
	DD	00H
	ORG $+72
	DD	00H
	ORG $+72
	DD	00H
	ORG $+72
	DD	00H
	ORG $+72
	DD	00H
	ORG $+72
	DD	00H
	ORG $+72
	DD	00H
	ORG $+72
	DD	00H
	ORG $+72
	DD	00H
	ORG $+72
	DD	043H
	DD	01eH
	DD	07H
	DD	00H
	DD	00H
	DD	00H
	DD	00H
	DD	01H
	DD	000000000r			; 0
	DD	000000000r			; 0
	DD	000000000r			; 0
	DD	000000000r			; 0
	DD	000000000r			; 0
	DD	000000000r			; 0
	DD	000000000r			; 0
	DD	045a10d97r			; 5153.7
	DD	00H
	DD	00H
	DD	00H
	DD	044H
	DD	01eH
	DD	07H
	DD	00H
	DD	00H
	DD	00H
	DD	00H
	DD	01H
	DD	000000000r			; 0
	DD	000000000r			; 0
	DD	000000000r			; 0
	DD	000000000r			; 0
	DD	000000000r			; 0
	DD	000000000r			; 0
	DD	000000000r			; 0
	DD	045a10d97r			; 5153.7
	DD	00H
	DD	00H
	DD	00H
	DD	07H
	DD	04b0H
	DD	06H
	DD	00H
	DD	00H
	DD	00H
	DD	01H
	DD	01H
	DD	03fc90fdbr			; 1.5708
	DD	0bff5be0br			; -1.91986
	DD	03ff5be0br			; 1.91986
	DD	03fc90fdbr			; 1.5708
	DD	0bf860a92r			; -1.0472
	DD	03e449809r			; 0.191986
	DD	000000000r			; 0
	DD	045a10d97r			; 5153.7
	DD	00H
	DD	00H
	DD	04H
	DD	024H
	DD	02H
	DD	04H
	DD	00H
	DD	00H
	DD	00H
	DD	00H
	DD	01H
	DD	000000000r			; 0
	DD	000000000r			; 0
	DD	000000000r			; 0
	DD	000000000r			; 0
	DD	000000000r			; 0
	DD	000000000r			; 0
	DD	000000000r			; 0
	DD	045a10d97r			; 5153.7
	DD	00H
	DD	00H
	DD	00H
	DD	024H
	DD	02H
	DD	05H
	DD	00H
	DD	00H
	DD	00H
	DD	00H
	DD	01H
	DD	000000000r			; 0
	DD	000000000r			; 0
	DD	000000000r			; 0
	DD	000000000r			; 0
	DD	000000000r			; 0
	DD	000000000r			; 0
	DD	000000000r			; 0
	DD	045a10d97r			; 5153.7
	DD	00H
	DD	00H
	DD	00H
	DD	01eH
	DD	013H
	DD	00H
	DD	01H
	DD	00H
	DD	00H
	DD	01H
	DD	02H
	DD	000000000r			; 0
	DD	000000000r			; 0
	DD	000000000r			; 0
	DD	03eb2b8c2r			; 0.349066
	DD	0be860a92r			; -0.261799
	DD	03daf25b4r			; 0.0855211
	DD	000000000r			; 0
	DD	0424e25e0r			; 51.537
	DD	00H
	DD	00H
	DD	00H
	DD	01eH
	DD	013H
	DD	01H
	DD	01H
	DD	00H
	DD	00H
	DD	01H
	DD	02H
	DD	000000000r			; 0
	DD	000000000r			; 0
	DD	000000000r			; 0
	DD	03eb2b8c2r			; 0.349066
	DD	0be860a92r			; -0.261799
	DD	03daf25b4r			; 0.0855211
	DD	000000000r			; 0
	DD	0424e25e0r			; 51.537
	DD	00H
	DD	00H
	DD	00H
	DD	02eH
	DD	04H
	DD	02H
	DD	00H
	DD	00H
	DD	00H
	DD	00H
	DD	01H
	DD	000000000r			; 0
	DD	000000000r			; 0
	DD	000000000r			; 0
	DD	000000000r			; 0
	DD	000000000r			; 0
	DD	000000000r			; 0
	DD	000000000r			; 0
	DD	045a10d97r			; 5153.7
	DD	00H
	DD	00H
	DD	00H
	DD	02eH
	DD	04H
	DD	03H
	DD	00H
	DD	00H
	DD	00H
	DD	00H
	DD	01H
	DD	000000000r			; 0
	DD	000000000r			; 0
	DD	000000000r			; 0
	DD	000000000r			; 0
	DD	000000000r			; 0
	DD	000000000r			; 0
	DD	000000000r			; 0
	DD	045a10d97r			; 5153.7
	DD	00H
	DD	00H
	DD	00H
	DD	00H
	ORG $+72
	DD	00H
	ORG $+72
	DD	00H
	ORG $+72
	DD	00H
	ORG $+72
	DD	00H
	ORG $+72
	DD	00H
	ORG $+72
	DD	00H
	ORG $+72
	DD	00H
	ORG $+72
	DD	00H
	ORG $+72
	DD	00H
	ORG $+72
	DD	00H
	ORG $+72
	DD	00H
	ORG $+72
	DD	00H
	ORG $+72
	DD	00H
	ORG $+72
	DD	00H
	ORG $+72
	DD	00H
	ORG $+72
	DD	00H
	ORG $+72
	DD	00H
	ORG $+72
	DD	00H
	ORG $+72
	DD	00H
	ORG $+72
	DD	00H
	ORG $+72
	DD	00H
	ORG $+72
	DD	00H
	ORG $+72
	DD	043H
	DD	01eH
	DD	07H
	DD	00H
	DD	00H
	DD	00H
	DD	00H
	DD	01H
	DD	000000000r			; 0
	DD	000000000r			; 0
	DD	000000000r			; 0
	DD	000000000r			; 0
	DD	000000000r			; 0
	DD	000000000r			; 0
	DD	000000000r			; 0
	DD	045a10d97r			; 5153.7
	DD	00H
	DD	00H
	DD	00H
	DD	044H
	DD	01eH
	DD	07H
	DD	00H
	DD	00H
	DD	00H
	DD	00H
	DD	01H
	DD	000000000r			; 0
	DD	000000000r			; 0
	DD	000000000r			; 0
	DD	000000000r			; 0
	DD	000000000r			; 0
	DD	000000000r			; 0
	DD	000000000r			; 0
	DD	045a10d97r			; 5153.7
	DD	00H
	DD	00H
	DD	00H
	DD	07H
	DD	04b0H
	DD	06H
	DD	00H
	DD	00H
	DD	00H
	DD	01H
	DD	01H
	DD	03fc90fdbr			; 1.5708
	DD	0bff5be0br			; -1.91986
	DD	03ff5be0br			; 1.91986
	DD	03fc90fdbr			; 1.5708
	DD	0bf860a92r			; -1.0472
	DD	03e449809r			; 0.191986
	DD	000000000r			; 0
	DD	045a10d97r			; 5153.7
	DD	00H
	DD	00H
	DD	04H
	DD	024H
	DD	02H
	DD	04H
	DD	00H
	DD	00H
	DD	00H
	DD	00H
	DD	01H
	DD	000000000r			; 0
	DD	000000000r			; 0
	DD	000000000r			; 0
	DD	000000000r			; 0
	DD	000000000r			; 0
	DD	000000000r			; 0
	DD	000000000r			; 0
	DD	045a10d97r			; 5153.7
	DD	00H
	DD	00H
	DD	00H
	DD	024H
	DD	02H
	DD	05H
	DD	00H
	DD	00H
	DD	00H
	DD	00H
	DD	01H
	DD	000000000r			; 0
	DD	000000000r			; 0
	DD	000000000r			; 0
	DD	000000000r			; 0
	DD	000000000r			; 0
	DD	000000000r			; 0
	DD	000000000r			; 0
	DD	045a10d97r			; 5153.7
	DD	00H
	DD	00H
	DD	00H
	DD	01fH
	DD	013H
	DD	00H
	DD	01H
	DD	00H
	DD	00H
	DD	01H
	DD	02H
	DD	000000000r			; 0
	DD	000000000r			; 0
	DD	000000000r			; 0
	DD	03eb2b8c2r			; 0.349066
	DD	0be860a92r			; -0.261799
	DD	03daf25b4r			; 0.0855211
	DD	000000000r			; 0
	DD	0424e25e0r			; 51.537
	DD	00H
	DD	00H
	DD	00H
	DD	01fH
	DD	013H
	DD	01H
	DD	01H
	DD	00H
	DD	00H
	DD	01H
	DD	02H
	DD	000000000r			; 0
	DD	000000000r			; 0
	DD	000000000r			; 0
	DD	03eb2b8c2r			; 0.349066
	DD	0be860a92r			; -0.261799
	DD	03daf25b4r			; 0.0855211
	DD	000000000r			; 0
	DD	0424e25e0r			; 51.537
	DD	00H
	DD	00H
	DD	00H
	DD	02eH
	DD	04H
	DD	02H
	DD	00H
	DD	00H
	DD	00H
	DD	00H
	DD	01H
	DD	000000000r			; 0
	DD	000000000r			; 0
	DD	000000000r			; 0
	DD	000000000r			; 0
	DD	000000000r			; 0
	DD	000000000r			; 0
	DD	000000000r			; 0
	DD	045a10d97r			; 5153.7
	DD	00H
	DD	00H
	DD	00H
	DD	02eH
	DD	04H
	DD	03H
	DD	00H
	DD	00H
	DD	00H
	DD	00H
	DD	01H
	DD	000000000r			; 0
	DD	000000000r			; 0
	DD	000000000r			; 0
	DD	000000000r			; 0
	DD	000000000r			; 0
	DD	000000000r			; 0
	DD	000000000r			; 0
	DD	045a10d97r			; 5153.7
	DD	00H
	DD	00H
	DD	00H
	DD	00H
	ORG $+72
	DD	00H
	ORG $+72
	DD	00H
	ORG $+72
	DD	00H
	ORG $+72
	DD	00H
	ORG $+72
	DD	00H
	ORG $+72
	DD	00H
	ORG $+72
	DD	00H
	ORG $+72
	DD	00H
	ORG $+72
	DD	00H
	ORG $+72
	DD	00H
	ORG $+72
	DD	00H
	ORG $+72
	DD	00H
	ORG $+72
	DD	00H
	ORG $+72
	DD	00H
	ORG $+72
	DD	00H
	ORG $+72
	DD	00H
	ORG $+72
	DD	00H
	ORG $+72
	DD	00H
	ORG $+72
	DD	00H
	ORG $+72
	DD	00H
	ORG $+72
	DD	00H
	ORG $+72
	DD	00H
	ORG $+72
	DD	043H
	DD	01eH
	DD	07H
	DD	00H
	DD	00H
	DD	00H
	DD	00H
	DD	01H
	DD	000000000r			; 0
	DD	000000000r			; 0
	DD	000000000r			; 0
	DD	000000000r			; 0
	DD	000000000r			; 0
	DD	000000000r			; 0
	DD	000000000r			; 0
	DD	045a10d97r			; 5153.7
	DD	00H
	DD	00H
	DD	00H
	DD	044H
	DD	01eH
	DD	07H
	DD	00H
	DD	00H
	DD	00H
	DD	00H
	DD	01H
	DD	000000000r			; 0
	DD	000000000r			; 0
	DD	000000000r			; 0
	DD	000000000r			; 0
	DD	000000000r			; 0
	DD	000000000r			; 0
	DD	000000000r			; 0
	DD	045a10d97r			; 5153.7
	DD	00H
	DD	00H
	DD	00H
	DD	07H
	DD	04b0H
	DD	06H
	DD	00H
	DD	00H
	DD	00H
	DD	01H
	DD	01H
	DD	03fc90fdbr			; 1.5708
	DD	0bff5be0br			; -1.91986
	DD	03ff5be0br			; 1.91986
	DD	03fc90fdbr			; 1.5708
	DD	0bf860a92r			; -1.0472
	DD	03e449809r			; 0.191986
	DD	000000000r			; 0
	DD	045a10d97r			; 5153.7
	DD	00H
	DD	00H
	DD	04H
	DD	024H
	DD	02H
	DD	04H
	DD	00H
	DD	00H
	DD	00H
	DD	00H
	DD	01H
	DD	000000000r			; 0
	DD	000000000r			; 0
	DD	000000000r			; 0
	DD	000000000r			; 0
	DD	000000000r			; 0
	DD	000000000r			; 0
	DD	000000000r			; 0
	DD	045a10d97r			; 5153.7
	DD	00H
	DD	00H
	DD	00H
	DD	024H
	DD	02H
	DD	05H
	DD	00H
	DD	00H
	DD	00H
	DD	00H
	DD	01H
	DD	000000000r			; 0
	DD	000000000r			; 0
	DD	000000000r			; 0
	DD	000000000r			; 0
	DD	000000000r			; 0
	DD	000000000r			; 0
	DD	000000000r			; 0
	DD	045a10d97r			; 5153.7
	DD	00H
	DD	00H
	DD	00H
	DD	01eH
	DD	013H
	DD	02H
	DD	01H
	DD	00H
	DD	00H
	DD	01H
	DD	02H
	DD	000000000r			; 0
	DD	000000000r			; 0
	DD	000000000r			; 0
	DD	03eb2b8c2r			; 0.349066
	DD	0be860a92r			; -0.261799
	DD	03daf25b4r			; 0.0855211
	DD	000000000r			; 0
	DD	0424e25e0r			; 51.537
	DD	00H
	DD	00H
	DD	00H
	DD	01eH
	DD	013H
	DD	03H
	DD	01H
	DD	00H
	DD	00H
	DD	01H
	DD	02H
	DD	000000000r			; 0
	DD	000000000r			; 0
	DD	000000000r			; 0
	DD	03eb2b8c2r			; 0.349066
	DD	0be860a92r			; -0.261799
	DD	03daf25b4r			; 0.0855211
	DD	000000000r			; 0
	DD	0424e25e0r			; 51.537
	DD	00H
	DD	00H
	DD	00H
	DD	00H
	ORG $+72
	DD	00H
	ORG $+72
	DD	00H
	ORG $+72
	DD	00H
	ORG $+72
	DD	00H
	ORG $+72
	DD	00H
	ORG $+72
	DD	00H
	ORG $+72
	DD	00H
	ORG $+72
	DD	00H
	ORG $+72
	DD	00H
	ORG $+72
	DD	00H
	ORG $+72
	DD	00H
	ORG $+72
	DD	00H
	ORG $+72
	DD	00H
	ORG $+72
	DD	00H
	ORG $+72
	DD	00H
	ORG $+72
	DD	00H
	ORG $+72
	DD	00H
	ORG $+72
	DD	00H
	ORG $+72
	DD	00H
	ORG $+72
	DD	00H
	ORG $+72
	DD	00H
	ORG $+72
	DD	00H
	ORG $+72
	DD	00H
	ORG $+72
	DD	00H
	ORG $+72
	DD	043H
	DD	01eH
	DD	07H
	DD	00H
	DD	00H
	DD	00H
	DD	00H
	DD	01H
	DD	000000000r			; 0
	DD	000000000r			; 0
	DD	000000000r			; 0
	DD	000000000r			; 0
	DD	000000000r			; 0
	DD	000000000r			; 0
	DD	000000000r			; 0
	DD	045a10d97r			; 5153.7
	DD	00H
	DD	00H
	DD	00H
	DD	044H
	DD	01eH
	DD	07H
	DD	00H
	DD	00H
	DD	00H
	DD	00H
	DD	01H
	DD	000000000r			; 0
	DD	000000000r			; 0
	DD	000000000r			; 0
	DD	000000000r			; 0
	DD	000000000r			; 0
	DD	000000000r			; 0
	DD	000000000r			; 0
	DD	045a10d97r			; 5153.7
	DD	00H
	DD	00H
	DD	00H
	DD	07H
	DD	04b0H
	DD	06H
	DD	00H
	DD	00H
	DD	00H
	DD	01H
	DD	01H
	DD	03fc90fdbr			; 1.5708
	DD	0bff5be0br			; -1.91986
	DD	03ff5be0br			; 1.91986
	DD	03fc90fdbr			; 1.5708
	DD	0bf860a92r			; -1.0472
	DD	03e449809r			; 0.191986
	DD	000000000r			; 0
	DD	045a10d97r			; 5153.7
	DD	00H
	DD	00H
	DD	04H
	DD	024H
	DD	02H
	DD	04H
	DD	00H
	DD	00H
	DD	00H
	DD	00H
	DD	01H
	DD	000000000r			; 0
	DD	000000000r			; 0
	DD	000000000r			; 0
	DD	000000000r			; 0
	DD	000000000r			; 0
	DD	000000000r			; 0
	DD	000000000r			; 0
	DD	045a10d97r			; 5153.7
	DD	00H
	DD	00H
	DD	00H
	DD	024H
	DD	02H
	DD	05H
	DD	00H
	DD	00H
	DD	00H
	DD	00H
	DD	01H
	DD	000000000r			; 0
	DD	000000000r			; 0
	DD	000000000r			; 0
	DD	000000000r			; 0
	DD	000000000r			; 0
	DD	000000000r			; 0
	DD	000000000r			; 0
	DD	045a10d97r			; 5153.7
	DD	00H
	DD	00H
	DD	00H
	DD	02dH
	DD	04H
	DD	00H
	DD	00H
	DD	00H
	DD	00H
	DD	00H
	DD	01H
	DD	000000000r			; 0
	DD	000000000r			; 0
	DD	000000000r			; 0
	DD	000000000r			; 0
	DD	000000000r			; 0
	DD	000000000r			; 0
	DD	000000000r			; 0
	DD	045a10d97r			; 5153.7
	DD	00H
	DD	00H
	DD	00H
	DD	02dH
	DD	04H
	DD	01H
	DD	00H
	DD	00H
	DD	00H
	DD	00H
	DD	01H
	DD	000000000r			; 0
	DD	000000000r			; 0
	DD	000000000r			; 0
	DD	000000000r			; 0
	DD	000000000r			; 0
	DD	000000000r			; 0
	DD	000000000r			; 0
	DD	045a10d97r			; 5153.7
	DD	00H
	DD	00H
	DD	00H
	DD	01eH
	DD	013H
	DD	02H
	DD	01H
	DD	00H
	DD	00H
	DD	01H
	DD	02H
	DD	000000000r			; 0
	DD	000000000r			; 0
	DD	000000000r			; 0
	DD	03eb2b8c2r			; 0.349066
	DD	0be860a92r			; -0.261799
	DD	03daf25b4r			; 0.0855211
	DD	000000000r			; 0
	DD	0424e25e0r			; 51.537
	DD	00H
	DD	00H
	DD	00H
	DD	01eH
	DD	013H
	DD	03H
	DD	01H
	DD	00H
	DD	00H
	DD	01H
	DD	02H
	DD	000000000r			; 0
	DD	000000000r			; 0
	DD	000000000r			; 0
	DD	03eb2b8c2r			; 0.349066
	DD	0be860a92r			; -0.261799
	DD	03daf25b4r			; 0.0855211
	DD	000000000r			; 0
	DD	0424e25e0r			; 51.537
	DD	00H
	DD	00H
	DD	00H
	DD	00H
	ORG $+72
	DD	00H
	ORG $+72
	DD	00H
	ORG $+72
	DD	00H
	ORG $+72
	DD	00H
	ORG $+72
	DD	00H
	ORG $+72
	DD	00H
	ORG $+72
	DD	00H
	ORG $+72
	DD	00H
	ORG $+72
	DD	00H
	ORG $+72
	DD	00H
	ORG $+72
	DD	00H
	ORG $+72
	DD	00H
	ORG $+72
	DD	00H
	ORG $+72
	DD	00H
	ORG $+72
	DD	00H
	ORG $+72
	DD	00H
	ORG $+72
	DD	00H
	ORG $+72
	DD	00H
	ORG $+72
	DD	00H
	ORG $+72
	DD	00H
	ORG $+72
	DD	00H
	ORG $+72
	DD	00H
	ORG $+72
	DD	043H
	DD	01eH
	DD	07H
	DD	00H
	DD	00H
	DD	00H
	DD	00H
	DD	01H
	DD	000000000r			; 0
	DD	000000000r			; 0
	DD	000000000r			; 0
	DD	000000000r			; 0
	DD	000000000r			; 0
	DD	000000000r			; 0
	DD	000000000r			; 0
	DD	045a10d97r			; 5153.7
	DD	00H
	DD	00H
	DD	00H
	DD	044H
	DD	01eH
	DD	07H
	DD	00H
	DD	00H
	DD	00H
	DD	00H
	DD	01H
	DD	000000000r			; 0
	DD	000000000r			; 0
	DD	000000000r			; 0
	DD	000000000r			; 0
	DD	000000000r			; 0
	DD	000000000r			; 0
	DD	000000000r			; 0
	DD	045a10d97r			; 5153.7
	DD	00H
	DD	00H
	DD	00H
	DD	07H
	DD	04b0H
	DD	06H
	DD	00H
	DD	00H
	DD	00H
	DD	01H
	DD	01H
	DD	03fc90fdbr			; 1.5708
	DD	0bff5be0br			; -1.91986
	DD	03ff5be0br			; 1.91986
	DD	03fc90fdbr			; 1.5708
	DD	0bf860a92r			; -1.0472
	DD	03e449809r			; 0.191986
	DD	000000000r			; 0
	DD	045a10d97r			; 5153.7
	DD	00H
	DD	00H
	DD	04H
	DD	024H
	DD	02H
	DD	04H
	DD	00H
	DD	00H
	DD	00H
	DD	00H
	DD	01H
	DD	000000000r			; 0
	DD	000000000r			; 0
	DD	000000000r			; 0
	DD	000000000r			; 0
	DD	000000000r			; 0
	DD	000000000r			; 0
	DD	000000000r			; 0
	DD	045a10d97r			; 5153.7
	DD	00H
	DD	00H
	DD	00H
	DD	024H
	DD	02H
	DD	05H
	DD	00H
	DD	00H
	DD	00H
	DD	00H
	DD	01H
	DD	000000000r			; 0
	DD	000000000r			; 0
	DD	000000000r			; 0
	DD	000000000r			; 0
	DD	000000000r			; 0
	DD	000000000r			; 0
	DD	000000000r			; 0
	DD	045a10d97r			; 5153.7
	DD	00H
	DD	00H
	DD	00H
	DD	02eH
	DD	04H
	DD	00H
	DD	00H
	DD	00H
	DD	00H
	DD	00H
	DD	01H
	DD	000000000r			; 0
	DD	000000000r			; 0
	DD	000000000r			; 0
	DD	000000000r			; 0
	DD	000000000r			; 0
	DD	000000000r			; 0
	DD	000000000r			; 0
	DD	045a10d97r			; 5153.7
	DD	00H
	DD	00H
	DD	00H
	DD	02eH
	DD	04H
	DD	01H
	DD	00H
	DD	00H
	DD	00H
	DD	00H
	DD	01H
	DD	000000000r			; 0
	DD	000000000r			; 0
	DD	000000000r			; 0
	DD	000000000r			; 0
	DD	000000000r			; 0
	DD	000000000r			; 0
	DD	000000000r			; 0
	DD	045a10d97r			; 5153.7
	DD	00H
	DD	00H
	DD	00H
	DD	01eH
	DD	013H
	DD	02H
	DD	01H
	DD	00H
	DD	00H
	DD	01H
	DD	02H
	DD	000000000r			; 0
	DD	000000000r			; 0
	DD	000000000r			; 0
	DD	03eb2b8c2r			; 0.349066
	DD	0be860a92r			; -0.261799
	DD	03daf25b4r			; 0.0855211
	DD	000000000r			; 0
	DD	0424e25e0r			; 51.537
	DD	00H
	DD	00H
	DD	00H
	DD	01eH
	DD	013H
	DD	03H
	DD	01H
	DD	00H
	DD	00H
	DD	01H
	DD	02H
	DD	000000000r			; 0
	DD	000000000r			; 0
	DD	000000000r			; 0
	DD	03eb2b8c2r			; 0.349066
	DD	0be860a92r			; -0.261799
	DD	03daf25b4r			; 0.0855211
	DD	000000000r			; 0
	DD	0424e25e0r			; 51.537
	DD	00H
	DD	00H
	DD	00H
	DD	00H
	ORG $+72
	DD	00H
	ORG $+72
	DD	00H
	ORG $+72
	DD	00H
	ORG $+72
	DD	00H
	ORG $+72
	DD	00H
	ORG $+72
	DD	00H
	ORG $+72
	DD	00H
	ORG $+72
	DD	00H
	ORG $+72
	DD	00H
	ORG $+72
	DD	00H
	ORG $+72
	DD	00H
	ORG $+72
	DD	00H
	ORG $+72
	DD	00H
	ORG $+72
	DD	00H
	ORG $+72
	DD	00H
	ORG $+72
	DD	00H
	ORG $+72
	DD	00H
	ORG $+72
	DD	00H
	ORG $+72
	DD	00H
	ORG $+72
	DD	00H
	ORG $+72
	DD	00H
	ORG $+72
	DD	00H
	ORG $+72
	DD	043H
	DD	01eH
	DD	07H
	DD	00H
	DD	00H
	DD	00H
	DD	00H
	DD	01H
	DD	000000000r			; 0
	DD	000000000r			; 0
	DD	000000000r			; 0
	DD	000000000r			; 0
	DD	000000000r			; 0
	DD	000000000r			; 0
	DD	000000000r			; 0
	DD	045a10d97r			; 5153.7
	DD	00H
	DD	00H
	DD	00H
	DD	044H
	DD	01eH
	DD	07H
	DD	00H
	DD	00H
	DD	00H
	DD	00H
	DD	01H
	DD	000000000r			; 0
	DD	000000000r			; 0
	DD	000000000r			; 0
	DD	000000000r			; 0
	DD	000000000r			; 0
	DD	000000000r			; 0
	DD	000000000r			; 0
	DD	045a10d97r			; 5153.7
	DD	00H
	DD	00H
	DD	00H
	DD	07H
	DD	04b0H
	DD	06H
	DD	00H
	DD	00H
	DD	00H
	DD	01H
	DD	01H
	DD	03fc90fdbr			; 1.5708
	DD	0bff5be0br			; -1.91986
	DD	03ff5be0br			; 1.91986
	DD	03fc90fdbr			; 1.5708
	DD	0bf860a92r			; -1.0472
	DD	03e449809r			; 0.191986
	DD	000000000r			; 0
	DD	045a10d97r			; 5153.7
	DD	00H
	DD	00H
	DD	04H
	DD	024H
	DD	02H
	DD	04H
	DD	00H
	DD	00H
	DD	00H
	DD	00H
	DD	01H
	DD	000000000r			; 0
	DD	000000000r			; 0
	DD	000000000r			; 0
	DD	000000000r			; 0
	DD	000000000r			; 0
	DD	000000000r			; 0
	DD	000000000r			; 0
	DD	045a10d97r			; 5153.7
	DD	00H
	DD	00H
	DD	00H
	DD	024H
	DD	02H
	DD	05H
	DD	00H
	DD	00H
	DD	00H
	DD	00H
	DD	01H
	DD	000000000r			; 0
	DD	000000000r			; 0
	DD	000000000r			; 0
	DD	000000000r			; 0
	DD	000000000r			; 0
	DD	000000000r			; 0
	DD	000000000r			; 0
	DD	045a10d97r			; 5153.7
	DD	00H
	DD	00H
	DD	00H
	DD	01eH
	DD	013H
	DD	00H
	DD	01H
	DD	00H
	DD	00H
	DD	01H
	DD	02H
	DD	000000000r			; 0
	DD	000000000r			; 0
	DD	000000000r			; 0
	DD	03eb2b8c2r			; 0.349066
	DD	0be860a92r			; -0.261799
	DD	03daf25b4r			; 0.0855211
	DD	000000000r			; 0
	DD	0424e25e0r			; 51.537
	DD	00H
	DD	00H
	DD	00H
	DD	01eH
	DD	013H
	DD	01H
	DD	01H
	DD	00H
	DD	00H
	DD	01H
	DD	02H
	DD	000000000r			; 0
	DD	000000000r			; 0
	DD	000000000r			; 0
	DD	03eb2b8c2r			; 0.349066
	DD	0be860a92r			; -0.261799
	DD	03daf25b4r			; 0.0855211
	DD	000000000r			; 0
	DD	0424e25e0r			; 51.537
	DD	00H
	DD	00H
	DD	00H
	DD	01eH
	DD	013H
	DD	02H
	DD	01H
	DD	00H
	DD	00H
	DD	01H
	DD	02H
	DD	000000000r			; 0
	DD	000000000r			; 0
	DD	000000000r			; 0
	DD	03eb2b8c2r			; 0.349066
	DD	0be860a92r			; -0.261799
	DD	03daf25b4r			; 0.0855211
	DD	000000000r			; 0
	DD	0424e25e0r			; 51.537
	DD	00H
	DD	00H
	DD	00H
	DD	01eH
	DD	013H
	DD	03H
	DD	01H
	DD	00H
	DD	00H
	DD	01H
	DD	02H
	DD	000000000r			; 0
	DD	000000000r			; 0
	DD	000000000r			; 0
	DD	03eb2b8c2r			; 0.349066
	DD	0be860a92r			; -0.261799
	DD	03daf25b4r			; 0.0855211
	DD	000000000r			; 0
	DD	0424e25e0r			; 51.537
	DD	00H
	DD	00H
	DD	00H
	DD	00H
	ORG $+72
	DD	00H
	ORG $+72
	DD	00H
	ORG $+72
	DD	00H
	ORG $+72
	DD	00H
	ORG $+72
	DD	00H
	ORG $+72
	DD	00H
	ORG $+72
	DD	00H
	ORG $+72
	DD	00H
	ORG $+72
	DD	00H
	ORG $+72
	DD	00H
	ORG $+72
	DD	00H
	ORG $+72
	DD	00H
	ORG $+72
	DD	00H
	ORG $+72
	DD	00H
	ORG $+72
	DD	00H
	ORG $+72
	DD	00H
	ORG $+72
	DD	00H
	ORG $+72
	DD	00H
	ORG $+72
	DD	00H
	ORG $+72
	DD	00H
	ORG $+72
	DD	00H
	ORG $+72
	DD	00H
	ORG $+72
	DD	043H
	DD	01eH
	DD	07H
	DD	00H
	DD	00H
	DD	00H
	DD	00H
	DD	01H
	DD	000000000r			; 0
	DD	000000000r			; 0
	DD	000000000r			; 0
	DD	000000000r			; 0
	DD	000000000r			; 0
	DD	000000000r			; 0
	DD	000000000r			; 0
	DD	045a10d97r			; 5153.7
	DD	00H
	DD	00H
	DD	00H
	DD	044H
	DD	01eH
	DD	07H
	DD	00H
	DD	00H
	DD	00H
	DD	00H
	DD	01H
	DD	000000000r			; 0
	DD	000000000r			; 0
	DD	000000000r			; 0
	DD	000000000r			; 0
	DD	000000000r			; 0
	DD	000000000r			; 0
	DD	000000000r			; 0
	DD	045a10d97r			; 5153.7
	DD	00H
	DD	00H
	DD	00H
	DD	07H
	DD	04b0H
	DD	06H
	DD	00H
	DD	00H
	DD	00H
	DD	01H
	DD	01H
	DD	03fc90fdbr			; 1.5708
	DD	0bff5be0br			; -1.91986
	DD	03ff5be0br			; 1.91986
	DD	03fc90fdbr			; 1.5708
	DD	0bf860a92r			; -1.0472
	DD	03e449809r			; 0.191986
	DD	000000000r			; 0
	DD	045a10d97r			; 5153.7
	DD	00H
	DD	00H
	DD	04H
	DD	024H
	DD	02H
	DD	04H
	DD	00H
	DD	00H
	DD	00H
	DD	00H
	DD	01H
	DD	000000000r			; 0
	DD	000000000r			; 0
	DD	000000000r			; 0
	DD	000000000r			; 0
	DD	000000000r			; 0
	DD	000000000r			; 0
	DD	000000000r			; 0
	DD	045a10d97r			; 5153.7
	DD	00H
	DD	00H
	DD	00H
	DD	024H
	DD	02H
	DD	05H
	DD	00H
	DD	00H
	DD	00H
	DD	00H
	DD	01H
	DD	000000000r			; 0
	DD	000000000r			; 0
	DD	000000000r			; 0
	DD	000000000r			; 0
	DD	000000000r			; 0
	DD	000000000r			; 0
	DD	000000000r			; 0
	DD	045a10d97r			; 5153.7
	DD	00H
	DD	00H
	DD	00H
	DD	01fH
	DD	013H
	DD	00H
	DD	01H
	DD	00H
	DD	00H
	DD	01H
	DD	02H
	DD	000000000r			; 0
	DD	000000000r			; 0
	DD	000000000r			; 0
	DD	03eb2b8c2r			; 0.349066
	DD	0be860a92r			; -0.261799
	DD	03daf25b4r			; 0.0855211
	DD	000000000r			; 0
	DD	0424e25e0r			; 51.537
	DD	00H
	DD	00H
	DD	00H
	DD	01fH
	DD	013H
	DD	01H
	DD	01H
	DD	00H
	DD	00H
	DD	01H
	DD	02H
	DD	000000000r			; 0
	DD	000000000r			; 0
	DD	000000000r			; 0
	DD	03eb2b8c2r			; 0.349066
	DD	0be860a92r			; -0.261799
	DD	03daf25b4r			; 0.0855211
	DD	000000000r			; 0
	DD	0424e25e0r			; 51.537
	DD	00H
	DD	00H
	DD	00H
	DD	01eH
	DD	013H
	DD	02H
	DD	01H
	DD	00H
	DD	00H
	DD	01H
	DD	02H
	DD	000000000r			; 0
	DD	000000000r			; 0
	DD	000000000r			; 0
	DD	03eb2b8c2r			; 0.349066
	DD	0be860a92r			; -0.261799
	DD	03daf25b4r			; 0.0855211
	DD	000000000r			; 0
	DD	0424e25e0r			; 51.537
	DD	00H
	DD	00H
	DD	00H
	DD	01eH
	DD	013H
	DD	03H
	DD	01H
	DD	00H
	DD	00H
	DD	01H
	DD	02H
	DD	000000000r			; 0
	DD	000000000r			; 0
	DD	000000000r			; 0
	DD	03eb2b8c2r			; 0.349066
	DD	0be860a92r			; -0.261799
	DD	03daf25b4r			; 0.0855211
	DD	000000000r			; 0
	DD	0424e25e0r			; 51.537
	DD	00H
	DD	00H
	DD	00H
	DD	00H
	ORG $+72
	DD	00H
	ORG $+72
	DD	00H
	ORG $+72
	DD	00H
	ORG $+72
	DD	00H
	ORG $+72
	DD	00H
	ORG $+72
	DD	00H
	ORG $+72
	DD	00H
	ORG $+72
	DD	00H
	ORG $+72
	DD	00H
	ORG $+72
	DD	00H
	ORG $+72
	DD	00H
	ORG $+72
	DD	00H
	ORG $+72
	DD	00H
	ORG $+72
	DD	00H
	ORG $+72
	DD	00H
	ORG $+72
	DD	00H
	ORG $+72
	DD	00H
	ORG $+72
	DD	00H
	ORG $+72
	DD	00H
	ORG $+72
	DD	00H
	ORG $+72
	DD	00H
	ORG $+72
	DD	00H
	ORG $+72
	DD	043H
	DD	01eH
	DD	07H
	DD	00H
	DD	00H
	DD	00H
	DD	00H
	DD	01H
	DD	000000000r			; 0
	DD	000000000r			; 0
	DD	000000000r			; 0
	DD	000000000r			; 0
	DD	000000000r			; 0
	DD	000000000r			; 0
	DD	000000000r			; 0
	DD	045a10d97r			; 5153.7
	DD	00H
	DD	00H
	DD	00H
	DD	044H
	DD	01eH
	DD	07H
	DD	00H
	DD	00H
	DD	00H
	DD	00H
	DD	01H
	DD	000000000r			; 0
	DD	000000000r			; 0
	DD	000000000r			; 0
	DD	000000000r			; 0
	DD	000000000r			; 0
	DD	000000000r			; 0
	DD	000000000r			; 0
	DD	045a10d97r			; 5153.7
	DD	00H
	DD	00H
	DD	00H
	DD	07H
	DD	04b0H
	DD	06H
	DD	00H
	DD	00H
	DD	00H
	DD	01H
	DD	01H
	DD	03fc90fdbr			; 1.5708
	DD	0bff5be0br			; -1.91986
	DD	03ff5be0br			; 1.91986
	DD	03fc90fdbr			; 1.5708
	DD	0bf860a92r			; -1.0472
	DD	03e449809r			; 0.191986
	DD	000000000r			; 0
	DD	045a10d97r			; 5153.7
	DD	00H
	DD	00H
	DD	04H
	DD	024H
	DD	02H
	DD	04H
	DD	00H
	DD	00H
	DD	00H
	DD	00H
	DD	01H
	DD	000000000r			; 0
	DD	000000000r			; 0
	DD	000000000r			; 0
	DD	000000000r			; 0
	DD	000000000r			; 0
	DD	000000000r			; 0
	DD	000000000r			; 0
	DD	045a10d97r			; 5153.7
	DD	00H
	DD	00H
	DD	00H
	DD	024H
	DD	02H
	DD	05H
	DD	00H
	DD	00H
	DD	00H
	DD	00H
	DD	01H
	DD	000000000r			; 0
	DD	000000000r			; 0
	DD	000000000r			; 0
	DD	000000000r			; 0
	DD	000000000r			; 0
	DD	000000000r			; 0
	DD	000000000r			; 0
	DD	045a10d97r			; 5153.7
	DD	00H
	DD	00H
	DD	00H
	DD	01fH
	DD	013H
	DD	02H
	DD	01H
	DD	00H
	DD	00H
	DD	01H
	DD	02H
	DD	000000000r			; 0
	DD	000000000r			; 0
	DD	000000000r			; 0
	DD	03eb2b8c2r			; 0.349066
	DD	0be860a92r			; -0.261799
	DD	03daf25b4r			; 0.0855211
	DD	000000000r			; 0
	DD	0424e25e0r			; 51.537
	DD	00H
	DD	00H
	DD	00H
	DD	01fH
	DD	013H
	DD	03H
	DD	01H
	DD	00H
	DD	00H
	DD	01H
	DD	02H
	DD	000000000r			; 0
	DD	000000000r			; 0
	DD	000000000r			; 0
	DD	03eb2b8c2r			; 0.349066
	DD	0be860a92r			; -0.261799
	DD	03daf25b4r			; 0.0855211
	DD	000000000r			; 0
	DD	0424e25e0r			; 51.537
	DD	00H
	DD	00H
	DD	00H
	DD	00H
	ORG $+72
	DD	00H
	ORG $+72
	DD	00H
	ORG $+72
	DD	00H
	ORG $+72
	DD	00H
	ORG $+72
	DD	00H
	ORG $+72
	DD	00H
	ORG $+72
	DD	00H
	ORG $+72
	DD	00H
	ORG $+72
	DD	00H
	ORG $+72
	DD	00H
	ORG $+72
	DD	00H
	ORG $+72
	DD	00H
	ORG $+72
	DD	00H
	ORG $+72
	DD	00H
	ORG $+72
	DD	00H
	ORG $+72
	DD	00H
	ORG $+72
	DD	00H
	ORG $+72
	DD	00H
	ORG $+72
	DD	00H
	ORG $+72
	DD	00H
	ORG $+72
	DD	00H
	ORG $+72
	DD	00H
	ORG $+72
	DD	00H
	ORG $+72
	DD	00H
	ORG $+72
	DD	043H
	DD	01eH
	DD	07H
	DD	00H
	DD	00H
	DD	00H
	DD	00H
	DD	01H
	DD	000000000r			; 0
	DD	000000000r			; 0
	DD	000000000r			; 0
	DD	000000000r			; 0
	DD	000000000r			; 0
	DD	000000000r			; 0
	DD	000000000r			; 0
	DD	045a10d97r			; 5153.7
	DD	00H
	DD	00H
	DD	00H
	DD	044H
	DD	01eH
	DD	07H
	DD	00H
	DD	00H
	DD	00H
	DD	00H
	DD	01H
	DD	000000000r			; 0
	DD	000000000r			; 0
	DD	000000000r			; 0
	DD	000000000r			; 0
	DD	000000000r			; 0
	DD	000000000r			; 0
	DD	000000000r			; 0
	DD	045a10d97r			; 5153.7
	DD	00H
	DD	00H
	DD	00H
	DD	07H
	DD	04b0H
	DD	06H
	DD	00H
	DD	00H
	DD	00H
	DD	01H
	DD	01H
	DD	03fc90fdbr			; 1.5708
	DD	0bff5be0br			; -1.91986
	DD	03ff5be0br			; 1.91986
	DD	03fc90fdbr			; 1.5708
	DD	0bf860a92r			; -1.0472
	DD	03e449809r			; 0.191986
	DD	000000000r			; 0
	DD	045a10d97r			; 5153.7
	DD	00H
	DD	00H
	DD	04H
	DD	024H
	DD	02H
	DD	04H
	DD	00H
	DD	00H
	DD	00H
	DD	00H
	DD	01H
	DD	000000000r			; 0
	DD	000000000r			; 0
	DD	000000000r			; 0
	DD	000000000r			; 0
	DD	000000000r			; 0
	DD	000000000r			; 0
	DD	000000000r			; 0
	DD	045a10d97r			; 5153.7
	DD	00H
	DD	00H
	DD	00H
	DD	024H
	DD	02H
	DD	05H
	DD	00H
	DD	00H
	DD	00H
	DD	00H
	DD	01H
	DD	000000000r			; 0
	DD	000000000r			; 0
	DD	000000000r			; 0
	DD	000000000r			; 0
	DD	000000000r			; 0
	DD	000000000r			; 0
	DD	000000000r			; 0
	DD	045a10d97r			; 5153.7
	DD	00H
	DD	00H
	DD	00H
	DD	02dH
	DD	04H
	DD	00H
	DD	00H
	DD	00H
	DD	00H
	DD	00H
	DD	01H
	DD	000000000r			; 0
	DD	000000000r			; 0
	DD	000000000r			; 0
	DD	000000000r			; 0
	DD	000000000r			; 0
	DD	000000000r			; 0
	DD	000000000r			; 0
	DD	045a10d97r			; 5153.7
	DD	00H
	DD	00H
	DD	00H
	DD	02dH
	DD	04H
	DD	01H
	DD	00H
	DD	00H
	DD	00H
	DD	00H
	DD	01H
	DD	000000000r			; 0
	DD	000000000r			; 0
	DD	000000000r			; 0
	DD	000000000r			; 0
	DD	000000000r			; 0
	DD	000000000r			; 0
	DD	000000000r			; 0
	DD	045a10d97r			; 5153.7
	DD	00H
	DD	00H
	DD	00H
	DD	01fH
	DD	013H
	DD	02H
	DD	01H
	DD	00H
	DD	00H
	DD	01H
	DD	02H
	DD	000000000r			; 0
	DD	000000000r			; 0
	DD	000000000r			; 0
	DD	03eb2b8c2r			; 0.349066
	DD	0be860a92r			; -0.261799
	DD	03daf25b4r			; 0.0855211
	DD	000000000r			; 0
	DD	0424e25e0r			; 51.537
	DD	00H
	DD	00H
	DD	00H
	DD	01fH
	DD	013H
	DD	03H
	DD	01H
	DD	00H
	DD	00H
	DD	01H
	DD	02H
	DD	000000000r			; 0
	DD	000000000r			; 0
	DD	000000000r			; 0
	DD	03eb2b8c2r			; 0.349066
	DD	0be860a92r			; -0.261799
	DD	03daf25b4r			; 0.0855211
	DD	000000000r			; 0
	DD	0424e25e0r			; 51.537
	DD	00H
	DD	00H
	DD	00H
	DD	00H
	ORG $+72
	DD	00H
	ORG $+72
	DD	00H
	ORG $+72
	DD	00H
	ORG $+72
	DD	00H
	ORG $+72
	DD	00H
	ORG $+72
	DD	00H
	ORG $+72
	DD	00H
	ORG $+72
	DD	00H
	ORG $+72
	DD	00H
	ORG $+72
	DD	00H
	ORG $+72
	DD	00H
	ORG $+72
	DD	00H
	ORG $+72
	DD	00H
	ORG $+72
	DD	00H
	ORG $+72
	DD	00H
	ORG $+72
	DD	00H
	ORG $+72
	DD	00H
	ORG $+72
	DD	00H
	ORG $+72
	DD	00H
	ORG $+72
	DD	00H
	ORG $+72
	DD	00H
	ORG $+72
	DD	00H
	ORG $+72
	DD	043H
	DD	01eH
	DD	07H
	DD	00H
	DD	00H
	DD	00H
	DD	00H
	DD	01H
	DD	000000000r			; 0
	DD	000000000r			; 0
	DD	000000000r			; 0
	DD	000000000r			; 0
	DD	000000000r			; 0
	DD	000000000r			; 0
	DD	000000000r			; 0
	DD	045a10d97r			; 5153.7
	DD	00H
	DD	00H
	DD	00H
	DD	044H
	DD	01eH
	DD	07H
	DD	00H
	DD	00H
	DD	00H
	DD	00H
	DD	01H
	DD	000000000r			; 0
	DD	000000000r			; 0
	DD	000000000r			; 0
	DD	000000000r			; 0
	DD	000000000r			; 0
	DD	000000000r			; 0
	DD	000000000r			; 0
	DD	045a10d97r			; 5153.7
	DD	00H
	DD	00H
	DD	00H
	DD	07H
	DD	04b0H
	DD	06H
	DD	00H
	DD	00H
	DD	00H
	DD	01H
	DD	01H
	DD	03fc90fdbr			; 1.5708
	DD	0bff5be0br			; -1.91986
	DD	03ff5be0br			; 1.91986
	DD	03fc90fdbr			; 1.5708
	DD	0bf860a92r			; -1.0472
	DD	03e449809r			; 0.191986
	DD	000000000r			; 0
	DD	045a10d97r			; 5153.7
	DD	00H
	DD	00H
	DD	04H
	DD	024H
	DD	02H
	DD	04H
	DD	00H
	DD	00H
	DD	00H
	DD	00H
	DD	01H
	DD	000000000r			; 0
	DD	000000000r			; 0
	DD	000000000r			; 0
	DD	000000000r			; 0
	DD	000000000r			; 0
	DD	000000000r			; 0
	DD	000000000r			; 0
	DD	045a10d97r			; 5153.7
	DD	00H
	DD	00H
	DD	00H
	DD	024H
	DD	02H
	DD	05H
	DD	00H
	DD	00H
	DD	00H
	DD	00H
	DD	01H
	DD	000000000r			; 0
	DD	000000000r			; 0
	DD	000000000r			; 0
	DD	000000000r			; 0
	DD	000000000r			; 0
	DD	000000000r			; 0
	DD	000000000r			; 0
	DD	045a10d97r			; 5153.7
	DD	00H
	DD	00H
	DD	00H
	DD	02eH
	DD	04H
	DD	00H
	DD	00H
	DD	00H
	DD	00H
	DD	00H
	DD	01H
	DD	000000000r			; 0
	DD	000000000r			; 0
	DD	000000000r			; 0
	DD	000000000r			; 0
	DD	000000000r			; 0
	DD	000000000r			; 0
	DD	000000000r			; 0
	DD	045a10d97r			; 5153.7
	DD	00H
	DD	00H
	DD	00H
	DD	02eH
	DD	04H
	DD	01H
	DD	00H
	DD	00H
	DD	00H
	DD	00H
	DD	01H
	DD	000000000r			; 0
	DD	000000000r			; 0
	DD	000000000r			; 0
	DD	000000000r			; 0
	DD	000000000r			; 0
	DD	000000000r			; 0
	DD	000000000r			; 0
	DD	045a10d97r			; 5153.7
	DD	00H
	DD	00H
	DD	00H
	DD	01fH
	DD	013H
	DD	02H
	DD	01H
	DD	00H
	DD	00H
	DD	01H
	DD	02H
	DD	000000000r			; 0
	DD	000000000r			; 0
	DD	000000000r			; 0
	DD	03eb2b8c2r			; 0.349066
	DD	0be860a92r			; -0.261799
	DD	03daf25b4r			; 0.0855211
	DD	000000000r			; 0
	DD	0424e25e0r			; 51.537
	DD	00H
	DD	00H
	DD	00H
	DD	01fH
	DD	013H
	DD	03H
	DD	01H
	DD	00H
	DD	00H
	DD	01H
	DD	02H
	DD	000000000r			; 0
	DD	000000000r			; 0
	DD	000000000r			; 0
	DD	03eb2b8c2r			; 0.349066
	DD	0be860a92r			; -0.261799
	DD	03daf25b4r			; 0.0855211
	DD	000000000r			; 0
	DD	0424e25e0r			; 51.537
	DD	00H
	DD	00H
	DD	00H
	DD	00H
	ORG $+72
	DD	00H
	ORG $+72
	DD	00H
	ORG $+72
	DD	00H
	ORG $+72
	DD	00H
	ORG $+72
	DD	00H
	ORG $+72
	DD	00H
	ORG $+72
	DD	00H
	ORG $+72
	DD	00H
	ORG $+72
	DD	00H
	ORG $+72
	DD	00H
	ORG $+72
	DD	00H
	ORG $+72
	DD	00H
	ORG $+72
	DD	00H
	ORG $+72
	DD	00H
	ORG $+72
	DD	00H
	ORG $+72
	DD	00H
	ORG $+72
	DD	00H
	ORG $+72
	DD	00H
	ORG $+72
	DD	00H
	ORG $+72
	DD	00H
	ORG $+72
	DD	00H
	ORG $+72
	DD	00H
	ORG $+72
	DD	043H
	DD	01eH
	DD	07H
	DD	00H
	DD	00H
	DD	00H
	DD	00H
	DD	01H
	DD	000000000r			; 0
	DD	000000000r			; 0
	DD	000000000r			; 0
	DD	000000000r			; 0
	DD	000000000r			; 0
	DD	000000000r			; 0
	DD	000000000r			; 0
	DD	045a10d97r			; 5153.7
	DD	00H
	DD	00H
	DD	00H
	DD	044H
	DD	01eH
	DD	07H
	DD	00H
	DD	00H
	DD	00H
	DD	00H
	DD	01H
	DD	000000000r			; 0
	DD	000000000r			; 0
	DD	000000000r			; 0
	DD	000000000r			; 0
	DD	000000000r			; 0
	DD	000000000r			; 0
	DD	000000000r			; 0
	DD	045a10d97r			; 5153.7
	DD	00H
	DD	00H
	DD	00H
	DD	07H
	DD	04b0H
	DD	06H
	DD	00H
	DD	00H
	DD	00H
	DD	01H
	DD	01H
	DD	03fc90fdbr			; 1.5708
	DD	0bff5be0br			; -1.91986
	DD	03ff5be0br			; 1.91986
	DD	03fc90fdbr			; 1.5708
	DD	0bf860a92r			; -1.0472
	DD	03e449809r			; 0.191986
	DD	000000000r			; 0
	DD	045a10d97r			; 5153.7
	DD	00H
	DD	00H
	DD	04H
	DD	024H
	DD	02H
	DD	04H
	DD	00H
	DD	00H
	DD	00H
	DD	00H
	DD	01H
	DD	000000000r			; 0
	DD	000000000r			; 0
	DD	000000000r			; 0
	DD	000000000r			; 0
	DD	000000000r			; 0
	DD	000000000r			; 0
	DD	000000000r			; 0
	DD	045a10d97r			; 5153.7
	DD	00H
	DD	00H
	DD	00H
	DD	024H
	DD	02H
	DD	05H
	DD	00H
	DD	00H
	DD	00H
	DD	00H
	DD	01H
	DD	000000000r			; 0
	DD	000000000r			; 0
	DD	000000000r			; 0
	DD	000000000r			; 0
	DD	000000000r			; 0
	DD	000000000r			; 0
	DD	000000000r			; 0
	DD	045a10d97r			; 5153.7
	DD	00H
	DD	00H
	DD	00H
	DD	01eH
	DD	013H
	DD	00H
	DD	01H
	DD	00H
	DD	00H
	DD	01H
	DD	02H
	DD	000000000r			; 0
	DD	000000000r			; 0
	DD	000000000r			; 0
	DD	03eb2b8c2r			; 0.349066
	DD	0be860a92r			; -0.261799
	DD	03daf25b4r			; 0.0855211
	DD	000000000r			; 0
	DD	0424e25e0r			; 51.537
	DD	00H
	DD	00H
	DD	00H
	DD	01eH
	DD	013H
	DD	01H
	DD	01H
	DD	00H
	DD	00H
	DD	01H
	DD	02H
	DD	000000000r			; 0
	DD	000000000r			; 0
	DD	000000000r			; 0
	DD	03eb2b8c2r			; 0.349066
	DD	0be860a92r			; -0.261799
	DD	03daf25b4r			; 0.0855211
	DD	000000000r			; 0
	DD	0424e25e0r			; 51.537
	DD	00H
	DD	00H
	DD	00H
	DD	01fH
	DD	013H
	DD	02H
	DD	01H
	DD	00H
	DD	00H
	DD	01H
	DD	02H
	DD	000000000r			; 0
	DD	000000000r			; 0
	DD	000000000r			; 0
	DD	03eb2b8c2r			; 0.349066
	DD	0be860a92r			; -0.261799
	DD	03daf25b4r			; 0.0855211
	DD	000000000r			; 0
	DD	0424e25e0r			; 51.537
	DD	00H
	DD	00H
	DD	00H
	DD	01fH
	DD	013H
	DD	03H
	DD	01H
	DD	00H
	DD	00H
	DD	01H
	DD	02H
	DD	000000000r			; 0
	DD	000000000r			; 0
	DD	000000000r			; 0
	DD	03eb2b8c2r			; 0.349066
	DD	0be860a92r			; -0.261799
	DD	03daf25b4r			; 0.0855211
	DD	000000000r			; 0
	DD	0424e25e0r			; 51.537
	DD	00H
	DD	00H
	DD	00H
	DD	00H
	ORG $+72
	DD	00H
	ORG $+72
	DD	00H
	ORG $+72
	DD	00H
	ORG $+72
	DD	00H
	ORG $+72
	DD	00H
	ORG $+72
	DD	00H
	ORG $+72
	DD	00H
	ORG $+72
	DD	00H
	ORG $+72
	DD	00H
	ORG $+72
	DD	00H
	ORG $+72
	DD	00H
	ORG $+72
	DD	00H
	ORG $+72
	DD	00H
	ORG $+72
	DD	00H
	ORG $+72
	DD	00H
	ORG $+72
	DD	00H
	ORG $+72
	DD	00H
	ORG $+72
	DD	00H
	ORG $+72
	DD	00H
	ORG $+72
	DD	00H
	ORG $+72
	DD	00H
	ORG $+72
	DD	00H
	ORG $+72
	DD	043H
	DD	01eH
	DD	07H
	DD	00H
	DD	00H
	DD	00H
	DD	00H
	DD	01H
	DD	000000000r			; 0
	DD	000000000r			; 0
	DD	000000000r			; 0
	DD	000000000r			; 0
	DD	000000000r			; 0
	DD	000000000r			; 0
	DD	000000000r			; 0
	DD	045a10d97r			; 5153.7
	DD	00H
	DD	00H
	DD	00H
	DD	044H
	DD	01eH
	DD	07H
	DD	00H
	DD	00H
	DD	00H
	DD	00H
	DD	01H
	DD	000000000r			; 0
	DD	000000000r			; 0
	DD	000000000r			; 0
	DD	000000000r			; 0
	DD	000000000r			; 0
	DD	000000000r			; 0
	DD	000000000r			; 0
	DD	045a10d97r			; 5153.7
	DD	00H
	DD	00H
	DD	00H
	DD	07H
	DD	04b0H
	DD	06H
	DD	00H
	DD	00H
	DD	00H
	DD	01H
	DD	01H
	DD	03fc90fdbr			; 1.5708
	DD	0bff5be0br			; -1.91986
	DD	03ff5be0br			; 1.91986
	DD	03fc90fdbr			; 1.5708
	DD	0bf860a92r			; -1.0472
	DD	03e449809r			; 0.191986
	DD	000000000r			; 0
	DD	045a10d97r			; 5153.7
	DD	00H
	DD	00H
	DD	04H
	DD	024H
	DD	02H
	DD	04H
	DD	00H
	DD	00H
	DD	00H
	DD	00H
	DD	01H
	DD	000000000r			; 0
	DD	000000000r			; 0
	DD	000000000r			; 0
	DD	000000000r			; 0
	DD	000000000r			; 0
	DD	000000000r			; 0
	DD	000000000r			; 0
	DD	045a10d97r			; 5153.7
	DD	00H
	DD	00H
	DD	00H
	DD	024H
	DD	02H
	DD	05H
	DD	00H
	DD	00H
	DD	00H
	DD	00H
	DD	01H
	DD	000000000r			; 0
	DD	000000000r			; 0
	DD	000000000r			; 0
	DD	000000000r			; 0
	DD	000000000r			; 0
	DD	000000000r			; 0
	DD	000000000r			; 0
	DD	045a10d97r			; 5153.7
	DD	00H
	DD	00H
	DD	00H
	DD	01fH
	DD	013H
	DD	00H
	DD	01H
	DD	00H
	DD	00H
	DD	01H
	DD	02H
	DD	000000000r			; 0
	DD	000000000r			; 0
	DD	000000000r			; 0
	DD	03eb2b8c2r			; 0.349066
	DD	0be860a92r			; -0.261799
	DD	03daf25b4r			; 0.0855211
	DD	000000000r			; 0
	DD	0424e25e0r			; 51.537
	DD	00H
	DD	00H
	DD	00H
	DD	01fH
	DD	013H
	DD	01H
	DD	01H
	DD	00H
	DD	00H
	DD	01H
	DD	02H
	DD	000000000r			; 0
	DD	000000000r			; 0
	DD	000000000r			; 0
	DD	03eb2b8c2r			; 0.349066
	DD	0be860a92r			; -0.261799
	DD	03daf25b4r			; 0.0855211
	DD	000000000r			; 0
	DD	0424e25e0r			; 51.537
	DD	00H
	DD	00H
	DD	00H
	DD	01fH
	DD	013H
	DD	02H
	DD	01H
	DD	00H
	DD	00H
	DD	01H
	DD	02H
	DD	000000000r			; 0
	DD	000000000r			; 0
	DD	000000000r			; 0
	DD	03eb2b8c2r			; 0.349066
	DD	0be860a92r			; -0.261799
	DD	03daf25b4r			; 0.0855211
	DD	000000000r			; 0
	DD	0424e25e0r			; 51.537
	DD	00H
	DD	00H
	DD	00H
	DD	01fH
	DD	013H
	DD	03H
	DD	01H
	DD	00H
	DD	00H
	DD	01H
	DD	02H
	DD	000000000r			; 0
	DD	000000000r			; 0
	DD	000000000r			; 0
	DD	03eb2b8c2r			; 0.349066
	DD	0be860a92r			; -0.261799
	DD	03daf25b4r			; 0.0855211
	DD	000000000r			; 0
	DD	0424e25e0r			; 51.537
	DD	00H
	DD	00H
	DD	00H
	DD	00H
	ORG $+72
	DD	00H
	ORG $+72
	DD	00H
	ORG $+72
	DD	00H
	ORG $+72
	DD	00H
	ORG $+72
	DD	00H
	ORG $+72
	DD	00H
	ORG $+72
	DD	00H
	ORG $+72
	DD	00H
	ORG $+72
	DD	00H
	ORG $+72
	DD	00H
	ORG $+72
	DD	00H
	ORG $+72
	DD	00H
	ORG $+72
	DD	00H
	ORG $+72
	DD	00H
	ORG $+72
	DD	00H
	ORG $+72
	DD	00H
	ORG $+72
	DD	00H
	ORG $+72
	DD	00H
	ORG $+72
	DD	00H
	ORG $+72
	DD	00H
	ORG $+72
	DD	00H
	ORG $+72
	DD	00H
	ORG $+72
	DD	043H
	DD	01eH
	DD	05H
	DD	00H
	DD	00H
	DD	00H
	DD	00H
	DD	01H
	DD	000000000r			; 0
	DD	000000000r			; 0
	DD	000000000r			; 0
	DD	000000000r			; 0
	DD	000000000r			; 0
	DD	000000000r			; 0
	DD	000000000r			; 0
	DD	045a10d97r			; 5153.7
	DD	00H
	DD	00H
	DD	00H
	DD	044H
	DD	01eH
	DD	05H
	DD	00H
	DD	00H
	DD	00H
	DD	00H
	DD	01H
	DD	000000000r			; 0
	DD	000000000r			; 0
	DD	000000000r			; 0
	DD	000000000r			; 0
	DD	000000000r			; 0
	DD	000000000r			; 0
	DD	000000000r			; 0
	DD	045a10d97r			; 5153.7
	DD	00H
	DD	00H
	DD	00H
	DD	013H
	DD	082H
	DD	04H
	DD	00H
	DD	00H
	DD	00H
	DD	01H
	DD	01H
	DD	03fc90fdbr			; 1.5708
	DD	0bff5be0br			; -1.91986
	DD	03ff5be0br			; 1.91986
	DD	03fc90fdbr			; 1.5708
	DD	0bf32b8c2r			; -0.698132
	DD	03e685696r			; 0.226893
	DD	000000000r			; 0
	DD	045a10d97r			; 5153.7
	DD	0cH
	DD	0cH
	DD	03H
	DD	014H
	DD	082H
	DD	04H
	DD	00H
	DD	00H
	DD	00H
	DD	01H
	DD	01H
	DD	03fc90fdbr			; 1.5708
	DD	0bff5be0br			; -1.91986
	DD	03ff5be0br			; 1.91986
	DD	03fc90fdbr			; 1.5708
	DD	0bf32b8c2r			; -0.698132
	DD	03e685696r			; 0.226893
	DD	000000000r			; 0
	DD	045a10d97r			; 5153.7
	DD	0cH
	DD	0cH
	DD	03H
	DD	00H
	ORG $+72
	DD	00H
	ORG $+72
	DD	00H
	ORG $+72
	DD	00H
	ORG $+72
	DD	00H
	ORG $+72
	DD	00H
	ORG $+72
	DD	00H
	ORG $+72
	DD	00H
	ORG $+72
	DD	00H
	ORG $+72
	DD	00H
	ORG $+72
	DD	00H
	ORG $+72
	DD	00H
	ORG $+72
	DD	00H
	ORG $+72
	DD	00H
	ORG $+72
	DD	00H
	ORG $+72
	DD	00H
	ORG $+72
	DD	00H
	ORG $+72
	DD	00H
	ORG $+72
	DD	00H
	ORG $+72
	DD	00H
	ORG $+72
	DD	00H
	ORG $+72
	DD	00H
	ORG $+72
	DD	00H
	ORG $+72
	DD	00H
	ORG $+72
	DD	00H
	ORG $+72
	DD	00H
	ORG $+72
	DD	00H
	ORG $+72
	DD	00H
	ORG $+72
	DD	043H
	DD	01eH
	DD	05H
	DD	00H
	DD	00H
	DD	00H
	DD	00H
	DD	01H
	DD	000000000r			; 0
	DD	000000000r			; 0
	DD	000000000r			; 0
	DD	000000000r			; 0
	DD	000000000r			; 0
	DD	000000000r			; 0
	DD	000000000r			; 0
	DD	045a10d97r			; 5153.7
	DD	00H
	DD	00H
	DD	00H
	DD	044H
	DD	01eH
	DD	05H
	DD	00H
	DD	00H
	DD	00H
	DD	00H
	DD	01H
	DD	000000000r			; 0
	DD	000000000r			; 0
	DD	000000000r			; 0
	DD	000000000r			; 0
	DD	000000000r			; 0
	DD	000000000r			; 0
	DD	000000000r			; 0
	DD	045a10d97r			; 5153.7
	DD	00H
	DD	00H
	DD	00H
	DD	013H
	DD	082H
	DD	04H
	DD	00H
	DD	00H
	DD	00H
	DD	01H
	DD	01H
	DD	03fc90fdbr			; 1.5708
	DD	0bff5be0br			; -1.91986
	DD	03ff5be0br			; 1.91986
	DD	03fc90fdbr			; 1.5708
	DD	0bf32b8c2r			; -0.698132
	DD	03e685696r			; 0.226893
	DD	000000000r			; 0
	DD	045a10d97r			; 5153.7
	DD	0cH
	DD	0cH
	DD	03H
	DD	014H
	DD	082H
	DD	04H
	DD	00H
	DD	00H
	DD	00H
	DD	01H
	DD	01H
	DD	03fc90fdbr			; 1.5708
	DD	0bff5be0br			; -1.91986
	DD	03ff5be0br			; 1.91986
	DD	03fc90fdbr			; 1.5708
	DD	0bf32b8c2r			; -0.698132
	DD	03e685696r			; 0.226893
	DD	000000000r			; 0
	DD	045a10d97r			; 5153.7
	DD	0cH
	DD	0cH
	DD	03H
	DD	027H
	DD	04H
	DD	00H
	DD	01H
	DD	00H
	DD	00H
	DD	00H
	DD	01H
	DD	000000000r			; 0
	DD	000000000r			; 0
	DD	000000000r			; 0
	DD	000000000r			; 0
	DD	000000000r			; 0
	DD	000000000r			; 0
	DD	000000000r			; 0
	DD	045a10d97r			; 5153.7
	DD	00H
	DD	00H
	DD	00H
	DD	027H
	DD	04H
	DD	01H
	DD	01H
	DD	00H
	DD	00H
	DD	00H
	DD	01H
	DD	000000000r			; 0
	DD	000000000r			; 0
	DD	000000000r			; 0
	DD	000000000r			; 0
	DD	000000000r			; 0
	DD	000000000r			; 0
	DD	000000000r			; 0
	DD	045a10d97r			; 5153.7
	DD	00H
	DD	00H
	DD	00H
	DD	00H
	ORG $+72
	DD	00H
	ORG $+72
	DD	00H
	ORG $+72
	DD	00H
	ORG $+72
	DD	00H
	ORG $+72
	DD	00H
	ORG $+72
	DD	00H
	ORG $+72
	DD	00H
	ORG $+72
	DD	00H
	ORG $+72
	DD	00H
	ORG $+72
	DD	00H
	ORG $+72
	DD	00H
	ORG $+72
	DD	00H
	ORG $+72
	DD	00H
	ORG $+72
	DD	00H
	ORG $+72
	DD	00H
	ORG $+72
	DD	00H
	ORG $+72
	DD	00H
	ORG $+72
	DD	00H
	ORG $+72
	DD	00H
	ORG $+72
	DD	00H
	ORG $+72
	DD	00H
	ORG $+72
	DD	00H
	ORG $+72
	DD	00H
	ORG $+72
	DD	00H
	ORG $+72
	DD	00H
	ORG $+72
	DD	043H
	DD	01eH
	DD	05H
	DD	00H
	DD	00H
	DD	00H
	DD	00H
	DD	01H
	DD	000000000r			; 0
	DD	000000000r			; 0
	DD	000000000r			; 0
	DD	000000000r			; 0
	DD	000000000r			; 0
	DD	000000000r			; 0
	DD	000000000r			; 0
	DD	045a10d97r			; 5153.7
	DD	00H
	DD	00H
	DD	00H
	DD	044H
	DD	01eH
	DD	05H
	DD	00H
	DD	00H
	DD	00H
	DD	00H
	DD	01H
	DD	000000000r			; 0
	DD	000000000r			; 0
	DD	000000000r			; 0
	DD	000000000r			; 0
	DD	000000000r			; 0
	DD	000000000r			; 0
	DD	000000000r			; 0
	DD	045a10d97r			; 5153.7
	DD	00H
	DD	00H
	DD	00H
	DD	013H
	DD	082H
	DD	04H
	DD	00H
	DD	00H
	DD	00H
	DD	01H
	DD	01H
	DD	03fc90fdbr			; 1.5708
	DD	0bff5be0br			; -1.91986
	DD	03ff5be0br			; 1.91986
	DD	03fc90fdbr			; 1.5708
	DD	0bf32b8c2r			; -0.698132
	DD	03e685696r			; 0.226893
	DD	000000000r			; 0
	DD	045a10d97r			; 5153.7
	DD	0cH
	DD	0cH
	DD	03H
	DD	014H
	DD	082H
	DD	04H
	DD	00H
	DD	00H
	DD	00H
	DD	01H
	DD	01H
	DD	03fc90fdbr			; 1.5708
	DD	0bff5be0br			; -1.91986
	DD	03ff5be0br			; 1.91986
	DD	03fc90fdbr			; 1.5708
	DD	0bf32b8c2r			; -0.698132
	DD	03e685696r			; 0.226893
	DD	000000000r			; 0
	DD	045a10d97r			; 5153.7
	DD	0cH
	DD	0cH
	DD	03H
	DD	022H
	DD	014H
	DD	00H
	DD	02H
	DD	00H
	DD	00H
	DD	00H
	DD	02H
	DD	000000000r			; 0
	DD	000000000r			; 0
	DD	000000000r			; 0
	DD	000000000r			; 0
	DD	000000000r			; 0
	DD	000000000r			; 0
	DD	000000000r			; 0
	DD	045a10d97r			; 5153.7
	DD	00H
	DD	00H
	DD	00H
	DD	022H
	DD	014H
	DD	01H
	DD	02H
	DD	00H
	DD	00H
	DD	00H
	DD	02H
	DD	000000000r			; 0
	DD	000000000r			; 0
	DD	000000000r			; 0
	DD	000000000r			; 0
	DD	000000000r			; 0
	DD	000000000r			; 0
	DD	000000000r			; 0
	DD	045a10d97r			; 5153.7
	DD	00H
	DD	00H
	DD	00H
	DD	00H
	ORG $+72
	DD	00H
	ORG $+72
	DD	00H
	ORG $+72
	DD	00H
	ORG $+72
	DD	00H
	ORG $+72
	DD	00H
	ORG $+72
	DD	00H
	ORG $+72
	DD	00H
	ORG $+72
	DD	00H
	ORG $+72
	DD	00H
	ORG $+72
	DD	00H
	ORG $+72
	DD	00H
	ORG $+72
	DD	00H
	ORG $+72
	DD	00H
	ORG $+72
	DD	00H
	ORG $+72
	DD	00H
	ORG $+72
	DD	00H
	ORG $+72
	DD	00H
	ORG $+72
	DD	00H
	ORG $+72
	DD	00H
	ORG $+72
	DD	00H
	ORG $+72
	DD	00H
	ORG $+72
	DD	00H
	ORG $+72
	DD	00H
	ORG $+72
	DD	00H
	ORG $+72
	DD	00H
	ORG $+72
	DD	043H
	DD	01eH
	DD	05H
	DD	00H
	DD	00H
	DD	00H
	DD	00H
	DD	01H
	DD	000000000r			; 0
	DD	000000000r			; 0
	DD	000000000r			; 0
	DD	000000000r			; 0
	DD	000000000r			; 0
	DD	000000000r			; 0
	DD	000000000r			; 0
	DD	045a10d97r			; 5153.7
	DD	00H
	DD	00H
	DD	00H
	DD	044H
	DD	01eH
	DD	05H
	DD	00H
	DD	00H
	DD	00H
	DD	00H
	DD	01H
	DD	000000000r			; 0
	DD	000000000r			; 0
	DD	000000000r			; 0
	DD	000000000r			; 0
	DD	000000000r			; 0
	DD	000000000r			; 0
	DD	000000000r			; 0
	DD	045a10d97r			; 5153.7
	DD	00H
	DD	00H
	DD	00H
	DD	013H
	DD	082H
	DD	04H
	DD	00H
	DD	00H
	DD	00H
	DD	01H
	DD	01H
	DD	03fc90fdbr			; 1.5708
	DD	0bff5be0br			; -1.91986
	DD	03ff5be0br			; 1.91986
	DD	03fc90fdbr			; 1.5708
	DD	0bf32b8c2r			; -0.698132
	DD	03e685696r			; 0.226893
	DD	000000000r			; 0
	DD	045a10d97r			; 5153.7
	DD	0cH
	DD	0cH
	DD	03H
	DD	014H
	DD	082H
	DD	04H
	DD	00H
	DD	00H
	DD	00H
	DD	01H
	DD	01H
	DD	03fc90fdbr			; 1.5708
	DD	0bff5be0br			; -1.91986
	DD	03ff5be0br			; 1.91986
	DD	03fc90fdbr			; 1.5708
	DD	0bf32b8c2r			; -0.698132
	DD	03e685696r			; 0.226893
	DD	000000000r			; 0
	DD	045a10d97r			; 5153.7
	DD	0cH
	DD	0cH
	DD	03H
	DD	023H
	DD	05H
	DD	00H
	DD	03H
	DD	00H
	DD	00H
	DD	00H
	DD	02H
	DD	000000000r			; 0
	DD	000000000r			; 0
	DD	000000000r			; 0
	DD	000000000r			; 0
	DD	000000000r			; 0
	DD	000000000r			; 0
	DD	000000000r			; 0
	DD	045a10d97r			; 5153.7
	DD	00H
	DD	00H
	DD	00H
	DD	023H
	DD	05H
	DD	01H
	DD	03H
	DD	00H
	DD	00H
	DD	00H
	DD	02H
	DD	000000000r			; 0
	DD	000000000r			; 0
	DD	000000000r			; 0
	DD	000000000r			; 0
	DD	000000000r			; 0
	DD	000000000r			; 0
	DD	000000000r			; 0
	DD	045a10d97r			; 5153.7
	DD	00H
	DD	00H
	DD	00H
	DD	00H
	ORG $+72
	DD	00H
	ORG $+72
	DD	00H
	ORG $+72
	DD	00H
	ORG $+72
	DD	00H
	ORG $+72
	DD	00H
	ORG $+72
	DD	00H
	ORG $+72
	DD	00H
	ORG $+72
	DD	00H
	ORG $+72
	DD	00H
	ORG $+72
	DD	00H
	ORG $+72
	DD	00H
	ORG $+72
	DD	00H
	ORG $+72
	DD	00H
	ORG $+72
	DD	00H
	ORG $+72
	DD	00H
	ORG $+72
	DD	00H
	ORG $+72
	DD	00H
	ORG $+72
	DD	00H
	ORG $+72
	DD	00H
	ORG $+72
	DD	00H
	ORG $+72
	DD	00H
	ORG $+72
	DD	00H
	ORG $+72
	DD	00H
	ORG $+72
	DD	00H
	ORG $+72
	DD	00H
	ORG $+72
	DD	043H
	DD	01eH
	DD	05H
	DD	00H
	DD	00H
	DD	00H
	DD	00H
	DD	01H
	DD	000000000r			; 0
	DD	000000000r			; 0
	DD	000000000r			; 0
	DD	000000000r			; 0
	DD	000000000r			; 0
	DD	000000000r			; 0
	DD	000000000r			; 0
	DD	045a10d97r			; 5153.7
	DD	00H
	DD	00H
	DD	00H
	DD	044H
	DD	01eH
	DD	05H
	DD	00H
	DD	00H
	DD	00H
	DD	00H
	DD	01H
	DD	000000000r			; 0
	DD	000000000r			; 0
	DD	000000000r			; 0
	DD	000000000r			; 0
	DD	000000000r			; 0
	DD	000000000r			; 0
	DD	000000000r			; 0
	DD	045a10d97r			; 5153.7
	DD	00H
	DD	00H
	DD	00H
	DD	013H
	DD	082H
	DD	04H
	DD	00H
	DD	00H
	DD	00H
	DD	01H
	DD	01H
	DD	03fc90fdbr			; 1.5708
	DD	0bff5be0br			; -1.91986
	DD	03ff5be0br			; 1.91986
	DD	03fc90fdbr			; 1.5708
	DD	0bf32b8c2r			; -0.698132
	DD	03e685696r			; 0.226893
	DD	000000000r			; 0
	DD	045a10d97r			; 5153.7
	DD	0cH
	DD	0cH
	DD	03H
	DD	014H
	DD	082H
	DD	04H
	DD	00H
	DD	00H
	DD	00H
	DD	01H
	DD	01H
	DD	03fc90fdbr			; 1.5708
	DD	0bff5be0br			; -1.91986
	DD	03ff5be0br			; 1.91986
	DD	03fc90fdbr			; 1.5708
	DD	0bf32b8c2r			; -0.698132
	DD	03e685696r			; 0.226893
	DD	000000000r			; 0
	DD	045a10d97r			; 5153.7
	DD	0cH
	DD	0cH
	DD	03H
	DD	0fH
	DD	0faH
	DD	00H
	DD	04H
	DD	00H
	DD	00H
	DD	00H
	DD	02H
	DD	000000000r			; 0
	DD	000000000r			; 0
	DD	000000000r			; 0
	DD	000000000r			; 0
	DD	000000000r			; 0
	DD	000000000r			; 0
	DD	000000000r			; 0
	DD	045a10d97r			; 5153.7
	DD	00H
	DD	00H
	DD	03H
	DD	0fH
	DD	0faH
	DD	01H
	DD	04H
	DD	00H
	DD	00H
	DD	00H
	DD	02H
	DD	000000000r			; 0
	DD	000000000r			; 0
	DD	000000000r			; 0
	DD	000000000r			; 0
	DD	000000000r			; 0
	DD	000000000r			; 0
	DD	000000000r			; 0
	DD	045a10d97r			; 5153.7
	DD	00H
	DD	00H
	DD	03H
	DD	00H
	ORG $+72
	DD	00H
	ORG $+72
	DD	00H
	ORG $+72
	DD	00H
	ORG $+72
	DD	00H
	ORG $+72
	DD	00H
	ORG $+72
	DD	00H
	ORG $+72
	DD	00H
	ORG $+72
	DD	00H
	ORG $+72
	DD	00H
	ORG $+72
	DD	00H
	ORG $+72
	DD	00H
	ORG $+72
	DD	00H
	ORG $+72
	DD	00H
	ORG $+72
	DD	00H
	ORG $+72
	DD	00H
	ORG $+72
	DD	00H
	ORG $+72
	DD	00H
	ORG $+72
	DD	00H
	ORG $+72
	DD	00H
	ORG $+72
	DD	00H
	ORG $+72
	DD	00H
	ORG $+72
	DD	00H
	ORG $+72
	DD	00H
	ORG $+72
	DD	00H
	ORG $+72
	DD	00H
	ORG $+72
	DD	043H
	DD	01eH
	DD	05H
	DD	00H
	DD	00H
	DD	00H
	DD	00H
	DD	01H
	DD	000000000r			; 0
	DD	000000000r			; 0
	DD	000000000r			; 0
	DD	000000000r			; 0
	DD	000000000r			; 0
	DD	000000000r			; 0
	DD	000000000r			; 0
	DD	045a10d97r			; 5153.7
	DD	00H
	DD	00H
	DD	00H
	DD	044H
	DD	01eH
	DD	05H
	DD	00H
	DD	00H
	DD	00H
	DD	00H
	DD	01H
	DD	000000000r			; 0
	DD	000000000r			; 0
	DD	000000000r			; 0
	DD	000000000r			; 0
	DD	000000000r			; 0
	DD	000000000r			; 0
	DD	000000000r			; 0
	DD	045a10d97r			; 5153.7
	DD	00H
	DD	00H
	DD	00H
	DD	013H
	DD	082H
	DD	04H
	DD	00H
	DD	00H
	DD	00H
	DD	01H
	DD	01H
	DD	03fc90fdbr			; 1.5708
	DD	0bff5be0br			; -1.91986
	DD	03ff5be0br			; 1.91986
	DD	03fc90fdbr			; 1.5708
	DD	0bf32b8c2r			; -0.698132
	DD	03e685696r			; 0.226893
	DD	000000000r			; 0
	DD	045a10d97r			; 5153.7
	DD	0cH
	DD	0cH
	DD	03H
	DD	014H
	DD	082H
	DD	04H
	DD	00H
	DD	00H
	DD	00H
	DD	01H
	DD	01H
	DD	03fc90fdbr			; 1.5708
	DD	0bff5be0br			; -1.91986
	DD	03ff5be0br			; 1.91986
	DD	03fc90fdbr			; 1.5708
	DD	0bf32b8c2r			; -0.698132
	DD	03e685696r			; 0.226893
	DD	000000000r			; 0
	DD	045a10d97r			; 5153.7
	DD	0cH
	DD	0cH
	DD	03H
	DD	031H
	DD	08H
	DD	02H
	DD	00H
	DD	00H
	DD	00H
	DD	00H
	DD	01H
	DD	000000000r			; 0
	DD	000000000r			; 0
	DD	000000000r			; 0
	DD	000000000r			; 0
	DD	000000000r			; 0
	DD	000000000r			; 0
	DD	000000000r			; 0
	DD	045a10d97r			; 5153.7
	DD	00H
	DD	00H
	DD	00H
	DD	031H
	DD	08H
	DD	03H
	DD	00H
	DD	00H
	DD	00H
	DD	00H
	DD	01H
	DD	000000000r			; 0
	DD	000000000r			; 0
	DD	000000000r			; 0
	DD	000000000r			; 0
	DD	000000000r			; 0
	DD	000000000r			; 0
	DD	000000000r			; 0
	DD	045a10d97r			; 5153.7
	DD	00H
	DD	00H
	DD	00H
	DD	00H
	ORG $+72
	DD	00H
	ORG $+72
	DD	00H
	ORG $+72
	DD	00H
	ORG $+72
	DD	00H
	ORG $+72
	DD	00H
	ORG $+72
	DD	00H
	ORG $+72
	DD	00H
	ORG $+72
	DD	00H
	ORG $+72
	DD	00H
	ORG $+72
	DD	00H
	ORG $+72
	DD	00H
	ORG $+72
	DD	00H
	ORG $+72
	DD	00H
	ORG $+72
	DD	00H
	ORG $+72
	DD	00H
	ORG $+72
	DD	00H
	ORG $+72
	DD	00H
	ORG $+72
	DD	00H
	ORG $+72
	DD	00H
	ORG $+72
	DD	00H
	ORG $+72
	DD	00H
	ORG $+72
	DD	00H
	ORG $+72
	DD	00H
	ORG $+72
	DD	00H
	ORG $+72
	DD	00H
	ORG $+72
	DD	043H
	DD	01eH
	DD	05H
	DD	00H
	DD	00H
	DD	00H
	DD	00H
	DD	01H
	DD	000000000r			; 0
	DD	000000000r			; 0
	DD	000000000r			; 0
	DD	000000000r			; 0
	DD	000000000r			; 0
	DD	000000000r			; 0
	DD	000000000r			; 0
	DD	045a10d97r			; 5153.7
	DD	00H
	DD	00H
	DD	00H
	DD	044H
	DD	01eH
	DD	05H
	DD	00H
	DD	00H
	DD	00H
	DD	00H
	DD	01H
	DD	000000000r			; 0
	DD	000000000r			; 0
	DD	000000000r			; 0
	DD	000000000r			; 0
	DD	000000000r			; 0
	DD	000000000r			; 0
	DD	000000000r			; 0
	DD	045a10d97r			; 5153.7
	DD	00H
	DD	00H
	DD	00H
	DD	013H
	DD	082H
	DD	04H
	DD	00H
	DD	00H
	DD	00H
	DD	01H
	DD	01H
	DD	03fc90fdbr			; 1.5708
	DD	0bff5be0br			; -1.91986
	DD	03ff5be0br			; 1.91986
	DD	03fc90fdbr			; 1.5708
	DD	0bf32b8c2r			; -0.698132
	DD	03e685696r			; 0.226893
	DD	000000000r			; 0
	DD	045a10d97r			; 5153.7
	DD	0cH
	DD	0cH
	DD	03H
	DD	014H
	DD	082H
	DD	04H
	DD	00H
	DD	00H
	DD	00H
	DD	01H
	DD	01H
	DD	03fc90fdbr			; 1.5708
	DD	0bff5be0br			; -1.91986
	DD	03ff5be0br			; 1.91986
	DD	03fc90fdbr			; 1.5708
	DD	0bf32b8c2r			; -0.698132
	DD	03e685696r			; 0.226893
	DD	000000000r			; 0
	DD	045a10d97r			; 5153.7
	DD	0cH
	DD	0cH
	DD	03H
	DD	027H
	DD	04H
	DD	00H
	DD	01H
	DD	00H
	DD	00H
	DD	00H
	DD	01H
	DD	000000000r			; 0
	DD	000000000r			; 0
	DD	000000000r			; 0
	DD	000000000r			; 0
	DD	000000000r			; 0
	DD	000000000r			; 0
	DD	000000000r			; 0
	DD	045a10d97r			; 5153.7
	DD	00H
	DD	00H
	DD	00H
	DD	027H
	DD	04H
	DD	01H
	DD	01H
	DD	00H
	DD	00H
	DD	00H
	DD	01H
	DD	000000000r			; 0
	DD	000000000r			; 0
	DD	000000000r			; 0
	DD	000000000r			; 0
	DD	000000000r			; 0
	DD	000000000r			; 0
	DD	000000000r			; 0
	DD	045a10d97r			; 5153.7
	DD	00H
	DD	00H
	DD	00H
	DD	031H
	DD	08H
	DD	02H
	DD	00H
	DD	00H
	DD	00H
	DD	00H
	DD	01H
	DD	000000000r			; 0
	DD	000000000r			; 0
	DD	000000000r			; 0
	DD	000000000r			; 0
	DD	000000000r			; 0
	DD	000000000r			; 0
	DD	000000000r			; 0
	DD	045a10d97r			; 5153.7
	DD	00H
	DD	00H
	DD	00H
	DD	031H
	DD	08H
	DD	03H
	DD	00H
	DD	00H
	DD	00H
	DD	00H
	DD	01H
	DD	000000000r			; 0
	DD	000000000r			; 0
	DD	000000000r			; 0
	DD	000000000r			; 0
	DD	000000000r			; 0
	DD	000000000r			; 0
	DD	000000000r			; 0
	DD	045a10d97r			; 5153.7
	DD	00H
	DD	00H
	DD	00H
	DD	00H
	ORG $+72
	DD	00H
	ORG $+72
	DD	00H
	ORG $+72
	DD	00H
	ORG $+72
	DD	00H
	ORG $+72
	DD	00H
	ORG $+72
	DD	00H
	ORG $+72
	DD	00H
	ORG $+72
	DD	00H
	ORG $+72
	DD	00H
	ORG $+72
	DD	00H
	ORG $+72
	DD	00H
	ORG $+72
	DD	00H
	ORG $+72
	DD	00H
	ORG $+72
	DD	00H
	ORG $+72
	DD	00H
	ORG $+72
	DD	00H
	ORG $+72
	DD	00H
	ORG $+72
	DD	00H
	ORG $+72
	DD	00H
	ORG $+72
	DD	00H
	ORG $+72
	DD	00H
	ORG $+72
	DD	00H
	ORG $+72
	DD	00H
	ORG $+72
	DD	043H
	DD	01eH
	DD	05H
	DD	00H
	DD	00H
	DD	00H
	DD	00H
	DD	01H
	DD	000000000r			; 0
	DD	000000000r			; 0
	DD	000000000r			; 0
	DD	000000000r			; 0
	DD	000000000r			; 0
	DD	000000000r			; 0
	DD	000000000r			; 0
	DD	045a10d97r			; 5153.7
	DD	00H
	DD	00H
	DD	00H
	DD	044H
	DD	01eH
	DD	05H
	DD	00H
	DD	00H
	DD	00H
	DD	00H
	DD	01H
	DD	000000000r			; 0
	DD	000000000r			; 0
	DD	000000000r			; 0
	DD	000000000r			; 0
	DD	000000000r			; 0
	DD	000000000r			; 0
	DD	000000000r			; 0
	DD	045a10d97r			; 5153.7
	DD	00H
	DD	00H
	DD	00H
	DD	013H
	DD	082H
	DD	04H
	DD	00H
	DD	00H
	DD	00H
	DD	01H
	DD	01H
	DD	03fc90fdbr			; 1.5708
	DD	0bff5be0br			; -1.91986
	DD	03ff5be0br			; 1.91986
	DD	03fc90fdbr			; 1.5708
	DD	0bf32b8c2r			; -0.698132
	DD	03e685696r			; 0.226893
	DD	000000000r			; 0
	DD	045a10d97r			; 5153.7
	DD	0cH
	DD	0cH
	DD	03H
	DD	014H
	DD	082H
	DD	04H
	DD	00H
	DD	00H
	DD	00H
	DD	01H
	DD	01H
	DD	03fc90fdbr			; 1.5708
	DD	0bff5be0br			; -1.91986
	DD	03ff5be0br			; 1.91986
	DD	03fc90fdbr			; 1.5708
	DD	0bf32b8c2r			; -0.698132
	DD	03e685696r			; 0.226893
	DD	000000000r			; 0
	DD	045a10d97r			; 5153.7
	DD	0cH
	DD	0cH
	DD	03H
	DD	022H
	DD	014H
	DD	00H
	DD	02H
	DD	00H
	DD	00H
	DD	00H
	DD	08H
	DD	000000000r			; 0
	DD	000000000r			; 0
	DD	000000000r			; 0
	DD	000000000r			; 0
	DD	000000000r			; 0
	DD	000000000r			; 0
	DD	000000000r			; 0
	DD	045a10d97r			; 5153.7
	DD	00H
	DD	00H
	DD	00H
	DD	022H
	DD	014H
	DD	01H
	DD	02H
	DD	00H
	DD	00H
	DD	00H
	DD	08H
	DD	000000000r			; 0
	DD	000000000r			; 0
	DD	000000000r			; 0
	DD	000000000r			; 0
	DD	000000000r			; 0
	DD	000000000r			; 0
	DD	000000000r			; 0
	DD	045a10d97r			; 5153.7
	DD	00H
	DD	00H
	DD	00H
	DD	031H
	DD	08H
	DD	02H
	DD	00H
	DD	00H
	DD	00H
	DD	00H
	DD	01H
	DD	000000000r			; 0
	DD	000000000r			; 0
	DD	000000000r			; 0
	DD	000000000r			; 0
	DD	000000000r			; 0
	DD	000000000r			; 0
	DD	000000000r			; 0
	DD	045a10d97r			; 5153.7
	DD	00H
	DD	00H
	DD	00H
	DD	031H
	DD	08H
	DD	03H
	DD	00H
	DD	00H
	DD	00H
	DD	00H
	DD	01H
	DD	000000000r			; 0
	DD	000000000r			; 0
	DD	000000000r			; 0
	DD	000000000r			; 0
	DD	000000000r			; 0
	DD	000000000r			; 0
	DD	000000000r			; 0
	DD	045a10d97r			; 5153.7
	DD	00H
	DD	00H
	DD	00H
	DD	00H
	ORG $+72
	DD	00H
	ORG $+72
	DD	00H
	ORG $+72
	DD	00H
	ORG $+72
	DD	00H
	ORG $+72
	DD	00H
	ORG $+72
	DD	00H
	ORG $+72
	DD	00H
	ORG $+72
	DD	00H
	ORG $+72
	DD	00H
	ORG $+72
	DD	00H
	ORG $+72
	DD	00H
	ORG $+72
	DD	00H
	ORG $+72
	DD	00H
	ORG $+72
	DD	00H
	ORG $+72
	DD	00H
	ORG $+72
	DD	00H
	ORG $+72
	DD	00H
	ORG $+72
	DD	00H
	ORG $+72
	DD	00H
	ORG $+72
	DD	00H
	ORG $+72
	DD	00H
	ORG $+72
	DD	00H
	ORG $+72
	DD	00H
	ORG $+72
	DD	043H
	DD	01eH
	DD	05H
	DD	00H
	DD	00H
	DD	00H
	DD	00H
	DD	01H
	DD	000000000r			; 0
	DD	000000000r			; 0
	DD	000000000r			; 0
	DD	000000000r			; 0
	DD	000000000r			; 0
	DD	000000000r			; 0
	DD	000000000r			; 0
	DD	045a10d97r			; 5153.7
	DD	00H
	DD	00H
	DD	00H
	DD	044H
	DD	01eH
	DD	05H
	DD	00H
	DD	00H
	DD	00H
	DD	00H
	DD	01H
	DD	000000000r			; 0
	DD	000000000r			; 0
	DD	000000000r			; 0
	DD	000000000r			; 0
	DD	000000000r			; 0
	DD	000000000r			; 0
	DD	000000000r			; 0
	DD	045a10d97r			; 5153.7
	DD	00H
	DD	00H
	DD	00H
	DD	013H
	DD	082H
	DD	04H
	DD	00H
	DD	00H
	DD	00H
	DD	01H
	DD	01H
	DD	03fc90fdbr			; 1.5708
	DD	0bff5be0br			; -1.91986
	DD	03ff5be0br			; 1.91986
	DD	03fc90fdbr			; 1.5708
	DD	0bf32b8c2r			; -0.698132
	DD	03e685696r			; 0.226893
	DD	000000000r			; 0
	DD	045a10d97r			; 5153.7
	DD	0cH
	DD	0cH
	DD	03H
	DD	014H
	DD	082H
	DD	04H
	DD	00H
	DD	00H
	DD	00H
	DD	01H
	DD	01H
	DD	03fc90fdbr			; 1.5708
	DD	0bff5be0br			; -1.91986
	DD	03ff5be0br			; 1.91986
	DD	03fc90fdbr			; 1.5708
	DD	0bf32b8c2r			; -0.698132
	DD	03e685696r			; 0.226893
	DD	000000000r			; 0
	DD	045a10d97r			; 5153.7
	DD	0cH
	DD	0cH
	DD	03H
	DD	023H
	DD	05H
	DD	00H
	DD	03H
	DD	00H
	DD	00H
	DD	00H
	DD	02H
	DD	000000000r			; 0
	DD	000000000r			; 0
	DD	000000000r			; 0
	DD	000000000r			; 0
	DD	000000000r			; 0
	DD	000000000r			; 0
	DD	000000000r			; 0
	DD	045a10d97r			; 5153.7
	DD	00H
	DD	00H
	DD	00H
	DD	023H
	DD	05H
	DD	01H
	DD	03H
	DD	00H
	DD	00H
	DD	00H
	DD	02H
	DD	000000000r			; 0
	DD	000000000r			; 0
	DD	000000000r			; 0
	DD	000000000r			; 0
	DD	000000000r			; 0
	DD	000000000r			; 0
	DD	000000000r			; 0
	DD	045a10d97r			; 5153.7
	DD	00H
	DD	00H
	DD	00H
	DD	031H
	DD	08H
	DD	02H
	DD	00H
	DD	00H
	DD	00H
	DD	00H
	DD	01H
	DD	000000000r			; 0
	DD	000000000r			; 0
	DD	000000000r			; 0
	DD	000000000r			; 0
	DD	000000000r			; 0
	DD	000000000r			; 0
	DD	000000000r			; 0
	DD	045a10d97r			; 5153.7
	DD	00H
	DD	00H
	DD	00H
	DD	031H
	DD	08H
	DD	03H
	DD	00H
	DD	00H
	DD	00H
	DD	00H
	DD	01H
	DD	000000000r			; 0
	DD	000000000r			; 0
	DD	000000000r			; 0
	DD	000000000r			; 0
	DD	000000000r			; 0
	DD	000000000r			; 0
	DD	000000000r			; 0
	DD	045a10d97r			; 5153.7
	DD	00H
	DD	00H
	DD	00H
	DD	00H
	ORG $+72
	DD	00H
	ORG $+72
	DD	00H
	ORG $+72
	DD	00H
	ORG $+72
	DD	00H
	ORG $+72
	DD	00H
	ORG $+72
	DD	00H
	ORG $+72
	DD	00H
	ORG $+72
	DD	00H
	ORG $+72
	DD	00H
	ORG $+72
	DD	00H
	ORG $+72
	DD	00H
	ORG $+72
	DD	00H
	ORG $+72
	DD	00H
	ORG $+72
	DD	00H
	ORG $+72
	DD	00H
	ORG $+72
	DD	00H
	ORG $+72
	DD	00H
	ORG $+72
	DD	00H
	ORG $+72
	DD	00H
	ORG $+72
	DD	00H
	ORG $+72
	DD	00H
	ORG $+72
	DD	00H
	ORG $+72
	DD	00H
	ORG $+72
	DD	043H
	DD	01eH
	DD	05H
	DD	00H
	DD	00H
	DD	00H
	DD	00H
	DD	01H
	DD	000000000r			; 0
	DD	000000000r			; 0
	DD	000000000r			; 0
	DD	000000000r			; 0
	DD	000000000r			; 0
	DD	000000000r			; 0
	DD	000000000r			; 0
	DD	045a10d97r			; 5153.7
	DD	00H
	DD	00H
	DD	00H
	DD	044H
	DD	01eH
	DD	05H
	DD	00H
	DD	00H
	DD	00H
	DD	00H
	DD	01H
	DD	000000000r			; 0
	DD	000000000r			; 0
	DD	000000000r			; 0
	DD	000000000r			; 0
	DD	000000000r			; 0
	DD	000000000r			; 0
	DD	000000000r			; 0
	DD	045a10d97r			; 5153.7
	DD	00H
	DD	00H
	DD	00H
	DD	013H
	DD	082H
	DD	04H
	DD	00H
	DD	00H
	DD	00H
	DD	01H
	DD	01H
	DD	03fc90fdbr			; 1.5708
	DD	0bff5be0br			; -1.91986
	DD	03ff5be0br			; 1.91986
	DD	03fc90fdbr			; 1.5708
	DD	0bf32b8c2r			; -0.698132
	DD	03e685696r			; 0.226893
	DD	000000000r			; 0
	DD	045a10d97r			; 5153.7
	DD	0cH
	DD	0cH
	DD	03H
	DD	014H
	DD	082H
	DD	04H
	DD	00H
	DD	00H
	DD	00H
	DD	01H
	DD	01H
	DD	03fc90fdbr			; 1.5708
	DD	0bff5be0br			; -1.91986
	DD	03ff5be0br			; 1.91986
	DD	03fc90fdbr			; 1.5708
	DD	0bf32b8c2r			; -0.698132
	DD	03e685696r			; 0.226893
	DD	000000000r			; 0
	DD	045a10d97r			; 5153.7
	DD	0cH
	DD	0cH
	DD	03H
	DD	0fH
	DD	0faH
	DD	00H
	DD	04H
	DD	00H
	DD	00H
	DD	00H
	DD	02H
	DD	000000000r			; 0
	DD	000000000r			; 0
	DD	000000000r			; 0
	DD	000000000r			; 0
	DD	000000000r			; 0
	DD	000000000r			; 0
	DD	000000000r			; 0
	DD	045a10d97r			; 5153.7
	DD	00H
	DD	00H
	DD	03H
	DD	0fH
	DD	0faH
	DD	01H
	DD	04H
	DD	00H
	DD	00H
	DD	00H
	DD	02H
	DD	000000000r			; 0
	DD	000000000r			; 0
	DD	000000000r			; 0
	DD	000000000r			; 0
	DD	000000000r			; 0
	DD	000000000r			; 0
	DD	000000000r			; 0
	DD	045a10d97r			; 5153.7
	DD	00H
	DD	00H
	DD	03H
	DD	031H
	DD	08H
	DD	02H
	DD	00H
	DD	00H
	DD	00H
	DD	00H
	DD	01H
	DD	000000000r			; 0
	DD	000000000r			; 0
	DD	000000000r			; 0
	DD	000000000r			; 0
	DD	000000000r			; 0
	DD	000000000r			; 0
	DD	000000000r			; 0
	DD	045a10d97r			; 5153.7
	DD	00H
	DD	00H
	DD	00H
	DD	031H
	DD	08H
	DD	03H
	DD	00H
	DD	00H
	DD	00H
	DD	00H
	DD	01H
	DD	000000000r			; 0
	DD	000000000r			; 0
	DD	000000000r			; 0
	DD	000000000r			; 0
	DD	000000000r			; 0
	DD	000000000r			; 0
	DD	000000000r			; 0
	DD	045a10d97r			; 5153.7
	DD	00H
	DD	00H
	DD	00H
	DD	00H
	ORG $+72
	DD	00H
	ORG $+72
	DD	00H
	ORG $+72
	DD	00H
	ORG $+72
	DD	00H
	ORG $+72
	DD	00H
	ORG $+72
	DD	00H
	ORG $+72
	DD	00H
	ORG $+72
	DD	00H
	ORG $+72
	DD	00H
	ORG $+72
	DD	00H
	ORG $+72
	DD	00H
	ORG $+72
	DD	00H
	ORG $+72
	DD	00H
	ORG $+72
	DD	00H
	ORG $+72
	DD	00H
	ORG $+72
	DD	00H
	ORG $+72
	DD	00H
	ORG $+72
	DD	00H
	ORG $+72
	DD	00H
	ORG $+72
	DD	00H
	ORG $+72
	DD	00H
	ORG $+72
	DD	00H
	ORG $+72
	DD	00H
	ORG $+72
	DD	043H
	DD	01eH
	DD	05H
	DD	00H
	DD	00H
	DD	00H
	DD	00H
	DD	01H
	DD	000000000r			; 0
	DD	000000000r			; 0
	DD	000000000r			; 0
	DD	000000000r			; 0
	DD	000000000r			; 0
	DD	000000000r			; 0
	DD	000000000r			; 0
	DD	045a10d97r			; 5153.7
	DD	00H
	DD	00H
	DD	00H
	DD	044H
	DD	01eH
	DD	05H
	DD	00H
	DD	00H
	DD	00H
	DD	00H
	DD	01H
	DD	000000000r			; 0
	DD	000000000r			; 0
	DD	000000000r			; 0
	DD	000000000r			; 0
	DD	000000000r			; 0
	DD	000000000r			; 0
	DD	000000000r			; 0
	DD	045a10d97r			; 5153.7
	DD	00H
	DD	00H
	DD	00H
	DD	013H
	DD	082H
	DD	04H
	DD	00H
	DD	00H
	DD	00H
	DD	01H
	DD	01H
	DD	03fc90fdbr			; 1.5708
	DD	0bff5be0br			; -1.91986
	DD	03ff5be0br			; 1.91986
	DD	03fc90fdbr			; 1.5708
	DD	0bf32b8c2r			; -0.698132
	DD	03e685696r			; 0.226893
	DD	000000000r			; 0
	DD	045a10d97r			; 5153.7
	DD	0cH
	DD	0cH
	DD	03H
	DD	014H
	DD	082H
	DD	04H
	DD	00H
	DD	00H
	DD	00H
	DD	01H
	DD	01H
	DD	03fc90fdbr			; 1.5708
	DD	0bff5be0br			; -1.91986
	DD	03ff5be0br			; 1.91986
	DD	03fc90fdbr			; 1.5708
	DD	0bf32b8c2r			; -0.698132
	DD	03e685696r			; 0.226893
	DD	000000000r			; 0
	DD	045a10d97r			; 5153.7
	DD	0cH
	DD	0cH
	DD	03H
	DD	027H
	DD	04H
	DD	02H
	DD	01H
	DD	00H
	DD	00H
	DD	00H
	DD	01H
	DD	000000000r			; 0
	DD	000000000r			; 0
	DD	000000000r			; 0
	DD	000000000r			; 0
	DD	000000000r			; 0
	DD	000000000r			; 0
	DD	000000000r			; 0
	DD	045a10d97r			; 5153.7
	DD	00H
	DD	00H
	DD	00H
	DD	027H
	DD	04H
	DD	03H
	DD	01H
	DD	00H
	DD	00H
	DD	00H
	DD	01H
	DD	000000000r			; 0
	DD	000000000r			; 0
	DD	000000000r			; 0
	DD	000000000r			; 0
	DD	000000000r			; 0
	DD	000000000r			; 0
	DD	000000000r			; 0
	DD	045a10d97r			; 5153.7
	DD	00H
	DD	00H
	DD	00H
	DD	00H
	ORG $+72
	DD	00H
	ORG $+72
	DD	00H
	ORG $+72
	DD	00H
	ORG $+72
	DD	00H
	ORG $+72
	DD	00H
	ORG $+72
	DD	00H
	ORG $+72
	DD	00H
	ORG $+72
	DD	00H
	ORG $+72
	DD	00H
	ORG $+72
	DD	00H
	ORG $+72
	DD	00H
	ORG $+72
	DD	00H
	ORG $+72
	DD	00H
	ORG $+72
	DD	00H
	ORG $+72
	DD	00H
	ORG $+72
	DD	00H
	ORG $+72
	DD	00H
	ORG $+72
	DD	00H
	ORG $+72
	DD	00H
	ORG $+72
	DD	00H
	ORG $+72
	DD	00H
	ORG $+72
	DD	00H
	ORG $+72
	DD	00H
	ORG $+72
	DD	00H
	ORG $+72
	DD	00H
	ORG $+72
	DD	043H
	DD	01eH
	DD	05H
	DD	00H
	DD	00H
	DD	00H
	DD	00H
	DD	01H
	DD	000000000r			; 0
	DD	000000000r			; 0
	DD	000000000r			; 0
	DD	000000000r			; 0
	DD	000000000r			; 0
	DD	000000000r			; 0
	DD	000000000r			; 0
	DD	045a10d97r			; 5153.7
	DD	00H
	DD	00H
	DD	00H
	DD	044H
	DD	01eH
	DD	05H
	DD	00H
	DD	00H
	DD	00H
	DD	00H
	DD	01H
	DD	000000000r			; 0
	DD	000000000r			; 0
	DD	000000000r			; 0
	DD	000000000r			; 0
	DD	000000000r			; 0
	DD	000000000r			; 0
	DD	000000000r			; 0
	DD	045a10d97r			; 5153.7
	DD	00H
	DD	00H
	DD	00H
	DD	013H
	DD	082H
	DD	04H
	DD	00H
	DD	00H
	DD	00H
	DD	01H
	DD	01H
	DD	03fc90fdbr			; 1.5708
	DD	0bff5be0br			; -1.91986
	DD	03ff5be0br			; 1.91986
	DD	03fc90fdbr			; 1.5708
	DD	0bf32b8c2r			; -0.698132
	DD	03e685696r			; 0.226893
	DD	000000000r			; 0
	DD	045a10d97r			; 5153.7
	DD	0cH
	DD	0cH
	DD	03H
	DD	014H
	DD	082H
	DD	04H
	DD	00H
	DD	00H
	DD	00H
	DD	01H
	DD	01H
	DD	03fc90fdbr			; 1.5708
	DD	0bff5be0br			; -1.91986
	DD	03ff5be0br			; 1.91986
	DD	03fc90fdbr			; 1.5708
	DD	0bf32b8c2r			; -0.698132
	DD	03e685696r			; 0.226893
	DD	000000000r			; 0
	DD	045a10d97r			; 5153.7
	DD	0cH
	DD	0cH
	DD	03H
	DD	027H
	DD	04H
	DD	00H
	DD	01H
	DD	00H
	DD	00H
	DD	00H
	DD	01H
	DD	000000000r			; 0
	DD	000000000r			; 0
	DD	000000000r			; 0
	DD	000000000r			; 0
	DD	000000000r			; 0
	DD	000000000r			; 0
	DD	000000000r			; 0
	DD	045a10d97r			; 5153.7
	DD	00H
	DD	00H
	DD	00H
	DD	027H
	DD	04H
	DD	01H
	DD	01H
	DD	00H
	DD	00H
	DD	00H
	DD	01H
	DD	000000000r			; 0
	DD	000000000r			; 0
	DD	000000000r			; 0
	DD	000000000r			; 0
	DD	000000000r			; 0
	DD	000000000r			; 0
	DD	000000000r			; 0
	DD	045a10d97r			; 5153.7
	DD	00H
	DD	00H
	DD	00H
	DD	027H
	DD	04H
	DD	02H
	DD	01H
	DD	00H
	DD	00H
	DD	00H
	DD	01H
	DD	000000000r			; 0
	DD	000000000r			; 0
	DD	000000000r			; 0
	DD	000000000r			; 0
	DD	000000000r			; 0
	DD	000000000r			; 0
	DD	000000000r			; 0
	DD	045a10d97r			; 5153.7
	DD	00H
	DD	00H
	DD	00H
	DD	027H
	DD	04H
	DD	03H
	DD	01H
	DD	00H
	DD	00H
	DD	00H
	DD	01H
	DD	000000000r			; 0
	DD	000000000r			; 0
	DD	000000000r			; 0
	DD	000000000r			; 0
	DD	000000000r			; 0
	DD	000000000r			; 0
	DD	000000000r			; 0
	DD	045a10d97r			; 5153.7
	DD	00H
	DD	00H
	DD	00H
	DD	00H
	ORG $+72
	DD	00H
	ORG $+72
	DD	00H
	ORG $+72
	DD	00H
	ORG $+72
	DD	00H
	ORG $+72
	DD	00H
	ORG $+72
	DD	00H
	ORG $+72
	DD	00H
	ORG $+72
	DD	00H
	ORG $+72
	DD	00H
	ORG $+72
	DD	00H
	ORG $+72
	DD	00H
	ORG $+72
	DD	00H
	ORG $+72
	DD	00H
	ORG $+72
	DD	00H
	ORG $+72
	DD	00H
	ORG $+72
	DD	00H
	ORG $+72
	DD	00H
	ORG $+72
	DD	00H
	ORG $+72
	DD	00H
	ORG $+72
	DD	00H
	ORG $+72
	DD	00H
	ORG $+72
	DD	00H
	ORG $+72
	DD	00H
	ORG $+72
	DD	043H
	DD	01eH
	DD	05H
	DD	00H
	DD	00H
	DD	00H
	DD	00H
	DD	01H
	DD	000000000r			; 0
	DD	000000000r			; 0
	DD	000000000r			; 0
	DD	000000000r			; 0
	DD	000000000r			; 0
	DD	000000000r			; 0
	DD	000000000r			; 0
	DD	045a10d97r			; 5153.7
	DD	00H
	DD	00H
	DD	00H
	DD	044H
	DD	01eH
	DD	05H
	DD	00H
	DD	00H
	DD	00H
	DD	00H
	DD	01H
	DD	000000000r			; 0
	DD	000000000r			; 0
	DD	000000000r			; 0
	DD	000000000r			; 0
	DD	000000000r			; 0
	DD	000000000r			; 0
	DD	000000000r			; 0
	DD	045a10d97r			; 5153.7
	DD	00H
	DD	00H
	DD	00H
	DD	013H
	DD	082H
	DD	04H
	DD	00H
	DD	00H
	DD	00H
	DD	01H
	DD	01H
	DD	03fc90fdbr			; 1.5708
	DD	0bff5be0br			; -1.91986
	DD	03ff5be0br			; 1.91986
	DD	03fc90fdbr			; 1.5708
	DD	0bf32b8c2r			; -0.698132
	DD	03e685696r			; 0.226893
	DD	000000000r			; 0
	DD	045a10d97r			; 5153.7
	DD	0cH
	DD	0cH
	DD	03H
	DD	014H
	DD	082H
	DD	04H
	DD	00H
	DD	00H
	DD	00H
	DD	01H
	DD	01H
	DD	03fc90fdbr			; 1.5708
	DD	0bff5be0br			; -1.91986
	DD	03ff5be0br			; 1.91986
	DD	03fc90fdbr			; 1.5708
	DD	0bf32b8c2r			; -0.698132
	DD	03e685696r			; 0.226893
	DD	000000000r			; 0
	DD	045a10d97r			; 5153.7
	DD	0cH
	DD	0cH
	DD	03H
	DD	022H
	DD	014H
	DD	00H
	DD	02H
	DD	00H
	DD	00H
	DD	00H
	DD	02H
	DD	000000000r			; 0
	DD	000000000r			; 0
	DD	000000000r			; 0
	DD	000000000r			; 0
	DD	000000000r			; 0
	DD	000000000r			; 0
	DD	000000000r			; 0
	DD	045a10d97r			; 5153.7
	DD	00H
	DD	00H
	DD	00H
	DD	022H
	DD	014H
	DD	01H
	DD	02H
	DD	00H
	DD	00H
	DD	00H
	DD	02H
	DD	000000000r			; 0
	DD	000000000r			; 0
	DD	000000000r			; 0
	DD	000000000r			; 0
	DD	000000000r			; 0
	DD	000000000r			; 0
	DD	000000000r			; 0
	DD	045a10d97r			; 5153.7
	DD	00H
	DD	00H
	DD	00H
	DD	027H
	DD	04H
	DD	02H
	DD	01H
	DD	00H
	DD	00H
	DD	00H
	DD	01H
	DD	000000000r			; 0
	DD	000000000r			; 0
	DD	000000000r			; 0
	DD	000000000r			; 0
	DD	000000000r			; 0
	DD	000000000r			; 0
	DD	000000000r			; 0
	DD	045a10d97r			; 5153.7
	DD	00H
	DD	00H
	DD	00H
	DD	027H
	DD	04H
	DD	03H
	DD	01H
	DD	00H
	DD	00H
	DD	00H
	DD	01H
	DD	000000000r			; 0
	DD	000000000r			; 0
	DD	000000000r			; 0
	DD	000000000r			; 0
	DD	000000000r			; 0
	DD	000000000r			; 0
	DD	000000000r			; 0
	DD	045a10d97r			; 5153.7
	DD	00H
	DD	00H
	DD	00H
	DD	00H
	ORG $+72
	DD	00H
	ORG $+72
	DD	00H
	ORG $+72
	DD	00H
	ORG $+72
	DD	00H
	ORG $+72
	DD	00H
	ORG $+72
	DD	00H
	ORG $+72
	DD	00H
	ORG $+72
	DD	00H
	ORG $+72
	DD	00H
	ORG $+72
	DD	00H
	ORG $+72
	DD	00H
	ORG $+72
	DD	00H
	ORG $+72
	DD	00H
	ORG $+72
	DD	00H
	ORG $+72
	DD	00H
	ORG $+72
	DD	00H
	ORG $+72
	DD	00H
	ORG $+72
	DD	00H
	ORG $+72
	DD	00H
	ORG $+72
	DD	00H
	ORG $+72
	DD	00H
	ORG $+72
	DD	00H
	ORG $+72
	DD	00H
	ORG $+72
	DD	043H
	DD	01eH
	DD	05H
	DD	00H
	DD	00H
	DD	00H
	DD	00H
	DD	01H
	DD	000000000r			; 0
	DD	000000000r			; 0
	DD	000000000r			; 0
	DD	000000000r			; 0
	DD	000000000r			; 0
	DD	000000000r			; 0
	DD	000000000r			; 0
	DD	045a10d97r			; 5153.7
	DD	00H
	DD	00H
	DD	00H
	DD	044H
	DD	01eH
	DD	05H
	DD	00H
	DD	00H
	DD	00H
	DD	00H
	DD	01H
	DD	000000000r			; 0
	DD	000000000r			; 0
	DD	000000000r			; 0
	DD	000000000r			; 0
	DD	000000000r			; 0
	DD	000000000r			; 0
	DD	000000000r			; 0
	DD	045a10d97r			; 5153.7
	DD	00H
	DD	00H
	DD	00H
	DD	013H
	DD	082H
	DD	04H
	DD	00H
	DD	00H
	DD	00H
	DD	01H
	DD	01H
	DD	03fc90fdbr			; 1.5708
	DD	0bff5be0br			; -1.91986
	DD	03ff5be0br			; 1.91986
	DD	03fc90fdbr			; 1.5708
	DD	0bf32b8c2r			; -0.698132
	DD	03e685696r			; 0.226893
	DD	000000000r			; 0
	DD	045a10d97r			; 5153.7
	DD	0cH
	DD	0cH
	DD	03H
	DD	014H
	DD	082H
	DD	04H
	DD	00H
	DD	00H
	DD	00H
	DD	01H
	DD	01H
	DD	03fc90fdbr			; 1.5708
	DD	0bff5be0br			; -1.91986
	DD	03ff5be0br			; 1.91986
	DD	03fc90fdbr			; 1.5708
	DD	0bf32b8c2r			; -0.698132
	DD	03e685696r			; 0.226893
	DD	000000000r			; 0
	DD	045a10d97r			; 5153.7
	DD	0cH
	DD	0cH
	DD	03H
	DD	023H
	DD	05H
	DD	00H
	DD	03H
	DD	00H
	DD	00H
	DD	00H
	DD	02H
	DD	000000000r			; 0
	DD	000000000r			; 0
	DD	000000000r			; 0
	DD	000000000r			; 0
	DD	000000000r			; 0
	DD	000000000r			; 0
	DD	000000000r			; 0
	DD	045a10d97r			; 5153.7
	DD	00H
	DD	00H
	DD	00H
	DD	023H
	DD	05H
	DD	01H
	DD	03H
	DD	00H
	DD	00H
	DD	00H
	DD	02H
	DD	000000000r			; 0
	DD	000000000r			; 0
	DD	000000000r			; 0
	DD	000000000r			; 0
	DD	000000000r			; 0
	DD	000000000r			; 0
	DD	000000000r			; 0
	DD	045a10d97r			; 5153.7
	DD	00H
	DD	00H
	DD	00H
	DD	027H
	DD	04H
	DD	02H
	DD	01H
	DD	00H
	DD	00H
	DD	00H
	DD	01H
	DD	000000000r			; 0
	DD	000000000r			; 0
	DD	000000000r			; 0
	DD	000000000r			; 0
	DD	000000000r			; 0
	DD	000000000r			; 0
	DD	000000000r			; 0
	DD	045a10d97r			; 5153.7
	DD	00H
	DD	00H
	DD	00H
	DD	027H
	DD	04H
	DD	03H
	DD	01H
	DD	00H
	DD	00H
	DD	00H
	DD	01H
	DD	000000000r			; 0
	DD	000000000r			; 0
	DD	000000000r			; 0
	DD	000000000r			; 0
	DD	000000000r			; 0
	DD	000000000r			; 0
	DD	000000000r			; 0
	DD	045a10d97r			; 5153.7
	DD	00H
	DD	00H
	DD	00H
	DD	00H
	ORG $+72
	DD	00H
	ORG $+72
	DD	00H
	ORG $+72
	DD	00H
	ORG $+72
	DD	00H
	ORG $+72
	DD	00H
	ORG $+72
	DD	00H
	ORG $+72
	DD	00H
	ORG $+72
	DD	00H
	ORG $+72
	DD	00H
	ORG $+72
	DD	00H
	ORG $+72
	DD	00H
	ORG $+72
	DD	00H
	ORG $+72
	DD	00H
	ORG $+72
	DD	00H
	ORG $+72
	DD	00H
	ORG $+72
	DD	00H
	ORG $+72
	DD	00H
	ORG $+72
	DD	00H
	ORG $+72
	DD	00H
	ORG $+72
	DD	00H
	ORG $+72
	DD	00H
	ORG $+72
	DD	00H
	ORG $+72
	DD	00H
	ORG $+72
	DD	043H
	DD	01eH
	DD	05H
	DD	00H
	DD	00H
	DD	00H
	DD	00H
	DD	01H
	DD	000000000r			; 0
	DD	000000000r			; 0
	DD	000000000r			; 0
	DD	000000000r			; 0
	DD	000000000r			; 0
	DD	000000000r			; 0
	DD	000000000r			; 0
	DD	045a10d97r			; 5153.7
	DD	00H
	DD	00H
	DD	00H
	DD	044H
	DD	01eH
	DD	05H
	DD	00H
	DD	00H
	DD	00H
	DD	00H
	DD	01H
	DD	000000000r			; 0
	DD	000000000r			; 0
	DD	000000000r			; 0
	DD	000000000r			; 0
	DD	000000000r			; 0
	DD	000000000r			; 0
	DD	000000000r			; 0
	DD	045a10d97r			; 5153.7
	DD	00H
	DD	00H
	DD	00H
	DD	013H
	DD	082H
	DD	04H
	DD	00H
	DD	00H
	DD	00H
	DD	01H
	DD	01H
	DD	03fc90fdbr			; 1.5708
	DD	0bff5be0br			; -1.91986
	DD	03ff5be0br			; 1.91986
	DD	03fc90fdbr			; 1.5708
	DD	0bf32b8c2r			; -0.698132
	DD	03e685696r			; 0.226893
	DD	000000000r			; 0
	DD	045a10d97r			; 5153.7
	DD	0cH
	DD	0cH
	DD	03H
	DD	014H
	DD	082H
	DD	04H
	DD	00H
	DD	00H
	DD	00H
	DD	01H
	DD	01H
	DD	03fc90fdbr			; 1.5708
	DD	0bff5be0br			; -1.91986
	DD	03ff5be0br			; 1.91986
	DD	03fc90fdbr			; 1.5708
	DD	0bf32b8c2r			; -0.698132
	DD	03e685696r			; 0.226893
	DD	000000000r			; 0
	DD	045a10d97r			; 5153.7
	DD	0cH
	DD	0cH
	DD	03H
	DD	0fH
	DD	0faH
	DD	00H
	DD	04H
	DD	00H
	DD	00H
	DD	00H
	DD	02H
	DD	000000000r			; 0
	DD	000000000r			; 0
	DD	000000000r			; 0
	DD	000000000r			; 0
	DD	000000000r			; 0
	DD	000000000r			; 0
	DD	000000000r			; 0
	DD	045a10d97r			; 5153.7
	DD	00H
	DD	00H
	DD	03H
	DD	0fH
	DD	0faH
	DD	01H
	DD	04H
	DD	00H
	DD	00H
	DD	00H
	DD	02H
	DD	000000000r			; 0
	DD	000000000r			; 0
	DD	000000000r			; 0
	DD	000000000r			; 0
	DD	000000000r			; 0
	DD	000000000r			; 0
	DD	000000000r			; 0
	DD	045a10d97r			; 5153.7
	DD	00H
	DD	00H
	DD	03H
	DD	027H
	DD	04H
	DD	02H
	DD	01H
	DD	00H
	DD	00H
	DD	00H
	DD	01H
	DD	000000000r			; 0
	DD	000000000r			; 0
	DD	000000000r			; 0
	DD	000000000r			; 0
	DD	000000000r			; 0
	DD	000000000r			; 0
	DD	000000000r			; 0
	DD	045a10d97r			; 5153.7
	DD	00H
	DD	00H
	DD	00H
	DD	027H
	DD	04H
	DD	03H
	DD	01H
	DD	00H
	DD	00H
	DD	00H
	DD	01H
	DD	000000000r			; 0
	DD	000000000r			; 0
	DD	000000000r			; 0
	DD	000000000r			; 0
	DD	000000000r			; 0
	DD	000000000r			; 0
	DD	000000000r			; 0
	DD	045a10d97r			; 5153.7
	DD	00H
	DD	00H
	DD	00H
	DD	00H
	ORG $+72
	DD	00H
	ORG $+72
	DD	00H
	ORG $+72
	DD	00H
	ORG $+72
	DD	00H
	ORG $+72
	DD	00H
	ORG $+72
	DD	00H
	ORG $+72
	DD	00H
	ORG $+72
	DD	00H
	ORG $+72
	DD	00H
	ORG $+72
	DD	00H
	ORG $+72
	DD	00H
	ORG $+72
	DD	00H
	ORG $+72
	DD	00H
	ORG $+72
	DD	00H
	ORG $+72
	DD	00H
	ORG $+72
	DD	00H
	ORG $+72
	DD	00H
	ORG $+72
	DD	00H
	ORG $+72
	DD	00H
	ORG $+72
	DD	00H
	ORG $+72
	DD	00H
	ORG $+72
	DD	00H
	ORG $+72
	DD	00H
	ORG $+72
	DD	043H
	DD	01eH
	DD	05H
	DD	00H
	DD	00H
	DD	00H
	DD	00H
	DD	01H
	DD	000000000r			; 0
	DD	000000000r			; 0
	DD	000000000r			; 0
	DD	000000000r			; 0
