; Listing generated by Microsoft (R) Optimizing Compiler Version 19.16.27045.0 

	TITLE	C:\Users\nhv90\Projects\eech\aphavoc\source\entity\mobile\weapon\wn_load.c
	.686P
	.XMM
	include listing.inc
	.model	flat

INCLUDELIB MSVCRTD
INCLUDELIB OLDNAMES

PUBLIC	?initialise_weapon_loading_gunship_database@@YGXXZ ; initialise_weapon_loading_gunship_database
PUBLIC	?deinitialise_weapon_loading_gunship_database@@YGXXZ ; deinitialise_weapon_loading_gunship_database
PUBLIC	?deactivate_weapon_payload_markers@@YGXPAUENTITY@@@Z ; deactivate_weapon_payload_markers
PUBLIC	?weapon_loading_update_currently_selected_weapons@@YGXPAUENTITY@@@Z ; weapon_loading_update_currently_selected_weapons
PUBLIC	?weapon_loading_get_current_hardpoint_weapon@@YGHW4GUNSHIP_TYPES@@W4WEAPON_LOADING_HARDPOINT_TYPES@@@Z ; weapon_loading_get_current_hardpoint_weapon
PUBLIC	?weapon_loading_select_next_weapon@@YGXPAUENTITY@@W4WEAPON_LOADING_HARDPOINT_TYPES@@@Z ; weapon_loading_select_next_weapon
PUBLIC	?weapon_loading_get_valid_weapon_count@@YGHPAUENTITY@@W4WEAPON_LOADING_HARDPOINT_TYPES@@@Z ; weapon_loading_get_valid_weapon_count
PUBLIC	?get_weapon_loading_hardpoint_weapon_count@@YGHPAUENTITY@@W4WEAPON_LOADING_HARDPOINT_TYPES@@H@Z ; get_weapon_loading_hardpoint_weapon_count
PUBLIC	?weapon_loading_set_default_air_to_air_config@@YGXPAUENTITY@@@Z ; weapon_loading_set_default_air_to_air_config
PUBLIC	?weapon_loading_set_default_air_to_ground_config@@YGXPAUENTITY@@@Z ; weapon_loading_set_default_air_to_ground_config
PUBLIC	?__LINE__Var@?0??deinitialise_weapon_loading_gunship_database@@YGXXZ@4JA ; `deinitialise_weapon_loading_gunship_database'::`1'::__LINE__Var
PUBLIC	??_C@_0EL@EPAAMPOO@c?3?2users?2nhv90?2projects?2eech?2ap@ ; `string'
PUBLIC	??_C@_0CD@FFIBIHGL@hardpoint_data?9?$DOvalid_weapon_ty@ ; `string'
PUBLIC	?__LINE__Var@?0??deactivate_weapon_payload_markers@@YGXPAUENTITY@@@Z@4JA ; `deactivate_weapon_payload_markers'::`1'::__LINE__Var
PUBLIC	??_C@_02LFNMGJAP@en@				; `string'
PUBLIC	??_C@_06DDNABPCD@inst3d@			; `string'
PUBLIC	?__LINE__Var@?0??get_weapon_config@@YG?AW4WEAPON_CONFIG_TYPES@@W4GUNSHIP_TYPES@@QBH@Z@4JA ; `get_weapon_config'::`1'::__LINE__Var
PUBLIC	??_C@_0DG@JBGOKNKA@gunship_type?5?$DO?$DN?50?5?$CG?$CG?5gunship_ty@ ; `string'
PUBLIC	??_C@_0CG@CJELHCOG@ac_data?9?$DOgunship_type?5?$DN?$DN?5gunshi@ ; `string'
PUBLIC	?__LINE__Var@?0??get_weapons_from_weapon_config@@YGXW4GUNSHIP_TYPES@@W4WEAPON_CONFIG_TYPES@@QAH@Z@4JA ; `get_weapons_from_weapon_config'::`1'::__LINE__Var
PUBLIC	??_C@_0JL@KLELLBKM@?$CIweapon_config_type?5?$DN?$DN?5WEAPON_C@ ; `string'
PUBLIC	?__LINE__Var@?0??set_hardpoint_weapons@@YGXW4GUNSHIP_TYPES@@QBH@Z@4JA ; `set_hardpoint_weapons'::`1'::__LINE__Var
PUBLIC	?__LINE__Var@?0??get_current_hardpoint_weapon@@YGXW4GUNSHIP_TYPES@@QAH@Z@4JA ; `get_current_hardpoint_weapon'::`1'::__LINE__Var
PUBLIC	?__LINE__Var@?0??weapon_loading_set_current_hardpoint_weapon@@YGXW4GUNSHIP_TYPES@@W4WEAPON_LOADING_HARDPOINT_TYPES@@H@Z@4JA ; `weapon_loading_set_current_hardpoint_weapon'::`1'::__LINE__Var
PUBLIC	??_C@_0CP@BHLHFPLO@hardpoint?5?$DM?5NUM_WEAPON_LOADING_@ ; `string'
PUBLIC	??_C@_0BG@OHMLNJBE@hardpoint_data?9?$DOvalid@	; `string'
PUBLIC	??_C@_0DF@LOOCINJK@WN_LOAD?5?3?5Invalid?5weapon?5type?5?$CI@ ; `string'
PUBLIC	?__LINE__Var@?0??weapon_loading_get_current_hardpoint_weapon@@YGHW4GUNSHIP_TYPES@@W4WEAPON_LOADING_HARDPOINT_TYPES@@@Z@4JA ; `weapon_loading_get_current_hardpoint_weapon'::`1'::__LINE__Var
PUBLIC	?__LINE__Var@?0??weapon_loading_select_next_weapon@@YGXPAUENTITY@@W4WEAPON_LOADING_HARDPOINT_TYPES@@@Z@4JA ; `weapon_loading_select_next_weapon'::`1'::__LINE__Var
PUBLIC	??_C@_0CB@NCHKICBO@gunship_type?5?$DM?5NUM_GUNSHIP_TYPE@ ; `string'
PUBLIC	?__LINE__Var@?0??weapon_loading_get_valid_weapon_count@@YGHPAUENTITY@@W4WEAPON_LOADING_HARDPOINT_TYPES@@@Z@4JA ; `weapon_loading_get_valid_weapon_count'::`1'::__LINE__Var
PUBLIC	?__LINE__Var@?0??weapon_loading_set_default_air_to_air_config@@YGXPAUENTITY@@@Z@4JA ; `weapon_loading_set_default_air_to_air_config'::`1'::__LINE__Var
PUBLIC	?__LINE__Var@?0??weapon_loading_set_default_air_to_ground_config@@YGXPAUENTITY@@@Z@4JA ; `weapon_loading_set_default_air_to_ground_config'::`1'::__LINE__Var
PUBLIC	?__LINE__Var@?0??weapon_loading_update_currently_selected_weapons@@YGXPAUENTITY@@@Z@4JA ; `weapon_loading_update_currently_selected_weapons'::`1'::__LINE__Var
PUBLIC	?__LINE__Var@?0??weapon_loading_reload_all_weapons@@YGXPAUENTITY@@@Z@4JA ; `weapon_loading_reload_all_weapons'::`1'::__LINE__Var
PUBLIC	?__LINE__Var@?0??get_weapon_loading_hardpoint_weapon_count@@YGHPAUENTITY@@W4WEAPON_LOADING_HARDPOINT_TYPES@@H@Z@4JA ; `get_weapon_loading_hardpoint_weapon_count'::`1'::__LINE__Var
EXTRN	_memset:PROC
EXTRN	?process_assert@@YGXPBD0H@Z:PROC		; process_assert
EXTRN	?debug_fatal@@YAXPBDZZ:PROC			; debug_fatal
EXTRN	?safe_malloc_memory@@YGPAXI@Z:PROC		; safe_malloc_memory
EXTRN	?safe_free@@YGXPAX@Z:PROC			; safe_free
EXTRN	?set_sub_object_type_visible_status@@YGHPAUOBJECT_3D_INSTANCE@@HH@Z:PROC ; set_sub_object_type_visible_status
EXTRN	?check_weapon_on_hardpoint@@YGHW4WEAPON_CONFIG_TYPES@@HH@Z:PROC ; check_weapon_on_hardpoint
EXTRN	?check_hardpoint_clean@@YGHW4WEAPON_CONFIG_TYPES@@H@Z:PROC ; check_hardpoint_clean
EXTRN	?get_local_entity_weapon_hardpoint_info@@YGHPAUENTITY@@HHPAH11@Z:PROC ; get_local_entity_weapon_hardpoint_info
EXTRN	?set_flight_dynamics_mass@@YGMXZ:PROC		; set_flight_dynamics_mass
EXTRN	?entity_sub_type_weapon_names@@3PAPBDA:BYTE	; entity_sub_type_weapon_names
EXTRN	?null_entity_pointer_message@@3PBDB:DWORD	; null_entity_pointer_message
EXTRN	?gunship_sub_types@@3PAHA:BYTE			; gunship_sub_types
EXTRN	?system_comms_model@@3W4COMMS_MODEL_TYPES@@A:DWORD ; system_comms_model
EXTRN	?overload_invalid_int_type_message@@3PBDB:DWORD	; overload_invalid_int_type_message
EXTRN	?fn_set_client_server_entity_int_value@@3PAY1BBH@1P6GXPAUENTITY@@W4INT_TYPES@@H@ZA:BYTE ; fn_set_client_server_entity_int_value
EXTRN	?fn_get_local_entity_int_value@@3PAY0BBH@P6GHPAUENTITY@@W4INT_TYPES@@@ZA:BYTE ; fn_get_local_entity_int_value
EXTRN	?overload_invalid_ptr_type_message@@3PBDB:DWORD	; overload_invalid_ptr_type_message
EXTRN	?fn_get_local_entity_ptr_value@@3PAY0BE@P6GPAXPAUENTITY@@W4PTR_TYPES@@@ZA:BYTE ; fn_get_local_entity_ptr_value
EXTRN	?weapon_config_database@@3PAY0CA@UWEAPON_PACKAGE@@A:BYTE ; weapon_config_database
EXTRN	?aircraft_database@@3PAUAIRCRAFT_DATA@@A:BYTE	; aircraft_database
EXTRN	?gunship_entity@@3PAUENTITY@@A:DWORD		; gunship_entity
EXTRN	__fltused:DWORD
_BSS	SEGMENT
?weapon_loading_gunship_database@@3PAUWEAPON_LOADING_GUNSHIP_TYPE@@A DB 0690H DUP (?) ; weapon_loading_gunship_database
_BSS	ENDS
;	COMDAT ?__LINE__Var@?0??get_weapon_loading_hardpoint_weapon_count@@YGHPAUENTITY@@W4WEAPON_LOADING_HARDPOINT_TYPES@@H@Z@4JA
_DATA	SEGMENT
?__LINE__Var@?0??get_weapon_loading_hardpoint_weapon_count@@YGHPAUENTITY@@W4WEAPON_LOADING_HARDPOINT_TYPES@@H@Z@4JA DD 065dH ; `get_weapon_loading_hardpoint_weapon_count'::`1'::__LINE__Var
_DATA	ENDS
;	COMDAT ?__LINE__Var@?0??weapon_loading_reload_all_weapons@@YGXPAUENTITY@@@Z@4JA
_DATA	SEGMENT
?__LINE__Var@?0??weapon_loading_reload_all_weapons@@YGXPAUENTITY@@@Z@4JA DD 0636H ; `weapon_loading_reload_all_weapons'::`1'::__LINE__Var
_DATA	ENDS
;	COMDAT ?__LINE__Var@?0??weapon_loading_update_currently_selected_weapons@@YGXPAUENTITY@@@Z@4JA
_DATA	SEGMENT
?__LINE__Var@?0??weapon_loading_update_currently_selected_weapons@@YGXPAUENTITY@@@Z@4JA DD 0618H ; `weapon_loading_update_currently_selected_weapons'::`1'::__LINE__Var
_DATA	ENDS
;	COMDAT ?__LINE__Var@?0??weapon_loading_set_default_air_to_ground_config@@YGXPAUENTITY@@@Z@4JA
_DATA	SEGMENT
?__LINE__Var@?0??weapon_loading_set_default_air_to_ground_config@@YGXPAUENTITY@@@Z@4JA DD 0606H ; `weapon_loading_set_default_air_to_ground_config'::`1'::__LINE__Var
_DATA	ENDS
;	COMDAT ?__LINE__Var@?0??weapon_loading_set_default_air_to_air_config@@YGXPAUENTITY@@@Z@4JA
_DATA	SEGMENT
?__LINE__Var@?0??weapon_loading_set_default_air_to_air_config@@YGXPAUENTITY@@@Z@4JA DD 05f4H ; `weapon_loading_set_default_air_to_air_config'::`1'::__LINE__Var
_DATA	ENDS
;	COMDAT ?__LINE__Var@?0??weapon_loading_get_valid_weapon_count@@YGHPAUENTITY@@W4WEAPON_LOADING_HARDPOINT_TYPES@@@Z@4JA
_DATA	SEGMENT
?__LINE__Var@?0??weapon_loading_get_valid_weapon_count@@YGHPAUENTITY@@W4WEAPON_LOADING_HARDPOINT_TYPES@@@Z@4JA DD 05d6H ; `weapon_loading_get_valid_weapon_count'::`1'::__LINE__Var
_DATA	ENDS
;	COMDAT ??_C@_0CB@NCHKICBO@gunship_type?5?$DM?5NUM_GUNSHIP_TYPE@
CONST	SEGMENT
??_C@_0CB@NCHKICBO@gunship_type?5?$DM?5NUM_GUNSHIP_TYPE@ DB 'gunship_type'
	DB	' < NUM_GUNSHIP_TYPES', 00H			; `string'
CONST	ENDS
;	COMDAT ?__LINE__Var@?0??weapon_loading_select_next_weapon@@YGXPAUENTITY@@W4WEAPON_LOADING_HARDPOINT_TYPES@@@Z@4JA
_DATA	SEGMENT
?__LINE__Var@?0??weapon_loading_select_next_weapon@@YGXPAUENTITY@@W4WEAPON_LOADING_HARDPOINT_TYPES@@@Z@4JA DD 05a1H ; `weapon_loading_select_next_weapon'::`1'::__LINE__Var
_DATA	ENDS
;	COMDAT ?__LINE__Var@?0??weapon_loading_get_current_hardpoint_weapon@@YGHW4GUNSHIP_TYPES@@W4WEAPON_LOADING_HARDPOINT_TYPES@@@Z@4JA
_DATA	SEGMENT
?__LINE__Var@?0??weapon_loading_get_current_hardpoint_weapon@@YGHW4GUNSHIP_TYPES@@W4WEAPON_LOADING_HARDPOINT_TYPES@@@Z@4JA DD 058aH ; `weapon_loading_get_current_hardpoint_weapon'::`1'::__LINE__Var
_DATA	ENDS
;	COMDAT ??_C@_0DF@LOOCINJK@WN_LOAD?5?3?5Invalid?5weapon?5type?5?$CI@
CONST	SEGMENT
??_C@_0DF@LOOCINJK@WN_LOAD?5?3?5Invalid?5weapon?5type?5?$CI@ DB 'WN_LOAD '
	DB	': Invalid weapon type ( %s ) on hardpoint %d', 00H ; `string'
CONST	ENDS
;	COMDAT ??_C@_0BG@OHMLNJBE@hardpoint_data?9?$DOvalid@
CONST	SEGMENT
??_C@_0BG@OHMLNJBE@hardpoint_data?9?$DOvalid@ DB 'hardpoint_data->valid', 00H ; `string'
CONST	ENDS
;	COMDAT ??_C@_0CP@BHLHFPLO@hardpoint?5?$DM?5NUM_WEAPON_LOADING_@
CONST	SEGMENT
??_C@_0CP@BHLHFPLO@hardpoint?5?$DM?5NUM_WEAPON_LOADING_@ DB 'hardpoint < '
	DB	'NUM_WEAPON_LOADING_HARDPOINT_TYPES', 00H	; `string'
CONST	ENDS
;	COMDAT ?__LINE__Var@?0??weapon_loading_set_current_hardpoint_weapon@@YGXW4GUNSHIP_TYPES@@W4WEAPON_LOADING_HARDPOINT_TYPES@@H@Z@4JA
_DATA	SEGMENT
?__LINE__Var@?0??weapon_loading_set_current_hardpoint_weapon@@YGXW4GUNSHIP_TYPES@@W4WEAPON_LOADING_HARDPOINT_TYPES@@H@Z@4JA DD 0560H ; `weapon_loading_set_current_hardpoint_weapon'::`1'::__LINE__Var
_DATA	ENDS
;	COMDAT ?__LINE__Var@?0??get_current_hardpoint_weapon@@YGXW4GUNSHIP_TYPES@@QAH@Z@4JA
_DATA	SEGMENT
?__LINE__Var@?0??get_current_hardpoint_weapon@@YGXW4GUNSHIP_TYPES@@QAH@Z@4JA DD 053fH ; `get_current_hardpoint_weapon'::`1'::__LINE__Var
_DATA	ENDS
;	COMDAT ?__LINE__Var@?0??set_hardpoint_weapons@@YGXW4GUNSHIP_TYPES@@QBH@Z@4JA
_DATA	SEGMENT
?__LINE__Var@?0??set_hardpoint_weapons@@YGXW4GUNSHIP_TYPES@@QBH@Z@4JA DD 051fH ; `set_hardpoint_weapons'::`1'::__LINE__Var
_DATA	ENDS
;	COMDAT ??_C@_0JL@KLELLBKM@?$CIweapon_config_type?5?$DN?$DN?5WEAPON_C@
CONST	SEGMENT
??_C@_0JL@KLELLBKM@?$CIweapon_config_type?5?$DN?$DN?5WEAPON_C@ DB '(weapo'
	DB	'n_config_type == WEAPON_CONFIG_TYPE_UNARMED) || ( (weapon_con'
	DB	'fig_type >= min_weapon_config_type) && (weapon_config_type <='
	DB	' max_weapon_config_type) )', 00H		; `string'
CONST	ENDS
;	COMDAT ?__LINE__Var@?0??get_weapons_from_weapon_config@@YGXW4GUNSHIP_TYPES@@W4WEAPON_CONFIG_TYPES@@QAH@Z@4JA
_DATA	SEGMENT
?__LINE__Var@?0??get_weapons_from_weapon_config@@YGXW4GUNSHIP_TYPES@@W4WEAPON_CONFIG_TYPES@@QAH@Z@4JA DD 04c7H ; `get_weapons_from_weapon_config'::`1'::__LINE__Var
_DATA	ENDS
;	COMDAT ??_C@_0CG@CJELHCOG@ac_data?9?$DOgunship_type?5?$DN?$DN?5gunshi@
CONST	SEGMENT
??_C@_0CG@CJELHCOG@ac_data?9?$DOgunship_type?5?$DN?$DN?5gunshi@ DB 'ac_da'
	DB	'ta->gunship_type == gunship_type', 00H	; `string'
CONST	ENDS
;	COMDAT ??_C@_0DG@JBGOKNKA@gunship_type?5?$DO?$DN?50?5?$CG?$CG?5gunship_ty@
CONST	SEGMENT
??_C@_0DG@JBGOKNKA@gunship_type?5?$DO?$DN?50?5?$CG?$CG?5gunship_ty@ DB 'g'
	DB	'unship_type >= 0 && gunship_type < NUM_GUNSHIP_TYPES', 00H ; `string'
CONST	ENDS
;	COMDAT ?__LINE__Var@?0??get_weapon_config@@YG?AW4WEAPON_CONFIG_TYPES@@W4GUNSHIP_TYPES@@QBH@Z@4JA
_DATA	SEGMENT
?__LINE__Var@?0??get_weapon_config@@YG?AW4WEAPON_CONFIG_TYPES@@W4GUNSHIP_TYPES@@QBH@Z@4JA DD 0484H ; `get_weapon_config'::`1'::__LINE__Var
_DATA	ENDS
;	COMDAT ??_C@_06DDNABPCD@inst3d@
CONST	SEGMENT
??_C@_06DDNABPCD@inst3d@ DB 'inst3d', 00H		; `string'
CONST	ENDS
;	COMDAT ??_C@_02LFNMGJAP@en@
CONST	SEGMENT
??_C@_02LFNMGJAP@en@ DB 'en', 00H			; `string'
CONST	ENDS
;	COMDAT ?__LINE__Var@?0??deactivate_weapon_payload_markers@@YGXPAUENTITY@@@Z@4JA
_DATA	SEGMENT
?__LINE__Var@?0??deactivate_weapon_payload_markers@@YGXPAUENTITY@@@Z@4JA DD 0450H ; `deactivate_weapon_payload_markers'::`1'::__LINE__Var
_DATA	ENDS
;	COMDAT ??_C@_0CD@FFIBIHGL@hardpoint_data?9?$DOvalid_weapon_ty@
CONST	SEGMENT
??_C@_0CD@FFIBIHGL@hardpoint_data?9?$DOvalid_weapon_ty@ DB 'hardpoint_dat'
	DB	'a->valid_weapon_types', 00H			; `string'
CONST	ENDS
;	COMDAT ??_C@_0EL@EPAAMPOO@c?3?2users?2nhv90?2projects?2eech?2ap@
CONST	SEGMENT
??_C@_0EL@EPAAMPOO@c?3?2users?2nhv90?2projects?2eech?2ap@ DB 'c:\users\nh'
	DB	'v90\projects\eech\aphavoc\source\entity\mobile\weapon\wn_load'
	DB	'.c', 00H					; `string'
CONST	ENDS
;	COMDAT ?__LINE__Var@?0??deinitialise_weapon_loading_gunship_database@@YGXXZ@4JA
_DATA	SEGMENT
?__LINE__Var@?0??deinitialise_weapon_loading_gunship_database@@YGXXZ@4JA DD 042cH ; `deinitialise_weapon_loading_gunship_database'::`1'::__LINE__Var
_DATA	ENDS
; Function compile flags: /Odtp /ZI
; File c:\users\nhv90\projects\eech\aphavoc\source\entity\mobile\weapon\wn_load.c
;	COMDAT ?weapon_loading_set_default_air_to_ground_config@@YGXPAUENTITY@@@Z
_TEXT	SEGMENT
tv83 = -80						; size = 4
tv75 = -76						; size = 4
tv134 = -72						; size = 4
tv94 = -68						; size = 4
_en$ = 8						; size = 4
?weapon_loading_set_default_air_to_ground_config@@YGXPAUENTITY@@@Z PROC ; weapon_loading_set_default_air_to_ground_config, COMDAT

; 1542 : {

  00000	55		 push	 ebp
  00001	8b ec		 mov	 ebp, esp
  00003	83 ec 50	 sub	 esp, 80			; 00000050H
  00006	53		 push	 ebx
  00007	56		 push	 esi
  00008	57		 push	 edi

; 1543 : 	ASSERT (en);

  00009	83 7d 08 00	 cmp	 DWORD PTR _en$[ebp], 0
  0000d	75 18		 jne	 SHORT $LN2@weapon_loa
  0000f	a1 00 00 00 00	 mov	 eax, DWORD PTR ?__LINE__Var@?0??weapon_loading_set_default_air_to_ground_config@@YGXPAUENTITY@@@Z@4JA
  00014	83 c0 01	 add	 eax, 1
  00017	50		 push	 eax
  00018	68 00 00 00 00	 push	 OFFSET ??_C@_0EL@EPAAMPOO@c?3?2users?2nhv90?2projects?2eech?2ap@
  0001d	68 00 00 00 00	 push	 OFFSET ??_C@_02LFNMGJAP@en@
  00022	e8 00 00 00 00	 call	 ?process_assert@@YGXPBD0H@Z ; process_assert
$LN2@weapon_loa:

; 1544 : 
; 1545 : 	set_client_server_entity_int_value (en, INT_TYPE_WEAPON_CONFIG_TYPE, get_local_entity_int_value (en, INT_TYPE_AIR_TO_SURFACE_WEAPON_CONFIG_TYPE));

  00027	83 7d 08 00	 cmp	 DWORD PTR _en$[ebp], 0
  0002b	74 0a		 je	 SHORT $LN9@weapon_loa
  0002d	8b 45 08	 mov	 eax, DWORD PTR _en$[ebp]
  00030	8b 08		 mov	 ecx, DWORD PTR [eax]
  00032	89 4d bc	 mov	 DWORD PTR tv94[ebp], ecx
  00035	eb 21		 jmp	 SHORT $LN10@weapon_loa
$LN9@weapon_loa:
  00037	8b 15 00 00 00
	00		 mov	 edx, DWORD PTR ?__LINE__Var@?0??weapon_loading_set_default_air_to_ground_config@@YGXPAUENTITY@@@Z@4JA
  0003d	83 c2 03	 add	 edx, 3
  00040	52		 push	 edx
  00041	68 00 00 00 00	 push	 OFFSET ??_C@_0EL@EPAAMPOO@c?3?2users?2nhv90?2projects?2eech?2ap@
  00046	a1 00 00 00 00	 mov	 eax, DWORD PTR ?null_entity_pointer_message@@3PBDB ; null_entity_pointer_message
  0004b	50		 push	 eax
  0004c	e8 00 00 00 00	 call	 ?process_assert@@YGXPBD0H@Z ; process_assert
  00051	c7 45 bc 00 00
	00 00		 mov	 DWORD PTR tv94[ebp], 0
$LN10@weapon_loa:
  00058	b9 01 00 00 00	 mov	 ecx, 1
  0005d	85 c9		 test	 ecx, ecx
  0005f	74 09		 je	 SHORT $LN11@weapon_loa
  00061	c7 45 b8 03 00
	00 00		 mov	 DWORD PTR tv134[ebp], 3
  00068	eb 21		 jmp	 SHORT $LN12@weapon_loa
$LN11@weapon_loa:
  0006a	8b 15 00 00 00
	00		 mov	 edx, DWORD PTR ?__LINE__Var@?0??weapon_loading_set_default_air_to_ground_config@@YGXPAUENTITY@@@Z@4JA
  00070	83 c2 03	 add	 edx, 3
  00073	52		 push	 edx
  00074	68 00 00 00 00	 push	 OFFSET ??_C@_0EL@EPAAMPOO@c?3?2users?2nhv90?2projects?2eech?2ap@
  00079	a1 00 00 00 00	 mov	 eax, DWORD PTR ?overload_invalid_int_type_message@@3PBDB ; overload_invalid_int_type_message
  0007e	50		 push	 eax
  0007f	e8 00 00 00 00	 call	 ?process_assert@@YGXPBD0H@Z ; process_assert
  00084	c7 45 b8 00 00
	00 00		 mov	 DWORD PTR tv134[ebp], 0
$LN12@weapon_loa:
  0008b	83 7d 08 00	 cmp	 DWORD PTR _en$[ebp], 0
  0008f	74 0a		 je	 SHORT $LN5@weapon_loa
  00091	8b 4d 08	 mov	 ecx, DWORD PTR _en$[ebp]
  00094	8b 11		 mov	 edx, DWORD PTR [ecx]
  00096	89 55 b4	 mov	 DWORD PTR tv75[ebp], edx
  00099	eb 21		 jmp	 SHORT $LN6@weapon_loa
$LN5@weapon_loa:
  0009b	a1 00 00 00 00	 mov	 eax, DWORD PTR ?__LINE__Var@?0??weapon_loading_set_default_air_to_ground_config@@YGXPAUENTITY@@@Z@4JA
  000a0	83 c0 03	 add	 eax, 3
  000a3	50		 push	 eax
  000a4	68 00 00 00 00	 push	 OFFSET ??_C@_0EL@EPAAMPOO@c?3?2users?2nhv90?2projects?2eech?2ap@
  000a9	8b 0d 00 00 00
	00		 mov	 ecx, DWORD PTR ?null_entity_pointer_message@@3PBDB ; null_entity_pointer_message
  000af	51		 push	 ecx
  000b0	e8 00 00 00 00	 call	 ?process_assert@@YGXPBD0H@Z ; process_assert
  000b5	c7 45 b4 00 00
	00 00		 mov	 DWORD PTR tv75[ebp], 0
$LN6@weapon_loa:
  000bc	ba 01 00 00 00	 mov	 edx, 1
  000c1	85 d2		 test	 edx, edx
  000c3	74 09		 je	 SHORT $LN7@weapon_loa
  000c5	c7 45 b0 05 01
	00 00		 mov	 DWORD PTR tv83[ebp], 261 ; 00000105H
  000cc	eb 21		 jmp	 SHORT $LN8@weapon_loa
$LN7@weapon_loa:
  000ce	a1 00 00 00 00	 mov	 eax, DWORD PTR ?__LINE__Var@?0??weapon_loading_set_default_air_to_ground_config@@YGXPAUENTITY@@@Z@4JA
  000d3	83 c0 03	 add	 eax, 3
  000d6	50		 push	 eax
  000d7	68 00 00 00 00	 push	 OFFSET ??_C@_0EL@EPAAMPOO@c?3?2users?2nhv90?2projects?2eech?2ap@
  000dc	8b 0d 00 00 00
	00		 mov	 ecx, DWORD PTR ?overload_invalid_int_type_message@@3PBDB ; overload_invalid_int_type_message
  000e2	51		 push	 ecx
  000e3	e8 00 00 00 00	 call	 ?process_assert@@YGXPBD0H@Z ; process_assert
  000e8	c7 45 b0 00 00
	00 00		 mov	 DWORD PTR tv83[ebp], 0
$LN8@weapon_loa:
  000ef	6a 03		 push	 3
  000f1	8b 55 08	 mov	 edx, DWORD PTR _en$[ebp]
  000f4	52		 push	 edx
  000f5	69 45 bc 5c 04
	00 00		 imul	 eax, DWORD PTR tv94[ebp], 1116
  000fc	8b 4d b8	 mov	 ecx, DWORD PTR tv134[ebp]
  000ff	8b 94 88 00 00
	00 00		 mov	 edx, DWORD PTR ?fn_get_local_entity_int_value@@3PAY0BBH@P6GHPAUENTITY@@W4INT_TYPES@@@ZA[eax+ecx*4]
  00106	ff d2		 call	 edx
  00108	50		 push	 eax
  00109	68 05 01 00 00	 push	 261			; 00000105H
  0010e	8b 45 08	 mov	 eax, DWORD PTR _en$[ebp]
  00111	50		 push	 eax
  00112	69 4d b4 b8 08
	00 00		 imul	 ecx, DWORD PTR tv75[ebp], 2232
  00119	8b 55 b0	 mov	 edx, DWORD PTR tv83[ebp]
  0011c	8d 84 d1 00 00
	00 00		 lea	 eax, DWORD PTR ?fn_set_client_server_entity_int_value@@3PAY1BBH@1P6GXPAUENTITY@@W4INT_TYPES@@H@ZA[ecx+edx*8]
  00123	8b 0d 00 00 00
	00		 mov	 ecx, DWORD PTR ?system_comms_model@@3W4COMMS_MODEL_TYPES@@A ; system_comms_model
  00129	8b 14 88	 mov	 edx, DWORD PTR [eax+ecx*4]
  0012c	ff d2		 call	 edx

; 1546 : 
; 1547 : 	weapon_loading_update_currently_selected_weapons (en);

  0012e	8b 45 08	 mov	 eax, DWORD PTR _en$[ebp]
  00131	50		 push	 eax
  00132	e8 00 00 00 00	 call	 ?weapon_loading_update_currently_selected_weapons@@YGXPAUENTITY@@@Z ; weapon_loading_update_currently_selected_weapons

; 1548 : 
; 1549 : 	if (en == get_gunship_entity ())

  00137	8b 45 08	 mov	 eax, DWORD PTR _en$[ebp]
  0013a	3b 05 00 00 00
	00		 cmp	 eax, DWORD PTR ?gunship_entity@@3PAUENTITY@@A ; gunship_entity
  00140	75 07		 jne	 SHORT $LN3@weapon_loa

; 1550 : 	{
; 1551 : 		set_flight_dynamics_mass ();

  00142	e8 00 00 00 00	 call	 ?set_flight_dynamics_mass@@YGMXZ ; set_flight_dynamics_mass
  00147	dd d8		 fstp	 ST(0)
$LN3@weapon_loa:

; 1552 : 	}
; 1553 : }

  00149	5f		 pop	 edi
  0014a	5e		 pop	 esi
  0014b	5b		 pop	 ebx
  0014c	8b e5		 mov	 esp, ebp
  0014e	5d		 pop	 ebp
  0014f	c2 04 00	 ret	 4
?weapon_loading_set_default_air_to_ground_config@@YGXPAUENTITY@@@Z ENDP ; weapon_loading_set_default_air_to_ground_config
_TEXT	ENDS
; Function compile flags: /Odtp /ZI
; File c:\users\nhv90\projects\eech\aphavoc\source\entity\mobile\weapon\wn_load.c
;	COMDAT ?weapon_loading_set_default_air_to_air_config@@YGXPAUENTITY@@@Z
_TEXT	SEGMENT
tv83 = -80						; size = 4
tv75 = -76						; size = 4
tv134 = -72						; size = 4
tv94 = -68						; size = 4
_en$ = 8						; size = 4
?weapon_loading_set_default_air_to_air_config@@YGXPAUENTITY@@@Z PROC ; weapon_loading_set_default_air_to_air_config, COMDAT

; 1524 : {

  00000	55		 push	 ebp
  00001	8b ec		 mov	 ebp, esp
  00003	83 ec 50	 sub	 esp, 80			; 00000050H
  00006	53		 push	 ebx
  00007	56		 push	 esi
  00008	57		 push	 edi

; 1525 : 	ASSERT (en);

  00009	83 7d 08 00	 cmp	 DWORD PTR _en$[ebp], 0
  0000d	75 18		 jne	 SHORT $LN2@weapon_loa
  0000f	a1 00 00 00 00	 mov	 eax, DWORD PTR ?__LINE__Var@?0??weapon_loading_set_default_air_to_air_config@@YGXPAUENTITY@@@Z@4JA
  00014	83 c0 01	 add	 eax, 1
  00017	50		 push	 eax
  00018	68 00 00 00 00	 push	 OFFSET ??_C@_0EL@EPAAMPOO@c?3?2users?2nhv90?2projects?2eech?2ap@
  0001d	68 00 00 00 00	 push	 OFFSET ??_C@_02LFNMGJAP@en@
  00022	e8 00 00 00 00	 call	 ?process_assert@@YGXPBD0H@Z ; process_assert
$LN2@weapon_loa:

; 1526 : 
; 1527 : 	set_client_server_entity_int_value (en, INT_TYPE_WEAPON_CONFIG_TYPE, get_local_entity_int_value (en, INT_TYPE_AIR_TO_AIR_WEAPON_CONFIG_TYPE));

  00027	83 7d 08 00	 cmp	 DWORD PTR _en$[ebp], 0
  0002b	74 0a		 je	 SHORT $LN9@weapon_loa
  0002d	8b 45 08	 mov	 eax, DWORD PTR _en$[ebp]
  00030	8b 08		 mov	 ecx, DWORD PTR [eax]
  00032	89 4d bc	 mov	 DWORD PTR tv94[ebp], ecx
  00035	eb 21		 jmp	 SHORT $LN10@weapon_loa
$LN9@weapon_loa:
  00037	8b 15 00 00 00
	00		 mov	 edx, DWORD PTR ?__LINE__Var@?0??weapon_loading_set_default_air_to_air_config@@YGXPAUENTITY@@@Z@4JA
  0003d	83 c2 03	 add	 edx, 3
  00040	52		 push	 edx
  00041	68 00 00 00 00	 push	 OFFSET ??_C@_0EL@EPAAMPOO@c?3?2users?2nhv90?2projects?2eech?2ap@
  00046	a1 00 00 00 00	 mov	 eax, DWORD PTR ?null_entity_pointer_message@@3PBDB ; null_entity_pointer_message
  0004b	50		 push	 eax
  0004c	e8 00 00 00 00	 call	 ?process_assert@@YGXPBD0H@Z ; process_assert
  00051	c7 45 bc 00 00
	00 00		 mov	 DWORD PTR tv94[ebp], 0
$LN10@weapon_loa:
  00058	b9 01 00 00 00	 mov	 ecx, 1
  0005d	85 c9		 test	 ecx, ecx
  0005f	74 09		 je	 SHORT $LN11@weapon_loa
  00061	c7 45 b8 02 00
	00 00		 mov	 DWORD PTR tv134[ebp], 2
  00068	eb 21		 jmp	 SHORT $LN12@weapon_loa
$LN11@weapon_loa:
  0006a	8b 15 00 00 00
	00		 mov	 edx, DWORD PTR ?__LINE__Var@?0??weapon_loading_set_default_air_to_air_config@@YGXPAUENTITY@@@Z@4JA
  00070	83 c2 03	 add	 edx, 3
  00073	52		 push	 edx
  00074	68 00 00 00 00	 push	 OFFSET ??_C@_0EL@EPAAMPOO@c?3?2users?2nhv90?2projects?2eech?2ap@
  00079	a1 00 00 00 00	 mov	 eax, DWORD PTR ?overload_invalid_int_type_message@@3PBDB ; overload_invalid_int_type_message
  0007e	50		 push	 eax
  0007f	e8 00 00 00 00	 call	 ?process_assert@@YGXPBD0H@Z ; process_assert
  00084	c7 45 b8 00 00
	00 00		 mov	 DWORD PTR tv134[ebp], 0
$LN12@weapon_loa:
  0008b	83 7d 08 00	 cmp	 DWORD PTR _en$[ebp], 0
  0008f	74 0a		 je	 SHORT $LN5@weapon_loa
  00091	8b 4d 08	 mov	 ecx, DWORD PTR _en$[ebp]
  00094	8b 11		 mov	 edx, DWORD PTR [ecx]
  00096	89 55 b4	 mov	 DWORD PTR tv75[ebp], edx
  00099	eb 21		 jmp	 SHORT $LN6@weapon_loa
$LN5@weapon_loa:
  0009b	a1 00 00 00 00	 mov	 eax, DWORD PTR ?__LINE__Var@?0??weapon_loading_set_default_air_to_air_config@@YGXPAUENTITY@@@Z@4JA
  000a0	83 c0 03	 add	 eax, 3
  000a3	50		 push	 eax
  000a4	68 00 00 00 00	 push	 OFFSET ??_C@_0EL@EPAAMPOO@c?3?2users?2nhv90?2projects?2eech?2ap@
  000a9	8b 0d 00 00 00
	00		 mov	 ecx, DWORD PTR ?null_entity_pointer_message@@3PBDB ; null_entity_pointer_message
  000af	51		 push	 ecx
  000b0	e8 00 00 00 00	 call	 ?process_assert@@YGXPBD0H@Z ; process_assert
  000b5	c7 45 b4 00 00
	00 00		 mov	 DWORD PTR tv75[ebp], 0
$LN6@weapon_loa:
  000bc	ba 01 00 00 00	 mov	 edx, 1
  000c1	85 d2		 test	 edx, edx
  000c3	74 09		 je	 SHORT $LN7@weapon_loa
  000c5	c7 45 b0 05 01
	00 00		 mov	 DWORD PTR tv83[ebp], 261 ; 00000105H
  000cc	eb 21		 jmp	 SHORT $LN8@weapon_loa
$LN7@weapon_loa:
  000ce	a1 00 00 00 00	 mov	 eax, DWORD PTR ?__LINE__Var@?0??weapon_loading_set_default_air_to_air_config@@YGXPAUENTITY@@@Z@4JA
  000d3	83 c0 03	 add	 eax, 3
  000d6	50		 push	 eax
  000d7	68 00 00 00 00	 push	 OFFSET ??_C@_0EL@EPAAMPOO@c?3?2users?2nhv90?2projects?2eech?2ap@
  000dc	8b 0d 00 00 00
	00		 mov	 ecx, DWORD PTR ?overload_invalid_int_type_message@@3PBDB ; overload_invalid_int_type_message
  000e2	51		 push	 ecx
  000e3	e8 00 00 00 00	 call	 ?process_assert@@YGXPBD0H@Z ; process_assert
  000e8	c7 45 b0 00 00
	00 00		 mov	 DWORD PTR tv83[ebp], 0
$LN8@weapon_loa:
  000ef	6a 02		 push	 2
  000f1	8b 55 08	 mov	 edx, DWORD PTR _en$[ebp]
  000f4	52		 push	 edx
  000f5	69 45 bc 5c 04
	00 00		 imul	 eax, DWORD PTR tv94[ebp], 1116
  000fc	8b 4d b8	 mov	 ecx, DWORD PTR tv134[ebp]
  000ff	8b 94 88 00 00
	00 00		 mov	 edx, DWORD PTR ?fn_get_local_entity_int_value@@3PAY0BBH@P6GHPAUENTITY@@W4INT_TYPES@@@ZA[eax+ecx*4]
  00106	ff d2		 call	 edx
  00108	50		 push	 eax
  00109	68 05 01 00 00	 push	 261			; 00000105H
  0010e	8b 45 08	 mov	 eax, DWORD PTR _en$[ebp]
  00111	50		 push	 eax
  00112	69 4d b4 b8 08
	00 00		 imul	 ecx, DWORD PTR tv75[ebp], 2232
  00119	8b 55 b0	 mov	 edx, DWORD PTR tv83[ebp]
  0011c	8d 84 d1 00 00
	00 00		 lea	 eax, DWORD PTR ?fn_set_client_server_entity_int_value@@3PAY1BBH@1P6GXPAUENTITY@@W4INT_TYPES@@H@ZA[ecx+edx*8]
  00123	8b 0d 00 00 00
	00		 mov	 ecx, DWORD PTR ?system_comms_model@@3W4COMMS_MODEL_TYPES@@A ; system_comms_model
  00129	8b 14 88	 mov	 edx, DWORD PTR [eax+ecx*4]
  0012c	ff d2		 call	 edx

; 1528 : 
; 1529 : 	weapon_loading_update_currently_selected_weapons (en);

  0012e	8b 45 08	 mov	 eax, DWORD PTR _en$[ebp]
  00131	50		 push	 eax
  00132	e8 00 00 00 00	 call	 ?weapon_loading_update_currently_selected_weapons@@YGXPAUENTITY@@@Z ; weapon_loading_update_currently_selected_weapons

; 1530 : 
; 1531 : 	if (en == get_gunship_entity ())

  00137	8b 45 08	 mov	 eax, DWORD PTR _en$[ebp]
  0013a	3b 05 00 00 00
	00		 cmp	 eax, DWORD PTR ?gunship_entity@@3PAUENTITY@@A ; gunship_entity
  00140	75 07		 jne	 SHORT $LN3@weapon_loa

; 1532 : 	{
; 1533 : 		set_flight_dynamics_mass ();

  00142	e8 00 00 00 00	 call	 ?set_flight_dynamics_mass@@YGMXZ ; set_flight_dynamics_mass
  00147	dd d8		 fstp	 ST(0)
$LN3@weapon_loa:

; 1534 : 	}
; 1535 : }

  00149	5f		 pop	 edi
  0014a	5e		 pop	 esi
  0014b	5b		 pop	 ebx
  0014c	8b e5		 mov	 esp, ebp
  0014e	5d		 pop	 ebp
  0014f	c2 04 00	 ret	 4
?weapon_loading_set_default_air_to_air_config@@YGXPAUENTITY@@@Z ENDP ; weapon_loading_set_default_air_to_air_config
_TEXT	ENDS
; Function compile flags: /Odtp /ZI
; File c:\users\nhv90\projects\eech\aphavoc\source\entity\mobile\weapon\wn_load.c
;	COMDAT ?get_current_hardpoint_weapon@@YGXW4GUNSHIP_TYPES@@QAH@Z
_TEXT	SEGMENT
_hardpoint$ = -12					; size = 4
_wlht$ = -8						; size = 4
_wlgt$ = -4						; size = 4
_gunship_type$ = 8					; size = 4
_current_weapon$ = 12					; size = 4
?get_current_hardpoint_weapon@@YGXW4GUNSHIP_TYPES@@QAH@Z PROC ; get_current_hardpoint_weapon, COMDAT

; 1343 : {

  00000	55		 push	 ebp
  00001	8b ec		 mov	 ebp, esp
  00003	83 ec 4c	 sub	 esp, 76			; 0000004cH
  00006	53		 push	 ebx
  00007	56		 push	 esi
  00008	57		 push	 edi

; 1344 : 	const weapon_loading_gunship_type
; 1345 : 		*wlgt;
; 1346 : 
; 1347 : 	const weapon_loading_hardpoint_type
; 1348 : 		*wlht;
; 1349 : 
; 1350 : 	int
; 1351 : 		hardpoint;
; 1352 : 
; 1353 : 	ASSERT (gunship_type >= 0 && gunship_type < NUM_GUNSHIP_TYPES);

  00009	83 7d 08 00	 cmp	 DWORD PTR _gunship_type$[ebp], 0
  0000d	7c 06		 jl	 SHORT $LN6@get_curren
  0000f	83 7d 08 0a	 cmp	 DWORD PTR _gunship_type$[ebp], 10 ; 0000000aH
  00013	7c 18		 jl	 SHORT $LN5@get_curren
$LN6@get_curren:
  00015	a1 00 00 00 00	 mov	 eax, DWORD PTR ?__LINE__Var@?0??get_current_hardpoint_weapon@@YGXW4GUNSHIP_TYPES@@QAH@Z@4JA
  0001a	83 c0 0a	 add	 eax, 10			; 0000000aH
  0001d	50		 push	 eax
  0001e	68 00 00 00 00	 push	 OFFSET ??_C@_0EL@EPAAMPOO@c?3?2users?2nhv90?2projects?2eech?2ap@
  00023	68 00 00 00 00	 push	 OFFSET ??_C@_0DG@JBGOKNKA@gunship_type?5?$DO?$DN?50?5?$CG?$CG?5gunship_ty@
  00028	e8 00 00 00 00	 call	 ?process_assert@@YGXPBD0H@Z ; process_assert
$LN5@get_curren:

; 1354 : 
; 1355 : 	wlgt = &weapon_loading_gunship_database[gunship_type];

  0002d	69 45 08 a8 00
	00 00		 imul	 eax, DWORD PTR _gunship_type$[ebp], 168
  00034	05 00 00 00 00	 add	 eax, OFFSET ?weapon_loading_gunship_database@@3PAUWEAPON_LOADING_GUNSHIP_TYPE@@A
  00039	89 45 fc	 mov	 DWORD PTR _wlgt$[ebp], eax

; 1356 : 
; 1357 : 	for (hardpoint = 0; hardpoint < NUM_WEAPON_LOADING_HARDPOINT_TYPES; hardpoint++)

  0003c	c7 45 f4 00 00
	00 00		 mov	 DWORD PTR _hardpoint$[ebp], 0
  00043	eb 09		 jmp	 SHORT $LN4@get_curren
$LN2@get_curren:
  00045	8b 45 f4	 mov	 eax, DWORD PTR _hardpoint$[ebp]
  00048	83 c0 01	 add	 eax, 1
  0004b	89 45 f4	 mov	 DWORD PTR _hardpoint$[ebp], eax
$LN4@get_curren:
  0004e	83 7d f4 06	 cmp	 DWORD PTR _hardpoint$[ebp], 6
  00052	7d 4e		 jge	 SHORT $LN1@get_curren

; 1358 : 	{
; 1359 : 		wlht = &wlgt->hardpoint_list[hardpoint];

  00054	6b 45 f4 1c	 imul	 eax, DWORD PTR _hardpoint$[ebp], 28
  00058	03 45 fc	 add	 eax, DWORD PTR _wlgt$[ebp]
  0005b	89 45 f8	 mov	 DWORD PTR _wlht$[ebp], eax

; 1360 : 
; 1361 : 		if (!wlht->valid || wlht->number_of_valid_weapon_types < 2)

  0005e	8b 45 f8	 mov	 eax, DWORD PTR _wlht$[ebp]
  00061	83 38 00	 cmp	 DWORD PTR [eax], 0
  00064	74 09		 je	 SHORT $LN8@get_curren
  00066	8b 45 f8	 mov	 eax, DWORD PTR _wlht$[ebp]
  00069	83 78 0c 02	 cmp	 DWORD PTR [eax+12], 2
  0006d	7d 02		 jge	 SHORT $LN7@get_curren
$LN8@get_curren:

; 1362 : 		{
; 1363 : 			continue;

  0006f	eb d4		 jmp	 SHORT $LN2@get_curren
$LN7@get_curren:

; 1364 : 		}
; 1365 : 
; 1366 : 		current_weapon[hardpoint] = wlht->valid_weapon_types[wlht->current_weapon_index];

  00071	8b 45 f8	 mov	 eax, DWORD PTR _wlht$[ebp]
  00074	8b 48 08	 mov	 ecx, DWORD PTR [eax+8]
  00077	8b 55 f8	 mov	 edx, DWORD PTR _wlht$[ebp]
  0007a	8b 42 18	 mov	 eax, DWORD PTR [edx+24]
  0007d	8b 55 f4	 mov	 edx, DWORD PTR _hardpoint$[ebp]
  00080	8b 75 0c	 mov	 esi, DWORD PTR _current_weapon$[ebp]
  00083	8b 04 88	 mov	 eax, DWORD PTR [eax+ecx*4]
  00086	89 04 96	 mov	 DWORD PTR [esi+edx*4], eax

; 1367 : 		weapon_loading_set_current_hardpoint_weapon (gunship_type, (weapon_loading_hardpoint_types)hardpoint, current_weapon[hardpoint]);

  00089	8b 45 f4	 mov	 eax, DWORD PTR _hardpoint$[ebp]
  0008c	8b 4d 0c	 mov	 ecx, DWORD PTR _current_weapon$[ebp]
  0008f	8b 14 81	 mov	 edx, DWORD PTR [ecx+eax*4]
  00092	52		 push	 edx
  00093	8b 45 f4	 mov	 eax, DWORD PTR _hardpoint$[ebp]
  00096	50		 push	 eax
  00097	8b 4d 08	 mov	 ecx, DWORD PTR _gunship_type$[ebp]
  0009a	51		 push	 ecx
  0009b	e8 00 00 00 00	 call	 ?weapon_loading_set_current_hardpoint_weapon@@YGXW4GUNSHIP_TYPES@@W4WEAPON_LOADING_HARDPOINT_TYPES@@H@Z ; weapon_loading_set_current_hardpoint_weapon

; 1368 : 	}

  000a0	eb a3		 jmp	 SHORT $LN2@get_curren
$LN1@get_curren:

; 1369 : }

  000a2	5f		 pop	 edi
  000a3	5e		 pop	 esi
  000a4	5b		 pop	 ebx
  000a5	8b e5		 mov	 esp, ebp
  000a7	5d		 pop	 ebp
  000a8	c2 08 00	 ret	 8
?get_current_hardpoint_weapon@@YGXW4GUNSHIP_TYPES@@QAH@Z ENDP ; get_current_hardpoint_weapon
_TEXT	ENDS
; Function compile flags: /Odtp /ZI
; File c:\users\nhv90\projects\eech\aphavoc\source\entity\mobile\weapon\wn_load.c
;	COMDAT ?set_hardpoint_weapons@@YGXW4GUNSHIP_TYPES@@QBH@Z
_TEXT	SEGMENT
_hardpoint$ = -12					; size = 4
_wlht$ = -8						; size = 4
_wlgt$ = -4						; size = 4
_gunship_type$ = 8					; size = 4
_current_weapon$ = 12					; size = 4
?set_hardpoint_weapons@@YGXW4GUNSHIP_TYPES@@QBH@Z PROC	; set_hardpoint_weapons, COMDAT

; 1311 : {

  00000	55		 push	 ebp
  00001	8b ec		 mov	 ebp, esp
  00003	83 ec 4c	 sub	 esp, 76			; 0000004cH
  00006	53		 push	 ebx
  00007	56		 push	 esi
  00008	57		 push	 edi

; 1312 : 	const weapon_loading_gunship_type
; 1313 : 		*wlgt;
; 1314 : 
; 1315 : 	const weapon_loading_hardpoint_type
; 1316 : 		*wlht;
; 1317 : 
; 1318 : 	int
; 1319 : 		hardpoint;
; 1320 : 
; 1321 : 	ASSERT (gunship_type >= 0 && gunship_type < NUM_GUNSHIP_TYPES);

  00009	83 7d 08 00	 cmp	 DWORD PTR _gunship_type$[ebp], 0
  0000d	7c 06		 jl	 SHORT $LN6@set_hardpo
  0000f	83 7d 08 0a	 cmp	 DWORD PTR _gunship_type$[ebp], 10 ; 0000000aH
  00013	7c 18		 jl	 SHORT $LN5@set_hardpo
$LN6@set_hardpo:
  00015	a1 00 00 00 00	 mov	 eax, DWORD PTR ?__LINE__Var@?0??set_hardpoint_weapons@@YGXW4GUNSHIP_TYPES@@QBH@Z@4JA
  0001a	83 c0 0a	 add	 eax, 10			; 0000000aH
  0001d	50		 push	 eax
  0001e	68 00 00 00 00	 push	 OFFSET ??_C@_0EL@EPAAMPOO@c?3?2users?2nhv90?2projects?2eech?2ap@
  00023	68 00 00 00 00	 push	 OFFSET ??_C@_0DG@JBGOKNKA@gunship_type?5?$DO?$DN?50?5?$CG?$CG?5gunship_ty@
  00028	e8 00 00 00 00	 call	 ?process_assert@@YGXPBD0H@Z ; process_assert
$LN5@set_hardpo:

; 1322 : 
; 1323 : 	wlgt = &weapon_loading_gunship_database[gunship_type];

  0002d	69 45 08 a8 00
	00 00		 imul	 eax, DWORD PTR _gunship_type$[ebp], 168
  00034	05 00 00 00 00	 add	 eax, OFFSET ?weapon_loading_gunship_database@@3PAUWEAPON_LOADING_GUNSHIP_TYPE@@A
  00039	89 45 fc	 mov	 DWORD PTR _wlgt$[ebp], eax

; 1324 : 
; 1325 : 	for (hardpoint = 0; hardpoint < NUM_WEAPON_LOADING_HARDPOINT_TYPES; hardpoint++)

  0003c	c7 45 f4 00 00
	00 00		 mov	 DWORD PTR _hardpoint$[ebp], 0
  00043	eb 09		 jmp	 SHORT $LN4@set_hardpo
$LN2@set_hardpo:
  00045	8b 45 f4	 mov	 eax, DWORD PTR _hardpoint$[ebp]
  00048	83 c0 01	 add	 eax, 1
  0004b	89 45 f4	 mov	 DWORD PTR _hardpoint$[ebp], eax
$LN4@set_hardpo:
  0004e	83 7d f4 06	 cmp	 DWORD PTR _hardpoint$[ebp], 6
  00052	7d 36		 jge	 SHORT $LN1@set_hardpo

; 1326 : 	{
; 1327 : 		wlht = &wlgt->hardpoint_list[hardpoint];

  00054	6b 45 f4 1c	 imul	 eax, DWORD PTR _hardpoint$[ebp], 28
  00058	03 45 fc	 add	 eax, DWORD PTR _wlgt$[ebp]
  0005b	89 45 f8	 mov	 DWORD PTR _wlht$[ebp], eax

; 1328 : 
; 1329 : 		if (!wlht->valid || wlht->number_of_valid_weapon_types < 2)

  0005e	8b 45 f8	 mov	 eax, DWORD PTR _wlht$[ebp]
  00061	83 38 00	 cmp	 DWORD PTR [eax], 0
  00064	74 09		 je	 SHORT $LN8@set_hardpo
  00066	8b 45 f8	 mov	 eax, DWORD PTR _wlht$[ebp]
  00069	83 78 0c 02	 cmp	 DWORD PTR [eax+12], 2
  0006d	7d 02		 jge	 SHORT $LN7@set_hardpo
$LN8@set_hardpo:

; 1330 : 		{
; 1331 : 			continue;

  0006f	eb d4		 jmp	 SHORT $LN2@set_hardpo
$LN7@set_hardpo:

; 1332 : 		}
; 1333 : 
; 1334 : 		weapon_loading_set_current_hardpoint_weapon (gunship_type, (weapon_loading_hardpoint_types)hardpoint, current_weapon[hardpoint]);

  00071	8b 45 f4	 mov	 eax, DWORD PTR _hardpoint$[ebp]
  00074	8b 4d 0c	 mov	 ecx, DWORD PTR _current_weapon$[ebp]
  00077	8b 14 81	 mov	 edx, DWORD PTR [ecx+eax*4]
  0007a	52		 push	 edx
  0007b	8b 45 f4	 mov	 eax, DWORD PTR _hardpoint$[ebp]
  0007e	50		 push	 eax
  0007f	8b 4d 08	 mov	 ecx, DWORD PTR _gunship_type$[ebp]
  00082	51		 push	 ecx
  00083	e8 00 00 00 00	 call	 ?weapon_loading_set_current_hardpoint_weapon@@YGXW4GUNSHIP_TYPES@@W4WEAPON_LOADING_HARDPOINT_TYPES@@H@Z ; weapon_loading_set_current_hardpoint_weapon

; 1335 : 	}

  00088	eb bb		 jmp	 SHORT $LN2@set_hardpo
$LN1@set_hardpo:

; 1336 : }

  0008a	5f		 pop	 edi
  0008b	5e		 pop	 esi
  0008c	5b		 pop	 ebx
  0008d	8b e5		 mov	 esp, ebp
  0008f	5d		 pop	 ebp
  00090	c2 08 00	 ret	 8
?set_hardpoint_weapons@@YGXW4GUNSHIP_TYPES@@QBH@Z ENDP	; set_hardpoint_weapons
_TEXT	ENDS
; Function compile flags: /Odtp /ZI
; File c:\users\nhv90\projects\eech\aphavoc\source\entity\mobile\weapon\wn_load.c
;	COMDAT ?get_weapons_from_weapon_config@@YGXW4GUNSHIP_TYPES@@W4WEAPON_CONFIG_TYPES@@QAH@Z
_TEXT	SEGMENT
_hardpoint$ = -28					; size = 4
_package$ = -24						; size = 4
_wlht$ = -20						; size = 4
_wlgt$ = -16						; size = 4
_max_weapon_config_type$ = -12				; size = 4
_min_weapon_config_type$ = -8				; size = 4
_ac_data$ = -4						; size = 4
_gunship_type$ = 8					; size = 4
_weapon_config_type$ = 12				; size = 4
_current_weapon$ = 16					; size = 4
?get_weapons_from_weapon_config@@YGXW4GUNSHIP_TYPES@@W4WEAPON_CONFIG_TYPES@@QAH@Z PROC ; get_weapons_from_weapon_config, COMDAT

; 1223 : {

  00000	55		 push	 ebp
  00001	8b ec		 mov	 ebp, esp
  00003	83 ec 5c	 sub	 esp, 92			; 0000005cH
  00006	53		 push	 ebx
  00007	56		 push	 esi
  00008	57		 push	 edi

; 1224 : #ifdef DEBUG
; 1225 : 
; 1226 : 	const aircraft_data
; 1227 : 		*ac_data;
; 1228 : 
; 1229 : 	weapon_config_types
; 1230 : 		min_weapon_config_type,
; 1231 : 		max_weapon_config_type;
; 1232 : 
; 1233 : #endif
; 1234 : 
; 1235 : 	const weapon_loading_gunship_type
; 1236 : 		*wlgt;
; 1237 : 
; 1238 : 	const weapon_loading_hardpoint_type
; 1239 : 		*wlht;
; 1240 : 
; 1241 : 	int
; 1242 : 		package,
; 1243 : 		hardpoint;
; 1244 : 
; 1245 : 
; 1246 : #ifdef DEBUG
; 1247 : 
; 1248 : 	ASSERT (gunship_type >= 0 && gunship_type < NUM_GUNSHIP_TYPES);

  00009	83 7d 08 00	 cmp	 DWORD PTR _gunship_type$[ebp], 0
  0000d	7c 06		 jl	 SHORT $LN12@get_weapon
  0000f	83 7d 08 0a	 cmp	 DWORD PTR _gunship_type$[ebp], 10 ; 0000000aH
  00013	7c 18		 jl	 SHORT $LN11@get_weapon
$LN12@get_weapon:
  00015	a1 00 00 00 00	 mov	 eax, DWORD PTR ?__LINE__Var@?0??get_weapons_from_weapon_config@@YGXW4GUNSHIP_TYPES@@W4WEAPON_CONFIG_TYPES@@QAH@Z@4JA
  0001a	83 c0 19	 add	 eax, 25			; 00000019H
  0001d	50		 push	 eax
  0001e	68 00 00 00 00	 push	 OFFSET ??_C@_0EL@EPAAMPOO@c?3?2users?2nhv90?2projects?2eech?2ap@
  00023	68 00 00 00 00	 push	 OFFSET ??_C@_0DG@JBGOKNKA@gunship_type?5?$DO?$DN?50?5?$CG?$CG?5gunship_ty@
  00028	e8 00 00 00 00	 call	 ?process_assert@@YGXPBD0H@Z ; process_assert
$LN11@get_weapon:

; 1249 : 
; 1250 : 	ac_data = &aircraft_database[gunship_sub_types[gunship_type]];

  0002d	8b 45 08	 mov	 eax, DWORD PTR _gunship_type$[ebp]
  00030	69 0c 85 00 00
	00 00 f4 00 00
	00		 imul	 ecx, DWORD PTR ?gunship_sub_types@@3PAHA[eax*4], 244
  0003b	81 c1 00 00 00
	00		 add	 ecx, OFFSET ?aircraft_database@@3PAUAIRCRAFT_DATA@@A ; aircraft_database
  00041	89 4d fc	 mov	 DWORD PTR _ac_data$[ebp], ecx

; 1251 : 
; 1252 : 	ASSERT (ac_data->gunship_type == gunship_type);

  00044	8b 45 fc	 mov	 eax, DWORD PTR _ac_data$[ebp]
  00047	8b 48 14	 mov	 ecx, DWORD PTR [eax+20]
  0004a	3b 4d 08	 cmp	 ecx, DWORD PTR _gunship_type$[ebp]
  0004d	74 18		 je	 SHORT $LN13@get_weapon
  0004f	a1 00 00 00 00	 mov	 eax, DWORD PTR ?__LINE__Var@?0??get_weapons_from_weapon_config@@YGXW4GUNSHIP_TYPES@@W4WEAPON_CONFIG_TYPES@@QAH@Z@4JA
  00054	83 c0 1d	 add	 eax, 29			; 0000001dH
  00057	50		 push	 eax
  00058	68 00 00 00 00	 push	 OFFSET ??_C@_0EL@EPAAMPOO@c?3?2users?2nhv90?2projects?2eech?2ap@
  0005d	68 00 00 00 00	 push	 OFFSET ??_C@_0CG@CJELHCOG@ac_data?9?$DOgunship_type?5?$DN?$DN?5gunshi@
  00062	e8 00 00 00 00	 call	 ?process_assert@@YGXPBD0H@Z ; process_assert
$LN13@get_weapon:

; 1253 : 
; 1254 : 	min_weapon_config_type = ac_data->min_weapon_config_type;

  00067	8b 45 fc	 mov	 eax, DWORD PTR _ac_data$[ebp]
  0006a	8b 48 20	 mov	 ecx, DWORD PTR [eax+32]
  0006d	89 4d f8	 mov	 DWORD PTR _min_weapon_config_type$[ebp], ecx

; 1255 : 	max_weapon_config_type = ac_data->max_weapon_config_type;

  00070	8b 45 fc	 mov	 eax, DWORD PTR _ac_data$[ebp]
  00073	8b 48 24	 mov	 ecx, DWORD PTR [eax+36]
  00076	89 4d f4	 mov	 DWORD PTR _max_weapon_config_type$[ebp], ecx

; 1256 : 
; 1257 : 	ASSERT

  00079	83 7d 0c 00	 cmp	 DWORD PTR _weapon_config_type$[ebp], 0
  0007d	74 28		 je	 SHORT $LN14@get_weapon
  0007f	8b 45 0c	 mov	 eax, DWORD PTR _weapon_config_type$[ebp]
  00082	3b 45 f8	 cmp	 eax, DWORD PTR _min_weapon_config_type$[ebp]
  00085	7c 08		 jl	 SHORT $LN15@get_weapon
  00087	8b 45 0c	 mov	 eax, DWORD PTR _weapon_config_type$[ebp]
  0008a	3b 45 f4	 cmp	 eax, DWORD PTR _max_weapon_config_type$[ebp]
  0008d	7e 18		 jle	 SHORT $LN14@get_weapon
$LN15@get_weapon:
  0008f	a1 00 00 00 00	 mov	 eax, DWORD PTR ?__LINE__Var@?0??get_weapons_from_weapon_config@@YGXW4GUNSHIP_TYPES@@W4WEAPON_CONFIG_TYPES@@QAH@Z@4JA
  00094	83 c0 29	 add	 eax, 41			; 00000029H
  00097	50		 push	 eax
  00098	68 00 00 00 00	 push	 OFFSET ??_C@_0EL@EPAAMPOO@c?3?2users?2nhv90?2projects?2eech?2ap@
  0009d	68 00 00 00 00	 push	 OFFSET ??_C@_0JL@KLELLBKM@?$CIweapon_config_type?5?$DN?$DN?5WEAPON_C@
  000a2	e8 00 00 00 00	 call	 ?process_assert@@YGXPBD0H@Z ; process_assert
$LN14@get_weapon:

; 1258 : 	(
; 1259 : 		(weapon_config_type == WEAPON_CONFIG_TYPE_UNARMED) ||
; 1260 : 		(
; 1261 : 			(weapon_config_type >= min_weapon_config_type) &&
; 1262 : 			(weapon_config_type <= max_weapon_config_type)
; 1263 : 		)
; 1264 : 	);
; 1265 : 
; 1266 : #endif
; 1267 : 
; 1268 : 	wlgt = &weapon_loading_gunship_database[gunship_type];

  000a7	69 45 08 a8 00
	00 00		 imul	 eax, DWORD PTR _gunship_type$[ebp], 168
  000ae	05 00 00 00 00	 add	 eax, OFFSET ?weapon_loading_gunship_database@@3PAUWEAPON_LOADING_GUNSHIP_TYPE@@A
  000b3	89 45 f0	 mov	 DWORD PTR _wlgt$[ebp], eax

; 1269 : 
; 1270 : 	for (hardpoint = 0; hardpoint < NUM_WEAPON_LOADING_HARDPOINT_TYPES; hardpoint++)

  000b6	c7 45 e4 00 00
	00 00		 mov	 DWORD PTR _hardpoint$[ebp], 0
  000bd	eb 09		 jmp	 SHORT $LN4@get_weapon
$LN2@get_weapon:
  000bf	8b 45 e4	 mov	 eax, DWORD PTR _hardpoint$[ebp]
  000c2	83 c0 01	 add	 eax, 1
  000c5	89 45 e4	 mov	 DWORD PTR _hardpoint$[ebp], eax
$LN4@get_weapon:
  000c8	83 7d e4 06	 cmp	 DWORD PTR _hardpoint$[ebp], 6
  000cc	7d 2c		 jge	 SHORT $LN3@get_weapon

; 1271 : 	{
; 1272 : 		wlht = &wlgt->hardpoint_list[hardpoint];

  000ce	6b 45 e4 1c	 imul	 eax, DWORD PTR _hardpoint$[ebp], 28
  000d2	03 45 f0	 add	 eax, DWORD PTR _wlgt$[ebp]
  000d5	89 45 ec	 mov	 DWORD PTR _wlht$[ebp], eax

; 1273 : 
; 1274 : 		if (!wlht->valid || wlht->number_of_valid_weapon_types < 2)

  000d8	8b 45 ec	 mov	 eax, DWORD PTR _wlht$[ebp]
  000db	83 38 00	 cmp	 DWORD PTR [eax], 0
  000de	74 09		 je	 SHORT $LN17@get_weapon
  000e0	8b 45 ec	 mov	 eax, DWORD PTR _wlht$[ebp]
  000e3	83 78 0c 02	 cmp	 DWORD PTR [eax+12], 2
  000e7	7d 02		 jge	 SHORT $LN16@get_weapon
$LN17@get_weapon:

; 1275 : 		{
; 1276 : 			continue;

  000e9	eb d4		 jmp	 SHORT $LN2@get_weapon
$LN16@get_weapon:

; 1277 : 		}
; 1278 : 
; 1279 : 		current_weapon[hardpoint] = ENTITY_SUB_TYPE_WEAPON_NO_WEAPON;

  000eb	8b 45 e4	 mov	 eax, DWORD PTR _hardpoint$[ebp]
  000ee	8b 4d 10	 mov	 ecx, DWORD PTR _current_weapon$[ebp]
  000f1	c7 04 81 00 00
	00 00		 mov	 DWORD PTR [ecx+eax*4], 0

; 1280 : 	}

  000f8	eb c5		 jmp	 SHORT $LN2@get_weapon
$LN3@get_weapon:

; 1281 : 
; 1282 : 	for (package = 0; package < NUM_WEAPON_PACKAGES; package++)

  000fa	c7 45 e8 00 00
	00 00		 mov	 DWORD PTR _package$[ebp], 0
  00101	eb 09		 jmp	 SHORT $LN7@get_weapon
$LN5@get_weapon:
  00103	8b 45 e8	 mov	 eax, DWORD PTR _package$[ebp]
  00106	83 c0 01	 add	 eax, 1
  00109	89 45 e8	 mov	 DWORD PTR _package$[ebp], eax
$LN7@get_weapon:
  0010c	83 7d e8 20	 cmp	 DWORD PTR _package$[ebp], 32 ; 00000020H
  00110	0f 8d 88 00 00
	00		 jge	 $LN1@get_weapon

; 1283 : 	{
; 1284 : 		if (weapon_config_database[weapon_config_type][package].sub_type == ENTITY_SUB_TYPE_WEAPON_NO_WEAPON)

  00116	69 45 0c 80 09
	00 00		 imul	 eax, DWORD PTR _weapon_config_type$[ebp], 2432
  0011d	6b 4d e8 4c	 imul	 ecx, DWORD PTR _package$[ebp], 76
  00121	83 bc 08 00 00
	00 00 00	 cmp	 DWORD PTR ?weapon_config_database@@3PAY0CA@UWEAPON_PACKAGE@@A[eax+ecx], 0
  00129	75 02		 jne	 SHORT $LN18@get_weapon

; 1285 : 		{
; 1286 : 			break;

  0012b	eb 71		 jmp	 SHORT $LN1@get_weapon
$LN18@get_weapon:

; 1287 : 		}
; 1288 : 
; 1289 : 		for (hardpoint = 0; hardpoint < NUM_WEAPON_LOADING_HARDPOINT_TYPES; hardpoint++)

  0012d	c7 45 e4 00 00
	00 00		 mov	 DWORD PTR _hardpoint$[ebp], 0
  00134	eb 09		 jmp	 SHORT $LN10@get_weapon
$LN8@get_weapon:
  00136	8b 45 e4	 mov	 eax, DWORD PTR _hardpoint$[ebp]
  00139	83 c0 01	 add	 eax, 1
  0013c	89 45 e4	 mov	 DWORD PTR _hardpoint$[ebp], eax
$LN10@get_weapon:
  0013f	83 7d e4 06	 cmp	 DWORD PTR _hardpoint$[ebp], 6
  00143	7d 54		 jge	 SHORT $LN9@get_weapon

; 1290 : 		{
; 1291 : 			wlht = &wlgt->hardpoint_list[hardpoint];

  00145	6b 45 e4 1c	 imul	 eax, DWORD PTR _hardpoint$[ebp], 28
  00149	03 45 f0	 add	 eax, DWORD PTR _wlgt$[ebp]
  0014c	89 45 ec	 mov	 DWORD PTR _wlht$[ebp], eax

; 1292 : 
; 1293 : 			if (!wlht->valid || wlht->number_of_valid_weapon_types < 2)

  0014f	8b 45 ec	 mov	 eax, DWORD PTR _wlht$[ebp]
  00152	83 38 00	 cmp	 DWORD PTR [eax], 0
  00155	74 09		 je	 SHORT $LN20@get_weapon
  00157	8b 45 ec	 mov	 eax, DWORD PTR _wlht$[ebp]
  0015a	83 78 0c 02	 cmp	 DWORD PTR [eax+12], 2
  0015e	7d 02		 jge	 SHORT $LN19@get_weapon
$LN20@get_weapon:

; 1294 : 			{
; 1295 : 				continue;

  00160	eb d4		 jmp	 SHORT $LN8@get_weapon
$LN19@get_weapon:

; 1296 : 			}
; 1297 : 
; 1298 : 			if (weapon_config_database[weapon_config_type][package].heading_depth == wlht->sub_object_depth1)

  00162	69 45 0c 80 09
	00 00		 imul	 eax, DWORD PTR _weapon_config_type$[ebp], 2432
  00169	6b 4d e8 4c	 imul	 ecx, DWORD PTR _package$[ebp], 76
  0016d	8b 55 ec	 mov	 edx, DWORD PTR _wlht$[ebp]
  00170	8b 84 08 08 00
	00 00		 mov	 eax, DWORD PTR ?weapon_config_database@@3PAY0CA@UWEAPON_PACKAGE@@A[eax+ecx+8]
  00177	3b 42 10	 cmp	 eax, DWORD PTR [edx+16]
  0017a	75 1b		 jne	 SHORT $LN21@get_weapon

; 1299 : 			{
; 1300 : 				current_weapon[hardpoint] = weapon_config_database[weapon_config_type][package].sub_type;

  0017c	69 45 0c 80 09
	00 00		 imul	 eax, DWORD PTR _weapon_config_type$[ebp], 2432
  00183	6b 4d e8 4c	 imul	 ecx, DWORD PTR _package$[ebp], 76
  00187	8b 55 e4	 mov	 edx, DWORD PTR _hardpoint$[ebp]
  0018a	8b 75 10	 mov	 esi, DWORD PTR _current_weapon$[ebp]
  0018d	8b 84 08 00 00
	00 00		 mov	 eax, DWORD PTR ?weapon_config_database@@3PAY0CA@UWEAPON_PACKAGE@@A[eax+ecx]
  00194	89 04 96	 mov	 DWORD PTR [esi+edx*4], eax
$LN21@get_weapon:

; 1301 : 			}
; 1302 : 		}

  00197	eb 9d		 jmp	 SHORT $LN8@get_weapon
$LN9@get_weapon:

; 1303 : 	}

  00199	e9 65 ff ff ff	 jmp	 $LN5@get_weapon
$LN1@get_weapon:

; 1304 : }

  0019e	5f		 pop	 edi
  0019f	5e		 pop	 esi
  001a0	5b		 pop	 ebx
  001a1	8b e5		 mov	 esp, ebp
  001a3	5d		 pop	 ebp
  001a4	c2 0c 00	 ret	 12			; 0000000cH
?get_weapons_from_weapon_config@@YGXW4GUNSHIP_TYPES@@W4WEAPON_CONFIG_TYPES@@QAH@Z ENDP ; get_weapons_from_weapon_config
_TEXT	ENDS
; Function compile flags: /Odtp /ZI
; File c:\users\nhv90\projects\eech\aphavoc\source\entity\mobile\weapon\wn_load.c
;	COMDAT ?get_weapon_config@@YG?AW4WEAPON_CONFIG_TYPES@@W4GUNSHIP_TYPES@@QBH@Z
_TEXT	SEGMENT
tv139 = -104						; size = 4
_hardpoint_weapon$ = -36				; size = 4
_ok$ = -32						; size = 4
_hardpoint$ = -28					; size = 4
_weapon_config_package$ = -24				; size = 4
_wlht$ = -20						; size = 4
_wlgt$ = -16						; size = 4
_max_weapon_config_type$ = -12				; size = 4
_min_weapon_config_type$ = -8				; size = 4
_ac_data$ = -4						; size = 4
_gunship_type$ = 8					; size = 4
_current_weapon$ = 12					; size = 4
?get_weapon_config@@YG?AW4WEAPON_CONFIG_TYPES@@W4GUNSHIP_TYPES@@QBH@Z PROC ; get_weapon_config, COMDAT

; 1156 : {

  00000	55		 push	 ebp
  00001	8b ec		 mov	 ebp, esp
  00003	83 ec 68	 sub	 esp, 104		; 00000068H
  00006	53		 push	 ebx
  00007	56		 push	 esi
  00008	57		 push	 edi

; 1157 : 	const aircraft_data
; 1158 : 		*ac_data;
; 1159 : 
; 1160 : 	weapon_config_types
; 1161 : 		min_weapon_config_type,
; 1162 : 		max_weapon_config_type;
; 1163 : 
; 1164 : 	const weapon_loading_gunship_type
; 1165 : 		*wlgt;
; 1166 : 
; 1167 : 	const weapon_loading_hardpoint_type
; 1168 : 		*wlht;
; 1169 : 
; 1170 : 	int
; 1171 : 		weapon_config_package,
; 1172 : 		hardpoint,
; 1173 : 		ok;
; 1174 : 
; 1175 : 	entity_sub_types
; 1176 : 		hardpoint_weapon;
; 1177 : 
; 1178 : 	ASSERT (gunship_type >= 0 && gunship_type < NUM_GUNSHIP_TYPES);

  00009	83 7d 08 00	 cmp	 DWORD PTR _gunship_type$[ebp], 0
  0000d	7c 06		 jl	 SHORT $LN9@get_weapon
  0000f	83 7d 08 0a	 cmp	 DWORD PTR _gunship_type$[ebp], 10 ; 0000000aH
  00013	7c 18		 jl	 SHORT $LN8@get_weapon
$LN9@get_weapon:
  00015	a1 00 00 00 00	 mov	 eax, DWORD PTR ?__LINE__Var@?0??get_weapon_config@@YG?AW4WEAPON_CONFIG_TYPES@@W4GUNSHIP_TYPES@@QBH@Z@4JA
  0001a	83 c0 16	 add	 eax, 22			; 00000016H
  0001d	50		 push	 eax
  0001e	68 00 00 00 00	 push	 OFFSET ??_C@_0EL@EPAAMPOO@c?3?2users?2nhv90?2projects?2eech?2ap@
  00023	68 00 00 00 00	 push	 OFFSET ??_C@_0DG@JBGOKNKA@gunship_type?5?$DO?$DN?50?5?$CG?$CG?5gunship_ty@
  00028	e8 00 00 00 00	 call	 ?process_assert@@YGXPBD0H@Z ; process_assert
$LN8@get_weapon:

; 1179 : 
; 1180 : 	ac_data = &aircraft_database[gunship_sub_types[gunship_type]];

  0002d	8b 45 08	 mov	 eax, DWORD PTR _gunship_type$[ebp]
  00030	69 0c 85 00 00
	00 00 f4 00 00
	00		 imul	 ecx, DWORD PTR ?gunship_sub_types@@3PAHA[eax*4], 244
  0003b	81 c1 00 00 00
	00		 add	 ecx, OFFSET ?aircraft_database@@3PAUAIRCRAFT_DATA@@A ; aircraft_database
  00041	89 4d fc	 mov	 DWORD PTR _ac_data$[ebp], ecx

; 1181 : 
; 1182 : 	ASSERT (ac_data->gunship_type == gunship_type);

  00044	8b 45 fc	 mov	 eax, DWORD PTR _ac_data$[ebp]
  00047	8b 48 14	 mov	 ecx, DWORD PTR [eax+20]
  0004a	3b 4d 08	 cmp	 ecx, DWORD PTR _gunship_type$[ebp]
  0004d	74 18		 je	 SHORT $LN10@get_weapon
  0004f	a1 00 00 00 00	 mov	 eax, DWORD PTR ?__LINE__Var@?0??get_weapon_config@@YG?AW4WEAPON_CONFIG_TYPES@@W4GUNSHIP_TYPES@@QBH@Z@4JA
  00054	83 c0 1a	 add	 eax, 26			; 0000001aH
  00057	50		 push	 eax
  00058	68 00 00 00 00	 push	 OFFSET ??_C@_0EL@EPAAMPOO@c?3?2users?2nhv90?2projects?2eech?2ap@
  0005d	68 00 00 00 00	 push	 OFFSET ??_C@_0CG@CJELHCOG@ac_data?9?$DOgunship_type?5?$DN?$DN?5gunshi@
  00062	e8 00 00 00 00	 call	 ?process_assert@@YGXPBD0H@Z ; process_assert
$LN10@get_weapon:

; 1183 : 
; 1184 : 	min_weapon_config_type = ac_data->min_weapon_config_type;

  00067	8b 45 fc	 mov	 eax, DWORD PTR _ac_data$[ebp]
  0006a	8b 48 20	 mov	 ecx, DWORD PTR [eax+32]
  0006d	89 4d f8	 mov	 DWORD PTR _min_weapon_config_type$[ebp], ecx

; 1185 : 	max_weapon_config_type = ac_data->max_weapon_config_type;

  00070	8b 45 fc	 mov	 eax, DWORD PTR _ac_data$[ebp]
  00073	8b 48 24	 mov	 ecx, DWORD PTR [eax+36]
  00076	89 4d f4	 mov	 DWORD PTR _max_weapon_config_type$[ebp], ecx

; 1186 : 
; 1187 : 	wlgt = &weapon_loading_gunship_database[gunship_type];

  00079	69 45 08 a8 00
	00 00		 imul	 eax, DWORD PTR _gunship_type$[ebp], 168
  00080	05 00 00 00 00	 add	 eax, OFFSET ?weapon_loading_gunship_database@@3PAUWEAPON_LOADING_GUNSHIP_TYPE@@A
  00085	89 45 f0	 mov	 DWORD PTR _wlgt$[ebp], eax

; 1188 : 
; 1189 : 	for (weapon_config_package = min_weapon_config_type; weapon_config_package <= max_weapon_config_type; weapon_config_package++)

  00088	8b 45 f8	 mov	 eax, DWORD PTR _min_weapon_config_type$[ebp]
  0008b	89 45 e8	 mov	 DWORD PTR _weapon_config_package$[ebp], eax
  0008e	eb 09		 jmp	 SHORT $LN4@get_weapon
$LN2@get_weapon:
  00090	8b 45 e8	 mov	 eax, DWORD PTR _weapon_config_package$[ebp]
  00093	83 c0 01	 add	 eax, 1
  00096	89 45 e8	 mov	 DWORD PTR _weapon_config_package$[ebp], eax
$LN4@get_weapon:
  00099	8b 45 e8	 mov	 eax, DWORD PTR _weapon_config_package$[ebp]
  0009c	3b 45 f4	 cmp	 eax, DWORD PTR _max_weapon_config_type$[ebp]
  0009f	0f 8f 93 00 00
	00		 jg	 $LN3@get_weapon

; 1190 : 	{
; 1191 : 		for (hardpoint = 0; hardpoint < NUM_WEAPON_LOADING_HARDPOINT_TYPES; hardpoint++)

  000a5	c7 45 e4 00 00
	00 00		 mov	 DWORD PTR _hardpoint$[ebp], 0
  000ac	eb 09		 jmp	 SHORT $LN7@get_weapon
$LN5@get_weapon:
  000ae	8b 45 e4	 mov	 eax, DWORD PTR _hardpoint$[ebp]
  000b1	83 c0 01	 add	 eax, 1
  000b4	89 45 e4	 mov	 DWORD PTR _hardpoint$[ebp], eax
$LN7@get_weapon:
  000b7	83 7d e4 06	 cmp	 DWORD PTR _hardpoint$[ebp], 6
  000bb	7d 6b		 jge	 SHORT $LN6@get_weapon

; 1192 : 		{
; 1193 : 			wlht = &wlgt->hardpoint_list[hardpoint];

  000bd	6b 45 e4 1c	 imul	 eax, DWORD PTR _hardpoint$[ebp], 28
  000c1	03 45 f0	 add	 eax, DWORD PTR _wlgt$[ebp]
  000c4	89 45 ec	 mov	 DWORD PTR _wlht$[ebp], eax

; 1194 : 
; 1195 : 			if (!wlht->valid || wlht->number_of_valid_weapon_types < 2)

  000c7	8b 45 ec	 mov	 eax, DWORD PTR _wlht$[ebp]
  000ca	83 38 00	 cmp	 DWORD PTR [eax], 0
  000cd	74 09		 je	 SHORT $LN12@get_weapon
  000cf	8b 45 ec	 mov	 eax, DWORD PTR _wlht$[ebp]
  000d2	83 78 0c 02	 cmp	 DWORD PTR [eax+12], 2
  000d6	7d 02		 jge	 SHORT $LN11@get_weapon
$LN12@get_weapon:

; 1196 : 			{
; 1197 : 				continue;

  000d8	eb d4		 jmp	 SHORT $LN5@get_weapon
$LN11@get_weapon:

; 1198 : 			}
; 1199 : 
; 1200 : 			hardpoint_weapon = current_weapon[hardpoint];

  000da	8b 45 e4	 mov	 eax, DWORD PTR _hardpoint$[ebp]
  000dd	8b 4d 0c	 mov	 ecx, DWORD PTR _current_weapon$[ebp]
  000e0	8b 14 81	 mov	 edx, DWORD PTR [ecx+eax*4]
  000e3	89 55 dc	 mov	 DWORD PTR _hardpoint_weapon$[ebp], edx

; 1201 : 			ok = hardpoint_weapon == ENTITY_SUB_TYPE_WEAPON_NO_WEAPON ? check_hardpoint_clean ((weapon_config_types)weapon_config_package, wlht->sub_object_depth1) : check_weapon_on_hardpoint ((weapon_config_types)weapon_config_package, hardpoint_weapon, wlht->sub_object_depth1);

  000e6	83 7d dc 00	 cmp	 DWORD PTR _hardpoint_weapon$[ebp], 0
  000ea	75 15		 jne	 SHORT $LN16@get_weapon
  000ec	8b 45 ec	 mov	 eax, DWORD PTR _wlht$[ebp]
  000ef	8b 48 10	 mov	 ecx, DWORD PTR [eax+16]
  000f2	51		 push	 ecx
  000f3	8b 55 e8	 mov	 edx, DWORD PTR _weapon_config_package$[ebp]
  000f6	52		 push	 edx
  000f7	e8 00 00 00 00	 call	 ?check_hardpoint_clean@@YGHW4WEAPON_CONFIG_TYPES@@H@Z ; check_hardpoint_clean
  000fc	89 45 98	 mov	 DWORD PTR tv139[ebp], eax
  000ff	eb 17		 jmp	 SHORT $LN17@get_weapon
$LN16@get_weapon:
  00101	8b 45 ec	 mov	 eax, DWORD PTR _wlht$[ebp]
  00104	8b 48 10	 mov	 ecx, DWORD PTR [eax+16]
  00107	51		 push	 ecx
  00108	8b 55 dc	 mov	 edx, DWORD PTR _hardpoint_weapon$[ebp]
  0010b	52		 push	 edx
  0010c	8b 45 e8	 mov	 eax, DWORD PTR _weapon_config_package$[ebp]
  0010f	50		 push	 eax
  00110	e8 00 00 00 00	 call	 ?check_weapon_on_hardpoint@@YGHW4WEAPON_CONFIG_TYPES@@HH@Z ; check_weapon_on_hardpoint
  00115	89 45 98	 mov	 DWORD PTR tv139[ebp], eax
$LN17@get_weapon:
  00118	8b 4d 98	 mov	 ecx, DWORD PTR tv139[ebp]
  0011b	89 4d e0	 mov	 DWORD PTR _ok$[ebp], ecx

; 1202 : 
; 1203 : 			if (!ok)

  0011e	83 7d e0 00	 cmp	 DWORD PTR _ok$[ebp], 0
  00122	75 02		 jne	 SHORT $LN13@get_weapon

; 1204 : 			{
; 1205 : 				break;

  00124	eb 02		 jmp	 SHORT $LN6@get_weapon
$LN13@get_weapon:

; 1206 : 			}
; 1207 : 		}

  00126	eb 86		 jmp	 SHORT $LN5@get_weapon
$LN6@get_weapon:

; 1208 : 
; 1209 : 		if (ok)

  00128	83 7d e0 00	 cmp	 DWORD PTR _ok$[ebp], 0
  0012c	74 05		 je	 SHORT $LN14@get_weapon

; 1210 : 		{
; 1211 : 			return (weapon_config_types)weapon_config_package;

  0012e	8b 45 e8	 mov	 eax, DWORD PTR _weapon_config_package$[ebp]
  00131	eb 07		 jmp	 SHORT $LN1@get_weapon
$LN14@get_weapon:

; 1212 : 		}
; 1213 : 	}

  00133	e9 58 ff ff ff	 jmp	 $LN2@get_weapon
$LN3@get_weapon:

; 1214 : 
; 1215 : 	return WEAPON_CONFIG_TYPE_UNARMED;

  00138	33 c0		 xor	 eax, eax
$LN1@get_weapon:

; 1216 : }

  0013a	5f		 pop	 edi
  0013b	5e		 pop	 esi
  0013c	5b		 pop	 ebx
  0013d	8b e5		 mov	 esp, ebp
  0013f	5d		 pop	 ebp
  00140	c2 08 00	 ret	 8
?get_weapon_config@@YG?AW4WEAPON_CONFIG_TYPES@@W4GUNSHIP_TYPES@@QBH@Z ENDP ; get_weapon_config
_TEXT	ENDS
; Function compile flags: /Odtp /ZI
; File c:\users\nhv90\projects\eech\aphavoc\source\entity\mobile\weapon\wn_load.c
;	COMDAT ?weapon_loading_set_current_hardpoint_weapon@@YGXW4GUNSHIP_TYPES@@W4WEAPON_LOADING_HARDPOINT_TYPES@@H@Z
_TEXT	SEGMENT
_loop$ = -12						; size = 4
_hardpoint_data$ = -8					; size = 4
_gunship_data$ = -4					; size = 4
_gunship_type$ = 8					; size = 4
_hardpoint$ = 12					; size = 4
_weapon_type$ = 16					; size = 4
?weapon_loading_set_current_hardpoint_weapon@@YGXW4GUNSHIP_TYPES@@W4WEAPON_LOADING_HARDPOINT_TYPES@@H@Z PROC ; weapon_loading_set_current_hardpoint_weapon, COMDAT

; 1376 : {

  00000	55		 push	 ebp
  00001	8b ec		 mov	 ebp, esp
  00003	83 ec 4c	 sub	 esp, 76			; 0000004cH
  00006	53		 push	 ebx
  00007	56		 push	 esi
  00008	57		 push	 edi

; 1377 : 	weapon_loading_gunship_type
; 1378 : 		*gunship_data;
; 1379 : 
; 1380 : 	weapon_loading_hardpoint_type
; 1381 : 		*hardpoint_data;
; 1382 : 
; 1383 : 	int
; 1384 : 		loop;
; 1385 : 
; 1386 : 	gunship_data = &weapon_loading_gunship_database [gunship_type];

  00009	69 45 08 a8 00
	00 00		 imul	 eax, DWORD PTR _gunship_type$[ebp], 168
  00010	05 00 00 00 00	 add	 eax, OFFSET ?weapon_loading_gunship_database@@3PAUWEAPON_LOADING_GUNSHIP_TYPE@@A
  00015	89 45 fc	 mov	 DWORD PTR _gunship_data$[ebp], eax

; 1387 : 
; 1388 : 	ASSERT (hardpoint < NUM_WEAPON_LOADING_HARDPOINT_TYPES);

  00018	83 7d 0c 06	 cmp	 DWORD PTR _hardpoint$[ebp], 6
  0001c	7c 18		 jl	 SHORT $LN5@weapon_loa
  0001e	a1 00 00 00 00	 mov	 eax, DWORD PTR ?__LINE__Var@?0??weapon_loading_set_current_hardpoint_weapon@@YGXW4GUNSHIP_TYPES@@W4WEAPON_LOADING_HARDPOINT_TYPES@@H@Z@4JA
  00023	83 c0 0c	 add	 eax, 12			; 0000000cH
  00026	50		 push	 eax
  00027	68 00 00 00 00	 push	 OFFSET ??_C@_0EL@EPAAMPOO@c?3?2users?2nhv90?2projects?2eech?2ap@
  0002c	68 00 00 00 00	 push	 OFFSET ??_C@_0CP@BHLHFPLO@hardpoint?5?$DM?5NUM_WEAPON_LOADING_@
  00031	e8 00 00 00 00	 call	 ?process_assert@@YGXPBD0H@Z ; process_assert
$LN5@weapon_loa:

; 1389 : 
; 1390 : 	hardpoint_data = &(gunship_data->hardpoint_list [hardpoint]);

  00036	6b 45 0c 1c	 imul	 eax, DWORD PTR _hardpoint$[ebp], 28
  0003a	03 45 fc	 add	 eax, DWORD PTR _gunship_data$[ebp]
  0003d	89 45 f8	 mov	 DWORD PTR _hardpoint_data$[ebp], eax

; 1391 : 
; 1392 : 	ASSERT (hardpoint_data->valid);

  00040	8b 45 f8	 mov	 eax, DWORD PTR _hardpoint_data$[ebp]
  00043	83 38 00	 cmp	 DWORD PTR [eax], 0
  00046	75 18		 jne	 SHORT $LN6@weapon_loa
  00048	a1 00 00 00 00	 mov	 eax, DWORD PTR ?__LINE__Var@?0??weapon_loading_set_current_hardpoint_weapon@@YGXW4GUNSHIP_TYPES@@W4WEAPON_LOADING_HARDPOINT_TYPES@@H@Z@4JA
  0004d	83 c0 10	 add	 eax, 16			; 00000010H
  00050	50		 push	 eax
  00051	68 00 00 00 00	 push	 OFFSET ??_C@_0EL@EPAAMPOO@c?3?2users?2nhv90?2projects?2eech?2ap@
  00056	68 00 00 00 00	 push	 OFFSET ??_C@_0BG@OHMLNJBE@hardpoint_data?9?$DOvalid@
  0005b	e8 00 00 00 00	 call	 ?process_assert@@YGXPBD0H@Z ; process_assert
$LN6@weapon_loa:

; 1393 : 
; 1394 : 	for (loop = 0; loop < hardpoint_data->number_of_valid_weapon_types; loop ++)

  00060	c7 45 f4 00 00
	00 00		 mov	 DWORD PTR _loop$[ebp], 0
  00067	eb 09		 jmp	 SHORT $LN4@weapon_loa
$LN2@weapon_loa:
  00069	8b 45 f4	 mov	 eax, DWORD PTR _loop$[ebp]
  0006c	83 c0 01	 add	 eax, 1
  0006f	89 45 f4	 mov	 DWORD PTR _loop$[ebp], eax
$LN4@weapon_loa:
  00072	8b 45 f8	 mov	 eax, DWORD PTR _hardpoint_data$[ebp]
  00075	8b 4d f4	 mov	 ecx, DWORD PTR _loop$[ebp]
  00078	3b 48 0c	 cmp	 ecx, DWORD PTR [eax+12]
  0007b	7d 1e		 jge	 SHORT $LN3@weapon_loa

; 1395 : 	{
; 1396 : 		if (hardpoint_data->valid_weapon_types [loop] == weapon_type)

  0007d	8b 45 f8	 mov	 eax, DWORD PTR _hardpoint_data$[ebp]
  00080	8b 48 18	 mov	 ecx, DWORD PTR [eax+24]
  00083	8b 55 f4	 mov	 edx, DWORD PTR _loop$[ebp]
  00086	8b 04 91	 mov	 eax, DWORD PTR [ecx+edx*4]
  00089	3b 45 10	 cmp	 eax, DWORD PTR _weapon_type$[ebp]
  0008c	75 0b		 jne	 SHORT $LN7@weapon_loa

; 1397 : 		{
; 1398 : 			hardpoint_data->current_weapon_index = loop;

  0008e	8b 45 f8	 mov	 eax, DWORD PTR _hardpoint_data$[ebp]
  00091	8b 4d f4	 mov	 ecx, DWORD PTR _loop$[ebp]
  00094	89 48 08	 mov	 DWORD PTR [eax+8], ecx

; 1399 : 
; 1400 : 			#if DEBUG_MODULE
; 1401 : 
; 1402 : 			debug_log ("WN_LOAD : Hardpoint %d - weapon type ( %s )", hardpoint, entity_sub_type_weapon_names [weapon_type]);
; 1403 : 
; 1404 : 			#endif
; 1405 : 
; 1406 : 			return;

  00097	eb 1e		 jmp	 SHORT $LN1@weapon_loa
$LN7@weapon_loa:

; 1407 : 		}
; 1408 : 	}

  00099	eb ce		 jmp	 SHORT $LN2@weapon_loa
$LN3@weapon_loa:

; 1409 : 
; 1410 : 	debug_fatal ("WN_LOAD : Invalid weapon type ( %s ) on hardpoint %d", entity_sub_type_weapon_names [weapon_type], hardpoint);

  0009b	8b 45 0c	 mov	 eax, DWORD PTR _hardpoint$[ebp]
  0009e	50		 push	 eax
  0009f	8b 4d 10	 mov	 ecx, DWORD PTR _weapon_type$[ebp]
  000a2	8b 14 8d 00 00
	00 00		 mov	 edx, DWORD PTR ?entity_sub_type_weapon_names@@3PAPBDA[ecx*4]
  000a9	52		 push	 edx
  000aa	68 00 00 00 00	 push	 OFFSET ??_C@_0DF@LOOCINJK@WN_LOAD?5?3?5Invalid?5weapon?5type?5?$CI@
  000af	e8 00 00 00 00	 call	 ?debug_fatal@@YAXPBDZZ	; debug_fatal
  000b4	83 c4 0c	 add	 esp, 12			; 0000000cH
$LN1@weapon_loa:

; 1411 : }

  000b7	5f		 pop	 edi
  000b8	5e		 pop	 esi
  000b9	5b		 pop	 ebx
  000ba	8b e5		 mov	 esp, ebp
  000bc	5d		 pop	 ebp
  000bd	c2 0c 00	 ret	 12			; 0000000cH
?weapon_loading_set_current_hardpoint_weapon@@YGXW4GUNSHIP_TYPES@@W4WEAPON_LOADING_HARDPOINT_TYPES@@H@Z ENDP ; weapon_loading_set_current_hardpoint_weapon
_TEXT	ENDS
; Function compile flags: /Odtp /ZI
; File c:\users\nhv90\projects\eech\aphavoc\source\entity\mobile\weapon\wn_load.c
;	COMDAT ?weapon_loading_reload_all_weapons@@YGXPAUENTITY@@@Z
_TEXT	SEGMENT
tv140 = -104						; size = 4
tv83 = -104						; size = 4
tv132 = -100						; size = 4
tv75 = -100						; size = 4
_gunship_type$ = -32					; size = 4
_new_config_type$ = -28					; size = 4
_current_weapon$ = -24					; size = 24
_en$ = 8						; size = 4
?weapon_loading_reload_all_weapons@@YGXPAUENTITY@@@Z PROC ; weapon_loading_reload_all_weapons, COMDAT

; 1590 : {

  00000	55		 push	 ebp
  00001	8b ec		 mov	 ebp, esp
  00003	83 ec 68	 sub	 esp, 104		; 00000068H
  00006	53		 push	 ebx
  00007	56		 push	 esi
  00008	57		 push	 edi

; 1591 : 	entity_sub_types
; 1592 : 		current_weapon [NUM_WEAPON_LOADING_HARDPOINT_TYPES];
; 1593 : 
; 1594 : 	weapon_config_types
; 1595 : 		new_config_type;
; 1596 : 
; 1597 : 	gunship_types
; 1598 : 		gunship_type;
; 1599 : 
; 1600 : 	ASSERT (en);

  00009	83 7d 08 00	 cmp	 DWORD PTR _en$[ebp], 0
  0000d	75 18		 jne	 SHORT $LN2@weapon_loa
  0000f	a1 00 00 00 00	 mov	 eax, DWORD PTR ?__LINE__Var@?0??weapon_loading_reload_all_weapons@@YGXPAUENTITY@@@Z@4JA
  00014	83 c0 0a	 add	 eax, 10			; 0000000aH
  00017	50		 push	 eax
  00018	68 00 00 00 00	 push	 OFFSET ??_C@_0EL@EPAAMPOO@c?3?2users?2nhv90?2projects?2eech?2ap@
  0001d	68 00 00 00 00	 push	 OFFSET ??_C@_02LFNMGJAP@en@
  00022	e8 00 00 00 00	 call	 ?process_assert@@YGXPBD0H@Z ; process_assert
$LN2@weapon_loa:

; 1601 : 
; 1602 : 	gunship_type = (gunship_types) get_local_entity_int_value (en, INT_TYPE_GUNSHIP_TYPE);

  00027	83 7d 08 00	 cmp	 DWORD PTR _en$[ebp], 0
  0002b	74 0a		 je	 SHORT $LN5@weapon_loa
  0002d	8b 45 08	 mov	 eax, DWORD PTR _en$[ebp]
  00030	8b 08		 mov	 ecx, DWORD PTR [eax]
  00032	89 4d 9c	 mov	 DWORD PTR tv75[ebp], ecx
  00035	eb 21		 jmp	 SHORT $LN6@weapon_loa
$LN5@weapon_loa:
  00037	8b 15 00 00 00
	00		 mov	 edx, DWORD PTR ?__LINE__Var@?0??weapon_loading_reload_all_weapons@@YGXPAUENTITY@@@Z@4JA
  0003d	83 c2 0c	 add	 edx, 12			; 0000000cH
  00040	52		 push	 edx
  00041	68 00 00 00 00	 push	 OFFSET ??_C@_0EL@EPAAMPOO@c?3?2users?2nhv90?2projects?2eech?2ap@
  00046	a1 00 00 00 00	 mov	 eax, DWORD PTR ?null_entity_pointer_message@@3PBDB ; null_entity_pointer_message
  0004b	50		 push	 eax
  0004c	e8 00 00 00 00	 call	 ?process_assert@@YGXPBD0H@Z ; process_assert
  00051	c7 45 9c 00 00
	00 00		 mov	 DWORD PTR tv75[ebp], 0
$LN6@weapon_loa:
  00058	b9 01 00 00 00	 mov	 ecx, 1
  0005d	85 c9		 test	 ecx, ecx
  0005f	74 09		 je	 SHORT $LN7@weapon_loa
  00061	c7 45 98 51 00
	00 00		 mov	 DWORD PTR tv83[ebp], 81	; 00000051H
  00068	eb 21		 jmp	 SHORT $LN8@weapon_loa
$LN7@weapon_loa:
  0006a	8b 15 00 00 00
	00		 mov	 edx, DWORD PTR ?__LINE__Var@?0??weapon_loading_reload_all_weapons@@YGXPAUENTITY@@@Z@4JA
  00070	83 c2 0c	 add	 edx, 12			; 0000000cH
  00073	52		 push	 edx
  00074	68 00 00 00 00	 push	 OFFSET ??_C@_0EL@EPAAMPOO@c?3?2users?2nhv90?2projects?2eech?2ap@
  00079	a1 00 00 00 00	 mov	 eax, DWORD PTR ?overload_invalid_int_type_message@@3PBDB ; overload_invalid_int_type_message
  0007e	50		 push	 eax
  0007f	e8 00 00 00 00	 call	 ?process_assert@@YGXPBD0H@Z ; process_assert
  00084	c7 45 98 00 00
	00 00		 mov	 DWORD PTR tv83[ebp], 0
$LN8@weapon_loa:
  0008b	6a 51		 push	 81			; 00000051H
  0008d	8b 4d 08	 mov	 ecx, DWORD PTR _en$[ebp]
  00090	51		 push	 ecx
  00091	69 55 9c 5c 04
	00 00		 imul	 edx, DWORD PTR tv75[ebp], 1116
  00098	8b 45 98	 mov	 eax, DWORD PTR tv83[ebp]
  0009b	8b 8c 82 00 00
	00 00		 mov	 ecx, DWORD PTR ?fn_get_local_entity_int_value@@3PAY0BBH@P6GHPAUENTITY@@W4INT_TYPES@@@ZA[edx+eax*4]
  000a2	ff d1		 call	 ecx
  000a4	89 45 e0	 mov	 DWORD PTR _gunship_type$[ebp], eax

; 1603 : 
; 1604 : 	get_current_hardpoint_weapon

  000a7	8d 45 e8	 lea	 eax, DWORD PTR _current_weapon$[ebp]
  000aa	50		 push	 eax
  000ab	8b 4d e0	 mov	 ecx, DWORD PTR _gunship_type$[ebp]
  000ae	51		 push	 ecx
  000af	e8 00 00 00 00	 call	 ?get_current_hardpoint_weapon@@YGXW4GUNSHIP_TYPES@@QAH@Z ; get_current_hardpoint_weapon

; 1605 : 	(
; 1606 : 		gunship_type,
; 1607 : 		current_weapon
; 1608 : 	);
; 1609 : 
; 1610 : 	new_config_type = get_weapon_config

  000b4	8d 45 e8	 lea	 eax, DWORD PTR _current_weapon$[ebp]
  000b7	50		 push	 eax
  000b8	8b 4d e0	 mov	 ecx, DWORD PTR _gunship_type$[ebp]
  000bb	51		 push	 ecx
  000bc	e8 00 00 00 00	 call	 ?get_weapon_config@@YG?AW4WEAPON_CONFIG_TYPES@@W4GUNSHIP_TYPES@@QBH@Z ; get_weapon_config
  000c1	89 45 e4	 mov	 DWORD PTR _new_config_type$[ebp], eax

; 1611 : 	(
; 1612 : 		gunship_type,
; 1613 : 		current_weapon
; 1614 : 	);
; 1615 : 
; 1616 : 	set_client_server_entity_int_value (en, INT_TYPE_WEAPON_CONFIG_TYPE, new_config_type);

  000c4	83 7d 08 00	 cmp	 DWORD PTR _en$[ebp], 0
  000c8	74 0a		 je	 SHORT $LN9@weapon_loa
  000ca	8b 45 08	 mov	 eax, DWORD PTR _en$[ebp]
  000cd	8b 08		 mov	 ecx, DWORD PTR [eax]
  000cf	89 4d 9c	 mov	 DWORD PTR tv132[ebp], ecx
  000d2	eb 21		 jmp	 SHORT $LN10@weapon_loa
$LN9@weapon_loa:
  000d4	8b 15 00 00 00
	00		 mov	 edx, DWORD PTR ?__LINE__Var@?0??weapon_loading_reload_all_weapons@@YGXPAUENTITY@@@Z@4JA
  000da	83 c2 1a	 add	 edx, 26			; 0000001aH
  000dd	52		 push	 edx
  000de	68 00 00 00 00	 push	 OFFSET ??_C@_0EL@EPAAMPOO@c?3?2users?2nhv90?2projects?2eech?2ap@
  000e3	a1 00 00 00 00	 mov	 eax, DWORD PTR ?null_entity_pointer_message@@3PBDB ; null_entity_pointer_message
  000e8	50		 push	 eax
  000e9	e8 00 00 00 00	 call	 ?process_assert@@YGXPBD0H@Z ; process_assert
  000ee	c7 45 9c 00 00
	00 00		 mov	 DWORD PTR tv132[ebp], 0
$LN10@weapon_loa:
  000f5	b9 01 00 00 00	 mov	 ecx, 1
  000fa	85 c9		 test	 ecx, ecx
  000fc	74 09		 je	 SHORT $LN11@weapon_loa
  000fe	c7 45 98 05 01
	00 00		 mov	 DWORD PTR tv140[ebp], 261 ; 00000105H
  00105	eb 21		 jmp	 SHORT $LN12@weapon_loa
$LN11@weapon_loa:
  00107	8b 15 00 00 00
	00		 mov	 edx, DWORD PTR ?__LINE__Var@?0??weapon_loading_reload_all_weapons@@YGXPAUENTITY@@@Z@4JA
  0010d	83 c2 1a	 add	 edx, 26			; 0000001aH
  00110	52		 push	 edx
  00111	68 00 00 00 00	 push	 OFFSET ??_C@_0EL@EPAAMPOO@c?3?2users?2nhv90?2projects?2eech?2ap@
  00116	a1 00 00 00 00	 mov	 eax, DWORD PTR ?overload_invalid_int_type_message@@3PBDB ; overload_invalid_int_type_message
  0011b	50		 push	 eax
  0011c	e8 00 00 00 00	 call	 ?process_assert@@YGXPBD0H@Z ; process_assert
  00121	c7 45 98 00 00
	00 00		 mov	 DWORD PTR tv140[ebp], 0
$LN12@weapon_loa:
  00128	8b 4d e4	 mov	 ecx, DWORD PTR _new_config_type$[ebp]
  0012b	51		 push	 ecx
  0012c	68 05 01 00 00	 push	 261			; 00000105H
  00131	8b 55 08	 mov	 edx, DWORD PTR _en$[ebp]
  00134	52		 push	 edx
  00135	69 45 9c b8 08
	00 00		 imul	 eax, DWORD PTR tv132[ebp], 2232
  0013c	8b 4d 98	 mov	 ecx, DWORD PTR tv140[ebp]
  0013f	8d 94 c8 00 00
	00 00		 lea	 edx, DWORD PTR ?fn_set_client_server_entity_int_value@@3PAY1BBH@1P6GXPAUENTITY@@W4INT_TYPES@@H@ZA[eax+ecx*8]
  00146	a1 00 00 00 00	 mov	 eax, DWORD PTR ?system_comms_model@@3W4COMMS_MODEL_TYPES@@A ; system_comms_model
  0014b	8b 0c 82	 mov	 ecx, DWORD PTR [edx+eax*4]
  0014e	ff d1		 call	 ecx

; 1617 : 
; 1618 : 	if (en == get_gunship_entity ())

  00150	8b 45 08	 mov	 eax, DWORD PTR _en$[ebp]
  00153	3b 05 00 00 00
	00		 cmp	 eax, DWORD PTR ?gunship_entity@@3PAUENTITY@@A ; gunship_entity
  00159	75 07		 jne	 SHORT $LN3@weapon_loa

; 1619 : 	{
; 1620 : 		set_flight_dynamics_mass ();

  0015b	e8 00 00 00 00	 call	 ?set_flight_dynamics_mass@@YGMXZ ; set_flight_dynamics_mass
  00160	dd d8		 fstp	 ST(0)
$LN3@weapon_loa:

; 1621 : 	}
; 1622 : }

  00162	5f		 pop	 edi
  00163	5e		 pop	 esi
  00164	5b		 pop	 ebx
  00165	8b e5		 mov	 esp, ebp
  00167	5d		 pop	 ebp
  00168	c2 04 00	 ret	 4
?weapon_loading_reload_all_weapons@@YGXPAUENTITY@@@Z ENDP ; weapon_loading_reload_all_weapons
_TEXT	ENDS
; Function compile flags: /Odtp /ZI
; File c:\users\nhv90\projects\eech\aphavoc\source\entity\mobile\weapon\wn_load.c
;	COMDAT ?get_weapon_loading_hardpoint_weapon_count@@YGHPAUENTITY@@W4WEAPON_LOADING_HARDPOINT_TYPES@@H@Z
_TEXT	SEGMENT
tv83 = -100						; size = 4
tv75 = -96						; size = 4
_gunship_type$ = -28					; size = 4
_hardpoint_data$ = -24					; size = 4
_gunship_data$ = -20					; size = 4
_damaged$ = -16						; size = 4
_sub_type$ = -12					; size = 4
_number$ = -8						; size = 4
_count$ = -4						; size = 4
_en$ = 8						; size = 4
_hardpoint$ = 12					; size = 4
_weapon_type$ = 16					; size = 4
?get_weapon_loading_hardpoint_weapon_count@@YGHPAUENTITY@@W4WEAPON_LOADING_HARDPOINT_TYPES@@H@Z PROC ; get_weapon_loading_hardpoint_weapon_count, COMDAT

; 1629 : {

  00000	55		 push	 ebp
  00001	8b ec		 mov	 ebp, esp
  00003	83 ec 64	 sub	 esp, 100		; 00000064H
  00006	53		 push	 ebx
  00007	56		 push	 esi
  00008	57		 push	 edi

; 1630 : 	int
; 1631 : 		count,
; 1632 : 		number,
; 1633 : 		sub_type,
; 1634 : 		damaged;
; 1635 : 
; 1636 : 	weapon_loading_gunship_type
; 1637 : 		*gunship_data;
; 1638 : 
; 1639 : 	weapon_loading_hardpoint_type
; 1640 : 		*hardpoint_data;
; 1641 : 
; 1642 : 	gunship_types
; 1643 : 		gunship_type;
; 1644 : 
; 1645 : 	ASSERT (en);

  00009	83 7d 08 00	 cmp	 DWORD PTR _en$[ebp], 0
  0000d	75 18		 jne	 SHORT $LN2@get_weapon
  0000f	a1 00 00 00 00	 mov	 eax, DWORD PTR ?__LINE__Var@?0??get_weapon_loading_hardpoint_weapon_count@@YGHPAUENTITY@@W4WEAPON_LOADING_HARDPOINT_TYPES@@H@Z@4JA
  00014	83 c0 10	 add	 eax, 16			; 00000010H
  00017	50		 push	 eax
  00018	68 00 00 00 00	 push	 OFFSET ??_C@_0EL@EPAAMPOO@c?3?2users?2nhv90?2projects?2eech?2ap@
  0001d	68 00 00 00 00	 push	 OFFSET ??_C@_02LFNMGJAP@en@
  00022	e8 00 00 00 00	 call	 ?process_assert@@YGXPBD0H@Z ; process_assert
$LN2@get_weapon:

; 1646 : 
; 1647 : 	gunship_type = (gunship_types) get_local_entity_int_value (en, INT_TYPE_GUNSHIP_TYPE);

  00027	83 7d 08 00	 cmp	 DWORD PTR _en$[ebp], 0
  0002b	74 0a		 je	 SHORT $LN11@get_weapon
  0002d	8b 45 08	 mov	 eax, DWORD PTR _en$[ebp]
  00030	8b 08		 mov	 ecx, DWORD PTR [eax]
  00032	89 4d a0	 mov	 DWORD PTR tv75[ebp], ecx
  00035	eb 21		 jmp	 SHORT $LN12@get_weapon
$LN11@get_weapon:
  00037	8b 15 00 00 00
	00		 mov	 edx, DWORD PTR ?__LINE__Var@?0??get_weapon_loading_hardpoint_weapon_count@@YGHPAUENTITY@@W4WEAPON_LOADING_HARDPOINT_TYPES@@H@Z@4JA
  0003d	83 c2 12	 add	 edx, 18			; 00000012H
  00040	52		 push	 edx
  00041	68 00 00 00 00	 push	 OFFSET ??_C@_0EL@EPAAMPOO@c?3?2users?2nhv90?2projects?2eech?2ap@
  00046	a1 00 00 00 00	 mov	 eax, DWORD PTR ?null_entity_pointer_message@@3PBDB ; null_entity_pointer_message
  0004b	50		 push	 eax
  0004c	e8 00 00 00 00	 call	 ?process_assert@@YGXPBD0H@Z ; process_assert
  00051	c7 45 a0 00 00
	00 00		 mov	 DWORD PTR tv75[ebp], 0
$LN12@get_weapon:
  00058	b9 01 00 00 00	 mov	 ecx, 1
  0005d	85 c9		 test	 ecx, ecx
  0005f	74 09		 je	 SHORT $LN13@get_weapon
  00061	c7 45 9c 51 00
	00 00		 mov	 DWORD PTR tv83[ebp], 81	; 00000051H
  00068	eb 21		 jmp	 SHORT $LN14@get_weapon
$LN13@get_weapon:
  0006a	8b 15 00 00 00
	00		 mov	 edx, DWORD PTR ?__LINE__Var@?0??get_weapon_loading_hardpoint_weapon_count@@YGHPAUENTITY@@W4WEAPON_LOADING_HARDPOINT_TYPES@@H@Z@4JA
  00070	83 c2 12	 add	 edx, 18			; 00000012H
  00073	52		 push	 edx
  00074	68 00 00 00 00	 push	 OFFSET ??_C@_0EL@EPAAMPOO@c?3?2users?2nhv90?2projects?2eech?2ap@
  00079	a1 00 00 00 00	 mov	 eax, DWORD PTR ?overload_invalid_int_type_message@@3PBDB ; overload_invalid_int_type_message
  0007e	50		 push	 eax
  0007f	e8 00 00 00 00	 call	 ?process_assert@@YGXPBD0H@Z ; process_assert
  00084	c7 45 9c 00 00
	00 00		 mov	 DWORD PTR tv83[ebp], 0
$LN14@get_weapon:
  0008b	6a 51		 push	 81			; 00000051H
  0008d	8b 4d 08	 mov	 ecx, DWORD PTR _en$[ebp]
  00090	51		 push	 ecx
  00091	69 55 a0 5c 04
	00 00		 imul	 edx, DWORD PTR tv75[ebp], 1116
  00098	8b 45 9c	 mov	 eax, DWORD PTR tv83[ebp]
  0009b	8b 8c 82 00 00
	00 00		 mov	 ecx, DWORD PTR ?fn_get_local_entity_int_value@@3PAY0BBH@P6GHPAUENTITY@@W4INT_TYPES@@@ZA[edx+eax*4]
  000a2	ff d1		 call	 ecx
  000a4	89 45 e4	 mov	 DWORD PTR _gunship_type$[ebp], eax

; 1648 : 
; 1649 : 	ASSERT (gunship_type < NUM_GUNSHIP_TYPES);

  000a7	83 7d e4 0a	 cmp	 DWORD PTR _gunship_type$[ebp], 10 ; 0000000aH
  000ab	7c 18		 jl	 SHORT $LN3@get_weapon
  000ad	a1 00 00 00 00	 mov	 eax, DWORD PTR ?__LINE__Var@?0??get_weapon_loading_hardpoint_weapon_count@@YGHPAUENTITY@@W4WEAPON_LOADING_HARDPOINT_TYPES@@H@Z@4JA
  000b2	83 c0 14	 add	 eax, 20			; 00000014H
  000b5	50		 push	 eax
  000b6	68 00 00 00 00	 push	 OFFSET ??_C@_0EL@EPAAMPOO@c?3?2users?2nhv90?2projects?2eech?2ap@
  000bb	68 00 00 00 00	 push	 OFFSET ??_C@_0CB@NCHKICBO@gunship_type?5?$DM?5NUM_GUNSHIP_TYPE@
  000c0	e8 00 00 00 00	 call	 ?process_assert@@YGXPBD0H@Z ; process_assert
$LN3@get_weapon:

; 1650 : 
; 1651 : 	gunship_data = &weapon_loading_gunship_database [gunship_type];

  000c5	69 45 e4 a8 00
	00 00		 imul	 eax, DWORD PTR _gunship_type$[ebp], 168
  000cc	05 00 00 00 00	 add	 eax, OFFSET ?weapon_loading_gunship_database@@3PAUWEAPON_LOADING_GUNSHIP_TYPE@@A
  000d1	89 45 ec	 mov	 DWORD PTR _gunship_data$[ebp], eax

; 1652 : 
; 1653 : 	ASSERT (hardpoint < NUM_WEAPON_LOADING_HARDPOINT_TYPES);

  000d4	83 7d 0c 06	 cmp	 DWORD PTR _hardpoint$[ebp], 6
  000d8	7c 18		 jl	 SHORT $LN4@get_weapon
  000da	a1 00 00 00 00	 mov	 eax, DWORD PTR ?__LINE__Var@?0??get_weapon_loading_hardpoint_weapon_count@@YGHPAUENTITY@@W4WEAPON_LOADING_HARDPOINT_TYPES@@H@Z@4JA
  000df	83 c0 18	 add	 eax, 24			; 00000018H
  000e2	50		 push	 eax
  000e3	68 00 00 00 00	 push	 OFFSET ??_C@_0EL@EPAAMPOO@c?3?2users?2nhv90?2projects?2eech?2ap@
  000e8	68 00 00 00 00	 push	 OFFSET ??_C@_0CP@BHLHFPLO@hardpoint?5?$DM?5NUM_WEAPON_LOADING_@
  000ed	e8 00 00 00 00	 call	 ?process_assert@@YGXPBD0H@Z ; process_assert
$LN4@get_weapon:

; 1654 : 
; 1655 : 	hardpoint_data = &(gunship_data->hardpoint_list [hardpoint]);

  000f2	6b 45 0c 1c	 imul	 eax, DWORD PTR _hardpoint$[ebp], 28
  000f6	03 45 ec	 add	 eax, DWORD PTR _gunship_data$[ebp]
  000f9	89 45 e8	 mov	 DWORD PTR _hardpoint_data$[ebp], eax

; 1656 : 
; 1657 : 	ASSERT (hardpoint_data->valid);

  000fc	8b 45 e8	 mov	 eax, DWORD PTR _hardpoint_data$[ebp]
  000ff	83 38 00	 cmp	 DWORD PTR [eax], 0
  00102	75 18		 jne	 SHORT $LN5@get_weapon
  00104	a1 00 00 00 00	 mov	 eax, DWORD PTR ?__LINE__Var@?0??get_weapon_loading_hardpoint_weapon_count@@YGHPAUENTITY@@W4WEAPON_LOADING_HARDPOINT_TYPES@@H@Z@4JA
  00109	83 c0 1c	 add	 eax, 28			; 0000001cH
  0010c	50		 push	 eax
  0010d	68 00 00 00 00	 push	 OFFSET ??_C@_0EL@EPAAMPOO@c?3?2users?2nhv90?2projects?2eech?2ap@
  00112	68 00 00 00 00	 push	 OFFSET ??_C@_0BG@OHMLNJBE@hardpoint_data?9?$DOvalid@
  00117	e8 00 00 00 00	 call	 ?process_assert@@YGXPBD0H@Z ; process_assert
$LN5@get_weapon:

; 1658 : 
; 1659 : 	count = 0;

  0011c	c7 45 fc 00 00
	00 00		 mov	 DWORD PTR _count$[ebp], 0

; 1660 : 
; 1661 : 	if (hardpoint_data->sub_object_depth1 != -1)

  00123	8b 45 e8	 mov	 eax, DWORD PTR _hardpoint_data$[ebp]
  00126	83 78 10 ff	 cmp	 DWORD PTR [eax+16], -1
  0012a	74 2d		 je	 SHORT $LN6@get_weapon

; 1662 : 	{
; 1663 : 		if (get_local_entity_weapon_hardpoint_info (en, hardpoint_data->sub_object_depth1, weapon_type, &sub_type, &number, &damaged))

  0012c	8d 45 f0	 lea	 eax, DWORD PTR _damaged$[ebp]
  0012f	50		 push	 eax
  00130	8d 4d f8	 lea	 ecx, DWORD PTR _number$[ebp]
  00133	51		 push	 ecx
  00134	8d 55 f4	 lea	 edx, DWORD PTR _sub_type$[ebp]
  00137	52		 push	 edx
  00138	8b 45 10	 mov	 eax, DWORD PTR _weapon_type$[ebp]
  0013b	50		 push	 eax
  0013c	8b 4d e8	 mov	 ecx, DWORD PTR _hardpoint_data$[ebp]
  0013f	8b 51 10	 mov	 edx, DWORD PTR [ecx+16]
  00142	52		 push	 edx
  00143	8b 45 08	 mov	 eax, DWORD PTR _en$[ebp]
  00146	50		 push	 eax
  00147	e8 00 00 00 00	 call	 ?get_local_entity_weapon_hardpoint_info@@YGHPAUENTITY@@HHPAH11@Z ; get_local_entity_weapon_hardpoint_info
  0014c	85 c0		 test	 eax, eax
  0014e	74 09		 je	 SHORT $LN6@get_weapon

; 1664 : 		{
; 1665 : 			count += number;

  00150	8b 45 fc	 mov	 eax, DWORD PTR _count$[ebp]
  00153	03 45 f8	 add	 eax, DWORD PTR _number$[ebp]
  00156	89 45 fc	 mov	 DWORD PTR _count$[ebp], eax
$LN6@get_weapon:

; 1666 : 		}
; 1667 : 	}
; 1668 : 
; 1669 : 	if (hardpoint_data->sub_object_depth2 != -1)

  00159	8b 45 e8	 mov	 eax, DWORD PTR _hardpoint_data$[ebp]
  0015c	83 78 14 ff	 cmp	 DWORD PTR [eax+20], -1
  00160	74 2d		 je	 SHORT $LN8@get_weapon

; 1670 : 	{
; 1671 : 		if (get_local_entity_weapon_hardpoint_info (en, hardpoint_data->sub_object_depth2, weapon_type, &sub_type, &number, &damaged))

  00162	8d 45 f0	 lea	 eax, DWORD PTR _damaged$[ebp]
  00165	50		 push	 eax
  00166	8d 4d f8	 lea	 ecx, DWORD PTR _number$[ebp]
  00169	51		 push	 ecx
  0016a	8d 55 f4	 lea	 edx, DWORD PTR _sub_type$[ebp]
  0016d	52		 push	 edx
  0016e	8b 45 10	 mov	 eax, DWORD PTR _weapon_type$[ebp]
  00171	50		 push	 eax
  00172	8b 4d e8	 mov	 ecx, DWORD PTR _hardpoint_data$[ebp]
  00175	8b 51 14	 mov	 edx, DWORD PTR [ecx+20]
  00178	52		 push	 edx
  00179	8b 45 08	 mov	 eax, DWORD PTR _en$[ebp]
  0017c	50		 push	 eax
  0017d	e8 00 00 00 00	 call	 ?get_local_entity_weapon_hardpoint_info@@YGHPAUENTITY@@HHPAH11@Z ; get_local_entity_weapon_hardpoint_info
  00182	85 c0		 test	 eax, eax
  00184	74 09		 je	 SHORT $LN8@get_weapon

; 1672 : 		{
; 1673 : 			count += number;

  00186	8b 45 fc	 mov	 eax, DWORD PTR _count$[ebp]
  00189	03 45 f8	 add	 eax, DWORD PTR _number$[ebp]
  0018c	89 45 fc	 mov	 DWORD PTR _count$[ebp], eax
$LN8@get_weapon:

; 1674 : 		}
; 1675 : 	}
; 1676 : 
; 1677 : 	return count;

  0018f	8b 45 fc	 mov	 eax, DWORD PTR _count$[ebp]

; 1678 : }

  00192	5f		 pop	 edi
  00193	5e		 pop	 esi
  00194	5b		 pop	 ebx
  00195	8b e5		 mov	 esp, ebp
  00197	5d		 pop	 ebp
  00198	c2 0c 00	 ret	 12			; 0000000cH
?get_weapon_loading_hardpoint_weapon_count@@YGHPAUENTITY@@W4WEAPON_LOADING_HARDPOINT_TYPES@@H@Z ENDP ; get_weapon_loading_hardpoint_weapon_count
_TEXT	ENDS
; Function compile flags: /Odtp /ZI
; File c:\users\nhv90\projects\eech\aphavoc\source\entity\mobile\weapon\wn_load.c
;	COMDAT ?weapon_loading_get_valid_weapon_count@@YGHPAUENTITY@@W4WEAPON_LOADING_HARDPOINT_TYPES@@@Z
_TEXT	SEGMENT
tv83 = -84						; size = 4
tv75 = -80						; size = 4
_gunship_type$ = -12					; size = 4
_hardpoint_data$ = -8					; size = 4
_gunship_data$ = -4					; size = 4
_en$ = 8						; size = 4
_hardpoint$ = 12					; size = 4
?weapon_loading_get_valid_weapon_count@@YGHPAUENTITY@@W4WEAPON_LOADING_HARDPOINT_TYPES@@@Z PROC ; weapon_loading_get_valid_weapon_count, COMDAT

; 1494 : {

  00000	55		 push	 ebp
  00001	8b ec		 mov	 ebp, esp
  00003	83 ec 54	 sub	 esp, 84			; 00000054H
  00006	53		 push	 ebx
  00007	56		 push	 esi
  00008	57		 push	 edi

; 1495 : 	weapon_loading_gunship_type
; 1496 : 		*gunship_data;
; 1497 : 
; 1498 : 	weapon_loading_hardpoint_type
; 1499 : 		*hardpoint_data;
; 1500 : 
; 1501 : 	gunship_types
; 1502 : 		gunship_type;
; 1503 : 
; 1504 : 	ASSERT (en);

  00009	83 7d 08 00	 cmp	 DWORD PTR _en$[ebp], 0
  0000d	75 18		 jne	 SHORT $LN2@weapon_loa
  0000f	a1 00 00 00 00	 mov	 eax, DWORD PTR ?__LINE__Var@?0??weapon_loading_get_valid_weapon_count@@YGHPAUENTITY@@W4WEAPON_LOADING_HARDPOINT_TYPES@@@Z@4JA
  00014	83 c0 0a	 add	 eax, 10			; 0000000aH
  00017	50		 push	 eax
  00018	68 00 00 00 00	 push	 OFFSET ??_C@_0EL@EPAAMPOO@c?3?2users?2nhv90?2projects?2eech?2ap@
  0001d	68 00 00 00 00	 push	 OFFSET ??_C@_02LFNMGJAP@en@
  00022	e8 00 00 00 00	 call	 ?process_assert@@YGXPBD0H@Z ; process_assert
$LN2@weapon_loa:

; 1505 : 
; 1506 : 	gunship_type = (gunship_types) get_local_entity_int_value (en, INT_TYPE_GUNSHIP_TYPE);

  00027	83 7d 08 00	 cmp	 DWORD PTR _en$[ebp], 0
  0002b	74 0a		 je	 SHORT $LN6@weapon_loa
  0002d	8b 45 08	 mov	 eax, DWORD PTR _en$[ebp]
  00030	8b 08		 mov	 ecx, DWORD PTR [eax]
  00032	89 4d b0	 mov	 DWORD PTR tv75[ebp], ecx
  00035	eb 21		 jmp	 SHORT $LN7@weapon_loa
$LN6@weapon_loa:
  00037	8b 15 00 00 00
	00		 mov	 edx, DWORD PTR ?__LINE__Var@?0??weapon_loading_get_valid_weapon_count@@YGHPAUENTITY@@W4WEAPON_LOADING_HARDPOINT_TYPES@@@Z@4JA
  0003d	83 c2 0c	 add	 edx, 12			; 0000000cH
  00040	52		 push	 edx
  00041	68 00 00 00 00	 push	 OFFSET ??_C@_0EL@EPAAMPOO@c?3?2users?2nhv90?2projects?2eech?2ap@
  00046	a1 00 00 00 00	 mov	 eax, DWORD PTR ?null_entity_pointer_message@@3PBDB ; null_entity_pointer_message
  0004b	50		 push	 eax
  0004c	e8 00 00 00 00	 call	 ?process_assert@@YGXPBD0H@Z ; process_assert
  00051	c7 45 b0 00 00
	00 00		 mov	 DWORD PTR tv75[ebp], 0
$LN7@weapon_loa:
  00058	b9 01 00 00 00	 mov	 ecx, 1
  0005d	85 c9		 test	 ecx, ecx
  0005f	74 09		 je	 SHORT $LN8@weapon_loa
  00061	c7 45 ac 51 00
	00 00		 mov	 DWORD PTR tv83[ebp], 81	; 00000051H
  00068	eb 21		 jmp	 SHORT $LN9@weapon_loa
$LN8@weapon_loa:
  0006a	8b 15 00 00 00
	00		 mov	 edx, DWORD PTR ?__LINE__Var@?0??weapon_loading_get_valid_weapon_count@@YGHPAUENTITY@@W4WEAPON_LOADING_HARDPOINT_TYPES@@@Z@4JA
  00070	83 c2 0c	 add	 edx, 12			; 0000000cH
  00073	52		 push	 edx
  00074	68 00 00 00 00	 push	 OFFSET ??_C@_0EL@EPAAMPOO@c?3?2users?2nhv90?2projects?2eech?2ap@
  00079	a1 00 00 00 00	 mov	 eax, DWORD PTR ?overload_invalid_int_type_message@@3PBDB ; overload_invalid_int_type_message
  0007e	50		 push	 eax
  0007f	e8 00 00 00 00	 call	 ?process_assert@@YGXPBD0H@Z ; process_assert
  00084	c7 45 ac 00 00
	00 00		 mov	 DWORD PTR tv83[ebp], 0
$LN9@weapon_loa:
  0008b	6a 51		 push	 81			; 00000051H
  0008d	8b 4d 08	 mov	 ecx, DWORD PTR _en$[ebp]
  00090	51		 push	 ecx
  00091	69 55 b0 5c 04
	00 00		 imul	 edx, DWORD PTR tv75[ebp], 1116
  00098	8b 45 ac	 mov	 eax, DWORD PTR tv83[ebp]
  0009b	8b 8c 82 00 00
	00 00		 mov	 ecx, DWORD PTR ?fn_get_local_entity_int_value@@3PAY0BBH@P6GHPAUENTITY@@W4INT_TYPES@@@ZA[edx+eax*4]
  000a2	ff d1		 call	 ecx
  000a4	89 45 f4	 mov	 DWORD PTR _gunship_type$[ebp], eax

; 1507 : 
; 1508 : 	ASSERT (gunship_type < NUM_GUNSHIP_TYPES);

  000a7	83 7d f4 0a	 cmp	 DWORD PTR _gunship_type$[ebp], 10 ; 0000000aH
  000ab	7c 18		 jl	 SHORT $LN3@weapon_loa
  000ad	a1 00 00 00 00	 mov	 eax, DWORD PTR ?__LINE__Var@?0??weapon_loading_get_valid_weapon_count@@YGHPAUENTITY@@W4WEAPON_LOADING_HARDPOINT_TYPES@@@Z@4JA
  000b2	83 c0 0e	 add	 eax, 14			; 0000000eH
  000b5	50		 push	 eax
  000b6	68 00 00 00 00	 push	 OFFSET ??_C@_0EL@EPAAMPOO@c?3?2users?2nhv90?2projects?2eech?2ap@
  000bb	68 00 00 00 00	 push	 OFFSET ??_C@_0CB@NCHKICBO@gunship_type?5?$DM?5NUM_GUNSHIP_TYPE@
  000c0	e8 00 00 00 00	 call	 ?process_assert@@YGXPBD0H@Z ; process_assert
$LN3@weapon_loa:

; 1509 : 
; 1510 : 	gunship_data = &weapon_loading_gunship_database [gunship_type];

  000c5	69 45 f4 a8 00
	00 00		 imul	 eax, DWORD PTR _gunship_type$[ebp], 168
  000cc	05 00 00 00 00	 add	 eax, OFFSET ?weapon_loading_gunship_database@@3PAUWEAPON_LOADING_GUNSHIP_TYPE@@A
  000d1	89 45 fc	 mov	 DWORD PTR _gunship_data$[ebp], eax

; 1511 : 
; 1512 : 	hardpoint_data = &(gunship_data->hardpoint_list [hardpoint]);

  000d4	6b 45 0c 1c	 imul	 eax, DWORD PTR _hardpoint$[ebp], 28
  000d8	03 45 fc	 add	 eax, DWORD PTR _gunship_data$[ebp]
  000db	89 45 f8	 mov	 DWORD PTR _hardpoint_data$[ebp], eax

; 1513 : 
; 1514 : 	ASSERT (hardpoint_data->valid);

  000de	8b 45 f8	 mov	 eax, DWORD PTR _hardpoint_data$[ebp]
  000e1	83 38 00	 cmp	 DWORD PTR [eax], 0
  000e4	75 18		 jne	 SHORT $LN4@weapon_loa
  000e6	a1 00 00 00 00	 mov	 eax, DWORD PTR ?__LINE__Var@?0??weapon_loading_get_valid_weapon_count@@YGHPAUENTITY@@W4WEAPON_LOADING_HARDPOINT_TYPES@@@Z@4JA
  000eb	83 c0 14	 add	 eax, 20			; 00000014H
  000ee	50		 push	 eax
  000ef	68 00 00 00 00	 push	 OFFSET ??_C@_0EL@EPAAMPOO@c?3?2users?2nhv90?2projects?2eech?2ap@
  000f4	68 00 00 00 00	 push	 OFFSET ??_C@_0BG@OHMLNJBE@hardpoint_data?9?$DOvalid@
  000f9	e8 00 00 00 00	 call	 ?process_assert@@YGXPBD0H@Z ; process_assert
$LN4@weapon_loa:

; 1515 : 
; 1516 : 	return hardpoint_data->number_of_valid_weapon_types;

  000fe	8b 45 f8	 mov	 eax, DWORD PTR _hardpoint_data$[ebp]
  00101	8b 40 0c	 mov	 eax, DWORD PTR [eax+12]

; 1517 : }

  00104	5f		 pop	 edi
  00105	5e		 pop	 esi
  00106	5b		 pop	 ebx
  00107	8b e5		 mov	 esp, ebp
  00109	5d		 pop	 ebp
  0010a	c2 08 00	 ret	 8
?weapon_loading_get_valid_weapon_count@@YGHPAUENTITY@@W4WEAPON_LOADING_HARDPOINT_TYPES@@@Z ENDP ; weapon_loading_get_valid_weapon_count
_TEXT	ENDS
; Function compile flags: /Odtp /ZI
; File c:\users\nhv90\projects\eech\aphavoc\source\entity\mobile\weapon\wn_load.c
;	COMDAT ?weapon_loading_select_next_weapon@@YGXPAUENTITY@@W4WEAPON_LOADING_HARDPOINT_TYPES@@@Z
_TEXT	SEGMENT
tv83 = -88						; size = 4
tv75 = -84						; size = 4
_compare_hardpoint$1 = -16				; size = 4
_gunship_type$ = -12					; size = 4
_hardpoint_data$ = -8					; size = 4
_gunship_data$ = -4					; size = 4
_en$ = 8						; size = 4
_hardpoint$ = 12					; size = 4
?weapon_loading_select_next_weapon@@YGXPAUENTITY@@W4WEAPON_LOADING_HARDPOINT_TYPES@@@Z PROC ; weapon_loading_select_next_weapon, COMDAT

; 1441 : {

  00000	55		 push	 ebp
  00001	8b ec		 mov	 ebp, esp
  00003	83 ec 58	 sub	 esp, 88			; 00000058H
  00006	53		 push	 ebx
  00007	56		 push	 esi
  00008	57		 push	 edi

; 1442 : 	weapon_loading_gunship_type
; 1443 : 		*gunship_data;
; 1444 : 
; 1445 : 	weapon_loading_hardpoint_type
; 1446 : 		*hardpoint_data;
; 1447 : 
; 1448 : 	gunship_types
; 1449 : 		gunship_type;
; 1450 : 
; 1451 : 	ASSERT (en);

  00009	83 7d 08 00	 cmp	 DWORD PTR _en$[ebp], 0
  0000d	75 18		 jne	 SHORT $LN2@weapon_loa
  0000f	a1 00 00 00 00	 mov	 eax, DWORD PTR ?__LINE__Var@?0??weapon_loading_select_next_weapon@@YGXPAUENTITY@@W4WEAPON_LOADING_HARDPOINT_TYPES@@@Z@4JA
  00014	83 c0 0a	 add	 eax, 10			; 0000000aH
  00017	50		 push	 eax
  00018	68 00 00 00 00	 push	 OFFSET ??_C@_0EL@EPAAMPOO@c?3?2users?2nhv90?2projects?2eech?2ap@
  0001d	68 00 00 00 00	 push	 OFFSET ??_C@_02LFNMGJAP@en@
  00022	e8 00 00 00 00	 call	 ?process_assert@@YGXPBD0H@Z ; process_assert
$LN2@weapon_loa:

; 1452 : 
; 1453 : 	gunship_type = (gunship_types) get_local_entity_int_value (en, INT_TYPE_GUNSHIP_TYPE);

  00027	83 7d 08 00	 cmp	 DWORD PTR _en$[ebp], 0
  0002b	74 0a		 je	 SHORT $LN12@weapon_loa
  0002d	8b 45 08	 mov	 eax, DWORD PTR _en$[ebp]
  00030	8b 08		 mov	 ecx, DWORD PTR [eax]
  00032	89 4d ac	 mov	 DWORD PTR tv75[ebp], ecx
  00035	eb 21		 jmp	 SHORT $LN13@weapon_loa
$LN12@weapon_loa:
  00037	8b 15 00 00 00
	00		 mov	 edx, DWORD PTR ?__LINE__Var@?0??weapon_loading_select_next_weapon@@YGXPAUENTITY@@W4WEAPON_LOADING_HARDPOINT_TYPES@@@Z@4JA
  0003d	83 c2 0c	 add	 edx, 12			; 0000000cH
  00040	52		 push	 edx
  00041	68 00 00 00 00	 push	 OFFSET ??_C@_0EL@EPAAMPOO@c?3?2users?2nhv90?2projects?2eech?2ap@
  00046	a1 00 00 00 00	 mov	 eax, DWORD PTR ?null_entity_pointer_message@@3PBDB ; null_entity_pointer_message
  0004b	50		 push	 eax
  0004c	e8 00 00 00 00	 call	 ?process_assert@@YGXPBD0H@Z ; process_assert
  00051	c7 45 ac 00 00
	00 00		 mov	 DWORD PTR tv75[ebp], 0
$LN13@weapon_loa:
  00058	b9 01 00 00 00	 mov	 ecx, 1
  0005d	85 c9		 test	 ecx, ecx
  0005f	74 09		 je	 SHORT $LN14@weapon_loa
  00061	c7 45 a8 51 00
	00 00		 mov	 DWORD PTR tv83[ebp], 81	; 00000051H
  00068	eb 21		 jmp	 SHORT $LN15@weapon_loa
$LN14@weapon_loa:
  0006a	8b 15 00 00 00
	00		 mov	 edx, DWORD PTR ?__LINE__Var@?0??weapon_loading_select_next_weapon@@YGXPAUENTITY@@W4WEAPON_LOADING_HARDPOINT_TYPES@@@Z@4JA
  00070	83 c2 0c	 add	 edx, 12			; 0000000cH
  00073	52		 push	 edx
  00074	68 00 00 00 00	 push	 OFFSET ??_C@_0EL@EPAAMPOO@c?3?2users?2nhv90?2projects?2eech?2ap@
  00079	a1 00 00 00 00	 mov	 eax, DWORD PTR ?overload_invalid_int_type_message@@3PBDB ; overload_invalid_int_type_message
  0007e	50		 push	 eax
  0007f	e8 00 00 00 00	 call	 ?process_assert@@YGXPBD0H@Z ; process_assert
  00084	c7 45 a8 00 00
	00 00		 mov	 DWORD PTR tv83[ebp], 0
$LN15@weapon_loa:
  0008b	6a 51		 push	 81			; 00000051H
  0008d	8b 4d 08	 mov	 ecx, DWORD PTR _en$[ebp]
  00090	51		 push	 ecx
  00091	69 55 ac 5c 04
	00 00		 imul	 edx, DWORD PTR tv75[ebp], 1116
  00098	8b 45 a8	 mov	 eax, DWORD PTR tv83[ebp]
  0009b	8b 8c 82 00 00
	00 00		 mov	 ecx, DWORD PTR ?fn_get_local_entity_int_value@@3PAY0BBH@P6GHPAUENTITY@@W4INT_TYPES@@@ZA[edx+eax*4]
  000a2	ff d1		 call	 ecx
  000a4	89 45 f4	 mov	 DWORD PTR _gunship_type$[ebp], eax

; 1454 : 
; 1455 : 	ASSERT (gunship_type < NUM_GUNSHIP_TYPES);

  000a7	83 7d f4 0a	 cmp	 DWORD PTR _gunship_type$[ebp], 10 ; 0000000aH
  000ab	7c 18		 jl	 SHORT $LN3@weapon_loa
  000ad	a1 00 00 00 00	 mov	 eax, DWORD PTR ?__LINE__Var@?0??weapon_loading_select_next_weapon@@YGXPAUENTITY@@W4WEAPON_LOADING_HARDPOINT_TYPES@@@Z@4JA
  000b2	83 c0 0e	 add	 eax, 14			; 0000000eH
  000b5	50		 push	 eax
  000b6	68 00 00 00 00	 push	 OFFSET ??_C@_0EL@EPAAMPOO@c?3?2users?2nhv90?2projects?2eech?2ap@
  000bb	68 00 00 00 00	 push	 OFFSET ??_C@_0CB@NCHKICBO@gunship_type?5?$DM?5NUM_GUNSHIP_TYPE@
  000c0	e8 00 00 00 00	 call	 ?process_assert@@YGXPBD0H@Z ; process_assert
$LN3@weapon_loa:

; 1456 : 
; 1457 : 	gunship_data = &weapon_loading_gunship_database [gunship_type];

  000c5	69 45 f4 a8 00
	00 00		 imul	 eax, DWORD PTR _gunship_type$[ebp], 168
  000cc	05 00 00 00 00	 add	 eax, OFFSET ?weapon_loading_gunship_database@@3PAUWEAPON_LOADING_GUNSHIP_TYPE@@A
  000d1	89 45 fc	 mov	 DWORD PTR _gunship_data$[ebp], eax

; 1458 : 
; 1459 : 	hardpoint_data = &(gunship_data->hardpoint_list [hardpoint]);

  000d4	6b 45 0c 1c	 imul	 eax, DWORD PTR _hardpoint$[ebp], 28
  000d8	03 45 fc	 add	 eax, DWORD PTR _gunship_data$[ebp]
  000db	89 45 f8	 mov	 DWORD PTR _hardpoint_data$[ebp], eax

; 1460 : 
; 1461 : 	ASSERT (hardpoint_data->valid);

  000de	8b 45 f8	 mov	 eax, DWORD PTR _hardpoint_data$[ebp]
  000e1	83 38 00	 cmp	 DWORD PTR [eax], 0
  000e4	75 18		 jne	 SHORT $LN4@weapon_loa
  000e6	a1 00 00 00 00	 mov	 eax, DWORD PTR ?__LINE__Var@?0??weapon_loading_select_next_weapon@@YGXPAUENTITY@@W4WEAPON_LOADING_HARDPOINT_TYPES@@@Z@4JA
  000eb	83 c0 14	 add	 eax, 20			; 00000014H
  000ee	50		 push	 eax
  000ef	68 00 00 00 00	 push	 OFFSET ??_C@_0EL@EPAAMPOO@c?3?2users?2nhv90?2projects?2eech?2ap@
  000f4	68 00 00 00 00	 push	 OFFSET ??_C@_0BG@OHMLNJBE@hardpoint_data?9?$DOvalid@
  000f9	e8 00 00 00 00	 call	 ?process_assert@@YGXPBD0H@Z ; process_assert
$LN4@weapon_loa:

; 1462 : 
; 1463 : 	hardpoint_data->current_weapon_index ++;

  000fe	8b 45 f8	 mov	 eax, DWORD PTR _hardpoint_data$[ebp]
  00101	8b 48 08	 mov	 ecx, DWORD PTR [eax+8]
  00104	83 c1 01	 add	 ecx, 1
  00107	8b 55 f8	 mov	 edx, DWORD PTR _hardpoint_data$[ebp]
  0010a	89 4a 08	 mov	 DWORD PTR [edx+8], ecx

; 1464 : 
; 1465 : 	if (hardpoint_data->current_weapon_index >= hardpoint_data->number_of_valid_weapon_types)

  0010d	8b 45 f8	 mov	 eax, DWORD PTR _hardpoint_data$[ebp]
  00110	8b 4d f8	 mov	 ecx, DWORD PTR _hardpoint_data$[ebp]
  00113	8b 50 08	 mov	 edx, DWORD PTR [eax+8]
  00116	3b 51 0c	 cmp	 edx, DWORD PTR [ecx+12]
  00119	7c 0a		 jl	 SHORT $LN5@weapon_loa

; 1466 : 	{
; 1467 : 		hardpoint_data->current_weapon_index = 0;

  0011b	8b 45 f8	 mov	 eax, DWORD PTR _hardpoint_data$[ebp]
  0011e	c7 40 08 00 00
	00 00		 mov	 DWORD PTR [eax+8], 0
$LN5@weapon_loa:

; 1468 : 	}
; 1469 : 
; 1470 : 	if (gunship_type == GUNSHIP_TYPE_HIND && hardpoint == WEAPON_LOADING_HARDPOINT_OUTER)

  00125	83 7d f4 05	 cmp	 DWORD PTR _gunship_type$[ebp], 5
  00129	0f 85 8b 00 00
	00		 jne	 $LN6@weapon_loa
  0012f	83 7d 0c 04	 cmp	 DWORD PTR _hardpoint$[ebp], 4
  00133	0f 85 81 00 00
	00		 jne	 $LN6@weapon_loa

; 1471 : 	{
; 1472 : 		weapon_loading_hardpoint_type *compare_hardpoint = &gunship_data->hardpoint_list[WEAPON_LOADING_HARDPOINT_INNER];

  00139	b8 1c 00 00 00	 mov	 eax, 28			; 0000001cH
  0013e	d1 e0		 shl	 eax, 1
  00140	03 45 fc	 add	 eax, DWORD PTR _gunship_data$[ebp]
  00143	89 45 f0	 mov	 DWORD PTR _compare_hardpoint$1[ebp], eax

; 1473 : 
; 1474 : 		// only allow gun pods on outer pylons if they're also loaded on inner
; 1475 : 		if (compare_hardpoint->valid_weapon_types[compare_hardpoint->current_weapon_index] != ENTITY_SUB_TYPE_WEAPON_GSH23L_23MM_ROUND)

  00146	8b 45 f0	 mov	 eax, DWORD PTR _compare_hardpoint$1[ebp]
  00149	8b 48 08	 mov	 ecx, DWORD PTR [eax+8]
  0014c	8b 55 f0	 mov	 edx, DWORD PTR _compare_hardpoint$1[ebp]
  0014f	8b 42 18	 mov	 eax, DWORD PTR [edx+24]
  00152	83 3c 88 0f	 cmp	 DWORD PTR [eax+ecx*4], 15 ; 0000000fH
  00156	74 21		 je	 SHORT $LN7@weapon_loa

; 1476 : 			if (hardpoint_data->valid_weapon_types[hardpoint_data->current_weapon_index] == ENTITY_SUB_TYPE_WEAPON_GSH23L_23MM_ROUND)

  00158	8b 45 f8	 mov	 eax, DWORD PTR _hardpoint_data$[ebp]
  0015b	8b 48 08	 mov	 ecx, DWORD PTR [eax+8]
  0015e	8b 55 f8	 mov	 edx, DWORD PTR _hardpoint_data$[ebp]
  00161	8b 42 18	 mov	 eax, DWORD PTR [edx+24]
  00164	83 3c 88 0f	 cmp	 DWORD PTR [eax+ecx*4], 15 ; 0000000fH
  00168	75 0f		 jne	 SHORT $LN7@weapon_loa

; 1477 : 				hardpoint_data->current_weapon_index++;

  0016a	8b 45 f8	 mov	 eax, DWORD PTR _hardpoint_data$[ebp]
  0016d	8b 48 08	 mov	 ecx, DWORD PTR [eax+8]
  00170	83 c1 01	 add	 ecx, 1
  00173	8b 55 f8	 mov	 edx, DWORD PTR _hardpoint_data$[ebp]
  00176	89 4a 08	 mov	 DWORD PTR [edx+8], ecx
$LN7@weapon_loa:

; 1478 : 
; 1479 : 		// only allow AT6 on outer pylons if they're also loaded on wingtips
; 1480 : 		compare_hardpoint = &gunship_data->hardpoint_list[WEAPON_LOADING_HARDPOINT_WINGTIP];

  00179	b8 1c 00 00 00	 mov	 eax, 28			; 0000001cH
  0017e	6b c8 05	 imul	 ecx, eax, 5
  00181	03 4d fc	 add	 ecx, DWORD PTR _gunship_data$[ebp]
  00184	89 4d f0	 mov	 DWORD PTR _compare_hardpoint$1[ebp], ecx

; 1481 : 		if (compare_hardpoint->valid_weapon_types[compare_hardpoint->current_weapon_index] != ENTITY_SUB_TYPE_WEAPON_AT6_SPIRAL)

  00187	8b 45 f0	 mov	 eax, DWORD PTR _compare_hardpoint$1[ebp]
  0018a	8b 48 08	 mov	 ecx, DWORD PTR [eax+8]
  0018d	8b 55 f0	 mov	 edx, DWORD PTR _compare_hardpoint$1[ebp]
  00190	8b 42 18	 mov	 eax, DWORD PTR [edx+24]
  00193	83 3c 88 33	 cmp	 DWORD PTR [eax+ecx*4], 51 ; 00000033H
  00197	74 21		 je	 SHORT $LN6@weapon_loa

; 1482 : 			if (hardpoint_data->valid_weapon_types[hardpoint_data->current_weapon_index] == ENTITY_SUB_TYPE_WEAPON_AT6_SPIRAL)

  00199	8b 45 f8	 mov	 eax, DWORD PTR _hardpoint_data$[ebp]
  0019c	8b 48 08	 mov	 ecx, DWORD PTR [eax+8]
  0019f	8b 55 f8	 mov	 edx, DWORD PTR _hardpoint_data$[ebp]
  001a2	8b 42 18	 mov	 eax, DWORD PTR [edx+24]
  001a5	83 3c 88 33	 cmp	 DWORD PTR [eax+ecx*4], 51 ; 00000033H
  001a9	75 0f		 jne	 SHORT $LN6@weapon_loa

; 1483 : 				hardpoint_data->current_weapon_index++;

  001ab	8b 45 f8	 mov	 eax, DWORD PTR _hardpoint_data$[ebp]
  001ae	8b 48 08	 mov	 ecx, DWORD PTR [eax+8]
  001b1	83 c1 01	 add	 ecx, 1
  001b4	8b 55 f8	 mov	 edx, DWORD PTR _hardpoint_data$[ebp]
  001b7	89 4a 08	 mov	 DWORD PTR [edx+8], ecx
$LN6@weapon_loa:

; 1484 : 	}
; 1485 : 
; 1486 : 	weapon_loading_reload_all_weapons (en);

  001ba	8b 45 08	 mov	 eax, DWORD PTR _en$[ebp]
  001bd	50		 push	 eax
  001be	e8 00 00 00 00	 call	 ?weapon_loading_reload_all_weapons@@YGXPAUENTITY@@@Z ; weapon_loading_reload_all_weapons

; 1487 : }

  001c3	5f		 pop	 edi
  001c4	5e		 pop	 esi
  001c5	5b		 pop	 ebx
  001c6	8b e5		 mov	 esp, ebp
  001c8	5d		 pop	 ebp
  001c9	c2 08 00	 ret	 8
?weapon_loading_select_next_weapon@@YGXPAUENTITY@@W4WEAPON_LOADING_HARDPOINT_TYPES@@@Z ENDP ; weapon_loading_select_next_weapon
_TEXT	ENDS
; Function compile flags: /Odtp /ZI
; File c:\users\nhv90\projects\eech\aphavoc\source\entity\mobile\weapon\wn_load.c
;	COMDAT ?weapon_loading_get_current_hardpoint_weapon@@YGHW4GUNSHIP_TYPES@@W4WEAPON_LOADING_HARDPOINT_TYPES@@@Z
_TEXT	SEGMENT
_hardpoint_data$ = -8					; size = 4
_gunship_data$ = -4					; size = 4
_gunship_type$ = 8					; size = 4
_hardpoint$ = 12					; size = 4
?weapon_loading_get_current_hardpoint_weapon@@YGHW4GUNSHIP_TYPES@@W4WEAPON_LOADING_HARDPOINT_TYPES@@@Z PROC ; weapon_loading_get_current_hardpoint_weapon, COMDAT

; 1418 : {

  00000	55		 push	 ebp
  00001	8b ec		 mov	 ebp, esp
  00003	83 ec 48	 sub	 esp, 72			; 00000048H
  00006	53		 push	 ebx
  00007	56		 push	 esi
  00008	57		 push	 edi

; 1419 : 	weapon_loading_gunship_type
; 1420 : 		*gunship_data;
; 1421 : 
; 1422 : 	weapon_loading_hardpoint_type
; 1423 : 		*hardpoint_data;
; 1424 : 
; 1425 : 	gunship_data = &weapon_loading_gunship_database [gunship_type];

  00009	69 45 08 a8 00
	00 00		 imul	 eax, DWORD PTR _gunship_type$[ebp], 168
  00010	05 00 00 00 00	 add	 eax, OFFSET ?weapon_loading_gunship_database@@3PAUWEAPON_LOADING_GUNSHIP_TYPE@@A
  00015	89 45 fc	 mov	 DWORD PTR _gunship_data$[ebp], eax

; 1426 : 
; 1427 : 	ASSERT (hardpoint < NUM_WEAPON_LOADING_HARDPOINT_TYPES);

  00018	83 7d 0c 06	 cmp	 DWORD PTR _hardpoint$[ebp], 6
  0001c	7c 18		 jl	 SHORT $LN2@weapon_loa
  0001e	a1 00 00 00 00	 mov	 eax, DWORD PTR ?__LINE__Var@?0??weapon_loading_get_current_hardpoint_weapon@@YGHW4GUNSHIP_TYPES@@W4WEAPON_LOADING_HARDPOINT_TYPES@@@Z@4JA
  00023	83 c0 09	 add	 eax, 9
  00026	50		 push	 eax
  00027	68 00 00 00 00	 push	 OFFSET ??_C@_0EL@EPAAMPOO@c?3?2users?2nhv90?2projects?2eech?2ap@
  0002c	68 00 00 00 00	 push	 OFFSET ??_C@_0CP@BHLHFPLO@hardpoint?5?$DM?5NUM_WEAPON_LOADING_@
  00031	e8 00 00 00 00	 call	 ?process_assert@@YGXPBD0H@Z ; process_assert
$LN2@weapon_loa:

; 1428 : 
; 1429 : 	hardpoint_data = &(gunship_data->hardpoint_list [hardpoint]);

  00036	6b 45 0c 1c	 imul	 eax, DWORD PTR _hardpoint$[ebp], 28
  0003a	03 45 fc	 add	 eax, DWORD PTR _gunship_data$[ebp]
  0003d	89 45 f8	 mov	 DWORD PTR _hardpoint_data$[ebp], eax

; 1430 : 
; 1431 : 	ASSERT (hardpoint_data->valid);

  00040	8b 45 f8	 mov	 eax, DWORD PTR _hardpoint_data$[ebp]
  00043	83 38 00	 cmp	 DWORD PTR [eax], 0
  00046	75 18		 jne	 SHORT $LN3@weapon_loa
  00048	a1 00 00 00 00	 mov	 eax, DWORD PTR ?__LINE__Var@?0??weapon_loading_get_current_hardpoint_weapon@@YGHW4GUNSHIP_TYPES@@W4WEAPON_LOADING_HARDPOINT_TYPES@@@Z@4JA
  0004d	83 c0 0d	 add	 eax, 13			; 0000000dH
  00050	50		 push	 eax
  00051	68 00 00 00 00	 push	 OFFSET ??_C@_0EL@EPAAMPOO@c?3?2users?2nhv90?2projects?2eech?2ap@
  00056	68 00 00 00 00	 push	 OFFSET ??_C@_0BG@OHMLNJBE@hardpoint_data?9?$DOvalid@
  0005b	e8 00 00 00 00	 call	 ?process_assert@@YGXPBD0H@Z ; process_assert
$LN3@weapon_loa:

; 1432 : 
; 1433 : 	return (hardpoint_data->valid_weapon_types [hardpoint_data->current_weapon_index]);

  00060	8b 45 f8	 mov	 eax, DWORD PTR _hardpoint_data$[ebp]
  00063	8b 48 08	 mov	 ecx, DWORD PTR [eax+8]
  00066	8b 55 f8	 mov	 edx, DWORD PTR _hardpoint_data$[ebp]
  00069	8b 42 18	 mov	 eax, DWORD PTR [edx+24]
  0006c	8b 04 88	 mov	 eax, DWORD PTR [eax+ecx*4]

; 1434 : }

  0006f	5f		 pop	 edi
  00070	5e		 pop	 esi
  00071	5b		 pop	 ebx
  00072	8b e5		 mov	 esp, ebp
  00074	5d		 pop	 ebp
  00075	c2 08 00	 ret	 8
?weapon_loading_get_current_hardpoint_weapon@@YGHW4GUNSHIP_TYPES@@W4WEAPON_LOADING_HARDPOINT_TYPES@@@Z ENDP ; weapon_loading_get_current_hardpoint_weapon
_TEXT	ENDS
; Function compile flags: /Odtp /ZI
; File c:\users\nhv90\projects\eech\aphavoc\source\entity\mobile\weapon\wn_load.c
;	COMDAT ?weapon_loading_update_currently_selected_weapons@@YGXPAUENTITY@@@Z
_TEXT	SEGMENT
tv136 = -100						; size = 4
tv83 = -100						; size = 4
tv128 = -96						; size = 4
tv75 = -96						; size = 4
_gunship_type$ = -28					; size = 4
_current_weapon$ = -24					; size = 24
_en$ = 8						; size = 4
?weapon_loading_update_currently_selected_weapons@@YGXPAUENTITY@@@Z PROC ; weapon_loading_update_currently_selected_weapons, COMDAT

; 1560 : {

  00000	55		 push	 ebp
  00001	8b ec		 mov	 ebp, esp
  00003	83 ec 64	 sub	 esp, 100		; 00000064H
  00006	53		 push	 ebx
  00007	56		 push	 esi
  00008	57		 push	 edi

; 1561 : 	entity_sub_types
; 1562 : 		current_weapon [NUM_WEAPON_LOADING_HARDPOINT_TYPES];
; 1563 : 
; 1564 : 	gunship_types
; 1565 : 		gunship_type;
; 1566 : 
; 1567 : 	ASSERT (en);

  00009	83 7d 08 00	 cmp	 DWORD PTR _en$[ebp], 0
  0000d	75 18		 jne	 SHORT $LN2@weapon_loa
  0000f	a1 00 00 00 00	 mov	 eax, DWORD PTR ?__LINE__Var@?0??weapon_loading_update_currently_selected_weapons@@YGXPAUENTITY@@@Z@4JA
  00014	83 c0 07	 add	 eax, 7
  00017	50		 push	 eax
  00018	68 00 00 00 00	 push	 OFFSET ??_C@_0EL@EPAAMPOO@c?3?2users?2nhv90?2projects?2eech?2ap@
  0001d	68 00 00 00 00	 push	 OFFSET ??_C@_02LFNMGJAP@en@
  00022	e8 00 00 00 00	 call	 ?process_assert@@YGXPBD0H@Z ; process_assert
$LN2@weapon_loa:

; 1568 : 
; 1569 : 	gunship_type = (gunship_types) get_local_entity_int_value (en, INT_TYPE_GUNSHIP_TYPE);

  00027	83 7d 08 00	 cmp	 DWORD PTR _en$[ebp], 0
  0002b	74 0a		 je	 SHORT $LN4@weapon_loa
  0002d	8b 45 08	 mov	 eax, DWORD PTR _en$[ebp]
  00030	8b 08		 mov	 ecx, DWORD PTR [eax]
  00032	89 4d a0	 mov	 DWORD PTR tv75[ebp], ecx
  00035	eb 21		 jmp	 SHORT $LN5@weapon_loa
$LN4@weapon_loa:
  00037	8b 15 00 00 00
	00		 mov	 edx, DWORD PTR ?__LINE__Var@?0??weapon_loading_update_currently_selected_weapons@@YGXPAUENTITY@@@Z@4JA
  0003d	83 c2 09	 add	 edx, 9
  00040	52		 push	 edx
  00041	68 00 00 00 00	 push	 OFFSET ??_C@_0EL@EPAAMPOO@c?3?2users?2nhv90?2projects?2eech?2ap@
  00046	a1 00 00 00 00	 mov	 eax, DWORD PTR ?null_entity_pointer_message@@3PBDB ; null_entity_pointer_message
  0004b	50		 push	 eax
  0004c	e8 00 00 00 00	 call	 ?process_assert@@YGXPBD0H@Z ; process_assert
  00051	c7 45 a0 00 00
	00 00		 mov	 DWORD PTR tv75[ebp], 0
$LN5@weapon_loa:
  00058	b9 01 00 00 00	 mov	 ecx, 1
  0005d	85 c9		 test	 ecx, ecx
  0005f	74 09		 je	 SHORT $LN6@weapon_loa
  00061	c7 45 9c 51 00
	00 00		 mov	 DWORD PTR tv83[ebp], 81	; 00000051H
  00068	eb 21		 jmp	 SHORT $LN7@weapon_loa
$LN6@weapon_loa:
  0006a	8b 15 00 00 00
	00		 mov	 edx, DWORD PTR ?__LINE__Var@?0??weapon_loading_update_currently_selected_weapons@@YGXPAUENTITY@@@Z@4JA
  00070	83 c2 09	 add	 edx, 9
  00073	52		 push	 edx
  00074	68 00 00 00 00	 push	 OFFSET ??_C@_0EL@EPAAMPOO@c?3?2users?2nhv90?2projects?2eech?2ap@
  00079	a1 00 00 00 00	 mov	 eax, DWORD PTR ?overload_invalid_int_type_message@@3PBDB ; overload_invalid_int_type_message
  0007e	50		 push	 eax
  0007f	e8 00 00 00 00	 call	 ?process_assert@@YGXPBD0H@Z ; process_assert
  00084	c7 45 9c 00 00
	00 00		 mov	 DWORD PTR tv83[ebp], 0
$LN7@weapon_loa:
  0008b	6a 51		 push	 81			; 00000051H
  0008d	8b 4d 08	 mov	 ecx, DWORD PTR _en$[ebp]
  00090	51		 push	 ecx
  00091	69 55 a0 5c 04
	00 00		 imul	 edx, DWORD PTR tv75[ebp], 1116
  00098	8b 45 9c	 mov	 eax, DWORD PTR tv83[ebp]
  0009b	8b 8c 82 00 00
	00 00		 mov	 ecx, DWORD PTR ?fn_get_local_entity_int_value@@3PAY0BBH@P6GHPAUENTITY@@W4INT_TYPES@@@ZA[edx+eax*4]
  000a2	ff d1		 call	 ecx
  000a4	89 45 e4	 mov	 DWORD PTR _gunship_type$[ebp], eax

; 1570 : 
; 1571 : 	get_weapons_from_weapon_config

  000a7	83 7d 08 00	 cmp	 DWORD PTR _en$[ebp], 0
  000ab	74 0a		 je	 SHORT $LN8@weapon_loa
  000ad	8b 45 08	 mov	 eax, DWORD PTR _en$[ebp]
  000b0	8b 08		 mov	 ecx, DWORD PTR [eax]
  000b2	89 4d a0	 mov	 DWORD PTR tv128[ebp], ecx
  000b5	eb 21		 jmp	 SHORT $LN9@weapon_loa
$LN8@weapon_loa:
  000b7	8b 15 00 00 00
	00		 mov	 edx, DWORD PTR ?__LINE__Var@?0??weapon_loading_update_currently_selected_weapons@@YGXPAUENTITY@@@Z@4JA
  000bd	83 c2 0e	 add	 edx, 14			; 0000000eH
  000c0	52		 push	 edx
  000c1	68 00 00 00 00	 push	 OFFSET ??_C@_0EL@EPAAMPOO@c?3?2users?2nhv90?2projects?2eech?2ap@
  000c6	a1 00 00 00 00	 mov	 eax, DWORD PTR ?null_entity_pointer_message@@3PBDB ; null_entity_pointer_message
  000cb	50		 push	 eax
  000cc	e8 00 00 00 00	 call	 ?process_assert@@YGXPBD0H@Z ; process_assert
  000d1	c7 45 a0 00 00
	00 00		 mov	 DWORD PTR tv128[ebp], 0
$LN9@weapon_loa:
  000d8	b9 01 00 00 00	 mov	 ecx, 1
  000dd	85 c9		 test	 ecx, ecx
  000df	74 09		 je	 SHORT $LN10@weapon_loa
  000e1	c7 45 9c 05 01
	00 00		 mov	 DWORD PTR tv136[ebp], 261 ; 00000105H
  000e8	eb 21		 jmp	 SHORT $LN11@weapon_loa
$LN10@weapon_loa:
  000ea	8b 15 00 00 00
	00		 mov	 edx, DWORD PTR ?__LINE__Var@?0??weapon_loading_update_currently_selected_weapons@@YGXPAUENTITY@@@Z@4JA
  000f0	83 c2 0e	 add	 edx, 14			; 0000000eH
  000f3	52		 push	 edx
  000f4	68 00 00 00 00	 push	 OFFSET ??_C@_0EL@EPAAMPOO@c?3?2users?2nhv90?2projects?2eech?2ap@
  000f9	a1 00 00 00 00	 mov	 eax, DWORD PTR ?overload_invalid_int_type_message@@3PBDB ; overload_invalid_int_type_message
  000fe	50		 push	 eax
  000ff	e8 00 00 00 00	 call	 ?process_assert@@YGXPBD0H@Z ; process_assert
  00104	c7 45 9c 00 00
	00 00		 mov	 DWORD PTR tv136[ebp], 0
$LN11@weapon_loa:
  0010b	8d 4d e8	 lea	 ecx, DWORD PTR _current_weapon$[ebp]
  0010e	51		 push	 ecx
  0010f	68 05 01 00 00	 push	 261			; 00000105H
  00114	8b 55 08	 mov	 edx, DWORD PTR _en$[ebp]
  00117	52		 push	 edx
  00118	69 45 a0 5c 04
	00 00		 imul	 eax, DWORD PTR tv128[ebp], 1116
  0011f	8b 4d 9c	 mov	 ecx, DWORD PTR tv136[ebp]
  00122	8b 94 88 00 00
	00 00		 mov	 edx, DWORD PTR ?fn_get_local_entity_int_value@@3PAY0BBH@P6GHPAUENTITY@@W4INT_TYPES@@@ZA[eax+ecx*4]
  00129	ff d2		 call	 edx
  0012b	50		 push	 eax
  0012c	8b 45 e4	 mov	 eax, DWORD PTR _gunship_type$[ebp]
  0012f	50		 push	 eax
  00130	e8 00 00 00 00	 call	 ?get_weapons_from_weapon_config@@YGXW4GUNSHIP_TYPES@@W4WEAPON_CONFIG_TYPES@@QAH@Z ; get_weapons_from_weapon_config

; 1572 : 	(
; 1573 : 		gunship_type,
; 1574 : 		(weapon_config_types) get_local_entity_int_value (en, INT_TYPE_WEAPON_CONFIG_TYPE),
; 1575 : 		current_weapon
; 1576 : 	);
; 1577 : 
; 1578 : 	set_hardpoint_weapons 

  00135	8d 45 e8	 lea	 eax, DWORD PTR _current_weapon$[ebp]
  00138	50		 push	 eax
  00139	8b 4d e4	 mov	 ecx, DWORD PTR _gunship_type$[ebp]
  0013c	51		 push	 ecx
  0013d	e8 00 00 00 00	 call	 ?set_hardpoint_weapons@@YGXW4GUNSHIP_TYPES@@QBH@Z ; set_hardpoint_weapons

; 1579 : 	(
; 1580 : 		gunship_type,
; 1581 : 		current_weapon
; 1582 : 	);
; 1583 : }

  00142	5f		 pop	 edi
  00143	5e		 pop	 esi
  00144	5b		 pop	 ebx
  00145	8b e5		 mov	 esp, ebp
  00147	5d		 pop	 ebp
  00148	c2 04 00	 ret	 4
?weapon_loading_update_currently_selected_weapons@@YGXPAUENTITY@@@Z ENDP ; weapon_loading_update_currently_selected_weapons
_TEXT	ENDS
; Function compile flags: /Odtp /ZI
; File c:\users\nhv90\projects\eech\aphavoc\source\entity\mobile\weapon\wn_load.c
;	COMDAT ?deactivate_weapon_payload_markers@@YGXPAUENTITY@@@Z
_TEXT	SEGMENT
tv83 = -76						; size = 4
tv75 = -72						; size = 4
_inst3d$ = -4						; size = 4
_en$ = 8						; size = 4
?deactivate_weapon_payload_markers@@YGXPAUENTITY@@@Z PROC ; deactivate_weapon_payload_markers, COMDAT

; 1104 : {

  00000	55		 push	 ebp
  00001	8b ec		 mov	 ebp, esp
  00003	83 ec 4c	 sub	 esp, 76			; 0000004cH
  00006	53		 push	 ebx
  00007	56		 push	 esi
  00008	57		 push	 edi

; 1105 : 	object_3d_instance
; 1106 : 		*inst3d;
; 1107 : 
; 1108 : 	ASSERT (en);

  00009	83 7d 08 00	 cmp	 DWORD PTR _en$[ebp], 0
  0000d	75 18		 jne	 SHORT $LN2@deactivate
  0000f	a1 00 00 00 00	 mov	 eax, DWORD PTR ?__LINE__Var@?0??deactivate_weapon_payload_markers@@YGXPAUENTITY@@@Z@4JA
  00014	83 c0 04	 add	 eax, 4
  00017	50		 push	 eax
  00018	68 00 00 00 00	 push	 OFFSET ??_C@_0EL@EPAAMPOO@c?3?2users?2nhv90?2projects?2eech?2ap@
  0001d	68 00 00 00 00	 push	 OFFSET ??_C@_02LFNMGJAP@en@
  00022	e8 00 00 00 00	 call	 ?process_assert@@YGXPBD0H@Z ; process_assert
$LN2@deactivate:

; 1109 : 
; 1110 : 	inst3d = (object_3d_instance *) get_local_entity_ptr_value (en, PTR_TYPE_INSTANCE_3D_OBJECT);

  00027	83 7d 08 00	 cmp	 DWORD PTR _en$[ebp], 0
  0002b	74 0a		 je	 SHORT $LN5@deactivate
  0002d	8b 45 08	 mov	 eax, DWORD PTR _en$[ebp]
  00030	8b 08		 mov	 ecx, DWORD PTR [eax]
  00032	89 4d b8	 mov	 DWORD PTR tv75[ebp], ecx
  00035	eb 21		 jmp	 SHORT $LN6@deactivate
$LN5@deactivate:
  00037	8b 15 00 00 00
	00		 mov	 edx, DWORD PTR ?__LINE__Var@?0??deactivate_weapon_payload_markers@@YGXPAUENTITY@@@Z@4JA
  0003d	83 c2 06	 add	 edx, 6
  00040	52		 push	 edx
  00041	68 00 00 00 00	 push	 OFFSET ??_C@_0EL@EPAAMPOO@c?3?2users?2nhv90?2projects?2eech?2ap@
  00046	a1 00 00 00 00	 mov	 eax, DWORD PTR ?null_entity_pointer_message@@3PBDB ; null_entity_pointer_message
  0004b	50		 push	 eax
  0004c	e8 00 00 00 00	 call	 ?process_assert@@YGXPBD0H@Z ; process_assert
  00051	c7 45 b8 00 00
	00 00		 mov	 DWORD PTR tv75[ebp], 0
$LN6@deactivate:
  00058	b9 01 00 00 00	 mov	 ecx, 1
  0005d	85 c9		 test	 ecx, ecx
  0005f	74 09		 je	 SHORT $LN7@deactivate
  00061	c7 45 b4 02 00
	00 00		 mov	 DWORD PTR tv83[ebp], 2
  00068	eb 21		 jmp	 SHORT $LN8@deactivate
$LN7@deactivate:
  0006a	8b 15 00 00 00
	00		 mov	 edx, DWORD PTR ?__LINE__Var@?0??deactivate_weapon_payload_markers@@YGXPAUENTITY@@@Z@4JA
  00070	83 c2 06	 add	 edx, 6
  00073	52		 push	 edx
  00074	68 00 00 00 00	 push	 OFFSET ??_C@_0EL@EPAAMPOO@c?3?2users?2nhv90?2projects?2eech?2ap@
  00079	a1 00 00 00 00	 mov	 eax, DWORD PTR ?overload_invalid_ptr_type_message@@3PBDB ; overload_invalid_ptr_type_message
  0007e	50		 push	 eax
  0007f	e8 00 00 00 00	 call	 ?process_assert@@YGXPBD0H@Z ; process_assert
  00084	c7 45 b4 00 00
	00 00		 mov	 DWORD PTR tv83[ebp], 0
$LN8@deactivate:
  0008b	6a 02		 push	 2
  0008d	8b 4d 08	 mov	 ecx, DWORD PTR _en$[ebp]
  00090	51		 push	 ecx
  00091	6b 55 b8 50	 imul	 edx, DWORD PTR tv75[ebp], 80
  00095	8b 45 b4	 mov	 eax, DWORD PTR tv83[ebp]
  00098	8b 8c 82 00 00
	00 00		 mov	 ecx, DWORD PTR ?fn_get_local_entity_ptr_value@@3PAY0BE@P6GPAXPAUENTITY@@W4PTR_TYPES@@@ZA[edx+eax*4]
  0009f	ff d1		 call	 ecx
  000a1	89 45 fc	 mov	 DWORD PTR _inst3d$[ebp], eax

; 1111 : 
; 1112 : 	ASSERT (inst3d);

  000a4	83 7d fc 00	 cmp	 DWORD PTR _inst3d$[ebp], 0
  000a8	75 18		 jne	 SHORT $LN3@deactivate
  000aa	a1 00 00 00 00	 mov	 eax, DWORD PTR ?__LINE__Var@?0??deactivate_weapon_payload_markers@@YGXPAUENTITY@@@Z@4JA
  000af	83 c0 08	 add	 eax, 8
  000b2	50		 push	 eax
  000b3	68 00 00 00 00	 push	 OFFSET ??_C@_0EL@EPAAMPOO@c?3?2users?2nhv90?2projects?2eech?2ap@
  000b8	68 00 00 00 00	 push	 OFFSET ??_C@_06DDNABPCD@inst3d@
  000bd	e8 00 00 00 00	 call	 ?process_assert@@YGXPBD0H@Z ; process_assert
$LN3@deactivate:

; 1113 : 
; 1114 : 	//
; 1115 : 	// hardpoint markers
; 1116 : 	//
; 1117 : 
; 1118 : 	set_sub_object_type_visible_status (inst3d, OBJECT_3D_SUB_OBJECT_PAYLOAD_MARKER_1_ON, FALSE);

  000c2	6a 00		 push	 0
  000c4	6a 22		 push	 34			; 00000022H
  000c6	8b 45 fc	 mov	 eax, DWORD PTR _inst3d$[ebp]
  000c9	50		 push	 eax
  000ca	e8 00 00 00 00	 call	 ?set_sub_object_type_visible_status@@YGHPAUOBJECT_3D_INSTANCE@@HH@Z ; set_sub_object_type_visible_status

; 1119 : 	set_sub_object_type_visible_status (inst3d, OBJECT_3D_SUB_OBJECT_PAYLOAD_MARKER_2_ON, FALSE);

  000cf	6a 00		 push	 0
  000d1	6a 26		 push	 38			; 00000026H
  000d3	8b 45 fc	 mov	 eax, DWORD PTR _inst3d$[ebp]
  000d6	50		 push	 eax
  000d7	e8 00 00 00 00	 call	 ?set_sub_object_type_visible_status@@YGHPAUOBJECT_3D_INSTANCE@@HH@Z ; set_sub_object_type_visible_status

; 1120 : 	set_sub_object_type_visible_status (inst3d, OBJECT_3D_SUB_OBJECT_PAYLOAD_MARKER_3_ON, FALSE);

  000dc	6a 00		 push	 0
  000de	6a 28		 push	 40			; 00000028H
  000e0	8b 45 fc	 mov	 eax, DWORD PTR _inst3d$[ebp]
  000e3	50		 push	 eax
  000e4	e8 00 00 00 00	 call	 ?set_sub_object_type_visible_status@@YGHPAUOBJECT_3D_INSTANCE@@HH@Z ; set_sub_object_type_visible_status

; 1121 : 	set_sub_object_type_visible_status (inst3d, OBJECT_3D_SUB_OBJECT_PAYLOAD_MARKER_4_ON, FALSE);

  000e9	6a 00		 push	 0
  000eb	6a 30		 push	 48			; 00000030H
  000ed	8b 45 fc	 mov	 eax, DWORD PTR _inst3d$[ebp]
  000f0	50		 push	 eax
  000f1	e8 00 00 00 00	 call	 ?set_sub_object_type_visible_status@@YGHPAUOBJECT_3D_INSTANCE@@HH@Z ; set_sub_object_type_visible_status

; 1122 : 
; 1123 : 	set_sub_object_type_visible_status (inst3d, OBJECT_3D_SUB_OBJECT_PAYLOAD_MARKER_1_OFF, FALSE);

  000f6	6a 00		 push	 0
  000f8	6a 21		 push	 33			; 00000021H
  000fa	8b 45 fc	 mov	 eax, DWORD PTR _inst3d$[ebp]
  000fd	50		 push	 eax
  000fe	e8 00 00 00 00	 call	 ?set_sub_object_type_visible_status@@YGHPAUOBJECT_3D_INSTANCE@@HH@Z ; set_sub_object_type_visible_status

; 1124 : 	set_sub_object_type_visible_status (inst3d, OBJECT_3D_SUB_OBJECT_PAYLOAD_MARKER_2_OFF, FALSE);

  00103	6a 00		 push	 0
  00105	6a 25		 push	 37			; 00000025H
  00107	8b 45 fc	 mov	 eax, DWORD PTR _inst3d$[ebp]
  0010a	50		 push	 eax
  0010b	e8 00 00 00 00	 call	 ?set_sub_object_type_visible_status@@YGHPAUOBJECT_3D_INSTANCE@@HH@Z ; set_sub_object_type_visible_status

; 1125 : 	set_sub_object_type_visible_status (inst3d, OBJECT_3D_SUB_OBJECT_PAYLOAD_MARKER_3_OFF, FALSE);

  00110	6a 00		 push	 0
  00112	6a 27		 push	 39			; 00000027H
  00114	8b 45 fc	 mov	 eax, DWORD PTR _inst3d$[ebp]
  00117	50		 push	 eax
  00118	e8 00 00 00 00	 call	 ?set_sub_object_type_visible_status@@YGHPAUOBJECT_3D_INSTANCE@@HH@Z ; set_sub_object_type_visible_status

; 1126 : 	set_sub_object_type_visible_status (inst3d, OBJECT_3D_SUB_OBJECT_PAYLOAD_MARKER_4_OFF, FALSE);

  0011d	6a 00		 push	 0
  0011f	6a 2f		 push	 47			; 0000002fH
  00121	8b 45 fc	 mov	 eax, DWORD PTR _inst3d$[ebp]
  00124	50		 push	 eax
  00125	e8 00 00 00 00	 call	 ?set_sub_object_type_visible_status@@YGHPAUOBJECT_3D_INSTANCE@@HH@Z ; set_sub_object_type_visible_status

; 1127 : 
; 1128 : 	//
; 1129 : 	// fuel gauge
; 1130 : 	//
; 1131 : 
; 1132 : 	set_sub_object_type_visible_status (inst3d, OBJECT_3D_SUB_OBJECT_FUEL_GAUGE_OUTLINE, FALSE);

  0012a	6a 00		 push	 0
  0012c	6a 2b		 push	 43			; 0000002bH
  0012e	8b 45 fc	 mov	 eax, DWORD PTR _inst3d$[ebp]
  00131	50		 push	 eax
  00132	e8 00 00 00 00	 call	 ?set_sub_object_type_visible_status@@YGHPAUOBJECT_3D_INSTANCE@@HH@Z ; set_sub_object_type_visible_status

; 1133 : 
; 1134 : 	set_sub_object_type_visible_status (inst3d, OBJECT_3D_SUB_OBJECT_FUEL_GAUGE_ON, FALSE);

  00137	6a 00		 push	 0
  00139	6a 2c		 push	 44			; 0000002cH
  0013b	8b 45 fc	 mov	 eax, DWORD PTR _inst3d$[ebp]
  0013e	50		 push	 eax
  0013f	e8 00 00 00 00	 call	 ?set_sub_object_type_visible_status@@YGHPAUOBJECT_3D_INSTANCE@@HH@Z ; set_sub_object_type_visible_status

; 1135 : 
; 1136 : 	//
; 1137 : 	// damage gauge
; 1138 : 	//
; 1139 : 
; 1140 : 	set_sub_object_type_visible_status (inst3d, OBJECT_3D_SUB_OBJECT_DAMAGE_GAUGE_OUTLINE, FALSE);

  00144	6a 00		 push	 0
  00146	6a 2d		 push	 45			; 0000002dH
  00148	8b 45 fc	 mov	 eax, DWORD PTR _inst3d$[ebp]
  0014b	50		 push	 eax
  0014c	e8 00 00 00 00	 call	 ?set_sub_object_type_visible_status@@YGHPAUOBJECT_3D_INSTANCE@@HH@Z ; set_sub_object_type_visible_status

; 1141 : 
; 1142 : 	set_sub_object_type_visible_status (inst3d, OBJECT_3D_SUB_OBJECT_DAMAGE_GAUGE_ON, FALSE);

  00151	6a 00		 push	 0
  00153	6a 2e		 push	 46			; 0000002eH
  00155	8b 45 fc	 mov	 eax, DWORD PTR _inst3d$[ebp]
  00158	50		 push	 eax
  00159	e8 00 00 00 00	 call	 ?set_sub_object_type_visible_status@@YGHPAUOBJECT_3D_INSTANCE@@HH@Z ; set_sub_object_type_visible_status

; 1143 : 
; 1144 : 	//
; 1145 : 	// lights
; 1146 : 	//
; 1147 : 
; 1148 : 	set_sub_object_type_visible_status (inst3d, OBJECT_3D_SUB_OBJECT_PAYLOAD_LIGHTS, FALSE);

  0015e	6a 00		 push	 0
  00160	6a 11		 push	 17			; 00000011H
  00162	8b 45 fc	 mov	 eax, DWORD PTR _inst3d$[ebp]
  00165	50		 push	 eax
  00166	e8 00 00 00 00	 call	 ?set_sub_object_type_visible_status@@YGHPAUOBJECT_3D_INSTANCE@@HH@Z ; set_sub_object_type_visible_status

; 1149 : }

  0016b	5f		 pop	 edi
  0016c	5e		 pop	 esi
  0016d	5b		 pop	 ebx
  0016e	8b e5		 mov	 esp, ebp
  00170	5d		 pop	 ebp
  00171	c2 04 00	 ret	 4
?deactivate_weapon_payload_markers@@YGXPAUENTITY@@@Z ENDP ; deactivate_weapon_payload_markers
_TEXT	ENDS
; Function compile flags: /Odtp /ZI
; File c:\users\nhv90\projects\eech\aphavoc\source\entity\mobile\weapon\wn_load.c
;	COMDAT ?deinitialise_weapon_loading_gunship_database@@YGXXZ
_TEXT	SEGMENT
_hardpoint$ = -16					; size = 4
_gunship$ = -12						; size = 4
_hardpoint_data$ = -8					; size = 4
_gunship_data$ = -4					; size = 4
?deinitialise_weapon_loading_gunship_database@@YGXXZ PROC ; deinitialise_weapon_loading_gunship_database, COMDAT

; 1068 : {

  00000	55		 push	 ebp
  00001	8b ec		 mov	 ebp, esp
  00003	83 ec 50	 sub	 esp, 80			; 00000050H
  00006	53		 push	 ebx
  00007	56		 push	 esi
  00008	57		 push	 edi

; 1069 : 	weapon_loading_gunship_type
; 1070 : 		*gunship_data;
; 1071 : 
; 1072 : 	weapon_loading_hardpoint_type
; 1073 : 		*hardpoint_data;
; 1074 : 
; 1075 : 	int
; 1076 : 		gunship,
; 1077 : 		hardpoint;
; 1078 : 
; 1079 : 	for (gunship = 0; gunship < NUM_GUNSHIP_TYPES; gunship ++)

  00009	c7 45 f4 00 00
	00 00		 mov	 DWORD PTR _gunship$[ebp], 0
  00010	eb 09		 jmp	 SHORT $LN4@deinitiali
$LN2@deinitiali:
  00012	8b 45 f4	 mov	 eax, DWORD PTR _gunship$[ebp]
  00015	83 c0 01	 add	 eax, 1
  00018	89 45 f4	 mov	 DWORD PTR _gunship$[ebp], eax
$LN4@deinitiali:
  0001b	83 7d f4 0a	 cmp	 DWORD PTR _gunship$[ebp], 10 ; 0000000aH
  0001f	7d 77		 jge	 SHORT $LN1@deinitiali

; 1080 : 	{
; 1081 : 		gunship_data = &weapon_loading_gunship_database [gunship];

  00021	69 45 f4 a8 00
	00 00		 imul	 eax, DWORD PTR _gunship$[ebp], 168
  00028	05 00 00 00 00	 add	 eax, OFFSET ?weapon_loading_gunship_database@@3PAUWEAPON_LOADING_GUNSHIP_TYPE@@A
  0002d	89 45 fc	 mov	 DWORD PTR _gunship_data$[ebp], eax

; 1082 : 
; 1083 : 		for (hardpoint = 0; hardpoint < NUM_WEAPON_LOADING_HARDPOINT_TYPES; hardpoint ++)

  00030	c7 45 f0 00 00
	00 00		 mov	 DWORD PTR _hardpoint$[ebp], 0
  00037	eb 09		 jmp	 SHORT $LN7@deinitiali
$LN5@deinitiali:
  00039	8b 45 f0	 mov	 eax, DWORD PTR _hardpoint$[ebp]
  0003c	83 c0 01	 add	 eax, 1
  0003f	89 45 f0	 mov	 DWORD PTR _hardpoint$[ebp], eax
$LN7@deinitiali:
  00042	83 7d f0 06	 cmp	 DWORD PTR _hardpoint$[ebp], 6
  00046	7d 4b		 jge	 SHORT $LN6@deinitiali

; 1084 : 		{
; 1085 : 			hardpoint_data = &(gunship_data->hardpoint_list [hardpoint]);

  00048	6b 45 f0 1c	 imul	 eax, DWORD PTR _hardpoint$[ebp], 28
  0004c	03 45 fc	 add	 eax, DWORD PTR _gunship_data$[ebp]
  0004f	89 45 f8	 mov	 DWORD PTR _hardpoint_data$[ebp], eax

; 1086 : 
; 1087 : 			if (hardpoint_data->valid)

  00052	8b 45 f8	 mov	 eax, DWORD PTR _hardpoint_data$[ebp]
  00055	83 38 00	 cmp	 DWORD PTR [eax], 0
  00058	74 37		 je	 SHORT $LN8@deinitiali

; 1088 : 			{
; 1089 : 				ASSERT (hardpoint_data->valid_weapon_types);

  0005a	8b 45 f8	 mov	 eax, DWORD PTR _hardpoint_data$[ebp]
  0005d	83 78 18 00	 cmp	 DWORD PTR [eax+24], 0
  00061	75 18		 jne	 SHORT $LN9@deinitiali
  00063	a1 00 00 00 00	 mov	 eax, DWORD PTR ?__LINE__Var@?0??deinitialise_weapon_loading_gunship_database@@YGXXZ@4JA
  00068	83 c0 15	 add	 eax, 21			; 00000015H
  0006b	50		 push	 eax
  0006c	68 00 00 00 00	 push	 OFFSET ??_C@_0EL@EPAAMPOO@c?3?2users?2nhv90?2projects?2eech?2ap@
  00071	68 00 00 00 00	 push	 OFFSET ??_C@_0CD@FFIBIHGL@hardpoint_data?9?$DOvalid_weapon_ty@
  00076	e8 00 00 00 00	 call	 ?process_assert@@YGXPBD0H@Z ; process_assert
$LN9@deinitiali:

; 1090 : 
; 1091 : 				safe_free (hardpoint_data->valid_weapon_types);

  0007b	8b 45 f8	 mov	 eax, DWORD PTR _hardpoint_data$[ebp]
  0007e	8b 48 18	 mov	 ecx, DWORD PTR [eax+24]
  00081	51		 push	 ecx
  00082	e8 00 00 00 00	 call	 ?safe_free@@YGXPAX@Z	; safe_free

; 1092 : 
; 1093 : 				hardpoint_data->valid_weapon_types = NULL;

  00087	8b 45 f8	 mov	 eax, DWORD PTR _hardpoint_data$[ebp]
  0008a	c7 40 18 00 00
	00 00		 mov	 DWORD PTR [eax+24], 0
$LN8@deinitiali:

; 1094 : 			}
; 1095 : 		}

  00091	eb a6		 jmp	 SHORT $LN5@deinitiali
$LN6@deinitiali:

; 1096 : 	}

  00093	e9 7a ff ff ff	 jmp	 $LN2@deinitiali
$LN1@deinitiali:

; 1097 : }

  00098	5f		 pop	 edi
  00099	5e		 pop	 esi
  0009a	5b		 pop	 ebx
  0009b	8b e5		 mov	 esp, ebp
  0009d	5d		 pop	 ebp
  0009e	c3		 ret	 0
?deinitialise_weapon_loading_gunship_database@@YGXXZ ENDP ; deinitialise_weapon_loading_gunship_database
_TEXT	ENDS
; Function compile flags: /Odtp /ZI
; File c:\users\nhv90\projects\eech\aphavoc\source\entity\mobile\weapon\wn_load.c
;	COMDAT ?initialise_weapon_loading_gunship_database@@YGXXZ
_TEXT	SEGMENT
_loop$ = -12						; size = 4
_hardpoint_data$ = -8					; size = 4
_gunship_data$ = -4					; size = 4
?initialise_weapon_loading_gunship_database@@YGXXZ PROC	; initialise_weapon_loading_gunship_database, COMDAT

; 129  : {

  00000	55		 push	 ebp
  00001	8b ec		 mov	 ebp, esp
  00003	83 ec 4c	 sub	 esp, 76			; 0000004cH
  00006	53		 push	 ebx
  00007	56		 push	 esi
  00008	57		 push	 edi

; 130  : 	weapon_loading_gunship_type
; 131  : 		*gunship_data;
; 132  : 
; 133  : 	weapon_loading_hardpoint_type
; 134  : 		*hardpoint_data;
; 135  : 
; 136  : 	int
; 137  : 		loop;
; 138  : 
; 139  : 	//////////////////////////
; 140  : 	//
; 141  : 	// APACHE
; 142  : 	//
; 143  : 	//////////////////////////
; 144  : 
; 145  : 	gunship_data = &weapon_loading_gunship_database [GUNSHIP_TYPE_APACHE];

  00009	b8 a8 00 00 00	 mov	 eax, 168		; 000000a8H
  0000e	6b c8 00	 imul	 ecx, eax, 0
  00011	81 c1 00 00 00
	00		 add	 ecx, OFFSET ?weapon_loading_gunship_database@@3PAUWEAPON_LOADING_GUNSHIP_TYPE@@A
  00017	89 4d fc	 mov	 DWORD PTR _gunship_data$[ebp], ecx

; 146  : 
; 147  : 	for (loop = 0; loop < NUM_WEAPON_LOADING_HARDPOINT_TYPES; loop ++)

  0001a	c7 45 f4 00 00
	00 00		 mov	 DWORD PTR _loop$[ebp], 0
  00021	eb 09		 jmp	 SHORT $LN4@initialise
$LN2@initialise:
  00023	8b 45 f4	 mov	 eax, DWORD PTR _loop$[ebp]
  00026	83 c0 01	 add	 eax, 1
  00029	89 45 f4	 mov	 DWORD PTR _loop$[ebp], eax
$LN4@initialise:
  0002c	83 7d f4 06	 cmp	 DWORD PTR _loop$[ebp], 6
  00030	7d 16		 jge	 SHORT $LN3@initialise

; 148  : 	{
; 149  : 		memset (&(gunship_data->hardpoint_list [loop]), 0, sizeof (weapon_loading_hardpoint_type));

  00032	6a 1c		 push	 28			; 0000001cH
  00034	6a 00		 push	 0
  00036	6b 45 f4 1c	 imul	 eax, DWORD PTR _loop$[ebp], 28
  0003a	03 45 fc	 add	 eax, DWORD PTR _gunship_data$[ebp]
  0003d	50		 push	 eax
  0003e	e8 00 00 00 00	 call	 _memset
  00043	83 c4 0c	 add	 esp, 12			; 0000000cH

; 150  : 	}

  00046	eb db		 jmp	 SHORT $LN2@initialise
$LN3@initialise:

; 151  : 
; 152  : 	// GUN 1
; 153  : 
; 154  : 	hardpoint_data = &(gunship_data->hardpoint_list [WEAPON_LOADING_HARDPOINT_GUN1]);

  00048	b8 1c 00 00 00	 mov	 eax, 28			; 0000001cH
  0004d	6b c8 00	 imul	 ecx, eax, 0
  00050	03 4d fc	 add	 ecx, DWORD PTR _gunship_data$[ebp]
  00053	89 4d f8	 mov	 DWORD PTR _hardpoint_data$[ebp], ecx

; 155  : 
; 156  : 	hardpoint_data->valid = TRUE;

  00056	8b 45 f8	 mov	 eax, DWORD PTR _hardpoint_data$[ebp]
  00059	c7 00 01 00 00
	00		 mov	 DWORD PTR [eax], 1

; 157  : 
; 158  : 	hardpoint_data->fixed = TRUE;

  0005f	8b 45 f8	 mov	 eax, DWORD PTR _hardpoint_data$[ebp]
  00062	c7 40 04 01 00
	00 00		 mov	 DWORD PTR [eax+4], 1

; 159  : 
; 160  : 	hardpoint_data->current_weapon_index = 0;

  00069	8b 45 f8	 mov	 eax, DWORD PTR _hardpoint_data$[ebp]
  0006c	c7 40 08 00 00
	00 00		 mov	 DWORD PTR [eax+8], 0

; 161  : 
; 162  : 	hardpoint_data->sub_object_depth1 = APACHE_CHAIN_GUN_TURRET;

  00073	8b 45 f8	 mov	 eax, DWORD PTR _hardpoint_data$[ebp]
  00076	c7 40 10 06 00
	00 00		 mov	 DWORD PTR [eax+16], 6

; 163  : 	hardpoint_data->sub_object_depth2 = -1;

  0007d	8b 45 f8	 mov	 eax, DWORD PTR _hardpoint_data$[ebp]
  00080	c7 40 14 ff ff
	ff ff		 mov	 DWORD PTR [eax+20], -1

; 164  : 
; 165  : 	hardpoint_data->number_of_valid_weapon_types = 1;

  00087	8b 45 f8	 mov	 eax, DWORD PTR _hardpoint_data$[ebp]
  0008a	c7 40 0c 01 00
	00 00		 mov	 DWORD PTR [eax+12], 1

; 166  : 
; 167  : 	hardpoint_data->valid_weapon_types =(entity_sub_types *) safe_malloc (sizeof (entity_sub_types) * hardpoint_data->number_of_valid_weapon_types);

  00091	8b 45 f8	 mov	 eax, DWORD PTR _hardpoint_data$[ebp]
  00094	8b 48 0c	 mov	 ecx, DWORD PTR [eax+12]
  00097	c1 e1 02	 shl	 ecx, 2
  0009a	51		 push	 ecx
  0009b	e8 00 00 00 00	 call	 ?safe_malloc_memory@@YGPAXI@Z ; safe_malloc_memory
  000a0	8b 55 f8	 mov	 edx, DWORD PTR _hardpoint_data$[ebp]
  000a3	89 42 18	 mov	 DWORD PTR [edx+24], eax

; 168  : 
; 169  : 	hardpoint_data->valid_weapon_types [0] = ENTITY_SUB_TYPE_WEAPON_M230_30MM_ROUND;

  000a6	b8 04 00 00 00	 mov	 eax, 4
  000ab	6b c8 00	 imul	 ecx, eax, 0
  000ae	8b 55 f8	 mov	 edx, DWORD PTR _hardpoint_data$[ebp]
  000b1	8b 42 18	 mov	 eax, DWORD PTR [edx+24]
  000b4	c7 04 01 07 00
	00 00		 mov	 DWORD PTR [ecx+eax], 7

; 170  : 
; 171  : 	// INNER HARDPOINT
; 172  : 
; 173  : 	hardpoint_data = &(gunship_data->hardpoint_list [WEAPON_LOADING_HARDPOINT_INNER]);

  000bb	b8 1c 00 00 00	 mov	 eax, 28			; 0000001cH
  000c0	d1 e0		 shl	 eax, 1
  000c2	03 45 fc	 add	 eax, DWORD PTR _gunship_data$[ebp]
  000c5	89 45 f8	 mov	 DWORD PTR _hardpoint_data$[ebp], eax

; 174  : 
; 175  : 	hardpoint_data->valid = TRUE;

  000c8	8b 45 f8	 mov	 eax, DWORD PTR _hardpoint_data$[ebp]
  000cb	c7 00 01 00 00
	00		 mov	 DWORD PTR [eax], 1

; 176  : 
; 177  : 	hardpoint_data->fixed = FALSE;

  000d1	8b 45 f8	 mov	 eax, DWORD PTR _hardpoint_data$[ebp]
  000d4	c7 40 04 00 00
	00 00		 mov	 DWORD PTR [eax+4], 0

; 178  : 
; 179  : 	hardpoint_data->current_weapon_index = 0;

  000db	8b 45 f8	 mov	 eax, DWORD PTR _hardpoint_data$[ebp]
  000de	c7 40 08 00 00
	00 00		 mov	 DWORD PTR [eax+8], 0

; 180  : 
; 181  : 	hardpoint_data->sub_object_depth1 = APACHE_LHS_INNER_PYLON;

  000e5	8b 45 f8	 mov	 eax, DWORD PTR _hardpoint_data$[ebp]
  000e8	c7 40 10 00 00
	00 00		 mov	 DWORD PTR [eax+16], 0

; 182  : 	hardpoint_data->sub_object_depth2 = APACHE_RHS_INNER_PYLON;

  000ef	8b 45 f8	 mov	 eax, DWORD PTR _hardpoint_data$[ebp]
  000f2	c7 40 14 01 00
	00 00		 mov	 DWORD PTR [eax+20], 1

; 183  : 
; 184  : 	hardpoint_data->number_of_valid_weapon_types = 5;

  000f9	8b 45 f8	 mov	 eax, DWORD PTR _hardpoint_data$[ebp]
  000fc	c7 40 0c 05 00
	00 00		 mov	 DWORD PTR [eax+12], 5

; 185  : 
; 186  : 	hardpoint_data->valid_weapon_types =(entity_sub_types *) safe_malloc (sizeof (entity_sub_types) * hardpoint_data->number_of_valid_weapon_types);

  00103	8b 45 f8	 mov	 eax, DWORD PTR _hardpoint_data$[ebp]
  00106	8b 48 0c	 mov	 ecx, DWORD PTR [eax+12]
  00109	c1 e1 02	 shl	 ecx, 2
  0010c	51		 push	 ecx
  0010d	e8 00 00 00 00	 call	 ?safe_malloc_memory@@YGPAXI@Z ; safe_malloc_memory
  00112	8b 55 f8	 mov	 edx, DWORD PTR _hardpoint_data$[ebp]
  00115	89 42 18	 mov	 DWORD PTR [edx+24], eax

; 187  : 
; 188  : 	hardpoint_data->valid_weapon_types [0] = ENTITY_SUB_TYPE_WEAPON_AGM114L_LONGBOW_HELLFIRE;

  00118	b8 04 00 00 00	 mov	 eax, 4
  0011d	6b c8 00	 imul	 ecx, eax, 0
  00120	8b 55 f8	 mov	 edx, DWORD PTR _hardpoint_data$[ebp]
  00123	8b 42 18	 mov	 eax, DWORD PTR [edx+24]
  00126	c7 04 01 2d 00
	00 00		 mov	 DWORD PTR [ecx+eax], 45	; 0000002dH

; 189  : 	hardpoint_data->valid_weapon_types [1] = ENTITY_SUB_TYPE_WEAPON_AGM114K_HELLFIRE_II;

  0012d	b8 04 00 00 00	 mov	 eax, 4
  00132	c1 e0 00	 shl	 eax, 0
  00135	8b 4d f8	 mov	 ecx, DWORD PTR _hardpoint_data$[ebp]
  00138	8b 51 18	 mov	 edx, DWORD PTR [ecx+24]
  0013b	c7 04 10 2e 00
	00 00		 mov	 DWORD PTR [eax+edx], 46	; 0000002eH

; 190  : 	hardpoint_data->valid_weapon_types [2] = ENTITY_SUB_TYPE_WEAPON_HYDRA70_M255;

  00142	b8 04 00 00 00	 mov	 eax, 4
  00147	d1 e0		 shl	 eax, 1
  00149	8b 4d f8	 mov	 ecx, DWORD PTR _hardpoint_data$[ebp]
  0014c	8b 51 18	 mov	 edx, DWORD PTR [ecx+24]
  0014f	c7 04 10 1e 00
	00 00		 mov	 DWORD PTR [eax+edx], 30	; 0000001eH

; 191  : 	hardpoint_data->valid_weapon_types [3] = ENTITY_SUB_TYPE_WEAPON_HYDRA70_M261;

  00156	b8 04 00 00 00	 mov	 eax, 4
  0015b	6b c8 03	 imul	 ecx, eax, 3
  0015e	8b 55 f8	 mov	 edx, DWORD PTR _hardpoint_data$[ebp]
  00161	8b 42 18	 mov	 eax, DWORD PTR [edx+24]
  00164	c7 04 01 1f 00
	00 00		 mov	 DWORD PTR [ecx+eax], 31	; 0000001fH

; 192  : 	hardpoint_data->valid_weapon_types [4] = ENTITY_SUB_TYPE_WEAPON_NO_WEAPON;

  0016b	b8 04 00 00 00	 mov	 eax, 4
  00170	c1 e0 02	 shl	 eax, 2
  00173	8b 4d f8	 mov	 ecx, DWORD PTR _hardpoint_data$[ebp]
  00176	8b 51 18	 mov	 edx, DWORD PTR [ecx+24]
  00179	c7 04 10 00 00
	00 00		 mov	 DWORD PTR [eax+edx], 0

; 193  : 
; 194  : 	// OUTER HARDPOINT
; 195  : 
; 196  : 	hardpoint_data = &(gunship_data->hardpoint_list [WEAPON_LOADING_HARDPOINT_OUTER]);

  00180	b8 1c 00 00 00	 mov	 eax, 28			; 0000001cH
  00185	c1 e0 02	 shl	 eax, 2
  00188	03 45 fc	 add	 eax, DWORD PTR _gunship_data$[ebp]
  0018b	89 45 f8	 mov	 DWORD PTR _hardpoint_data$[ebp], eax

; 197  : 
; 198  : 	hardpoint_data->valid = TRUE;

  0018e	8b 45 f8	 mov	 eax, DWORD PTR _hardpoint_data$[ebp]
  00191	c7 00 01 00 00
	00		 mov	 DWORD PTR [eax], 1

; 199  : 
; 200  : 	hardpoint_data->fixed = FALSE;

  00197	8b 45 f8	 mov	 eax, DWORD PTR _hardpoint_data$[ebp]
  0019a	c7 40 04 00 00
	00 00		 mov	 DWORD PTR [eax+4], 0

; 201  : 
; 202  : 	hardpoint_data->current_weapon_index = 0;

  001a1	8b 45 f8	 mov	 eax, DWORD PTR _hardpoint_data$[ebp]
  001a4	c7 40 08 00 00
	00 00		 mov	 DWORD PTR [eax+8], 0

; 203  : 
; 204  : 	hardpoint_data->sub_object_depth1 = APACHE_LHS_OUTER_PYLON;

  001ab	8b 45 f8	 mov	 eax, DWORD PTR _hardpoint_data$[ebp]
  001ae	c7 40 10 02 00
	00 00		 mov	 DWORD PTR [eax+16], 2

; 205  : 	hardpoint_data->sub_object_depth2 = APACHE_RHS_OUTER_PYLON;

  001b5	8b 45 f8	 mov	 eax, DWORD PTR _hardpoint_data$[ebp]
  001b8	c7 40 14 03 00
	00 00		 mov	 DWORD PTR [eax+20], 3

; 206  : 
; 207  : 	hardpoint_data->number_of_valid_weapon_types = 5;

  001bf	8b 45 f8	 mov	 eax, DWORD PTR _hardpoint_data$[ebp]
  001c2	c7 40 0c 05 00
	00 00		 mov	 DWORD PTR [eax+12], 5

; 208  : 
; 209  : 	hardpoint_data->valid_weapon_types =(entity_sub_types *) safe_malloc (sizeof (entity_sub_types) * hardpoint_data->number_of_valid_weapon_types);

  001c9	8b 45 f8	 mov	 eax, DWORD PTR _hardpoint_data$[ebp]
  001cc	8b 48 0c	 mov	 ecx, DWORD PTR [eax+12]
  001cf	c1 e1 02	 shl	 ecx, 2
  001d2	51		 push	 ecx
  001d3	e8 00 00 00 00	 call	 ?safe_malloc_memory@@YGPAXI@Z ; safe_malloc_memory
  001d8	8b 55 f8	 mov	 edx, DWORD PTR _hardpoint_data$[ebp]
  001db	89 42 18	 mov	 DWORD PTR [edx+24], eax

; 210  : 
; 211  : 	hardpoint_data->valid_weapon_types [0] = ENTITY_SUB_TYPE_WEAPON_AGM114L_LONGBOW_HELLFIRE;

  001de	b8 04 00 00 00	 mov	 eax, 4
  001e3	6b c8 00	 imul	 ecx, eax, 0
  001e6	8b 55 f8	 mov	 edx, DWORD PTR _hardpoint_data$[ebp]
  001e9	8b 42 18	 mov	 eax, DWORD PTR [edx+24]
  001ec	c7 04 01 2d 00
	00 00		 mov	 DWORD PTR [ecx+eax], 45	; 0000002dH

; 212  : 	hardpoint_data->valid_weapon_types [1] = ENTITY_SUB_TYPE_WEAPON_AGM114K_HELLFIRE_II;

  001f3	b8 04 00 00 00	 mov	 eax, 4
  001f8	c1 e0 00	 shl	 eax, 0
  001fb	8b 4d f8	 mov	 ecx, DWORD PTR _hardpoint_data$[ebp]
  001fe	8b 51 18	 mov	 edx, DWORD PTR [ecx+24]
  00201	c7 04 10 2e 00
	00 00		 mov	 DWORD PTR [eax+edx], 46	; 0000002eH

; 213  : 	hardpoint_data->valid_weapon_types [2] = ENTITY_SUB_TYPE_WEAPON_HYDRA70_M255;

  00208	b8 04 00 00 00	 mov	 eax, 4
  0020d	d1 e0		 shl	 eax, 1
  0020f	8b 4d f8	 mov	 ecx, DWORD PTR _hardpoint_data$[ebp]
  00212	8b 51 18	 mov	 edx, DWORD PTR [ecx+24]
  00215	c7 04 10 1e 00
	00 00		 mov	 DWORD PTR [eax+edx], 30	; 0000001eH

; 214  : 	hardpoint_data->valid_weapon_types [3] = ENTITY_SUB_TYPE_WEAPON_HYDRA70_M261;

  0021c	b8 04 00 00 00	 mov	 eax, 4
  00221	6b c8 03	 imul	 ecx, eax, 3
  00224	8b 55 f8	 mov	 edx, DWORD PTR _hardpoint_data$[ebp]
  00227	8b 42 18	 mov	 eax, DWORD PTR [edx+24]
  0022a	c7 04 01 1f 00
	00 00		 mov	 DWORD PTR [ecx+eax], 31	; 0000001fH

; 215  : 	hardpoint_data->valid_weapon_types [4] = ENTITY_SUB_TYPE_WEAPON_NO_WEAPON;

  00231	b8 04 00 00 00	 mov	 eax, 4
  00236	c1 e0 02	 shl	 eax, 2
  00239	8b 4d f8	 mov	 ecx, DWORD PTR _hardpoint_data$[ebp]
  0023c	8b 51 18	 mov	 edx, DWORD PTR [ecx+24]
  0023f	c7 04 10 00 00
	00 00		 mov	 DWORD PTR [eax+edx], 0

; 216  : 
; 217  : 	// WINGTIP HARDPOINT
; 218  : 
; 219  : 	hardpoint_data = &(gunship_data->hardpoint_list [WEAPON_LOADING_HARDPOINT_WINGTIP]);

  00246	b8 1c 00 00 00	 mov	 eax, 28			; 0000001cH
  0024b	6b c8 05	 imul	 ecx, eax, 5
  0024e	03 4d fc	 add	 ecx, DWORD PTR _gunship_data$[ebp]
  00251	89 4d f8	 mov	 DWORD PTR _hardpoint_data$[ebp], ecx

; 220  : 
; 221  : 	hardpoint_data->valid = TRUE;

  00254	8b 45 f8	 mov	 eax, DWORD PTR _hardpoint_data$[ebp]
  00257	c7 00 01 00 00
	00		 mov	 DWORD PTR [eax], 1

; 222  : 
; 223  : 	hardpoint_data->fixed = FALSE;

  0025d	8b 45 f8	 mov	 eax, DWORD PTR _hardpoint_data$[ebp]
  00260	c7 40 04 00 00
	00 00		 mov	 DWORD PTR [eax+4], 0

; 224  : 
; 225  : 	hardpoint_data->current_weapon_index = 0;

  00267	8b 45 f8	 mov	 eax, DWORD PTR _hardpoint_data$[ebp]
  0026a	c7 40 08 00 00
	00 00		 mov	 DWORD PTR [eax+8], 0

; 226  : 
; 227  : 	hardpoint_data->sub_object_depth1 = APACHE_LHS_WING_TIP_MOUNT;

  00271	8b 45 f8	 mov	 eax, DWORD PTR _hardpoint_data$[ebp]
  00274	c7 40 10 04 00
	00 00		 mov	 DWORD PTR [eax+16], 4

; 228  : 	hardpoint_data->sub_object_depth2 = APACHE_RHS_WING_TIP_MOUNT;

  0027b	8b 45 f8	 mov	 eax, DWORD PTR _hardpoint_data$[ebp]
  0027e	c7 40 14 05 00
	00 00		 mov	 DWORD PTR [eax+20], 5

; 229  : 
; 230  : 	hardpoint_data->number_of_valid_weapon_types = 2;

  00285	8b 45 f8	 mov	 eax, DWORD PTR _hardpoint_data$[ebp]
  00288	c7 40 0c 02 00
	00 00		 mov	 DWORD PTR [eax+12], 2

; 231  : 
; 232  : 	hardpoint_data->valid_weapon_types =(entity_sub_types *) safe_malloc (sizeof (entity_sub_types) * hardpoint_data->number_of_valid_weapon_types);

  0028f	8b 45 f8	 mov	 eax, DWORD PTR _hardpoint_data$[ebp]
  00292	8b 48 0c	 mov	 ecx, DWORD PTR [eax+12]
  00295	c1 e1 02	 shl	 ecx, 2
  00298	51		 push	 ecx
  00299	e8 00 00 00 00	 call	 ?safe_malloc_memory@@YGPAXI@Z ; safe_malloc_memory
  0029e	8b 55 f8	 mov	 edx, DWORD PTR _hardpoint_data$[ebp]
  002a1	89 42 18	 mov	 DWORD PTR [edx+24], eax

; 233  : 
; 234  : 	hardpoint_data->valid_weapon_types [0] = ENTITY_SUB_TYPE_WEAPON_AIM92_STINGER;

  002a4	b8 04 00 00 00	 mov	 eax, 4
  002a9	6b c8 00	 imul	 ecx, eax, 0
  002ac	8b 55 f8	 mov	 edx, DWORD PTR _hardpoint_data$[ebp]
  002af	8b 42 18	 mov	 eax, DWORD PTR [edx+24]
  002b2	c7 04 01 24 00
	00 00		 mov	 DWORD PTR [ecx+eax], 36	; 00000024H

; 235  : 	hardpoint_data->valid_weapon_types [1] = ENTITY_SUB_TYPE_WEAPON_NO_WEAPON;

  002b9	b8 04 00 00 00	 mov	 eax, 4
  002be	c1 e0 00	 shl	 eax, 0
  002c1	8b 4d f8	 mov	 ecx, DWORD PTR _hardpoint_data$[ebp]
  002c4	8b 51 18	 mov	 edx, DWORD PTR [ecx+24]
  002c7	c7 04 10 00 00
	00 00		 mov	 DWORD PTR [eax+edx], 0

; 236  : 
; 237  : 	//////////////////////////
; 238  : 	//
; 239  : 	// HAVOC
; 240  : 	//
; 241  : 	//////////////////////////
; 242  : 
; 243  : 	gunship_data = &weapon_loading_gunship_database [GUNSHIP_TYPE_HAVOC];

  002ce	b8 a8 00 00 00	 mov	 eax, 168		; 000000a8H
  002d3	c1 e0 00	 shl	 eax, 0
  002d6	05 00 00 00 00	 add	 eax, OFFSET ?weapon_loading_gunship_database@@3PAUWEAPON_LOADING_GUNSHIP_TYPE@@A
  002db	89 45 fc	 mov	 DWORD PTR _gunship_data$[ebp], eax

; 244  : 
; 245  : 	for (loop = 0; loop < NUM_WEAPON_LOADING_HARDPOINT_TYPES; loop ++)

  002de	c7 45 f4 00 00
	00 00		 mov	 DWORD PTR _loop$[ebp], 0
  002e5	eb 09		 jmp	 SHORT $LN7@initialise
$LN5@initialise:
  002e7	8b 45 f4	 mov	 eax, DWORD PTR _loop$[ebp]
  002ea	83 c0 01	 add	 eax, 1
  002ed	89 45 f4	 mov	 DWORD PTR _loop$[ebp], eax
$LN7@initialise:
  002f0	83 7d f4 06	 cmp	 DWORD PTR _loop$[ebp], 6
  002f4	7d 16		 jge	 SHORT $LN6@initialise

; 246  : 	{
; 247  : 		memset (&(gunship_data->hardpoint_list [loop]), 0, sizeof (weapon_loading_hardpoint_type));

  002f6	6a 1c		 push	 28			; 0000001cH
  002f8	6a 00		 push	 0
  002fa	6b 45 f4 1c	 imul	 eax, DWORD PTR _loop$[ebp], 28
  002fe	03 45 fc	 add	 eax, DWORD PTR _gunship_data$[ebp]
  00301	50		 push	 eax
  00302	e8 00 00 00 00	 call	 _memset
  00307	83 c4 0c	 add	 esp, 12			; 0000000cH

; 248  : 	}

  0030a	eb db		 jmp	 SHORT $LN5@initialise
$LN6@initialise:

; 249  : 
; 250  : 	// GUN 1
; 251  : 
; 252  : 	hardpoint_data = &(gunship_data->hardpoint_list [WEAPON_LOADING_HARDPOINT_GUN1]);

  0030c	b8 1c 00 00 00	 mov	 eax, 28			; 0000001cH
  00311	6b c8 00	 imul	 ecx, eax, 0
  00314	03 4d fc	 add	 ecx, DWORD PTR _gunship_data$[ebp]
  00317	89 4d f8	 mov	 DWORD PTR _hardpoint_data$[ebp], ecx

; 253  : 
; 254  : 	hardpoint_data->valid = TRUE;

  0031a	8b 45 f8	 mov	 eax, DWORD PTR _hardpoint_data$[ebp]
  0031d	c7 00 01 00 00
	00		 mov	 DWORD PTR [eax], 1

; 255  : 
; 256  : 	hardpoint_data->fixed = TRUE;

  00323	8b 45 f8	 mov	 eax, DWORD PTR _hardpoint_data$[ebp]
  00326	c7 40 04 01 00
	00 00		 mov	 DWORD PTR [eax+4], 1

; 257  : 
; 258  : 	hardpoint_data->current_weapon_index = 0;

  0032d	8b 45 f8	 mov	 eax, DWORD PTR _hardpoint_data$[ebp]
  00330	c7 40 08 00 00
	00 00		 mov	 DWORD PTR [eax+8], 0

; 259  : 
; 260  : 	hardpoint_data->sub_object_depth1 = HAVOC_CANNON_TURRET;

  00337	8b 45 f8	 mov	 eax, DWORD PTR _hardpoint_data$[ebp]
  0033a	c7 40 10 04 00
	00 00		 mov	 DWORD PTR [eax+16], 4

; 261  : 	hardpoint_data->sub_object_depth2 = -1;

  00341	8b 45 f8	 mov	 eax, DWORD PTR _hardpoint_data$[ebp]
  00344	c7 40 14 ff ff
	ff ff		 mov	 DWORD PTR [eax+20], -1

; 262  : 
; 263  : 	hardpoint_data->number_of_valid_weapon_types = 1;

  0034b	8b 45 f8	 mov	 eax, DWORD PTR _hardpoint_data$[ebp]
  0034e	c7 40 0c 01 00
	00 00		 mov	 DWORD PTR [eax+12], 1

; 264  : 
; 265  : 	hardpoint_data->valid_weapon_types =(entity_sub_types *) safe_malloc (sizeof (entity_sub_types) * hardpoint_data->number_of_valid_weapon_types);

  00355	8b 45 f8	 mov	 eax, DWORD PTR _hardpoint_data$[ebp]
  00358	8b 48 0c	 mov	 ecx, DWORD PTR [eax+12]
  0035b	c1 e1 02	 shl	 ecx, 2
  0035e	51		 push	 ecx
  0035f	e8 00 00 00 00	 call	 ?safe_malloc_memory@@YGPAXI@Z ; safe_malloc_memory
  00364	8b 55 f8	 mov	 edx, DWORD PTR _hardpoint_data$[ebp]
  00367	89 42 18	 mov	 DWORD PTR [edx+24], eax

; 266  : 
; 267  : 	hardpoint_data->valid_weapon_types [0] = ENTITY_SUB_TYPE_WEAPON_2A42_30MM_HE_ROUND;

  0036a	b8 04 00 00 00	 mov	 eax, 4
  0036f	6b c8 00	 imul	 ecx, eax, 0
  00372	8b 55 f8	 mov	 edx, DWORD PTR _hardpoint_data$[ebp]
  00375	8b 42 18	 mov	 eax, DWORD PTR [edx+24]
  00378	c7 04 01 13 00
	00 00		 mov	 DWORD PTR [ecx+eax], 19	; 00000013H

; 268  : 
; 269  : 	// GUN 2
; 270  : 
; 271  : 	hardpoint_data = &(gunship_data->hardpoint_list [WEAPON_LOADING_HARDPOINT_GUN2]);

  0037f	b8 1c 00 00 00	 mov	 eax, 28			; 0000001cH
  00384	c1 e0 00	 shl	 eax, 0
  00387	03 45 fc	 add	 eax, DWORD PTR _gunship_data$[ebp]
  0038a	89 45 f8	 mov	 DWORD PTR _hardpoint_data$[ebp], eax

; 272  : 
; 273  : 	hardpoint_data->valid = TRUE;

  0038d	8b 45 f8	 mov	 eax, DWORD PTR _hardpoint_data$[ebp]
  00390	c7 00 01 00 00
	00		 mov	 DWORD PTR [eax], 1

; 274  : 
; 275  : 	hardpoint_data->fixed = TRUE;

  00396	8b 45 f8	 mov	 eax, DWORD PTR _hardpoint_data$[ebp]
  00399	c7 40 04 01 00
	00 00		 mov	 DWORD PTR [eax+4], 1

; 276  : 
; 277  : 	hardpoint_data->current_weapon_index = 0;

  003a0	8b 45 f8	 mov	 eax, DWORD PTR _hardpoint_data$[ebp]
  003a3	c7 40 08 00 00
	00 00		 mov	 DWORD PTR [eax+8], 0

; 278  : 
; 279  : 	hardpoint_data->sub_object_depth1 = HAVOC_CANNON_TURRET;

  003aa	8b 45 f8	 mov	 eax, DWORD PTR _hardpoint_data$[ebp]
  003ad	c7 40 10 04 00
	00 00		 mov	 DWORD PTR [eax+16], 4

; 280  : 	hardpoint_data->sub_object_depth2 = -1;

  003b4	8b 45 f8	 mov	 eax, DWORD PTR _hardpoint_data$[ebp]
  003b7	c7 40 14 ff ff
	ff ff		 mov	 DWORD PTR [eax+20], -1

; 281  : 
; 282  : 	hardpoint_data->number_of_valid_weapon_types = 1;

  003be	8b 45 f8	 mov	 eax, DWORD PTR _hardpoint_data$[ebp]
  003c1	c7 40 0c 01 00
	00 00		 mov	 DWORD PTR [eax+12], 1

; 283  : 
; 284  : 	hardpoint_data->valid_weapon_types =(entity_sub_types *) safe_malloc (sizeof (entity_sub_types) * hardpoint_data->number_of_valid_weapon_types);

  003c8	8b 45 f8	 mov	 eax, DWORD PTR _hardpoint_data$[ebp]
  003cb	8b 48 0c	 mov	 ecx, DWORD PTR [eax+12]
  003ce	c1 e1 02	 shl	 ecx, 2
  003d1	51		 push	 ecx
  003d2	e8 00 00 00 00	 call	 ?safe_malloc_memory@@YGPAXI@Z ; safe_malloc_memory
  003d7	8b 55 f8	 mov	 edx, DWORD PTR _hardpoint_data$[ebp]
  003da	89 42 18	 mov	 DWORD PTR [edx+24], eax

; 285  : 
; 286  : 	hardpoint_data->valid_weapon_types [0] = ENTITY_SUB_TYPE_WEAPON_2A42_30MM_AP_ROUND;

  003dd	b8 04 00 00 00	 mov	 eax, 4
  003e2	6b c8 00	 imul	 ecx, eax, 0
  003e5	8b 55 f8	 mov	 edx, DWORD PTR _hardpoint_data$[ebp]
  003e8	8b 42 18	 mov	 eax, DWORD PTR [edx+24]
  003eb	c7 04 01 14 00
	00 00		 mov	 DWORD PTR [ecx+eax], 20	; 00000014H

; 287  : 
; 288  : 	// INNER HARDPOINT
; 289  : 
; 290  : 	hardpoint_data = &(gunship_data->hardpoint_list [WEAPON_LOADING_HARDPOINT_INNER]);

  003f2	b8 1c 00 00 00	 mov	 eax, 28			; 0000001cH
  003f7	d1 e0		 shl	 eax, 1
  003f9	03 45 fc	 add	 eax, DWORD PTR _gunship_data$[ebp]
  003fc	89 45 f8	 mov	 DWORD PTR _hardpoint_data$[ebp], eax

; 291  : 
; 292  : 	hardpoint_data->valid = TRUE;

  003ff	8b 45 f8	 mov	 eax, DWORD PTR _hardpoint_data$[ebp]
  00402	c7 00 01 00 00
	00		 mov	 DWORD PTR [eax], 1

; 293  : 
; 294  : 	hardpoint_data->fixed = FALSE;

  00408	8b 45 f8	 mov	 eax, DWORD PTR _hardpoint_data$[ebp]
  0040b	c7 40 04 00 00
	00 00		 mov	 DWORD PTR [eax+4], 0

; 295  : 
; 296  : 	hardpoint_data->current_weapon_index = 0;

  00412	8b 45 f8	 mov	 eax, DWORD PTR _hardpoint_data$[ebp]
  00415	c7 40 08 00 00
	00 00		 mov	 DWORD PTR [eax+8], 0

; 297  : 
; 298  : 	hardpoint_data->sub_object_depth1 = HAVOC_LHS_INNER_PYLON;

  0041c	8b 45 f8	 mov	 eax, DWORD PTR _hardpoint_data$[ebp]
  0041f	c7 40 10 00 00
	00 00		 mov	 DWORD PTR [eax+16], 0

; 299  : 	hardpoint_data->sub_object_depth2 = HAVOC_RHS_INNER_PYLON;

  00426	8b 45 f8	 mov	 eax, DWORD PTR _hardpoint_data$[ebp]
  00429	c7 40 14 01 00
	00 00		 mov	 DWORD PTR [eax+20], 1

; 300  : 
; 301  : 	hardpoint_data->number_of_valid_weapon_types = 5;

  00430	8b 45 f8	 mov	 eax, DWORD PTR _hardpoint_data$[ebp]
  00433	c7 40 0c 05 00
	00 00		 mov	 DWORD PTR [eax+12], 5

; 302  : 
; 303  : 	hardpoint_data->valid_weapon_types =(entity_sub_types *) safe_malloc (sizeof (entity_sub_types) * hardpoint_data->number_of_valid_weapon_types);

  0043a	8b 45 f8	 mov	 eax, DWORD PTR _hardpoint_data$[ebp]
  0043d	8b 48 0c	 mov	 ecx, DWORD PTR [eax+12]
  00440	c1 e1 02	 shl	 ecx, 2
  00443	51		 push	 ecx
  00444	e8 00 00 00 00	 call	 ?safe_malloc_memory@@YGPAXI@Z ; safe_malloc_memory
  00449	8b 55 f8	 mov	 edx, DWORD PTR _hardpoint_data$[ebp]
  0044c	89 42 18	 mov	 DWORD PTR [edx+24], eax

; 304  : 
; 305  : 	hardpoint_data->valid_weapon_types [0] = ENTITY_SUB_TYPE_WEAPON_IGLA_V;

  0044f	b8 04 00 00 00	 mov	 eax, 4
  00454	6b c8 00	 imul	 ecx, eax, 0
  00457	8b 55 f8	 mov	 edx, DWORD PTR _hardpoint_data$[ebp]
  0045a	8b 42 18	 mov	 eax, DWORD PTR [edx+24]
  0045d	c7 04 01 27 00
	00 00		 mov	 DWORD PTR [ecx+eax], 39	; 00000027H

; 306  : 	hardpoint_data->valid_weapon_types [1] = ENTITY_SUB_TYPE_WEAPON_S8;

  00464	b8 04 00 00 00	 mov	 eax, 4
  00469	c1 e0 00	 shl	 eax, 0
  0046c	8b 4d f8	 mov	 ecx, DWORD PTR _hardpoint_data$[ebp]
  0046f	8b 51 18	 mov	 edx, DWORD PTR [ecx+24]
  00472	c7 04 10 22 00
	00 00		 mov	 DWORD PTR [eax+edx], 34	; 00000022H

; 307  : 	hardpoint_data->valid_weapon_types [2] = ENTITY_SUB_TYPE_WEAPON_S13;

  00479	b8 04 00 00 00	 mov	 eax, 4
  0047e	d1 e0		 shl	 eax, 1
  00480	8b 4d f8	 mov	 ecx, DWORD PTR _hardpoint_data$[ebp]
  00483	8b 51 18	 mov	 edx, DWORD PTR [ecx+24]
  00486	c7 04 10 23 00
	00 00		 mov	 DWORD PTR [eax+edx], 35	; 00000023H

; 308  : 	hardpoint_data->valid_weapon_types [3] = ENTITY_SUB_TYPE_WEAPON_GSH23L_23MM_ROUND;

  0048d	b8 04 00 00 00	 mov	 eax, 4
  00492	6b c8 03	 imul	 ecx, eax, 3
  00495	8b 55 f8	 mov	 edx, DWORD PTR _hardpoint_data$[ebp]
  00498	8b 42 18	 mov	 eax, DWORD PTR [edx+24]
  0049b	c7 04 01 0f 00
	00 00		 mov	 DWORD PTR [ecx+eax], 15	; 0000000fH

; 309  : 	hardpoint_data->valid_weapon_types [4] = ENTITY_SUB_TYPE_WEAPON_NO_WEAPON;

  004a2	b8 04 00 00 00	 mov	 eax, 4
  004a7	c1 e0 02	 shl	 eax, 2
  004aa	8b 4d f8	 mov	 ecx, DWORD PTR _hardpoint_data$[ebp]
  004ad	8b 51 18	 mov	 edx, DWORD PTR [ecx+24]
  004b0	c7 04 10 00 00
	00 00		 mov	 DWORD PTR [eax+edx], 0

; 310  : 
; 311  : 	// OUTER HARDPOINT
; 312  : 
; 313  : 	hardpoint_data = &(gunship_data->hardpoint_list [WEAPON_LOADING_HARDPOINT_OUTER]);

  004b7	b8 1c 00 00 00	 mov	 eax, 28			; 0000001cH
  004bc	c1 e0 02	 shl	 eax, 2
  004bf	03 45 fc	 add	 eax, DWORD PTR _gunship_data$[ebp]
  004c2	89 45 f8	 mov	 DWORD PTR _hardpoint_data$[ebp], eax

; 314  : 
; 315  : 	hardpoint_data->valid = TRUE;

  004c5	8b 45 f8	 mov	 eax, DWORD PTR _hardpoint_data$[ebp]
  004c8	c7 00 01 00 00
	00		 mov	 DWORD PTR [eax], 1

; 316  : 
; 317  : 	hardpoint_data->fixed = FALSE;

  004ce	8b 45 f8	 mov	 eax, DWORD PTR _hardpoint_data$[ebp]
  004d1	c7 40 04 00 00
	00 00		 mov	 DWORD PTR [eax+4], 0

; 318  : 
; 319  : 	hardpoint_data->current_weapon_index = 0;

  004d8	8b 45 f8	 mov	 eax, DWORD PTR _hardpoint_data$[ebp]
  004db	c7 40 08 00 00
	00 00		 mov	 DWORD PTR [eax+8], 0

; 320  : 
; 321  : 	hardpoint_data->sub_object_depth1 = HAVOC_LHS_OUTER_PYLON;

  004e2	8b 45 f8	 mov	 eax, DWORD PTR _hardpoint_data$[ebp]
  004e5	c7 40 10 02 00
	00 00		 mov	 DWORD PTR [eax+16], 2

; 322  : 	hardpoint_data->sub_object_depth2 = HAVOC_RHS_OUTER_PYLON;

  004ec	8b 45 f8	 mov	 eax, DWORD PTR _hardpoint_data$[ebp]
  004ef	c7 40 14 03 00
	00 00		 mov	 DWORD PTR [eax+20], 3

; 323  : 
; 324  : 	hardpoint_data->number_of_valid_weapon_types = 6;

  004f6	8b 45 f8	 mov	 eax, DWORD PTR _hardpoint_data$[ebp]
  004f9	c7 40 0c 06 00
	00 00		 mov	 DWORD PTR [eax+12], 6

; 325  : 
; 326  : 	hardpoint_data->valid_weapon_types =(entity_sub_types *) safe_malloc (sizeof (entity_sub_types) * hardpoint_data->number_of_valid_weapon_types);

  00500	8b 45 f8	 mov	 eax, DWORD PTR _hardpoint_data$[ebp]
  00503	8b 48 0c	 mov	 ecx, DWORD PTR [eax+12]
  00506	c1 e1 02	 shl	 ecx, 2
  00509	51		 push	 ecx
  0050a	e8 00 00 00 00	 call	 ?safe_malloc_memory@@YGPAXI@Z ; safe_malloc_memory
  0050f	8b 55 f8	 mov	 edx, DWORD PTR _hardpoint_data$[ebp]
  00512	89 42 18	 mov	 DWORD PTR [edx+24], eax

; 327  : 
; 328  : 	hardpoint_data->valid_weapon_types [0] = ENTITY_SUB_TYPE_WEAPON_ATAKA;

  00515	b8 04 00 00 00	 mov	 eax, 4
  0051a	6b c8 00	 imul	 ecx, eax, 0
  0051d	8b 55 f8	 mov	 edx, DWORD PTR _hardpoint_data$[ebp]
  00520	8b 42 18	 mov	 eax, DWORD PTR [edx+24]
  00523	c7 04 01 31 00
	00 00		 mov	 DWORD PTR [ecx+eax], 49	; 00000031H

; 329  : 	hardpoint_data->valid_weapon_types [1] = ENTITY_SUB_TYPE_WEAPON_IGLA_V;

  0052a	b8 04 00 00 00	 mov	 eax, 4
  0052f	c1 e0 00	 shl	 eax, 0
  00532	8b 4d f8	 mov	 ecx, DWORD PTR _hardpoint_data$[ebp]
  00535	8b 51 18	 mov	 edx, DWORD PTR [ecx+24]
  00538	c7 04 10 27 00
	00 00		 mov	 DWORD PTR [eax+edx], 39	; 00000027H

; 330  : 	hardpoint_data->valid_weapon_types [2] = ENTITY_SUB_TYPE_WEAPON_S8;

  0053f	b8 04 00 00 00	 mov	 eax, 4
  00544	d1 e0		 shl	 eax, 1
  00546	8b 4d f8	 mov	 ecx, DWORD PTR _hardpoint_data$[ebp]
  00549	8b 51 18	 mov	 edx, DWORD PTR [ecx+24]
  0054c	c7 04 10 22 00
	00 00		 mov	 DWORD PTR [eax+edx], 34	; 00000022H

; 331  : 	hardpoint_data->valid_weapon_types [3] = ENTITY_SUB_TYPE_WEAPON_S13;

  00553	b8 04 00 00 00	 mov	 eax, 4
  00558	6b c8 03	 imul	 ecx, eax, 3
  0055b	8b 55 f8	 mov	 edx, DWORD PTR _hardpoint_data$[ebp]
  0055e	8b 42 18	 mov	 eax, DWORD PTR [edx+24]
  00561	c7 04 01 23 00
	00 00		 mov	 DWORD PTR [ecx+eax], 35	; 00000023H

; 332  : 	hardpoint_data->valid_weapon_types [4] = ENTITY_SUB_TYPE_WEAPON_GSH23L_23MM_ROUND;

  00568	b8 04 00 00 00	 mov	 eax, 4
  0056d	c1 e0 02	 shl	 eax, 2
  00570	8b 4d f8	 mov	 ecx, DWORD PTR _hardpoint_data$[ebp]
  00573	8b 51 18	 mov	 edx, DWORD PTR [ecx+24]
  00576	c7 04 10 0f 00
	00 00		 mov	 DWORD PTR [eax+edx], 15	; 0000000fH

; 333  : 	hardpoint_data->valid_weapon_types [5] = ENTITY_SUB_TYPE_WEAPON_NO_WEAPON;

  0057d	b8 04 00 00 00	 mov	 eax, 4
  00582	6b c8 05	 imul	 ecx, eax, 5
  00585	8b 55 f8	 mov	 edx, DWORD PTR _hardpoint_data$[ebp]
  00588	8b 42 18	 mov	 eax, DWORD PTR [edx+24]
  0058b	c7 04 01 00 00
	00 00		 mov	 DWORD PTR [ecx+eax], 0

; 334  : 
; 335  : 	//////////////////////////
; 336  : 	//
; 337  : 	// COMANCHE
; 338  : 	//
; 339  : 	//////////////////////////
; 340  : 
; 341  : 	gunship_data = &weapon_loading_gunship_database [GUNSHIP_TYPE_COMANCHE];

  00592	b8 a8 00 00 00	 mov	 eax, 168		; 000000a8H
  00597	d1 e0		 shl	 eax, 1
  00599	05 00 00 00 00	 add	 eax, OFFSET ?weapon_loading_gunship_database@@3PAUWEAPON_LOADING_GUNSHIP_TYPE@@A
  0059e	89 45 fc	 mov	 DWORD PTR _gunship_data$[ebp], eax

; 342  : 
; 343  : 	for (loop = 0; loop < NUM_WEAPON_LOADING_HARDPOINT_TYPES; loop ++)

  005a1	c7 45 f4 00 00
	00 00		 mov	 DWORD PTR _loop$[ebp], 0
  005a8	eb 09		 jmp	 SHORT $LN10@initialise
$LN8@initialise:
  005aa	8b 45 f4	 mov	 eax, DWORD PTR _loop$[ebp]
  005ad	83 c0 01	 add	 eax, 1
  005b0	89 45 f4	 mov	 DWORD PTR _loop$[ebp], eax
$LN10@initialise:
  005b3	83 7d f4 06	 cmp	 DWORD PTR _loop$[ebp], 6
  005b7	7d 16		 jge	 SHORT $LN9@initialise

; 344  : 	{
; 345  : 		memset (&(gunship_data->hardpoint_list [loop]), 0, sizeof (weapon_loading_hardpoint_type));

  005b9	6a 1c		 push	 28			; 0000001cH
  005bb	6a 00		 push	 0
  005bd	6b 45 f4 1c	 imul	 eax, DWORD PTR _loop$[ebp], 28
  005c1	03 45 fc	 add	 eax, DWORD PTR _gunship_data$[ebp]
  005c4	50		 push	 eax
  005c5	e8 00 00 00 00	 call	 _memset
  005ca	83 c4 0c	 add	 esp, 12			; 0000000cH

; 346  : 	}

  005cd	eb db		 jmp	 SHORT $LN8@initialise
$LN9@initialise:

; 347  : 
; 348  : 	// GUN 1
; 349  : 
; 350  : 	hardpoint_data = &(gunship_data->hardpoint_list [WEAPON_LOADING_HARDPOINT_GUN1]);

  005cf	b8 1c 00 00 00	 mov	 eax, 28			; 0000001cH
  005d4	6b c8 00	 imul	 ecx, eax, 0
  005d7	03 4d fc	 add	 ecx, DWORD PTR _gunship_data$[ebp]
  005da	89 4d f8	 mov	 DWORD PTR _hardpoint_data$[ebp], ecx

; 351  : 
; 352  : 	hardpoint_data->valid = TRUE;

  005dd	8b 45 f8	 mov	 eax, DWORD PTR _hardpoint_data$[ebp]
  005e0	c7 00 01 00 00
	00		 mov	 DWORD PTR [eax], 1

; 353  : 
; 354  : 	hardpoint_data->fixed = TRUE;

  005e6	8b 45 f8	 mov	 eax, DWORD PTR _hardpoint_data$[ebp]
  005e9	c7 40 04 01 00
	00 00		 mov	 DWORD PTR [eax+4], 1

; 355  : 
; 356  : 	hardpoint_data->current_weapon_index = 0;

  005f0	8b 45 f8	 mov	 eax, DWORD PTR _hardpoint_data$[ebp]
  005f3	c7 40 08 00 00
	00 00		 mov	 DWORD PTR [eax+8], 0

; 357  : 
; 358  : 	hardpoint_data->sub_object_depth1 = COMANCHE_CANNON_TURRET;

  005fa	8b 45 f8	 mov	 eax, DWORD PTR _hardpoint_data$[ebp]
  005fd	c7 40 10 04 00
	00 00		 mov	 DWORD PTR [eax+16], 4

; 359  : 	hardpoint_data->sub_object_depth2 = -1;

  00604	8b 45 f8	 mov	 eax, DWORD PTR _hardpoint_data$[ebp]
  00607	c7 40 14 ff ff
	ff ff		 mov	 DWORD PTR [eax+20], -1

; 360  : 
; 361  : 	hardpoint_data->number_of_valid_weapon_types = 1;

  0060e	8b 45 f8	 mov	 eax, DWORD PTR _hardpoint_data$[ebp]
  00611	c7 40 0c 01 00
	00 00		 mov	 DWORD PTR [eax+12], 1

; 362  : 
; 363  : 	hardpoint_data->valid_weapon_types =(entity_sub_types *) safe_malloc (sizeof (entity_sub_types) * hardpoint_data->number_of_valid_weapon_types);

  00618	8b 45 f8	 mov	 eax, DWORD PTR _hardpoint_data$[ebp]
  0061b	8b 48 0c	 mov	 ecx, DWORD PTR [eax+12]
  0061e	c1 e1 02	 shl	 ecx, 2
  00621	51		 push	 ecx
  00622	e8 00 00 00 00	 call	 ?safe_malloc_memory@@YGPAXI@Z ; safe_malloc_memory
  00627	8b 55 f8	 mov	 edx, DWORD PTR _hardpoint_data$[ebp]
  0062a	89 42 18	 mov	 DWORD PTR [edx+24], eax

; 364  : 
; 365  : 	hardpoint_data->valid_weapon_types [0] = ENTITY_SUB_TYPE_WEAPON_M197_20MM_ROUND;

  0062d	b8 04 00 00 00	 mov	 eax, 4
  00632	6b c8 00	 imul	 ecx, eax, 0
  00635	8b 55 f8	 mov	 edx, DWORD PTR _hardpoint_data$[ebp]
  00638	8b 42 18	 mov	 eax, DWORD PTR [edx+24]
  0063b	c7 04 01 03 00
	00 00		 mov	 DWORD PTR [ecx+eax], 3

; 366  : 
; 367  : 	// INNER HARDPOINT
; 368  : 
; 369  : 	hardpoint_data = &(gunship_data->hardpoint_list [WEAPON_LOADING_HARDPOINT_INNER]);

  00642	b8 1c 00 00 00	 mov	 eax, 28			; 0000001cH
  00647	d1 e0		 shl	 eax, 1
  00649	03 45 fc	 add	 eax, DWORD PTR _gunship_data$[ebp]
  0064c	89 45 f8	 mov	 DWORD PTR _hardpoint_data$[ebp], eax

; 370  : 
; 371  : 	hardpoint_data->valid = TRUE;

  0064f	8b 45 f8	 mov	 eax, DWORD PTR _hardpoint_data$[ebp]
  00652	c7 00 01 00 00
	00		 mov	 DWORD PTR [eax], 1

; 372  : 
; 373  : 	hardpoint_data->fixed = FALSE;

  00658	8b 45 f8	 mov	 eax, DWORD PTR _hardpoint_data$[ebp]
  0065b	c7 40 04 00 00
	00 00		 mov	 DWORD PTR [eax+4], 0

; 374  : 
; 375  : 	hardpoint_data->current_weapon_index = 0;

  00662	8b 45 f8	 mov	 eax, DWORD PTR _hardpoint_data$[ebp]
  00665	c7 40 08 00 00
	00 00		 mov	 DWORD PTR [eax+8], 0

; 376  : 
; 377  : 	hardpoint_data->sub_object_depth1 = COMANCHE_LHS_BAY_DOOR_INNER;

  0066c	8b 45 f8	 mov	 eax, DWORD PTR _hardpoint_data$[ebp]
  0066f	c7 40 10 05 00
	00 00		 mov	 DWORD PTR [eax+16], 5

; 378  : 	hardpoint_data->sub_object_depth2 = COMANCHE_RHS_BAY_DOOR_INNER;

  00676	8b 45 f8	 mov	 eax, DWORD PTR _hardpoint_data$[ebp]
  00679	c7 40 14 08 00
	00 00		 mov	 DWORD PTR [eax+20], 8

; 379  : 
; 380  : 	hardpoint_data->number_of_valid_weapon_types = 4;

  00680	8b 45 f8	 mov	 eax, DWORD PTR _hardpoint_data$[ebp]
  00683	c7 40 0c 04 00
	00 00		 mov	 DWORD PTR [eax+12], 4

; 381  : 
; 382  : 	hardpoint_data->valid_weapon_types =(entity_sub_types *) safe_malloc (sizeof (entity_sub_types) * hardpoint_data->number_of_valid_weapon_types);

  0068a	8b 45 f8	 mov	 eax, DWORD PTR _hardpoint_data$[ebp]
  0068d	8b 48 0c	 mov	 ecx, DWORD PTR [eax+12]
  00690	c1 e1 02	 shl	 ecx, 2
  00693	51		 push	 ecx
  00694	e8 00 00 00 00	 call	 ?safe_malloc_memory@@YGPAXI@Z ; safe_malloc_memory
  00699	8b 55 f8	 mov	 edx, DWORD PTR _hardpoint_data$[ebp]
  0069c	89 42 18	 mov	 DWORD PTR [edx+24], eax

; 383  : 
; 384  : 	hardpoint_data->valid_weapon_types [0] = ENTITY_SUB_TYPE_WEAPON_AGM114L_LONGBOW_HELLFIRE;

  0069f	b8 04 00 00 00	 mov	 eax, 4
  006a4	6b c8 00	 imul	 ecx, eax, 0
  006a7	8b 55 f8	 mov	 edx, DWORD PTR _hardpoint_data$[ebp]
  006aa	8b 42 18	 mov	 eax, DWORD PTR [edx+24]
  006ad	c7 04 01 2d 00
	00 00		 mov	 DWORD PTR [ecx+eax], 45	; 0000002dH

; 385  : 	hardpoint_data->valid_weapon_types [1] = ENTITY_SUB_TYPE_WEAPON_AGM114K_HELLFIRE_II;

  006b4	b8 04 00 00 00	 mov	 eax, 4
  006b9	c1 e0 00	 shl	 eax, 0
  006bc	8b 4d f8	 mov	 ecx, DWORD PTR _hardpoint_data$[ebp]
  006bf	8b 51 18	 mov	 edx, DWORD PTR [ecx+24]
  006c2	c7 04 10 2e 00
	00 00		 mov	 DWORD PTR [eax+edx], 46	; 0000002eH

; 386  : 	hardpoint_data->valid_weapon_types [2] = ENTITY_SUB_TYPE_WEAPON_AIM92_STINGER;

  006c9	b8 04 00 00 00	 mov	 eax, 4
  006ce	d1 e0		 shl	 eax, 1
  006d0	8b 4d f8	 mov	 ecx, DWORD PTR _hardpoint_data$[ebp]
  006d3	8b 51 18	 mov	 edx, DWORD PTR [ecx+24]
  006d6	c7 04 10 24 00
	00 00		 mov	 DWORD PTR [eax+edx], 36	; 00000024H

; 387  : 	hardpoint_data->valid_weapon_types [3] = ENTITY_SUB_TYPE_WEAPON_NO_WEAPON;

  006dd	b8 04 00 00 00	 mov	 eax, 4
  006e2	6b c8 03	 imul	 ecx, eax, 3
  006e5	8b 55 f8	 mov	 edx, DWORD PTR _hardpoint_data$[ebp]
  006e8	8b 42 18	 mov	 eax, DWORD PTR [edx+24]
  006eb	c7 04 01 00 00
	00 00		 mov	 DWORD PTR [ecx+eax], 0

; 388  : 
; 389  : 	// MID HARDPOINT
; 390  : 
; 391  : 	hardpoint_data = &(gunship_data->hardpoint_list [WEAPON_LOADING_HARDPOINT_MID]);

  006f2	b8 1c 00 00 00	 mov	 eax, 28			; 0000001cH
  006f7	6b c8 03	 imul	 ecx, eax, 3
  006fa	03 4d fc	 add	 ecx, DWORD PTR _gunship_data$[ebp]
  006fd	89 4d f8	 mov	 DWORD PTR _hardpoint_data$[ebp], ecx

; 392  : 
; 393  : 	hardpoint_data->valid = TRUE;

  00700	8b 45 f8	 mov	 eax, DWORD PTR _hardpoint_data$[ebp]
  00703	c7 00 01 00 00
	00		 mov	 DWORD PTR [eax], 1

; 394  : 
; 395  : 	hardpoint_data->fixed = FALSE;

  00709	8b 45 f8	 mov	 eax, DWORD PTR _hardpoint_data$[ebp]
  0070c	c7 40 04 00 00
	00 00		 mov	 DWORD PTR [eax+4], 0

; 396  : 
; 397  : 	hardpoint_data->current_weapon_index = 0;

  00713	8b 45 f8	 mov	 eax, DWORD PTR _hardpoint_data$[ebp]
  00716	c7 40 08 00 00
	00 00		 mov	 DWORD PTR [eax+8], 0

; 398  : 
; 399  : 	hardpoint_data->sub_object_depth1 = COMANCHE_LHS_BAY_DOOR_MIDDLE;

  0071d	8b 45 f8	 mov	 eax, DWORD PTR _hardpoint_data$[ebp]
  00720	c7 40 10 06 00
	00 00		 mov	 DWORD PTR [eax+16], 6

; 400  : 	hardpoint_data->sub_object_depth2 = COMANCHE_RHS_BAY_DOOR_MIDDLE;

  00727	8b 45 f8	 mov	 eax, DWORD PTR _hardpoint_data$[ebp]
  0072a	c7 40 14 09 00
	00 00		 mov	 DWORD PTR [eax+20], 9

; 401  : 
; 402  : 	hardpoint_data->number_of_valid_weapon_types = 4;

  00731	8b 45 f8	 mov	 eax, DWORD PTR _hardpoint_data$[ebp]
  00734	c7 40 0c 04 00
	00 00		 mov	 DWORD PTR [eax+12], 4

; 403  : 
; 404  : 	hardpoint_data->valid_weapon_types =(entity_sub_types *) safe_malloc (sizeof (entity_sub_types) * hardpoint_data->number_of_valid_weapon_types);

  0073b	8b 45 f8	 mov	 eax, DWORD PTR _hardpoint_data$[ebp]
  0073e	8b 48 0c	 mov	 ecx, DWORD PTR [eax+12]
  00741	c1 e1 02	 shl	 ecx, 2
  00744	51		 push	 ecx
  00745	e8 00 00 00 00	 call	 ?safe_malloc_memory@@YGPAXI@Z ; safe_malloc_memory
  0074a	8b 55 f8	 mov	 edx, DWORD PTR _hardpoint_data$[ebp]
  0074d	89 42 18	 mov	 DWORD PTR [edx+24], eax

; 405  : 
; 406  : 	hardpoint_data->valid_weapon_types [0] = ENTITY_SUB_TYPE_WEAPON_AGM114L_LONGBOW_HELLFIRE;

  00750	b8 04 00 00 00	 mov	 eax, 4
  00755	6b c8 00	 imul	 ecx, eax, 0
  00758	8b 55 f8	 mov	 edx, DWORD PTR _hardpoint_data$[ebp]
  0075b	8b 42 18	 mov	 eax, DWORD PTR [edx+24]
  0075e	c7 04 01 2d 00
	00 00		 mov	 DWORD PTR [ecx+eax], 45	; 0000002dH

; 407  : 	hardpoint_data->valid_weapon_types [1] = ENTITY_SUB_TYPE_WEAPON_AGM114K_HELLFIRE_II;

  00765	b8 04 00 00 00	 mov	 eax, 4
  0076a	c1 e0 00	 shl	 eax, 0
  0076d	8b 4d f8	 mov	 ecx, DWORD PTR _hardpoint_data$[ebp]
  00770	8b 51 18	 mov	 edx, DWORD PTR [ecx+24]
  00773	c7 04 10 2e 00
	00 00		 mov	 DWORD PTR [eax+edx], 46	; 0000002eH

; 408  : 	hardpoint_data->valid_weapon_types [2] = ENTITY_SUB_TYPE_WEAPON_AIM92_STINGER;

  0077a	b8 04 00 00 00	 mov	 eax, 4
  0077f	d1 e0		 shl	 eax, 1
  00781	8b 4d f8	 mov	 ecx, DWORD PTR _hardpoint_data$[ebp]
  00784	8b 51 18	 mov	 edx, DWORD PTR [ecx+24]
  00787	c7 04 10 24 00
	00 00		 mov	 DWORD PTR [eax+edx], 36	; 00000024H

; 409  : 	hardpoint_data->valid_weapon_types [3] = ENTITY_SUB_TYPE_WEAPON_NO_WEAPON;

  0078e	b8 04 00 00 00	 mov	 eax, 4
  00793	6b c8 03	 imul	 ecx, eax, 3
  00796	8b 55 f8	 mov	 edx, DWORD PTR _hardpoint_data$[ebp]
  00799	8b 42 18	 mov	 eax, DWORD PTR [edx+24]
  0079c	c7 04 01 00 00
	00 00		 mov	 DWORD PTR [ecx+eax], 0

; 410  : 
; 411  : 	// OUTER HARDPOINT
; 412  : 
; 413  : 	hardpoint_data = &(gunship_data->hardpoint_list [WEAPON_LOADING_HARDPOINT_OUTER]);

  007a3	b8 1c 00 00 00	 mov	 eax, 28			; 0000001cH
  007a8	c1 e0 02	 shl	 eax, 2
  007ab	03 45 fc	 add	 eax, DWORD PTR _gunship_data$[ebp]
  007ae	89 45 f8	 mov	 DWORD PTR _hardpoint_data$[ebp], eax

; 414  : 
; 415  : 	hardpoint_data->valid = TRUE;

  007b1	8b 45 f8	 mov	 eax, DWORD PTR _hardpoint_data$[ebp]
  007b4	c7 00 01 00 00
	00		 mov	 DWORD PTR [eax], 1

; 416  : 
; 417  : 	hardpoint_data->fixed = FALSE;

  007ba	8b 45 f8	 mov	 eax, DWORD PTR _hardpoint_data$[ebp]
  007bd	c7 40 04 00 00
	00 00		 mov	 DWORD PTR [eax+4], 0

; 418  : 
; 419  : 	hardpoint_data->current_weapon_index = 0;

  007c4	8b 45 f8	 mov	 eax, DWORD PTR _hardpoint_data$[ebp]
  007c7	c7 40 08 00 00
	00 00		 mov	 DWORD PTR [eax+8], 0

; 420  : 
; 421  : 	hardpoint_data->sub_object_depth1 = COMANCHE_LHS_BAY_DOOR_OUTER;

  007ce	8b 45 f8	 mov	 eax, DWORD PTR _hardpoint_data$[ebp]
  007d1	c7 40 10 07 00
	00 00		 mov	 DWORD PTR [eax+16], 7

; 422  : 	hardpoint_data->sub_object_depth2 = COMANCHE_RHS_BAY_DOOR_OUTER;

  007d8	8b 45 f8	 mov	 eax, DWORD PTR _hardpoint_data$[ebp]
  007db	c7 40 14 0a 00
	00 00		 mov	 DWORD PTR [eax+20], 10	; 0000000aH

; 423  : 
; 424  : 	hardpoint_data->number_of_valid_weapon_types = 4;

  007e2	8b 45 f8	 mov	 eax, DWORD PTR _hardpoint_data$[ebp]
  007e5	c7 40 0c 04 00
	00 00		 mov	 DWORD PTR [eax+12], 4

; 425  : 
; 426  : 	hardpoint_data->valid_weapon_types =(entity_sub_types *) safe_malloc (sizeof (entity_sub_types) * hardpoint_data->number_of_valid_weapon_types);

  007ec	8b 45 f8	 mov	 eax, DWORD PTR _hardpoint_data$[ebp]
  007ef	8b 48 0c	 mov	 ecx, DWORD PTR [eax+12]
  007f2	c1 e1 02	 shl	 ecx, 2
  007f5	51		 push	 ecx
  007f6	e8 00 00 00 00	 call	 ?safe_malloc_memory@@YGPAXI@Z ; safe_malloc_memory
  007fb	8b 55 f8	 mov	 edx, DWORD PTR _hardpoint_data$[ebp]
  007fe	89 42 18	 mov	 DWORD PTR [edx+24], eax

; 427  : 
; 428  : 	hardpoint_data->valid_weapon_types [0] = ENTITY_SUB_TYPE_WEAPON_AGM114L_LONGBOW_HELLFIRE;

  00801	b8 04 00 00 00	 mov	 eax, 4
  00806	6b c8 00	 imul	 ecx, eax, 0
  00809	8b 55 f8	 mov	 edx, DWORD PTR _hardpoint_data$[ebp]
  0080c	8b 42 18	 mov	 eax, DWORD PTR [edx+24]
  0080f	c7 04 01 2d 00
	00 00		 mov	 DWORD PTR [ecx+eax], 45	; 0000002dH

; 429  : 	hardpoint_data->valid_weapon_types [1] = ENTITY_SUB_TYPE_WEAPON_AGM114K_HELLFIRE_II;

  00816	b8 04 00 00 00	 mov	 eax, 4
  0081b	c1 e0 00	 shl	 eax, 0
  0081e	8b 4d f8	 mov	 ecx, DWORD PTR _hardpoint_data$[ebp]
  00821	8b 51 18	 mov	 edx, DWORD PTR [ecx+24]
  00824	c7 04 10 2e 00
	00 00		 mov	 DWORD PTR [eax+edx], 46	; 0000002eH

; 430  : 	hardpoint_data->valid_weapon_types [2] = ENTITY_SUB_TYPE_WEAPON_AIM92_STINGER;

  0082b	b8 04 00 00 00	 mov	 eax, 4
  00830	d1 e0		 shl	 eax, 1
  00832	8b 4d f8	 mov	 ecx, DWORD PTR _hardpoint_data$[ebp]
  00835	8b 51 18	 mov	 edx, DWORD PTR [ecx+24]
  00838	c7 04 10 24 00
	00 00		 mov	 DWORD PTR [eax+edx], 36	; 00000024H

; 431  : 	hardpoint_data->valid_weapon_types [3] = ENTITY_SUB_TYPE_WEAPON_NO_WEAPON;

  0083f	b8 04 00 00 00	 mov	 eax, 4
  00844	6b c8 03	 imul	 ecx, eax, 3
  00847	8b 55 f8	 mov	 edx, DWORD PTR _hardpoint_data$[ebp]
  0084a	8b 42 18	 mov	 eax, DWORD PTR [edx+24]
  0084d	c7 04 01 00 00
	00 00		 mov	 DWORD PTR [ecx+eax], 0

; 432  : 
; 433  : 	// WINGTIP HARDPOINT
; 434  : 
; 435  : 	hardpoint_data = &(gunship_data->hardpoint_list [WEAPON_LOADING_HARDPOINT_WINGTIP]);

  00854	b8 1c 00 00 00	 mov	 eax, 28			; 0000001cH
  00859	6b c8 05	 imul	 ecx, eax, 5
  0085c	03 4d fc	 add	 ecx, DWORD PTR _gunship_data$[ebp]
  0085f	89 4d f8	 mov	 DWORD PTR _hardpoint_data$[ebp], ecx

; 436  : 
; 437  : 	hardpoint_data->valid = TRUE;

  00862	8b 45 f8	 mov	 eax, DWORD PTR _hardpoint_data$[ebp]
  00865	c7 00 01 00 00
	00		 mov	 DWORD PTR [eax], 1

; 438  : 
; 439  : 	hardpoint_data->fixed = FALSE;

  0086b	8b 45 f8	 mov	 eax, DWORD PTR _hardpoint_data$[ebp]
  0086e	c7 40 04 00 00
	00 00		 mov	 DWORD PTR [eax+4], 0

; 440  : 
; 441  : 	hardpoint_data->current_weapon_index = 0;

  00875	8b 45 f8	 mov	 eax, DWORD PTR _hardpoint_data$[ebp]
  00878	c7 40 08 00 00
	00 00		 mov	 DWORD PTR [eax+8], 0

; 442  : 
; 443  : 	hardpoint_data->sub_object_depth1 = COMANCHE_LHS_STUB_WING;

  0087f	8b 45 f8	 mov	 eax, DWORD PTR _hardpoint_data$[ebp]
  00882	c7 40 10 00 00
	00 00		 mov	 DWORD PTR [eax+16], 0

; 444  : 	hardpoint_data->sub_object_depth2 = COMANCHE_RHS_STUB_WING;

  00889	8b 45 f8	 mov	 eax, DWORD PTR _hardpoint_data$[ebp]
  0088c	c7 40 14 01 00
	00 00		 mov	 DWORD PTR [eax+20], 1

; 445  : 
; 446  : 	hardpoint_data->number_of_valid_weapon_types = 6;

  00893	8b 45 f8	 mov	 eax, DWORD PTR _hardpoint_data$[ebp]
  00896	c7 40 0c 06 00
	00 00		 mov	 DWORD PTR [eax+12], 6

; 447  : 
; 448  : 	hardpoint_data->valid_weapon_types =(entity_sub_types *) safe_malloc (sizeof (entity_sub_types) * hardpoint_data->number_of_valid_weapon_types);

  0089d	8b 45 f8	 mov	 eax, DWORD PTR _hardpoint_data$[ebp]
  008a0	8b 48 0c	 mov	 ecx, DWORD PTR [eax+12]
  008a3	c1 e1 02	 shl	 ecx, 2
  008a6	51		 push	 ecx
  008a7	e8 00 00 00 00	 call	 ?safe_malloc_memory@@YGPAXI@Z ; safe_malloc_memory
  008ac	8b 55 f8	 mov	 edx, DWORD PTR _hardpoint_data$[ebp]
  008af	89 42 18	 mov	 DWORD PTR [edx+24], eax

; 449  : 
; 450  : 	hardpoint_data->valid_weapon_types [0] = ENTITY_SUB_TYPE_WEAPON_AGM114L_LONGBOW_HELLFIRE;

  008b2	b8 04 00 00 00	 mov	 eax, 4
  008b7	6b c8 00	 imul	 ecx, eax, 0
  008ba	8b 55 f8	 mov	 edx, DWORD PTR _hardpoint_data$[ebp]
  008bd	8b 42 18	 mov	 eax, DWORD PTR [edx+24]
  008c0	c7 04 01 2d 00
	00 00		 mov	 DWORD PTR [ecx+eax], 45	; 0000002dH

; 451  : 	hardpoint_data->valid_weapon_types [1] = ENTITY_SUB_TYPE_WEAPON_AGM114K_HELLFIRE_II;

  008c7	b8 04 00 00 00	 mov	 eax, 4
  008cc	c1 e0 00	 shl	 eax, 0
  008cf	8b 4d f8	 mov	 ecx, DWORD PTR _hardpoint_data$[ebp]
  008d2	8b 51 18	 mov	 edx, DWORD PTR [ecx+24]
  008d5	c7 04 10 2e 00
	00 00		 mov	 DWORD PTR [eax+edx], 46	; 0000002eH

; 452  : 	hardpoint_data->valid_weapon_types [2] = ENTITY_SUB_TYPE_WEAPON_HYDRA70_M255;

  008dc	b8 04 00 00 00	 mov	 eax, 4
  008e1	d1 e0		 shl	 eax, 1
  008e3	8b 4d f8	 mov	 ecx, DWORD PTR _hardpoint_data$[ebp]
  008e6	8b 51 18	 mov	 edx, DWORD PTR [ecx+24]
  008e9	c7 04 10 1e 00
	00 00		 mov	 DWORD PTR [eax+edx], 30	; 0000001eH

; 453  : 	hardpoint_data->valid_weapon_types [3] = ENTITY_SUB_TYPE_WEAPON_HYDRA70_M261;

  008f0	b8 04 00 00 00	 mov	 eax, 4
  008f5	6b c8 03	 imul	 ecx, eax, 3
  008f8	8b 55 f8	 mov	 edx, DWORD PTR _hardpoint_data$[ebp]
  008fb	8b 42 18	 mov	 eax, DWORD PTR [edx+24]
  008fe	c7 04 01 1f 00
	00 00		 mov	 DWORD PTR [ecx+eax], 31	; 0000001fH

; 454  : 	hardpoint_data->valid_weapon_types [4] = ENTITY_SUB_TYPE_WEAPON_AIM92_STINGER;

  00905	b8 04 00 00 00	 mov	 eax, 4
  0090a	c1 e0 02	 shl	 eax, 2
  0090d	8b 4d f8	 mov	 ecx, DWORD PTR _hardpoint_data$[ebp]
  00910	8b 51 18	 mov	 edx, DWORD PTR [ecx+24]
  00913	c7 04 10 24 00
	00 00		 mov	 DWORD PTR [eax+edx], 36	; 00000024H

; 455  : 	hardpoint_data->valid_weapon_types [5] = ENTITY_SUB_TYPE_WEAPON_NO_WEAPON;

  0091a	b8 04 00 00 00	 mov	 eax, 4
  0091f	6b c8 05	 imul	 ecx, eax, 5
  00922	8b 55 f8	 mov	 edx, DWORD PTR _hardpoint_data$[ebp]
  00925	8b 42 18	 mov	 eax, DWORD PTR [edx+24]
  00928	c7 04 01 00 00
	00 00		 mov	 DWORD PTR [ecx+eax], 0

; 456  : 
; 457  : 	//////////////////////////
; 458  : 	//
; 459  : 	// HOKUM
; 460  : 	//
; 461  : 	//////////////////////////
; 462  : 
; 463  : 	gunship_data = &weapon_loading_gunship_database [GUNSHIP_TYPE_HOKUM];

  0092f	b8 a8 00 00 00	 mov	 eax, 168		; 000000a8H
  00934	6b c8 03	 imul	 ecx, eax, 3
  00937	81 c1 00 00 00
	00		 add	 ecx, OFFSET ?weapon_loading_gunship_database@@3PAUWEAPON_LOADING_GUNSHIP_TYPE@@A
  0093d	89 4d fc	 mov	 DWORD PTR _gunship_data$[ebp], ecx

; 464  : 
; 465  : 	for (loop = 0; loop < NUM_WEAPON_LOADING_HARDPOINT_TYPES; loop ++)

  00940	c7 45 f4 00 00
	00 00		 mov	 DWORD PTR _loop$[ebp], 0
  00947	eb 09		 jmp	 SHORT $LN13@initialise
$LN11@initialise:
  00949	8b 45 f4	 mov	 eax, DWORD PTR _loop$[ebp]
  0094c	83 c0 01	 add	 eax, 1
  0094f	89 45 f4	 mov	 DWORD PTR _loop$[ebp], eax
$LN13@initialise:
  00952	83 7d f4 06	 cmp	 DWORD PTR _loop$[ebp], 6
  00956	7d 16		 jge	 SHORT $LN12@initialise

; 466  : 	{
; 467  : 		memset (&(gunship_data->hardpoint_list [loop]), 0, sizeof (weapon_loading_hardpoint_type));

  00958	6a 1c		 push	 28			; 0000001cH
  0095a	6a 00		 push	 0
  0095c	6b 45 f4 1c	 imul	 eax, DWORD PTR _loop$[ebp], 28
  00960	03 45 fc	 add	 eax, DWORD PTR _gunship_data$[ebp]
  00963	50		 push	 eax
  00964	e8 00 00 00 00	 call	 _memset
  00969	83 c4 0c	 add	 esp, 12			; 0000000cH

; 468  : 	}

  0096c	eb db		 jmp	 SHORT $LN11@initialise
$LN12@initialise:

; 469  : 
; 470  : 	// GUN 1
; 471  : 
; 472  : 	hardpoint_data = &(gunship_data->hardpoint_list [WEAPON_LOADING_HARDPOINT_GUN1]);

  0096e	b8 1c 00 00 00	 mov	 eax, 28			; 0000001cH
  00973	6b c8 00	 imul	 ecx, eax, 0
  00976	03 4d fc	 add	 ecx, DWORD PTR _gunship_data$[ebp]
  00979	89 4d f8	 mov	 DWORD PTR _hardpoint_data$[ebp], ecx

; 473  : 
; 474  : 	hardpoint_data->valid = TRUE;

  0097c	8b 45 f8	 mov	 eax, DWORD PTR _hardpoint_data$[ebp]
  0097f	c7 00 01 00 00
	00		 mov	 DWORD PTR [eax], 1

; 475  : 
; 476  : 	hardpoint_data->fixed = TRUE;

  00985	8b 45 f8	 mov	 eax, DWORD PTR _hardpoint_data$[ebp]
  00988	c7 40 04 01 00
	00 00		 mov	 DWORD PTR [eax+4], 1

; 477  : 
; 478  : 	hardpoint_data->current_weapon_index = 0;

  0098f	8b 45 f8	 mov	 eax, DWORD PTR _hardpoint_data$[ebp]
  00992	c7 40 08 00 00
	00 00		 mov	 DWORD PTR [eax+8], 0

; 479  : 
; 480  : 	hardpoint_data->sub_object_depth1 = HOKUM_CANNON_TURRET;

  00999	8b 45 f8	 mov	 eax, DWORD PTR _hardpoint_data$[ebp]
  0099c	c7 40 10 00 00
	00 00		 mov	 DWORD PTR [eax+16], 0

; 481  : 	hardpoint_data->sub_object_depth2 = -1;

  009a3	8b 45 f8	 mov	 eax, DWORD PTR _hardpoint_data$[ebp]
  009a6	c7 40 14 ff ff
	ff ff		 mov	 DWORD PTR [eax+20], -1

; 482  : 
; 483  : 	hardpoint_data->number_of_valid_weapon_types = 1;

  009ad	8b 45 f8	 mov	 eax, DWORD PTR _hardpoint_data$[ebp]
  009b0	c7 40 0c 01 00
	00 00		 mov	 DWORD PTR [eax+12], 1

; 484  : 
; 485  : 	hardpoint_data->valid_weapon_types =(entity_sub_types *) safe_malloc (sizeof (entity_sub_types) * hardpoint_data->number_of_valid_weapon_types);

  009b7	8b 45 f8	 mov	 eax, DWORD PTR _hardpoint_data$[ebp]
  009ba	8b 48 0c	 mov	 ecx, DWORD PTR [eax+12]
  009bd	c1 e1 02	 shl	 ecx, 2
  009c0	51		 push	 ecx
  009c1	e8 00 00 00 00	 call	 ?safe_malloc_memory@@YGPAXI@Z ; safe_malloc_memory
  009c6	8b 55 f8	 mov	 edx, DWORD PTR _hardpoint_data$[ebp]
  009c9	89 42 18	 mov	 DWORD PTR [edx+24], eax

; 486  : 
; 487  : 	hardpoint_data->valid_weapon_types [0] = ENTITY_SUB_TYPE_WEAPON_2A42_30MM_HE_ROUND;

  009cc	b8 04 00 00 00	 mov	 eax, 4
  009d1	6b c8 00	 imul	 ecx, eax, 0
  009d4	8b 55 f8	 mov	 edx, DWORD PTR _hardpoint_data$[ebp]
  009d7	8b 42 18	 mov	 eax, DWORD PTR [edx+24]
  009da	c7 04 01 13 00
	00 00		 mov	 DWORD PTR [ecx+eax], 19	; 00000013H

; 488  : 
; 489  : 	// GUN 2
; 490  : 
; 491  : 	hardpoint_data = &(gunship_data->hardpoint_list [WEAPON_LOADING_HARDPOINT_GUN2]);

  009e1	b8 1c 00 00 00	 mov	 eax, 28			; 0000001cH
  009e6	c1 e0 00	 shl	 eax, 0
  009e9	03 45 fc	 add	 eax, DWORD PTR _gunship_data$[ebp]
  009ec	89 45 f8	 mov	 DWORD PTR _hardpoint_data$[ebp], eax

; 492  : 
; 493  : 	hardpoint_data->valid = TRUE;

  009ef	8b 45 f8	 mov	 eax, DWORD PTR _hardpoint_data$[ebp]
  009f2	c7 00 01 00 00
	00		 mov	 DWORD PTR [eax], 1

; 494  : 
; 495  : 	hardpoint_data->fixed = TRUE;

  009f8	8b 45 f8	 mov	 eax, DWORD PTR _hardpoint_data$[ebp]
  009fb	c7 40 04 01 00
	00 00		 mov	 DWORD PTR [eax+4], 1

; 496  : 
; 497  : 	hardpoint_data->current_weapon_index = 0;

  00a02	8b 45 f8	 mov	 eax, DWORD PTR _hardpoint_data$[ebp]
  00a05	c7 40 08 00 00
	00 00		 mov	 DWORD PTR [eax+8], 0

; 498  : 
; 499  : 	hardpoint_data->sub_object_depth1 = HOKUM_CANNON_TURRET;

  00a0c	8b 45 f8	 mov	 eax, DWORD PTR _hardpoint_data$[ebp]
  00a0f	c7 40 10 00 00
	00 00		 mov	 DWORD PTR [eax+16], 0

; 500  : 	hardpoint_data->sub_object_depth2 = -1;

  00a16	8b 45 f8	 mov	 eax, DWORD PTR _hardpoint_data$[ebp]
  00a19	c7 40 14 ff ff
	ff ff		 mov	 DWORD PTR [eax+20], -1

; 501  : 
; 502  : 	hardpoint_data->number_of_valid_weapon_types = 1;

  00a20	8b 45 f8	 mov	 eax, DWORD PTR _hardpoint_data$[ebp]
  00a23	c7 40 0c 01 00
	00 00		 mov	 DWORD PTR [eax+12], 1

; 503  : 
; 504  : 	hardpoint_data->valid_weapon_types =(entity_sub_types *) safe_malloc (sizeof (entity_sub_types) * hardpoint_data->number_of_valid_weapon_types);

  00a2a	8b 45 f8	 mov	 eax, DWORD PTR _hardpoint_data$[ebp]
  00a2d	8b 48 0c	 mov	 ecx, DWORD PTR [eax+12]
  00a30	c1 e1 02	 shl	 ecx, 2
  00a33	51		 push	 ecx
  00a34	e8 00 00 00 00	 call	 ?safe_malloc_memory@@YGPAXI@Z ; safe_malloc_memory
  00a39	8b 55 f8	 mov	 edx, DWORD PTR _hardpoint_data$[ebp]
  00a3c	89 42 18	 mov	 DWORD PTR [edx+24], eax

; 505  : 
; 506  : 	hardpoint_data->valid_weapon_types [0] = ENTITY_SUB_TYPE_WEAPON_2A42_30MM_AP_ROUND;

  00a3f	b8 04 00 00 00	 mov	 eax, 4
  00a44	6b c8 00	 imul	 ecx, eax, 0
  00a47	8b 55 f8	 mov	 edx, DWORD PTR _hardpoint_data$[ebp]
  00a4a	8b 42 18	 mov	 eax, DWORD PTR [edx+24]
  00a4d	c7 04 01 14 00
	00 00		 mov	 DWORD PTR [ecx+eax], 20	; 00000014H

; 507  : 
; 508  : 	// INNER HARDPOINT
; 509  : 
; 510  : 	hardpoint_data = &(gunship_data->hardpoint_list [WEAPON_LOADING_HARDPOINT_INNER]);

  00a54	b8 1c 00 00 00	 mov	 eax, 28			; 0000001cH
  00a59	d1 e0		 shl	 eax, 1
  00a5b	03 45 fc	 add	 eax, DWORD PTR _gunship_data$[ebp]
  00a5e	89 45 f8	 mov	 DWORD PTR _hardpoint_data$[ebp], eax

; 511  : 
; 512  : 	hardpoint_data->valid = TRUE;

  00a61	8b 45 f8	 mov	 eax, DWORD PTR _hardpoint_data$[ebp]
  00a64	c7 00 01 00 00
	00		 mov	 DWORD PTR [eax], 1

; 513  : 
; 514  : 	hardpoint_data->fixed = FALSE;

  00a6a	8b 45 f8	 mov	 eax, DWORD PTR _hardpoint_data$[ebp]
  00a6d	c7 40 04 00 00
	00 00		 mov	 DWORD PTR [eax+4], 0

; 515  : 
; 516  : 	hardpoint_data->current_weapon_index = 0;

  00a74	8b 45 f8	 mov	 eax, DWORD PTR _hardpoint_data$[ebp]
  00a77	c7 40 08 00 00
	00 00		 mov	 DWORD PTR [eax+8], 0

; 517  : 
; 518  : 	hardpoint_data->sub_object_depth1 = HOKUM_LHS_INNER_PYLON;

  00a7e	8b 45 f8	 mov	 eax, DWORD PTR _hardpoint_data$[ebp]
  00a81	c7 40 10 01 00
	00 00		 mov	 DWORD PTR [eax+16], 1

; 519  : 	hardpoint_data->sub_object_depth2 = HOKUM_RHS_INNER_PYLON;

  00a88	8b 45 f8	 mov	 eax, DWORD PTR _hardpoint_data$[ebp]
  00a8b	c7 40 14 02 00
	00 00		 mov	 DWORD PTR [eax+20], 2

; 520  : 
; 521  : 	hardpoint_data->number_of_valid_weapon_types = 5;

  00a92	8b 45 f8	 mov	 eax, DWORD PTR _hardpoint_data$[ebp]
  00a95	c7 40 0c 05 00
	00 00		 mov	 DWORD PTR [eax+12], 5

; 522  : 
; 523  : 	hardpoint_data->valid_weapon_types =(entity_sub_types *) safe_malloc (sizeof (entity_sub_types) * hardpoint_data->number_of_valid_weapon_types);

  00a9c	8b 45 f8	 mov	 eax, DWORD PTR _hardpoint_data$[ebp]
  00a9f	8b 48 0c	 mov	 ecx, DWORD PTR [eax+12]
  00aa2	c1 e1 02	 shl	 ecx, 2
  00aa5	51		 push	 ecx
  00aa6	e8 00 00 00 00	 call	 ?safe_malloc_memory@@YGPAXI@Z ; safe_malloc_memory
  00aab	8b 55 f8	 mov	 edx, DWORD PTR _hardpoint_data$[ebp]
  00aae	89 42 18	 mov	 DWORD PTR [edx+24], eax

; 524  : 
; 525  : 	hardpoint_data->valid_weapon_types [0] = ENTITY_SUB_TYPE_WEAPON_IGLA_V;

  00ab1	b8 04 00 00 00	 mov	 eax, 4
  00ab6	6b c8 00	 imul	 ecx, eax, 0
  00ab9	8b 55 f8	 mov	 edx, DWORD PTR _hardpoint_data$[ebp]
  00abc	8b 42 18	 mov	 eax, DWORD PTR [edx+24]
  00abf	c7 04 01 27 00
	00 00		 mov	 DWORD PTR [ecx+eax], 39	; 00000027H

; 526  : 	hardpoint_data->valid_weapon_types [1] = ENTITY_SUB_TYPE_WEAPON_S8;

  00ac6	b8 04 00 00 00	 mov	 eax, 4
  00acb	c1 e0 00	 shl	 eax, 0
  00ace	8b 4d f8	 mov	 ecx, DWORD PTR _hardpoint_data$[ebp]
  00ad1	8b 51 18	 mov	 edx, DWORD PTR [ecx+24]
  00ad4	c7 04 10 22 00
	00 00		 mov	 DWORD PTR [eax+edx], 34	; 00000022H

; 527  : 	hardpoint_data->valid_weapon_types [2] = ENTITY_SUB_TYPE_WEAPON_S13;

  00adb	b8 04 00 00 00	 mov	 eax, 4
  00ae0	d1 e0		 shl	 eax, 1
  00ae2	8b 4d f8	 mov	 ecx, DWORD PTR _hardpoint_data$[ebp]
  00ae5	8b 51 18	 mov	 edx, DWORD PTR [ecx+24]
  00ae8	c7 04 10 23 00
	00 00		 mov	 DWORD PTR [eax+edx], 35	; 00000023H

; 528  : 	hardpoint_data->valid_weapon_types [3] = ENTITY_SUB_TYPE_WEAPON_GSH23L_23MM_ROUND;

  00aef	b8 04 00 00 00	 mov	 eax, 4
  00af4	6b c8 03	 imul	 ecx, eax, 3
  00af7	8b 55 f8	 mov	 edx, DWORD PTR _hardpoint_data$[ebp]
  00afa	8b 42 18	 mov	 eax, DWORD PTR [edx+24]
  00afd	c7 04 01 0f 00
	00 00		 mov	 DWORD PTR [ecx+eax], 15	; 0000000fH

; 529  : 	hardpoint_data->valid_weapon_types [4] = ENTITY_SUB_TYPE_WEAPON_NO_WEAPON;

  00b04	b8 04 00 00 00	 mov	 eax, 4
  00b09	c1 e0 02	 shl	 eax, 2
  00b0c	8b 4d f8	 mov	 ecx, DWORD PTR _hardpoint_data$[ebp]
  00b0f	8b 51 18	 mov	 edx, DWORD PTR [ecx+24]
  00b12	c7 04 10 00 00
	00 00		 mov	 DWORD PTR [eax+edx], 0

; 530  : 
; 531  : 	// OUTER HARDPOINT
; 532  : 
; 533  : 	hardpoint_data = &(gunship_data->hardpoint_list [WEAPON_LOADING_HARDPOINT_OUTER]);

  00b19	b8 1c 00 00 00	 mov	 eax, 28			; 0000001cH
  00b1e	c1 e0 02	 shl	 eax, 2
  00b21	03 45 fc	 add	 eax, DWORD PTR _gunship_data$[ebp]
  00b24	89 45 f8	 mov	 DWORD PTR _hardpoint_data$[ebp], eax

; 534  : 
; 535  : 	hardpoint_data->valid = TRUE;

  00b27	8b 45 f8	 mov	 eax, DWORD PTR _hardpoint_data$[ebp]
  00b2a	c7 00 01 00 00
	00		 mov	 DWORD PTR [eax], 1

; 536  : 
; 537  : 	hardpoint_data->fixed = FALSE;

  00b30	8b 45 f8	 mov	 eax, DWORD PTR _hardpoint_data$[ebp]
  00b33	c7 40 04 00 00
	00 00		 mov	 DWORD PTR [eax+4], 0

; 538  : 
; 539  : 	hardpoint_data->current_weapon_index = 0;

  00b3a	8b 45 f8	 mov	 eax, DWORD PTR _hardpoint_data$[ebp]
  00b3d	c7 40 08 00 00
	00 00		 mov	 DWORD PTR [eax+8], 0

; 540  : 
; 541  : 	hardpoint_data->sub_object_depth1 = HOKUM_LHS_OUTER_PYLON;

  00b44	8b 45 f8	 mov	 eax, DWORD PTR _hardpoint_data$[ebp]
  00b47	c7 40 10 03 00
	00 00		 mov	 DWORD PTR [eax+16], 3

; 542  : 	hardpoint_data->sub_object_depth2 = HOKUM_RHS_OUTER_PYLON;

  00b4e	8b 45 f8	 mov	 eax, DWORD PTR _hardpoint_data$[ebp]
  00b51	c7 40 14 04 00
	00 00		 mov	 DWORD PTR [eax+20], 4

; 543  : 
; 544  : 	hardpoint_data->number_of_valid_weapon_types = 6;

  00b58	8b 45 f8	 mov	 eax, DWORD PTR _hardpoint_data$[ebp]
  00b5b	c7 40 0c 06 00
	00 00		 mov	 DWORD PTR [eax+12], 6

; 545  : 
; 546  : 	hardpoint_data->valid_weapon_types =(entity_sub_types *) safe_malloc (sizeof (entity_sub_types) * hardpoint_data->number_of_valid_weapon_types);

  00b62	8b 45 f8	 mov	 eax, DWORD PTR _hardpoint_data$[ebp]
  00b65	8b 48 0c	 mov	 ecx, DWORD PTR [eax+12]
  00b68	c1 e1 02	 shl	 ecx, 2
  00b6b	51		 push	 ecx
  00b6c	e8 00 00 00 00	 call	 ?safe_malloc_memory@@YGPAXI@Z ; safe_malloc_memory
  00b71	8b 55 f8	 mov	 edx, DWORD PTR _hardpoint_data$[ebp]
  00b74	89 42 18	 mov	 DWORD PTR [edx+24], eax

; 547  : 
; 548  : 	hardpoint_data->valid_weapon_types [0] = ENTITY_SUB_TYPE_WEAPON_VIKHR;

  00b77	b8 04 00 00 00	 mov	 eax, 4
  00b7c	6b c8 00	 imul	 ecx, eax, 0
  00b7f	8b 55 f8	 mov	 edx, DWORD PTR _hardpoint_data$[ebp]
  00b82	8b 42 18	 mov	 eax, DWORD PTR [edx+24]
  00b85	c7 04 01 32 00
	00 00		 mov	 DWORD PTR [ecx+eax], 50	; 00000032H

; 549  : 	hardpoint_data->valid_weapon_types [1] = ENTITY_SUB_TYPE_WEAPON_IGLA_V;

  00b8c	b8 04 00 00 00	 mov	 eax, 4
  00b91	c1 e0 00	 shl	 eax, 0
  00b94	8b 4d f8	 mov	 ecx, DWORD PTR _hardpoint_data$[ebp]
  00b97	8b 51 18	 mov	 edx, DWORD PTR [ecx+24]
  00b9a	c7 04 10 27 00
	00 00		 mov	 DWORD PTR [eax+edx], 39	; 00000027H

; 550  : 	hardpoint_data->valid_weapon_types [2] = ENTITY_SUB_TYPE_WEAPON_S8;

  00ba1	b8 04 00 00 00	 mov	 eax, 4
  00ba6	d1 e0		 shl	 eax, 1
  00ba8	8b 4d f8	 mov	 ecx, DWORD PTR _hardpoint_data$[ebp]
  00bab	8b 51 18	 mov	 edx, DWORD PTR [ecx+24]
  00bae	c7 04 10 22 00
	00 00		 mov	 DWORD PTR [eax+edx], 34	; 00000022H

; 551  : 	hardpoint_data->valid_weapon_types [3] = ENTITY_SUB_TYPE_WEAPON_S13;

  00bb5	b8 04 00 00 00	 mov	 eax, 4
  00bba	6b c8 03	 imul	 ecx, eax, 3
  00bbd	8b 55 f8	 mov	 edx, DWORD PTR _hardpoint_data$[ebp]
  00bc0	8b 42 18	 mov	 eax, DWORD PTR [edx+24]
  00bc3	c7 04 01 23 00
	00 00		 mov	 DWORD PTR [ecx+eax], 35	; 00000023H

; 552  : 	hardpoint_data->valid_weapon_types [4] = ENTITY_SUB_TYPE_WEAPON_GSH23L_23MM_ROUND;

  00bca	b8 04 00 00 00	 mov	 eax, 4
  00bcf	c1 e0 02	 shl	 eax, 2
  00bd2	8b 4d f8	 mov	 ecx, DWORD PTR _hardpoint_data$[ebp]
  00bd5	8b 51 18	 mov	 edx, DWORD PTR [ecx+24]
  00bd8	c7 04 10 0f 00
	00 00		 mov	 DWORD PTR [eax+edx], 15	; 0000000fH

; 553  : 	hardpoint_data->valid_weapon_types [5] = ENTITY_SUB_TYPE_WEAPON_NO_WEAPON;

  00bdf	b8 04 00 00 00	 mov	 eax, 4
  00be4	6b c8 05	 imul	 ecx, eax, 5
  00be7	8b 55 f8	 mov	 edx, DWORD PTR _hardpoint_data$[ebp]
  00bea	8b 42 18	 mov	 eax, DWORD PTR [edx+24]
  00bed	c7 04 01 00 00
	00 00		 mov	 DWORD PTR [ecx+eax], 0

; 554  : 
; 555  : ////Moje 030519 Start
; 556  : 	//////////////////////////
; 557  : 	//
; 558  : 	// BLACK-HAWK
; 559  : 	//
; 560  : 	//////////////////////////
; 561  : 
; 562  : 	gunship_data = &weapon_loading_gunship_database [GUNSHIP_TYPE_BLACKHAWK];

  00bf4	b8 a8 00 00 00	 mov	 eax, 168		; 000000a8H
  00bf9	c1 e0 02	 shl	 eax, 2
  00bfc	05 00 00 00 00	 add	 eax, OFFSET ?weapon_loading_gunship_database@@3PAUWEAPON_LOADING_GUNSHIP_TYPE@@A
  00c01	89 45 fc	 mov	 DWORD PTR _gunship_data$[ebp], eax

; 563  : 
; 564  : 	for (loop = 0; loop < NUM_WEAPON_LOADING_HARDPOINT_TYPES; loop ++)

  00c04	c7 45 f4 00 00
	00 00		 mov	 DWORD PTR _loop$[ebp], 0
  00c0b	eb 09		 jmp	 SHORT $LN16@initialise
$LN14@initialise:
  00c0d	8b 45 f4	 mov	 eax, DWORD PTR _loop$[ebp]
  00c10	83 c0 01	 add	 eax, 1
  00c13	89 45 f4	 mov	 DWORD PTR _loop$[ebp], eax
$LN16@initialise:
  00c16	83 7d f4 06	 cmp	 DWORD PTR _loop$[ebp], 6
  00c1a	7d 16		 jge	 SHORT $LN15@initialise

; 565  : 	{
; 566  : 		memset (&(gunship_data->hardpoint_list [loop]), 0, sizeof (weapon_loading_hardpoint_type));

  00c1c	6a 1c		 push	 28			; 0000001cH
  00c1e	6a 00		 push	 0
  00c20	6b 45 f4 1c	 imul	 eax, DWORD PTR _loop$[ebp], 28
  00c24	03 45 fc	 add	 eax, DWORD PTR _gunship_data$[ebp]
  00c27	50		 push	 eax
  00c28	e8 00 00 00 00	 call	 _memset
  00c2d	83 c4 0c	 add	 esp, 12			; 0000000cH

; 567  : 	}

  00c30	eb db		 jmp	 SHORT $LN14@initialise
$LN15@initialise:

; 568  : 
; 569  : 	// INNER HARDPOINT
; 570  : 
; 571  : 	hardpoint_data = &(gunship_data->hardpoint_list [WEAPON_LOADING_HARDPOINT_INNER]);

  00c32	b8 1c 00 00 00	 mov	 eax, 28			; 0000001cH
  00c37	d1 e0		 shl	 eax, 1
  00c39	03 45 fc	 add	 eax, DWORD PTR _gunship_data$[ebp]
  00c3c	89 45 f8	 mov	 DWORD PTR _hardpoint_data$[ebp], eax

; 572  : 
; 573  : 	hardpoint_data->valid = TRUE;

  00c3f	8b 45 f8	 mov	 eax, DWORD PTR _hardpoint_data$[ebp]
  00c42	c7 00 01 00 00
	00		 mov	 DWORD PTR [eax], 1

; 574  : 
; 575  : 	hardpoint_data->fixed = FALSE;

  00c48	8b 45 f8	 mov	 eax, DWORD PTR _hardpoint_data$[ebp]
  00c4b	c7 40 04 00 00
	00 00		 mov	 DWORD PTR [eax+4], 0

; 576  : 
; 577  : 	hardpoint_data->current_weapon_index = 0;

  00c52	8b 45 f8	 mov	 eax, DWORD PTR _hardpoint_data$[ebp]
  00c55	c7 40 08 00 00
	00 00		 mov	 DWORD PTR [eax+8], 0

; 578  : 
; 579  : 	hardpoint_data->sub_object_depth1 = BLACKHAWK_LHS_INNER_PYLON;

  00c5c	8b 45 f8	 mov	 eax, DWORD PTR _hardpoint_data$[ebp]
  00c5f	c7 40 10 00 00
	00 00		 mov	 DWORD PTR [eax+16], 0

; 580  : 	hardpoint_data->sub_object_depth2 = BLACKHAWK_RHS_INNER_PYLON;

  00c66	8b 45 f8	 mov	 eax, DWORD PTR _hardpoint_data$[ebp]
  00c69	c7 40 14 01 00
	00 00		 mov	 DWORD PTR [eax+20], 1

; 581  : 
; 582  : 	hardpoint_data->number_of_valid_weapon_types = 3;

  00c70	8b 45 f8	 mov	 eax, DWORD PTR _hardpoint_data$[ebp]
  00c73	c7 40 0c 03 00
	00 00		 mov	 DWORD PTR [eax+12], 3

; 583  : 
; 584  : 	hardpoint_data->valid_weapon_types =(entity_sub_types *) safe_malloc (sizeof (entity_sub_types) * hardpoint_data->number_of_valid_weapon_types);

  00c7a	8b 45 f8	 mov	 eax, DWORD PTR _hardpoint_data$[ebp]
  00c7d	8b 48 0c	 mov	 ecx, DWORD PTR [eax+12]
  00c80	c1 e1 02	 shl	 ecx, 2
  00c83	51		 push	 ecx
  00c84	e8 00 00 00 00	 call	 ?safe_malloc_memory@@YGPAXI@Z ; safe_malloc_memory
  00c89	8b 55 f8	 mov	 edx, DWORD PTR _hardpoint_data$[ebp]
  00c8c	89 42 18	 mov	 DWORD PTR [edx+24], eax

; 585  : 
; 586  : 	hardpoint_data->valid_weapon_types [0] = ENTITY_SUB_TYPE_WEAPON_AGM114K_HELLFIRE_II;

  00c8f	b8 04 00 00 00	 mov	 eax, 4
  00c94	6b c8 00	 imul	 ecx, eax, 0
  00c97	8b 55 f8	 mov	 edx, DWORD PTR _hardpoint_data$[ebp]
  00c9a	8b 42 18	 mov	 eax, DWORD PTR [edx+24]
  00c9d	c7 04 01 2e 00
	00 00		 mov	 DWORD PTR [ecx+eax], 46	; 0000002eH

; 587  : 	hardpoint_data->valid_weapon_types [1] = ENTITY_SUB_TYPE_WEAPON_HYDRA70_M261;

  00ca4	b8 04 00 00 00	 mov	 eax, 4
  00ca9	c1 e0 00	 shl	 eax, 0
  00cac	8b 4d f8	 mov	 ecx, DWORD PTR _hardpoint_data$[ebp]
  00caf	8b 51 18	 mov	 edx, DWORD PTR [ecx+24]
  00cb2	c7 04 10 1f 00
	00 00		 mov	 DWORD PTR [eax+edx], 31	; 0000001fH

; 588  : 	hardpoint_data->valid_weapon_types [2] = ENTITY_SUB_TYPE_WEAPON_NO_WEAPON;

  00cb9	b8 04 00 00 00	 mov	 eax, 4
  00cbe	d1 e0		 shl	 eax, 1
  00cc0	8b 4d f8	 mov	 ecx, DWORD PTR _hardpoint_data$[ebp]
  00cc3	8b 51 18	 mov	 edx, DWORD PTR [ecx+24]
  00cc6	c7 04 10 00 00
	00 00		 mov	 DWORD PTR [eax+edx], 0

; 589  : 
; 590  : 	// OUTER HARDPOINT
; 591  : 
; 592  : 	hardpoint_data = &(gunship_data->hardpoint_list [WEAPON_LOADING_HARDPOINT_OUTER]);

  00ccd	b8 1c 00 00 00	 mov	 eax, 28			; 0000001cH
  00cd2	c1 e0 02	 shl	 eax, 2
  00cd5	03 45 fc	 add	 eax, DWORD PTR _gunship_data$[ebp]
  00cd8	89 45 f8	 mov	 DWORD PTR _hardpoint_data$[ebp], eax

; 593  : 
; 594  : 	hardpoint_data->valid = TRUE;

  00cdb	8b 45 f8	 mov	 eax, DWORD PTR _hardpoint_data$[ebp]
  00cde	c7 00 01 00 00
	00		 mov	 DWORD PTR [eax], 1

; 595  : 
; 596  : 	hardpoint_data->fixed = FALSE;

  00ce4	8b 45 f8	 mov	 eax, DWORD PTR _hardpoint_data$[ebp]
  00ce7	c7 40 04 00 00
	00 00		 mov	 DWORD PTR [eax+4], 0

; 597  : 
; 598  : 	hardpoint_data->current_weapon_index = 0;

  00cee	8b 45 f8	 mov	 eax, DWORD PTR _hardpoint_data$[ebp]
  00cf1	c7 40 08 00 00
	00 00		 mov	 DWORD PTR [eax+8], 0

; 599  : 
; 600  : 	hardpoint_data->sub_object_depth1 = BLACKHAWK_LHS_OUTER_PYLON;

  00cf8	8b 45 f8	 mov	 eax, DWORD PTR _hardpoint_data$[ebp]
  00cfb	c7 40 10 02 00
	00 00		 mov	 DWORD PTR [eax+16], 2

; 601  : 	hardpoint_data->sub_object_depth2 = BLACKHAWK_RHS_OUTER_PYLON;

  00d02	8b 45 f8	 mov	 eax, DWORD PTR _hardpoint_data$[ebp]
  00d05	c7 40 14 03 00
	00 00		 mov	 DWORD PTR [eax+20], 3

; 602  : 
; 603  : 	hardpoint_data->number_of_valid_weapon_types = 3;

  00d0c	8b 45 f8	 mov	 eax, DWORD PTR _hardpoint_data$[ebp]
  00d0f	c7 40 0c 03 00
	00 00		 mov	 DWORD PTR [eax+12], 3

; 604  : 
; 605  : 	hardpoint_data->valid_weapon_types =(entity_sub_types *) safe_malloc (sizeof (entity_sub_types) * hardpoint_data->number_of_valid_weapon_types);

  00d16	8b 45 f8	 mov	 eax, DWORD PTR _hardpoint_data$[ebp]
  00d19	8b 48 0c	 mov	 ecx, DWORD PTR [eax+12]
  00d1c	c1 e1 02	 shl	 ecx, 2
  00d1f	51		 push	 ecx
  00d20	e8 00 00 00 00	 call	 ?safe_malloc_memory@@YGPAXI@Z ; safe_malloc_memory
  00d25	8b 55 f8	 mov	 edx, DWORD PTR _hardpoint_data$[ebp]
  00d28	89 42 18	 mov	 DWORD PTR [edx+24], eax

; 606  : 
; 607  : 	hardpoint_data->valid_weapon_types [0] = ENTITY_SUB_TYPE_WEAPON_AGM114K_HELLFIRE_II;

  00d2b	b8 04 00 00 00	 mov	 eax, 4
  00d30	6b c8 00	 imul	 ecx, eax, 0
  00d33	8b 55 f8	 mov	 edx, DWORD PTR _hardpoint_data$[ebp]
  00d36	8b 42 18	 mov	 eax, DWORD PTR [edx+24]
  00d39	c7 04 01 2e 00
	00 00		 mov	 DWORD PTR [ecx+eax], 46	; 0000002eH

; 608  : 	hardpoint_data->valid_weapon_types [1] = ENTITY_SUB_TYPE_WEAPON_HYDRA70_M261;

  00d40	b8 04 00 00 00	 mov	 eax, 4
  00d45	c1 e0 00	 shl	 eax, 0
  00d48	8b 4d f8	 mov	 ecx, DWORD PTR _hardpoint_data$[ebp]
  00d4b	8b 51 18	 mov	 edx, DWORD PTR [ecx+24]
  00d4e	c7 04 10 1f 00
	00 00		 mov	 DWORD PTR [eax+edx], 31	; 0000001fH

; 609  : 	hardpoint_data->valid_weapon_types [2] = ENTITY_SUB_TYPE_WEAPON_NO_WEAPON;

  00d55	b8 04 00 00 00	 mov	 eax, 4
  00d5a	d1 e0		 shl	 eax, 1
  00d5c	8b 4d f8	 mov	 ecx, DWORD PTR _hardpoint_data$[ebp]
  00d5f	8b 51 18	 mov	 edx, DWORD PTR [ecx+24]
  00d62	c7 04 10 00 00
	00 00		 mov	 DWORD PTR [eax+edx], 0

; 610  : 
; 611  : ////Moje 030519 End
; 612  : ////Moje 030613 start
; 613  : 	//////////////////////////
; 614  : 	//
; 615  : 	// HIND
; 616  : 	//
; 617  : 	//////////////////////////
; 618  : 
; 619  : 	gunship_data = &weapon_loading_gunship_database [GUNSHIP_TYPE_HIND];

  00d69	b8 a8 00 00 00	 mov	 eax, 168		; 000000a8H
  00d6e	6b c8 05	 imul	 ecx, eax, 5
  00d71	81 c1 00 00 00
	00		 add	 ecx, OFFSET ?weapon_loading_gunship_database@@3PAUWEAPON_LOADING_GUNSHIP_TYPE@@A
  00d77	89 4d fc	 mov	 DWORD PTR _gunship_data$[ebp], ecx

; 620  : 
; 621  : 	for (loop = 0; loop < NUM_WEAPON_LOADING_HARDPOINT_TYPES; loop ++)

  00d7a	c7 45 f4 00 00
	00 00		 mov	 DWORD PTR _loop$[ebp], 0
  00d81	eb 09		 jmp	 SHORT $LN19@initialise
$LN17@initialise:
  00d83	8b 45 f4	 mov	 eax, DWORD PTR _loop$[ebp]
  00d86	83 c0 01	 add	 eax, 1
  00d89	89 45 f4	 mov	 DWORD PTR _loop$[ebp], eax
$LN19@initialise:
  00d8c	83 7d f4 06	 cmp	 DWORD PTR _loop$[ebp], 6
  00d90	7d 16		 jge	 SHORT $LN18@initialise

; 622  : 	{
; 623  : 		memset (&(gunship_data->hardpoint_list [loop]), 0, sizeof (weapon_loading_hardpoint_type));

  00d92	6a 1c		 push	 28			; 0000001cH
  00d94	6a 00		 push	 0
  00d96	6b 45 f4 1c	 imul	 eax, DWORD PTR _loop$[ebp], 28
  00d9a	03 45 fc	 add	 eax, DWORD PTR _gunship_data$[ebp]
  00d9d	50		 push	 eax
  00d9e	e8 00 00 00 00	 call	 _memset
  00da3	83 c4 0c	 add	 esp, 12			; 0000000cH

; 624  : 	}

  00da6	eb db		 jmp	 SHORT $LN17@initialise
$LN18@initialise:

; 625  : 
; 626  : 	// GUN 1
; 627  : 
; 628  : 	hardpoint_data = &(gunship_data->hardpoint_list [WEAPON_LOADING_HARDPOINT_GUN1]);

  00da8	b8 1c 00 00 00	 mov	 eax, 28			; 0000001cH
  00dad	6b c8 00	 imul	 ecx, eax, 0
  00db0	03 4d fc	 add	 ecx, DWORD PTR _gunship_data$[ebp]
  00db3	89 4d f8	 mov	 DWORD PTR _hardpoint_data$[ebp], ecx

; 629  : 
; 630  : 	hardpoint_data->valid = TRUE;

  00db6	8b 45 f8	 mov	 eax, DWORD PTR _hardpoint_data$[ebp]
  00db9	c7 00 01 00 00
	00		 mov	 DWORD PTR [eax], 1

; 631  : 
; 632  : 	hardpoint_data->fixed = TRUE;

  00dbf	8b 45 f8	 mov	 eax, DWORD PTR _hardpoint_data$[ebp]
  00dc2	c7 40 04 01 00
	00 00		 mov	 DWORD PTR [eax+4], 1

; 633  : 
; 634  : 	hardpoint_data->current_weapon_index = 0;

  00dc9	8b 45 f8	 mov	 eax, DWORD PTR _hardpoint_data$[ebp]
  00dcc	c7 40 08 00 00
	00 00		 mov	 DWORD PTR [eax+8], 0

; 635  : 
; 636  : 	hardpoint_data->sub_object_depth1 = HIND_CANNON_TURRET;

  00dd3	8b 45 f8	 mov	 eax, DWORD PTR _hardpoint_data$[ebp]
  00dd6	c7 40 10 06 00
	00 00		 mov	 DWORD PTR [eax+16], 6

; 637  : 	hardpoint_data->sub_object_depth2 = -1;

  00ddd	8b 45 f8	 mov	 eax, DWORD PTR _hardpoint_data$[ebp]
  00de0	c7 40 14 ff ff
	ff ff		 mov	 DWORD PTR [eax+20], -1

; 638  : 
; 639  : 	hardpoint_data->number_of_valid_weapon_types = 1;

  00de7	8b 45 f8	 mov	 eax, DWORD PTR _hardpoint_data$[ebp]
  00dea	c7 40 0c 01 00
	00 00		 mov	 DWORD PTR [eax+12], 1

; 640  : 
; 641  : 	hardpoint_data->valid_weapon_types =(entity_sub_types *) safe_malloc (sizeof (entity_sub_types) * hardpoint_data->number_of_valid_weapon_types);

  00df1	8b 45 f8	 mov	 eax, DWORD PTR _hardpoint_data$[ebp]
  00df4	8b 48 0c	 mov	 ecx, DWORD PTR [eax+12]
  00df7	c1 e1 02	 shl	 ecx, 2
  00dfa	51		 push	 ecx
  00dfb	e8 00 00 00 00	 call	 ?safe_malloc_memory@@YGPAXI@Z ; safe_malloc_memory
  00e00	8b 55 f8	 mov	 edx, DWORD PTR _hardpoint_data$[ebp]
  00e03	89 42 18	 mov	 DWORD PTR [edx+24], eax

; 642  : 
; 643  : 	hardpoint_data->valid_weapon_types [0] = ENTITY_SUB_TYPE_WEAPON_9A642_12P7MM_ROUND;

  00e06	b8 04 00 00 00	 mov	 eax, 4
  00e0b	6b c8 00	 imul	 ecx, eax, 0
  00e0e	8b 55 f8	 mov	 edx, DWORD PTR _hardpoint_data$[ebp]
  00e11	8b 42 18	 mov	 eax, DWORD PTR [edx+24]
  00e14	c7 04 01 0d 00
	00 00		 mov	 DWORD PTR [ecx+eax], 13	; 0000000dH

; 644  : 
; 645  : 	// INNER HARDPOINT
; 646  : 
; 647  : 	hardpoint_data = &(gunship_data->hardpoint_list [WEAPON_LOADING_HARDPOINT_INNER]);

  00e1b	b8 1c 00 00 00	 mov	 eax, 28			; 0000001cH
  00e20	d1 e0		 shl	 eax, 1
  00e22	03 45 fc	 add	 eax, DWORD PTR _gunship_data$[ebp]
  00e25	89 45 f8	 mov	 DWORD PTR _hardpoint_data$[ebp], eax

; 648  : 
; 649  : 	hardpoint_data->valid = TRUE;

  00e28	8b 45 f8	 mov	 eax, DWORD PTR _hardpoint_data$[ebp]
  00e2b	c7 00 01 00 00
	00		 mov	 DWORD PTR [eax], 1

; 650  : 
; 651  : 	hardpoint_data->fixed = FALSE;

  00e31	8b 45 f8	 mov	 eax, DWORD PTR _hardpoint_data$[ebp]
  00e34	c7 40 04 00 00
	00 00		 mov	 DWORD PTR [eax+4], 0

; 652  : 
; 653  : 	hardpoint_data->current_weapon_index = 0;

  00e3b	8b 45 f8	 mov	 eax, DWORD PTR _hardpoint_data$[ebp]
  00e3e	c7 40 08 00 00
	00 00		 mov	 DWORD PTR [eax+8], 0

; 654  : 
; 655  : 	hardpoint_data->sub_object_depth1 = HIND_LHS_INNER_PYLON;

  00e45	8b 45 f8	 mov	 eax, DWORD PTR _hardpoint_data$[ebp]
  00e48	c7 40 10 00 00
	00 00		 mov	 DWORD PTR [eax+16], 0

; 656  : 	hardpoint_data->sub_object_depth2 = HIND_RHS_INNER_PYLON;

  00e4f	8b 45 f8	 mov	 eax, DWORD PTR _hardpoint_data$[ebp]
  00e52	c7 40 14 01 00
	00 00		 mov	 DWORD PTR [eax+20], 1

; 657  : 
; 658  : 	hardpoint_data->number_of_valid_weapon_types = 5;

  00e59	8b 45 f8	 mov	 eax, DWORD PTR _hardpoint_data$[ebp]
  00e5c	c7 40 0c 05 00
	00 00		 mov	 DWORD PTR [eax+12], 5

; 659  : 
; 660  : 	hardpoint_data->valid_weapon_types =(entity_sub_types *) safe_malloc (sizeof (entity_sub_types) * hardpoint_data->number_of_valid_weapon_types);

  00e63	8b 45 f8	 mov	 eax, DWORD PTR _hardpoint_data$[ebp]
  00e66	8b 48 0c	 mov	 ecx, DWORD PTR [eax+12]
  00e69	c1 e1 02	 shl	 ecx, 2
  00e6c	51		 push	 ecx
  00e6d	e8 00 00 00 00	 call	 ?safe_malloc_memory@@YGPAXI@Z ; safe_malloc_memory
  00e72	8b 55 f8	 mov	 edx, DWORD PTR _hardpoint_data$[ebp]
  00e75	89 42 18	 mov	 DWORD PTR [edx+24], eax

; 661  : 
; 662  : 	hardpoint_data->valid_weapon_types [0] = ENTITY_SUB_TYPE_WEAPON_S8;

  00e78	b8 04 00 00 00	 mov	 eax, 4
  00e7d	6b c8 00	 imul	 ecx, eax, 0
  00e80	8b 55 f8	 mov	 edx, DWORD PTR _hardpoint_data$[ebp]
  00e83	8b 42 18	 mov	 eax, DWORD PTR [edx+24]
  00e86	c7 04 01 22 00
	00 00		 mov	 DWORD PTR [ecx+eax], 34	; 00000022H

; 663  : 	hardpoint_data->valid_weapon_types [1] = ENTITY_SUB_TYPE_WEAPON_S13;

  00e8d	b8 04 00 00 00	 mov	 eax, 4
  00e92	c1 e0 00	 shl	 eax, 0
  00e95	8b 4d f8	 mov	 ecx, DWORD PTR _hardpoint_data$[ebp]
  00e98	8b 51 18	 mov	 edx, DWORD PTR [ecx+24]
  00e9b	c7 04 10 23 00
	00 00		 mov	 DWORD PTR [eax+edx], 35	; 00000023H

; 664  : 	hardpoint_data->valid_weapon_types [2] = ENTITY_SUB_TYPE_WEAPON_S5;

  00ea2	b8 04 00 00 00	 mov	 eax, 4
  00ea7	d1 e0		 shl	 eax, 1
  00ea9	8b 4d f8	 mov	 ecx, DWORD PTR _hardpoint_data$[ebp]
  00eac	8b 51 18	 mov	 edx, DWORD PTR [ecx+24]
  00eaf	c7 04 10 21 00
	00 00		 mov	 DWORD PTR [eax+edx], 33	; 00000021H

; 665  : 	hardpoint_data->valid_weapon_types [3] = ENTITY_SUB_TYPE_WEAPON_GSH23L_23MM_ROUND;

  00eb6	b8 04 00 00 00	 mov	 eax, 4
  00ebb	6b c8 03	 imul	 ecx, eax, 3
  00ebe	8b 55 f8	 mov	 edx, DWORD PTR _hardpoint_data$[ebp]
  00ec1	8b 42 18	 mov	 eax, DWORD PTR [edx+24]
  00ec4	c7 04 01 0f 00
	00 00		 mov	 DWORD PTR [ecx+eax], 15	; 0000000fH

; 666  : 	hardpoint_data->valid_weapon_types [4] = ENTITY_SUB_TYPE_WEAPON_NO_WEAPON;

  00ecb	b8 04 00 00 00	 mov	 eax, 4
  00ed0	c1 e0 02	 shl	 eax, 2
  00ed3	8b 4d f8	 mov	 ecx, DWORD PTR _hardpoint_data$[ebp]
  00ed6	8b 51 18	 mov	 edx, DWORD PTR [ecx+24]
  00ed9	c7 04 10 00 00
	00 00		 mov	 DWORD PTR [eax+edx], 0

; 667  : 
; 668  : 	// OUTER HARDPOINT
; 669  : 
; 670  : 	hardpoint_data = &(gunship_data->hardpoint_list [WEAPON_LOADING_HARDPOINT_OUTER]);

  00ee0	b8 1c 00 00 00	 mov	 eax, 28			; 0000001cH
  00ee5	c1 e0 02	 shl	 eax, 2
  00ee8	03 45 fc	 add	 eax, DWORD PTR _gunship_data$[ebp]
  00eeb	89 45 f8	 mov	 DWORD PTR _hardpoint_data$[ebp], eax

; 671  : 
; 672  : 	hardpoint_data->valid = TRUE;

  00eee	8b 45 f8	 mov	 eax, DWORD PTR _hardpoint_data$[ebp]
  00ef1	c7 00 01 00 00
	00		 mov	 DWORD PTR [eax], 1

; 673  : 
; 674  : 	hardpoint_data->fixed = FALSE;

  00ef7	8b 45 f8	 mov	 eax, DWORD PTR _hardpoint_data$[ebp]
  00efa	c7 40 04 00 00
	00 00		 mov	 DWORD PTR [eax+4], 0

; 675  : 
; 676  : 	hardpoint_data->current_weapon_index = 0;

  00f01	8b 45 f8	 mov	 eax, DWORD PTR _hardpoint_data$[ebp]
  00f04	c7 40 08 00 00
	00 00		 mov	 DWORD PTR [eax+8], 0

; 677  : 
; 678  : 	hardpoint_data->sub_object_depth1 = HIND_LHS_OUTER_PYLON;

  00f0b	8b 45 f8	 mov	 eax, DWORD PTR _hardpoint_data$[ebp]
  00f0e	c7 40 10 02 00
	00 00		 mov	 DWORD PTR [eax+16], 2

; 679  : 	hardpoint_data->sub_object_depth2 = HIND_RHS_OUTER_PYLON;

  00f15	8b 45 f8	 mov	 eax, DWORD PTR _hardpoint_data$[ebp]
  00f18	c7 40 14 03 00
	00 00		 mov	 DWORD PTR [eax+20], 3

; 680  : 
; 681  : 	hardpoint_data->number_of_valid_weapon_types = 6;

  00f1f	8b 45 f8	 mov	 eax, DWORD PTR _hardpoint_data$[ebp]
  00f22	c7 40 0c 06 00
	00 00		 mov	 DWORD PTR [eax+12], 6

; 682  : 
; 683  : 	hardpoint_data->valid_weapon_types =(entity_sub_types *) safe_malloc (sizeof (entity_sub_types) * hardpoint_data->number_of_valid_weapon_types);

  00f29	8b 45 f8	 mov	 eax, DWORD PTR _hardpoint_data$[ebp]
  00f2c	8b 48 0c	 mov	 ecx, DWORD PTR [eax+12]
  00f2f	c1 e1 02	 shl	 ecx, 2
  00f32	51		 push	 ecx
  00f33	e8 00 00 00 00	 call	 ?safe_malloc_memory@@YGPAXI@Z ; safe_malloc_memory
  00f38	8b 55 f8	 mov	 edx, DWORD PTR _hardpoint_data$[ebp]
  00f3b	89 42 18	 mov	 DWORD PTR [edx+24], eax

; 684  : 
; 685  : 	hardpoint_data->valid_weapon_types [0] = ENTITY_SUB_TYPE_WEAPON_S8;

  00f3e	b8 04 00 00 00	 mov	 eax, 4
  00f43	6b c8 00	 imul	 ecx, eax, 0
  00f46	8b 55 f8	 mov	 edx, DWORD PTR _hardpoint_data$[ebp]
  00f49	8b 42 18	 mov	 eax, DWORD PTR [edx+24]
  00f4c	c7 04 01 22 00
	00 00		 mov	 DWORD PTR [ecx+eax], 34	; 00000022H

; 686  : 	hardpoint_data->valid_weapon_types [1] = ENTITY_SUB_TYPE_WEAPON_S13;

  00f53	b8 04 00 00 00	 mov	 eax, 4
  00f58	c1 e0 00	 shl	 eax, 0
  00f5b	8b 4d f8	 mov	 ecx, DWORD PTR _hardpoint_data$[ebp]
  00f5e	8b 51 18	 mov	 edx, DWORD PTR [ecx+24]
  00f61	c7 04 10 23 00
	00 00		 mov	 DWORD PTR [eax+edx], 35	; 00000023H

; 687  : 	hardpoint_data->valid_weapon_types [2] = ENTITY_SUB_TYPE_WEAPON_S5;

  00f68	b8 04 00 00 00	 mov	 eax, 4
  00f6d	d1 e0		 shl	 eax, 1
  00f6f	8b 4d f8	 mov	 ecx, DWORD PTR _hardpoint_data$[ebp]
  00f72	8b 51 18	 mov	 edx, DWORD PTR [ecx+24]
  00f75	c7 04 10 21 00
	00 00		 mov	 DWORD PTR [eax+edx], 33	; 00000021H

; 688  : 	hardpoint_data->valid_weapon_types [3] = ENTITY_SUB_TYPE_WEAPON_GSH23L_23MM_ROUND;

  00f7c	b8 04 00 00 00	 mov	 eax, 4
  00f81	6b c8 03	 imul	 ecx, eax, 3
  00f84	8b 55 f8	 mov	 edx, DWORD PTR _hardpoint_data$[ebp]
  00f87	8b 42 18	 mov	 eax, DWORD PTR [edx+24]
  00f8a	c7 04 01 0f 00
	00 00		 mov	 DWORD PTR [ecx+eax], 15	; 0000000fH

; 689  : 	hardpoint_data->valid_weapon_types [4] = ENTITY_SUB_TYPE_WEAPON_AT6_SPIRAL;

  00f91	b8 04 00 00 00	 mov	 eax, 4
  00f96	c1 e0 02	 shl	 eax, 2
  00f99	8b 4d f8	 mov	 ecx, DWORD PTR _hardpoint_data$[ebp]
  00f9c	8b 51 18	 mov	 edx, DWORD PTR [ecx+24]
  00f9f	c7 04 10 33 00
	00 00		 mov	 DWORD PTR [eax+edx], 51	; 00000033H

; 690  : 	hardpoint_data->valid_weapon_types [5] = ENTITY_SUB_TYPE_WEAPON_NO_WEAPON;

  00fa6	b8 04 00 00 00	 mov	 eax, 4
  00fab	6b c8 05	 imul	 ecx, eax, 5
  00fae	8b 55 f8	 mov	 edx, DWORD PTR _hardpoint_data$[ebp]
  00fb1	8b 42 18	 mov	 eax, DWORD PTR [edx+24]
  00fb4	c7 04 01 00 00
	00 00		 mov	 DWORD PTR [ecx+eax], 0

; 691  : 
; 692  : 	// WINGTIP HARDPOINT
; 693  : 
; 694  : 	hardpoint_data = &(gunship_data->hardpoint_list [WEAPON_LOADING_HARDPOINT_WINGTIP]);

  00fbb	b8 1c 00 00 00	 mov	 eax, 28			; 0000001cH
  00fc0	6b c8 05	 imul	 ecx, eax, 5
  00fc3	03 4d fc	 add	 ecx, DWORD PTR _gunship_data$[ebp]
  00fc6	89 4d f8	 mov	 DWORD PTR _hardpoint_data$[ebp], ecx

; 695  : 
; 696  : 	hardpoint_data->valid = TRUE;

  00fc9	8b 45 f8	 mov	 eax, DWORD PTR _hardpoint_data$[ebp]
  00fcc	c7 00 01 00 00
	00		 mov	 DWORD PTR [eax], 1

; 697  : 
; 698  : 	hardpoint_data->fixed = FALSE;

  00fd2	8b 45 f8	 mov	 eax, DWORD PTR _hardpoint_data$[ebp]
  00fd5	c7 40 04 00 00
	00 00		 mov	 DWORD PTR [eax+4], 0

; 699  : 
; 700  : 	hardpoint_data->current_weapon_index = 0;

  00fdc	8b 45 f8	 mov	 eax, DWORD PTR _hardpoint_data$[ebp]
  00fdf	c7 40 08 00 00
	00 00		 mov	 DWORD PTR [eax+8], 0

; 701  : 
; 702  : 	hardpoint_data->sub_object_depth1 = HIND_LHS_WING_TIP_MOUNT;

  00fe6	8b 45 f8	 mov	 eax, DWORD PTR _hardpoint_data$[ebp]
  00fe9	c7 40 10 04 00
	00 00		 mov	 DWORD PTR [eax+16], 4

; 703  : 	hardpoint_data->sub_object_depth2 = HIND_RHS_WING_TIP_MOUNT;

  00ff0	8b 45 f8	 mov	 eax, DWORD PTR _hardpoint_data$[ebp]
  00ff3	c7 40 14 05 00
	00 00		 mov	 DWORD PTR [eax+20], 5

; 704  : 
; 705  : 	hardpoint_data->number_of_valid_weapon_types = 2;

  00ffa	8b 45 f8	 mov	 eax, DWORD PTR _hardpoint_data$[ebp]
  00ffd	c7 40 0c 02 00
	00 00		 mov	 DWORD PTR [eax+12], 2

; 706  : 
; 707  : 	hardpoint_data->valid_weapon_types =(entity_sub_types *) safe_malloc (sizeof (entity_sub_types) * hardpoint_data->number_of_valid_weapon_types);

  01004	8b 45 f8	 mov	 eax, DWORD PTR _hardpoint_data$[ebp]
  01007	8b 48 0c	 mov	 ecx, DWORD PTR [eax+12]
  0100a	c1 e1 02	 shl	 ecx, 2
  0100d	51		 push	 ecx
  0100e	e8 00 00 00 00	 call	 ?safe_malloc_memory@@YGPAXI@Z ; safe_malloc_memory
  01013	8b 55 f8	 mov	 edx, DWORD PTR _hardpoint_data$[ebp]
  01016	89 42 18	 mov	 DWORD PTR [edx+24], eax

; 708  : 
; 709  : 	hardpoint_data->valid_weapon_types [0] = ENTITY_SUB_TYPE_WEAPON_AT6_SPIRAL;

  01019	b8 04 00 00 00	 mov	 eax, 4
  0101e	6b c8 00	 imul	 ecx, eax, 0
  01021	8b 55 f8	 mov	 edx, DWORD PTR _hardpoint_data$[ebp]
  01024	8b 42 18	 mov	 eax, DWORD PTR [edx+24]
  01027	c7 04 01 33 00
	00 00		 mov	 DWORD PTR [ecx+eax], 51	; 00000033H

; 710  : 	hardpoint_data->valid_weapon_types [1] = ENTITY_SUB_TYPE_WEAPON_NO_WEAPON;

  0102e	b8 04 00 00 00	 mov	 eax, 4
  01033	c1 e0 00	 shl	 eax, 0
  01036	8b 4d f8	 mov	 ecx, DWORD PTR _hardpoint_data$[ebp]
  01039	8b 51 18	 mov	 edx, DWORD PTR [ecx+24]
  0103c	c7 04 10 00 00
	00 00		 mov	 DWORD PTR [eax+edx], 0

; 711  : 
; 712  : ////moje 030613 end
; 713  : 
; 714  : ////Moje 030817 start
; 715  : 	//////////////////////////
; 716  : 	//
; 717  : 	// AH64A
; 718  : 	//
; 719  : 	//////////////////////////
; 720  : 
; 721  : 	gunship_data = &weapon_loading_gunship_database [GUNSHIP_TYPE_AH64A];

  01043	b8 a8 00 00 00	 mov	 eax, 168		; 000000a8H
  01048	6b c8 06	 imul	 ecx, eax, 6
  0104b	81 c1 00 00 00
	00		 add	 ecx, OFFSET ?weapon_loading_gunship_database@@3PAUWEAPON_LOADING_GUNSHIP_TYPE@@A
  01051	89 4d fc	 mov	 DWORD PTR _gunship_data$[ebp], ecx

; 722  : 
; 723  : 	for (loop = 0; loop < NUM_WEAPON_LOADING_HARDPOINT_TYPES; loop ++)

  01054	c7 45 f4 00 00
	00 00		 mov	 DWORD PTR _loop$[ebp], 0
  0105b	eb 09		 jmp	 SHORT $LN22@initialise
$LN20@initialise:
  0105d	8b 45 f4	 mov	 eax, DWORD PTR _loop$[ebp]
  01060	83 c0 01	 add	 eax, 1
  01063	89 45 f4	 mov	 DWORD PTR _loop$[ebp], eax
$LN22@initialise:
  01066	83 7d f4 06	 cmp	 DWORD PTR _loop$[ebp], 6
  0106a	7d 16		 jge	 SHORT $LN21@initialise

; 724  : 	{
; 725  : 		memset (&(gunship_data->hardpoint_list [loop]), 0, sizeof (weapon_loading_hardpoint_type));

  0106c	6a 1c		 push	 28			; 0000001cH
  0106e	6a 00		 push	 0
  01070	6b 45 f4 1c	 imul	 eax, DWORD PTR _loop$[ebp], 28
  01074	03 45 fc	 add	 eax, DWORD PTR _gunship_data$[ebp]
  01077	50		 push	 eax
  01078	e8 00 00 00 00	 call	 _memset
  0107d	83 c4 0c	 add	 esp, 12			; 0000000cH

; 726  : 	}

  01080	eb db		 jmp	 SHORT $LN20@initialise
$LN21@initialise:

; 727  : 
; 728  : 	// GUN 1
; 729  : 
; 730  : 	hardpoint_data = &(gunship_data->hardpoint_list [WEAPON_LOADING_HARDPOINT_GUN1]);

  01082	b8 1c 00 00 00	 mov	 eax, 28			; 0000001cH
  01087	6b c8 00	 imul	 ecx, eax, 0
  0108a	03 4d fc	 add	 ecx, DWORD PTR _gunship_data$[ebp]
  0108d	89 4d f8	 mov	 DWORD PTR _hardpoint_data$[ebp], ecx

; 731  : 
; 732  : 	hardpoint_data->valid = TRUE;

  01090	8b 45 f8	 mov	 eax, DWORD PTR _hardpoint_data$[ebp]
  01093	c7 00 01 00 00
	00		 mov	 DWORD PTR [eax], 1

; 733  : 
; 734  : 	hardpoint_data->fixed = TRUE;

  01099	8b 45 f8	 mov	 eax, DWORD PTR _hardpoint_data$[ebp]
  0109c	c7 40 04 01 00
	00 00		 mov	 DWORD PTR [eax+4], 1

; 735  : 
; 736  : 	hardpoint_data->current_weapon_index = 0;

  010a3	8b 45 f8	 mov	 eax, DWORD PTR _hardpoint_data$[ebp]
  010a6	c7 40 08 00 00
	00 00		 mov	 DWORD PTR [eax+8], 0

; 737  : 
; 738  : 	hardpoint_data->sub_object_depth1 = AH64A_CHAIN_GUN_TURRET;

  010ad	8b 45 f8	 mov	 eax, DWORD PTR _hardpoint_data$[ebp]
  010b0	c7 40 10 06 00
	00 00		 mov	 DWORD PTR [eax+16], 6

; 739  : 	hardpoint_data->sub_object_depth2 = -1;

  010b7	8b 45 f8	 mov	 eax, DWORD PTR _hardpoint_data$[ebp]
  010ba	c7 40 14 ff ff
	ff ff		 mov	 DWORD PTR [eax+20], -1

; 740  : 
; 741  : 	hardpoint_data->number_of_valid_weapon_types = 1;

  010c1	8b 45 f8	 mov	 eax, DWORD PTR _hardpoint_data$[ebp]
  010c4	c7 40 0c 01 00
	00 00		 mov	 DWORD PTR [eax+12], 1

; 742  : 
; 743  : 	hardpoint_data->valid_weapon_types =(entity_sub_types *) safe_malloc (sizeof (entity_sub_types) * hardpoint_data->number_of_valid_weapon_types);

  010cb	8b 45 f8	 mov	 eax, DWORD PTR _hardpoint_data$[ebp]
  010ce	8b 48 0c	 mov	 ecx, DWORD PTR [eax+12]
  010d1	c1 e1 02	 shl	 ecx, 2
  010d4	51		 push	 ecx
  010d5	e8 00 00 00 00	 call	 ?safe_malloc_memory@@YGPAXI@Z ; safe_malloc_memory
  010da	8b 55 f8	 mov	 edx, DWORD PTR _hardpoint_data$[ebp]
  010dd	89 42 18	 mov	 DWORD PTR [edx+24], eax

; 744  : 
; 745  : 	hardpoint_data->valid_weapon_types [0] = ENTITY_SUB_TYPE_WEAPON_M230_30MM_ROUND;

  010e0	b8 04 00 00 00	 mov	 eax, 4
  010e5	6b c8 00	 imul	 ecx, eax, 0
  010e8	8b 55 f8	 mov	 edx, DWORD PTR _hardpoint_data$[ebp]
  010eb	8b 42 18	 mov	 eax, DWORD PTR [edx+24]
  010ee	c7 04 01 07 00
	00 00		 mov	 DWORD PTR [ecx+eax], 7

; 746  : 
; 747  : 	// INNER HARDPOINT
; 748  : 
; 749  : 	hardpoint_data = &(gunship_data->hardpoint_list [WEAPON_LOADING_HARDPOINT_INNER]);

  010f5	b8 1c 00 00 00	 mov	 eax, 28			; 0000001cH
  010fa	d1 e0		 shl	 eax, 1
  010fc	03 45 fc	 add	 eax, DWORD PTR _gunship_data$[ebp]
  010ff	89 45 f8	 mov	 DWORD PTR _hardpoint_data$[ebp], eax

; 750  : 
; 751  : 	hardpoint_data->valid = TRUE;

  01102	8b 45 f8	 mov	 eax, DWORD PTR _hardpoint_data$[ebp]
  01105	c7 00 01 00 00
	00		 mov	 DWORD PTR [eax], 1

; 752  : 
; 753  : 	hardpoint_data->fixed = FALSE;

  0110b	8b 45 f8	 mov	 eax, DWORD PTR _hardpoint_data$[ebp]
  0110e	c7 40 04 00 00
	00 00		 mov	 DWORD PTR [eax+4], 0

; 754  : 
; 755  : 	hardpoint_data->current_weapon_index = 0;

  01115	8b 45 f8	 mov	 eax, DWORD PTR _hardpoint_data$[ebp]
  01118	c7 40 08 00 00
	00 00		 mov	 DWORD PTR [eax+8], 0

; 756  : 
; 757  : 	hardpoint_data->sub_object_depth1 = AH64A_LHS_INNER_PYLON;

  0111f	8b 45 f8	 mov	 eax, DWORD PTR _hardpoint_data$[ebp]
  01122	c7 40 10 00 00
	00 00		 mov	 DWORD PTR [eax+16], 0

; 758  : 	hardpoint_data->sub_object_depth2 = AH64A_RHS_INNER_PYLON;

  01129	8b 45 f8	 mov	 eax, DWORD PTR _hardpoint_data$[ebp]
  0112c	c7 40 14 01 00
	00 00		 mov	 DWORD PTR [eax+20], 1

; 759  : 
; 760  : 	hardpoint_data->number_of_valid_weapon_types = 4;

  01133	8b 45 f8	 mov	 eax, DWORD PTR _hardpoint_data$[ebp]
  01136	c7 40 0c 04 00
	00 00		 mov	 DWORD PTR [eax+12], 4

; 761  : 
; 762  : 	hardpoint_data->valid_weapon_types =(entity_sub_types *) safe_malloc (sizeof (entity_sub_types) * hardpoint_data->number_of_valid_weapon_types);

  0113d	8b 45 f8	 mov	 eax, DWORD PTR _hardpoint_data$[ebp]
  01140	8b 48 0c	 mov	 ecx, DWORD PTR [eax+12]
  01143	c1 e1 02	 shl	 ecx, 2
  01146	51		 push	 ecx
  01147	e8 00 00 00 00	 call	 ?safe_malloc_memory@@YGPAXI@Z ; safe_malloc_memory
  0114c	8b 55 f8	 mov	 edx, DWORD PTR _hardpoint_data$[ebp]
  0114f	89 42 18	 mov	 DWORD PTR [edx+24], eax

; 763  : 
; 764  : 	hardpoint_data->valid_weapon_types [0] = ENTITY_SUB_TYPE_WEAPON_AGM114K_HELLFIRE_II;

  01152	b8 04 00 00 00	 mov	 eax, 4
  01157	6b c8 00	 imul	 ecx, eax, 0
  0115a	8b 55 f8	 mov	 edx, DWORD PTR _hardpoint_data$[ebp]
  0115d	8b 42 18	 mov	 eax, DWORD PTR [edx+24]
  01160	c7 04 01 2e 00
	00 00		 mov	 DWORD PTR [ecx+eax], 46	; 0000002eH

; 765  : 	hardpoint_data->valid_weapon_types [1] = ENTITY_SUB_TYPE_WEAPON_HYDRA70_M255;

  01167	b8 04 00 00 00	 mov	 eax, 4
  0116c	c1 e0 00	 shl	 eax, 0
  0116f	8b 4d f8	 mov	 ecx, DWORD PTR _hardpoint_data$[ebp]
  01172	8b 51 18	 mov	 edx, DWORD PTR [ecx+24]
  01175	c7 04 10 1e 00
	00 00		 mov	 DWORD PTR [eax+edx], 30	; 0000001eH

; 766  : 	hardpoint_data->valid_weapon_types [2] = ENTITY_SUB_TYPE_WEAPON_HYDRA70_M261;

  0117c	b8 04 00 00 00	 mov	 eax, 4
  01181	d1 e0		 shl	 eax, 1
  01183	8b 4d f8	 mov	 ecx, DWORD PTR _hardpoint_data$[ebp]
  01186	8b 51 18	 mov	 edx, DWORD PTR [ecx+24]
  01189	c7 04 10 1f 00
	00 00		 mov	 DWORD PTR [eax+edx], 31	; 0000001fH

; 767  : 	hardpoint_data->valid_weapon_types [3] = ENTITY_SUB_TYPE_WEAPON_NO_WEAPON;

  01190	b8 04 00 00 00	 mov	 eax, 4
  01195	6b c8 03	 imul	 ecx, eax, 3
  01198	8b 55 f8	 mov	 edx, DWORD PTR _hardpoint_data$[ebp]
  0119b	8b 42 18	 mov	 eax, DWORD PTR [edx+24]
  0119e	c7 04 01 00 00
	00 00		 mov	 DWORD PTR [ecx+eax], 0

; 768  : 
; 769  : 	// OUTER HARDPOINT
; 770  : 
; 771  : 	hardpoint_data = &(gunship_data->hardpoint_list [WEAPON_LOADING_HARDPOINT_OUTER]);

  011a5	b8 1c 00 00 00	 mov	 eax, 28			; 0000001cH
  011aa	c1 e0 02	 shl	 eax, 2
  011ad	03 45 fc	 add	 eax, DWORD PTR _gunship_data$[ebp]
  011b0	89 45 f8	 mov	 DWORD PTR _hardpoint_data$[ebp], eax

; 772  : 
; 773  : 	hardpoint_data->valid = TRUE;

  011b3	8b 45 f8	 mov	 eax, DWORD PTR _hardpoint_data$[ebp]
  011b6	c7 00 01 00 00
	00		 mov	 DWORD PTR [eax], 1

; 774  : 
; 775  : 	hardpoint_data->fixed = FALSE;

  011bc	8b 45 f8	 mov	 eax, DWORD PTR _hardpoint_data$[ebp]
  011bf	c7 40 04 00 00
	00 00		 mov	 DWORD PTR [eax+4], 0

; 776  : 
; 777  : 	hardpoint_data->current_weapon_index = 0;

  011c6	8b 45 f8	 mov	 eax, DWORD PTR _hardpoint_data$[ebp]
  011c9	c7 40 08 00 00
	00 00		 mov	 DWORD PTR [eax+8], 0

; 778  : 
; 779  : 	hardpoint_data->sub_object_depth1 = AH64A_LHS_OUTER_PYLON;

  011d0	8b 45 f8	 mov	 eax, DWORD PTR _hardpoint_data$[ebp]
  011d3	c7 40 10 02 00
	00 00		 mov	 DWORD PTR [eax+16], 2

; 780  : 	hardpoint_data->sub_object_depth2 = AH64A_RHS_OUTER_PYLON;

  011da	8b 45 f8	 mov	 eax, DWORD PTR _hardpoint_data$[ebp]
  011dd	c7 40 14 03 00
	00 00		 mov	 DWORD PTR [eax+20], 3

; 781  : 
; 782  : 	hardpoint_data->number_of_valid_weapon_types = 4;

  011e4	8b 45 f8	 mov	 eax, DWORD PTR _hardpoint_data$[ebp]
  011e7	c7 40 0c 04 00
	00 00		 mov	 DWORD PTR [eax+12], 4

; 783  : 
; 784  : 	hardpoint_data->valid_weapon_types =(entity_sub_types *) safe_malloc (sizeof (entity_sub_types) * hardpoint_data->number_of_valid_weapon_types);

  011ee	8b 45 f8	 mov	 eax, DWORD PTR _hardpoint_data$[ebp]
  011f1	8b 48 0c	 mov	 ecx, DWORD PTR [eax+12]
  011f4	c1 e1 02	 shl	 ecx, 2
  011f7	51		 push	 ecx
  011f8	e8 00 00 00 00	 call	 ?safe_malloc_memory@@YGPAXI@Z ; safe_malloc_memory
  011fd	8b 55 f8	 mov	 edx, DWORD PTR _hardpoint_data$[ebp]
  01200	89 42 18	 mov	 DWORD PTR [edx+24], eax

; 785  : 
; 786  : 	hardpoint_data->valid_weapon_types [0] = ENTITY_SUB_TYPE_WEAPON_AGM114K_HELLFIRE_II;

  01203	b8 04 00 00 00	 mov	 eax, 4
  01208	6b c8 00	 imul	 ecx, eax, 0
  0120b	8b 55 f8	 mov	 edx, DWORD PTR _hardpoint_data$[ebp]
  0120e	8b 42 18	 mov	 eax, DWORD PTR [edx+24]
  01211	c7 04 01 2e 00
	00 00		 mov	 DWORD PTR [ecx+eax], 46	; 0000002eH

; 787  : 	hardpoint_data->valid_weapon_types [1] = ENTITY_SUB_TYPE_WEAPON_HYDRA70_M255;

  01218	b8 04 00 00 00	 mov	 eax, 4
  0121d	c1 e0 00	 shl	 eax, 0
  01220	8b 4d f8	 mov	 ecx, DWORD PTR _hardpoint_data$[ebp]
  01223	8b 51 18	 mov	 edx, DWORD PTR [ecx+24]
  01226	c7 04 10 1e 00
	00 00		 mov	 DWORD PTR [eax+edx], 30	; 0000001eH

; 788  : 	hardpoint_data->valid_weapon_types [2] = ENTITY_SUB_TYPE_WEAPON_HYDRA70_M261;

  0122d	b8 04 00 00 00	 mov	 eax, 4
  01232	d1 e0		 shl	 eax, 1
  01234	8b 4d f8	 mov	 ecx, DWORD PTR _hardpoint_data$[ebp]
  01237	8b 51 18	 mov	 edx, DWORD PTR [ecx+24]
  0123a	c7 04 10 1f 00
	00 00		 mov	 DWORD PTR [eax+edx], 31	; 0000001fH

; 789  : 	hardpoint_data->valid_weapon_types [3] = ENTITY_SUB_TYPE_WEAPON_NO_WEAPON;

  01241	b8 04 00 00 00	 mov	 eax, 4
  01246	6b c8 03	 imul	 ecx, eax, 3
  01249	8b 55 f8	 mov	 edx, DWORD PTR _hardpoint_data$[ebp]
  0124c	8b 42 18	 mov	 eax, DWORD PTR [edx+24]
  0124f	c7 04 01 00 00
	00 00		 mov	 DWORD PTR [ecx+eax], 0

; 790  : 
; 791  : 	// WINGTIP HARDPOINT
; 792  : 
; 793  : 	hardpoint_data = &(gunship_data->hardpoint_list [WEAPON_LOADING_HARDPOINT_WINGTIP]);

  01256	b8 1c 00 00 00	 mov	 eax, 28			; 0000001cH
  0125b	6b c8 05	 imul	 ecx, eax, 5
  0125e	03 4d fc	 add	 ecx, DWORD PTR _gunship_data$[ebp]
  01261	89 4d f8	 mov	 DWORD PTR _hardpoint_data$[ebp], ecx

; 794  : 
; 795  : 	hardpoint_data->valid = TRUE;

  01264	8b 45 f8	 mov	 eax, DWORD PTR _hardpoint_data$[ebp]
  01267	c7 00 01 00 00
	00		 mov	 DWORD PTR [eax], 1

; 796  : 
; 797  : 	hardpoint_data->fixed = FALSE;

  0126d	8b 45 f8	 mov	 eax, DWORD PTR _hardpoint_data$[ebp]
  01270	c7 40 04 00 00
	00 00		 mov	 DWORD PTR [eax+4], 0

; 798  : 
; 799  : 	hardpoint_data->current_weapon_index = 0;

  01277	8b 45 f8	 mov	 eax, DWORD PTR _hardpoint_data$[ebp]
  0127a	c7 40 08 00 00
	00 00		 mov	 DWORD PTR [eax+8], 0

; 800  : 
; 801  : 	hardpoint_data->sub_object_depth1 = AH64A_LHS_WING_TIP_MOUNT;

  01281	8b 45 f8	 mov	 eax, DWORD PTR _hardpoint_data$[ebp]
  01284	c7 40 10 04 00
	00 00		 mov	 DWORD PTR [eax+16], 4

; 802  : 	hardpoint_data->sub_object_depth2 = AH64A_RHS_WING_TIP_MOUNT;

  0128b	8b 45 f8	 mov	 eax, DWORD PTR _hardpoint_data$[ebp]
  0128e	c7 40 14 05 00
	00 00		 mov	 DWORD PTR [eax+20], 5

; 803  : 
; 804  : 	hardpoint_data->number_of_valid_weapon_types = 2;

  01295	8b 45 f8	 mov	 eax, DWORD PTR _hardpoint_data$[ebp]
  01298	c7 40 0c 02 00
	00 00		 mov	 DWORD PTR [eax+12], 2

; 805  : 
; 806  : 	hardpoint_data->valid_weapon_types =(entity_sub_types *) safe_malloc (sizeof (entity_sub_types) * hardpoint_data->number_of_valid_weapon_types);

  0129f	8b 45 f8	 mov	 eax, DWORD PTR _hardpoint_data$[ebp]
  012a2	8b 48 0c	 mov	 ecx, DWORD PTR [eax+12]
  012a5	c1 e1 02	 shl	 ecx, 2
  012a8	51		 push	 ecx
  012a9	e8 00 00 00 00	 call	 ?safe_malloc_memory@@YGPAXI@Z ; safe_malloc_memory
  012ae	8b 55 f8	 mov	 edx, DWORD PTR _hardpoint_data$[ebp]
  012b1	89 42 18	 mov	 DWORD PTR [edx+24], eax

; 807  : 
; 808  : 	hardpoint_data->valid_weapon_types [0] = ENTITY_SUB_TYPE_WEAPON_AIM92_STINGER;

  012b4	b8 04 00 00 00	 mov	 eax, 4
  012b9	6b c8 00	 imul	 ecx, eax, 0
  012bc	8b 55 f8	 mov	 edx, DWORD PTR _hardpoint_data$[ebp]
  012bf	8b 42 18	 mov	 eax, DWORD PTR [edx+24]
  012c2	c7 04 01 24 00
	00 00		 mov	 DWORD PTR [ecx+eax], 36	; 00000024H

; 809  : 	hardpoint_data->valid_weapon_types [1] = ENTITY_SUB_TYPE_WEAPON_NO_WEAPON;

  012c9	b8 04 00 00 00	 mov	 eax, 4
  012ce	c1 e0 00	 shl	 eax, 0
  012d1	8b 4d f8	 mov	 ecx, DWORD PTR _hardpoint_data$[ebp]
  012d4	8b 51 18	 mov	 edx, DWORD PTR [ecx+24]
  012d7	c7 04 10 00 00
	00 00		 mov	 DWORD PTR [eax+edx], 0

; 810  : 
; 811  : 	//////////////////////////
; 812  : 	//
; 813  : 	// KA50
; 814  : 	//
; 815  : 	//////////////////////////
; 816  : 
; 817  : 	gunship_data = &weapon_loading_gunship_database [GUNSHIP_TYPE_KA50];

  012de	b8 a8 00 00 00	 mov	 eax, 168		; 000000a8H
  012e3	6b c8 07	 imul	 ecx, eax, 7
  012e6	81 c1 00 00 00
	00		 add	 ecx, OFFSET ?weapon_loading_gunship_database@@3PAUWEAPON_LOADING_GUNSHIP_TYPE@@A
  012ec	89 4d fc	 mov	 DWORD PTR _gunship_data$[ebp], ecx

; 818  : 
; 819  : 	for (loop = 0; loop < NUM_WEAPON_LOADING_HARDPOINT_TYPES; loop ++)

  012ef	c7 45 f4 00 00
	00 00		 mov	 DWORD PTR _loop$[ebp], 0
  012f6	eb 09		 jmp	 SHORT $LN25@initialise
$LN23@initialise:
  012f8	8b 45 f4	 mov	 eax, DWORD PTR _loop$[ebp]
  012fb	83 c0 01	 add	 eax, 1
  012fe	89 45 f4	 mov	 DWORD PTR _loop$[ebp], eax
$LN25@initialise:
  01301	83 7d f4 06	 cmp	 DWORD PTR _loop$[ebp], 6
  01305	7d 16		 jge	 SHORT $LN24@initialise

; 820  : 	{
; 821  : 		memset (&(gunship_data->hardpoint_list [loop]), 0, sizeof (weapon_loading_hardpoint_type));

  01307	6a 1c		 push	 28			; 0000001cH
  01309	6a 00		 push	 0
  0130b	6b 45 f4 1c	 imul	 eax, DWORD PTR _loop$[ebp], 28
  0130f	03 45 fc	 add	 eax, DWORD PTR _gunship_data$[ebp]
  01312	50		 push	 eax
  01313	e8 00 00 00 00	 call	 _memset
  01318	83 c4 0c	 add	 esp, 12			; 0000000cH

; 822  : 	}

  0131b	eb db		 jmp	 SHORT $LN23@initialise
$LN24@initialise:

; 823  : 
; 824  : 	// GUN 1
; 825  : 
; 826  : 	hardpoint_data = &(gunship_data->hardpoint_list [WEAPON_LOADING_HARDPOINT_GUN1]);

  0131d	b8 1c 00 00 00	 mov	 eax, 28			; 0000001cH
  01322	6b c8 00	 imul	 ecx, eax, 0
  01325	03 4d fc	 add	 ecx, DWORD PTR _gunship_data$[ebp]
  01328	89 4d f8	 mov	 DWORD PTR _hardpoint_data$[ebp], ecx

; 827  : 
; 828  : 	hardpoint_data->valid = TRUE;

  0132b	8b 45 f8	 mov	 eax, DWORD PTR _hardpoint_data$[ebp]
  0132e	c7 00 01 00 00
	00		 mov	 DWORD PTR [eax], 1

; 829  : 
; 830  : 	hardpoint_data->fixed = TRUE;

  01334	8b 45 f8	 mov	 eax, DWORD PTR _hardpoint_data$[ebp]
  01337	c7 40 04 01 00
	00 00		 mov	 DWORD PTR [eax+4], 1

; 831  : 
; 832  : 	hardpoint_data->current_weapon_index = 0;

  0133e	8b 45 f8	 mov	 eax, DWORD PTR _hardpoint_data$[ebp]
  01341	c7 40 08 00 00
	00 00		 mov	 DWORD PTR [eax+8], 0

; 833  : 
; 834  : 	hardpoint_data->sub_object_depth1 = KA50_CANNON_TURRET;

  01348	8b 45 f8	 mov	 eax, DWORD PTR _hardpoint_data$[ebp]
  0134b	c7 40 10 00 00
	00 00		 mov	 DWORD PTR [eax+16], 0

; 835  : 	hardpoint_data->sub_object_depth2 = -1;

  01352	8b 45 f8	 mov	 eax, DWORD PTR _hardpoint_data$[ebp]
  01355	c7 40 14 ff ff
	ff ff		 mov	 DWORD PTR [eax+20], -1

; 836  : 
; 837  : 	hardpoint_data->number_of_valid_weapon_types = 1;

  0135c	8b 45 f8	 mov	 eax, DWORD PTR _hardpoint_data$[ebp]
  0135f	c7 40 0c 01 00
	00 00		 mov	 DWORD PTR [eax+12], 1

; 838  : 
; 839  : 	hardpoint_data->valid_weapon_types =(entity_sub_types *) safe_malloc (sizeof (entity_sub_types) * hardpoint_data->number_of_valid_weapon_types);

  01366	8b 45 f8	 mov	 eax, DWORD PTR _hardpoint_data$[ebp]
  01369	8b 48 0c	 mov	 ecx, DWORD PTR [eax+12]
  0136c	c1 e1 02	 shl	 ecx, 2
  0136f	51		 push	 ecx
  01370	e8 00 00 00 00	 call	 ?safe_malloc_memory@@YGPAXI@Z ; safe_malloc_memory
  01375	8b 55 f8	 mov	 edx, DWORD PTR _hardpoint_data$[ebp]
  01378	89 42 18	 mov	 DWORD PTR [edx+24], eax

; 840  : 
; 841  : 	hardpoint_data->valid_weapon_types [0] = ENTITY_SUB_TYPE_WEAPON_2A42_30MM_HE_ROUND;

  0137b	b8 04 00 00 00	 mov	 eax, 4
  01380	6b c8 00	 imul	 ecx, eax, 0
  01383	8b 55 f8	 mov	 edx, DWORD PTR _hardpoint_data$[ebp]
  01386	8b 42 18	 mov	 eax, DWORD PTR [edx+24]
  01389	c7 04 01 13 00
	00 00		 mov	 DWORD PTR [ecx+eax], 19	; 00000013H

; 842  : 
; 843  : 	// GUN 2
; 844  : 
; 845  : 	hardpoint_data = &(gunship_data->hardpoint_list [WEAPON_LOADING_HARDPOINT_GUN2]);

  01390	b8 1c 00 00 00	 mov	 eax, 28			; 0000001cH
  01395	c1 e0 00	 shl	 eax, 0
  01398	03 45 fc	 add	 eax, DWORD PTR _gunship_data$[ebp]
  0139b	89 45 f8	 mov	 DWORD PTR _hardpoint_data$[ebp], eax

; 846  : 
; 847  : 	hardpoint_data->valid = TRUE;

  0139e	8b 45 f8	 mov	 eax, DWORD PTR _hardpoint_data$[ebp]
  013a1	c7 00 01 00 00
	00		 mov	 DWORD PTR [eax], 1

; 848  : 
; 849  : 	hardpoint_data->fixed = TRUE;

  013a7	8b 45 f8	 mov	 eax, DWORD PTR _hardpoint_data$[ebp]
  013aa	c7 40 04 01 00
	00 00		 mov	 DWORD PTR [eax+4], 1

; 850  : 
; 851  : 	hardpoint_data->current_weapon_index = 0;

  013b1	8b 45 f8	 mov	 eax, DWORD PTR _hardpoint_data$[ebp]
  013b4	c7 40 08 00 00
	00 00		 mov	 DWORD PTR [eax+8], 0

; 852  : 
; 853  : 	hardpoint_data->sub_object_depth1 = KA50_CANNON_TURRET;

  013bb	8b 45 f8	 mov	 eax, DWORD PTR _hardpoint_data$[ebp]
  013be	c7 40 10 00 00
	00 00		 mov	 DWORD PTR [eax+16], 0

; 854  : 	hardpoint_data->sub_object_depth2 = -1;

  013c5	8b 45 f8	 mov	 eax, DWORD PTR _hardpoint_data$[ebp]
  013c8	c7 40 14 ff ff
	ff ff		 mov	 DWORD PTR [eax+20], -1

; 855  : 
; 856  : 	hardpoint_data->number_of_valid_weapon_types = 1;

  013cf	8b 45 f8	 mov	 eax, DWORD PTR _hardpoint_data$[ebp]
  013d2	c7 40 0c 01 00
	00 00		 mov	 DWORD PTR [eax+12], 1

; 857  : 
; 858  : 	hardpoint_data->valid_weapon_types =(entity_sub_types *) safe_malloc (sizeof (entity_sub_types) * hardpoint_data->number_of_valid_weapon_types);

  013d9	8b 45 f8	 mov	 eax, DWORD PTR _hardpoint_data$[ebp]
  013dc	8b 48 0c	 mov	 ecx, DWORD PTR [eax+12]
  013df	c1 e1 02	 shl	 ecx, 2
  013e2	51		 push	 ecx
  013e3	e8 00 00 00 00	 call	 ?safe_malloc_memory@@YGPAXI@Z ; safe_malloc_memory
  013e8	8b 55 f8	 mov	 edx, DWORD PTR _hardpoint_data$[ebp]
  013eb	89 42 18	 mov	 DWORD PTR [edx+24], eax

; 859  : 
; 860  : 	hardpoint_data->valid_weapon_types [0] = ENTITY_SUB_TYPE_WEAPON_2A42_30MM_AP_ROUND;

  013ee	b8 04 00 00 00	 mov	 eax, 4
  013f3	6b c8 00	 imul	 ecx, eax, 0
  013f6	8b 55 f8	 mov	 edx, DWORD PTR _hardpoint_data$[ebp]
  013f9	8b 42 18	 mov	 eax, DWORD PTR [edx+24]
  013fc	c7 04 01 14 00
	00 00		 mov	 DWORD PTR [ecx+eax], 20	; 00000014H

; 861  : 
; 862  : 	// INNER HARDPOINT
; 863  : 
; 864  : 	hardpoint_data = &(gunship_data->hardpoint_list [WEAPON_LOADING_HARDPOINT_INNER]);

  01403	b8 1c 00 00 00	 mov	 eax, 28			; 0000001cH
  01408	d1 e0		 shl	 eax, 1
  0140a	03 45 fc	 add	 eax, DWORD PTR _gunship_data$[ebp]
  0140d	89 45 f8	 mov	 DWORD PTR _hardpoint_data$[ebp], eax

; 865  : 
; 866  : 	hardpoint_data->valid = TRUE;

  01410	8b 45 f8	 mov	 eax, DWORD PTR _hardpoint_data$[ebp]
  01413	c7 00 01 00 00
	00		 mov	 DWORD PTR [eax], 1

; 867  : 
; 868  : 	hardpoint_data->fixed = FALSE;

  01419	8b 45 f8	 mov	 eax, DWORD PTR _hardpoint_data$[ebp]
  0141c	c7 40 04 00 00
	00 00		 mov	 DWORD PTR [eax+4], 0

; 869  : 
; 870  : 	hardpoint_data->current_weapon_index = 0;

  01423	8b 45 f8	 mov	 eax, DWORD PTR _hardpoint_data$[ebp]
  01426	c7 40 08 00 00
	00 00		 mov	 DWORD PTR [eax+8], 0

; 871  : 
; 872  : 	hardpoint_data->sub_object_depth1 = KA50_LHS_INNER_PYLON;

  0142d	8b 45 f8	 mov	 eax, DWORD PTR _hardpoint_data$[ebp]
  01430	c7 40 10 01 00
	00 00		 mov	 DWORD PTR [eax+16], 1

; 873  : 	hardpoint_data->sub_object_depth2 = KA50_RHS_INNER_PYLON;

  01437	8b 45 f8	 mov	 eax, DWORD PTR _hardpoint_data$[ebp]
  0143a	c7 40 14 02 00
	00 00		 mov	 DWORD PTR [eax+20], 2

; 874  : 
; 875  : 	hardpoint_data->number_of_valid_weapon_types = 5;

  01441	8b 45 f8	 mov	 eax, DWORD PTR _hardpoint_data$[ebp]
  01444	c7 40 0c 05 00
	00 00		 mov	 DWORD PTR [eax+12], 5

; 876  : 
; 877  : 	hardpoint_data->valid_weapon_types =(entity_sub_types *) safe_malloc (sizeof (entity_sub_types) * hardpoint_data->number_of_valid_weapon_types);

  0144b	8b 45 f8	 mov	 eax, DWORD PTR _hardpoint_data$[ebp]
  0144e	8b 48 0c	 mov	 ecx, DWORD PTR [eax+12]
  01451	c1 e1 02	 shl	 ecx, 2
  01454	51		 push	 ecx
  01455	e8 00 00 00 00	 call	 ?safe_malloc_memory@@YGPAXI@Z ; safe_malloc_memory
  0145a	8b 55 f8	 mov	 edx, DWORD PTR _hardpoint_data$[ebp]
  0145d	89 42 18	 mov	 DWORD PTR [edx+24], eax

; 878  : 
; 879  : 	hardpoint_data->valid_weapon_types [0] = ENTITY_SUB_TYPE_WEAPON_IGLA_V;

  01460	b8 04 00 00 00	 mov	 eax, 4
  01465	6b c8 00	 imul	 ecx, eax, 0
  01468	8b 55 f8	 mov	 edx, DWORD PTR _hardpoint_data$[ebp]
  0146b	8b 42 18	 mov	 eax, DWORD PTR [edx+24]
  0146e	c7 04 01 27 00
	00 00		 mov	 DWORD PTR [ecx+eax], 39	; 00000027H

; 880  : 	hardpoint_data->valid_weapon_types [1] = ENTITY_SUB_TYPE_WEAPON_S8;

  01475	b8 04 00 00 00	 mov	 eax, 4
  0147a	c1 e0 00	 shl	 eax, 0
  0147d	8b 4d f8	 mov	 ecx, DWORD PTR _hardpoint_data$[ebp]
  01480	8b 51 18	 mov	 edx, DWORD PTR [ecx+24]
  01483	c7 04 10 22 00
	00 00		 mov	 DWORD PTR [eax+edx], 34	; 00000022H

; 881  : 	hardpoint_data->valid_weapon_types [2] = ENTITY_SUB_TYPE_WEAPON_S13;

  0148a	b8 04 00 00 00	 mov	 eax, 4
  0148f	d1 e0		 shl	 eax, 1
  01491	8b 4d f8	 mov	 ecx, DWORD PTR _hardpoint_data$[ebp]
  01494	8b 51 18	 mov	 edx, DWORD PTR [ecx+24]
  01497	c7 04 10 23 00
	00 00		 mov	 DWORD PTR [eax+edx], 35	; 00000023H

; 882  : 	hardpoint_data->valid_weapon_types [3] = ENTITY_SUB_TYPE_WEAPON_GSH23L_23MM_ROUND;

  0149e	b8 04 00 00 00	 mov	 eax, 4
  014a3	6b c8 03	 imul	 ecx, eax, 3
  014a6	8b 55 f8	 mov	 edx, DWORD PTR _hardpoint_data$[ebp]
  014a9	8b 42 18	 mov	 eax, DWORD PTR [edx+24]
  014ac	c7 04 01 0f 00
	00 00		 mov	 DWORD PTR [ecx+eax], 15	; 0000000fH

; 883  : 	hardpoint_data->valid_weapon_types [4] = ENTITY_SUB_TYPE_WEAPON_NO_WEAPON;

  014b3	b8 04 00 00 00	 mov	 eax, 4
  014b8	c1 e0 02	 shl	 eax, 2
  014bb	8b 4d f8	 mov	 ecx, DWORD PTR _hardpoint_data$[ebp]
  014be	8b 51 18	 mov	 edx, DWORD PTR [ecx+24]
  014c1	c7 04 10 00 00
	00 00		 mov	 DWORD PTR [eax+edx], 0

; 884  : 
; 885  : 	// OUTER HARDPOINT
; 886  : 
; 887  : 	hardpoint_data = &(gunship_data->hardpoint_list [WEAPON_LOADING_HARDPOINT_OUTER]);

  014c8	b8 1c 00 00 00	 mov	 eax, 28			; 0000001cH
  014cd	c1 e0 02	 shl	 eax, 2
  014d0	03 45 fc	 add	 eax, DWORD PTR _gunship_data$[ebp]
  014d3	89 45 f8	 mov	 DWORD PTR _hardpoint_data$[ebp], eax

; 888  : 
; 889  : 	hardpoint_data->valid = TRUE;

  014d6	8b 45 f8	 mov	 eax, DWORD PTR _hardpoint_data$[ebp]
  014d9	c7 00 01 00 00
	00		 mov	 DWORD PTR [eax], 1

; 890  : 
; 891  : 	hardpoint_data->fixed = FALSE;

  014df	8b 45 f8	 mov	 eax, DWORD PTR _hardpoint_data$[ebp]
  014e2	c7 40 04 00 00
	00 00		 mov	 DWORD PTR [eax+4], 0

; 892  : 
; 893  : 	hardpoint_data->current_weapon_index = 0;

  014e9	8b 45 f8	 mov	 eax, DWORD PTR _hardpoint_data$[ebp]
  014ec	c7 40 08 00 00
	00 00		 mov	 DWORD PTR [eax+8], 0

; 894  : 
; 895  : 	hardpoint_data->sub_object_depth1 = KA50_LHS_OUTER_PYLON;

  014f3	8b 45 f8	 mov	 eax, DWORD PTR _hardpoint_data$[ebp]
  014f6	c7 40 10 03 00
	00 00		 mov	 DWORD PTR [eax+16], 3

; 896  : 	hardpoint_data->sub_object_depth2 = KA50_RHS_OUTER_PYLON;

  014fd	8b 45 f8	 mov	 eax, DWORD PTR _hardpoint_data$[ebp]
  01500	c7 40 14 04 00
	00 00		 mov	 DWORD PTR [eax+20], 4

; 897  : 
; 898  : 	hardpoint_data->number_of_valid_weapon_types = 6;

  01507	8b 45 f8	 mov	 eax, DWORD PTR _hardpoint_data$[ebp]
  0150a	c7 40 0c 06 00
	00 00		 mov	 DWORD PTR [eax+12], 6

; 899  : 
; 900  : 	hardpoint_data->valid_weapon_types =(entity_sub_types *) safe_malloc (sizeof (entity_sub_types) * hardpoint_data->number_of_valid_weapon_types);

  01511	8b 45 f8	 mov	 eax, DWORD PTR _hardpoint_data$[ebp]
  01514	8b 48 0c	 mov	 ecx, DWORD PTR [eax+12]
  01517	c1 e1 02	 shl	 ecx, 2
  0151a	51		 push	 ecx
  0151b	e8 00 00 00 00	 call	 ?safe_malloc_memory@@YGPAXI@Z ; safe_malloc_memory
  01520	8b 55 f8	 mov	 edx, DWORD PTR _hardpoint_data$[ebp]
  01523	89 42 18	 mov	 DWORD PTR [edx+24], eax

; 901  : 
; 902  : 	hardpoint_data->valid_weapon_types [0] = ENTITY_SUB_TYPE_WEAPON_VIKHR;

  01526	b8 04 00 00 00	 mov	 eax, 4
  0152b	6b c8 00	 imul	 ecx, eax, 0
  0152e	8b 55 f8	 mov	 edx, DWORD PTR _hardpoint_data$[ebp]
  01531	8b 42 18	 mov	 eax, DWORD PTR [edx+24]
  01534	c7 04 01 32 00
	00 00		 mov	 DWORD PTR [ecx+eax], 50	; 00000032H

; 903  : 	hardpoint_data->valid_weapon_types [1] = ENTITY_SUB_TYPE_WEAPON_IGLA_V;

  0153b	b8 04 00 00 00	 mov	 eax, 4
  01540	c1 e0 00	 shl	 eax, 0
  01543	8b 4d f8	 mov	 ecx, DWORD PTR _hardpoint_data$[ebp]
  01546	8b 51 18	 mov	 edx, DWORD PTR [ecx+24]
  01549	c7 04 10 27 00
	00 00		 mov	 DWORD PTR [eax+edx], 39	; 00000027H

; 904  : 	hardpoint_data->valid_weapon_types [2] = ENTITY_SUB_TYPE_WEAPON_S8;

  01550	b8 04 00 00 00	 mov	 eax, 4
  01555	d1 e0		 shl	 eax, 1
  01557	8b 4d f8	 mov	 ecx, DWORD PTR _hardpoint_data$[ebp]
  0155a	8b 51 18	 mov	 edx, DWORD PTR [ecx+24]
  0155d	c7 04 10 22 00
	00 00		 mov	 DWORD PTR [eax+edx], 34	; 00000022H

; 905  : 	hardpoint_data->valid_weapon_types [3] = ENTITY_SUB_TYPE_WEAPON_S13;

  01564	b8 04 00 00 00	 mov	 eax, 4
  01569	6b c8 03	 imul	 ecx, eax, 3
  0156c	8b 55 f8	 mov	 edx, DWORD PTR _hardpoint_data$[ebp]
  0156f	8b 42 18	 mov	 eax, DWORD PTR [edx+24]
  01572	c7 04 01 23 00
	00 00		 mov	 DWORD PTR [ecx+eax], 35	; 00000023H

; 906  : 	hardpoint_data->valid_weapon_types [4] = ENTITY_SUB_TYPE_WEAPON_GSH23L_23MM_ROUND;

  01579	b8 04 00 00 00	 mov	 eax, 4
  0157e	c1 e0 02	 shl	 eax, 2
  01581	8b 4d f8	 mov	 ecx, DWORD PTR _hardpoint_data$[ebp]
  01584	8b 51 18	 mov	 edx, DWORD PTR [ecx+24]
  01587	c7 04 10 0f 00
	00 00		 mov	 DWORD PTR [eax+edx], 15	; 0000000fH

; 907  : 	hardpoint_data->valid_weapon_types [5] = ENTITY_SUB_TYPE_WEAPON_NO_WEAPON;

  0158e	b8 04 00 00 00	 mov	 eax, 4
  01593	6b c8 05	 imul	 ecx, eax, 5
  01596	8b 55 f8	 mov	 edx, DWORD PTR _hardpoint_data$[ebp]
  01599	8b 42 18	 mov	 eax, DWORD PTR [edx+24]
  0159c	c7 04 01 00 00
	00 00		 mov	 DWORD PTR [ecx+eax], 0

; 908  : ////Moje 030817 End
; 909  : 
; 910  : 	//////////////////////////
; 911  : 	//
; 912  : 	// VIPER
; 913  : 	//
; 914  : 	//////////////////////////
; 915  : 
; 916  : 	gunship_data = &weapon_loading_gunship_database [GUNSHIP_TYPE_VIPER];

  015a3	b8 a8 00 00 00	 mov	 eax, 168		; 000000a8H
  015a8	c1 e0 03	 shl	 eax, 3
  015ab	05 00 00 00 00	 add	 eax, OFFSET ?weapon_loading_gunship_database@@3PAUWEAPON_LOADING_GUNSHIP_TYPE@@A
  015b0	89 45 fc	 mov	 DWORD PTR _gunship_data$[ebp], eax

; 917  : 
; 918  : 	for (loop = 0; loop < NUM_WEAPON_LOADING_HARDPOINT_TYPES; loop ++)

  015b3	c7 45 f4 00 00
	00 00		 mov	 DWORD PTR _loop$[ebp], 0
  015ba	eb 09		 jmp	 SHORT $LN28@initialise
$LN26@initialise:
  015bc	8b 45 f4	 mov	 eax, DWORD PTR _loop$[ebp]
  015bf	83 c0 01	 add	 eax, 1
  015c2	89 45 f4	 mov	 DWORD PTR _loop$[ebp], eax
$LN28@initialise:
  015c5	83 7d f4 06	 cmp	 DWORD PTR _loop$[ebp], 6
  015c9	7d 16		 jge	 SHORT $LN27@initialise

; 919  : 	{
; 920  : 		memset (&(gunship_data->hardpoint_list [loop]), 0, sizeof (weapon_loading_hardpoint_type));

  015cb	6a 1c		 push	 28			; 0000001cH
  015cd	6a 00		 push	 0
  015cf	6b 45 f4 1c	 imul	 eax, DWORD PTR _loop$[ebp], 28
  015d3	03 45 fc	 add	 eax, DWORD PTR _gunship_data$[ebp]
  015d6	50		 push	 eax
  015d7	e8 00 00 00 00	 call	 _memset
  015dc	83 c4 0c	 add	 esp, 12			; 0000000cH

; 921  : 	}

  015df	eb db		 jmp	 SHORT $LN26@initialise
$LN27@initialise:

; 922  : 
; 923  : 	// GUN 1
; 924  : 
; 925  : 	hardpoint_data = &(gunship_data->hardpoint_list [WEAPON_LOADING_HARDPOINT_GUN1]);

  015e1	b8 1c 00 00 00	 mov	 eax, 28			; 0000001cH
  015e6	6b c8 00	 imul	 ecx, eax, 0
  015e9	03 4d fc	 add	 ecx, DWORD PTR _gunship_data$[ebp]
  015ec	89 4d f8	 mov	 DWORD PTR _hardpoint_data$[ebp], ecx

; 926  : 
; 927  : 	hardpoint_data->valid = TRUE;

  015ef	8b 45 f8	 mov	 eax, DWORD PTR _hardpoint_data$[ebp]
  015f2	c7 00 01 00 00
	00		 mov	 DWORD PTR [eax], 1

; 928  : 
; 929  : 	hardpoint_data->fixed = TRUE;

  015f8	8b 45 f8	 mov	 eax, DWORD PTR _hardpoint_data$[ebp]
  015fb	c7 40 04 01 00
	00 00		 mov	 DWORD PTR [eax+4], 1

; 930  : 
; 931  : 	hardpoint_data->current_weapon_index = 0;

  01602	8b 45 f8	 mov	 eax, DWORD PTR _hardpoint_data$[ebp]
  01605	c7 40 08 00 00
	00 00		 mov	 DWORD PTR [eax+8], 0

; 932  : 
; 933  : 	hardpoint_data->sub_object_depth1 = VIPER_CANNON_TURRET;

  0160c	8b 45 f8	 mov	 eax, DWORD PTR _hardpoint_data$[ebp]
  0160f	c7 40 10 00 00
	00 00		 mov	 DWORD PTR [eax+16], 0

; 934  : 	hardpoint_data->sub_object_depth2 = -1;

  01616	8b 45 f8	 mov	 eax, DWORD PTR _hardpoint_data$[ebp]
  01619	c7 40 14 ff ff
	ff ff		 mov	 DWORD PTR [eax+20], -1

; 935  : 
; 936  : 	hardpoint_data->number_of_valid_weapon_types = 1;

  01620	8b 45 f8	 mov	 eax, DWORD PTR _hardpoint_data$[ebp]
  01623	c7 40 0c 01 00
	00 00		 mov	 DWORD PTR [eax+12], 1

; 937  : 
; 938  : 	hardpoint_data->valid_weapon_types =(entity_sub_types *) safe_malloc (sizeof (entity_sub_types) * hardpoint_data->number_of_valid_weapon_types);

  0162a	8b 45 f8	 mov	 eax, DWORD PTR _hardpoint_data$[ebp]
  0162d	8b 48 0c	 mov	 ecx, DWORD PTR [eax+12]
  01630	c1 e1 02	 shl	 ecx, 2
  01633	51		 push	 ecx
  01634	e8 00 00 00 00	 call	 ?safe_malloc_memory@@YGPAXI@Z ; safe_malloc_memory
  01639	8b 55 f8	 mov	 edx, DWORD PTR _hardpoint_data$[ebp]
  0163c	89 42 18	 mov	 DWORD PTR [edx+24], eax

; 939  : 
; 940  : 	hardpoint_data->valid_weapon_types [0] = ENTITY_SUB_TYPE_WEAPON_M197_20MM_ROUND;

  0163f	b8 04 00 00 00	 mov	 eax, 4
  01644	6b c8 00	 imul	 ecx, eax, 0
  01647	8b 55 f8	 mov	 edx, DWORD PTR _hardpoint_data$[ebp]
  0164a	8b 42 18	 mov	 eax, DWORD PTR [edx+24]
  0164d	c7 04 01 03 00
	00 00		 mov	 DWORD PTR [ecx+eax], 3

; 941  : 
; 942  : 	// INNER HARDPOINT
; 943  : 
; 944  : 	hardpoint_data = &(gunship_data->hardpoint_list [WEAPON_LOADING_HARDPOINT_INNER]);

  01654	b8 1c 00 00 00	 mov	 eax, 28			; 0000001cH
  01659	d1 e0		 shl	 eax, 1
  0165b	03 45 fc	 add	 eax, DWORD PTR _gunship_data$[ebp]
  0165e	89 45 f8	 mov	 DWORD PTR _hardpoint_data$[ebp], eax

; 945  : 
; 946  : 	hardpoint_data->valid = TRUE;

  01661	8b 45 f8	 mov	 eax, DWORD PTR _hardpoint_data$[ebp]
  01664	c7 00 01 00 00
	00		 mov	 DWORD PTR [eax], 1

; 947  : 
; 948  : 	hardpoint_data->fixed = FALSE;

  0166a	8b 45 f8	 mov	 eax, DWORD PTR _hardpoint_data$[ebp]
  0166d	c7 40 04 00 00
	00 00		 mov	 DWORD PTR [eax+4], 0

; 949  : 
; 950  : 	hardpoint_data->current_weapon_index = 0;

  01674	8b 45 f8	 mov	 eax, DWORD PTR _hardpoint_data$[ebp]
  01677	c7 40 08 00 00
	00 00		 mov	 DWORD PTR [eax+8], 0

; 951  : 
; 952  : 	hardpoint_data->sub_object_depth1 = VIPER_LHS_INNER_PYLON;

  0167e	8b 45 f8	 mov	 eax, DWORD PTR _hardpoint_data$[ebp]
  01681	c7 40 10 01 00
	00 00		 mov	 DWORD PTR [eax+16], 1

; 953  : 	hardpoint_data->sub_object_depth2 = VIPER_RHS_INNER_PYLON;

  01688	8b 45 f8	 mov	 eax, DWORD PTR _hardpoint_data$[ebp]
  0168b	c7 40 14 02 00
	00 00		 mov	 DWORD PTR [eax+20], 2

; 954  : 
; 955  : 	hardpoint_data->number_of_valid_weapon_types = 3;

  01692	8b 45 f8	 mov	 eax, DWORD PTR _hardpoint_data$[ebp]
  01695	c7 40 0c 03 00
	00 00		 mov	 DWORD PTR [eax+12], 3

; 956  : 
; 957  : 	hardpoint_data->valid_weapon_types =(entity_sub_types *) safe_malloc (sizeof (entity_sub_types) * hardpoint_data->number_of_valid_weapon_types);

  0169c	8b 45 f8	 mov	 eax, DWORD PTR _hardpoint_data$[ebp]
  0169f	8b 48 0c	 mov	 ecx, DWORD PTR [eax+12]
  016a2	c1 e1 02	 shl	 ecx, 2
  016a5	51		 push	 ecx
  016a6	e8 00 00 00 00	 call	 ?safe_malloc_memory@@YGPAXI@Z ; safe_malloc_memory
  016ab	8b 55 f8	 mov	 edx, DWORD PTR _hardpoint_data$[ebp]
  016ae	89 42 18	 mov	 DWORD PTR [edx+24], eax

; 958  : 
; 959  : 	hardpoint_data->valid_weapon_types [0] = ENTITY_SUB_TYPE_WEAPON_AGM114K_HELLFIRE_II;

  016b1	b8 04 00 00 00	 mov	 eax, 4
  016b6	6b c8 00	 imul	 ecx, eax, 0
  016b9	8b 55 f8	 mov	 edx, DWORD PTR _hardpoint_data$[ebp]
  016bc	8b 42 18	 mov	 eax, DWORD PTR [edx+24]
  016bf	c7 04 01 2e 00
	00 00		 mov	 DWORD PTR [ecx+eax], 46	; 0000002eH

; 960  : 	hardpoint_data->valid_weapon_types [1] = ENTITY_SUB_TYPE_WEAPON_HYDRA70_M255;

  016c6	b8 04 00 00 00	 mov	 eax, 4
  016cb	c1 e0 00	 shl	 eax, 0
  016ce	8b 4d f8	 mov	 ecx, DWORD PTR _hardpoint_data$[ebp]
  016d1	8b 51 18	 mov	 edx, DWORD PTR [ecx+24]
  016d4	c7 04 10 1e 00
	00 00		 mov	 DWORD PTR [eax+edx], 30	; 0000001eH

; 961  : 	hardpoint_data->valid_weapon_types [2] = ENTITY_SUB_TYPE_WEAPON_NO_WEAPON;

  016db	b8 04 00 00 00	 mov	 eax, 4
  016e0	d1 e0		 shl	 eax, 1
  016e2	8b 4d f8	 mov	 ecx, DWORD PTR _hardpoint_data$[ebp]
  016e5	8b 51 18	 mov	 edx, DWORD PTR [ecx+24]
  016e8	c7 04 10 00 00
	00 00		 mov	 DWORD PTR [eax+edx], 0

; 962  : 
; 963  : 	// OUTER HARDPOINT
; 964  : 
; 965  : 	hardpoint_data = &(gunship_data->hardpoint_list [WEAPON_LOADING_HARDPOINT_OUTER]);

  016ef	b8 1c 00 00 00	 mov	 eax, 28			; 0000001cH
  016f4	c1 e0 02	 shl	 eax, 2
  016f7	03 45 fc	 add	 eax, DWORD PTR _gunship_data$[ebp]
  016fa	89 45 f8	 mov	 DWORD PTR _hardpoint_data$[ebp], eax

; 966  : 
; 967  : 	hardpoint_data->valid = TRUE;

  016fd	8b 45 f8	 mov	 eax, DWORD PTR _hardpoint_data$[ebp]
  01700	c7 00 01 00 00
	00		 mov	 DWORD PTR [eax], 1

; 968  : 
; 969  : 	hardpoint_data->fixed = FALSE;

  01706	8b 45 f8	 mov	 eax, DWORD PTR _hardpoint_data$[ebp]
  01709	c7 40 04 00 00
	00 00		 mov	 DWORD PTR [eax+4], 0

; 970  : 
; 971  : 	hardpoint_data->current_weapon_index = 0;

  01710	8b 45 f8	 mov	 eax, DWORD PTR _hardpoint_data$[ebp]
  01713	c7 40 08 00 00
	00 00		 mov	 DWORD PTR [eax+8], 0

; 972  : 
; 973  : 	hardpoint_data->sub_object_depth1 = VIPER_LHS_OUTER_PYLON;

  0171a	8b 45 f8	 mov	 eax, DWORD PTR _hardpoint_data$[ebp]
  0171d	c7 40 10 03 00
	00 00		 mov	 DWORD PTR [eax+16], 3

; 974  : 	hardpoint_data->sub_object_depth2 = VIPER_RHS_OUTER_PYLON;

  01724	8b 45 f8	 mov	 eax, DWORD PTR _hardpoint_data$[ebp]
  01727	c7 40 14 04 00
	00 00		 mov	 DWORD PTR [eax+20], 4

; 975  : 
; 976  : 	hardpoint_data->number_of_valid_weapon_types = 3;

  0172e	8b 45 f8	 mov	 eax, DWORD PTR _hardpoint_data$[ebp]
  01731	c7 40 0c 03 00
	00 00		 mov	 DWORD PTR [eax+12], 3

; 977  : 
; 978  : 	hardpoint_data->valid_weapon_types =(entity_sub_types *) safe_malloc (sizeof (entity_sub_types) * hardpoint_data->number_of_valid_weapon_types);

  01738	8b 45 f8	 mov	 eax, DWORD PTR _hardpoint_data$[ebp]
  0173b	8b 48 0c	 mov	 ecx, DWORD PTR [eax+12]
  0173e	c1 e1 02	 shl	 ecx, 2
  01741	51		 push	 ecx
  01742	e8 00 00 00 00	 call	 ?safe_malloc_memory@@YGPAXI@Z ; safe_malloc_memory
  01747	8b 55 f8	 mov	 edx, DWORD PTR _hardpoint_data$[ebp]
  0174a	89 42 18	 mov	 DWORD PTR [edx+24], eax

; 979  : 
; 980  : 	hardpoint_data->valid_weapon_types [0] = ENTITY_SUB_TYPE_WEAPON_AGM114K_HELLFIRE_II;

  0174d	b8 04 00 00 00	 mov	 eax, 4
  01752	6b c8 00	 imul	 ecx, eax, 0
  01755	8b 55 f8	 mov	 edx, DWORD PTR _hardpoint_data$[ebp]
  01758	8b 42 18	 mov	 eax, DWORD PTR [edx+24]
  0175b	c7 04 01 2e 00
	00 00		 mov	 DWORD PTR [ecx+eax], 46	; 0000002eH

; 981  : 	hardpoint_data->valid_weapon_types [1] = ENTITY_SUB_TYPE_WEAPON_HYDRA70_M255;

  01762	b8 04 00 00 00	 mov	 eax, 4
  01767	c1 e0 00	 shl	 eax, 0
  0176a	8b 4d f8	 mov	 ecx, DWORD PTR _hardpoint_data$[ebp]
  0176d	8b 51 18	 mov	 edx, DWORD PTR [ecx+24]
  01770	c7 04 10 1e 00
	00 00		 mov	 DWORD PTR [eax+edx], 30	; 0000001eH

; 982  : 	hardpoint_data->valid_weapon_types [2] = ENTITY_SUB_TYPE_WEAPON_NO_WEAPON;

  01777	b8 04 00 00 00	 mov	 eax, 4
  0177c	d1 e0		 shl	 eax, 1
  0177e	8b 4d f8	 mov	 ecx, DWORD PTR _hardpoint_data$[ebp]
  01781	8b 51 18	 mov	 edx, DWORD PTR [ecx+24]
  01784	c7 04 10 00 00
	00 00		 mov	 DWORD PTR [eax+edx], 0

; 983  : 
; 984  : 	// WINGTIP HARDPOINT
; 985  : 
; 986  : 	hardpoint_data = &(gunship_data->hardpoint_list [WEAPON_LOADING_HARDPOINT_WINGTIP]);

  0178b	b8 1c 00 00 00	 mov	 eax, 28			; 0000001cH
  01790	6b c8 05	 imul	 ecx, eax, 5
  01793	03 4d fc	 add	 ecx, DWORD PTR _gunship_data$[ebp]
  01796	89 4d f8	 mov	 DWORD PTR _hardpoint_data$[ebp], ecx

; 987  : 
; 988  : 	hardpoint_data->valid = TRUE;

  01799	8b 45 f8	 mov	 eax, DWORD PTR _hardpoint_data$[ebp]
  0179c	c7 00 01 00 00
	00		 mov	 DWORD PTR [eax], 1

; 989  : 
; 990  : 	hardpoint_data->fixed = FALSE;

  017a2	8b 45 f8	 mov	 eax, DWORD PTR _hardpoint_data$[ebp]
  017a5	c7 40 04 00 00
	00 00		 mov	 DWORD PTR [eax+4], 0

; 991  : 
; 992  : 	hardpoint_data->current_weapon_index = 0;

  017ac	8b 45 f8	 mov	 eax, DWORD PTR _hardpoint_data$[ebp]
  017af	c7 40 08 00 00
	00 00		 mov	 DWORD PTR [eax+8], 0

; 993  : 
; 994  : 	hardpoint_data->sub_object_depth1 = VIPER_LHS_WING_TIP_MOUNT;

  017b6	8b 45 f8	 mov	 eax, DWORD PTR _hardpoint_data$[ebp]
  017b9	c7 40 10 05 00
	00 00		 mov	 DWORD PTR [eax+16], 5

; 995  : 	hardpoint_data->sub_object_depth2 = VIPER_RHS_WING_TIP_MOUNT;

  017c0	8b 45 f8	 mov	 eax, DWORD PTR _hardpoint_data$[ebp]
  017c3	c7 40 14 06 00
	00 00		 mov	 DWORD PTR [eax+20], 6

; 996  : 
; 997  : 	hardpoint_data->number_of_valid_weapon_types = 2;

  017ca	8b 45 f8	 mov	 eax, DWORD PTR _hardpoint_data$[ebp]
  017cd	c7 40 0c 02 00
	00 00		 mov	 DWORD PTR [eax+12], 2

; 998  : 
; 999  : 	hardpoint_data->valid_weapon_types =(entity_sub_types *) safe_malloc (sizeof (entity_sub_types) * hardpoint_data->number_of_valid_weapon_types);

  017d4	8b 45 f8	 mov	 eax, DWORD PTR _hardpoint_data$[ebp]
  017d7	8b 48 0c	 mov	 ecx, DWORD PTR [eax+12]
  017da	c1 e1 02	 shl	 ecx, 2
  017dd	51		 push	 ecx
  017de	e8 00 00 00 00	 call	 ?safe_malloc_memory@@YGPAXI@Z ; safe_malloc_memory
  017e3	8b 55 f8	 mov	 edx, DWORD PTR _hardpoint_data$[ebp]
  017e6	89 42 18	 mov	 DWORD PTR [edx+24], eax

; 1000 : 
; 1001 : 	hardpoint_data->valid_weapon_types [0] = ENTITY_SUB_TYPE_WEAPON_AIM9M_SIDEWINDER;

  017e9	b8 04 00 00 00	 mov	 eax, 4
  017ee	6b c8 00	 imul	 ecx, eax, 0
  017f1	8b 55 f8	 mov	 edx, DWORD PTR _hardpoint_data$[ebp]
  017f4	8b 42 18	 mov	 eax, DWORD PTR [edx+24]
  017f7	c7 04 01 25 00
	00 00		 mov	 DWORD PTR [ecx+eax], 37	; 00000025H

; 1002 : 	hardpoint_data->valid_weapon_types [1] = ENTITY_SUB_TYPE_WEAPON_NO_WEAPON;

  017fe	b8 04 00 00 00	 mov	 eax, 4
  01803	c1 e0 00	 shl	 eax, 0
  01806	8b 4d f8	 mov	 ecx, DWORD PTR _hardpoint_data$[ebp]
  01809	8b 51 18	 mov	 edx, DWORD PTR [ecx+24]
  0180c	c7 04 10 00 00
	00 00		 mov	 DWORD PTR [eax+edx], 0

; 1003 : 
; 1004 : 	//////////////////////////
; 1005 : 	//
; 1006 : 	// KIOWA
; 1007 : 	//
; 1008 : 	//////////////////////////
; 1009 : 
; 1010 : 	gunship_data = &weapon_loading_gunship_database [GUNSHIP_TYPE_KIOWA];

  01813	b8 a8 00 00 00	 mov	 eax, 168		; 000000a8H
  01818	6b c8 09	 imul	 ecx, eax, 9
  0181b	81 c1 00 00 00
	00		 add	 ecx, OFFSET ?weapon_loading_gunship_database@@3PAUWEAPON_LOADING_GUNSHIP_TYPE@@A
  01821	89 4d fc	 mov	 DWORD PTR _gunship_data$[ebp], ecx

; 1011 : 
; 1012 : 	for (loop = 0; loop < NUM_WEAPON_LOADING_HARDPOINT_TYPES; loop ++)

  01824	c7 45 f4 00 00
	00 00		 mov	 DWORD PTR _loop$[ebp], 0
  0182b	eb 09		 jmp	 SHORT $LN31@initialise
$LN29@initialise:
  0182d	8b 45 f4	 mov	 eax, DWORD PTR _loop$[ebp]
  01830	83 c0 01	 add	 eax, 1
  01833	89 45 f4	 mov	 DWORD PTR _loop$[ebp], eax
$LN31@initialise:
  01836	83 7d f4 06	 cmp	 DWORD PTR _loop$[ebp], 6
  0183a	7d 16		 jge	 SHORT $LN30@initialise

; 1013 : 	{
; 1014 : 		memset (&(gunship_data->hardpoint_list [loop]), 0, sizeof (weapon_loading_hardpoint_type));

  0183c	6a 1c		 push	 28			; 0000001cH
  0183e	6a 00		 push	 0
  01840	6b 45 f4 1c	 imul	 eax, DWORD PTR _loop$[ebp], 28
  01844	03 45 fc	 add	 eax, DWORD PTR _gunship_data$[ebp]
  01847	50		 push	 eax
  01848	e8 00 00 00 00	 call	 _memset
  0184d	83 c4 0c	 add	 esp, 12			; 0000000cH

; 1015 : 	}

  01850	eb db		 jmp	 SHORT $LN29@initialise
$LN30@initialise:

; 1016 : 
; 1017 : 	// INNER HARDPOINT
; 1018 : 
; 1019 : 	hardpoint_data = &(gunship_data->hardpoint_list [WEAPON_LOADING_HARDPOINT_INNER]);

  01852	b8 1c 00 00 00	 mov	 eax, 28			; 0000001cH
  01857	d1 e0		 shl	 eax, 1
  01859	03 45 fc	 add	 eax, DWORD PTR _gunship_data$[ebp]
  0185c	89 45 f8	 mov	 DWORD PTR _hardpoint_data$[ebp], eax

; 1020 : 
; 1021 : 	hardpoint_data->valid = TRUE;

  0185f	8b 45 f8	 mov	 eax, DWORD PTR _hardpoint_data$[ebp]
  01862	c7 00 01 00 00
	00		 mov	 DWORD PTR [eax], 1

; 1022 : 
; 1023 : 	hardpoint_data->fixed = FALSE;

  01868	8b 45 f8	 mov	 eax, DWORD PTR _hardpoint_data$[ebp]
  0186b	c7 40 04 00 00
	00 00		 mov	 DWORD PTR [eax+4], 0

; 1024 : 
; 1025 : 	hardpoint_data->current_weapon_index = 0;

  01872	8b 45 f8	 mov	 eax, DWORD PTR _hardpoint_data$[ebp]
  01875	c7 40 08 00 00
	00 00		 mov	 DWORD PTR [eax+8], 0

; 1026 : 
; 1027 : 	hardpoint_data->sub_object_depth1 = KIOWA_LHS_PYLON;

  0187c	8b 45 f8	 mov	 eax, DWORD PTR _hardpoint_data$[ebp]
  0187f	c7 40 10 00 00
	00 00		 mov	 DWORD PTR [eax+16], 0

; 1028 : 	hardpoint_data->sub_object_depth2 = -1;

  01886	8b 45 f8	 mov	 eax, DWORD PTR _hardpoint_data$[ebp]
  01889	c7 40 14 ff ff
	ff ff		 mov	 DWORD PTR [eax+20], -1

; 1029 : 
; 1030 : 	hardpoint_data->number_of_valid_weapon_types = 5;

  01890	8b 45 f8	 mov	 eax, DWORD PTR _hardpoint_data$[ebp]
  01893	c7 40 0c 05 00
	00 00		 mov	 DWORD PTR [eax+12], 5

; 1031 : 
; 1032 : 	hardpoint_data->valid_weapon_types =(entity_sub_types *) safe_malloc (sizeof (entity_sub_types) * hardpoint_data->number_of_valid_weapon_types);

  0189a	8b 45 f8	 mov	 eax, DWORD PTR _hardpoint_data$[ebp]
  0189d	8b 48 0c	 mov	 ecx, DWORD PTR [eax+12]
  018a0	c1 e1 02	 shl	 ecx, 2
  018a3	51		 push	 ecx
  018a4	e8 00 00 00 00	 call	 ?safe_malloc_memory@@YGPAXI@Z ; safe_malloc_memory
  018a9	8b 55 f8	 mov	 edx, DWORD PTR _hardpoint_data$[ebp]
  018ac	89 42 18	 mov	 DWORD PTR [edx+24], eax

; 1033 : 
; 1034 : 	hardpoint_data->valid_weapon_types [0] = ENTITY_SUB_TYPE_WEAPON_AGM114K_HELLFIRE_II;

  018af	b8 04 00 00 00	 mov	 eax, 4
  018b4	6b c8 00	 imul	 ecx, eax, 0
  018b7	8b 55 f8	 mov	 edx, DWORD PTR _hardpoint_data$[ebp]
  018ba	8b 42 18	 mov	 eax, DWORD PTR [edx+24]
  018bd	c7 04 01 2e 00
	00 00		 mov	 DWORD PTR [ecx+eax], 46	; 0000002eH

; 1035 : 	hardpoint_data->valid_weapon_types [1] = ENTITY_SUB_TYPE_WEAPON_AIM92_STINGER;

  018c4	b8 04 00 00 00	 mov	 eax, 4
  018c9	c1 e0 00	 shl	 eax, 0
  018cc	8b 4d f8	 mov	 ecx, DWORD PTR _hardpoint_data$[ebp]
  018cf	8b 51 18	 mov	 edx, DWORD PTR [ecx+24]
  018d2	c7 04 10 24 00
	00 00		 mov	 DWORD PTR [eax+edx], 36	; 00000024H

; 1036 : 	hardpoint_data->valid_weapon_types [2] = ENTITY_SUB_TYPE_WEAPON_HYDRA70_M261;

  018d9	b8 04 00 00 00	 mov	 eax, 4
  018de	d1 e0		 shl	 eax, 1
  018e0	8b 4d f8	 mov	 ecx, DWORD PTR _hardpoint_data$[ebp]
  018e3	8b 51 18	 mov	 edx, DWORD PTR [ecx+24]
  018e6	c7 04 10 1f 00
	00 00		 mov	 DWORD PTR [eax+edx], 31	; 0000001fH

; 1037 : 	hardpoint_data->valid_weapon_types [3] = ENTITY_SUB_TYPE_WEAPON_M2_12P7MM_ROUND;

  018ed	b8 04 00 00 00	 mov	 eax, 4
  018f2	6b c8 03	 imul	 ecx, eax, 3
  018f5	8b 55 f8	 mov	 edx, DWORD PTR _hardpoint_data$[ebp]
  018f8	8b 42 18	 mov	 eax, DWORD PTR [edx+24]
  018fb	c7 04 01 01 00
	00 00		 mov	 DWORD PTR [ecx+eax], 1

; 1038 : 	hardpoint_data->valid_weapon_types [4] = ENTITY_SUB_TYPE_WEAPON_NO_WEAPON;

  01902	b8 04 00 00 00	 mov	 eax, 4
  01907	c1 e0 02	 shl	 eax, 2
  0190a	8b 4d f8	 mov	 ecx, DWORD PTR _hardpoint_data$[ebp]
  0190d	8b 51 18	 mov	 edx, DWORD PTR [ecx+24]
  01910	c7 04 10 00 00
	00 00		 mov	 DWORD PTR [eax+edx], 0

; 1039 : 
; 1040 : 	// OUTER HARDPOINT
; 1041 : 
; 1042 : 	hardpoint_data = &(gunship_data->hardpoint_list [WEAPON_LOADING_HARDPOINT_OUTER]);

  01917	b8 1c 00 00 00	 mov	 eax, 28			; 0000001cH
  0191c	c1 e0 02	 shl	 eax, 2
  0191f	03 45 fc	 add	 eax, DWORD PTR _gunship_data$[ebp]
  01922	89 45 f8	 mov	 DWORD PTR _hardpoint_data$[ebp], eax

; 1043 : 
; 1044 : 	hardpoint_data->valid = TRUE;

  01925	8b 45 f8	 mov	 eax, DWORD PTR _hardpoint_data$[ebp]
  01928	c7 00 01 00 00
	00		 mov	 DWORD PTR [eax], 1

; 1045 : 
; 1046 : 	hardpoint_data->fixed = FALSE;

  0192e	8b 45 f8	 mov	 eax, DWORD PTR _hardpoint_data$[ebp]
  01931	c7 40 04 00 00
	00 00		 mov	 DWORD PTR [eax+4], 0

; 1047 : 
; 1048 : 	hardpoint_data->current_weapon_index = 0;

  01938	8b 45 f8	 mov	 eax, DWORD PTR _hardpoint_data$[ebp]
  0193b	c7 40 08 00 00
	00 00		 mov	 DWORD PTR [eax+8], 0

; 1049 : 
; 1050 : 	hardpoint_data->sub_object_depth1 = KIOWA_RHS_PYLON;

  01942	8b 45 f8	 mov	 eax, DWORD PTR _hardpoint_data$[ebp]
  01945	c7 40 10 01 00
	00 00		 mov	 DWORD PTR [eax+16], 1

; 1051 : 	hardpoint_data->sub_object_depth2 = -1;

  0194c	8b 45 f8	 mov	 eax, DWORD PTR _hardpoint_data$[ebp]
  0194f	c7 40 14 ff ff
	ff ff		 mov	 DWORD PTR [eax+20], -1

; 1052 : 
; 1053 : 	hardpoint_data->number_of_valid_weapon_types = 4;

  01956	8b 45 f8	 mov	 eax, DWORD PTR _hardpoint_data$[ebp]
  01959	c7 40 0c 04 00
	00 00		 mov	 DWORD PTR [eax+12], 4

; 1054 : 
; 1055 : 	hardpoint_data->valid_weapon_types =(entity_sub_types *) safe_malloc (sizeof (entity_sub_types) * hardpoint_data->number_of_valid_weapon_types);

  01960	8b 45 f8	 mov	 eax, DWORD PTR _hardpoint_data$[ebp]
  01963	8b 48 0c	 mov	 ecx, DWORD PTR [eax+12]
  01966	c1 e1 02	 shl	 ecx, 2
  01969	51		 push	 ecx
  0196a	e8 00 00 00 00	 call	 ?safe_malloc_memory@@YGPAXI@Z ; safe_malloc_memory
  0196f	8b 55 f8	 mov	 edx, DWORD PTR _hardpoint_data$[ebp]
  01972	89 42 18	 mov	 DWORD PTR [edx+24], eax

; 1056 : 
; 1057 : 	hardpoint_data->valid_weapon_types [0] = ENTITY_SUB_TYPE_WEAPON_AGM114K_HELLFIRE_II;

  01975	b8 04 00 00 00	 mov	 eax, 4
  0197a	6b c8 00	 imul	 ecx, eax, 0
  0197d	8b 55 f8	 mov	 edx, DWORD PTR _hardpoint_data$[ebp]
  01980	8b 42 18	 mov	 eax, DWORD PTR [edx+24]
  01983	c7 04 01 2e 00
	00 00		 mov	 DWORD PTR [ecx+eax], 46	; 0000002eH

; 1058 : 	hardpoint_data->valid_weapon_types [1] = ENTITY_SUB_TYPE_WEAPON_AIM92_STINGER;

  0198a	b8 04 00 00 00	 mov	 eax, 4
  0198f	c1 e0 00	 shl	 eax, 0
  01992	8b 4d f8	 mov	 ecx, DWORD PTR _hardpoint_data$[ebp]
  01995	8b 51 18	 mov	 edx, DWORD PTR [ecx+24]
  01998	c7 04 10 24 00
	00 00		 mov	 DWORD PTR [eax+edx], 36	; 00000024H

; 1059 : 	hardpoint_data->valid_weapon_types [2] = ENTITY_SUB_TYPE_WEAPON_HYDRA70_M261;

  0199f	b8 04 00 00 00	 mov	 eax, 4
  019a4	d1 e0		 shl	 eax, 1
  019a6	8b 4d f8	 mov	 ecx, DWORD PTR _hardpoint_data$[ebp]
  019a9	8b 51 18	 mov	 edx, DWORD PTR [ecx+24]
  019ac	c7 04 10 1f 00
	00 00		 mov	 DWORD PTR [eax+edx], 31	; 0000001fH

; 1060 : 	hardpoint_data->valid_weapon_types [3] = ENTITY_SUB_TYPE_WEAPON_NO_WEAPON;

  019b3	b8 04 00 00 00	 mov	 eax, 4
  019b8	6b c8 03	 imul	 ecx, eax, 3
  019bb	8b 55 f8	 mov	 edx, DWORD PTR _hardpoint_data$[ebp]
  019be	8b 42 18	 mov	 eax, DWORD PTR [edx+24]
  019c1	c7 04 01 00 00
	00 00		 mov	 DWORD PTR [ecx+eax], 0

; 1061 : }

  019c8	5f		 pop	 edi
  019c9	5e		 pop	 esi
  019ca	5b		 pop	 ebx
  019cb	8b e5		 mov	 esp, ebp
  019cd	5d		 pop	 ebp
  019ce	c3		 ret	 0
?initialise_weapon_loading_gunship_database@@YGXXZ ENDP	; initialise_weapon_loading_gunship_database
_TEXT	ENDS
END
