; Listing generated by Microsoft (R) Optimizing Compiler Version 19.16.27045.0 

	TITLE	C:\Users\nhv90\Projects\eech\aphavoc\source\entity\special\waypoint\wp_draw.c
	.686P
	.XMM
	include listing.inc
	.model	flat

INCLUDELIB MSVCRTD
INCLUDELIB OLDNAMES

PUBLIC	?draw_local_waypoint_2d_symbol@@YGXPAUENTITY@@HHW4SYS_COLOURS@@@Z ; draw_local_waypoint_2d_symbol
PUBLIC	?overload_waypoint_draw_functions@@YGXXZ	; overload_waypoint_draw_functions
PUBLIC	?__LINE__Var@?0??draw_local_waypoint_2d_symbol@@YGXPAUENTITY@@HHW4SYS_COLOURS@@@Z@4JA ; `draw_local_waypoint_2d_symbol'::`1'::__LINE__Var
PUBLIC	??_C@_0EO@BNAIALCN@c?3?2users?2nhv90?2projects?2eech?2ap@ ; `string'
PUBLIC	??_C@_0CB@FFBGFNMJ@en?9?$DOtype?5?$DN?$DN?5ENTITY_TYPE_WAYPOIN@ ; `string'
PUBLIC	__real@40000000
EXTRN	?process_assert@@YGXPBD0H@Z:PROC		; process_assert
EXTRN	?reset_2d_instance@@YGXPAUENV_2D@@@Z:PROC	; reset_2d_instance
EXTRN	?draw_2d_half_thick_line@@YGXMMMMUREAL_COLOUR@@@Z:PROC ; draw_2d_half_thick_line
EXTRN	?get_formation@@YGPAUFORMATION_TYPE@@W4FORMATION_TYPES@@@Z:PROC ; get_formation
EXTRN	?get_local_waypoint_formation_position@@YGXHPAUENTITY@@PAUVEC3D@@@Z:PROC ; get_local_waypoint_formation_position
EXTRN	?sys_colour_table@@3PAPAUREAL_COLOUR@@A:BYTE	; sys_colour_table
EXTRN	?active_2d_environment@@3PAUENV_2D@@A:DWORD	; active_2d_environment
EXTRN	?null_entity_pointer_message@@3PBDB:DWORD	; null_entity_pointer_message
EXTRN	?overload_invalid_list_type_message@@3PBDB:DWORD ; overload_invalid_list_type_message
EXTRN	?fn_get_local_entity_first_child@@3PAY0CN@P6GPAUENTITY@@PAU1@W4LIST_TYPES@@@ZA:BYTE ; fn_get_local_entity_first_child
EXTRN	?fn_get_local_entity_parent@@3PAY0CN@P6GPAUENTITY@@PAU1@W4LIST_TYPES@@@ZA:BYTE ; fn_get_local_entity_parent
EXTRN	__fltused:DWORD
;	COMDAT __real@40000000
CONST	SEGMENT
__real@40000000 DD 040000000r			; 2
CONST	ENDS
;	COMDAT ??_C@_0CB@FFBGFNMJ@en?9?$DOtype?5?$DN?$DN?5ENTITY_TYPE_WAYPOIN@
CONST	SEGMENT
??_C@_0CB@FFBGFNMJ@en?9?$DOtype?5?$DN?$DN?5ENTITY_TYPE_WAYPOIN@ DB 'en->t'
	DB	'ype == ENTITY_TYPE_WAYPOINT', 00H		; `string'
CONST	ENDS
;	COMDAT ??_C@_0EO@BNAIALCN@c?3?2users?2nhv90?2projects?2eech?2ap@
CONST	SEGMENT
??_C@_0EO@BNAIALCN@c?3?2users?2nhv90?2projects?2eech?2ap@ DB 'c:\users\nh'
	DB	'v90\projects\eech\aphavoc\source\entity\special\waypoint\wp_d'
	DB	'raw.c', 00H					; `string'
CONST	ENDS
;	COMDAT ?__LINE__Var@?0??draw_local_waypoint_2d_symbol@@YGXPAUENTITY@@HHW4SYS_COLOURS@@@Z@4JA
_DATA	SEGMENT
?__LINE__Var@?0??draw_local_waypoint_2d_symbol@@YGXPAUENTITY@@HHW4SYS_COLOURS@@@Z@4JA DD 0e6H ; `draw_local_waypoint_2d_symbol'::`1'::__LINE__Var
_DATA	ENDS
; Function compile flags: /Odtp /ZI
; File c:\users\nhv90\projects\eech\aphavoc\source\entity\special\waypoint\wp_draw.c
;	COMDAT ?overload_waypoint_draw_functions@@YGXXZ
_TEXT	SEGMENT
?overload_waypoint_draw_functions@@YGXXZ PROC		; overload_waypoint_draw_functions, COMDAT

; 315  : {

  00000	55		 push	 ebp
  00001	8b ec		 mov	 ebp, esp
  00003	83 ec 40	 sub	 esp, 64			; 00000040H
  00006	53		 push	 ebx
  00007	56		 push	 esi
  00008	57		 push	 edi

; 316  : 	#if DEBUG_MODULE
; 317  : 
; 318  : 	fn_draw_local_entity_3d_object[ENTITY_TYPE_WAYPOINT]	= draw_local_3d_object;
; 319  : 
; 320  : 	#endif
; 321  : }

  00009	5f		 pop	 edi
  0000a	5e		 pop	 esi
  0000b	5b		 pop	 ebx
  0000c	8b e5		 mov	 esp, ebp
  0000e	5d		 pop	 ebp
  0000f	c3		 ret	 0
?overload_waypoint_draw_functions@@YGXXZ ENDP		; overload_waypoint_draw_functions
_TEXT	ENDS
; Function compile flags: /Odtp /ZI
; File c:\users\nhv90\projects\eech\aphavoc\source\entity\special\waypoint\wp_draw.c
;	COMDAT ?draw_local_waypoint_2d_symbol@@YGXPAUENTITY@@HHW4SYS_COLOURS@@@Z
_TEXT	SEGMENT
tv141 = -128						; size = 4
tv85 = -128						; size = 4
tv133 = -124						; size = 4
tv77 = -124						; size = 4
_add_waypoint_icon_position$1 = -56			; size = 12
_formation_data$ = -44					; size = 4
_position2$ = -40					; size = 12
_position1$ = -28					; size = 12
_raw$ = -16						; size = 4
_succ$ = -12						; size = 4
_task$ = -8						; size = 4
_loop$ = -4						; size = 4
_en$ = 8						; size = 4
_add_waypoint_flag$ = 12				; size = 4
_draw_waypoint_icon$ = 16				; size = 4
_waypoint_route_colour$ = 20				; size = 4
?draw_local_waypoint_2d_symbol@@YGXPAUENTITY@@HHW4SYS_COLOURS@@@Z PROC ; draw_local_waypoint_2d_symbol, COMDAT

; 230  : {

  00000	55		 push	 ebp
  00001	8b ec		 mov	 ebp, esp
  00003	81 ec 80 00 00
	00		 sub	 esp, 128		; 00000080H
  00009	53		 push	 ebx
  0000a	56		 push	 esi
  0000b	57		 push	 edi

; 231  : 
; 232  : 	int
; 233  : 		loop;
; 234  : 
; 235  : 	entity
; 236  : 		*task,
; 237  : 		*succ;
; 238  : 
; 239  : 	waypoint
; 240  : 		*raw;
; 241  : 
; 242  : 	vec3d
; 243  : 		position1,
; 244  : 		position2;
; 245  : 
; 246  : 	formation_type
; 247  : 		*formation_data;
; 248  : 
; 249  : 	ASSERT (en->type == ENTITY_TYPE_WAYPOINT);

  0000c	8b 45 08	 mov	 eax, DWORD PTR _en$[ebp]
  0000f	83 38 24	 cmp	 DWORD PTR [eax], 36	; 00000024H
  00012	74 18		 je	 SHORT $LN5@draw_local
  00014	a1 00 00 00 00	 mov	 eax, DWORD PTR ?__LINE__Var@?0??draw_local_waypoint_2d_symbol@@YGXPAUENTITY@@HHW4SYS_COLOURS@@@Z@4JA
  00019	83 c0 13	 add	 eax, 19			; 00000013H
  0001c	50		 push	 eax
  0001d	68 00 00 00 00	 push	 OFFSET ??_C@_0EO@BNAIALCN@c?3?2users?2nhv90?2projects?2eech?2ap@
  00022	68 00 00 00 00	 push	 OFFSET ??_C@_0CB@FFBGFNMJ@en?9?$DOtype?5?$DN?$DN?5ENTITY_TYPE_WAYPOIN@
  00027	e8 00 00 00 00	 call	 ?process_assert@@YGXPBD0H@Z ; process_assert
$LN5@draw_local:

; 250  : 
; 251  : 	raw = (waypoint *) get_local_entity_data (en);

  0002c	8b 45 08	 mov	 eax, DWORD PTR _en$[ebp]
  0002f	8b 48 04	 mov	 ecx, DWORD PTR [eax+4]
  00032	89 4d f0	 mov	 DWORD PTR _raw$[ebp], ecx

; 252  : 
; 253  : 	task = get_local_entity_parent (en, LIST_TYPE_WAYPOINT);

  00035	83 7d 08 00	 cmp	 DWORD PTR _en$[ebp], 0
  00039	74 0a		 je	 SHORT $LN10@draw_local
  0003b	8b 45 08	 mov	 eax, DWORD PTR _en$[ebp]
  0003e	8b 08		 mov	 ecx, DWORD PTR [eax]
  00040	89 4d 84	 mov	 DWORD PTR tv77[ebp], ecx
  00043	eb 21		 jmp	 SHORT $LN11@draw_local
$LN10@draw_local:
  00045	8b 15 00 00 00
	00		 mov	 edx, DWORD PTR ?__LINE__Var@?0??draw_local_waypoint_2d_symbol@@YGXPAUENTITY@@HHW4SYS_COLOURS@@@Z@4JA
  0004b	83 c2 17	 add	 edx, 23			; 00000017H
  0004e	52		 push	 edx
  0004f	68 00 00 00 00	 push	 OFFSET ??_C@_0EO@BNAIALCN@c?3?2users?2nhv90?2projects?2eech?2ap@
  00054	a1 00 00 00 00	 mov	 eax, DWORD PTR ?null_entity_pointer_message@@3PBDB ; null_entity_pointer_message
  00059	50		 push	 eax
  0005a	e8 00 00 00 00	 call	 ?process_assert@@YGXPBD0H@Z ; process_assert
  0005f	c7 45 84 00 00
	00 00		 mov	 DWORD PTR tv77[ebp], 0
$LN11@draw_local:
  00066	b9 01 00 00 00	 mov	 ecx, 1
  0006b	85 c9		 test	 ecx, ecx
  0006d	74 09		 je	 SHORT $LN12@draw_local
  0006f	c7 45 80 2c 00
	00 00		 mov	 DWORD PTR tv85[ebp], 44	; 0000002cH
  00076	eb 21		 jmp	 SHORT $LN13@draw_local
$LN12@draw_local:
  00078	8b 15 00 00 00
	00		 mov	 edx, DWORD PTR ?__LINE__Var@?0??draw_local_waypoint_2d_symbol@@YGXPAUENTITY@@HHW4SYS_COLOURS@@@Z@4JA
  0007e	83 c2 17	 add	 edx, 23			; 00000017H
  00081	52		 push	 edx
  00082	68 00 00 00 00	 push	 OFFSET ??_C@_0EO@BNAIALCN@c?3?2users?2nhv90?2projects?2eech?2ap@
  00087	a1 00 00 00 00	 mov	 eax, DWORD PTR ?overload_invalid_list_type_message@@3PBDB ; overload_invalid_list_type_message
  0008c	50		 push	 eax
  0008d	e8 00 00 00 00	 call	 ?process_assert@@YGXPBD0H@Z ; process_assert
  00092	c7 45 80 00 00
	00 00		 mov	 DWORD PTR tv85[ebp], 0
$LN13@draw_local:
  00099	6a 2c		 push	 44			; 0000002cH
  0009b	8b 4d 08	 mov	 ecx, DWORD PTR _en$[ebp]
  0009e	51		 push	 ecx
  0009f	69 55 84 b4 00
	00 00		 imul	 edx, DWORD PTR tv77[ebp], 180
  000a6	8b 45 80	 mov	 eax, DWORD PTR tv85[ebp]
  000a9	8b 8c 82 00 00
	00 00		 mov	 ecx, DWORD PTR ?fn_get_local_entity_parent@@3PAY0CN@P6GPAUENTITY@@PAU1@W4LIST_TYPES@@@ZA[edx+eax*4]
  000b0	ff d1		 call	 ecx
  000b2	89 45 f8	 mov	 DWORD PTR _task$[ebp], eax

; 254  : 
; 255  : 	succ = raw->waypoint_link.child_succ;

  000b5	8b 45 f0	 mov	 eax, DWORD PTR _raw$[ebp]
  000b8	8b 48 18	 mov	 ecx, DWORD PTR [eax+24]
  000bb	89 4d f4	 mov	 DWORD PTR _succ$[ebp], ecx

; 256  : 
; 257  : 	//
; 258  : 	// Complete waypoint route for "loop" waypoints
; 259  : 	//
; 260  : 
; 261  : 	if (raw->sub_type == ENTITY_SUB_TYPE_WAYPOINT_HOLDING_LOOP)

  000be	8b 45 f0	 mov	 eax, DWORD PTR _raw$[ebp]
  000c1	83 38 0b	 cmp	 DWORD PTR [eax], 11	; 0000000bH
  000c4	0f 85 80 00 00
	00		 jne	 $LN6@draw_local

; 262  : 	{
; 263  : 
; 264  : 		succ = get_local_entity_first_child (task, LIST_TYPE_WAYPOINT);

  000ca	83 7d f8 00	 cmp	 DWORD PTR _task$[ebp], 0
  000ce	74 0a		 je	 SHORT $LN14@draw_local
  000d0	8b 45 f8	 mov	 eax, DWORD PTR _task$[ebp]
  000d3	8b 08		 mov	 ecx, DWORD PTR [eax]
  000d5	89 4d 84	 mov	 DWORD PTR tv133[ebp], ecx
  000d8	eb 21		 jmp	 SHORT $LN15@draw_local
$LN14@draw_local:
  000da	8b 15 00 00 00
	00		 mov	 edx, DWORD PTR ?__LINE__Var@?0??draw_local_waypoint_2d_symbol@@YGXPAUENTITY@@HHW4SYS_COLOURS@@@Z@4JA
  000e0	83 c2 22	 add	 edx, 34			; 00000022H
  000e3	52		 push	 edx
  000e4	68 00 00 00 00	 push	 OFFSET ??_C@_0EO@BNAIALCN@c?3?2users?2nhv90?2projects?2eech?2ap@
  000e9	a1 00 00 00 00	 mov	 eax, DWORD PTR ?null_entity_pointer_message@@3PBDB ; null_entity_pointer_message
  000ee	50		 push	 eax
  000ef	e8 00 00 00 00	 call	 ?process_assert@@YGXPBD0H@Z ; process_assert
  000f4	c7 45 84 00 00
	00 00		 mov	 DWORD PTR tv133[ebp], 0
$LN15@draw_local:
  000fb	b9 01 00 00 00	 mov	 ecx, 1
  00100	85 c9		 test	 ecx, ecx
  00102	74 09		 je	 SHORT $LN16@draw_local
  00104	c7 45 80 2c 00
	00 00		 mov	 DWORD PTR tv141[ebp], 44 ; 0000002cH
  0010b	eb 21		 jmp	 SHORT $LN17@draw_local
$LN16@draw_local:
  0010d	8b 15 00 00 00
	00		 mov	 edx, DWORD PTR ?__LINE__Var@?0??draw_local_waypoint_2d_symbol@@YGXPAUENTITY@@HHW4SYS_COLOURS@@@Z@4JA
  00113	83 c2 22	 add	 edx, 34			; 00000022H
  00116	52		 push	 edx
  00117	68 00 00 00 00	 push	 OFFSET ??_C@_0EO@BNAIALCN@c?3?2users?2nhv90?2projects?2eech?2ap@
  0011c	a1 00 00 00 00	 mov	 eax, DWORD PTR ?overload_invalid_list_type_message@@3PBDB ; overload_invalid_list_type_message
  00121	50		 push	 eax
  00122	e8 00 00 00 00	 call	 ?process_assert@@YGXPBD0H@Z ; process_assert
  00127	c7 45 80 00 00
	00 00		 mov	 DWORD PTR tv141[ebp], 0
$LN17@draw_local:
  0012e	6a 2c		 push	 44			; 0000002cH
  00130	8b 4d f8	 mov	 ecx, DWORD PTR _task$[ebp]
  00133	51		 push	 ecx
  00134	69 55 84 b4 00
	00 00		 imul	 edx, DWORD PTR tv133[ebp], 180
  0013b	8b 45 80	 mov	 eax, DWORD PTR tv141[ebp]
  0013e	8b 8c 82 00 00
	00 00		 mov	 ecx, DWORD PTR ?fn_get_local_entity_first_child@@3PAY0CN@P6GPAUENTITY@@PAU1@W4LIST_TYPES@@@ZA[edx+eax*4]
  00145	ff d1		 call	 ecx
  00147	89 45 f4	 mov	 DWORD PTR _succ$[ebp], eax
$LN6@draw_local:

; 265  : 	}
; 266  : 
; 267  : 	//
; 268  : 	// Draw waypoint (with formation positions if AI-tool)
; 269  : 	//
; 270  : 
; 271  : 	formation_data = get_formation ((formation_types) raw->waypoint_formation);

  0014a	8b 45 f0	 mov	 eax, DWORD PTR _raw$[ebp]
  0014d	8b 48 30	 mov	 ecx, DWORD PTR [eax+48]
  00150	81 e1 ff ff 00
	00		 and	 ecx, 65535		; 0000ffffH
  00156	51		 push	 ecx
  00157	e8 00 00 00 00	 call	 ?get_formation@@YGPAUFORMATION_TYPE@@W4FORMATION_TYPES@@@Z ; get_formation
  0015c	89 45 d4	 mov	 DWORD PTR _formation_data$[ebp], eax

; 272  : 
; 273  : 	for (loop = 0; loop < formation_data->number_in_formation; loop ++)

  0015f	c7 45 fc 00 00
	00 00		 mov	 DWORD PTR _loop$[ebp], 0
  00166	eb 09		 jmp	 SHORT $LN4@draw_local
$LN2@draw_local:
  00168	8b 45 fc	 mov	 eax, DWORD PTR _loop$[ebp]
  0016b	83 c0 01	 add	 eax, 1
  0016e	89 45 fc	 mov	 DWORD PTR _loop$[ebp], eax
$LN4@draw_local:
  00171	8b 45 d4	 mov	 eax, DWORD PTR _formation_data$[ebp]
  00174	0f bf 48 08	 movsx	 ecx, WORD PTR [eax+8]
  00178	39 4d fc	 cmp	 DWORD PTR _loop$[ebp], ecx
  0017b	0f 8d b8 00 00
	00		 jge	 $LN3@draw_local

; 274  : 	{
; 275  : 
; 276  : 		get_local_waypoint_formation_position (loop, en, &position1);

  00181	8d 45 e4	 lea	 eax, DWORD PTR _position1$[ebp]
  00184	50		 push	 eax
  00185	8b 4d 08	 mov	 ecx, DWORD PTR _en$[ebp]
  00188	51		 push	 ecx
  00189	8b 55 fc	 mov	 edx, DWORD PTR _loop$[ebp]
  0018c	52		 push	 edx
  0018d	e8 00 00 00 00	 call	 ?get_local_waypoint_formation_position@@YGXHPAUENTITY@@PAUVEC3D@@@Z ; get_local_waypoint_formation_position

; 277  : 
; 278  : 		if (succ)

  00192	83 7d f4 00	 cmp	 DWORD PTR _succ$[ebp], 0
  00196	0f 84 98 00 00
	00		 je	 $LN8@draw_local

; 279  : 		{
; 280  : 
; 281  : 			//
; 282  : 			// draw waypoint line
; 283  : 			//
; 284  : 	
; 285  : 			reset_2d_instance (active_2d_environment);

  0019c	a1 00 00 00 00	 mov	 eax, DWORD PTR ?active_2d_environment@@3PAUENV_2D@@A ; active_2d_environment
  001a1	50		 push	 eax
  001a2	e8 00 00 00 00	 call	 ?reset_2d_instance@@YGXPAUENV_2D@@@Z ; reset_2d_instance

; 286  : 	
; 287  : 			get_local_waypoint_formation_position (loop, succ, &position2);

  001a7	8d 45 d8	 lea	 eax, DWORD PTR _position2$[ebp]
  001aa	50		 push	 eax
  001ab	8b 4d f4	 mov	 ecx, DWORD PTR _succ$[ebp]
  001ae	51		 push	 ecx
  001af	8b 55 fc	 mov	 edx, DWORD PTR _loop$[ebp]
  001b2	52		 push	 edx
  001b3	e8 00 00 00 00	 call	 ?get_local_waypoint_formation_position@@YGXHPAUENTITY@@PAUVEC3D@@@Z ; get_local_waypoint_formation_position

; 288  : 
; 289  : 			draw_2d_half_thick_line (position1.x, position1.z, position2.x, position2.z, *sys_colour_table [waypoint_route_colour]);

  001b8	8b 45 14	 mov	 eax, DWORD PTR _waypoint_route_colour$[ebp]
  001bb	8b 0c 85 00 00
	00 00		 mov	 ecx, DWORD PTR ?sys_colour_table@@3PAPAUREAL_COLOUR@@A[eax*4]
  001c2	8b 11		 mov	 edx, DWORD PTR [ecx]
  001c4	52		 push	 edx
  001c5	51		 push	 ecx
  001c6	f3 0f 10 45 e0	 movss	 xmm0, DWORD PTR _position2$[ebp+8]
  001cb	f3 0f 11 04 24	 movss	 DWORD PTR [esp], xmm0
  001d0	51		 push	 ecx
  001d1	f3 0f 10 45 d8	 movss	 xmm0, DWORD PTR _position2$[ebp]
  001d6	f3 0f 11 04 24	 movss	 DWORD PTR [esp], xmm0
  001db	51		 push	 ecx
  001dc	f3 0f 10 45 ec	 movss	 xmm0, DWORD PTR _position1$[ebp+8]
  001e1	f3 0f 11 04 24	 movss	 DWORD PTR [esp], xmm0
  001e6	51		 push	 ecx
  001e7	f3 0f 10 45 e4	 movss	 xmm0, DWORD PTR _position1$[ebp]
  001ec	f3 0f 11 04 24	 movss	 DWORD PTR [esp], xmm0
  001f1	e8 00 00 00 00	 call	 ?draw_2d_half_thick_line@@YGXMMMMUREAL_COLOUR@@@Z ; draw_2d_half_thick_line

; 290  : 
; 291  : 			//
; 292  : 			// draw add waypoint icon
; 293  : 			//
; 294  : 
; 295  : 			if (add_waypoint_flag)

  001f6	83 7d 0c 00	 cmp	 DWORD PTR _add_waypoint_flag$[ebp], 0
  001fa	74 38		 je	 SHORT $LN8@draw_local

; 296  : 			{
; 297  : 
; 298  : 				vec3d
; 299  : 					add_waypoint_icon_position;
; 300  : 
; 301  : 				add_waypoint_icon_position.x = position1.x + ((position2.x - position1.x) / 2);

  001fc	f3 0f 10 45 d8	 movss	 xmm0, DWORD PTR _position2$[ebp]
  00201	f3 0f 5c 45 e4	 subss	 xmm0, DWORD PTR _position1$[ebp]
  00206	f3 0f 5e 05 00
	00 00 00	 divss	 xmm0, DWORD PTR __real@40000000
  0020e	f3 0f 58 45 e4	 addss	 xmm0, DWORD PTR _position1$[ebp]
  00213	f3 0f 11 45 c8	 movss	 DWORD PTR _add_waypoint_icon_position$1[ebp], xmm0

; 302  : 				add_waypoint_icon_position.z = position1.z + ((position2.z - position1.z) / 2);

  00218	f3 0f 10 45 e0	 movss	 xmm0, DWORD PTR _position2$[ebp+8]
  0021d	f3 0f 5c 45 ec	 subss	 xmm0, DWORD PTR _position1$[ebp+8]
  00222	f3 0f 5e 05 00
	00 00 00	 divss	 xmm0, DWORD PTR __real@40000000
  0022a	f3 0f 58 45 ec	 addss	 xmm0, DWORD PTR _position1$[ebp+8]
  0022f	f3 0f 11 45 d0	 movss	 DWORD PTR _add_waypoint_icon_position$1[ebp+8], xmm0
$LN8@draw_local:

; 303  : 
; 304  : //				draw_alpha_icon (GRAPHICS_UI_COMMON_US_WAYPOINT_ADD_ICON, add_waypoint_icon_position.x, add_waypoint_icon_position.z);
; 305  : 			}
; 306  : 		}
; 307  : 	}

  00234	e9 2f ff ff ff	 jmp	 $LN2@draw_local
$LN3@draw_local:

; 308  : }

  00239	5f		 pop	 edi
  0023a	5e		 pop	 esi
  0023b	5b		 pop	 ebx
  0023c	8b e5		 mov	 esp, ebp
  0023e	5d		 pop	 ebp
  0023f	c2 10 00	 ret	 16			; 00000010H
?draw_local_waypoint_2d_symbol@@YGXPAUENTITY@@HHW4SYS_COLOURS@@@Z ENDP ; draw_local_waypoint_2d_symbol
_TEXT	ENDS
END
