; Listing generated by Microsoft (R) Optimizing Compiler Version 19.16.27045.0 

	TITLE	C:\Users\nhv90\Projects\eech\aphavoc\source\entity\special\waypoint\wp_ptr.c
	.686P
	.XMM
	include listing.inc
	.model	flat

INCLUDELIB MSVCRTD
INCLUDELIB OLDNAMES

PUBLIC	?overload_waypoint_ptr_value_functions@@YGXXZ	; overload_waypoint_ptr_value_functions
PUBLIC	?__LINE__Var@?0??set_local_ptr_value@@YGXPAUENTITY@@W4PTR_TYPES@@PAX@Z@4JA ; `set_local_ptr_value'::`1'::__LINE__Var
PUBLIC	??_C@_0P@FCCFOKLM@WP_PTR?3?5REMOVE@		; `string'
PUBLIC	??_C@_0EN@BILBBANJ@c?3?2users?2nhv90?2projects?2eech?2ap@ ; `string'
PUBLIC	?__LINE__Var@?0??get_local_ptr_value@@YGPAXPAUENTITY@@W4PTR_TYPES@@@Z@4JA ; `get_local_ptr_value'::`1'::__LINE__Var
EXTRN	?process_assert@@YGXPBD0H@Z:PROC		; process_assert
EXTRN	?debug_fatal@@YAXPBDZZ:PROC			; debug_fatal
EXTRN	?null_entity_pointer_message@@3PBDB:DWORD	; null_entity_pointer_message
EXTRN	?entity_type_database@@3PAUENTITY_TYPE_DATA@@A:BYTE ; entity_type_database
EXTRN	?ptr_type_database@@3PAUPTR_TYPE_DATA@@A:BYTE	; ptr_type_database
EXTRN	?debug_fatal_invalid_ptr_type_message@@3PBDB:DWORD ; debug_fatal_invalid_ptr_type_message
EXTRN	?fn_set_local_entity_ptr_value@@3PAY0BE@P6GXPAUENTITY@@W4PTR_TYPES@@PAX@ZA:BYTE ; fn_set_local_entity_ptr_value
EXTRN	?fn_get_local_entity_ptr_value@@3PAY0BE@P6GPAXPAUENTITY@@W4PTR_TYPES@@@ZA:BYTE ; fn_get_local_entity_ptr_value
EXTRN	?entities@@3PAUENTITY@@A:DWORD			; entities
;	COMDAT ?__LINE__Var@?0??get_local_ptr_value@@YGPAXPAUENTITY@@W4PTR_TYPES@@@Z@4JA
_DATA	SEGMENT
?__LINE__Var@?0??get_local_ptr_value@@YGPAXPAUENTITY@@W4PTR_TYPES@@@Z@4JA DD 07aH ; `get_local_ptr_value'::`1'::__LINE__Var
_DATA	ENDS
;	COMDAT ??_C@_0EN@BILBBANJ@c?3?2users?2nhv90?2projects?2eech?2ap@
CONST	SEGMENT
??_C@_0EN@BILBBANJ@c?3?2users?2nhv90?2projects?2eech?2ap@ DB 'c:\users\nh'
	DB	'v90\projects\eech\aphavoc\source\entity\special\waypoint\wp_p'
	DB	'tr.c', 00H					; `string'
CONST	ENDS
;	COMDAT ??_C@_0P@FCCFOKLM@WP_PTR?3?5REMOVE@
CONST	SEGMENT
??_C@_0P@FCCFOKLM@WP_PTR?3?5REMOVE@ DB 'WP_PTR: REMOVE', 00H ; `string'
CONST	ENDS
;	COMDAT ?__LINE__Var@?0??set_local_ptr_value@@YGXPAUENTITY@@W4PTR_TYPES@@PAX@Z@4JA
_DATA	SEGMENT
?__LINE__Var@?0??set_local_ptr_value@@YGXPAUENTITY@@W4PTR_TYPES@@PAX@Z@4JA DD 050H ; `set_local_ptr_value'::`1'::__LINE__Var
_DATA	ENDS
; Function compile flags: /Odtp /ZI
; File c:\users\nhv90\projects\eech\aphavoc\source\entity\special\waypoint\wp_ptr.c
;	COMDAT ?get_local_ptr_value@@YGPAXPAUENTITY@@W4PTR_TYPES@@@Z
_TEXT	SEGMENT
tv84 = -76						; size = 4
tv65 = -76						; size = 4
_ptr$ = -8						; size = 4
_raw$ = -4						; size = 4
_en$ = 8						; size = 4
_type$ = 12						; size = 4
?get_local_ptr_value@@YGPAXPAUENTITY@@W4PTR_TYPES@@@Z PROC ; get_local_ptr_value, COMDAT

; 122  : {

  00000	55		 push	 ebp
  00001	8b ec		 mov	 ebp, esp
  00003	83 ec 4c	 sub	 esp, 76			; 0000004cH
  00006	53		 push	 ebx
  00007	56		 push	 esi
  00008	57		 push	 edi

; 123  : 	waypoint
; 124  : 		*raw;
; 125  : 
; 126  : 	void
; 127  : 		*ptr;
; 128  : 
; 129  : 	raw = (waypoint *) get_local_entity_data (en);

  00009	8b 45 08	 mov	 eax, DWORD PTR _en$[ebp]
  0000c	8b 48 04	 mov	 ecx, DWORD PTR [eax+4]
  0000f	89 4d fc	 mov	 DWORD PTR _raw$[ebp], ecx

; 130  : 
; 131  : 	switch (type)

  00012	8b 45 0c	 mov	 eax, DWORD PTR _type$[ebp]
  00015	89 45 b4	 mov	 DWORD PTR tv65[ebp], eax
  00018	83 7d b4 03	 cmp	 DWORD PTR tv65[ebp], 3
  0001c	74 02		 je	 SHORT $LN4@get_local_
  0001e	eb 18		 jmp	 SHORT $LN5@get_local_
$LN4@get_local_:

; 132  : 	{
; 133  : 		////////////////////////////////////////
; 134  : 		case PTR_TYPE_POSITION_ENTITY:
; 135  : 		////////////////////////////////////////
; 136  : 		{
; 137  : 			debug_fatal ("WP_PTR: REMOVE");

  00020	68 00 00 00 00	 push	 OFFSET ??_C@_0P@FCCFOKLM@WP_PTR?3?5REMOVE@
  00025	e8 00 00 00 00	 call	 ?debug_fatal@@YAXPBDZZ	; debug_fatal
  0002a	83 c4 04	 add	 esp, 4

; 138  : 			ptr = raw->position_entity;

  0002d	8b 45 fc	 mov	 eax, DWORD PTR _raw$[ebp]
  00030	8b 48 40	 mov	 ecx, DWORD PTR [eax+64]
  00033	89 4d f8	 mov	 DWORD PTR _ptr$[ebp], ecx

; 139  : 
; 140  : 			break;

  00036	eb 72		 jmp	 SHORT $LN2@get_local_
$LN5@get_local_:

; 141  : 		}
; 142  : 		////////////////////////////////////////
; 143  : 		default:
; 144  : 		////////////////////////////////////////
; 145  : 		{
; 146  : 			debug_fatal_invalid_ptr_type (en, type);

  00038	83 7d 08 00	 cmp	 DWORD PTR _en$[ebp], 0
  0003c	74 0a		 je	 SHORT $LN7@get_local_
  0003e	8b 45 08	 mov	 eax, DWORD PTR _en$[ebp]
  00041	8b 08		 mov	 ecx, DWORD PTR [eax]
  00043	89 4d b4	 mov	 DWORD PTR tv84[ebp], ecx
  00046	eb 21		 jmp	 SHORT $LN8@get_local_
$LN7@get_local_:
  00048	8b 15 00 00 00
	00		 mov	 edx, DWORD PTR ?__LINE__Var@?0??get_local_ptr_value@@YGPAXPAUENTITY@@W4PTR_TYPES@@@Z@4JA
  0004e	83 c2 18	 add	 edx, 24			; 00000018H
  00051	52		 push	 edx
  00052	68 00 00 00 00	 push	 OFFSET ??_C@_0EN@BILBBANJ@c?3?2users?2nhv90?2projects?2eech?2ap@
  00057	a1 00 00 00 00	 mov	 eax, DWORD PTR ?null_entity_pointer_message@@3PBDB ; null_entity_pointer_message
  0005c	50		 push	 eax
  0005d	e8 00 00 00 00	 call	 ?process_assert@@YGXPBD0H@Z ; process_assert
  00062	c7 45 b4 00 00
	00 00		 mov	 DWORD PTR tv84[ebp], 0
$LN8@get_local_:
  00069	8b 0d 00 00 00
	00		 mov	 ecx, DWORD PTR ?__LINE__Var@?0??get_local_ptr_value@@YGPAXPAUENTITY@@W4PTR_TYPES@@@Z@4JA
  0006f	83 c1 18	 add	 ecx, 24			; 00000018H
  00072	51		 push	 ecx
  00073	68 00 00 00 00	 push	 OFFSET ??_C@_0EN@BILBBANJ@c?3?2users?2nhv90?2projects?2eech?2ap@
  00078	8b 55 0c	 mov	 edx, DWORD PTR _type$[ebp]
  0007b	8b 04 95 00 00
	00 00		 mov	 eax, DWORD PTR ?ptr_type_database@@3PAUPTR_TYPE_DATA@@A[edx*4]
  00082	50		 push	 eax
  00083	8b 4d 08	 mov	 ecx, DWORD PTR _en$[ebp]
  00086	2b 0d 00 00 00
	00		 sub	 ecx, DWORD PTR ?entities@@3PAUENTITY@@A ; entities
  0008c	c1 f9 04	 sar	 ecx, 4
  0008f	51		 push	 ecx
  00090	6b 55 b4 0c	 imul	 edx, DWORD PTR tv84[ebp], 12
  00094	8b 82 00 00 00
	00		 mov	 eax, DWORD PTR ?entity_type_database@@3PAUENTITY_TYPE_DATA@@A[edx]
  0009a	50		 push	 eax
  0009b	8b 0d 00 00 00
	00		 mov	 ecx, DWORD PTR ?debug_fatal_invalid_ptr_type_message@@3PBDB ; debug_fatal_invalid_ptr_type_message
  000a1	51		 push	 ecx
  000a2	e8 00 00 00 00	 call	 ?debug_fatal@@YAXPBDZZ	; debug_fatal
  000a7	83 c4 18	 add	 esp, 24			; 00000018H
$LN2@get_local_:

; 147  : 
; 148  : 			break;
; 149  : 		}
; 150  : 	}
; 151  : 
; 152  : 	return (ptr);

  000aa	8b 45 f8	 mov	 eax, DWORD PTR _ptr$[ebp]

; 153  : }

  000ad	5f		 pop	 edi
  000ae	5e		 pop	 esi
  000af	5b		 pop	 ebx
  000b0	8b e5		 mov	 esp, ebp
  000b2	5d		 pop	 ebp
  000b3	c2 08 00	 ret	 8
?get_local_ptr_value@@YGPAXPAUENTITY@@W4PTR_TYPES@@@Z ENDP ; get_local_ptr_value
_TEXT	ENDS
; Function compile flags: /Odtp /ZI
; File c:\users\nhv90\projects\eech\aphavoc\source\entity\special\waypoint\wp_ptr.c
;	COMDAT ?set_local_ptr_value@@YGXPAUENTITY@@W4PTR_TYPES@@PAX@Z
_TEXT	SEGMENT
tv85 = -72						; size = 4
tv65 = -72						; size = 4
_raw$ = -4						; size = 4
_en$ = 8						; size = 4
_type$ = 12						; size = 4
_ptr$ = 16						; size = 4
?set_local_ptr_value@@YGXPAUENTITY@@W4PTR_TYPES@@PAX@Z PROC ; set_local_ptr_value, COMDAT

; 80   : {

  00000	55		 push	 ebp
  00001	8b ec		 mov	 ebp, esp
  00003	83 ec 48	 sub	 esp, 72			; 00000048H
  00006	53		 push	 ebx
  00007	56		 push	 esi
  00008	57		 push	 edi

; 81   : 	waypoint
; 82   : 		*raw;
; 83   : 
; 84   : 	#if DEBUG_MODULE
; 85   : 
; 86   : 	debug_log_entity_args (ENTITY_DEBUG_LOCAL, ENTITY_DEBUG_PTR_VALUE, en, type, ptr);
; 87   : 
; 88   : 	#endif
; 89   : 
; 90   : 	raw = (waypoint *) get_local_entity_data (en);

  00009	8b 45 08	 mov	 eax, DWORD PTR _en$[ebp]
  0000c	8b 48 04	 mov	 ecx, DWORD PTR [eax+4]
  0000f	89 4d fc	 mov	 DWORD PTR _raw$[ebp], ecx

; 91   : 
; 92   : 	switch (type)

  00012	8b 45 0c	 mov	 eax, DWORD PTR _type$[ebp]
  00015	89 45 b8	 mov	 DWORD PTR tv65[ebp], eax
  00018	83 7d b8 03	 cmp	 DWORD PTR tv65[ebp], 3
  0001c	74 02		 je	 SHORT $LN4@set_local_
  0001e	eb 1e		 jmp	 SHORT $LN6@set_local_
$LN4@set_local_:

; 93   : 	{
; 94   : 		////////////////////////////////////////
; 95   : 		case PTR_TYPE_POSITION_ENTITY:
; 96   : 		////////////////////////////////////////
; 97   : 		{
; 98   : 			if (ptr)

  00020	83 7d 10 00	 cmp	 DWORD PTR _ptr$[ebp], 0
  00024	74 0d		 je	 SHORT $LN5@set_local_

; 99   : 			{
; 100  : 				debug_fatal ("WP_PTR: REMOVE");

  00026	68 00 00 00 00	 push	 OFFSET ??_C@_0P@FCCFOKLM@WP_PTR?3?5REMOVE@
  0002b	e8 00 00 00 00	 call	 ?debug_fatal@@YAXPBDZZ	; debug_fatal
  00030	83 c4 04	 add	 esp, 4
$LN5@set_local_:

; 101  : 			}
; 102  : 			raw->position_entity = (entity *) ptr;

  00033	8b 45 fc	 mov	 eax, DWORD PTR _raw$[ebp]
  00036	8b 4d 10	 mov	 ecx, DWORD PTR _ptr$[ebp]
  00039	89 48 40	 mov	 DWORD PTR [eax+64], ecx

; 103  : 
; 104  : 			break;

  0003c	eb 72		 jmp	 SHORT $LN1@set_local_
$LN6@set_local_:

; 105  : 		}
; 106  : 		////////////////////////////////////////
; 107  : 		default:
; 108  : 		////////////////////////////////////////
; 109  : 		{
; 110  : 			debug_fatal_invalid_ptr_type (en, type);

  0003e	83 7d 08 00	 cmp	 DWORD PTR _en$[ebp], 0
  00042	74 0a		 je	 SHORT $LN8@set_local_
  00044	8b 45 08	 mov	 eax, DWORD PTR _en$[ebp]
  00047	8b 08		 mov	 ecx, DWORD PTR [eax]
  00049	89 4d b8	 mov	 DWORD PTR tv85[ebp], ecx
  0004c	eb 21		 jmp	 SHORT $LN9@set_local_
$LN8@set_local_:
  0004e	8b 15 00 00 00
	00		 mov	 edx, DWORD PTR ?__LINE__Var@?0??set_local_ptr_value@@YGXPAUENTITY@@W4PTR_TYPES@@PAX@Z@4JA
  00054	83 c2 1e	 add	 edx, 30			; 0000001eH
  00057	52		 push	 edx
  00058	68 00 00 00 00	 push	 OFFSET ??_C@_0EN@BILBBANJ@c?3?2users?2nhv90?2projects?2eech?2ap@
  0005d	a1 00 00 00 00	 mov	 eax, DWORD PTR ?null_entity_pointer_message@@3PBDB ; null_entity_pointer_message
  00062	50		 push	 eax
  00063	e8 00 00 00 00	 call	 ?process_assert@@YGXPBD0H@Z ; process_assert
  00068	c7 45 b8 00 00
	00 00		 mov	 DWORD PTR tv85[ebp], 0
$LN9@set_local_:
  0006f	8b 0d 00 00 00
	00		 mov	 ecx, DWORD PTR ?__LINE__Var@?0??set_local_ptr_value@@YGXPAUENTITY@@W4PTR_TYPES@@PAX@Z@4JA
  00075	83 c1 1e	 add	 ecx, 30			; 0000001eH
  00078	51		 push	 ecx
  00079	68 00 00 00 00	 push	 OFFSET ??_C@_0EN@BILBBANJ@c?3?2users?2nhv90?2projects?2eech?2ap@
  0007e	8b 55 0c	 mov	 edx, DWORD PTR _type$[ebp]
  00081	8b 04 95 00 00
	00 00		 mov	 eax, DWORD PTR ?ptr_type_database@@3PAUPTR_TYPE_DATA@@A[edx*4]
  00088	50		 push	 eax
  00089	8b 4d 08	 mov	 ecx, DWORD PTR _en$[ebp]
  0008c	2b 0d 00 00 00
	00		 sub	 ecx, DWORD PTR ?entities@@3PAUENTITY@@A ; entities
  00092	c1 f9 04	 sar	 ecx, 4
  00095	51		 push	 ecx
  00096	6b 55 b8 0c	 imul	 edx, DWORD PTR tv85[ebp], 12
  0009a	8b 82 00 00 00
	00		 mov	 eax, DWORD PTR ?entity_type_database@@3PAUENTITY_TYPE_DATA@@A[edx]
  000a0	50		 push	 eax
  000a1	8b 0d 00 00 00
	00		 mov	 ecx, DWORD PTR ?debug_fatal_invalid_ptr_type_message@@3PBDB ; debug_fatal_invalid_ptr_type_message
  000a7	51		 push	 ecx
  000a8	e8 00 00 00 00	 call	 ?debug_fatal@@YAXPBDZZ	; debug_fatal
  000ad	83 c4 18	 add	 esp, 24			; 00000018H
$LN1@set_local_:

; 111  : 
; 112  : 			break;
; 113  : 		}
; 114  : 	}
; 115  : }

  000b0	5f		 pop	 edi
  000b1	5e		 pop	 esi
  000b2	5b		 pop	 ebx
  000b3	8b e5		 mov	 esp, ebp
  000b5	5d		 pop	 ebp
  000b6	c2 0c 00	 ret	 12			; 0000000cH
?set_local_ptr_value@@YGXPAUENTITY@@W4PTR_TYPES@@PAX@Z ENDP ; set_local_ptr_value
_TEXT	ENDS
; Function compile flags: /Odtp /ZI
; File c:\users\nhv90\projects\eech\aphavoc\source\entity\special\waypoint\wp_ptr.c
;	COMDAT ?overload_waypoint_ptr_value_functions@@YGXXZ
_TEXT	SEGMENT
?overload_waypoint_ptr_value_functions@@YGXXZ PROC	; overload_waypoint_ptr_value_functions, COMDAT

; 160  : {

  00000	55		 push	 ebp
  00001	8b ec		 mov	 ebp, esp
  00003	83 ec 40	 sub	 esp, 64			; 00000040H
  00006	53		 push	 ebx
  00007	56		 push	 esi
  00008	57		 push	 edi

; 161  : 
; 162  : 	////////////////////////////////////////
; 163  : 	//
; 164  : 	// INT_TYPE_ENTITY
; 165  : 	//
; 166  : 	////////////////////////////////////////
; 167  : 
; 168  : 	fn_set_local_entity_ptr_value				[ENTITY_TYPE_WAYPOINT][PTR_TYPE_POSITION_ENTITY]					= set_local_ptr_value;

  00009	b8 50 00 00 00	 mov	 eax, 80			; 00000050H
  0000e	6b c8 24	 imul	 ecx, eax, 36
  00011	ba 04 00 00 00	 mov	 edx, 4
  00016	6b c2 03	 imul	 eax, edx, 3
  00019	c7 84 01 00 00
	00 00 00 00 00
	00		 mov	 DWORD PTR ?fn_set_local_entity_ptr_value@@3PAY0BE@P6GXPAUENTITY@@W4PTR_TYPES@@PAX@ZA[ecx+eax], OFFSET ?set_local_ptr_value@@YGXPAUENTITY@@W4PTR_TYPES@@PAX@Z ; set_local_ptr_value

; 169  : 
; 170  : 	fn_get_local_entity_ptr_value				[ENTITY_TYPE_WAYPOINT][PTR_TYPE_POSITION_ENTITY]					= get_local_ptr_value;

  00024	b8 50 00 00 00	 mov	 eax, 80			; 00000050H
  00029	6b c8 24	 imul	 ecx, eax, 36
  0002c	ba 04 00 00 00	 mov	 edx, 4
  00031	6b c2 03	 imul	 eax, edx, 3
  00034	c7 84 01 00 00
	00 00 00 00 00
	00		 mov	 DWORD PTR ?fn_get_local_entity_ptr_value@@3PAY0BE@P6GPAXPAUENTITY@@W4PTR_TYPES@@@ZA[ecx+eax], OFFSET ?get_local_ptr_value@@YGPAXPAUENTITY@@W4PTR_TYPES@@@Z ; get_local_ptr_value

; 171  : }

  0003f	5f		 pop	 edi
  00040	5e		 pop	 esi
  00041	5b		 pop	 ebx
  00042	8b e5		 mov	 esp, ebp
  00044	5d		 pop	 ebp
  00045	c3		 ret	 0
?overload_waypoint_ptr_value_functions@@YGXXZ ENDP	; overload_waypoint_ptr_value_functions
_TEXT	ENDS
END
