; Listing generated by Microsoft (R) Optimizing Compiler Version 19.16.27045.0 

	TITLE	C:\Users\nhv90\Projects\eech\aphavoc\source\entity\special\effect\explosn\xp_creat.c
	.686P
	.XMM
	include listing.inc
	.model	flat

INCLUDELIB MSVCRTD
INCLUDELIB OLDNAMES

PUBLIC	?overload_explosion_create_functions@@YGXXZ	; overload_explosion_create_functions
PUBLIC	?__LINE__Var@?0??create_local@@YGPAUENTITY@@W4ENTITY_TYPES@@HPAD@Z@4JA ; `create_local'::`1'::__LINE__Var
PUBLIC	??_C@_0FF@DCFKHEHO@c?3?2users?2nhv90?2projects?2eech?2ap@ ; `string'
PUBLIC	??_C@_0CL@OOPHFNJI@assert_local_create_entity_inde@ ; `string'
PUBLIC	??_C@_0BP@MLDPLBEH@raw?9?$DOanimation_frequency?5?$DO?50?40@ ; `string'
PUBLIC	__real@0000000000000000
PUBLIC	__real@3f800000
EXTRN	_memset:PROC
EXTRN	?process_assert@@YGXPBD0H@Z:PROC		; process_assert
EXTRN	?malloc_fast_memory@@YGPAXI@Z:PROC		; malloc_fast_memory
EXTRN	?set_local_entity_attributes@@YGXPAUENTITY@@PAD@Z:PROC ; set_local_entity_attributes
EXTRN	?insert_local_entity_into_parents_child_list@@YGXPAUENTITY@@W4LIST_TYPES@@00@Z:PROC ; insert_local_entity_into_parents_child_list
EXTRN	?assert_local_create_entity_index@@YGHH@Z:PROC	; assert_local_create_entity_index
EXTRN	?get_free_entity@@YGPAUENTITY@@H@Z:PROC		; get_free_entity
EXTRN	?get_local_sector_entity@@YGPAUENTITY@@PAUVEC3D@@@Z:PROC ; get_local_sector_entity
EXTRN	?world_map@@3UWORLD_MAP_DATA@@A:BYTE		; world_map
EXTRN	?fn_create_local_entity@@3PAP6GPAUENTITY@@W4ENTITY_TYPES@@HPAD@ZA:BYTE ; fn_create_local_entity
EXTRN	?update_entity@@3PAUENTITY@@A:DWORD		; update_entity
EXTRN	__fltused:DWORD
;	COMDAT __real@3f800000
CONST	SEGMENT
__real@3f800000 DD 03f800000r			; 1
CONST	ENDS
;	COMDAT __real@0000000000000000
CONST	SEGMENT
__real@0000000000000000 DQ 00000000000000000r	; 0
CONST	ENDS
;	COMDAT ??_C@_0BP@MLDPLBEH@raw?9?$DOanimation_frequency?5?$DO?50?40@
CONST	SEGMENT
??_C@_0BP@MLDPLBEH@raw?9?$DOanimation_frequency?5?$DO?50?40@ DB 'raw->ani'
	DB	'mation_frequency > 0.0', 00H		; `string'
CONST	ENDS
;	COMDAT ??_C@_0CL@OOPHFNJI@assert_local_create_entity_inde@
CONST	SEGMENT
??_C@_0CL@OOPHFNJI@assert_local_create_entity_inde@ DB 'assert_local_crea'
	DB	'te_entity_index ((index))', 00H		; `string'
CONST	ENDS
;	COMDAT ??_C@_0FF@DCFKHEHO@c?3?2users?2nhv90?2projects?2eech?2ap@
CONST	SEGMENT
??_C@_0FF@DCFKHEHO@c?3?2users?2nhv90?2projects?2eech?2ap@ DB 'c:\users\nh'
	DB	'v90\projects\eech\aphavoc\source\entity\special\effect\explos'
	DB	'n\xp_creat.c', 00H				; `string'
CONST	ENDS
;	COMDAT ?__LINE__Var@?0??create_local@@YGPAUENTITY@@W4ENTITY_TYPES@@HPAD@Z@4JA
_DATA	SEGMENT
?__LINE__Var@?0??create_local@@YGPAUENTITY@@W4ENTITY_TYPES@@HPAD@Z@4JA DD 050H ; `create_local'::`1'::__LINE__Var
_DATA	ENDS
; Function compile flags: /Odtp /ZI
; File c:\users\nhv90\projects\eech\aphavoc\source\entity\special\effect\explosn\xp_creat.c
;	COMDAT ?create_local@@YGPAUENTITY@@W4ENTITY_TYPES@@HPAD@Z
_TEXT	SEGMENT
_raw$ = -8						; size = 4
_en$ = -4						; size = 4
_type$ = 8						; size = 4
_index$ = 12						; size = 4
_pargs$ = 16						; size = 4
?create_local@@YGPAUENTITY@@W4ENTITY_TYPES@@HPAD@Z PROC	; create_local, COMDAT

; 80   : {

  00000	55		 push	 ebp
  00001	8b ec		 mov	 ebp, esp
  00003	83 ec 48	 sub	 esp, 72			; 00000048H
  00006	53		 push	 ebx
  00007	56		 push	 esi
  00008	57		 push	 edi

; 81   : 	entity
; 82   : 		*en;
; 83   : 
; 84   : 	explosion
; 85   : 		*raw;
; 86   : 
; 87   : 	////////////////////////////////////////
; 88   :   	//
; 89   :   	// VALIDATE
; 90   :   	//
; 91   : 	////////////////////////////////////////
; 92   : 
; 93   : 	validate_local_create_entity_index (index);

  00009	8b 45 0c	 mov	 eax, DWORD PTR _index$[ebp]
  0000c	50		 push	 eax
  0000d	e8 00 00 00 00	 call	 ?assert_local_create_entity_index@@YGHH@Z ; assert_local_create_entity_index
  00012	85 c0		 test	 eax, eax
  00014	75 18		 jne	 SHORT $LN2@create_loc
  00016	a1 00 00 00 00	 mov	 eax, DWORD PTR ?__LINE__Var@?0??create_local@@YGPAUENTITY@@W4ENTITY_TYPES@@HPAD@Z@4JA
  0001b	83 c0 0d	 add	 eax, 13			; 0000000dH
  0001e	50		 push	 eax
  0001f	68 00 00 00 00	 push	 OFFSET ??_C@_0FF@DCFKHEHO@c?3?2users?2nhv90?2projects?2eech?2ap@
  00024	68 00 00 00 00	 push	 OFFSET ??_C@_0CL@OOPHFNJI@assert_local_create_entity_inde@
  00029	e8 00 00 00 00	 call	 ?process_assert@@YGXPBD0H@Z ; process_assert
$LN2@create_loc:

; 94   : 
; 95   : 	#if DEBUG_MODULE
; 96   : 
; 97   : 	debug_log_entity_args (ENTITY_DEBUG_LOCAL, ENTITY_DEBUG_CREATE, NULL, type, index);
; 98   : 
; 99   : 	#endif
; 100  : 
; 101  : 	en = get_free_entity (index);

  0002e	8b 45 0c	 mov	 eax, DWORD PTR _index$[ebp]
  00031	50		 push	 eax
  00032	e8 00 00 00 00	 call	 ?get_free_entity@@YGPAUENTITY@@H@Z ; get_free_entity
  00037	89 45 fc	 mov	 DWORD PTR _en$[ebp], eax

; 102  : 
; 103  : 	if (en)

  0003a	83 7d fc 00	 cmp	 DWORD PTR _en$[ebp], 0
  0003e	0f 84 ec 00 00
	00		 je	 $LN3@create_loc

; 104  : 	{
; 105  : 		////////////////////////////////////////
; 106  :    	//
; 107  :    	// MALLOC ENTITY DATA
; 108  :    	//
; 109  : 		////////////////////////////////////////
; 110  : 
; 111  : 		set_local_entity_type (en, type);

  00044	8b 45 fc	 mov	 eax, DWORD PTR _en$[ebp]
  00047	8b 4d 08	 mov	 ecx, DWORD PTR _type$[ebp]
  0004a	89 08		 mov	 DWORD PTR [eax], ecx

; 112  : 
; 113  : 		raw = (explosion *) malloc_fast_mem (sizeof (explosion));

  0004c	6a 48		 push	 72			; 00000048H
  0004e	e8 00 00 00 00	 call	 ?malloc_fast_memory@@YGPAXI@Z ; malloc_fast_memory
  00053	89 45 f8	 mov	 DWORD PTR _raw$[ebp], eax

; 114  : 
; 115  : 		set_local_entity_data (en, raw);

  00056	8b 45 fc	 mov	 eax, DWORD PTR _en$[ebp]
  00059	8b 4d f8	 mov	 ecx, DWORD PTR _raw$[ebp]
  0005c	89 48 04	 mov	 DWORD PTR [eax+4], ecx

; 116  : 
; 117  : 		////////////////////////////////////////
; 118  :    	//
; 119  :    	// INITIALISE ALL ENTITY DATA TO 'WORKING' DEFAULT VALUES
; 120  : 		//
; 121  : 		// DO NOT USE ACCESS FUNCTIONS
; 122  : 		//
; 123  : 		// DO NOT USE RANDOM VALUES
; 124  : 		//
; 125  : 		////////////////////////////////////////
; 126  : 
; 127  : 		memset (raw, 0, sizeof (explosion));

  0005f	6a 48		 push	 72			; 00000048H
  00061	6a 00		 push	 0
  00063	8b 45 f8	 mov	 eax, DWORD PTR _raw$[ebp]
  00066	50		 push	 eax
  00067	e8 00 00 00 00	 call	 _memset
  0006c	83 c4 0c	 add	 esp, 12			; 0000000cH

; 128  : 
; 129  : 		//
; 130  : 		// effect
; 131  : 		//
; 132  : 
; 133  : 		raw->eff.position.x = MID_MAP_X;

  0006f	8b 45 f8	 mov	 eax, DWORD PTR _raw$[ebp]
  00072	f3 0f 10 05 30
	00 00 00	 movss	 xmm0, DWORD PTR ?world_map@@3UWORLD_MAP_DATA@@A+48
  0007a	f3 0f 11 40 04	 movss	 DWORD PTR [eax+4], xmm0

; 134  : 		raw->eff.position.y = MID_MAP_Y;

  0007f	8b 45 f8	 mov	 eax, DWORD PTR _raw$[ebp]
  00082	f3 0f 10 05 34
	00 00 00	 movss	 xmm0, DWORD PTR ?world_map@@3UWORLD_MAP_DATA@@A+52
  0008a	f3 0f 11 40 08	 movss	 DWORD PTR [eax+8], xmm0

; 135  : 		raw->eff.position.z = MID_MAP_Z;

  0008f	8b 45 f8	 mov	 eax, DWORD PTR _raw$[ebp]
  00092	f3 0f 10 05 38
	00 00 00	 movss	 xmm0, DWORD PTR ?world_map@@3UWORLD_MAP_DATA@@A+56
  0009a	f3 0f 11 40 0c	 movss	 DWORD PTR [eax+12], xmm0

; 136  : 
; 137  : 		//
; 138  : 		// explosion
; 139  : 		//
; 140  : 
; 141  : 		raw->scale = 1.0;

  0009f	8b 45 f8	 mov	 eax, DWORD PTR _raw$[ebp]
  000a2	f3 0f 10 05 00
	00 00 00	 movss	 xmm0, DWORD PTR __real@3f800000
  000aa	f3 0f 11 40 34	 movss	 DWORD PTR [eax+52], xmm0

; 142  : 
; 143  : 		////////////////////////////////////////
; 144  : 		//
; 145  : 		// OVERWRITE DEFAULT VALUES WITH GIVEN ATTRIBUTES
; 146  : 		//
; 147  : 		////////////////////////////////////////
; 148  : 
; 149  : 		set_local_entity_attributes (en, pargs);

  000af	8b 45 10	 mov	 eax, DWORD PTR _pargs$[ebp]
  000b2	50		 push	 eax
  000b3	8b 4d fc	 mov	 ecx, DWORD PTR _en$[ebp]
  000b6	51		 push	 ecx
  000b7	e8 00 00 00 00	 call	 ?set_local_entity_attributes@@YGXPAUENTITY@@PAD@Z ; set_local_entity_attributes

; 150  : 
; 151  : 		////////////////////////////////////////
; 152  : 		//
; 153  : 		// CHECK MANDATORY ATTRIBUTES HAVE BEEN GIVEN
; 154  : 		//
; 155  : 		////////////////////////////////////////
; 156  : 
; 157  : 		ASSERT (raw->animation_frequency > 0.0);

  000bc	8b 45 f8	 mov	 eax, DWORD PTR _raw$[ebp]
  000bf	f3 0f 5a 40 2c	 cvtss2sd xmm0, DWORD PTR [eax+44]
  000c4	66 0f 2f 05 00
	00 00 00	 comisd	 xmm0, QWORD PTR __real@0000000000000000
  000cc	77 18		 ja	 SHORT $LN4@create_loc
  000ce	a1 00 00 00 00	 mov	 eax, DWORD PTR ?__LINE__Var@?0??create_local@@YGPAUENTITY@@W4ENTITY_TYPES@@HPAD@Z@4JA
  000d3	83 c0 4d	 add	 eax, 77			; 0000004dH
  000d6	50		 push	 eax
  000d7	68 00 00 00 00	 push	 OFFSET ??_C@_0FF@DCFKHEHO@c?3?2users?2nhv90?2projects?2eech?2ap@
  000dc	68 00 00 00 00	 push	 OFFSET ??_C@_0BP@MLDPLBEH@raw?9?$DOanimation_frequency?5?$DO?50?40@
  000e1	e8 00 00 00 00	 call	 ?process_assert@@YGXPBD0H@Z ; process_assert
$LN4@create_loc:

; 158  : 
; 159  : 		////////////////////////////////////////
; 160  : 		//
; 161  : 		// RESOLVE DEFAULT VALUES
; 162  : 		//
; 163  : 		////////////////////////////////////////
; 164  : 
; 165  : 		////////////////////////////////////////
; 166  : 		//
; 167  : 		// BUILD COMPONENTS
; 168  : 		//
; 169  : 		////////////////////////////////////////
; 170  : 
; 171  : 		////////////////////////////////////////
; 172  : 		//
; 173  : 		// LINK INTO SYSTEM
; 174  : 		//
; 175  : 		////////////////////////////////////////
; 176  : 
; 177  : 		if (raw->eff.special_effect_link.parent)

  000e6	8b 45 f8	 mov	 eax, DWORD PTR _raw$[ebp]
  000e9	83 78 10 00	 cmp	 DWORD PTR [eax+16], 0
  000ed	74 14		 je	 SHORT $LN5@create_loc

; 178  : 		{
; 179  : 			insert_local_entity_into_parents_child_list (en, LIST_TYPE_SPECIAL_EFFECT, raw->eff.special_effect_link.parent, NULL);

  000ef	6a 00		 push	 0
  000f1	8b 45 f8	 mov	 eax, DWORD PTR _raw$[ebp]
  000f4	8b 48 10	 mov	 ecx, DWORD PTR [eax+16]
  000f7	51		 push	 ecx
  000f8	6a 24		 push	 36			; 00000024H
  000fa	8b 55 fc	 mov	 edx, DWORD PTR _en$[ebp]
  000fd	52		 push	 edx
  000fe	e8 00 00 00 00	 call	 ?insert_local_entity_into_parents_child_list@@YGXPAUENTITY@@W4LIST_TYPES@@00@Z ; insert_local_entity_into_parents_child_list
$LN5@create_loc:

; 180  : 		}
; 181  : 
; 182  : 		insert_local_entity_into_parents_child_list (en, LIST_TYPE_UPDATE, get_update_entity (), NULL);

  00103	6a 00		 push	 0
  00105	a1 00 00 00 00	 mov	 eax, DWORD PTR ?update_entity@@3PAUENTITY@@A ; update_entity
  0010a	50		 push	 eax
  0010b	6a 29		 push	 41			; 00000029H
  0010d	8b 4d fc	 mov	 ecx, DWORD PTR _en$[ebp]
  00110	51		 push	 ecx
  00111	e8 00 00 00 00	 call	 ?insert_local_entity_into_parents_child_list@@YGXPAUENTITY@@W4LIST_TYPES@@00@Z ; insert_local_entity_into_parents_child_list

; 183  : 
; 184  : 		insert_local_entity_into_parents_child_list (en, LIST_TYPE_SECTOR, get_local_sector_entity (&raw->eff.position), NULL);

  00116	6a 00		 push	 0
  00118	8b 45 f8	 mov	 eax, DWORD PTR _raw$[ebp]
  0011b	83 c0 04	 add	 eax, 4
  0011e	50		 push	 eax
  0011f	e8 00 00 00 00	 call	 ?get_local_sector_entity@@YGPAUENTITY@@PAUVEC3D@@@Z ; get_local_sector_entity
  00124	50		 push	 eax
  00125	6a 21		 push	 33			; 00000021H
  00127	8b 4d fc	 mov	 ecx, DWORD PTR _en$[ebp]
  0012a	51		 push	 ecx
  0012b	e8 00 00 00 00	 call	 ?insert_local_entity_into_parents_child_list@@YGXPAUENTITY@@W4LIST_TYPES@@00@Z ; insert_local_entity_into_parents_child_list
$LN3@create_loc:

; 185  : 	}
; 186  : 
; 187  : 	return (en);

  00130	8b 45 fc	 mov	 eax, DWORD PTR _en$[ebp]

; 188  : }

  00133	5f		 pop	 edi
  00134	5e		 pop	 esi
  00135	5b		 pop	 ebx
  00136	8b e5		 mov	 esp, ebp
  00138	5d		 pop	 ebp
  00139	c2 0c 00	 ret	 12			; 0000000cH
?create_local@@YGPAUENTITY@@W4ENTITY_TYPES@@HPAD@Z ENDP	; create_local
_TEXT	ENDS
; Function compile flags: /Odtp /ZI
; File c:\users\nhv90\projects\eech\aphavoc\source\entity\special\effect\explosn\xp_creat.c
;	COMDAT ?overload_explosion_create_functions@@YGXXZ
_TEXT	SEGMENT
?overload_explosion_create_functions@@YGXXZ PROC	; overload_explosion_create_functions, COMDAT

; 262  : {

  00000	55		 push	 ebp
  00001	8b ec		 mov	 ebp, esp
  00003	83 ec 40	 sub	 esp, 64			; 00000040H
  00006	53		 push	 ebx
  00007	56		 push	 esi
  00008	57		 push	 edi

; 263  : 	fn_create_local_entity[ENTITY_TYPE_EXPLOSION]		  								= create_local;

  00009	b8 04 00 00 00	 mov	 eax, 4
  0000e	6b c8 09	 imul	 ecx, eax, 9
  00011	c7 81 00 00 00
	00 00 00 00 00	 mov	 DWORD PTR ?fn_create_local_entity@@3PAP6GPAUENTITY@@W4ENTITY_TYPES@@HPAD@ZA[ecx], OFFSET ?create_local@@YGPAUENTITY@@W4ENTITY_TYPES@@HPAD@Z ; create_local

; 264  : 
; 265  : //	fn_create_client_server_entity[ENTITY_TYPE_EXPLOSION][COMMS_MODEL_SERVER]	= create_server;
; 266  : 
; 267  : //	fn_create_client_server_entity[ENTITY_TYPE_EXPLOSION][COMMS_MODEL_CLIENT]	= create_client;
; 268  : }

  0001b	5f		 pop	 edi
  0001c	5e		 pop	 esi
  0001d	5b		 pop	 ebx
  0001e	8b e5		 mov	 esp, ebp
  00020	5d		 pop	 ebp
  00021	c3		 ret	 0
?overload_explosion_create_functions@@YGXXZ ENDP	; overload_explosion_create_functions
_TEXT	ENDS
END
