; Listing generated by Microsoft (R) Optimizing Compiler Version 19.16.27045.0 

	TITLE	C:\Users\nhv90\Projects\eech\aphavoc\source\entity\special\effect\explosn\xp_dbase.c
	.686P
	.XMM
	include listing.inc
	.model	flat

INCLUDELIB MSVCRTD
INCLUDELIB OLDNAMES

PUBLIC	?meta_explosion_database@@3PAUMETA_EXPLOSION_DATA@@A ; meta_explosion_database
PUBLIC	?meta_explosion_names@@3PAPBDA			; meta_explosion_names
PUBLIC	??_C@_0BJ@FFKPHJOK@META_EXPLOSION_TYPE_NONE@	; `string'
PUBLIC	??_C@_0BE@HGCKAONN@TEST_META_EXPLOSION@		; `string'
PUBLIC	??_C@_0BM@LBFAGILG@PURPLE_FLARE_META_EXPLOSION@	; `string'
PUBLIC	??_C@_0BI@BAHCCIAH@SMALL_AP_META_EXPLOSION@	; `string'
PUBLIC	??_C@_0BJ@OKBIDPMO@MEDIUM_AP_META_EXPLOSION@	; `string'
PUBLIC	??_C@_0BI@LKDGDPCG@LARGE_AP_META_EXPLOSION@	; `string'
PUBLIC	??_C@_0BI@LIOEFBL@SMALL_HE_META_EXPLOSION@	; `string'
PUBLIC	??_C@_0BJ@PBOEFCNC@MEDIUM_HE_META_EXPLOSION@	; `string'
PUBLIC	??_C@_0BI@KBMKFCDK@LARGE_HE_META_EXPLOSION@	; `string'
PUBLIC	??_C@_0BK@ODCJKLG@SMALL_DUST_META_EXPLOSION@	; `string'
PUBLIC	??_C@_0BL@JHNJIJBM@MEDIUM_DUST_META_EXPLOSION@	; `string'
PUBLIC	??_C@_0BK@BHOKANG@LARGE_DUST_META_EXPLOSION@	; `string'
PUBLIC	??_C@_0CG@OACCAOLN@SMALL_EXPLOSIVE_OBJECT_META_EXP@ ; `string'
PUBLIC	??_C@_0CH@OMMDPCON@MEDIUM_EXPLOSIVE_OBJECT_META_EX@ ; `string'
PUBLIC	??_C@_0CG@FJIKFJNC@LARGE_EXPLOSIVE_OBJECT_META_EXP@ ; `string'
PUBLIC	??_C@_0BL@MBFELDLB@SMALL_EARTH_META_EXPLOSION@	; `string'
PUBLIC	??_C@_0BM@PHMOBCFE@MEDIUM_EARTH_META_EXPLOSION@	; `string'
PUBLIC	??_C@_0BL@IMOJJOND@LARGE_EARTH_META_EXPLOSION@	; `string'
PUBLIC	??_C@_0BL@BHCEAHOO@SMALL_WATER_META_EXPLOSION@	; `string'
PUBLIC	??_C@_0BM@CBLOKGAL@MEDIUM_WATER_META_EXPLOSION@	; `string'
PUBLIC	??_C@_0BL@FKJJCKIM@LARGE_WATER_META_EXPLOSION@	; `string'
_BSS	SEGMENT
?meta_explosion_database@@3PAUMETA_EXPLOSION_DATA@@A DB 0150H DUP (?) ; meta_explosion_database
_BSS	ENDS
;	COMDAT ??_C@_0BL@FKJJCKIM@LARGE_WATER_META_EXPLOSION@
CONST	SEGMENT
??_C@_0BL@FKJJCKIM@LARGE_WATER_META_EXPLOSION@ DB 'LARGE_WATER_META_EXPLO'
	DB	'SION', 00H					; `string'
CONST	ENDS
;	COMDAT ??_C@_0BM@CBLOKGAL@MEDIUM_WATER_META_EXPLOSION@
CONST	SEGMENT
??_C@_0BM@CBLOKGAL@MEDIUM_WATER_META_EXPLOSION@ DB 'MEDIUM_WATER_META_EXP'
	DB	'LOSION', 00H				; `string'
CONST	ENDS
;	COMDAT ??_C@_0BL@BHCEAHOO@SMALL_WATER_META_EXPLOSION@
CONST	SEGMENT
??_C@_0BL@BHCEAHOO@SMALL_WATER_META_EXPLOSION@ DB 'SMALL_WATER_META_EXPLO'
	DB	'SION', 00H					; `string'
CONST	ENDS
;	COMDAT ??_C@_0BL@IMOJJOND@LARGE_EARTH_META_EXPLOSION@
CONST	SEGMENT
??_C@_0BL@IMOJJOND@LARGE_EARTH_META_EXPLOSION@ DB 'LARGE_EARTH_META_EXPLO'
	DB	'SION', 00H					; `string'
CONST	ENDS
;	COMDAT ??_C@_0BM@PHMOBCFE@MEDIUM_EARTH_META_EXPLOSION@
CONST	SEGMENT
??_C@_0BM@PHMOBCFE@MEDIUM_EARTH_META_EXPLOSION@ DB 'MEDIUM_EARTH_META_EXP'
	DB	'LOSION', 00H				; `string'
CONST	ENDS
;	COMDAT ??_C@_0BL@MBFELDLB@SMALL_EARTH_META_EXPLOSION@
CONST	SEGMENT
??_C@_0BL@MBFELDLB@SMALL_EARTH_META_EXPLOSION@ DB 'SMALL_EARTH_META_EXPLO'
	DB	'SION', 00H					; `string'
CONST	ENDS
;	COMDAT ??_C@_0CG@FJIKFJNC@LARGE_EXPLOSIVE_OBJECT_META_EXP@
CONST	SEGMENT
??_C@_0CG@FJIKFJNC@LARGE_EXPLOSIVE_OBJECT_META_EXP@ DB 'LARGE_EXPLOSIVE_O'
	DB	'BJECT_META_EXPLOSION', 00H			; `string'
CONST	ENDS
;	COMDAT ??_C@_0CH@OMMDPCON@MEDIUM_EXPLOSIVE_OBJECT_META_EX@
CONST	SEGMENT
??_C@_0CH@OMMDPCON@MEDIUM_EXPLOSIVE_OBJECT_META_EX@ DB 'MEDIUM_EXPLOSIVE_'
	DB	'OBJECT_META_EXPLOSION', 00H			; `string'
CONST	ENDS
;	COMDAT ??_C@_0CG@OACCAOLN@SMALL_EXPLOSIVE_OBJECT_META_EXP@
CONST	SEGMENT
??_C@_0CG@OACCAOLN@SMALL_EXPLOSIVE_OBJECT_META_EXP@ DB 'SMALL_EXPLOSIVE_O'
	DB	'BJECT_META_EXPLOSION', 00H			; `string'
CONST	ENDS
;	COMDAT ??_C@_0BK@BHOKANG@LARGE_DUST_META_EXPLOSION@
CONST	SEGMENT
??_C@_0BK@BHOKANG@LARGE_DUST_META_EXPLOSION@ DB 'LARGE_DUST_META_EXPLOSIO'
	DB	'N', 00H					; `string'
CONST	ENDS
;	COMDAT ??_C@_0BL@JHNJIJBM@MEDIUM_DUST_META_EXPLOSION@
CONST	SEGMENT
??_C@_0BL@JHNJIJBM@MEDIUM_DUST_META_EXPLOSION@ DB 'MEDIUM_DUST_META_EXPLO'
	DB	'SION', 00H					; `string'
CONST	ENDS
;	COMDAT ??_C@_0BK@ODCJKLG@SMALL_DUST_META_EXPLOSION@
CONST	SEGMENT
??_C@_0BK@ODCJKLG@SMALL_DUST_META_EXPLOSION@ DB 'SMALL_DUST_META_EXPLOSIO'
	DB	'N', 00H					; `string'
CONST	ENDS
;	COMDAT ??_C@_0BI@KBMKFCDK@LARGE_HE_META_EXPLOSION@
CONST	SEGMENT
??_C@_0BI@KBMKFCDK@LARGE_HE_META_EXPLOSION@ DB 'LARGE_HE_META_EXPLOSION', 00H ; `string'
CONST	ENDS
;	COMDAT ??_C@_0BJ@PBOEFCNC@MEDIUM_HE_META_EXPLOSION@
CONST	SEGMENT
??_C@_0BJ@PBOEFCNC@MEDIUM_HE_META_EXPLOSION@ DB 'MEDIUM_HE_META_EXPLOSION'
	DB	00H						; `string'
CONST	ENDS
;	COMDAT ??_C@_0BI@LIOEFBL@SMALL_HE_META_EXPLOSION@
CONST	SEGMENT
??_C@_0BI@LIOEFBL@SMALL_HE_META_EXPLOSION@ DB 'SMALL_HE_META_EXPLOSION', 00H ; `string'
CONST	ENDS
;	COMDAT ??_C@_0BI@LKDGDPCG@LARGE_AP_META_EXPLOSION@
CONST	SEGMENT
??_C@_0BI@LKDGDPCG@LARGE_AP_META_EXPLOSION@ DB 'LARGE_AP_META_EXPLOSION', 00H ; `string'
CONST	ENDS
;	COMDAT ??_C@_0BJ@OKBIDPMO@MEDIUM_AP_META_EXPLOSION@
CONST	SEGMENT
??_C@_0BJ@OKBIDPMO@MEDIUM_AP_META_EXPLOSION@ DB 'MEDIUM_AP_META_EXPLOSION'
	DB	00H						; `string'
CONST	ENDS
;	COMDAT ??_C@_0BI@BAHCCIAH@SMALL_AP_META_EXPLOSION@
CONST	SEGMENT
??_C@_0BI@BAHCCIAH@SMALL_AP_META_EXPLOSION@ DB 'SMALL_AP_META_EXPLOSION', 00H ; `string'
CONST	ENDS
;	COMDAT ??_C@_0BM@LBFAGILG@PURPLE_FLARE_META_EXPLOSION@
CONST	SEGMENT
??_C@_0BM@LBFAGILG@PURPLE_FLARE_META_EXPLOSION@ DB 'PURPLE_FLARE_META_EXP'
	DB	'LOSION', 00H				; `string'
CONST	ENDS
;	COMDAT ??_C@_0BE@HGCKAONN@TEST_META_EXPLOSION@
CONST	SEGMENT
??_C@_0BE@HGCKAONN@TEST_META_EXPLOSION@ DB 'TEST_META_EXPLOSION', 00H ; `string'
CONST	ENDS
;	COMDAT ??_C@_0BJ@FFKPHJOK@META_EXPLOSION_TYPE_NONE@
CONST	SEGMENT
??_C@_0BJ@FFKPHJOK@META_EXPLOSION_TYPE_NONE@ DB 'META_EXPLOSION_TYPE_NONE'
	DB	00H						; `string'
CONST	ENDS
_DATA	SEGMENT
?meta_explosion_names@@3PAPBDA DD FLAT:??_C@_0BJ@FFKPHJOK@META_EXPLOSION_TYPE_NONE@ ; meta_explosion_names
	DD	FLAT:??_C@_0BE@HGCKAONN@TEST_META_EXPLOSION@
	DD	FLAT:??_C@_0BM@LBFAGILG@PURPLE_FLARE_META_EXPLOSION@
	DD	FLAT:??_C@_0BI@BAHCCIAH@SMALL_AP_META_EXPLOSION@
	DD	FLAT:??_C@_0BJ@OKBIDPMO@MEDIUM_AP_META_EXPLOSION@
	DD	FLAT:??_C@_0BI@LKDGDPCG@LARGE_AP_META_EXPLOSION@
	DD	FLAT:??_C@_0BI@LIOEFBL@SMALL_HE_META_EXPLOSION@
	DD	FLAT:??_C@_0BJ@PBOEFCNC@MEDIUM_HE_META_EXPLOSION@
	DD	FLAT:??_C@_0BI@KBMKFCDK@LARGE_HE_META_EXPLOSION@
	DD	FLAT:??_C@_0BK@ODCJKLG@SMALL_DUST_META_EXPLOSION@
	DD	FLAT:??_C@_0BL@JHNJIJBM@MEDIUM_DUST_META_EXPLOSION@
	DD	FLAT:??_C@_0BK@BHOKANG@LARGE_DUST_META_EXPLOSION@
	DD	FLAT:??_C@_0CG@OACCAOLN@SMALL_EXPLOSIVE_OBJECT_META_EXP@
	DD	FLAT:??_C@_0CH@OMMDPCON@MEDIUM_EXPLOSIVE_OBJECT_META_EX@
	DD	FLAT:??_C@_0CG@FJIKFJNC@LARGE_EXPLOSIVE_OBJECT_META_EXP@
	DD	FLAT:??_C@_0BL@MBFELDLB@SMALL_EARTH_META_EXPLOSION@
	DD	FLAT:??_C@_0BM@PHMOBCFE@MEDIUM_EARTH_META_EXPLOSION@
	DD	FLAT:??_C@_0BL@IMOJJOND@LARGE_EARTH_META_EXPLOSION@
	DD	FLAT:??_C@_0BL@BHCEAHOO@SMALL_WATER_META_EXPLOSION@
	DD	FLAT:??_C@_0BM@CBLOKGAL@MEDIUM_WATER_META_EXPLOSION@
	DD	FLAT:??_C@_0BL@FKJJCKIM@LARGE_WATER_META_EXPLOSION@
	DD	00H
_DATA	ENDS
PUBLIC	___local_stdio_printf_options
PUBLIC	___local_stdio_scanf_options
PUBLIC	__vfprintf_l
PUBLIC	_fprintf
PUBLIC	__vsscanf_l
PUBLIC	_sscanf
PUBLIC	?strchr@@YAPADQADH@Z				; strchr
PUBLIC	?initialise_explosion_database@@YGXXZ		; initialise_explosion_database
PUBLIC	?deinitialise_explosion_database@@YGXXZ		; deinitialise_explosion_database
PUBLIC	?_OptionsStorage@?1??__local_stdio_printf_options@@9@4_KA ; `__local_stdio_printf_options'::`2'::_OptionsStorage
PUBLIC	?_OptionsStorage@?1??__local_stdio_scanf_options@@9@4_KA ; `__local_stdio_scanf_options'::`2'::_OptionsStorage
PUBLIC	?__LINE__Var@?0??export_explosion_database@@YGXXZ@4JA ; `export_explosion_database'::`1'::__LINE__Var
PUBLIC	??_C@_01NOFIACDB@w@				; `string'
PUBLIC	??_C@_0L@NINGNIJC@EXPLOS?4CSV@			; `string'
PUBLIC	??_C@_0N@HPFCBHBG@EXPLOSION?$DL3?6@		; `string'
PUBLIC	??_C@_0CIM@IHEMIDFJ@?$CDExplosion?5index?$DLExplosion?5name@ ; `string'
PUBLIC	??_C@_0N@OHELJHDH@?$CFi?$DL?$CFs?$DL?$CFf?$DL?$CFi?6@ ; `string'
PUBLIC	??_C@_0DJ@HNLPLEOB@SPRITES?$DL?$CFs?$DL?$CFi?$DL?$CFi?$DL?$CFi?$DL?$CFi?$DL?$CFi?$DL?$CFi?$DL?$CFi@ ; `string'
PUBLIC	??_C@_0DD@OJGFMCAE@OBJECTS?$DL?$CFs?$DL?$CFi?$DL?$CFi?$DL?$CFi?$DL?$CFi?$DL?$CFi?$DL?$CFi?$DL?$CFi@ ; `string'
PUBLIC	??_C@_0BK@EMHBBKFK@PARTICLES?$DL?$CFs?$DL?$CFi?$DL?$CFf?$DL?$CFf?$DL?$CFf?6@ ; `string'
PUBLIC	??_C@_0CG@EAFOEPIE@SMOKE_TRAILS?$DL?$CFs?$DL?$CFi?$DL?$CFf?$DL?$CFf?$DL?$CFf?$DL?$CFf?$DL@ ; `string'
PUBLIC	??_C@_0BE@NPOGGDA@SOUND_EFFECT?$DL?$CFs?$DL?$CFf?6@ ; `string'
PUBLIC	??_C@_0FF@DGFFFHKH@c?3?2users?2nhv90?2projects?2eech?2ap@ ; `string'
PUBLIC	??_C@_05MAJJAKPI@FALSE@				; `string'
PUBLIC	?__LINE__Var@?0??import_explosion_database@@YGXXZ@4JA ; `import_explosion_database'::`1'::__LINE__Var
PUBLIC	??_C@_01KDCPPGHE@r@				; `string'
PUBLIC	??_C@_07NFKMHHIJ@SPRITES@			; `string'
PUBLIC	??_C@_07PEKGBFJM@OBJECTS@			; `string'
PUBLIC	??_C@_09KNBAOAJO@PARTICLES@			; `string'
PUBLIC	??_C@_0N@CMKLJKKF@SMOKE_TRAILS@			; `string'
PUBLIC	??_C@_0N@JIJOCCNH@SOUND_EFFECT@			; `string'
PUBLIC	??_C@_02IKAHHCAI@?$CFi@				; `string'
PUBLIC	??_C@_05KCLNGDHB@?$CFf?$DL?$CFi@		; `string'
PUBLIC	??_C@_0CN@KLDCBECG@?$CFi?$DL?$CFi?$DL?$CFi?$DL?$CFi?$DL?$CFi?$DL?$CFi?$DL?$CFi?$DL?$CFf?$DL?$CFf?$DL?$CFf?$DL?$CF@ ; `string'
PUBLIC	??_C@_0CH@DKBOAMFO@?$CFi?$DL?$CFi?$DL?$CFi?$DL?$CFi?$DL?$CFi?$DL?$CFi?$DL?$CFi?$DL?$CFf?$DL?$CFf?$DL?$CFf?$DL?$CF@ ; `string'
PUBLIC	??_C@_0M@KAKMPKJA@?$CFi?$DL?$CFf?$DL?$CFf?$DL?$CFf@ ; `string'
PUBLIC	??_C@_0BF@LCKECFBN@?$CFi?$DL?$CFf?$DL?$CFf?$DL?$CFf?$DL?$CFf?$DL?$CFf?$DL?$CFf@ ; `string'
PUBLIC	??_C@_02NJPGOMH@?$CFf@				; `string'
PUBLIC	__real@3dcccccd
PUBLIC	__real@3e4ccccd
PUBLIC	__real@3e800000
PUBLIC	__real@3e99999a
PUBLIC	__real@3eaaaa3b
PUBLIC	__real@3eb33333
PUBLIC	__real@3ecccccd
PUBLIC	__real@3f000000
PUBLIC	__real@3f19999a
PUBLIC	__real@3f266666
PUBLIC	__real@3f333333
PUBLIC	__real@3f400000
PUBLIC	__real@3f4ccccd
PUBLIC	__real@3f600000
PUBLIC	__real@3f800000
PUBLIC	__real@3fc00000
PUBLIC	__real@3fe00000
PUBLIC	__real@40000000
PUBLIC	__real@40200000
PUBLIC	__real@40400000
PUBLIC	__real@404ccccd
PUBLIC	__real@40600000
PUBLIC	__real@40800000
PUBLIC	__real@40900000
PUBLIC	__real@40a00000
PUBLIC	__real@40b00000
PUBLIC	__real@40c00000
PUBLIC	__real@40d00000
PUBLIC	__real@40e00000
PUBLIC	__real@40f00000
PUBLIC	__real@41000000
PUBLIC	__real@41200000
PUBLIC	__real@41400000
PUBLIC	__real@41700000
PUBLIC	__real@41880000
PUBLIC	__real@41900000
PUBLIC	__real@41a00000
PUBLIC	__real@41c80000
PUBLIC	__real@41f00000
PUBLIC	__real@42200000
PUBLIC	__real@42340000
PUBLIC	__real@42480000
PUBLIC	__real@42700000
PUBLIC	__real@428c0000
PUBLIC	__real@42c80000
PUBLIC	__real@42f00000
PUBLIC	__real@43480000
PUBLIC	__real@43c80000
PUBLIC	__real@44960000
PUBLIC	__real@bf800000
EXTRN	__imp__fgets:PROC
EXTRN	__imp____stdio_common_vfprintf:PROC
EXTRN	__imp____stdio_common_vsscanf:PROC
EXTRN	_memcpy:PROC
EXTRN	_strchr:PROC
EXTRN	_strcmp:PROC
EXTRN	_strcpy:PROC
EXTRN	__imp___stricmp:PROC
EXTRN	__imp___strupr:PROC
EXTRN	?process_assert@@YGXPBD0H@Z:PROC		; process_assert
EXTRN	?file_exist@@YGHPBD@Z:PROC			; file_exist
EXTRN	?safe_fopen@@YGPAU_iobuf@@PBD0@Z:PROC		; safe_fopen
EXTRN	?safe_fclose@@YGHPAU_iobuf@@@Z:PROC		; safe_fclose
EXTRN	?malloc_fast_memory@@YGPAXI@Z:PROC		; malloc_fast_memory
EXTRN	?free_mem@@YGXPAX@Z:PROC			; free_mem
EXTRN	?get_object_3d_index_from_name@@YGHPAD@Z:PROC	; get_object_3d_index_from_name
EXTRN	?get_object_3d_texture_animation_index_from_name@@YGHPAD@Z:PROC ; get_object_3d_texture_animation_index_from_name
EXTRN	?initialise_weapon_explosion_criteria_tables@@YGXXZ:PROC ; initialise_weapon_explosion_criteria_tables
EXTRN	?deinitialise_weapon_explosion_criteria_tables@@YGXXZ:PROC ; deinitialise_weapon_explosion_criteria_tables
EXTRN	?get_smoke_type_by_name@@YGHPBD@Z:PROC		; get_smoke_type_by_name
EXTRN	?object_3d_enumeration_names@@3PAPBDA:DWORD	; object_3d_enumeration_names
EXTRN	?texture_animation_names@@3PAPBDA:DWORD		; texture_animation_names
EXTRN	?command_line_persistent_smoke@@3HA:DWORD	; command_line_persistent_smoke
EXTRN	?application_sound_effects@@3PAUSOUND_EFFECT_INFORMATION@@A:BYTE ; application_sound_effects
EXTRN	?smoke_list_types_names@@3PAPADA:DWORD		; smoke_list_types_names
EXTRN	__fltused:DWORD
;	COMDAT ?_OptionsStorage@?1??__local_stdio_printf_options@@9@4_KA
_BSS	SEGMENT
?_OptionsStorage@?1??__local_stdio_printf_options@@9@4_KA DQ 01H DUP (?) ; `__local_stdio_printf_options'::`2'::_OptionsStorage
_BSS	ENDS
;	COMDAT ?_OptionsStorage@?1??__local_stdio_scanf_options@@9@4_KA
_BSS	SEGMENT
?_OptionsStorage@?1??__local_stdio_scanf_options@@9@4_KA DQ 01H DUP (?) ; `__local_stdio_scanf_options'::`2'::_OptionsStorage
_BSS	ENDS
;	COMDAT __real@bf800000
CONST	SEGMENT
__real@bf800000 DD 0bf800000r			; -1
CONST	ENDS
;	COMDAT __real@44960000
CONST	SEGMENT
__real@44960000 DD 044960000r			; 1200
CONST	ENDS
;	COMDAT __real@43c80000
CONST	SEGMENT
__real@43c80000 DD 043c80000r			; 400
CONST	ENDS
;	COMDAT __real@43480000
CONST	SEGMENT
__real@43480000 DD 043480000r			; 200
CONST	ENDS
;	COMDAT __real@42f00000
CONST	SEGMENT
__real@42f00000 DD 042f00000r			; 120
CONST	ENDS
;	COMDAT __real@42c80000
CONST	SEGMENT
__real@42c80000 DD 042c80000r			; 100
CONST	ENDS
;	COMDAT __real@428c0000
CONST	SEGMENT
__real@428c0000 DD 0428c0000r			; 70
CONST	ENDS
;	COMDAT __real@42700000
CONST	SEGMENT
__real@42700000 DD 042700000r			; 60
CONST	ENDS
;	COMDAT __real@42480000
CONST	SEGMENT
__real@42480000 DD 042480000r			; 50
CONST	ENDS
;	COMDAT __real@42340000
CONST	SEGMENT
__real@42340000 DD 042340000r			; 45
CONST	ENDS
;	COMDAT __real@42200000
CONST	SEGMENT
__real@42200000 DD 042200000r			; 40
CONST	ENDS
;	COMDAT __real@41f00000
CONST	SEGMENT
__real@41f00000 DD 041f00000r			; 30
CONST	ENDS
;	COMDAT __real@41c80000
CONST	SEGMENT
__real@41c80000 DD 041c80000r			; 25
CONST	ENDS
;	COMDAT __real@41a00000
CONST	SEGMENT
__real@41a00000 DD 041a00000r			; 20
CONST	ENDS
;	COMDAT __real@41900000
CONST	SEGMENT
__real@41900000 DD 041900000r			; 18
CONST	ENDS
;	COMDAT __real@41880000
CONST	SEGMENT
__real@41880000 DD 041880000r			; 17
CONST	ENDS
;	COMDAT __real@41700000
CONST	SEGMENT
__real@41700000 DD 041700000r			; 15
CONST	ENDS
;	COMDAT __real@41400000
CONST	SEGMENT
__real@41400000 DD 041400000r			; 12
CONST	ENDS
;	COMDAT __real@41200000
CONST	SEGMENT
__real@41200000 DD 041200000r			; 10
CONST	ENDS
;	COMDAT __real@41000000
CONST	SEGMENT
__real@41000000 DD 041000000r			; 8
CONST	ENDS
;	COMDAT __real@40f00000
CONST	SEGMENT
__real@40f00000 DD 040f00000r			; 7.5
CONST	ENDS
;	COMDAT __real@40e00000
CONST	SEGMENT
__real@40e00000 DD 040e00000r			; 7
CONST	ENDS
;	COMDAT __real@40d00000
CONST	SEGMENT
__real@40d00000 DD 040d00000r			; 6.5
CONST	ENDS
;	COMDAT __real@40c00000
CONST	SEGMENT
__real@40c00000 DD 040c00000r			; 6
CONST	ENDS
;	COMDAT __real@40b00000
CONST	SEGMENT
__real@40b00000 DD 040b00000r			; 5.5
CONST	ENDS
;	COMDAT __real@40a00000
CONST	SEGMENT
__real@40a00000 DD 040a00000r			; 5
CONST	ENDS
;	COMDAT __real@40900000
CONST	SEGMENT
__real@40900000 DD 040900000r			; 4.5
CONST	ENDS
;	COMDAT __real@40800000
CONST	SEGMENT
__real@40800000 DD 040800000r			; 4
CONST	ENDS
;	COMDAT __real@40600000
CONST	SEGMENT
__real@40600000 DD 040600000r			; 3.5
CONST	ENDS
;	COMDAT __real@404ccccd
CONST	SEGMENT
__real@404ccccd DD 0404ccccdr			; 3.2
CONST	ENDS
;	COMDAT __real@40400000
CONST	SEGMENT
__real@40400000 DD 040400000r			; 3
CONST	ENDS
;	COMDAT __real@40200000
CONST	SEGMENT
__real@40200000 DD 040200000r			; 2.5
CONST	ENDS
;	COMDAT __real@40000000
CONST	SEGMENT
__real@40000000 DD 040000000r			; 2
CONST	ENDS
;	COMDAT __real@3fe00000
CONST	SEGMENT
__real@3fe00000 DD 03fe00000r			; 1.75
CONST	ENDS
;	COMDAT __real@3fc00000
CONST	SEGMENT
__real@3fc00000 DD 03fc00000r			; 1.5
CONST	ENDS
;	COMDAT __real@3f800000
CONST	SEGMENT
__real@3f800000 DD 03f800000r			; 1
CONST	ENDS
;	COMDAT __real@3f600000
CONST	SEGMENT
__real@3f600000 DD 03f600000r			; 0.875
CONST	ENDS
;	COMDAT __real@3f4ccccd
CONST	SEGMENT
__real@3f4ccccd DD 03f4ccccdr			; 0.8
CONST	ENDS
;	COMDAT __real@3f400000
CONST	SEGMENT
__real@3f400000 DD 03f400000r			; 0.75
CONST	ENDS
;	COMDAT __real@3f333333
CONST	SEGMENT
__real@3f333333 DD 03f333333r			; 0.7
CONST	ENDS
;	COMDAT __real@3f266666
CONST	SEGMENT
__real@3f266666 DD 03f266666r			; 0.65
CONST	ENDS
;	COMDAT __real@3f19999a
CONST	SEGMENT
__real@3f19999a DD 03f19999ar			; 0.6
CONST	ENDS
;	COMDAT __real@3f000000
CONST	SEGMENT
__real@3f000000 DD 03f000000r			; 0.5
CONST	ENDS
;	COMDAT __real@3ecccccd
CONST	SEGMENT
__real@3ecccccd DD 03ecccccdr			; 0.4
CONST	ENDS
;	COMDAT __real@3eb33333
CONST	SEGMENT
__real@3eb33333 DD 03eb33333r			; 0.35
CONST	ENDS
;	COMDAT __real@3eaaaa3b
CONST	SEGMENT
__real@3eaaaa3b DD 03eaaaa3br			; 0.33333
CONST	ENDS
;	COMDAT __real@3e99999a
CONST	SEGMENT
__real@3e99999a DD 03e99999ar			; 0.3
CONST	ENDS
;	COMDAT __real@3e800000
CONST	SEGMENT
__real@3e800000 DD 03e800000r			; 0.25
CONST	ENDS
;	COMDAT __real@3e4ccccd
CONST	SEGMENT
__real@3e4ccccd DD 03e4ccccdr			; 0.2
CONST	ENDS
;	COMDAT __real@3dcccccd
CONST	SEGMENT
__real@3dcccccd DD 03dcccccdr			; 0.1
CONST	ENDS
;	COMDAT ??_C@_02NJPGOMH@?$CFf@
CONST	SEGMENT
??_C@_02NJPGOMH@?$CFf@ DB '%f', 00H			; `string'
CONST	ENDS
;	COMDAT ??_C@_0BF@LCKECFBN@?$CFi?$DL?$CFf?$DL?$CFf?$DL?$CFf?$DL?$CFf?$DL?$CFf?$DL?$CFf@
CONST	SEGMENT
??_C@_0BF@LCKECFBN@?$CFi?$DL?$CFf?$DL?$CFf?$DL?$CFf?$DL?$CFf?$DL?$CFf?$DL?$CFf@ DB '%'
	DB	'i;%f;%f;%f;%f;%f;%f', 00H			; `string'
CONST	ENDS
;	COMDAT ??_C@_0M@KAKMPKJA@?$CFi?$DL?$CFf?$DL?$CFf?$DL?$CFf@
CONST	SEGMENT
??_C@_0M@KAKMPKJA@?$CFi?$DL?$CFf?$DL?$CFf?$DL?$CFf@ DB '%i;%f;%f;%f', 00H ; `string'
CONST	ENDS
;	COMDAT ??_C@_0CH@DKBOAMFO@?$CFi?$DL?$CFi?$DL?$CFi?$DL?$CFi?$DL?$CFi?$DL?$CFi?$DL?$CFi?$DL?$CFf?$DL?$CFf?$DL?$CFf?$DL?$CF@
CONST	SEGMENT
??_C@_0CH@DKBOAMFO@?$CFi?$DL?$CFi?$DL?$CFi?$DL?$CFi?$DL?$CFi?$DL?$CFi?$DL?$CFi?$DL?$CFf?$DL?$CFf?$DL?$CFf?$DL?$CF@ DB '%'
	DB	'i;%i;%i;%i;%i;%i;%i;%f;%f;%f;%f;%f;%f', 00H	; `string'
CONST	ENDS
;	COMDAT ??_C@_0CN@KLDCBECG@?$CFi?$DL?$CFi?$DL?$CFi?$DL?$CFi?$DL?$CFi?$DL?$CFi?$DL?$CFi?$DL?$CFf?$DL?$CFf?$DL?$CFf?$DL?$CF@
CONST	SEGMENT
??_C@_0CN@KLDCBECG@?$CFi?$DL?$CFi?$DL?$CFi?$DL?$CFi?$DL?$CFi?$DL?$CFi?$DL?$CFi?$DL?$CFf?$DL?$CFf?$DL?$CFf?$DL?$CF@ DB '%'
	DB	'i;%i;%i;%i;%i;%i;%i;%f;%f;%f;%f;%f;%f;%f;%f', 00H ; `string'
CONST	ENDS
;	COMDAT ??_C@_05KCLNGDHB@?$CFf?$DL?$CFi@
CONST	SEGMENT
??_C@_05KCLNGDHB@?$CFf?$DL?$CFi@ DB '%f;%i', 00H	; `string'
CONST	ENDS
;	COMDAT ??_C@_02IKAHHCAI@?$CFi@
CONST	SEGMENT
??_C@_02IKAHHCAI@?$CFi@ DB '%i', 00H			; `string'
CONST	ENDS
;	COMDAT ??_C@_0N@JIJOCCNH@SOUND_EFFECT@
CONST	SEGMENT
??_C@_0N@JIJOCCNH@SOUND_EFFECT@ DB 'SOUND_EFFECT', 00H	; `string'
CONST	ENDS
;	COMDAT ??_C@_0N@CMKLJKKF@SMOKE_TRAILS@
CONST	SEGMENT
??_C@_0N@CMKLJKKF@SMOKE_TRAILS@ DB 'SMOKE_TRAILS', 00H	; `string'
CONST	ENDS
;	COMDAT ??_C@_09KNBAOAJO@PARTICLES@
CONST	SEGMENT
??_C@_09KNBAOAJO@PARTICLES@ DB 'PARTICLES', 00H		; `string'
CONST	ENDS
;	COMDAT ??_C@_07PEKGBFJM@OBJECTS@
CONST	SEGMENT
??_C@_07PEKGBFJM@OBJECTS@ DB 'OBJECTS', 00H		; `string'
CONST	ENDS
;	COMDAT ??_C@_07NFKMHHIJ@SPRITES@
CONST	SEGMENT
??_C@_07NFKMHHIJ@SPRITES@ DB 'SPRITES', 00H		; `string'
CONST	ENDS
;	COMDAT ??_C@_01KDCPPGHE@r@
CONST	SEGMENT
??_C@_01KDCPPGHE@r@ DB 'r', 00H				; `string'
CONST	ENDS
;	COMDAT ?__LINE__Var@?0??import_explosion_database@@YGXXZ@4JA
_DATA	SEGMENT
?__LINE__Var@?0??import_explosion_database@@YGXXZ@4JA DD 0f2H ; `import_explosion_database'::`1'::__LINE__Var
_DATA	ENDS
;	COMDAT ??_C@_05MAJJAKPI@FALSE@
CONST	SEGMENT
??_C@_05MAJJAKPI@FALSE@ DB 'FALSE', 00H			; `string'
CONST	ENDS
;	COMDAT ??_C@_0FF@DGFFFHKH@c?3?2users?2nhv90?2projects?2eech?2ap@
CONST	SEGMENT
??_C@_0FF@DGFFFHKH@c?3?2users?2nhv90?2projects?2eech?2ap@ DB 'c:\users\nh'
	DB	'v90\projects\eech\aphavoc\source\entity\special\effect\explos'
	DB	'n\xp_dbase.c', 00H				; `string'
CONST	ENDS
;	COMDAT ??_C@_0BE@NPOGGDA@SOUND_EFFECT?$DL?$CFs?$DL?$CFf?6@
CONST	SEGMENT
??_C@_0BE@NPOGGDA@SOUND_EFFECT?$DL?$CFs?$DL?$CFf?6@ DB 'SOUND_EFFECT;%s;%'
	DB	'f', 0aH, 00H				; `string'
CONST	ENDS
;	COMDAT ??_C@_0CG@EAFOEPIE@SMOKE_TRAILS?$DL?$CFs?$DL?$CFi?$DL?$CFf?$DL?$CFf?$DL?$CFf?$DL?$CFf?$DL@
CONST	SEGMENT
??_C@_0CG@EAFOEPIE@SMOKE_TRAILS?$DL?$CFs?$DL?$CFi?$DL?$CFf?$DL?$CFf?$DL?$CFf?$DL?$CFf?$DL@ DB 'S'
	DB	'MOKE_TRAILS;%s;%i;%f;%f;%f;%f;%f;%f', 0aH, 00H ; `string'
CONST	ENDS
;	COMDAT ??_C@_0BK@EMHBBKFK@PARTICLES?$DL?$CFs?$DL?$CFi?$DL?$CFf?$DL?$CFf?$DL?$CFf?6@
CONST	SEGMENT
??_C@_0BK@EMHBBKFK@PARTICLES?$DL?$CFs?$DL?$CFi?$DL?$CFf?$DL?$CFf?$DL?$CFf?6@ DB 'P'
	DB	'ARTICLES;%s;%i;%f;%f;%f', 0aH, 00H		; `string'
CONST	ENDS
;	COMDAT ??_C@_0DD@OJGFMCAE@OBJECTS?$DL?$CFs?$DL?$CFi?$DL?$CFi?$DL?$CFi?$DL?$CFi?$DL?$CFi?$DL?$CFi?$DL?$CFi@
CONST	SEGMENT
??_C@_0DD@OJGFMCAE@OBJECTS?$DL?$CFs?$DL?$CFi?$DL?$CFi?$DL?$CFi?$DL?$CFi?$DL?$CFi?$DL?$CFi?$DL?$CFi@ DB 'O'
	DB	'BJECTS;%s;%i;%i;%i;%i;%i;%i;%i;%f;%f;%f;%f;%f;%f', 0aH, 00H ; `string'
CONST	ENDS
;	COMDAT ??_C@_0DJ@HNLPLEOB@SPRITES?$DL?$CFs?$DL?$CFi?$DL?$CFi?$DL?$CFi?$DL?$CFi?$DL?$CFi?$DL?$CFi?$DL?$CFi@
CONST	SEGMENT
??_C@_0DJ@HNLPLEOB@SPRITES?$DL?$CFs?$DL?$CFi?$DL?$CFi?$DL?$CFi?$DL?$CFi?$DL?$CFi?$DL?$CFi?$DL?$CFi@ DB 'S'
	DB	'PRITES;%s;%i;%i;%i;%i;%i;%i;%i;%f;%f;%f;%f;%f;%f;%f;%f', 0aH, 00H ; `string'
CONST	ENDS
;	COMDAT ??_C@_0N@OHELJHDH@?$CFi?$DL?$CFs?$DL?$CFf?$DL?$CFi?6@
CONST	SEGMENT
??_C@_0N@OHELJHDH@?$CFi?$DL?$CFs?$DL?$CFf?$DL?$CFi?6@ DB '%i;%s;%f;%i', 0aH
	DB	00H						; `string'
CONST	ENDS
;	COMDAT ??_C@_0CIM@IHEMIDFJ@?$CDExplosion?5index?$DLExplosion?5name@
CONST	SEGMENT
??_C@_0CIM@IHEMIDFJ@?$CDExplosion?5index?$DLExplosion?5name@ DB '#Explosi'
	DB	'on index;Explosion name;Damage radius;Show on map', 0aH, '#SP'
	DB	'RITES;Animated texture;Sprites count;Colour (red;green;blue;a'
	DB	'lpha);Additive;Blast hemisphere only;Delay max;Lifetime min;L'
	DB	'ifetime max;Scale min;Scale max;Blast radius;Animation freque'
	DB	'ncy;Rotation rate', 0aH, '#OBJECTS;Object 3D shape;Objects co'
	DB	'unt;Colour (red;green;blue;alpha);Additive;Blast hemisphere o'
	DB	'nly;Delay max;Lifetime min;Lifetime max;Scale min;Scale max;B'
	DB	'last radius', 0aH, '#PARTICLES;Trail type;Particle count;Init'
	DB	'ial speed;Frequency;Smoke lifetime', 0aH, '#SMOKE_TRAILS;Trai'
	DB	'l type;Trail count;Generator lifetime;Frequency;Smoke lifetim'
	DB	'e;Initial velocity (x;y;z)', 0aH, '#SOUND_EFFECT;Sound type;S'
	DB	'ound volume', 0aH, 00H			; `string'
CONST	ENDS
;	COMDAT ??_C@_0N@HPFCBHBG@EXPLOSION?$DL3?6@
CONST	SEGMENT
??_C@_0N@HPFCBHBG@EXPLOSION?$DL3?6@ DB 'EXPLOSION;3', 0aH, 00H ; `string'
CONST	ENDS
;	COMDAT ??_C@_0L@NINGNIJC@EXPLOS?4CSV@
CONST	SEGMENT
??_C@_0L@NINGNIJC@EXPLOS?4CSV@ DB 'EXPLOS.CSV', 00H	; `string'
CONST	ENDS
;	COMDAT ??_C@_01NOFIACDB@w@
CONST	SEGMENT
??_C@_01NOFIACDB@w@ DB 'w', 00H				; `string'
CONST	ENDS
;	COMDAT ?__LINE__Var@?0??export_explosion_database@@YGXXZ@4JA
_DATA	SEGMENT
?__LINE__Var@?0??export_explosion_database@@YGXXZ@4JA DD 07bH ; `export_explosion_database'::`1'::__LINE__Var
_DATA	ENDS
; Function compile flags: /Odtp /ZI
; File c:\users\nhv90\projects\eech\aphavoc\source\entity\special\effect\explosn\xp_dbase.c
;	COMDAT ?import_explosion_database@@YGXXZ
_TEXT	SEGMENT
tv313 = -2568						; size = 4
tv307 = -2568						; size = 4
tv301 = -2568						; size = 4
tv295 = -2568						; size = 4
tv245 = -2568						; size = 4
tv239 = -2568						; size = 4
tv233 = -2568						; size = 4
tv227 = -2568						; size = 4
tv314 = -2564						; size = 4
tv308 = -2564						; size = 4
tv302 = -2564						; size = 4
tv296 = -2564						; size = 4
tv246 = -2564						; size = 4
tv240 = -2564						; size = 4
tv234 = -2564						; size = 4
tv228 = -2564						; size = 4
tv190 = -2564						; size = 4
tv170 = -2564						; size = 4
tv325 = -2561						; size = 1
tv318 = -2561						; size = 1
tv257 = -2561						; size = 1
tv250 = -2561						; size = 1
_ptr$1 = -2240						; size = 4
_buf$2 = -2236						; size = 128
_count$3 = -2108					; size = 4
_blast_hemisphere_only$ = -2104				; size = 4
_additive$ = -2100					; size = 4
_alpha$ = -2096						; size = 4
_blue$ = -2092						; size = 4
_green$ = -2088						; size = 4
_red$ = -2084						; size = 4
_co$ = -2080						; size = 4
_ex$ = -2076						; size = 4
_type$ = -2072						; size = 4
_allocated$ = -2068					; size = 4
_count$ = -2064						; size = 4
_name$ = -2060						; size = 4
_ptr$ = -2056						; size = 4
_buf$ = -2052						; size = 2048
_file$ = -4						; size = 4
?import_explosion_database@@YGXXZ PROC			; import_explosion_database, COMDAT

; 242  : {

  00000	55		 push	 ebp
  00001	8b ec		 mov	 ebp, esp
  00003	81 ec 08 0a 00
	00		 sub	 esp, 2568		; 00000a08H
  00009	53		 push	 ebx
  0000a	56		 push	 esi
  0000b	57		 push	 edi

; 243  : 	FILE
; 244  : 		*file;
; 245  : 	char
; 246  : 		buf[2048],
; 247  : 		*ptr,
; 248  : 		*name;
; 249  : 	int
; 250  : 		count,
; 251  : 		allocated,
; 252  : 		type;
; 253  : 	meta_explosion_data
; 254  : 		*ex;
; 255  : 	meta_explosion_component
; 256  : 		*co;
; 257  : 	int
; 258  : 		red,
; 259  : 		green,
; 260  : 		blue,
; 261  : 		alpha,
; 262  : 		additive,
; 263  : 		blast_hemisphere_only;
; 264  : 
; 265  : 	file = safe_fopen(EXPLOSION_DATABASE_FILENAME, "r");

  0000c	68 00 00 00 00	 push	 OFFSET ??_C@_01KDCPPGHE@r@
  00011	68 00 00 00 00	 push	 OFFSET ??_C@_0L@NINGNIJC@EXPLOS?4CSV@
  00016	e8 00 00 00 00	 call	 ?safe_fopen@@YGPAU_iobuf@@PBD0@Z ; safe_fopen
  0001b	89 45 fc	 mov	 DWORD PTR _file$[ebp], eax

; 266  : 	fgets(buf, sizeof(buf), file);

  0001e	8b 45 fc	 mov	 eax, DWORD PTR _file$[ebp]
  00021	50		 push	 eax
  00022	68 00 08 00 00	 push	 2048			; 00000800H
  00027	8d 8d fc f7 ff
	ff		 lea	 ecx, DWORD PTR _buf$[ebp]
  0002d	51		 push	 ecx
  0002e	ff 15 00 00 00
	00		 call	 DWORD PTR __imp__fgets
  00034	83 c4 0c	 add	 esp, 12			; 0000000cH

; 267  : 	if (!strcmp(buf, "EXPLOSION;3\n"))

  00037	68 00 00 00 00	 push	 OFFSET ??_C@_0N@HPFCBHBG@EXPLOSION?$DL3?6@
  0003c	8d 85 fc f7 ff
	ff		 lea	 eax, DWORD PTR _buf$[ebp]
  00042	50		 push	 eax
  00043	e8 00 00 00 00	 call	 _strcmp
  00048	83 c4 08	 add	 esp, 8
  0004b	85 c0		 test	 eax, eax
  0004d	0f 85 8b 0a 00
	00		 jne	 $LN9@import_exp

; 268  : 	{
; 269  : 		ex = NULL;

  00053	c7 85 e4 f7 ff
	ff 00 00 00 00	 mov	 DWORD PTR _ex$[ebp], 0
$LN2@import_exp:

; 270  : 		while (fgets(buf, sizeof(buf), file))

  0005d	8b 45 fc	 mov	 eax, DWORD PTR _file$[ebp]
  00060	50		 push	 eax
  00061	68 00 08 00 00	 push	 2048			; 00000800H
  00066	8d 8d fc f7 ff
	ff		 lea	 ecx, DWORD PTR _buf$[ebp]
  0006c	51		 push	 ecx
  0006d	ff 15 00 00 00
	00		 call	 DWORD PTR __imp__fgets
  00073	83 c4 0c	 add	 esp, 12			; 0000000cH
  00076	85 c0		 test	 eax, eax
  00078	0f 84 60 0a 00
	00		 je	 $LN9@import_exp

; 271  : 		{
; 272  : 			ptr = strchr(buf, '#');

  0007e	6a 23		 push	 35			; 00000023H
  00080	8d 85 fc f7 ff
	ff		 lea	 eax, DWORD PTR _buf$[ebp]
  00086	50		 push	 eax
  00087	e8 00 00 00 00	 call	 ?strchr@@YAPADQADH@Z	; strchr
  0008c	83 c4 08	 add	 esp, 8
  0008f	89 85 f8 f7 ff
	ff		 mov	 DWORD PTR _ptr$[ebp], eax

; 273  : 			if (ptr)

  00095	83 bd f8 f7 ff
	ff 00		 cmp	 DWORD PTR _ptr$[ebp], 0
  0009c	74 09		 je	 SHORT $LN10@import_exp

; 274  : 			{
; 275  : 				*ptr = '\0';

  0009e	8b 85 f8 f7 ff
	ff		 mov	 eax, DWORD PTR _ptr$[ebp]
  000a4	c6 00 00	 mov	 BYTE PTR [eax], 0
$LN10@import_exp:

; 276  : 			}
; 277  : 			ptr = strchr(buf, ';');

  000a7	6a 3b		 push	 59			; 0000003bH
  000a9	8d 85 fc f7 ff
	ff		 lea	 eax, DWORD PTR _buf$[ebp]
  000af	50		 push	 eax
  000b0	e8 00 00 00 00	 call	 ?strchr@@YAPADQADH@Z	; strchr
  000b5	83 c4 08	 add	 esp, 8
  000b8	89 85 f8 f7 ff
	ff		 mov	 DWORD PTR _ptr$[ebp], eax

; 278  : 			if (!ptr)

  000be	83 bd f8 f7 ff
	ff 00		 cmp	 DWORD PTR _ptr$[ebp], 0
  000c5	75 02		 jne	 SHORT $LN11@import_exp

; 279  : 			{
; 280  : 				continue;

  000c7	eb 94		 jmp	 SHORT $LN2@import_exp
$LN11@import_exp:

; 281  : 			}
; 282  : 			*ptr = '\0';

  000c9	8b 85 f8 f7 ff
	ff		 mov	 eax, DWORD PTR _ptr$[ebp]
  000cf	c6 00 00	 mov	 BYTE PTR [eax], 0

; 283  : 			name = ptr + 1;

  000d2	8b 85 f8 f7 ff
	ff		 mov	 eax, DWORD PTR _ptr$[ebp]
  000d8	83 c0 01	 add	 eax, 1
  000db	89 85 f4 f7 ff
	ff		 mov	 DWORD PTR _name$[ebp], eax

; 284  : 			ptr = strchr(name, ';');

  000e1	6a 3b		 push	 59			; 0000003bH
  000e3	8b 85 f4 f7 ff
	ff		 mov	 eax, DWORD PTR _name$[ebp]
  000e9	50		 push	 eax
  000ea	e8 00 00 00 00	 call	 ?strchr@@YAPADQADH@Z	; strchr
  000ef	83 c4 08	 add	 esp, 8
  000f2	89 85 f8 f7 ff
	ff		 mov	 DWORD PTR _ptr$[ebp], eax

; 285  : 			if (!ptr)

  000f8	83 bd f8 f7 ff
	ff 00		 cmp	 DWORD PTR _ptr$[ebp], 0
  000ff	75 05		 jne	 SHORT $LN12@import_exp

; 286  : 			{
; 287  : 				continue;

  00101	e9 57 ff ff ff	 jmp	 $LN2@import_exp
$LN12@import_exp:

; 288  : 			}
; 289  : 			*ptr = '\0';

  00106	8b 85 f8 f7 ff
	ff		 mov	 eax, DWORD PTR _ptr$[ebp]
  0010c	c6 00 00	 mov	 BYTE PTR [eax], 0

; 290  : 			ptr++;

  0010f	8b 85 f8 f7 ff
	ff		 mov	 eax, DWORD PTR _ptr$[ebp]
  00115	83 c0 01	 add	 eax, 1
  00118	89 85 f8 f7 ff
	ff		 mov	 DWORD PTR _ptr$[ebp], eax

; 291  : 
; 292  : 			type = NUM_EXPLOSION_COMPONENT_TYPES;

  0011e	c7 85 e8 f7 ff
	ff 05 00 00 00	 mov	 DWORD PTR _type$[ebp], 5

; 293  : 			if (!strcmp(buf, "SPRITES"))

  00128	68 00 00 00 00	 push	 OFFSET ??_C@_07NFKMHHIJ@SPRITES@
  0012d	8d 85 fc f7 ff
	ff		 lea	 eax, DWORD PTR _buf$[ebp]
  00133	50		 push	 eax
  00134	e8 00 00 00 00	 call	 _strcmp
  00139	83 c4 08	 add	 esp, 8
  0013c	85 c0		 test	 eax, eax
  0013e	75 0f		 jne	 SHORT $LN13@import_exp

; 294  : 			{
; 295  : 				type = EXPLOSION_SPRITES;

  00140	c7 85 e8 f7 ff
	ff 00 00 00 00	 mov	 DWORD PTR _type$[ebp], 0
  0014a	e9 8e 00 00 00	 jmp	 $LN14@import_exp
$LN13@import_exp:

; 296  : 			}
; 297  : 			else if (!strcmp(buf, "OBJECTS"))

  0014f	68 00 00 00 00	 push	 OFFSET ??_C@_07PEKGBFJM@OBJECTS@
  00154	8d 85 fc f7 ff
	ff		 lea	 eax, DWORD PTR _buf$[ebp]
  0015a	50		 push	 eax
  0015b	e8 00 00 00 00	 call	 _strcmp
  00160	83 c4 08	 add	 esp, 8
  00163	85 c0		 test	 eax, eax
  00165	75 0c		 jne	 SHORT $LN15@import_exp

; 298  : 			{
; 299  : 				type = EXPLOSION_OBJECTS;

  00167	c7 85 e8 f7 ff
	ff 01 00 00 00	 mov	 DWORD PTR _type$[ebp], 1
  00171	eb 6a		 jmp	 SHORT $LN14@import_exp
$LN15@import_exp:

; 300  : 			}
; 301  : 			else if (!strcmp(buf, "PARTICLES"))

  00173	68 00 00 00 00	 push	 OFFSET ??_C@_09KNBAOAJO@PARTICLES@
  00178	8d 85 fc f7 ff
	ff		 lea	 eax, DWORD PTR _buf$[ebp]
  0017e	50		 push	 eax
  0017f	e8 00 00 00 00	 call	 _strcmp
  00184	83 c4 08	 add	 esp, 8
  00187	85 c0		 test	 eax, eax
  00189	75 0c		 jne	 SHORT $LN17@import_exp

; 302  : 			{
; 303  : 				type = EXPLOSION_PARTICLES;

  0018b	c7 85 e8 f7 ff
	ff 02 00 00 00	 mov	 DWORD PTR _type$[ebp], 2
  00195	eb 46		 jmp	 SHORT $LN14@import_exp
$LN17@import_exp:

; 304  : 			}
; 305  : 			else if (!strcmp(buf, "SMOKE_TRAILS"))

  00197	68 00 00 00 00	 push	 OFFSET ??_C@_0N@CMKLJKKF@SMOKE_TRAILS@
  0019c	8d 85 fc f7 ff
	ff		 lea	 eax, DWORD PTR _buf$[ebp]
  001a2	50		 push	 eax
  001a3	e8 00 00 00 00	 call	 _strcmp
  001a8	83 c4 08	 add	 esp, 8
  001ab	85 c0		 test	 eax, eax
  001ad	75 0c		 jne	 SHORT $LN19@import_exp

; 306  : 			{
; 307  : 				type = EXPLOSION_SMOKE_TRAILS;

  001af	c7 85 e8 f7 ff
	ff 03 00 00 00	 mov	 DWORD PTR _type$[ebp], 3
  001b9	eb 22		 jmp	 SHORT $LN14@import_exp
$LN19@import_exp:

; 308  : 			}
; 309  : 			else if (!strcmp(buf, "SOUND_EFFECT"))

  001bb	68 00 00 00 00	 push	 OFFSET ??_C@_0N@JIJOCCNH@SOUND_EFFECT@
  001c0	8d 85 fc f7 ff
	ff		 lea	 eax, DWORD PTR _buf$[ebp]
  001c6	50		 push	 eax
  001c7	e8 00 00 00 00	 call	 _strcmp
  001cc	83 c4 08	 add	 esp, 8
  001cf	85 c0		 test	 eax, eax
  001d1	75 0a		 jne	 SHORT $LN14@import_exp

; 310  : 			{
; 311  : 				type = EXPLOSION_SOUND_EFFECT;

  001d3	c7 85 e8 f7 ff
	ff 04 00 00 00	 mov	 DWORD PTR _type$[ebp], 4
$LN14@import_exp:

; 312  : 			}
; 313  : 
; 314  : 			if (type == NUM_EXPLOSION_COMPONENT_TYPES)

  001dd	83 bd e8 f7 ff
	ff 05		 cmp	 DWORD PTR _type$[ebp], 5
  001e4	0f 85 b0 00 00
	00		 jne	 $LN22@import_exp

; 315  : 			{
; 316  : 				ex = NULL;

  001ea	c7 85 e4 f7 ff
	ff 00 00 00 00	 mov	 DWORD PTR _ex$[ebp], 0

; 317  : 				if (sscanf(buf, "%i", &count) != 1 || count <= 0 || count >= NUM_META_EXPLOSION_TYPES)

  001f4	8d 85 f0 f7 ff
	ff		 lea	 eax, DWORD PTR _count$[ebp]
  001fa	50		 push	 eax
  001fb	68 00 00 00 00	 push	 OFFSET ??_C@_02IKAHHCAI@?$CFi@
  00200	8d 8d fc f7 ff
	ff		 lea	 ecx, DWORD PTR _buf$[ebp]
  00206	51		 push	 ecx
  00207	e8 00 00 00 00	 call	 _sscanf
  0020c	83 c4 0c	 add	 esp, 12			; 0000000cH
  0020f	83 f8 01	 cmp	 eax, 1
  00212	75 12		 jne	 SHORT $LN25@import_exp
  00214	83 bd f0 f7 ff
	ff 00		 cmp	 DWORD PTR _count$[ebp], 0
  0021b	7e 09		 jle	 SHORT $LN25@import_exp
  0021d	83 bd f0 f7 ff
	ff 15		 cmp	 DWORD PTR _count$[ebp], 21 ; 00000015H
  00224	7c 05		 jl	 SHORT $LN24@import_exp
$LN25@import_exp:

; 318  : 				{
; 319  : 					continue;

  00226	e9 32 fe ff ff	 jmp	 $LN2@import_exp
$LN24@import_exp:

; 320  : 				}
; 321  : 				ex = &meta_explosion_database[count];

  0022b	8b 85 f0 f7 ff
	ff		 mov	 eax, DWORD PTR _count$[ebp]
  00231	c1 e0 04	 shl	 eax, 4
  00234	05 00 00 00 00	 add	 eax, OFFSET ?meta_explosion_database@@3PAUMETA_EXPLOSION_DATA@@A ; meta_explosion_database
  00239	89 85 e4 f7 ff
	ff		 mov	 DWORD PTR _ex$[ebp], eax

; 322  : 				if (sscanf(ptr, "%f;%i", &ex->damage_radius, &ex->show_on_map) != 2)

  0023f	8b 85 e4 f7 ff
	ff		 mov	 eax, DWORD PTR _ex$[ebp]
  00245	83 c0 08	 add	 eax, 8
  00248	50		 push	 eax
  00249	8b 8d e4 f7 ff
	ff		 mov	 ecx, DWORD PTR _ex$[ebp]
  0024f	83 c1 04	 add	 ecx, 4
  00252	51		 push	 ecx
  00253	68 00 00 00 00	 push	 OFFSET ??_C@_05KCLNGDHB@?$CFf?$DL?$CFi@
  00258	8b 95 f8 f7 ff
	ff		 mov	 edx, DWORD PTR _ptr$[ebp]
  0025e	52		 push	 edx
  0025f	e8 00 00 00 00	 call	 _sscanf
  00264	83 c4 10	 add	 esp, 16			; 00000010H
  00267	83 f8 02	 cmp	 eax, 2
  0026a	74 0f		 je	 SHORT $LN26@import_exp

; 323  : 				{
; 324  : 					ex = NULL;

  0026c	c7 85 e4 f7 ff
	ff 00 00 00 00	 mov	 DWORD PTR _ex$[ebp], 0

; 325  : 					continue;

  00276	e9 e2 fd ff ff	 jmp	 $LN2@import_exp
$LN26@import_exp:

; 326  : 				}
; 327  : 				allocated = ex->number_of_components;

  0027b	8b 85 e4 f7 ff
	ff		 mov	 eax, DWORD PTR _ex$[ebp]
  00281	8b 08		 mov	 ecx, DWORD PTR [eax]
  00283	89 8d ec f7 ff
	ff		 mov	 DWORD PTR _allocated$[ebp], ecx

; 328  : 				ex->number_of_components = 0;

  00289	8b 85 e4 f7 ff
	ff		 mov	 eax, DWORD PTR _ex$[ebp]
  0028f	c7 00 00 00 00
	00		 mov	 DWORD PTR [eax], 0

; 329  : 			}
; 330  : 			else

  00295	e9 3f 08 00 00	 jmp	 $LN23@import_exp
$LN22@import_exp:

; 331  : 			{
; 332  : 				if (!ex)

  0029a	83 bd e4 f7 ff
	ff 00		 cmp	 DWORD PTR _ex$[ebp], 0
  002a1	75 05		 jne	 SHORT $LN27@import_exp

; 333  : 				{
; 334  : 					continue;

  002a3	e9 b5 fd ff ff	 jmp	 $LN2@import_exp
$LN27@import_exp:

; 335  : 				}
; 336  : 
; 337  : 				if (ex->number_of_components >= allocated)

  002a8	8b 85 e4 f7 ff
	ff		 mov	 eax, DWORD PTR _ex$[ebp]
  002ae	8b 08		 mov	 ecx, DWORD PTR [eax]
  002b0	3b 8d ec f7 ff
	ff		 cmp	 ecx, DWORD PTR _allocated$[ebp]
  002b6	0f 8c 8e 00 00
	00		 jl	 $LN28@import_exp

; 338  : 				{
; 339  : 					allocated = allocated ? 2 * allocated : 8;

  002bc	83 bd ec f7 ff
	ff 00		 cmp	 DWORD PTR _allocated$[ebp], 0
  002c3	74 10		 je	 SHORT $LN51@import_exp
  002c5	8b 85 ec f7 ff
	ff		 mov	 eax, DWORD PTR _allocated$[ebp]
  002cb	d1 e0		 shl	 eax, 1
  002cd	89 85 fc f5 ff
	ff		 mov	 DWORD PTR tv170[ebp], eax
  002d3	eb 0a		 jmp	 SHORT $LN52@import_exp
$LN51@import_exp:
  002d5	c7 85 fc f5 ff
	ff 08 00 00 00	 mov	 DWORD PTR tv170[ebp], 8
$LN52@import_exp:
  002df	8b 8d fc f5 ff
	ff		 mov	 ecx, DWORD PTR tv170[ebp]
  002e5	89 8d ec f7 ff
	ff		 mov	 DWORD PTR _allocated$[ebp], ecx

; 340  : 					co = (meta_explosion_component*)malloc_fast_mem(sizeof(meta_explosion_component) * allocated);

  002eb	6b 85 ec f7 ff
	ff 34		 imul	 eax, DWORD PTR _allocated$[ebp], 52
  002f2	50		 push	 eax
  002f3	e8 00 00 00 00	 call	 ?malloc_fast_memory@@YGPAXI@Z ; malloc_fast_memory
  002f8	89 85 e0 f7 ff
	ff		 mov	 DWORD PTR _co$[ebp], eax

; 341  : 					if (ex->number_of_components)

  002fe	8b 85 e4 f7 ff
	ff		 mov	 eax, DWORD PTR _ex$[ebp]
  00304	83 38 00	 cmp	 DWORD PTR [eax], 0
  00307	74 32		 je	 SHORT $LN29@import_exp

; 342  : 					{
; 343  : 						memcpy(co, ex->component, sizeof(meta_explosion_component) * ex->number_of_components);

  00309	8b 85 e4 f7 ff
	ff		 mov	 eax, DWORD PTR _ex$[ebp]
  0030f	6b 08 34	 imul	 ecx, DWORD PTR [eax], 52
  00312	51		 push	 ecx
  00313	8b 95 e4 f7 ff
	ff		 mov	 edx, DWORD PTR _ex$[ebp]
  00319	8b 42 0c	 mov	 eax, DWORD PTR [edx+12]
  0031c	50		 push	 eax
  0031d	8b 8d e0 f7 ff
	ff		 mov	 ecx, DWORD PTR _co$[ebp]
  00323	51		 push	 ecx
  00324	e8 00 00 00 00	 call	 _memcpy
  00329	83 c4 0c	 add	 esp, 12			; 0000000cH

; 344  : 						free_mem(ex->component);

  0032c	8b 85 e4 f7 ff
	ff		 mov	 eax, DWORD PTR _ex$[ebp]
  00332	8b 48 0c	 mov	 ecx, DWORD PTR [eax+12]
  00335	51		 push	 ecx
  00336	e8 00 00 00 00	 call	 ?free_mem@@YGXPAX@Z	; free_mem
$LN29@import_exp:

; 345  : 					}
; 346  : 					ex->component = co;

  0033b	8b 85 e4 f7 ff
	ff		 mov	 eax, DWORD PTR _ex$[ebp]
  00341	8b 8d e0 f7 ff
	ff		 mov	 ecx, DWORD PTR _co$[ebp]
  00347	89 48 0c	 mov	 DWORD PTR [eax+12], ecx
$LN28@import_exp:

; 347  : 				}
; 348  : 				co = &ex->component[ex->number_of_components];

  0034a	8b 85 e4 f7 ff
	ff		 mov	 eax, DWORD PTR _ex$[ebp]
  00350	6b 08 34	 imul	 ecx, DWORD PTR [eax], 52
  00353	8b 95 e4 f7 ff
	ff		 mov	 edx, DWORD PTR _ex$[ebp]
  00359	03 4a 0c	 add	 ecx, DWORD PTR [edx+12]
  0035c	89 8d e0 f7 ff
	ff		 mov	 DWORD PTR _co$[ebp], ecx

; 349  : 				switch (co->type = (explosion_component_types)type)

  00362	8b 85 e0 f7 ff
	ff		 mov	 eax, DWORD PTR _co$[ebp]
  00368	8b 8d e8 f7 ff
	ff		 mov	 ecx, DWORD PTR _type$[ebp]
  0036e	89 08		 mov	 DWORD PTR [eax], ecx
  00370	8b 95 e8 f7 ff
	ff		 mov	 edx, DWORD PTR _type$[ebp]
  00376	89 95 fc f5 ff
	ff		 mov	 DWORD PTR tv190[ebp], edx
  0037c	83 bd fc f5 ff
	ff 04		 cmp	 DWORD PTR tv190[ebp], 4
  00383	0f 87 15 07 00
	00		 ja	 $LN48@import_exp
  00389	8b 85 fc f5 ff
	ff		 mov	 eax, DWORD PTR tv190[ebp]
  0038f	ff 24 85 00 00
	00 00		 jmp	 DWORD PTR $LN109@import_exp[eax*4]
$LN30@import_exp:

; 350  : 				{
; 351  : 				case EXPLOSION_SPRITES:
; 352  : 					{
; 353  : 						co->animated_texture = (texture_animation_indices)get_object_3d_texture_animation_index_from_name(name);

  00396	8b 85 f4 f7 ff
	ff		 mov	 eax, DWORD PTR _name$[ebp]
  0039c	50		 push	 eax
  0039d	e8 00 00 00 00	 call	 ?get_object_3d_texture_animation_index_from_name@@YGHPAD@Z ; get_object_3d_texture_animation_index_from_name
  003a2	8b 8d e0 f7 ff
	ff		 mov	 ecx, DWORD PTR _co$[ebp]
  003a8	89 41 04	 mov	 DWORD PTR [ecx+4], eax

; 354  : 						if (co->animated_texture < 0)

  003ab	8b 85 e0 f7 ff
	ff		 mov	 eax, DWORD PTR _co$[ebp]
  003b1	83 78 04 00	 cmp	 DWORD PTR [eax+4], 0
  003b5	7d 05		 jge	 SHORT $LN31@import_exp

; 355  : 						{
; 356  : 							continue;

  003b7	e9 a1 fc ff ff	 jmp	 $LN2@import_exp
$LN31@import_exp:

; 357  : 						}
; 358  : 						if (sscanf(ptr,
; 359  : 							"%i;"
; 360  : 							"%i;%i;%i;%i;"
; 361  : 							"%i;%i;"
; 362  : 							"%f;%f;%f;%f;%f;"
; 363  : 							"%f;%f;%f",
; 364  : 							&co->sprite_count,
; 365  : 							&red, &green, &blue, &alpha,
; 366  : 							&additive, &blast_hemisphere_only,
; 367  : 							&co->delay_max, &co->lifetime_min, &co->lifetime_max, &co->scale_min, &co->scale_max,
; 368  : 							&co->blast_radius, &co->animation_frequency, &co->rotation_rate) != 15)

  003bc	8b 85 e0 f7 ff
	ff		 mov	 eax, DWORD PTR _co$[ebp]
  003c2	83 c0 30	 add	 eax, 48			; 00000030H
  003c5	50		 push	 eax
  003c6	8b 8d e0 f7 ff
	ff		 mov	 ecx, DWORD PTR _co$[ebp]
  003cc	83 c1 2c	 add	 ecx, 44			; 0000002cH
  003cf	51		 push	 ecx
  003d0	8b 95 e0 f7 ff
	ff		 mov	 edx, DWORD PTR _co$[ebp]
  003d6	83 c2 28	 add	 edx, 40			; 00000028H
  003d9	52		 push	 edx
  003da	8b 85 e0 f7 ff
	ff		 mov	 eax, DWORD PTR _co$[ebp]
  003e0	83 c0 24	 add	 eax, 36			; 00000024H
  003e3	50		 push	 eax
  003e4	8b 8d e0 f7 ff
	ff		 mov	 ecx, DWORD PTR _co$[ebp]
  003ea	83 c1 20	 add	 ecx, 32			; 00000020H
  003ed	51		 push	 ecx
  003ee	8b 95 e0 f7 ff
	ff		 mov	 edx, DWORD PTR _co$[ebp]
  003f4	83 c2 1c	 add	 edx, 28			; 0000001cH
  003f7	52		 push	 edx
  003f8	8b 85 e0 f7 ff
	ff		 mov	 eax, DWORD PTR _co$[ebp]
  003fe	83 c0 18	 add	 eax, 24			; 00000018H
  00401	50		 push	 eax
  00402	8b 8d e0 f7 ff
	ff		 mov	 ecx, DWORD PTR _co$[ebp]
  00408	83 c1 14	 add	 ecx, 20			; 00000014H
  0040b	51		 push	 ecx
  0040c	8d 95 c8 f7 ff
	ff		 lea	 edx, DWORD PTR _blast_hemisphere_only$[ebp]
  00412	52		 push	 edx
  00413	8d 85 cc f7 ff
	ff		 lea	 eax, DWORD PTR _additive$[ebp]
  00419	50		 push	 eax
  0041a	8d 8d d0 f7 ff
	ff		 lea	 ecx, DWORD PTR _alpha$[ebp]
  00420	51		 push	 ecx
  00421	8d 95 d4 f7 ff
	ff		 lea	 edx, DWORD PTR _blue$[ebp]
  00427	52		 push	 edx
  00428	8d 85 d8 f7 ff
	ff		 lea	 eax, DWORD PTR _green$[ebp]
  0042e	50		 push	 eax
  0042f	8d 8d dc f7 ff
	ff		 lea	 ecx, DWORD PTR _red$[ebp]
  00435	51		 push	 ecx
  00436	8b 95 e0 f7 ff
	ff		 mov	 edx, DWORD PTR _co$[ebp]
  0043c	83 c2 08	 add	 edx, 8
  0043f	52		 push	 edx
  00440	68 00 00 00 00	 push	 OFFSET ??_C@_0CN@KLDCBECG@?$CFi?$DL?$CFi?$DL?$CFi?$DL?$CFi?$DL?$CFi?$DL?$CFi?$DL?$CFi?$DL?$CFf?$DL?$CFf?$DL?$CFf?$DL?$CF@
  00445	8b 85 f8 f7 ff
	ff		 mov	 eax, DWORD PTR _ptr$[ebp]
  0044b	50		 push	 eax
  0044c	e8 00 00 00 00	 call	 _sscanf
  00451	83 c4 44	 add	 esp, 68			; 00000044H
  00454	83 f8 0f	 cmp	 eax, 15			; 0000000fH
  00457	74 05		 je	 SHORT $LN32@import_exp

; 369  : 						{
; 370  : 							continue;

  00459	e9 ff fb ff ff	 jmp	 $LN2@import_exp
$LN32@import_exp:

; 371  : 						}
; 372  : 						co->red = (unsigned char)bound (red, 0, 255);

  0045e	83 bd dc f7 ff
	ff 00		 cmp	 DWORD PTR _red$[ebp], 0
  00465	7d 0c		 jge	 SHORT $LN55@import_exp
  00467	c7 85 fc f5 ff
	ff 00 00 00 00	 mov	 DWORD PTR tv228[ebp], 0
  00471	eb 30		 jmp	 SHORT $LN56@import_exp
$LN55@import_exp:
  00473	81 bd dc f7 ff
	ff ff 00 00 00	 cmp	 DWORD PTR _red$[ebp], 255 ; 000000ffH
  0047d	7e 0c		 jle	 SHORT $LN53@import_exp
  0047f	c7 85 f8 f5 ff
	ff ff 00 00 00	 mov	 DWORD PTR tv227[ebp], 255 ; 000000ffH
  00489	eb 0c		 jmp	 SHORT $LN54@import_exp
$LN53@import_exp:
  0048b	8b 85 dc f7 ff
	ff		 mov	 eax, DWORD PTR _red$[ebp]
  00491	89 85 f8 f5 ff
	ff		 mov	 DWORD PTR tv227[ebp], eax
$LN54@import_exp:
  00497	8b 8d f8 f5 ff
	ff		 mov	 ecx, DWORD PTR tv227[ebp]
  0049d	89 8d fc f5 ff
	ff		 mov	 DWORD PTR tv228[ebp], ecx
$LN56@import_exp:
  004a3	8b 95 e0 f7 ff
	ff		 mov	 edx, DWORD PTR _co$[ebp]
  004a9	8a 85 fc f5 ff
	ff		 mov	 al, BYTE PTR tv228[ebp]
  004af	88 42 0c	 mov	 BYTE PTR [edx+12], al

; 373  : 						co->green = (unsigned char)bound (green, 0, 255);

  004b2	83 bd d8 f7 ff
	ff 00		 cmp	 DWORD PTR _green$[ebp], 0
  004b9	7d 0c		 jge	 SHORT $LN59@import_exp
  004bb	c7 85 fc f5 ff
	ff 00 00 00 00	 mov	 DWORD PTR tv234[ebp], 0
  004c5	eb 30		 jmp	 SHORT $LN60@import_exp
$LN59@import_exp:
  004c7	81 bd d8 f7 ff
	ff ff 00 00 00	 cmp	 DWORD PTR _green$[ebp], 255 ; 000000ffH
  004d1	7e 0c		 jle	 SHORT $LN57@import_exp
  004d3	c7 85 f8 f5 ff
	ff ff 00 00 00	 mov	 DWORD PTR tv233[ebp], 255 ; 000000ffH
  004dd	eb 0c		 jmp	 SHORT $LN58@import_exp
$LN57@import_exp:
  004df	8b 85 d8 f7 ff
	ff		 mov	 eax, DWORD PTR _green$[ebp]
  004e5	89 85 f8 f5 ff
	ff		 mov	 DWORD PTR tv233[ebp], eax
$LN58@import_exp:
  004eb	8b 8d f8 f5 ff
	ff		 mov	 ecx, DWORD PTR tv233[ebp]
  004f1	89 8d fc f5 ff
	ff		 mov	 DWORD PTR tv234[ebp], ecx
$LN60@import_exp:
  004f7	8b 95 e0 f7 ff
	ff		 mov	 edx, DWORD PTR _co$[ebp]
  004fd	8a 85 fc f5 ff
	ff		 mov	 al, BYTE PTR tv234[ebp]
  00503	88 42 0d	 mov	 BYTE PTR [edx+13], al

; 374  : 						co->blue = (unsigned char)bound (blue, 0, 255);

  00506	83 bd d4 f7 ff
	ff 00		 cmp	 DWORD PTR _blue$[ebp], 0
  0050d	7d 0c		 jge	 SHORT $LN63@import_exp
  0050f	c7 85 fc f5 ff
	ff 00 00 00 00	 mov	 DWORD PTR tv240[ebp], 0
  00519	eb 30		 jmp	 SHORT $LN64@import_exp
$LN63@import_exp:
  0051b	81 bd d4 f7 ff
	ff ff 00 00 00	 cmp	 DWORD PTR _blue$[ebp], 255 ; 000000ffH
  00525	7e 0c		 jle	 SHORT $LN61@import_exp
  00527	c7 85 f8 f5 ff
	ff ff 00 00 00	 mov	 DWORD PTR tv239[ebp], 255 ; 000000ffH
  00531	eb 0c		 jmp	 SHORT $LN62@import_exp
$LN61@import_exp:
  00533	8b 85 d4 f7 ff
	ff		 mov	 eax, DWORD PTR _blue$[ebp]
  00539	89 85 f8 f5 ff
	ff		 mov	 DWORD PTR tv239[ebp], eax
$LN62@import_exp:
  0053f	8b 8d f8 f5 ff
	ff		 mov	 ecx, DWORD PTR tv239[ebp]
  00545	89 8d fc f5 ff
	ff		 mov	 DWORD PTR tv240[ebp], ecx
$LN64@import_exp:
  0054b	8b 95 e0 f7 ff
	ff		 mov	 edx, DWORD PTR _co$[ebp]
  00551	8a 85 fc f5 ff
	ff		 mov	 al, BYTE PTR tv240[ebp]
  00557	88 42 0e	 mov	 BYTE PTR [edx+14], al

; 375  : 						co->alpha = (unsigned char)bound (alpha, 0, 255);

  0055a	83 bd d0 f7 ff
	ff 00		 cmp	 DWORD PTR _alpha$[ebp], 0
  00561	7d 0c		 jge	 SHORT $LN67@import_exp
  00563	c7 85 fc f5 ff
	ff 00 00 00 00	 mov	 DWORD PTR tv246[ebp], 0
  0056d	eb 30		 jmp	 SHORT $LN68@import_exp
$LN67@import_exp:
  0056f	81 bd d0 f7 ff
	ff ff 00 00 00	 cmp	 DWORD PTR _alpha$[ebp], 255 ; 000000ffH
  00579	7e 0c		 jle	 SHORT $LN65@import_exp
  0057b	c7 85 f8 f5 ff
	ff ff 00 00 00	 mov	 DWORD PTR tv245[ebp], 255 ; 000000ffH
  00585	eb 0c		 jmp	 SHORT $LN66@import_exp
$LN65@import_exp:
  00587	8b 85 d0 f7 ff
	ff		 mov	 eax, DWORD PTR _alpha$[ebp]
  0058d	89 85 f8 f5 ff
	ff		 mov	 DWORD PTR tv245[ebp], eax
$LN66@import_exp:
  00593	8b 8d f8 f5 ff
	ff		 mov	 ecx, DWORD PTR tv245[ebp]
  00599	89 8d fc f5 ff
	ff		 mov	 DWORD PTR tv246[ebp], ecx
$LN68@import_exp:
  0059f	8b 95 e0 f7 ff
	ff		 mov	 edx, DWORD PTR _co$[ebp]
  005a5	8a 85 fc f5 ff
	ff		 mov	 al, BYTE PTR tv246[ebp]
  005ab	88 42 0f	 mov	 BYTE PTR [edx+15], al

; 376  : 						co->additive = additive != 0;

  005ae	83 bd cc f7 ff
	ff 00		 cmp	 DWORD PTR _additive$[ebp], 0
  005b5	74 09		 je	 SHORT $LN69@import_exp
  005b7	c6 85 ff f5 ff
	ff 01		 mov	 BYTE PTR tv250[ebp], 1
  005be	eb 07		 jmp	 SHORT $LN70@import_exp
$LN69@import_exp:
  005c0	c6 85 ff f5 ff
	ff 00		 mov	 BYTE PTR tv250[ebp], 0
$LN70@import_exp:
  005c7	8a 85 ff f5 ff
	ff		 mov	 al, BYTE PTR tv250[ebp]
  005cd	24 01		 and	 al, 1
  005cf	8b 8d e0 f7 ff
	ff		 mov	 ecx, DWORD PTR _co$[ebp]
  005d5	8a 51 10	 mov	 dl, BYTE PTR [ecx+16]
  005d8	80 e2 fe	 and	 dl, 254			; 000000feH
  005db	0a d0		 or	 dl, al
  005dd	8b 85 e0 f7 ff
	ff		 mov	 eax, DWORD PTR _co$[ebp]
  005e3	88 50 10	 mov	 BYTE PTR [eax+16], dl

; 377  : 						co->blast_hemisphere_only = blast_hemisphere_only != 0;

  005e6	83 bd c8 f7 ff
	ff 00		 cmp	 DWORD PTR _blast_hemisphere_only$[ebp], 0
  005ed	74 09		 je	 SHORT $LN71@import_exp
  005ef	c6 85 ff f5 ff
	ff 01		 mov	 BYTE PTR tv257[ebp], 1
  005f6	eb 07		 jmp	 SHORT $LN72@import_exp
$LN71@import_exp:
  005f8	c6 85 ff f5 ff
	ff 00		 mov	 BYTE PTR tv257[ebp], 0
$LN72@import_exp:
  005ff	8a 85 ff f5 ff
	ff		 mov	 al, BYTE PTR tv257[ebp]
  00605	24 01		 and	 al, 1
  00607	d0 e0		 shl	 al, 1
  00609	8b 8d e0 f7 ff
	ff		 mov	 ecx, DWORD PTR _co$[ebp]
  0060f	8a 51 10	 mov	 dl, BYTE PTR [ecx+16]
  00612	80 e2 fd	 and	 dl, 253			; 000000fdH
  00615	0a d0		 or	 dl, al
  00617	8b 85 e0 f7 ff
	ff		 mov	 eax, DWORD PTR _co$[ebp]
  0061d	88 50 10	 mov	 BYTE PTR [eax+16], dl

; 378  : 						break;

  00620	e9 a1 04 00 00	 jmp	 $LN4@import_exp
$LN33@import_exp:

; 379  : 					}
; 380  : 				case EXPLOSION_OBJECTS:
; 381  : 					{
; 382  : 						co->object_3d_shape = get_object_3d_index_from_name(name);

  00625	8b 85 f4 f7 ff
	ff		 mov	 eax, DWORD PTR _name$[ebp]
  0062b	50		 push	 eax
  0062c	e8 00 00 00 00	 call	 ?get_object_3d_index_from_name@@YGHPAD@Z ; get_object_3d_index_from_name
  00631	8b 8d e0 f7 ff
	ff		 mov	 ecx, DWORD PTR _co$[ebp]
  00637	89 41 04	 mov	 DWORD PTR [ecx+4], eax

; 383  : 						if (!co->object_3d_shape)

  0063a	8b 85 e0 f7 ff
	ff		 mov	 eax, DWORD PTR _co$[ebp]
  00640	83 78 04 00	 cmp	 DWORD PTR [eax+4], 0
  00644	75 05		 jne	 SHORT $LN34@import_exp

; 384  : 						{
; 385  : 							continue;

  00646	e9 12 fa ff ff	 jmp	 $LN2@import_exp
$LN34@import_exp:

; 386  : 						}
; 387  : 						if (sscanf(ptr,
; 388  : 							"%i;"
; 389  : 							"%i;%i;%i;%i;"
; 390  : 							"%i;%i;"
; 391  : 							"%f;%f;%f;%f;%f;"
; 392  : 							"%f",
; 393  : 							&co->object_count,
; 394  : 							&red, &green, &blue, &alpha,
; 395  : 							&additive, &blast_hemisphere_only,
; 396  : 							&co->delay_max, &co->lifetime_min, &co->lifetime_max, &co->scale_min, &co->scale_max,
; 397  : 							&co->blast_radius) != 13)

  0064b	8b 85 e0 f7 ff
	ff		 mov	 eax, DWORD PTR _co$[ebp]
  00651	83 c0 28	 add	 eax, 40			; 00000028H
  00654	50		 push	 eax
  00655	8b 8d e0 f7 ff
	ff		 mov	 ecx, DWORD PTR _co$[ebp]
  0065b	83 c1 24	 add	 ecx, 36			; 00000024H
  0065e	51		 push	 ecx
  0065f	8b 95 e0 f7 ff
	ff		 mov	 edx, DWORD PTR _co$[ebp]
  00665	83 c2 20	 add	 edx, 32			; 00000020H
  00668	52		 push	 edx
  00669	8b 85 e0 f7 ff
	ff		 mov	 eax, DWORD PTR _co$[ebp]
  0066f	83 c0 1c	 add	 eax, 28			; 0000001cH
  00672	50		 push	 eax
  00673	8b 8d e0 f7 ff
	ff		 mov	 ecx, DWORD PTR _co$[ebp]
  00679	83 c1 18	 add	 ecx, 24			; 00000018H
  0067c	51		 push	 ecx
  0067d	8b 95 e0 f7 ff
	ff		 mov	 edx, DWORD PTR _co$[ebp]
  00683	83 c2 14	 add	 edx, 20			; 00000014H
  00686	52		 push	 edx
  00687	8d 85 c8 f7 ff
	ff		 lea	 eax, DWORD PTR _blast_hemisphere_only$[ebp]
  0068d	50		 push	 eax
  0068e	8d 8d cc f7 ff
	ff		 lea	 ecx, DWORD PTR _additive$[ebp]
  00694	51		 push	 ecx
  00695	8d 95 d0 f7 ff
	ff		 lea	 edx, DWORD PTR _alpha$[ebp]
  0069b	52		 push	 edx
  0069c	8d 85 d4 f7 ff
	ff		 lea	 eax, DWORD PTR _blue$[ebp]
  006a2	50		 push	 eax
  006a3	8d 8d d8 f7 ff
	ff		 lea	 ecx, DWORD PTR _green$[ebp]
  006a9	51		 push	 ecx
  006aa	8d 95 dc f7 ff
	ff		 lea	 edx, DWORD PTR _red$[ebp]
  006b0	52		 push	 edx
  006b1	8b 85 e0 f7 ff
	ff		 mov	 eax, DWORD PTR _co$[ebp]
  006b7	83 c0 08	 add	 eax, 8
  006ba	50		 push	 eax
  006bb	68 00 00 00 00	 push	 OFFSET ??_C@_0CH@DKBOAMFO@?$CFi?$DL?$CFi?$DL?$CFi?$DL?$CFi?$DL?$CFi?$DL?$CFi?$DL?$CFi?$DL?$CFf?$DL?$CFf?$DL?$CFf?$DL?$CF@
  006c0	8b 8d f8 f7 ff
	ff		 mov	 ecx, DWORD PTR _ptr$[ebp]
  006c6	51		 push	 ecx
  006c7	e8 00 00 00 00	 call	 _sscanf
  006cc	83 c4 3c	 add	 esp, 60			; 0000003cH
  006cf	83 f8 0d	 cmp	 eax, 13			; 0000000dH
  006d2	74 05		 je	 SHORT $LN35@import_exp

; 398  : 						{
; 399  : 							continue;

  006d4	e9 84 f9 ff ff	 jmp	 $LN2@import_exp
$LN35@import_exp:

; 400  : 						}
; 401  : 						co->red = (unsigned char)bound (red, 0, 255);

  006d9	83 bd dc f7 ff
	ff 00		 cmp	 DWORD PTR _red$[ebp], 0
  006e0	7d 0c		 jge	 SHORT $LN75@import_exp
  006e2	c7 85 fc f5 ff
	ff 00 00 00 00	 mov	 DWORD PTR tv296[ebp], 0
  006ec	eb 30		 jmp	 SHORT $LN76@import_exp
$LN75@import_exp:
  006ee	81 bd dc f7 ff
	ff ff 00 00 00	 cmp	 DWORD PTR _red$[ebp], 255 ; 000000ffH
  006f8	7e 0c		 jle	 SHORT $LN73@import_exp
  006fa	c7 85 f8 f5 ff
	ff ff 00 00 00	 mov	 DWORD PTR tv295[ebp], 255 ; 000000ffH
  00704	eb 0c		 jmp	 SHORT $LN74@import_exp
$LN73@import_exp:
  00706	8b 85 dc f7 ff
	ff		 mov	 eax, DWORD PTR _red$[ebp]
  0070c	89 85 f8 f5 ff
	ff		 mov	 DWORD PTR tv295[ebp], eax
$LN74@import_exp:
  00712	8b 8d f8 f5 ff
	ff		 mov	 ecx, DWORD PTR tv295[ebp]
  00718	89 8d fc f5 ff
	ff		 mov	 DWORD PTR tv296[ebp], ecx
$LN76@import_exp:
  0071e	8b 95 e0 f7 ff
	ff		 mov	 edx, DWORD PTR _co$[ebp]
  00724	8a 85 fc f5 ff
	ff		 mov	 al, BYTE PTR tv296[ebp]
  0072a	88 42 0c	 mov	 BYTE PTR [edx+12], al

; 402  : 						co->green = (unsigned char)bound (green, 0, 255);

  0072d	83 bd d8 f7 ff
	ff 00		 cmp	 DWORD PTR _green$[ebp], 0
  00734	7d 0c		 jge	 SHORT $LN79@import_exp
  00736	c7 85 fc f5 ff
	ff 00 00 00 00	 mov	 DWORD PTR tv302[ebp], 0
  00740	eb 30		 jmp	 SHORT $LN80@import_exp
$LN79@import_exp:
  00742	81 bd d8 f7 ff
	ff ff 00 00 00	 cmp	 DWORD PTR _green$[ebp], 255 ; 000000ffH
  0074c	7e 0c		 jle	 SHORT $LN77@import_exp
  0074e	c7 85 f8 f5 ff
	ff ff 00 00 00	 mov	 DWORD PTR tv301[ebp], 255 ; 000000ffH
  00758	eb 0c		 jmp	 SHORT $LN78@import_exp
$LN77@import_exp:
  0075a	8b 85 d8 f7 ff
	ff		 mov	 eax, DWORD PTR _green$[ebp]
  00760	89 85 f8 f5 ff
	ff		 mov	 DWORD PTR tv301[ebp], eax
$LN78@import_exp:
  00766	8b 8d f8 f5 ff
	ff		 mov	 ecx, DWORD PTR tv301[ebp]
  0076c	89 8d fc f5 ff
	ff		 mov	 DWORD PTR tv302[ebp], ecx
$LN80@import_exp:
  00772	8b 95 e0 f7 ff
	ff		 mov	 edx, DWORD PTR _co$[ebp]
  00778	8a 85 fc f5 ff
	ff		 mov	 al, BYTE PTR tv302[ebp]
  0077e	88 42 0d	 mov	 BYTE PTR [edx+13], al

; 403  : 						co->blue = (unsigned char)bound (blue, 0, 255);

  00781	83 bd d4 f7 ff
	ff 00		 cmp	 DWORD PTR _blue$[ebp], 0
  00788	7d 0c		 jge	 SHORT $LN83@import_exp
  0078a	c7 85 fc f5 ff
	ff 00 00 00 00	 mov	 DWORD PTR tv308[ebp], 0
  00794	eb 30		 jmp	 SHORT $LN84@import_exp
$LN83@import_exp:
  00796	81 bd d4 f7 ff
	ff ff 00 00 00	 cmp	 DWORD PTR _blue$[ebp], 255 ; 000000ffH
  007a0	7e 0c		 jle	 SHORT $LN81@import_exp
  007a2	c7 85 f8 f5 ff
	ff ff 00 00 00	 mov	 DWORD PTR tv307[ebp], 255 ; 000000ffH
  007ac	eb 0c		 jmp	 SHORT $LN82@import_exp
$LN81@import_exp:
  007ae	8b 85 d4 f7 ff
	ff		 mov	 eax, DWORD PTR _blue$[ebp]
  007b4	89 85 f8 f5 ff
	ff		 mov	 DWORD PTR tv307[ebp], eax
$LN82@import_exp:
  007ba	8b 8d f8 f5 ff
	ff		 mov	 ecx, DWORD PTR tv307[ebp]
  007c0	89 8d fc f5 ff
	ff		 mov	 DWORD PTR tv308[ebp], ecx
$LN84@import_exp:
  007c6	8b 95 e0 f7 ff
	ff		 mov	 edx, DWORD PTR _co$[ebp]
  007cc	8a 85 fc f5 ff
	ff		 mov	 al, BYTE PTR tv308[ebp]
  007d2	88 42 0e	 mov	 BYTE PTR [edx+14], al

; 404  : 						co->alpha = (unsigned char)bound (alpha, 0, 255);

  007d5	83 bd d0 f7 ff
	ff 00		 cmp	 DWORD PTR _alpha$[ebp], 0
  007dc	7d 0c		 jge	 SHORT $LN87@import_exp
  007de	c7 85 fc f5 ff
	ff 00 00 00 00	 mov	 DWORD PTR tv314[ebp], 0
  007e8	eb 30		 jmp	 SHORT $LN88@import_exp
$LN87@import_exp:
  007ea	81 bd d0 f7 ff
	ff ff 00 00 00	 cmp	 DWORD PTR _alpha$[ebp], 255 ; 000000ffH
  007f4	7e 0c		 jle	 SHORT $LN85@import_exp
  007f6	c7 85 f8 f5 ff
	ff ff 00 00 00	 mov	 DWORD PTR tv313[ebp], 255 ; 000000ffH
  00800	eb 0c		 jmp	 SHORT $LN86@import_exp
$LN85@import_exp:
  00802	8b 85 d0 f7 ff
	ff		 mov	 eax, DWORD PTR _alpha$[ebp]
  00808	89 85 f8 f5 ff
	ff		 mov	 DWORD PTR tv313[ebp], eax
$LN86@import_exp:
  0080e	8b 8d f8 f5 ff
	ff		 mov	 ecx, DWORD PTR tv313[ebp]
  00814	89 8d fc f5 ff
	ff		 mov	 DWORD PTR tv314[ebp], ecx
$LN88@import_exp:
  0081a	8b 95 e0 f7 ff
	ff		 mov	 edx, DWORD PTR _co$[ebp]
  00820	8a 85 fc f5 ff
	ff		 mov	 al, BYTE PTR tv314[ebp]
  00826	88 42 0f	 mov	 BYTE PTR [edx+15], al

; 405  : 						co->additive = additive != 0;

  00829	83 bd cc f7 ff
	ff 00		 cmp	 DWORD PTR _additive$[ebp], 0
  00830	74 09		 je	 SHORT $LN89@import_exp
  00832	c6 85 ff f5 ff
	ff 01		 mov	 BYTE PTR tv318[ebp], 1
  00839	eb 07		 jmp	 SHORT $LN90@import_exp
$LN89@import_exp:
  0083b	c6 85 ff f5 ff
	ff 00		 mov	 BYTE PTR tv318[ebp], 0
$LN90@import_exp:
  00842	8a 85 ff f5 ff
	ff		 mov	 al, BYTE PTR tv318[ebp]
  00848	24 01		 and	 al, 1
  0084a	8b 8d e0 f7 ff
	ff		 mov	 ecx, DWORD PTR _co$[ebp]
  00850	8a 51 10	 mov	 dl, BYTE PTR [ecx+16]
  00853	80 e2 fe	 and	 dl, 254			; 000000feH
  00856	0a d0		 or	 dl, al
  00858	8b 85 e0 f7 ff
	ff		 mov	 eax, DWORD PTR _co$[ebp]
  0085e	88 50 10	 mov	 BYTE PTR [eax+16], dl

; 406  : 						co->blast_hemisphere_only = blast_hemisphere_only != 0;

  00861	83 bd c8 f7 ff
	ff 00		 cmp	 DWORD PTR _blast_hemisphere_only$[ebp], 0
  00868	74 09		 je	 SHORT $LN91@import_exp
  0086a	c6 85 ff f5 ff
	ff 01		 mov	 BYTE PTR tv325[ebp], 1
  00871	eb 07		 jmp	 SHORT $LN92@import_exp
$LN91@import_exp:
  00873	c6 85 ff f5 ff
	ff 00		 mov	 BYTE PTR tv325[ebp], 0
$LN92@import_exp:
  0087a	8a 85 ff f5 ff
	ff		 mov	 al, BYTE PTR tv325[ebp]
  00880	24 01		 and	 al, 1
  00882	d0 e0		 shl	 al, 1
  00884	8b 8d e0 f7 ff
	ff		 mov	 ecx, DWORD PTR _co$[ebp]
  0088a	8a 51 10	 mov	 dl, BYTE PTR [ecx+16]
  0088d	80 e2 fd	 and	 dl, 253			; 000000fdH
  00890	0a d0		 or	 dl, al
  00892	8b 85 e0 f7 ff
	ff		 mov	 eax, DWORD PTR _co$[ebp]
  00898	88 50 10	 mov	 BYTE PTR [eax+16], dl

; 407  : 						break;

  0089b	e9 26 02 00 00	 jmp	 $LN4@import_exp
$LN36@import_exp:

; 408  : 					}
; 409  : 				case EXPLOSION_PARTICLES:
; 410  : 					{
; 411  : 						co->trail_type = get_smoke_type_by_name(name);

  008a0	8b 85 f4 f7 ff
	ff		 mov	 eax, DWORD PTR _name$[ebp]
  008a6	50		 push	 eax
  008a7	e8 00 00 00 00	 call	 ?get_smoke_type_by_name@@YGHPBD@Z ; get_smoke_type_by_name
  008ac	8b 8d e0 f7 ff
	ff		 mov	 ecx, DWORD PTR _co$[ebp]
  008b2	89 41 08	 mov	 DWORD PTR [ecx+8], eax

; 412  : 						if (co->trail_type < 0)

  008b5	8b 85 e0 f7 ff
	ff		 mov	 eax, DWORD PTR _co$[ebp]
  008bb	83 78 08 00	 cmp	 DWORD PTR [eax+8], 0
  008bf	7d 05		 jge	 SHORT $LN37@import_exp

; 413  : 						{
; 414  : 							continue;

  008c1	e9 97 f7 ff ff	 jmp	 $LN2@import_exp
$LN37@import_exp:

; 415  : 						}
; 416  : 						if (sscanf(ptr,
; 417  : 							"%i;"
; 418  : 							"%f;%f;%f",
; 419  : 							&co->particle_count,
; 420  : 							&co->initial_speed, &co->frequency, &co->smoke_lifetime) != 4)

  008c6	8b 85 e0 f7 ff
	ff		 mov	 eax, DWORD PTR _co$[ebp]
  008cc	83 c0 14	 add	 eax, 20			; 00000014H
  008cf	50		 push	 eax
  008d0	8b 8d e0 f7 ff
	ff		 mov	 ecx, DWORD PTR _co$[ebp]
  008d6	83 c1 10	 add	 ecx, 16			; 00000010H
  008d9	51		 push	 ecx
  008da	8b 95 e0 f7 ff
	ff		 mov	 edx, DWORD PTR _co$[ebp]
  008e0	83 c2 0c	 add	 edx, 12			; 0000000cH
  008e3	52		 push	 edx
  008e4	8b 85 e0 f7 ff
	ff		 mov	 eax, DWORD PTR _co$[ebp]
  008ea	83 c0 04	 add	 eax, 4
  008ed	50		 push	 eax
  008ee	68 00 00 00 00	 push	 OFFSET ??_C@_0M@KAKMPKJA@?$CFi?$DL?$CFf?$DL?$CFf?$DL?$CFf@
  008f3	8b 8d f8 f7 ff
	ff		 mov	 ecx, DWORD PTR _ptr$[ebp]
  008f9	51		 push	 ecx
  008fa	e8 00 00 00 00	 call	 _sscanf
  008ff	83 c4 18	 add	 esp, 24			; 00000018H
  00902	83 f8 04	 cmp	 eax, 4
  00905	74 05		 je	 SHORT $LN38@import_exp

; 421  : 						{
; 422  : 							continue;

  00907	e9 51 f7 ff ff	 jmp	 $LN2@import_exp
$LN38@import_exp:

; 423  : 						}
; 424  : 						break;

  0090c	e9 b5 01 00 00	 jmp	 $LN4@import_exp
$LN39@import_exp:

; 425  : 					}
; 426  : 				case EXPLOSION_SMOKE_TRAILS:
; 427  : 					{
; 428  : 						co->trail_type = get_smoke_type_by_name(name);

  00911	8b 85 f4 f7 ff
	ff		 mov	 eax, DWORD PTR _name$[ebp]
  00917	50		 push	 eax
  00918	e8 00 00 00 00	 call	 ?get_smoke_type_by_name@@YGHPBD@Z ; get_smoke_type_by_name
  0091d	8b 8d e0 f7 ff
	ff		 mov	 ecx, DWORD PTR _co$[ebp]
  00923	89 41 08	 mov	 DWORD PTR [ecx+8], eax

; 429  : 						if (co->trail_type < 0)

  00926	8b 85 e0 f7 ff
	ff		 mov	 eax, DWORD PTR _co$[ebp]
  0092c	83 78 08 00	 cmp	 DWORD PTR [eax+8], 0
  00930	7d 05		 jge	 SHORT $LN40@import_exp

; 430  : 						{
; 431  : 							continue;

  00932	e9 26 f7 ff ff	 jmp	 $LN2@import_exp
$LN40@import_exp:

; 432  : 						}
; 433  : 						if (sscanf(ptr,
; 434  : 							"%i;"
; 435  : 							"%f;%f;%f;"
; 436  : 							"%f;%f;%f",
; 437  : 							&co->trail_count,
; 438  : 							&co->generator_lifetime, &co->frequency, &co->smoke_lifetime,
; 439  : 							&co->initial_velocity.x, &co->initial_velocity.y, &co->initial_velocity.z) != 7)

  00937	8b 85 e0 f7 ff
	ff		 mov	 eax, DWORD PTR _co$[ebp]
  0093d	83 c0 20	 add	 eax, 32			; 00000020H
  00940	50		 push	 eax
  00941	8b 8d e0 f7 ff
	ff		 mov	 ecx, DWORD PTR _co$[ebp]
  00947	83 c1 1c	 add	 ecx, 28			; 0000001cH
  0094a	51		 push	 ecx
  0094b	8b 95 e0 f7 ff
	ff		 mov	 edx, DWORD PTR _co$[ebp]
  00951	83 c2 18	 add	 edx, 24			; 00000018H
  00954	52		 push	 edx
  00955	8b 85 e0 f7 ff
	ff		 mov	 eax, DWORD PTR _co$[ebp]
  0095b	83 c0 14	 add	 eax, 20			; 00000014H
  0095e	50		 push	 eax
  0095f	8b 8d e0 f7 ff
	ff		 mov	 ecx, DWORD PTR _co$[ebp]
  00965	83 c1 10	 add	 ecx, 16			; 00000010H
  00968	51		 push	 ecx
  00969	8b 95 e0 f7 ff
	ff		 mov	 edx, DWORD PTR _co$[ebp]
  0096f	83 c2 0c	 add	 edx, 12			; 0000000cH
  00972	52		 push	 edx
  00973	8b 85 e0 f7 ff
	ff		 mov	 eax, DWORD PTR _co$[ebp]
  00979	83 c0 04	 add	 eax, 4
  0097c	50		 push	 eax
  0097d	68 00 00 00 00	 push	 OFFSET ??_C@_0BF@LCKECFBN@?$CFi?$DL?$CFf?$DL?$CFf?$DL?$CFf?$DL?$CFf?$DL?$CFf?$DL?$CFf@
  00982	8b 8d f8 f7 ff
	ff		 mov	 ecx, DWORD PTR _ptr$[ebp]
  00988	51		 push	 ecx
  00989	e8 00 00 00 00	 call	 _sscanf
  0098e	83 c4 24	 add	 esp, 36			; 00000024H
  00991	83 f8 07	 cmp	 eax, 7
  00994	74 05		 je	 SHORT $LN41@import_exp

; 440  : 						{
; 441  : 							continue;

  00996	e9 c2 f6 ff ff	 jmp	 $LN2@import_exp
$LN41@import_exp:

; 442  : 						}
; 443  : 						break;

  0099b	e9 26 01 00 00	 jmp	 $LN4@import_exp
$LN42@import_exp:

; 444  : 					}
; 445  : 				case EXPLOSION_SOUND_EFFECT:
; 446  : 					{
; 447  : 						int
; 448  : 							count;
; 449  : 						co->sound_type = -1;

  009a0	8b 85 e0 f7 ff
	ff		 mov	 eax, DWORD PTR _co$[ebp]
  009a6	c7 40 04 ff ff
	ff ff		 mov	 DWORD PTR [eax+4], -1

; 450  : 						for (count = 0; count < NUM_SOUND_SAMPLE_INDICES; count++)

  009ad	c7 85 c4 f7 ff
	ff 00 00 00 00	 mov	 DWORD PTR _count$3[ebp], 0
  009b7	eb 0f		 jmp	 SHORT $LN8@import_exp
$LN6@import_exp:
  009b9	8b 85 c4 f7 ff
	ff		 mov	 eax, DWORD PTR _count$3[ebp]
  009bf	83 c0 01	 add	 eax, 1
  009c2	89 85 c4 f7 ff
	ff		 mov	 DWORD PTR _count$3[ebp], eax
$LN8@import_exp:
  009c8	81 bd c4 f7 ff
	ff 3e 08 00 00	 cmp	 DWORD PTR _count$3[ebp], 2110 ; 0000083eH
  009d2	0f 8d 8b 00 00
	00		 jge	 $LN7@import_exp

; 451  : 						{
; 452  : 							if (application_sound_effects[count].name)

  009d8	8b 85 c4 f7 ff
	ff		 mov	 eax, DWORD PTR _count$3[ebp]
  009de	c1 e0 05	 shl	 eax, 5
  009e1	83 b8 00 00 00
	00 00		 cmp	 DWORD PTR ?application_sound_effects@@3PAUSOUND_EFFECT_INFORMATION@@A[eax], 0
  009e8	74 74		 je	 SHORT $LN43@import_exp

; 453  : 							{
; 454  : 								char
; 455  : 									buf[128],
; 456  : 									*ptr;
; 457  : 								strcpy(buf, application_sound_effects[count].name);

  009ea	8b 85 c4 f7 ff
	ff		 mov	 eax, DWORD PTR _count$3[ebp]
  009f0	c1 e0 05	 shl	 eax, 5
  009f3	8b 88 00 00 00
	00		 mov	 ecx, DWORD PTR ?application_sound_effects@@3PAUSOUND_EFFECT_INFORMATION@@A[eax]
  009f9	51		 push	 ecx
  009fa	8d 95 44 f7 ff
	ff		 lea	 edx, DWORD PTR _buf$2[ebp]
  00a00	52		 push	 edx
  00a01	e8 00 00 00 00	 call	 _strcpy
  00a06	83 c4 08	 add	 esp, 8

; 458  : 								ptr = strchr(buf, '.');

  00a09	6a 2e		 push	 46			; 0000002eH
  00a0b	8d 85 44 f7 ff
	ff		 lea	 eax, DWORD PTR _buf$2[ebp]
  00a11	50		 push	 eax
  00a12	e8 00 00 00 00	 call	 ?strchr@@YAPADQADH@Z	; strchr
  00a17	83 c4 08	 add	 esp, 8
  00a1a	89 85 40 f7 ff
	ff		 mov	 DWORD PTR _ptr$1[ebp], eax

; 459  : 								if (ptr)

  00a20	83 bd 40 f7 ff
	ff 00		 cmp	 DWORD PTR _ptr$1[ebp], 0
  00a27	74 09		 je	 SHORT $LN44@import_exp

; 460  : 								{
; 461  : 									*ptr = '\0';

  00a29	8b 85 40 f7 ff
	ff		 mov	 eax, DWORD PTR _ptr$1[ebp]
  00a2f	c6 00 00	 mov	 BYTE PTR [eax], 0
$LN44@import_exp:

; 462  : 								}
; 463  : 								if (!stricmp(buf, name))

  00a32	8b 85 f4 f7 ff
	ff		 mov	 eax, DWORD PTR _name$[ebp]
  00a38	50		 push	 eax
  00a39	8d 8d 44 f7 ff
	ff		 lea	 ecx, DWORD PTR _buf$2[ebp]
  00a3f	51		 push	 ecx
  00a40	ff 15 00 00 00
	00		 call	 DWORD PTR __imp___stricmp
  00a46	83 c4 08	 add	 esp, 8
  00a49	85 c0		 test	 eax, eax
  00a4b	75 11		 jne	 SHORT $LN43@import_exp

; 464  : 								{
; 465  : 									co->sound_type = count;

  00a4d	8b 85 e0 f7 ff
	ff		 mov	 eax, DWORD PTR _co$[ebp]
  00a53	8b 8d c4 f7 ff
	ff		 mov	 ecx, DWORD PTR _count$3[ebp]
  00a59	89 48 04	 mov	 DWORD PTR [eax+4], ecx

; 466  : 									break;

  00a5c	eb 05		 jmp	 SHORT $LN7@import_exp
$LN43@import_exp:

; 467  : 								}
; 468  : 							}
; 469  : 						}

  00a5e	e9 56 ff ff ff	 jmp	 $LN6@import_exp
$LN7@import_exp:

; 470  : 						if (co->sound_type < 0)

  00a63	8b 85 e0 f7 ff
	ff		 mov	 eax, DWORD PTR _co$[ebp]
  00a69	83 78 04 00	 cmp	 DWORD PTR [eax+4], 0
  00a6d	7d 05		 jge	 SHORT $LN46@import_exp

; 471  : 						{
; 472  : 							continue;

  00a6f	e9 e9 f5 ff ff	 jmp	 $LN2@import_exp
$LN46@import_exp:

; 473  : 						}
; 474  : 						if (sscanf(ptr,
; 475  : 							"%f",
; 476  : 							&co->sound_volume) != 1)

  00a74	8b 85 e0 f7 ff
	ff		 mov	 eax, DWORD PTR _co$[ebp]
  00a7a	83 c0 08	 add	 eax, 8
  00a7d	50		 push	 eax
  00a7e	68 00 00 00 00	 push	 OFFSET ??_C@_02NJPGOMH@?$CFf@
  00a83	8b 8d f8 f7 ff
	ff		 mov	 ecx, DWORD PTR _ptr$[ebp]
  00a89	51		 push	 ecx
  00a8a	e8 00 00 00 00	 call	 _sscanf
  00a8f	83 c4 0c	 add	 esp, 12			; 0000000cH
  00a92	83 f8 01	 cmp	 eax, 1
  00a95	74 05		 je	 SHORT $LN47@import_exp

; 477  : 						{
; 478  : 							continue;

  00a97	e9 c1 f5 ff ff	 jmp	 $LN2@import_exp
$LN47@import_exp:

; 479  : 						}
; 480  : 						break;

  00a9c	eb 28		 jmp	 SHORT $LN4@import_exp
$LN48@import_exp:

; 481  : 					}
; 482  : 				default:
; 483  : 					ASSERT(FALSE);

  00a9e	b8 01 00 00 00	 mov	 eax, 1
  00aa3	85 c0		 test	 eax, eax
  00aa5	74 1a		 je	 SHORT $LN49@import_exp
  00aa7	a1 00 00 00 00	 mov	 eax, DWORD PTR ?__LINE__Var@?0??import_explosion_database@@YGXXZ@4JA
  00aac	05 f1 00 00 00	 add	 eax, 241		; 000000f1H
  00ab1	50		 push	 eax
  00ab2	68 00 00 00 00	 push	 OFFSET ??_C@_0FF@DGFFFHKH@c?3?2users?2nhv90?2projects?2eech?2ap@
  00ab7	68 00 00 00 00	 push	 OFFSET ??_C@_05MAJJAKPI@FALSE@
  00abc	e8 00 00 00 00	 call	 ?process_assert@@YGXPBD0H@Z ; process_assert
$LN49@import_exp:

; 484  : 					continue;

  00ac1	e9 97 f5 ff ff	 jmp	 $LN2@import_exp
$LN4@import_exp:

; 485  : 				}
; 486  : 				ex->number_of_components++;

  00ac6	8b 85 e4 f7 ff
	ff		 mov	 eax, DWORD PTR _ex$[ebp]
  00acc	8b 08		 mov	 ecx, DWORD PTR [eax]
  00ace	83 c1 01	 add	 ecx, 1
  00ad1	8b 95 e4 f7 ff
	ff		 mov	 edx, DWORD PTR _ex$[ebp]
  00ad7	89 0a		 mov	 DWORD PTR [edx], ecx
$LN23@import_exp:

; 487  : 			}
; 488  : 		}

  00ad9	e9 7f f5 ff ff	 jmp	 $LN2@import_exp
$LN9@import_exp:

; 489  : 	}
; 490  : 	safe_fclose(file);

  00ade	8b 45 fc	 mov	 eax, DWORD PTR _file$[ebp]
  00ae1	50		 push	 eax
  00ae2	e8 00 00 00 00	 call	 ?safe_fclose@@YGHPAU_iobuf@@@Z ; safe_fclose

; 491  : }

  00ae7	5f		 pop	 edi
  00ae8	5e		 pop	 esi
  00ae9	5b		 pop	 ebx
  00aea	8b e5		 mov	 esp, ebp
  00aec	5d		 pop	 ebp
  00aed	c3		 ret	 0
  00aee	66 90		 npad	 2
$LN109@import_exp:
  00af0	00 00 00 00	 DD	 $LN30@import_exp
  00af4	00 00 00 00	 DD	 $LN33@import_exp
  00af8	00 00 00 00	 DD	 $LN36@import_exp
  00afc	00 00 00 00	 DD	 $LN39@import_exp
  00b00	00 00 00 00	 DD	 $LN42@import_exp
?import_explosion_database@@YGXXZ ENDP			; import_explosion_database
_TEXT	ENDS
; Function compile flags: /Odtp /ZI
; File c:\users\nhv90\projects\eech\aphavoc\source\entity\special\effect\explosn\xp_dbase.c
;	COMDAT ?export_explosion_database@@YGXXZ
_TEXT	SEGMENT
tv93 = -220						; size = 4
_ptr$1 = -152						; size = 4
_buf$2 = -148						; size = 128
_co$ = -20						; size = 4
_ex$ = -16						; size = 4
_count2$ = -12						; size = 4
_count1$ = -8						; size = 4
_file$ = -4						; size = 4
?export_explosion_database@@YGXXZ PROC			; export_explosion_database, COMDAT

; 123  : {

  00000	55		 push	 ebp
  00001	8b ec		 mov	 ebp, esp
  00003	81 ec dc 00 00
	00		 sub	 esp, 220		; 000000dcH
  00009	53		 push	 ebx
  0000a	56		 push	 esi
  0000b	57		 push	 edi

; 124  : 	FILE
; 125  : 		*file;
; 126  : 	int
; 127  : 		count1,
; 128  : 		count2;
; 129  : 	const meta_explosion_data
; 130  : 		*ex;
; 131  : 	const meta_explosion_component
; 132  : 		*co;
; 133  : 
; 134  : 	file = safe_fopen(EXPLOSION_DATABASE_FILENAME, "w");

  0000c	68 00 00 00 00	 push	 OFFSET ??_C@_01NOFIACDB@w@
  00011	68 00 00 00 00	 push	 OFFSET ??_C@_0L@NINGNIJC@EXPLOS?4CSV@
  00016	e8 00 00 00 00	 call	 ?safe_fopen@@YGPAU_iobuf@@PBD0@Z ; safe_fopen
  0001b	89 45 fc	 mov	 DWORD PTR _file$[ebp], eax

; 135  : 	fprintf(file, "EXPLOSION;3\n");

  0001e	68 00 00 00 00	 push	 OFFSET ??_C@_0N@HPFCBHBG@EXPLOSION?$DL3?6@
  00023	8b 45 fc	 mov	 eax, DWORD PTR _file$[ebp]
  00026	50		 push	 eax
  00027	e8 00 00 00 00	 call	 _fprintf
  0002c	83 c4 08	 add	 esp, 8

; 136  : 	fprintf(file,

  0002f	68 00 00 00 00	 push	 OFFSET ??_C@_0CIM@IHEMIDFJ@?$CDExplosion?5index?$DLExplosion?5name@
  00034	8b 45 fc	 mov	 eax, DWORD PTR _file$[ebp]
  00037	50		 push	 eax
  00038	e8 00 00 00 00	 call	 _fprintf
  0003d	83 c4 08	 add	 esp, 8

; 137  : 		"#Explosion index;Explosion name;Damage radius;Show on map\n"
; 138  : 		"#SPRITES;Animated texture;Sprites count;"
; 139  : 			"Colour (red;green;blue;alpha);"
; 140  : 			"Additive;Blast hemisphere only;"
; 141  : 			"Delay max;Lifetime min;Lifetime max;Scale min;Scale max;"
; 142  : 			"Blast radius;Animation frequency;Rotation rate\n"
; 143  : 		"#OBJECTS;Object 3D shape;Objects count;"
; 144  : 			"Colour (red;green;blue;alpha);"
; 145  : 			"Additive;Blast hemisphere only;"
; 146  : 			"Delay max;Lifetime min;Lifetime max;Scale min;Scale max;"
; 147  : 			"Blast radius\n"
; 148  : 		"#PARTICLES;Trail type;Particle count;"
; 149  : 			"Initial speed;Frequency;Smoke lifetime\n"
; 150  : 		"#SMOKE_TRAILS;Trail type;Trail count;"
; 151  : 			"Generator lifetime;Frequency;Smoke lifetime;"
; 152  : 			"Initial velocity (x;y;z)\n"
; 153  : 		"#SOUND_EFFECT;Sound type;Sound volume\n"
; 154  : 		);
; 155  : 	for (count1 = 1; count1 < NUM_META_EXPLOSION_TYPES; count1++)

  00040	c7 45 f8 01 00
	00 00		 mov	 DWORD PTR _count1$[ebp], 1
  00047	eb 09		 jmp	 SHORT $LN4@export_exp
$LN2@export_exp:
  00049	8b 45 f8	 mov	 eax, DWORD PTR _count1$[ebp]
  0004c	83 c0 01	 add	 eax, 1
  0004f	89 45 f8	 mov	 DWORD PTR _count1$[ebp], eax
$LN4@export_exp:
  00052	83 7d f8 15	 cmp	 DWORD PTR _count1$[ebp], 21 ; 00000015H
  00056	0f 8d dd 03 00
	00		 jge	 $LN3@export_exp

; 156  : 	{
; 157  : 		ex = &meta_explosion_database[count1];

  0005c	8b 45 f8	 mov	 eax, DWORD PTR _count1$[ebp]
  0005f	c1 e0 04	 shl	 eax, 4
  00062	05 00 00 00 00	 add	 eax, OFFSET ?meta_explosion_database@@3PAUMETA_EXPLOSION_DATA@@A ; meta_explosion_database
  00067	89 45 f0	 mov	 DWORD PTR _ex$[ebp], eax

; 158  : 		fprintf (file,

  0006a	8b 45 f0	 mov	 eax, DWORD PTR _ex$[ebp]
  0006d	8b 48 08	 mov	 ecx, DWORD PTR [eax+8]
  00070	51		 push	 ecx
  00071	8b 55 f0	 mov	 edx, DWORD PTR _ex$[ebp]
  00074	f3 0f 5a 42 04	 cvtss2sd xmm0, DWORD PTR [edx+4]
  00079	83 ec 08	 sub	 esp, 8
  0007c	f2 0f 11 04 24	 movsd	 QWORD PTR [esp], xmm0
  00081	8b 45 f8	 mov	 eax, DWORD PTR _count1$[ebp]
  00084	8b 0c 85 00 00
	00 00		 mov	 ecx, DWORD PTR ?meta_explosion_names@@3PAPBDA[eax*4]
  0008b	51		 push	 ecx
  0008c	8b 55 f8	 mov	 edx, DWORD PTR _count1$[ebp]
  0008f	52		 push	 edx
  00090	68 00 00 00 00	 push	 OFFSET ??_C@_0N@OHELJHDH@?$CFi?$DL?$CFs?$DL?$CFf?$DL?$CFi?6@
  00095	8b 45 fc	 mov	 eax, DWORD PTR _file$[ebp]
  00098	50		 push	 eax
  00099	e8 00 00 00 00	 call	 _fprintf
  0009e	83 c4 1c	 add	 esp, 28			; 0000001cH

; 159  : 			"%i;%s;%f;%i\n",
; 160  : 			count1, meta_explosion_names[count1], ex->damage_radius, ex->show_on_map);
; 161  : 		for (count2 = 0; count2 < ex->number_of_components; count2++)

  000a1	c7 45 f4 00 00
	00 00		 mov	 DWORD PTR _count2$[ebp], 0
  000a8	eb 09		 jmp	 SHORT $LN7@export_exp
$LN5@export_exp:
  000aa	8b 45 f4	 mov	 eax, DWORD PTR _count2$[ebp]
  000ad	83 c0 01	 add	 eax, 1
  000b0	89 45 f4	 mov	 DWORD PTR _count2$[ebp], eax
$LN7@export_exp:
  000b3	8b 45 f0	 mov	 eax, DWORD PTR _ex$[ebp]
  000b6	8b 4d f4	 mov	 ecx, DWORD PTR _count2$[ebp]
  000b9	3b 08		 cmp	 ecx, DWORD PTR [eax]
  000bb	0f 8d 73 03 00
	00		 jge	 $LN6@export_exp

; 162  : 		{
; 163  : 			co = &ex->component[count2];

  000c1	6b 45 f4 34	 imul	 eax, DWORD PTR _count2$[ebp], 52
  000c5	8b 4d f0	 mov	 ecx, DWORD PTR _ex$[ebp]
  000c8	03 41 0c	 add	 eax, DWORD PTR [ecx+12]
  000cb	89 45 ec	 mov	 DWORD PTR _co$[ebp], eax

; 164  : 			switch (co->type)

  000ce	8b 45 ec	 mov	 eax, DWORD PTR _co$[ebp]
  000d1	8b 08		 mov	 ecx, DWORD PTR [eax]
  000d3	89 8d 24 ff ff
	ff		 mov	 DWORD PTR tv93[ebp], ecx
  000d9	83 bd 24 ff ff
	ff 04		 cmp	 DWORD PTR tv93[ebp], 4
  000e0	0f 87 28 03 00
	00		 ja	 $LN16@export_exp
  000e6	8b 95 24 ff ff
	ff		 mov	 edx, DWORD PTR tv93[ebp]
  000ec	ff 24 95 00 00
	00 00		 jmp	 DWORD PTR $LN19@export_exp[edx*4]
$LN10@export_exp:

; 165  : 			{
; 166  : 			case EXPLOSION_SPRITES:
; 167  : 				{
; 168  : 					fprintf(file,

  000f3	8b 45 ec	 mov	 eax, DWORD PTR _co$[ebp]
  000f6	f3 0f 5a 40 30	 cvtss2sd xmm0, DWORD PTR [eax+48]
  000fb	83 ec 08	 sub	 esp, 8
  000fe	f2 0f 11 04 24	 movsd	 QWORD PTR [esp], xmm0
  00103	8b 4d ec	 mov	 ecx, DWORD PTR _co$[ebp]
  00106	f3 0f 5a 41 2c	 cvtss2sd xmm0, DWORD PTR [ecx+44]
  0010b	83 ec 08	 sub	 esp, 8
  0010e	f2 0f 11 04 24	 movsd	 QWORD PTR [esp], xmm0
  00113	8b 55 ec	 mov	 edx, DWORD PTR _co$[ebp]
  00116	f3 0f 5a 42 28	 cvtss2sd xmm0, DWORD PTR [edx+40]
  0011b	83 ec 08	 sub	 esp, 8
  0011e	f2 0f 11 04 24	 movsd	 QWORD PTR [esp], xmm0
  00123	8b 45 ec	 mov	 eax, DWORD PTR _co$[ebp]
  00126	f3 0f 5a 40 24	 cvtss2sd xmm0, DWORD PTR [eax+36]
  0012b	83 ec 08	 sub	 esp, 8
  0012e	f2 0f 11 04 24	 movsd	 QWORD PTR [esp], xmm0
  00133	8b 4d ec	 mov	 ecx, DWORD PTR _co$[ebp]
  00136	f3 0f 5a 41 20	 cvtss2sd xmm0, DWORD PTR [ecx+32]
  0013b	83 ec 08	 sub	 esp, 8
  0013e	f2 0f 11 04 24	 movsd	 QWORD PTR [esp], xmm0
  00143	8b 55 ec	 mov	 edx, DWORD PTR _co$[ebp]
  00146	f3 0f 5a 42 1c	 cvtss2sd xmm0, DWORD PTR [edx+28]
  0014b	83 ec 08	 sub	 esp, 8
  0014e	f2 0f 11 04 24	 movsd	 QWORD PTR [esp], xmm0
  00153	8b 45 ec	 mov	 eax, DWORD PTR _co$[ebp]
  00156	f3 0f 5a 40 18	 cvtss2sd xmm0, DWORD PTR [eax+24]
  0015b	83 ec 08	 sub	 esp, 8
  0015e	f2 0f 11 04 24	 movsd	 QWORD PTR [esp], xmm0
  00163	8b 4d ec	 mov	 ecx, DWORD PTR _co$[ebp]
  00166	f3 0f 5a 41 14	 cvtss2sd xmm0, DWORD PTR [ecx+20]
  0016b	83 ec 08	 sub	 esp, 8
  0016e	f2 0f 11 04 24	 movsd	 QWORD PTR [esp], xmm0
  00173	8b 55 ec	 mov	 edx, DWORD PTR _co$[ebp]
  00176	8a 42 10	 mov	 al, BYTE PTR [edx+16]
  00179	d0 e8		 shr	 al, 1
  0017b	24 01		 and	 al, 1
  0017d	0f b6 c8	 movzx	 ecx, al
  00180	51		 push	 ecx
  00181	8b 55 ec	 mov	 edx, DWORD PTR _co$[ebp]
  00184	8a 42 10	 mov	 al, BYTE PTR [edx+16]
  00187	24 01		 and	 al, 1
  00189	0f b6 c8	 movzx	 ecx, al
  0018c	51		 push	 ecx
  0018d	8b 55 ec	 mov	 edx, DWORD PTR _co$[ebp]
  00190	0f b6 42 0f	 movzx	 eax, BYTE PTR [edx+15]
  00194	50		 push	 eax
  00195	8b 4d ec	 mov	 ecx, DWORD PTR _co$[ebp]
  00198	0f b6 51 0e	 movzx	 edx, BYTE PTR [ecx+14]
  0019c	52		 push	 edx
  0019d	8b 45 ec	 mov	 eax, DWORD PTR _co$[ebp]
  001a0	0f b6 48 0d	 movzx	 ecx, BYTE PTR [eax+13]
  001a4	51		 push	 ecx
  001a5	8b 55 ec	 mov	 edx, DWORD PTR _co$[ebp]
  001a8	0f b6 42 0c	 movzx	 eax, BYTE PTR [edx+12]
  001ac	50		 push	 eax
  001ad	8b 4d ec	 mov	 ecx, DWORD PTR _co$[ebp]
  001b0	8b 51 08	 mov	 edx, DWORD PTR [ecx+8]
  001b3	52		 push	 edx
  001b4	8b 45 ec	 mov	 eax, DWORD PTR _co$[ebp]
  001b7	8b 48 04	 mov	 ecx, DWORD PTR [eax+4]
  001ba	8b 15 00 00 00
	00		 mov	 edx, DWORD PTR ?texture_animation_names@@3PAPBDA ; texture_animation_names
  001c0	8b 04 8a	 mov	 eax, DWORD PTR [edx+ecx*4]
  001c3	50		 push	 eax
  001c4	68 00 00 00 00	 push	 OFFSET ??_C@_0DJ@HNLPLEOB@SPRITES?$DL?$CFs?$DL?$CFi?$DL?$CFi?$DL?$CFi?$DL?$CFi?$DL?$CFi?$DL?$CFi?$DL?$CFi@
  001c9	8b 4d fc	 mov	 ecx, DWORD PTR _file$[ebp]
  001cc	51		 push	 ecx
  001cd	e8 00 00 00 00	 call	 _fprintf
  001d2	83 c4 68	 add	 esp, 104		; 00000068H

; 169  : 						"SPRITES;%s;%i;"
; 170  : 						"%i;%i;%i;%i;"
; 171  : 						"%i;%i;"
; 172  : 						"%f;%f;%f;%f;%f;"
; 173  : 						"%f;%f;%f\n",
; 174  : 						texture_animation_names[co->animated_texture], co->sprite_count,
; 175  : 						co->red, co->green, co->blue, co->alpha,
; 176  : 						co->additive, co->blast_hemisphere_only,
; 177  : 						co->delay_max, co->lifetime_min, co->lifetime_max, co->scale_min, co->scale_max,
; 178  : 						co->blast_radius, co->animation_frequency, co->rotation_rate);
; 179  : 					break;

  001d5	e9 55 02 00 00	 jmp	 $LN8@export_exp
$LN11@export_exp:

; 180  : 				}
; 181  : 			case EXPLOSION_OBJECTS:
; 182  : 				{
; 183  : 					fprintf(file,

  001da	8b 45 ec	 mov	 eax, DWORD PTR _co$[ebp]
  001dd	f3 0f 5a 40 28	 cvtss2sd xmm0, DWORD PTR [eax+40]
  001e2	83 ec 08	 sub	 esp, 8
  001e5	f2 0f 11 04 24	 movsd	 QWORD PTR [esp], xmm0
  001ea	8b 4d ec	 mov	 ecx, DWORD PTR _co$[ebp]
  001ed	f3 0f 5a 41 24	 cvtss2sd xmm0, DWORD PTR [ecx+36]
  001f2	83 ec 08	 sub	 esp, 8
  001f5	f2 0f 11 04 24	 movsd	 QWORD PTR [esp], xmm0
  001fa	8b 55 ec	 mov	 edx, DWORD PTR _co$[ebp]
  001fd	f3 0f 5a 42 20	 cvtss2sd xmm0, DWORD PTR [edx+32]
  00202	83 ec 08	 sub	 esp, 8
  00205	f2 0f 11 04 24	 movsd	 QWORD PTR [esp], xmm0
  0020a	8b 45 ec	 mov	 eax, DWORD PTR _co$[ebp]
  0020d	f3 0f 5a 40 1c	 cvtss2sd xmm0, DWORD PTR [eax+28]
  00212	83 ec 08	 sub	 esp, 8
  00215	f2 0f 11 04 24	 movsd	 QWORD PTR [esp], xmm0
  0021a	8b 4d ec	 mov	 ecx, DWORD PTR _co$[ebp]
  0021d	f3 0f 5a 41 18	 cvtss2sd xmm0, DWORD PTR [ecx+24]
  00222	83 ec 08	 sub	 esp, 8
  00225	f2 0f 11 04 24	 movsd	 QWORD PTR [esp], xmm0
  0022a	8b 55 ec	 mov	 edx, DWORD PTR _co$[ebp]
  0022d	f3 0f 5a 42 14	 cvtss2sd xmm0, DWORD PTR [edx+20]
  00232	83 ec 08	 sub	 esp, 8
  00235	f2 0f 11 04 24	 movsd	 QWORD PTR [esp], xmm0
  0023a	8b 45 ec	 mov	 eax, DWORD PTR _co$[ebp]
  0023d	8a 48 10	 mov	 cl, BYTE PTR [eax+16]
  00240	d0 e9		 shr	 cl, 1
  00242	80 e1 01	 and	 cl, 1
  00245	0f b6 d1	 movzx	 edx, cl
  00248	52		 push	 edx
  00249	8b 45 ec	 mov	 eax, DWORD PTR _co$[ebp]
  0024c	8a 48 10	 mov	 cl, BYTE PTR [eax+16]
  0024f	80 e1 01	 and	 cl, 1
  00252	0f b6 d1	 movzx	 edx, cl
  00255	52		 push	 edx
  00256	8b 45 ec	 mov	 eax, DWORD PTR _co$[ebp]
  00259	0f b6 48 0f	 movzx	 ecx, BYTE PTR [eax+15]
  0025d	51		 push	 ecx
  0025e	8b 55 ec	 mov	 edx, DWORD PTR _co$[ebp]
  00261	0f b6 42 0e	 movzx	 eax, BYTE PTR [edx+14]
  00265	50		 push	 eax
  00266	8b 4d ec	 mov	 ecx, DWORD PTR _co$[ebp]
  00269	0f b6 51 0d	 movzx	 edx, BYTE PTR [ecx+13]
  0026d	52		 push	 edx
  0026e	8b 45 ec	 mov	 eax, DWORD PTR _co$[ebp]
  00271	0f b6 48 0c	 movzx	 ecx, BYTE PTR [eax+12]
  00275	51		 push	 ecx
  00276	8b 55 ec	 mov	 edx, DWORD PTR _co$[ebp]
  00279	8b 42 08	 mov	 eax, DWORD PTR [edx+8]
  0027c	50		 push	 eax
  0027d	8b 4d ec	 mov	 ecx, DWORD PTR _co$[ebp]
  00280	8b 51 04	 mov	 edx, DWORD PTR [ecx+4]
  00283	a1 00 00 00 00	 mov	 eax, DWORD PTR ?object_3d_enumeration_names@@3PAPBDA ; object_3d_enumeration_names
  00288	8b 0c 90	 mov	 ecx, DWORD PTR [eax+edx*4]
  0028b	51		 push	 ecx
  0028c	68 00 00 00 00	 push	 OFFSET ??_C@_0DD@OJGFMCAE@OBJECTS?$DL?$CFs?$DL?$CFi?$DL?$CFi?$DL?$CFi?$DL?$CFi?$DL?$CFi?$DL?$CFi?$DL?$CFi@
  00291	8b 55 fc	 mov	 edx, DWORD PTR _file$[ebp]
  00294	52		 push	 edx
  00295	e8 00 00 00 00	 call	 _fprintf
  0029a	83 c4 58	 add	 esp, 88			; 00000058H

; 184  : 						"OBJECTS;%s;%i;"
; 185  : 						"%i;%i;%i;%i;"
; 186  : 						"%i;%i;"
; 187  : 						"%f;%f;%f;%f;%f;"
; 188  : 						"%f\n",
; 189  : 						object_3d_enumeration_names[co->object_3d_shape], co->object_count,
; 190  : 						co->red, co->green, co->blue, co->alpha,
; 191  : 						co->additive, co->blast_hemisphere_only,
; 192  : 						co->delay_max, co->lifetime_min, co->lifetime_max, co->scale_min, co->scale_max,
; 193  : 						co->blast_radius);
; 194  : 					break;

  0029d	e9 8d 01 00 00	 jmp	 $LN8@export_exp
$LN12@export_exp:

; 195  : 				}
; 196  : 			case EXPLOSION_PARTICLES:
; 197  : 				{
; 198  : 					fprintf(file,

  002a2	8b 45 ec	 mov	 eax, DWORD PTR _co$[ebp]
  002a5	f3 0f 5a 40 14	 cvtss2sd xmm0, DWORD PTR [eax+20]
  002aa	83 ec 08	 sub	 esp, 8
  002ad	f2 0f 11 04 24	 movsd	 QWORD PTR [esp], xmm0
  002b2	8b 4d ec	 mov	 ecx, DWORD PTR _co$[ebp]
  002b5	f3 0f 5a 41 10	 cvtss2sd xmm0, DWORD PTR [ecx+16]
  002ba	83 ec 08	 sub	 esp, 8
  002bd	f2 0f 11 04 24	 movsd	 QWORD PTR [esp], xmm0
  002c2	8b 55 ec	 mov	 edx, DWORD PTR _co$[ebp]
  002c5	f3 0f 5a 42 0c	 cvtss2sd xmm0, DWORD PTR [edx+12]
  002ca	83 ec 08	 sub	 esp, 8
  002cd	f2 0f 11 04 24	 movsd	 QWORD PTR [esp], xmm0
  002d2	8b 45 ec	 mov	 eax, DWORD PTR _co$[ebp]
  002d5	8b 48 04	 mov	 ecx, DWORD PTR [eax+4]
  002d8	51		 push	 ecx
  002d9	8b 55 ec	 mov	 edx, DWORD PTR _co$[ebp]
  002dc	8b 42 08	 mov	 eax, DWORD PTR [edx+8]
  002df	8b 0d 00 00 00
	00		 mov	 ecx, DWORD PTR ?smoke_list_types_names@@3PAPADA ; smoke_list_types_names
  002e5	8b 14 81	 mov	 edx, DWORD PTR [ecx+eax*4]
  002e8	52		 push	 edx
  002e9	68 00 00 00 00	 push	 OFFSET ??_C@_0BK@EMHBBKFK@PARTICLES?$DL?$CFs?$DL?$CFi?$DL?$CFf?$DL?$CFf?$DL?$CFf?6@
  002ee	8b 45 fc	 mov	 eax, DWORD PTR _file$[ebp]
  002f1	50		 push	 eax
  002f2	e8 00 00 00 00	 call	 _fprintf
  002f7	83 c4 28	 add	 esp, 40			; 00000028H

; 199  : 						"PARTICLES;%s;%i;"
; 200  : 						"%f;%f;%f\n",
; 201  : 						smoke_list_types_names[co->trail_type], co->particle_count,
; 202  : 						co->initial_speed, co->frequency, co->smoke_lifetime);
; 203  : 					break;

  002fa	e9 30 01 00 00	 jmp	 $LN8@export_exp
$LN13@export_exp:

; 204  : 				}
; 205  : 			case EXPLOSION_SMOKE_TRAILS:
; 206  : 				{
; 207  : 					fprintf(file,

  002ff	8b 45 ec	 mov	 eax, DWORD PTR _co$[ebp]
  00302	f3 0f 5a 40 20	 cvtss2sd xmm0, DWORD PTR [eax+32]
  00307	83 ec 08	 sub	 esp, 8
  0030a	f2 0f 11 04 24	 movsd	 QWORD PTR [esp], xmm0
  0030f	8b 4d ec	 mov	 ecx, DWORD PTR _co$[ebp]
  00312	f3 0f 5a 41 1c	 cvtss2sd xmm0, DWORD PTR [ecx+28]
  00317	83 ec 08	 sub	 esp, 8
  0031a	f2 0f 11 04 24	 movsd	 QWORD PTR [esp], xmm0
  0031f	8b 55 ec	 mov	 edx, DWORD PTR _co$[ebp]
  00322	f3 0f 5a 42 18	 cvtss2sd xmm0, DWORD PTR [edx+24]
  00327	83 ec 08	 sub	 esp, 8
  0032a	f2 0f 11 04 24	 movsd	 QWORD PTR [esp], xmm0
  0032f	8b 45 ec	 mov	 eax, DWORD PTR _co$[ebp]
  00332	f3 0f 5a 40 14	 cvtss2sd xmm0, DWORD PTR [eax+20]
  00337	83 ec 08	 sub	 esp, 8
  0033a	f2 0f 11 04 24	 movsd	 QWORD PTR [esp], xmm0
  0033f	8b 4d ec	 mov	 ecx, DWORD PTR _co$[ebp]
  00342	f3 0f 5a 41 10	 cvtss2sd xmm0, DWORD PTR [ecx+16]
  00347	83 ec 08	 sub	 esp, 8
  0034a	f2 0f 11 04 24	 movsd	 QWORD PTR [esp], xmm0
  0034f	8b 55 ec	 mov	 edx, DWORD PTR _co$[ebp]
  00352	f3 0f 5a 42 0c	 cvtss2sd xmm0, DWORD PTR [edx+12]
  00357	83 ec 08	 sub	 esp, 8
  0035a	f2 0f 11 04 24	 movsd	 QWORD PTR [esp], xmm0
  0035f	8b 45 ec	 mov	 eax, DWORD PTR _co$[ebp]
  00362	8b 48 04	 mov	 ecx, DWORD PTR [eax+4]
  00365	51		 push	 ecx
  00366	8b 55 ec	 mov	 edx, DWORD PTR _co$[ebp]
  00369	8b 42 08	 mov	 eax, DWORD PTR [edx+8]
  0036c	8b 0d 00 00 00
	00		 mov	 ecx, DWORD PTR ?smoke_list_types_names@@3PAPADA ; smoke_list_types_names
  00372	8b 14 81	 mov	 edx, DWORD PTR [ecx+eax*4]
  00375	52		 push	 edx
  00376	68 00 00 00 00	 push	 OFFSET ??_C@_0CG@EAFOEPIE@SMOKE_TRAILS?$DL?$CFs?$DL?$CFi?$DL?$CFf?$DL?$CFf?$DL?$CFf?$DL?$CFf?$DL@
  0037b	8b 45 fc	 mov	 eax, DWORD PTR _file$[ebp]
  0037e	50		 push	 eax
  0037f	e8 00 00 00 00	 call	 _fprintf
  00384	83 c4 40	 add	 esp, 64			; 00000040H

; 208  : 						"SMOKE_TRAILS;%s;%i;"
; 209  : 						"%f;%f;%f;"
; 210  : 						"%f;%f;%f\n",
; 211  : 						smoke_list_types_names[co->trail_type], co->trail_count,
; 212  : 						co->generator_lifetime, co->frequency, co->smoke_lifetime,
; 213  : 						co->initial_velocity.x, co->initial_velocity.y, co->initial_velocity.z);
; 214  : 					break;

  00387	e9 a3 00 00 00	 jmp	 $LN8@export_exp
$LN14@export_exp:

; 215  : 				}
; 216  : 			case EXPLOSION_SOUND_EFFECT:
; 217  : 				{
; 218  : 					char
; 219  : 						buf[128],
; 220  : 						*ptr;
; 221  : 					strcpy(buf, application_sound_effects[co->sound_type].name);

  0038c	8b 45 ec	 mov	 eax, DWORD PTR _co$[ebp]
  0038f	8b 48 04	 mov	 ecx, DWORD PTR [eax+4]
  00392	c1 e1 05	 shl	 ecx, 5
  00395	8b 91 00 00 00
	00		 mov	 edx, DWORD PTR ?application_sound_effects@@3PAUSOUND_EFFECT_INFORMATION@@A[ecx]
  0039b	52		 push	 edx
  0039c	8d 85 6c ff ff
	ff		 lea	 eax, DWORD PTR _buf$2[ebp]
  003a2	50		 push	 eax
  003a3	e8 00 00 00 00	 call	 _strcpy
  003a8	83 c4 08	 add	 esp, 8

; 222  : 					ptr = strchr(buf, '.');

  003ab	6a 2e		 push	 46			; 0000002eH
  003ad	8d 85 6c ff ff
	ff		 lea	 eax, DWORD PTR _buf$2[ebp]
  003b3	50		 push	 eax
  003b4	e8 00 00 00 00	 call	 ?strchr@@YAPADQADH@Z	; strchr
  003b9	83 c4 08	 add	 esp, 8
  003bc	89 85 68 ff ff
	ff		 mov	 DWORD PTR _ptr$1[ebp], eax

; 223  : 					if (ptr)

  003c2	83 bd 68 ff ff
	ff 00		 cmp	 DWORD PTR _ptr$1[ebp], 0
  003c9	74 09		 je	 SHORT $LN15@export_exp

; 224  : 					{
; 225  : 						*ptr = '\0';

  003cb	8b 85 68 ff ff
	ff		 mov	 eax, DWORD PTR _ptr$1[ebp]
  003d1	c6 00 00	 mov	 BYTE PTR [eax], 0
$LN15@export_exp:

; 226  : 					}
; 227  : 					strupr(buf);

  003d4	8d 85 6c ff ff
	ff		 lea	 eax, DWORD PTR _buf$2[ebp]
  003da	50		 push	 eax
  003db	ff 15 00 00 00
	00		 call	 DWORD PTR __imp___strupr
  003e1	83 c4 04	 add	 esp, 4

; 228  : 					fprintf(file,

  003e4	8b 45 ec	 mov	 eax, DWORD PTR _co$[ebp]
  003e7	f3 0f 5a 40 08	 cvtss2sd xmm0, DWORD PTR [eax+8]
  003ec	83 ec 08	 sub	 esp, 8
  003ef	f2 0f 11 04 24	 movsd	 QWORD PTR [esp], xmm0
  003f4	8d 8d 6c ff ff
	ff		 lea	 ecx, DWORD PTR _buf$2[ebp]
  003fa	51		 push	 ecx
  003fb	68 00 00 00 00	 push	 OFFSET ??_C@_0BE@NPOGGDA@SOUND_EFFECT?$DL?$CFs?$DL?$CFf?6@
  00400	8b 55 fc	 mov	 edx, DWORD PTR _file$[ebp]
  00403	52		 push	 edx
  00404	e8 00 00 00 00	 call	 _fprintf
  00409	83 c4 14	 add	 esp, 20			; 00000014H

; 229  : 						"SOUND_EFFECT;%s;%f\n",
; 230  : 						buf, co->sound_volume);
; 231  : 					break;

  0040c	eb 21		 jmp	 SHORT $LN8@export_exp
$LN16@export_exp:

; 232  : 				}
; 233  : 			default:
; 234  : 				ASSERT(FALSE);

  0040e	b8 01 00 00 00	 mov	 eax, 1
  00413	85 c0		 test	 eax, eax
  00415	74 18		 je	 SHORT $LN17@export_exp
  00417	a1 00 00 00 00	 mov	 eax, DWORD PTR ?__LINE__Var@?0??export_explosion_database@@YGXXZ@4JA
  0041c	83 c0 6f	 add	 eax, 111		; 0000006fH
  0041f	50		 push	 eax
  00420	68 00 00 00 00	 push	 OFFSET ??_C@_0FF@DGFFFHKH@c?3?2users?2nhv90?2projects?2eech?2ap@
  00425	68 00 00 00 00	 push	 OFFSET ??_C@_05MAJJAKPI@FALSE@
  0042a	e8 00 00 00 00	 call	 ?process_assert@@YGXPBD0H@Z ; process_assert
$LN17@export_exp:
$LN8@export_exp:

; 235  : 			}
; 236  : 		}

  0042f	e9 76 fc ff ff	 jmp	 $LN5@export_exp
$LN6@export_exp:

; 237  : 	}

  00434	e9 10 fc ff ff	 jmp	 $LN2@export_exp
$LN3@export_exp:

; 238  : 	safe_fclose(file);

  00439	8b 45 fc	 mov	 eax, DWORD PTR _file$[ebp]
  0043c	50		 push	 eax
  0043d	e8 00 00 00 00	 call	 ?safe_fclose@@YGHPAU_iobuf@@@Z ; safe_fclose

; 239  : }

  00442	5f		 pop	 edi
  00443	5e		 pop	 esi
  00444	5b		 pop	 ebx
  00445	8b e5		 mov	 esp, ebp
  00447	5d		 pop	 ebp
  00448	c3		 ret	 0
  00449	0f 1f 00	 npad	 3
$LN19@export_exp:
  0044c	00 00 00 00	 DD	 $LN10@export_exp
  00450	00 00 00 00	 DD	 $LN11@export_exp
  00454	00 00 00 00	 DD	 $LN12@export_exp
  00458	00 00 00 00	 DD	 $LN13@export_exp
  0045c	00 00 00 00	 DD	 $LN14@export_exp
?export_explosion_database@@YGXXZ ENDP			; export_explosion_database
_TEXT	ENDS
; Function compile flags: /Odtp /ZI
; File c:\users\nhv90\projects\eech\aphavoc\source\entity\special\effect\explosn\xp_dbase.c
;	COMDAT ?initialise_object_explosive_explosion_database@@YGXXZ
_TEXT	SEGMENT
_this_explosion$ = -8					; size = 4
_explosion_info$ = -4					; size = 4
?initialise_object_explosive_explosion_database@@YGXXZ PROC ; initialise_object_explosive_explosion_database, COMDAT

; 2235 : {

  00000	55		 push	 ebp
  00001	8b ec		 mov	 ebp, esp
  00003	83 ec 48	 sub	 esp, 72			; 00000048H
  00006	53		 push	 ebx
  00007	56		 push	 esi
  00008	57		 push	 edi

; 2236 : 
; 2237 : 	meta_explosion_component
; 2238 : 		*explosion_info;
; 2239 : 
; 2240 : 	meta_explosion_data
; 2241 : 		*this_explosion;
; 2242 : 
; 2243 : 	////////////////////////////////////////
; 2244 : 	//
; 2245 : 	// SMALL EXPLOSIVE OBJECT EXPLOSION
; 2246 : 	//
; 2247 : 	////////////////////////////////////////
; 2248 : 
; 2249 : 	this_explosion = &(meta_explosion_database[ SMALL_EXPLOSIVE_OBJECT_META_EXPLOSION ]);

  00009	b8 10 00 00 00	 mov	 eax, 16			; 00000010H
  0000e	6b c8 0c	 imul	 ecx, eax, 12
  00011	81 c1 00 00 00
	00		 add	 ecx, OFFSET ?meta_explosion_database@@3PAUMETA_EXPLOSION_DATA@@A ; meta_explosion_database
  00017	89 4d f8	 mov	 DWORD PTR _this_explosion$[ebp], ecx

; 2250 : 
; 2251 : 	this_explosion->number_of_components	=	4;

  0001a	8b 45 f8	 mov	 eax, DWORD PTR _this_explosion$[ebp]
  0001d	c7 00 04 00 00
	00		 mov	 DWORD PTR [eax], 4

; 2252 : 
; 2253 : 	this_explosion->damage_radius				=	10.0;

  00023	8b 45 f8	 mov	 eax, DWORD PTR _this_explosion$[ebp]
  00026	f3 0f 10 05 00
	00 00 00	 movss	 xmm0, DWORD PTR __real@41200000
  0002e	f3 0f 11 40 04	 movss	 DWORD PTR [eax+4], xmm0

; 2254 : 
; 2255 : 	this_explosion->show_on_map				=	TRUE;

  00033	8b 45 f8	 mov	 eax, DWORD PTR _this_explosion$[ebp]
  00036	c7 40 08 01 00
	00 00		 mov	 DWORD PTR [eax+8], 1

; 2256 : 
; 2257 : 	this_explosion->component = (meta_explosion_component *) malloc_fast_mem( sizeof( meta_explosion_component ) * this_explosion->number_of_components );

  0003d	8b 45 f8	 mov	 eax, DWORD PTR _this_explosion$[ebp]
  00040	6b 08 34	 imul	 ecx, DWORD PTR [eax], 52
  00043	51		 push	 ecx
  00044	e8 00 00 00 00	 call	 ?malloc_fast_memory@@YGPAXI@Z ; malloc_fast_memory
  00049	8b 55 f8	 mov	 edx, DWORD PTR _this_explosion$[ebp]
  0004c	89 42 0c	 mov	 DWORD PTR [edx+12], eax

; 2258 : 
; 2259 : 	//
; 2260 : 	// component 0
; 2261 : 	//
; 2262 : 
; 2263 : 	explosion_info = &(this_explosion->component[ 0 ]);

  0004f	b8 34 00 00 00	 mov	 eax, 52			; 00000034H
  00054	6b c8 00	 imul	 ecx, eax, 0
  00057	8b 55 f8	 mov	 edx, DWORD PTR _this_explosion$[ebp]
  0005a	03 4a 0c	 add	 ecx, DWORD PTR [edx+12]
  0005d	89 4d fc	 mov	 DWORD PTR _explosion_info$[ebp], ecx

; 2264 : 
; 2265 : 	explosion_info->type 						=	EXPLOSION_OBJECTS;

  00060	8b 45 fc	 mov	 eax, DWORD PTR _explosion_info$[ebp]
  00063	c7 00 01 00 00
	00		 mov	 DWORD PTR [eax], 1

; 2266 : 
; 2267 : 	explosion_info->object_3d_shape 			=	OBJECT_3D_EFFECT_DEBRI;

  00069	8b 45 fc	 mov	 eax, DWORD PTR _explosion_info$[ebp]
  0006c	c7 40 04 18 0a
	00 00		 mov	 DWORD PTR [eax+4], 2584	; 00000a18H

; 2268 : 
; 2269 : 	explosion_info->object_count 				=	1;

  00073	8b 45 fc	 mov	 eax, DWORD PTR _explosion_info$[ebp]
  00076	c7 40 08 01 00
	00 00		 mov	 DWORD PTR [eax+8], 1

; 2270 : 
; 2271 : 	explosion_info->red 							=	160;

  0007d	8b 45 fc	 mov	 eax, DWORD PTR _explosion_info$[ebp]
  00080	c6 40 0c a0	 mov	 BYTE PTR [eax+12], 160	; 000000a0H

; 2272 : 	explosion_info->green 						= 	160;

  00084	8b 45 fc	 mov	 eax, DWORD PTR _explosion_info$[ebp]
  00087	c6 40 0d a0	 mov	 BYTE PTR [eax+13], 160	; 000000a0H

; 2273 : 	explosion_info->blue 						=	160;

  0008b	8b 45 fc	 mov	 eax, DWORD PTR _explosion_info$[ebp]
  0008e	c6 40 0e a0	 mov	 BYTE PTR [eax+14], 160	; 000000a0H

; 2274 : 	explosion_info->alpha 						=	180;

  00092	8b 45 fc	 mov	 eax, DWORD PTR _explosion_info$[ebp]
  00095	c6 40 0f b4	 mov	 BYTE PTR [eax+15], 180	; 000000b4H

; 2275 : 
; 2276 : 	explosion_info->blast_hemisphere_only	=	TRUE;

  00099	8b 45 fc	 mov	 eax, DWORD PTR _explosion_info$[ebp]
  0009c	8a 48 10	 mov	 cl, BYTE PTR [eax+16]
  0009f	80 c9 02	 or	 cl, 2
  000a2	8b 55 fc	 mov	 edx, DWORD PTR _explosion_info$[ebp]
  000a5	88 4a 10	 mov	 BYTE PTR [edx+16], cl

; 2277 : 
; 2278 : 	explosion_info->delay_max 					=	0.0;

  000a8	8b 45 fc	 mov	 eax, DWORD PTR _explosion_info$[ebp]
  000ab	0f 57 c0	 xorps	 xmm0, xmm0
  000ae	f3 0f 11 40 14	 movss	 DWORD PTR [eax+20], xmm0

; 2279 : 
; 2280 : 	explosion_info->lifetime_min 				=	1.0;

  000b3	8b 45 fc	 mov	 eax, DWORD PTR _explosion_info$[ebp]
  000b6	f3 0f 10 05 00
	00 00 00	 movss	 xmm0, DWORD PTR __real@3f800000
  000be	f3 0f 11 40 18	 movss	 DWORD PTR [eax+24], xmm0

; 2281 : 	explosion_info->lifetime_max 				=	1.0;

  000c3	8b 45 fc	 mov	 eax, DWORD PTR _explosion_info$[ebp]
  000c6	f3 0f 10 05 00
	00 00 00	 movss	 xmm0, DWORD PTR __real@3f800000
  000ce	f3 0f 11 40 1c	 movss	 DWORD PTR [eax+28], xmm0

; 2282 : 
; 2283 : 	explosion_info->scale_min 					=	2.0;

  000d3	8b 45 fc	 mov	 eax, DWORD PTR _explosion_info$[ebp]
  000d6	f3 0f 10 05 00
	00 00 00	 movss	 xmm0, DWORD PTR __real@40000000
  000de	f3 0f 11 40 20	 movss	 DWORD PTR [eax+32], xmm0

; 2284 : 	explosion_info->scale_max 					=	2.0;

  000e3	8b 45 fc	 mov	 eax, DWORD PTR _explosion_info$[ebp]
  000e6	f3 0f 10 05 00
	00 00 00	 movss	 xmm0, DWORD PTR __real@40000000
  000ee	f3 0f 11 40 24	 movss	 DWORD PTR [eax+36], xmm0

; 2285 : 
; 2286 : 	explosion_info->blast_radius		 		=	0.0;

  000f3	8b 45 fc	 mov	 eax, DWORD PTR _explosion_info$[ebp]
  000f6	0f 57 c0	 xorps	 xmm0, xmm0
  000f9	f3 0f 11 40 28	 movss	 DWORD PTR [eax+40], xmm0

; 2287 : 
; 2288 : 	//
; 2289 : 	// component 1
; 2290 : 	//
; 2291 : 
; 2292 : 	explosion_info = &(this_explosion->component[ 1 ]);

  000fe	b8 34 00 00 00	 mov	 eax, 52			; 00000034H
  00103	c1 e0 00	 shl	 eax, 0
  00106	8b 4d f8	 mov	 ecx, DWORD PTR _this_explosion$[ebp]
  00109	03 41 0c	 add	 eax, DWORD PTR [ecx+12]
  0010c	89 45 fc	 mov	 DWORD PTR _explosion_info$[ebp], eax

; 2293 : 
; 2294 : 	explosion_info->type 						=	EXPLOSION_SPRITES;

  0010f	8b 45 fc	 mov	 eax, DWORD PTR _explosion_info$[ebp]
  00112	c7 00 00 00 00
	00		 mov	 DWORD PTR [eax], 0

; 2295 : 
; 2296 : 	explosion_info->animated_texture 		=	TEXTURE_ANIMATION_INDEX_CANNON_FLARE;

  00118	8b 45 fc	 mov	 eax, DWORD PTR _explosion_info$[ebp]
  0011b	c7 40 04 59 00
	00 00		 mov	 DWORD PTR [eax+4], 89	; 00000059H

; 2297 : 
; 2298 : 	explosion_info->sprite_count 				=	3;

  00122	8b 45 fc	 mov	 eax, DWORD PTR _explosion_info$[ebp]
  00125	c7 40 08 03 00
	00 00		 mov	 DWORD PTR [eax+8], 3

; 2299 : 
; 2300 : 	explosion_info->red 							=	255;

  0012c	8b 45 fc	 mov	 eax, DWORD PTR _explosion_info$[ebp]
  0012f	c6 40 0c ff	 mov	 BYTE PTR [eax+12], 255	; 000000ffH

; 2301 : 	explosion_info->green 						= 	255;

  00133	8b 45 fc	 mov	 eax, DWORD PTR _explosion_info$[ebp]
  00136	c6 40 0d ff	 mov	 BYTE PTR [eax+13], 255	; 000000ffH

; 2302 : 	explosion_info->blue 						=	255;

  0013a	8b 45 fc	 mov	 eax, DWORD PTR _explosion_info$[ebp]
  0013d	c6 40 0e ff	 mov	 BYTE PTR [eax+14], 255	; 000000ffH

; 2303 : 	explosion_info->alpha 						=	255;

  00141	8b 45 fc	 mov	 eax, DWORD PTR _explosion_info$[ebp]
  00144	c6 40 0f ff	 mov	 BYTE PTR [eax+15], 255	; 000000ffH

; 2304 : 
; 2305 : 	explosion_info->additive 					=	TRUE;

  00148	8b 45 fc	 mov	 eax, DWORD PTR _explosion_info$[ebp]
  0014b	8a 48 10	 mov	 cl, BYTE PTR [eax+16]
  0014e	80 c9 01	 or	 cl, 1
  00151	8b 55 fc	 mov	 edx, DWORD PTR _explosion_info$[ebp]
  00154	88 4a 10	 mov	 BYTE PTR [edx+16], cl

; 2306 : 
; 2307 : 	explosion_info->blast_hemisphere_only	=	TRUE;

  00157	8b 45 fc	 mov	 eax, DWORD PTR _explosion_info$[ebp]
  0015a	8a 48 10	 mov	 cl, BYTE PTR [eax+16]
  0015d	80 c9 02	 or	 cl, 2
  00160	8b 55 fc	 mov	 edx, DWORD PTR _explosion_info$[ebp]
  00163	88 4a 10	 mov	 BYTE PTR [edx+16], cl

; 2308 : 
; 2309 : 	explosion_info->delay_max 					=	0.4;

  00166	8b 45 fc	 mov	 eax, DWORD PTR _explosion_info$[ebp]
  00169	f3 0f 10 05 00
	00 00 00	 movss	 xmm0, DWORD PTR __real@3ecccccd
  00171	f3 0f 11 40 14	 movss	 DWORD PTR [eax+20], xmm0

; 2310 : 
; 2311 : 	explosion_info->lifetime_min 				=	0.875;

  00176	8b 45 fc	 mov	 eax, DWORD PTR _explosion_info$[ebp]
  00179	f3 0f 10 05 00
	00 00 00	 movss	 xmm0, DWORD PTR __real@3f600000
  00181	f3 0f 11 40 18	 movss	 DWORD PTR [eax+24], xmm0

; 2312 : 	explosion_info->lifetime_max 				=	0.875;

  00186	8b 45 fc	 mov	 eax, DWORD PTR _explosion_info$[ebp]
  00189	f3 0f 10 05 00
	00 00 00	 movss	 xmm0, DWORD PTR __real@3f600000
  00191	f3 0f 11 40 1c	 movss	 DWORD PTR [eax+28], xmm0

; 2313 : 
; 2314 : 	explosion_info->scale_min 					=	10.0;

  00196	8b 45 fc	 mov	 eax, DWORD PTR _explosion_info$[ebp]
  00199	f3 0f 10 05 00
	00 00 00	 movss	 xmm0, DWORD PTR __real@41200000
  001a1	f3 0f 11 40 20	 movss	 DWORD PTR [eax+32], xmm0

; 2315 : 	explosion_info->scale_max 					=	2.5;

  001a6	8b 45 fc	 mov	 eax, DWORD PTR _explosion_info$[ebp]
  001a9	f3 0f 10 05 00
	00 00 00	 movss	 xmm0, DWORD PTR __real@40200000
  001b1	f3 0f 11 40 24	 movss	 DWORD PTR [eax+36], xmm0

; 2316 : 
; 2317 : 	explosion_info->blast_radius		 		=	3.0;

  001b6	8b 45 fc	 mov	 eax, DWORD PTR _explosion_info$[ebp]
  001b9	f3 0f 10 05 00
	00 00 00	 movss	 xmm0, DWORD PTR __real@40400000
  001c1	f3 0f 11 40 28	 movss	 DWORD PTR [eax+40], xmm0

; 2318 : 
; 2319 : 	explosion_info->animation_frequency		=	2.0;

  001c6	8b 45 fc	 mov	 eax, DWORD PTR _explosion_info$[ebp]
  001c9	f3 0f 10 05 00
	00 00 00	 movss	 xmm0, DWORD PTR __real@40000000
  001d1	f3 0f 11 40 2c	 movss	 DWORD PTR [eax+44], xmm0

; 2320 : 
; 2321 : 	explosion_info->rotation_rate		=	1.0;

  001d6	8b 45 fc	 mov	 eax, DWORD PTR _explosion_info$[ebp]
  001d9	f3 0f 10 05 00
	00 00 00	 movss	 xmm0, DWORD PTR __real@3f800000
  001e1	f3 0f 11 40 30	 movss	 DWORD PTR [eax+48], xmm0

; 2322 : 
; 2323 : 	//
; 2324 : 	// component 2
; 2325 : 	//
; 2326 : 
; 2327 : 	explosion_info = &(this_explosion->component[ 2 ]);

  001e6	b8 34 00 00 00	 mov	 eax, 52			; 00000034H
  001eb	d1 e0		 shl	 eax, 1
  001ed	8b 4d f8	 mov	 ecx, DWORD PTR _this_explosion$[ebp]
  001f0	03 41 0c	 add	 eax, DWORD PTR [ecx+12]
  001f3	89 45 fc	 mov	 DWORD PTR _explosion_info$[ebp], eax

; 2328 : 
; 2329 : 	explosion_info->type 						= EXPLOSION_SOUND_EFFECT;

  001f6	8b 45 fc	 mov	 eax, DWORD PTR _explosion_info$[ebp]
  001f9	c7 00 04 00 00
	00		 mov	 DWORD PTR [eax], 4

; 2330 : 
; 2331 : 	explosion_info->sound_type 				= SOUND_SAMPLE_INDEX_SMALL_EXPLOSION;

  001ff	8b 45 fc	 mov	 eax, DWORD PTR _explosion_info$[ebp]
  00202	c7 40 04 4f 00
	00 00		 mov	 DWORD PTR [eax+4], 79	; 0000004fH

; 2332 : 	explosion_info->sound_volume 				= 1.0;

  00209	8b 45 fc	 mov	 eax, DWORD PTR _explosion_info$[ebp]
  0020c	f3 0f 10 05 00
	00 00 00	 movss	 xmm0, DWORD PTR __real@3f800000
  00214	f3 0f 11 40 08	 movss	 DWORD PTR [eax+8], xmm0

; 2333 : 
; 2334 : 	//
; 2335 : 	// Werewolf: distant explosion sound
; 2336 : 	//
; 2337 : 
; 2338 : 	explosion_info = &(this_explosion->component[ 3 ]);

  00219	b8 34 00 00 00	 mov	 eax, 52			; 00000034H
  0021e	6b c8 03	 imul	 ecx, eax, 3
  00221	8b 55 f8	 mov	 edx, DWORD PTR _this_explosion$[ebp]
  00224	03 4a 0c	 add	 ecx, DWORD PTR [edx+12]
  00227	89 4d fc	 mov	 DWORD PTR _explosion_info$[ebp], ecx

; 2339 : 	explosion_info->type 						= EXPLOSION_SOUND_EFFECT;

  0022a	8b 45 fc	 mov	 eax, DWORD PTR _explosion_info$[ebp]
  0022d	c7 00 04 00 00
	00		 mov	 DWORD PTR [eax], 4

; 2340 : 	explosion_info->sound_type 				= SOUND_SAMPLE_INDEX_EXPLOSION_DISTANT_1;

  00233	8b 45 fc	 mov	 eax, DWORD PTR _explosion_info$[ebp]
  00236	c7 40 04 d1 07
	00 00		 mov	 DWORD PTR [eax+4], 2001	; 000007d1H

; 2341 : 	explosion_info->sound_volume 				= 1.0;

  0023d	8b 45 fc	 mov	 eax, DWORD PTR _explosion_info$[ebp]
  00240	f3 0f 10 05 00
	00 00 00	 movss	 xmm0, DWORD PTR __real@3f800000
  00248	f3 0f 11 40 08	 movss	 DWORD PTR [eax+8], xmm0

; 2342 : 
; 2343 : 	////////////////////////////////////////
; 2344 : 	//
; 2345 : 	// MEDIUM EXPLOSIVE OBJECT EXPLOSION
; 2346 : 	//
; 2347 : 	////////////////////////////////////////
; 2348 : 
; 2349 : 	this_explosion = &(meta_explosion_database[ MEDIUM_EXPLOSIVE_OBJECT_META_EXPLOSION ]);

  0024d	b8 10 00 00 00	 mov	 eax, 16			; 00000010H
  00252	6b c8 0d	 imul	 ecx, eax, 13
  00255	81 c1 00 00 00
	00		 add	 ecx, OFFSET ?meta_explosion_database@@3PAUMETA_EXPLOSION_DATA@@A ; meta_explosion_database
  0025b	89 4d f8	 mov	 DWORD PTR _this_explosion$[ebp], ecx

; 2350 : 
; 2351 : 	this_explosion->number_of_components	=	9;

  0025e	8b 45 f8	 mov	 eax, DWORD PTR _this_explosion$[ebp]
  00261	c7 00 09 00 00
	00		 mov	 DWORD PTR [eax], 9

; 2352 : 
; 2353 : 	this_explosion->damage_radius				=	30.0;

  00267	8b 45 f8	 mov	 eax, DWORD PTR _this_explosion$[ebp]
  0026a	f3 0f 10 05 00
	00 00 00	 movss	 xmm0, DWORD PTR __real@41f00000
  00272	f3 0f 11 40 04	 movss	 DWORD PTR [eax+4], xmm0

; 2354 : 
; 2355 : 	this_explosion->show_on_map				=	TRUE;

  00277	8b 45 f8	 mov	 eax, DWORD PTR _this_explosion$[ebp]
  0027a	c7 40 08 01 00
	00 00		 mov	 DWORD PTR [eax+8], 1

; 2356 : 
; 2357 : 	this_explosion->component = (meta_explosion_component *) malloc_fast_mem( sizeof( meta_explosion_component ) * this_explosion->number_of_components );

  00281	8b 45 f8	 mov	 eax, DWORD PTR _this_explosion$[ebp]
  00284	6b 08 34	 imul	 ecx, DWORD PTR [eax], 52
  00287	51		 push	 ecx
  00288	e8 00 00 00 00	 call	 ?malloc_fast_memory@@YGPAXI@Z ; malloc_fast_memory
  0028d	8b 55 f8	 mov	 edx, DWORD PTR _this_explosion$[ebp]
  00290	89 42 0c	 mov	 DWORD PTR [edx+12], eax

; 2358 : 
; 2359 : 	//
; 2360 : 	// component 0
; 2361 : 	//
; 2362 : 
; 2363 : 	explosion_info = &(this_explosion->component[ 0 ]);

  00293	b8 34 00 00 00	 mov	 eax, 52			; 00000034H
  00298	6b c8 00	 imul	 ecx, eax, 0
  0029b	8b 55 f8	 mov	 edx, DWORD PTR _this_explosion$[ebp]
  0029e	03 4a 0c	 add	 ecx, DWORD PTR [edx+12]
  002a1	89 4d fc	 mov	 DWORD PTR _explosion_info$[ebp], ecx

; 2364 : 
; 2365 : 	explosion_info->type 						=	EXPLOSION_OBJECTS;

  002a4	8b 45 fc	 mov	 eax, DWORD PTR _explosion_info$[ebp]
  002a7	c7 00 01 00 00
	00		 mov	 DWORD PTR [eax], 1

; 2366 : 
; 2367 : 	explosion_info->object_3d_shape 			=	OBJECT_3D_EFFECT_DEBRI;

  002ad	8b 45 fc	 mov	 eax, DWORD PTR _explosion_info$[ebp]
  002b0	c7 40 04 18 0a
	00 00		 mov	 DWORD PTR [eax+4], 2584	; 00000a18H

; 2368 : 
; 2369 : 	explosion_info->object_count 				=	1;

  002b7	8b 45 fc	 mov	 eax, DWORD PTR _explosion_info$[ebp]
  002ba	c7 40 08 01 00
	00 00		 mov	 DWORD PTR [eax+8], 1

; 2370 : 
; 2371 : 	explosion_info->red 							=	160;

  002c1	8b 45 fc	 mov	 eax, DWORD PTR _explosion_info$[ebp]
  002c4	c6 40 0c a0	 mov	 BYTE PTR [eax+12], 160	; 000000a0H

; 2372 : 	explosion_info->green 						= 	160;

  002c8	8b 45 fc	 mov	 eax, DWORD PTR _explosion_info$[ebp]
  002cb	c6 40 0d a0	 mov	 BYTE PTR [eax+13], 160	; 000000a0H

; 2373 : 	explosion_info->blue 						=	160;

  002cf	8b 45 fc	 mov	 eax, DWORD PTR _explosion_info$[ebp]
  002d2	c6 40 0e a0	 mov	 BYTE PTR [eax+14], 160	; 000000a0H

; 2374 : 	explosion_info->alpha 						=	180;

  002d6	8b 45 fc	 mov	 eax, DWORD PTR _explosion_info$[ebp]
  002d9	c6 40 0f b4	 mov	 BYTE PTR [eax+15], 180	; 000000b4H

; 2375 : 
; 2376 : 	explosion_info->blast_hemisphere_only	=	TRUE;

  002dd	8b 45 fc	 mov	 eax, DWORD PTR _explosion_info$[ebp]
  002e0	8a 48 10	 mov	 cl, BYTE PTR [eax+16]
  002e3	80 c9 02	 or	 cl, 2
  002e6	8b 55 fc	 mov	 edx, DWORD PTR _explosion_info$[ebp]
  002e9	88 4a 10	 mov	 BYTE PTR [edx+16], cl

; 2377 : 
; 2378 : 	explosion_info->delay_max 					=	0.0;

  002ec	8b 45 fc	 mov	 eax, DWORD PTR _explosion_info$[ebp]
  002ef	0f 57 c0	 xorps	 xmm0, xmm0
  002f2	f3 0f 11 40 14	 movss	 DWORD PTR [eax+20], xmm0

; 2379 : 
; 2380 : 	explosion_info->lifetime_min 				=	1.5;

  002f7	8b 45 fc	 mov	 eax, DWORD PTR _explosion_info$[ebp]
  002fa	f3 0f 10 05 00
	00 00 00	 movss	 xmm0, DWORD PTR __real@3fc00000
  00302	f3 0f 11 40 18	 movss	 DWORD PTR [eax+24], xmm0

; 2381 : 	explosion_info->lifetime_max 				=	1.5;

  00307	8b 45 fc	 mov	 eax, DWORD PTR _explosion_info$[ebp]
  0030a	f3 0f 10 05 00
	00 00 00	 movss	 xmm0, DWORD PTR __real@3fc00000
  00312	f3 0f 11 40 1c	 movss	 DWORD PTR [eax+28], xmm0

; 2382 : 
; 2383 : 	explosion_info->scale_min 					=	4.0;

  00317	8b 45 fc	 mov	 eax, DWORD PTR _explosion_info$[ebp]
  0031a	f3 0f 10 05 00
	00 00 00	 movss	 xmm0, DWORD PTR __real@40800000
  00322	f3 0f 11 40 20	 movss	 DWORD PTR [eax+32], xmm0

; 2384 : 	explosion_info->scale_max 					=	5.0;

  00327	8b 45 fc	 mov	 eax, DWORD PTR _explosion_info$[ebp]
  0032a	f3 0f 10 05 00
	00 00 00	 movss	 xmm0, DWORD PTR __real@40a00000
  00332	f3 0f 11 40 24	 movss	 DWORD PTR [eax+36], xmm0

; 2385 : 
; 2386 : 	explosion_info->blast_radius		 		=	0.0;

  00337	8b 45 fc	 mov	 eax, DWORD PTR _explosion_info$[ebp]
  0033a	0f 57 c0	 xorps	 xmm0, xmm0
  0033d	f3 0f 11 40 28	 movss	 DWORD PTR [eax+40], xmm0

; 2387 : 
; 2388 : 	//
; 2389 : 	// component 1
; 2390 : 	//
; 2391 : 
; 2392 : 	explosion_info = &(this_explosion->component[ 1 ]);

  00342	b8 34 00 00 00	 mov	 eax, 52			; 00000034H
  00347	c1 e0 00	 shl	 eax, 0
  0034a	8b 4d f8	 mov	 ecx, DWORD PTR _this_explosion$[ebp]
  0034d	03 41 0c	 add	 eax, DWORD PTR [ecx+12]
  00350	89 45 fc	 mov	 DWORD PTR _explosion_info$[ebp], eax

; 2393 : 
; 2394 : 	explosion_info->type 						=	EXPLOSION_OBJECTS;

  00353	8b 45 fc	 mov	 eax, DWORD PTR _explosion_info$[ebp]
  00356	c7 00 01 00 00
	00		 mov	 DWORD PTR [eax], 1

; 2395 : 
; 2396 : 	explosion_info->object_3d_shape 			=	OBJECT_3D_EFFECT_FIREBALL;

  0035c	8b 45 fc	 mov	 eax, DWORD PTR _explosion_info$[ebp]
  0035f	c7 40 04 19 0a
	00 00		 mov	 DWORD PTR [eax+4], 2585	; 00000a19H

; 2397 : 
; 2398 : 	explosion_info->object_count 				=	1;

  00366	8b 45 fc	 mov	 eax, DWORD PTR _explosion_info$[ebp]
  00369	c7 40 08 01 00
	00 00		 mov	 DWORD PTR [eax+8], 1

; 2399 : 
; 2400 : 	explosion_info->red 							=	160;

  00370	8b 45 fc	 mov	 eax, DWORD PTR _explosion_info$[ebp]
  00373	c6 40 0c a0	 mov	 BYTE PTR [eax+12], 160	; 000000a0H

; 2401 : 	explosion_info->green 						= 	160;

  00377	8b 45 fc	 mov	 eax, DWORD PTR _explosion_info$[ebp]
  0037a	c6 40 0d a0	 mov	 BYTE PTR [eax+13], 160	; 000000a0H

; 2402 : 	explosion_info->blue 						=	160;

  0037e	8b 45 fc	 mov	 eax, DWORD PTR _explosion_info$[ebp]
  00381	c6 40 0e a0	 mov	 BYTE PTR [eax+14], 160	; 000000a0H

; 2403 : 	explosion_info->alpha 						=	180;

  00385	8b 45 fc	 mov	 eax, DWORD PTR _explosion_info$[ebp]
  00388	c6 40 0f b4	 mov	 BYTE PTR [eax+15], 180	; 000000b4H

; 2404 : 
; 2405 : 	explosion_info->blast_hemisphere_only	=	TRUE;

  0038c	8b 45 fc	 mov	 eax, DWORD PTR _explosion_info$[ebp]
  0038f	8a 48 10	 mov	 cl, BYTE PTR [eax+16]
  00392	80 c9 02	 or	 cl, 2
  00395	8b 55 fc	 mov	 edx, DWORD PTR _explosion_info$[ebp]
  00398	88 4a 10	 mov	 BYTE PTR [edx+16], cl

; 2406 : 
; 2407 : 	explosion_info->delay_max 					=	0.0;

  0039b	8b 45 fc	 mov	 eax, DWORD PTR _explosion_info$[ebp]
  0039e	0f 57 c0	 xorps	 xmm0, xmm0
  003a1	f3 0f 11 40 14	 movss	 DWORD PTR [eax+20], xmm0

; 2408 : 
; 2409 : 	explosion_info->lifetime_min 				=	1.5;

  003a6	8b 45 fc	 mov	 eax, DWORD PTR _explosion_info$[ebp]
  003a9	f3 0f 10 05 00
	00 00 00	 movss	 xmm0, DWORD PTR __real@3fc00000
  003b1	f3 0f 11 40 18	 movss	 DWORD PTR [eax+24], xmm0

; 2410 : 	explosion_info->lifetime_max 				=	1.5;

  003b6	8b 45 fc	 mov	 eax, DWORD PTR _explosion_info$[ebp]
  003b9	f3 0f 10 05 00
	00 00 00	 movss	 xmm0, DWORD PTR __real@3fc00000
  003c1	f3 0f 11 40 1c	 movss	 DWORD PTR [eax+28], xmm0

; 2411 : 
; 2412 : 	explosion_info->scale_min 					=	8.0;

  003c6	8b 45 fc	 mov	 eax, DWORD PTR _explosion_info$[ebp]
  003c9	f3 0f 10 05 00
	00 00 00	 movss	 xmm0, DWORD PTR __real@41000000
  003d1	f3 0f 11 40 20	 movss	 DWORD PTR [eax+32], xmm0

; 2413 : 	explosion_info->scale_max 					=	10.0;

  003d6	8b 45 fc	 mov	 eax, DWORD PTR _explosion_info$[ebp]
  003d9	f3 0f 10 05 00
	00 00 00	 movss	 xmm0, DWORD PTR __real@41200000
  003e1	f3 0f 11 40 24	 movss	 DWORD PTR [eax+36], xmm0

; 2414 : 
; 2415 : 	explosion_info->blast_radius		 		=	0.0;

  003e6	8b 45 fc	 mov	 eax, DWORD PTR _explosion_info$[ebp]
  003e9	0f 57 c0	 xorps	 xmm0, xmm0
  003ec	f3 0f 11 40 28	 movss	 DWORD PTR [eax+40], xmm0

; 2416 : 
; 2417 : 	//
; 2418 : 	// component 2
; 2419 : 	//
; 2420 : 
; 2421 : 	explosion_info = &(this_explosion->component[ 2 ]);

  003f1	b8 34 00 00 00	 mov	 eax, 52			; 00000034H
  003f6	d1 e0		 shl	 eax, 1
  003f8	8b 4d f8	 mov	 ecx, DWORD PTR _this_explosion$[ebp]
  003fb	03 41 0c	 add	 eax, DWORD PTR [ecx+12]
  003fe	89 45 fc	 mov	 DWORD PTR _explosion_info$[ebp], eax

; 2422 : 
; 2423 : 	explosion_info->type 						=	EXPLOSION_SPRITES;

  00401	8b 45 fc	 mov	 eax, DWORD PTR _explosion_info$[ebp]
  00404	c7 00 00 00 00
	00		 mov	 DWORD PTR [eax], 0

; 2424 : 
; 2425 : 	explosion_info->animated_texture 		=	TEXTURE_ANIMATION_INDEX_CANNON_FLARE;

  0040a	8b 45 fc	 mov	 eax, DWORD PTR _explosion_info$[ebp]
  0040d	c7 40 04 59 00
	00 00		 mov	 DWORD PTR [eax+4], 89	; 00000059H

; 2426 : 
; 2427 : 	explosion_info->sprite_count 				=	2;

  00414	8b 45 fc	 mov	 eax, DWORD PTR _explosion_info$[ebp]
  00417	c7 40 08 02 00
	00 00		 mov	 DWORD PTR [eax+8], 2

; 2428 : 
; 2429 : 	explosion_info->red 							=	255;

  0041e	8b 45 fc	 mov	 eax, DWORD PTR _explosion_info$[ebp]
  00421	c6 40 0c ff	 mov	 BYTE PTR [eax+12], 255	; 000000ffH

; 2430 : 	explosion_info->green 						= 	255;

  00425	8b 45 fc	 mov	 eax, DWORD PTR _explosion_info$[ebp]
  00428	c6 40 0d ff	 mov	 BYTE PTR [eax+13], 255	; 000000ffH

; 2431 : 	explosion_info->blue 						=	255;

  0042c	8b 45 fc	 mov	 eax, DWORD PTR _explosion_info$[ebp]
  0042f	c6 40 0e ff	 mov	 BYTE PTR [eax+14], 255	; 000000ffH

; 2432 : 	explosion_info->alpha 						=	255;

  00433	8b 45 fc	 mov	 eax, DWORD PTR _explosion_info$[ebp]
  00436	c6 40 0f ff	 mov	 BYTE PTR [eax+15], 255	; 000000ffH

; 2433 : 
; 2434 : 	explosion_info->additive 					=	TRUE;

  0043a	8b 45 fc	 mov	 eax, DWORD PTR _explosion_info$[ebp]
  0043d	8a 48 10	 mov	 cl, BYTE PTR [eax+16]
  00440	80 c9 01	 or	 cl, 1
  00443	8b 55 fc	 mov	 edx, DWORD PTR _explosion_info$[ebp]
  00446	88 4a 10	 mov	 BYTE PTR [edx+16], cl

; 2435 : 
; 2436 : 	explosion_info->blast_hemisphere_only	=	TRUE;

  00449	8b 45 fc	 mov	 eax, DWORD PTR _explosion_info$[ebp]
  0044c	8a 48 10	 mov	 cl, BYTE PTR [eax+16]
  0044f	80 c9 02	 or	 cl, 2
  00452	8b 55 fc	 mov	 edx, DWORD PTR _explosion_info$[ebp]
  00455	88 4a 10	 mov	 BYTE PTR [edx+16], cl

; 2437 : 
; 2438 : 	explosion_info->delay_max 					=	0.0;

  00458	8b 45 fc	 mov	 eax, DWORD PTR _explosion_info$[ebp]
  0045b	0f 57 c0	 xorps	 xmm0, xmm0
  0045e	f3 0f 11 40 14	 movss	 DWORD PTR [eax+20], xmm0

; 2439 : 
; 2440 : 	explosion_info->lifetime_min 				=	1.0;

  00463	8b 45 fc	 mov	 eax, DWORD PTR _explosion_info$[ebp]
  00466	f3 0f 10 05 00
	00 00 00	 movss	 xmm0, DWORD PTR __real@3f800000
  0046e	f3 0f 11 40 18	 movss	 DWORD PTR [eax+24], xmm0

; 2441 : 	explosion_info->lifetime_max 				=	1.0;

  00473	8b 45 fc	 mov	 eax, DWORD PTR _explosion_info$[ebp]
  00476	f3 0f 10 05 00
	00 00 00	 movss	 xmm0, DWORD PTR __real@3f800000
  0047e	f3 0f 11 40 1c	 movss	 DWORD PTR [eax+28], xmm0

; 2442 : 
; 2443 : 	explosion_info->scale_min 					=	40.0;

  00483	8b 45 fc	 mov	 eax, DWORD PTR _explosion_info$[ebp]
  00486	f3 0f 10 05 00
	00 00 00	 movss	 xmm0, DWORD PTR __real@42200000
  0048e	f3 0f 11 40 20	 movss	 DWORD PTR [eax+32], xmm0

; 2444 : 	explosion_info->scale_max 					=	7.5;

  00493	8b 45 fc	 mov	 eax, DWORD PTR _explosion_info$[ebp]
  00496	f3 0f 10 05 00
	00 00 00	 movss	 xmm0, DWORD PTR __real@40f00000
  0049e	f3 0f 11 40 24	 movss	 DWORD PTR [eax+36], xmm0

; 2445 : 
; 2446 : 	explosion_info->blast_radius		 		=	0.0;

  004a3	8b 45 fc	 mov	 eax, DWORD PTR _explosion_info$[ebp]
  004a6	0f 57 c0	 xorps	 xmm0, xmm0
  004a9	f3 0f 11 40 28	 movss	 DWORD PTR [eax+40], xmm0

; 2447 : 
; 2448 : 	explosion_info->animation_frequency		=	2.0;

  004ae	8b 45 fc	 mov	 eax, DWORD PTR _explosion_info$[ebp]
  004b1	f3 0f 10 05 00
	00 00 00	 movss	 xmm0, DWORD PTR __real@40000000
  004b9	f3 0f 11 40 2c	 movss	 DWORD PTR [eax+44], xmm0

; 2449 : 
; 2450 : 	explosion_info->rotation_rate		=	1.0;

  004be	8b 45 fc	 mov	 eax, DWORD PTR _explosion_info$[ebp]
  004c1	f3 0f 10 05 00
	00 00 00	 movss	 xmm0, DWORD PTR __real@3f800000
  004c9	f3 0f 11 40 30	 movss	 DWORD PTR [eax+48], xmm0

; 2451 : 
; 2452 : 	//
; 2453 : 	// component 3
; 2454 : 	//
; 2455 : 
; 2456 : 	explosion_info = &(this_explosion->component[ 3 ]);

  004ce	b8 34 00 00 00	 mov	 eax, 52			; 00000034H
  004d3	6b c8 03	 imul	 ecx, eax, 3
  004d6	8b 55 f8	 mov	 edx, DWORD PTR _this_explosion$[ebp]
  004d9	03 4a 0c	 add	 ecx, DWORD PTR [edx+12]
  004dc	89 4d fc	 mov	 DWORD PTR _explosion_info$[ebp], ecx

; 2457 : 
; 2458 : 	explosion_info->type 						= EXPLOSION_PARTICLES;

  004df	8b 45 fc	 mov	 eax, DWORD PTR _explosion_info$[ebp]
  004e2	c7 00 02 00 00
	00		 mov	 DWORD PTR [eax], 2

; 2459 : 
; 2460 : 	explosion_info->particle_count 			= 2;

  004e8	8b 45 fc	 mov	 eax, DWORD PTR _explosion_info$[ebp]
  004eb	c7 40 04 02 00
	00 00		 mov	 DWORD PTR [eax+4], 2

; 2461 : 
; 2462 : 	explosion_info->trail_type 				= SMOKE_LIST_TYPE_SMALL_PARTICLE_TRAIL;

  004f2	8b 45 fc	 mov	 eax, DWORD PTR _explosion_info$[ebp]
  004f5	c7 40 08 08 00
	00 00		 mov	 DWORD PTR [eax+8], 8

; 2463 : 
; 2464 : 	explosion_info->initial_speed 			= 30.0;

  004fc	8b 45 fc	 mov	 eax, DWORD PTR _explosion_info$[ebp]
  004ff	f3 0f 10 05 00
	00 00 00	 movss	 xmm0, DWORD PTR __real@41f00000
  00507	f3 0f 11 40 0c	 movss	 DWORD PTR [eax+12], xmm0

; 2465 : 
; 2466 : 	explosion_info->frequency 			= 0.1;

  0050c	8b 45 fc	 mov	 eax, DWORD PTR _explosion_info$[ebp]
  0050f	f3 0f 10 05 00
	00 00 00	 movss	 xmm0, DWORD PTR __real@3dcccccd
  00517	f3 0f 11 40 10	 movss	 DWORD PTR [eax+16], xmm0

; 2467 : 
; 2468 : 	explosion_info->smoke_lifetime 			= 1.5;

  0051c	8b 45 fc	 mov	 eax, DWORD PTR _explosion_info$[ebp]
  0051f	f3 0f 10 05 00
	00 00 00	 movss	 xmm0, DWORD PTR __real@3fc00000
  00527	f3 0f 11 40 14	 movss	 DWORD PTR [eax+20], xmm0

; 2469 : 
; 2470 : 	//
; 2471 : 	// component 4
; 2472 : 	//
; 2473 : 
; 2474 : 	explosion_info = &(this_explosion->component[ 4 ]);

  0052c	b8 34 00 00 00	 mov	 eax, 52			; 00000034H
  00531	c1 e0 02	 shl	 eax, 2
  00534	8b 4d f8	 mov	 ecx, DWORD PTR _this_explosion$[ebp]
  00537	03 41 0c	 add	 eax, DWORD PTR [ecx+12]
  0053a	89 45 fc	 mov	 DWORD PTR _explosion_info$[ebp], eax

; 2475 : 
; 2476 : 	explosion_info->type 						= EXPLOSION_SOUND_EFFECT;

  0053d	8b 45 fc	 mov	 eax, DWORD PTR _explosion_info$[ebp]
  00540	c7 00 04 00 00
	00		 mov	 DWORD PTR [eax], 4

; 2477 : 
; 2478 : 	explosion_info->sound_type 				= SOUND_SAMPLE_INDEX_MEDIUM_EXPLOSION;

  00546	8b 45 fc	 mov	 eax, DWORD PTR _explosion_info$[ebp]
  00549	c7 40 04 4e 00
	00 00		 mov	 DWORD PTR [eax+4], 78	; 0000004eH

; 2479 : 	explosion_info->sound_volume 				= 1.0;

  00550	8b 45 fc	 mov	 eax, DWORD PTR _explosion_info$[ebp]
  00553	f3 0f 10 05 00
	00 00 00	 movss	 xmm0, DWORD PTR __real@3f800000
  0055b	f3 0f 11 40 08	 movss	 DWORD PTR [eax+8], xmm0

; 2480 : 
; 2481 : 	//
; 2482 : 	// component 5: Black smoke
; 2483 : 	//
; 2484 : 
; 2485 : 	explosion_info = &(this_explosion->component[ 5 ]);

  00560	b8 34 00 00 00	 mov	 eax, 52			; 00000034H
  00565	6b c8 05	 imul	 ecx, eax, 5
  00568	8b 55 f8	 mov	 edx, DWORD PTR _this_explosion$[ebp]
  0056b	03 4a 0c	 add	 ecx, DWORD PTR [edx+12]
  0056e	89 4d fc	 mov	 DWORD PTR _explosion_info$[ebp], ecx

; 2486 : 
; 2487 : 	explosion_info->type 						= EXPLOSION_SMOKE_TRAILS;

  00571	8b 45 fc	 mov	 eax, DWORD PTR _explosion_info$[ebp]
  00574	c7 00 03 00 00
	00		 mov	 DWORD PTR [eax], 3

; 2488 : 
; 2489 : 	explosion_info->trail_type 				= SMOKE_LIST_TYPE_FIRE;

  0057a	8b 45 fc	 mov	 eax, DWORD PTR _explosion_info$[ebp]
  0057d	c7 40 08 04 00
	00 00		 mov	 DWORD PTR [eax+8], 4

; 2490 : 
; 2491 : 	explosion_info->trail_count 				=	1;

  00584	8b 45 fc	 mov	 eax, DWORD PTR _explosion_info$[ebp]
  00587	c7 40 04 01 00
	00 00		 mov	 DWORD PTR [eax+4], 1

; 2492 : 
; 2493 : 	if (command_line_persistent_smoke)

  0058e	83 3d 00 00 00
	00 00		 cmp	 DWORD PTR ?command_line_persistent_smoke@@3HA, 0 ; command_line_persistent_smoke
  00595	74 12		 je	 SHORT $LN2@initialise

; 2494 : 		explosion_info->generator_lifetime		= 400.0;

  00597	8b 45 fc	 mov	 eax, DWORD PTR _explosion_info$[ebp]
  0059a	f3 0f 10 05 00
	00 00 00	 movss	 xmm0, DWORD PTR __real@43c80000
  005a2	f3 0f 11 40 0c	 movss	 DWORD PTR [eax+12], xmm0

; 2495 : 	else

  005a7	eb 10		 jmp	 SHORT $LN3@initialise
$LN2@initialise:

; 2496 : 		explosion_info->generator_lifetime		= 5.0;

  005a9	8b 45 fc	 mov	 eax, DWORD PTR _explosion_info$[ebp]
  005ac	f3 0f 10 05 00
	00 00 00	 movss	 xmm0, DWORD PTR __real@40a00000
  005b4	f3 0f 11 40 0c	 movss	 DWORD PTR [eax+12], xmm0
$LN3@initialise:

; 2497 : 	explosion_info->frequency					= 1.0;

  005b9	8b 45 fc	 mov	 eax, DWORD PTR _explosion_info$[ebp]
  005bc	f3 0f 10 05 00
	00 00 00	 movss	 xmm0, DWORD PTR __real@3f800000
  005c4	f3 0f 11 40 10	 movss	 DWORD PTR [eax+16], xmm0

; 2498 : 	explosion_info->smoke_lifetime			= 100.0;

  005c9	8b 45 fc	 mov	 eax, DWORD PTR _explosion_info$[ebp]
  005cc	f3 0f 10 05 00
	00 00 00	 movss	 xmm0, DWORD PTR __real@42c80000
  005d4	f3 0f 11 40 14	 movss	 DWORD PTR [eax+20], xmm0

; 2499 : 
; 2500 : 	explosion_info->initial_velocity.x		= 0.0;

  005d9	8b 45 fc	 mov	 eax, DWORD PTR _explosion_info$[ebp]
  005dc	0f 57 c0	 xorps	 xmm0, xmm0
  005df	f3 0f 11 40 18	 movss	 DWORD PTR [eax+24], xmm0

; 2501 : 	explosion_info->initial_velocity.y		= 0.1;

  005e4	8b 45 fc	 mov	 eax, DWORD PTR _explosion_info$[ebp]
  005e7	f3 0f 10 05 00
	00 00 00	 movss	 xmm0, DWORD PTR __real@3dcccccd
  005ef	f3 0f 11 40 1c	 movss	 DWORD PTR [eax+28], xmm0

; 2502 : 	explosion_info->initial_velocity.z		= 0.0;

  005f4	8b 45 fc	 mov	 eax, DWORD PTR _explosion_info$[ebp]
  005f7	0f 57 c0	 xorps	 xmm0, xmm0
  005fa	f3 0f 11 40 20	 movss	 DWORD PTR [eax+32], xmm0

; 2503 : 
; 2504 : 	//
; 2505 : 	// component 6: Flame
; 2506 : 	//
; 2507 : 
; 2508 : 	explosion_info = &(this_explosion->component[ 6 ]);

  005ff	b8 34 00 00 00	 mov	 eax, 52			; 00000034H
  00604	6b c8 06	 imul	 ecx, eax, 6
  00607	8b 55 f8	 mov	 edx, DWORD PTR _this_explosion$[ebp]
  0060a	03 4a 0c	 add	 ecx, DWORD PTR [edx+12]
  0060d	89 4d fc	 mov	 DWORD PTR _explosion_info$[ebp], ecx

; 2509 : 
; 2510 : 	explosion_info->type 						= EXPLOSION_SMOKE_TRAILS;

  00610	8b 45 fc	 mov	 eax, DWORD PTR _explosion_info$[ebp]
  00613	c7 00 03 00 00
	00		 mov	 DWORD PTR [eax], 3

; 2511 : 
; 2512 : 	explosion_info->trail_type 				= SMOKE_LIST_TYPE_FLAME;

  00619	8b 45 fc	 mov	 eax, DWORD PTR _explosion_info$[ebp]
  0061c	c7 40 08 22 00
	00 00		 mov	 DWORD PTR [eax+8], 34	; 00000022H

; 2513 : 
; 2514 : 	explosion_info->trail_count 				=	1;

  00623	8b 45 fc	 mov	 eax, DWORD PTR _explosion_info$[ebp]
  00626	c7 40 04 01 00
	00 00		 mov	 DWORD PTR [eax+4], 1

; 2515 : 
; 2516 : 	if (command_line_persistent_smoke)

  0062d	83 3d 00 00 00
	00 00		 cmp	 DWORD PTR ?command_line_persistent_smoke@@3HA, 0 ; command_line_persistent_smoke
  00634	74 12		 je	 SHORT $LN4@initialise

; 2517 : 		explosion_info->generator_lifetime		= 120.0;

  00636	8b 45 fc	 mov	 eax, DWORD PTR _explosion_info$[ebp]
  00639	f3 0f 10 05 00
	00 00 00	 movss	 xmm0, DWORD PTR __real@42f00000
  00641	f3 0f 11 40 0c	 movss	 DWORD PTR [eax+12], xmm0

; 2518 : 	else

  00646	eb 10		 jmp	 SHORT $LN5@initialise
$LN4@initialise:

; 2519 : 		explosion_info->generator_lifetime		= 5.0;

  00648	8b 45 fc	 mov	 eax, DWORD PTR _explosion_info$[ebp]
  0064b	f3 0f 10 05 00
	00 00 00	 movss	 xmm0, DWORD PTR __real@40a00000
  00653	f3 0f 11 40 0c	 movss	 DWORD PTR [eax+12], xmm0
$LN5@initialise:

; 2520 : 	explosion_info->frequency					= 0.3;

  00658	8b 45 fc	 mov	 eax, DWORD PTR _explosion_info$[ebp]
  0065b	f3 0f 10 05 00
	00 00 00	 movss	 xmm0, DWORD PTR __real@3e99999a
  00663	f3 0f 11 40 10	 movss	 DWORD PTR [eax+16], xmm0

; 2521 : 	explosion_info->smoke_lifetime			= 4.0;

  00668	8b 45 fc	 mov	 eax, DWORD PTR _explosion_info$[ebp]
  0066b	f3 0f 10 05 00
	00 00 00	 movss	 xmm0, DWORD PTR __real@40800000
  00673	f3 0f 11 40 14	 movss	 DWORD PTR [eax+20], xmm0

; 2522 : 
; 2523 : 	explosion_info->initial_velocity.x		= 0.0;

  00678	8b 45 fc	 mov	 eax, DWORD PTR _explosion_info$[ebp]
  0067b	0f 57 c0	 xorps	 xmm0, xmm0
  0067e	f3 0f 11 40 18	 movss	 DWORD PTR [eax+24], xmm0

; 2524 : 	explosion_info->initial_velocity.y		= 0.2;

  00683	8b 45 fc	 mov	 eax, DWORD PTR _explosion_info$[ebp]
  00686	f3 0f 10 05 00
	00 00 00	 movss	 xmm0, DWORD PTR __real@3e4ccccd
  0068e	f3 0f 11 40 1c	 movss	 DWORD PTR [eax+28], xmm0

; 2525 : 	explosion_info->initial_velocity.z		= 0.0;

  00693	8b 45 fc	 mov	 eax, DWORD PTR _explosion_info$[ebp]
  00696	0f 57 c0	 xorps	 xmm0, xmm0
  00699	f3 0f 11 40 20	 movss	 DWORD PTR [eax+32], xmm0

; 2526 : 
; 2527 : 	//
; 2528 : 	// component 7: Flame
; 2529 : 	//
; 2530 : 
; 2531 : 	explosion_info = &(this_explosion->component[ 7 ]);

  0069e	b8 34 00 00 00	 mov	 eax, 52			; 00000034H
  006a3	6b c8 07	 imul	 ecx, eax, 7
  006a6	8b 55 f8	 mov	 edx, DWORD PTR _this_explosion$[ebp]
  006a9	03 4a 0c	 add	 ecx, DWORD PTR [edx+12]
  006ac	89 4d fc	 mov	 DWORD PTR _explosion_info$[ebp], ecx

; 2532 : 
; 2533 : 	explosion_info->type 						= EXPLOSION_SMOKE_TRAILS;

  006af	8b 45 fc	 mov	 eax, DWORD PTR _explosion_info$[ebp]
  006b2	c7 00 03 00 00
	00		 mov	 DWORD PTR [eax], 3

; 2534 : 
; 2535 : 	explosion_info->trail_type 				= SMOKE_LIST_TYPE_FLAME;

  006b8	8b 45 fc	 mov	 eax, DWORD PTR _explosion_info$[ebp]
  006bb	c7 40 08 22 00
	00 00		 mov	 DWORD PTR [eax+8], 34	; 00000022H

; 2536 : 
; 2537 : 	explosion_info->trail_count 				=	1;

  006c2	8b 45 fc	 mov	 eax, DWORD PTR _explosion_info$[ebp]
  006c5	c7 40 04 01 00
	00 00		 mov	 DWORD PTR [eax+4], 1

; 2538 : 
; 2539 : 	if (command_line_persistent_smoke)

  006cc	83 3d 00 00 00
	00 00		 cmp	 DWORD PTR ?command_line_persistent_smoke@@3HA, 0 ; command_line_persistent_smoke
  006d3	74 12		 je	 SHORT $LN6@initialise

; 2540 : 		explosion_info->generator_lifetime		= 200.0;

  006d5	8b 45 fc	 mov	 eax, DWORD PTR _explosion_info$[ebp]
  006d8	f3 0f 10 05 00
	00 00 00	 movss	 xmm0, DWORD PTR __real@43480000
  006e0	f3 0f 11 40 0c	 movss	 DWORD PTR [eax+12], xmm0

; 2541 : 	else

  006e5	eb 10		 jmp	 SHORT $LN7@initialise
$LN6@initialise:

; 2542 : 		explosion_info->generator_lifetime		= 5.0;

  006e7	8b 45 fc	 mov	 eax, DWORD PTR _explosion_info$[ebp]
  006ea	f3 0f 10 05 00
	00 00 00	 movss	 xmm0, DWORD PTR __real@40a00000
  006f2	f3 0f 11 40 0c	 movss	 DWORD PTR [eax+12], xmm0
$LN7@initialise:

; 2543 : 	explosion_info->frequency					= 0.2;

  006f7	8b 45 fc	 mov	 eax, DWORD PTR _explosion_info$[ebp]
  006fa	f3 0f 10 05 00
	00 00 00	 movss	 xmm0, DWORD PTR __real@3e4ccccd
  00702	f3 0f 11 40 10	 movss	 DWORD PTR [eax+16], xmm0

; 2544 : 	explosion_info->smoke_lifetime			= 3.0;

  00707	8b 45 fc	 mov	 eax, DWORD PTR _explosion_info$[ebp]
  0070a	f3 0f 10 05 00
	00 00 00	 movss	 xmm0, DWORD PTR __real@40400000
  00712	f3 0f 11 40 14	 movss	 DWORD PTR [eax+20], xmm0

; 2545 : 
; 2546 : 	explosion_info->initial_velocity.x		= 0.0;

  00717	8b 45 fc	 mov	 eax, DWORD PTR _explosion_info$[ebp]
  0071a	0f 57 c0	 xorps	 xmm0, xmm0
  0071d	f3 0f 11 40 18	 movss	 DWORD PTR [eax+24], xmm0

; 2547 : 	explosion_info->initial_velocity.y		= 0.2;

  00722	8b 45 fc	 mov	 eax, DWORD PTR _explosion_info$[ebp]
  00725	f3 0f 10 05 00
	00 00 00	 movss	 xmm0, DWORD PTR __real@3e4ccccd
  0072d	f3 0f 11 40 1c	 movss	 DWORD PTR [eax+28], xmm0

; 2548 : 	explosion_info->initial_velocity.z		= 0.0;

  00732	8b 45 fc	 mov	 eax, DWORD PTR _explosion_info$[ebp]
  00735	0f 57 c0	 xorps	 xmm0, xmm0
  00738	f3 0f 11 40 20	 movss	 DWORD PTR [eax+32], xmm0

; 2549 : 
; 2550 : 	//
; 2551 : 	// Werewolf: distant explosion sound
; 2552 : 	//
; 2553 : 
; 2554 : 	explosion_info = &(this_explosion->component[ 8 ]);

  0073d	b8 34 00 00 00	 mov	 eax, 52			; 00000034H
  00742	c1 e0 03	 shl	 eax, 3
  00745	8b 4d f8	 mov	 ecx, DWORD PTR _this_explosion$[ebp]
  00748	03 41 0c	 add	 eax, DWORD PTR [ecx+12]
  0074b	89 45 fc	 mov	 DWORD PTR _explosion_info$[ebp], eax

; 2555 : 	explosion_info->type 						= EXPLOSION_SOUND_EFFECT;

  0074e	8b 45 fc	 mov	 eax, DWORD PTR _explosion_info$[ebp]
  00751	c7 00 04 00 00
	00		 mov	 DWORD PTR [eax], 4

; 2556 : 	explosion_info->sound_type 				= SOUND_SAMPLE_INDEX_EXPLOSION_DISTANT_1;

  00757	8b 45 fc	 mov	 eax, DWORD PTR _explosion_info$[ebp]
  0075a	c7 40 04 d1 07
	00 00		 mov	 DWORD PTR [eax+4], 2001	; 000007d1H

; 2557 : 	explosion_info->sound_volume 				= 1.0;

  00761	8b 45 fc	 mov	 eax, DWORD PTR _explosion_info$[ebp]
  00764	f3 0f 10 05 00
	00 00 00	 movss	 xmm0, DWORD PTR __real@3f800000
  0076c	f3 0f 11 40 08	 movss	 DWORD PTR [eax+8], xmm0

; 2558 : 
; 2559 : 	////////////////////////////////////////
; 2560 : 	//
; 2561 : 	// LARGE EXPLOSIVE OBJECT EXPLOSION
; 2562 : 	//
; 2563 : 	////////////////////////////////////////
; 2564 : 
; 2565 : 	this_explosion = &(meta_explosion_database[ LARGE_EXPLOSIVE_OBJECT_META_EXPLOSION ]);

  00771	b8 10 00 00 00	 mov	 eax, 16			; 00000010H
  00776	6b c8 0e	 imul	 ecx, eax, 14
  00779	81 c1 00 00 00
	00		 add	 ecx, OFFSET ?meta_explosion_database@@3PAUMETA_EXPLOSION_DATA@@A ; meta_explosion_database
  0077f	89 4d f8	 mov	 DWORD PTR _this_explosion$[ebp], ecx

; 2566 : 
; 2567 : 	this_explosion->number_of_components	=	10;

  00782	8b 45 f8	 mov	 eax, DWORD PTR _this_explosion$[ebp]
  00785	c7 00 0a 00 00
	00		 mov	 DWORD PTR [eax], 10	; 0000000aH

; 2568 : 
; 2569 : 	this_explosion->damage_radius				=	60.0;

  0078b	8b 45 f8	 mov	 eax, DWORD PTR _this_explosion$[ebp]
  0078e	f3 0f 10 05 00
	00 00 00	 movss	 xmm0, DWORD PTR __real@42700000
  00796	f3 0f 11 40 04	 movss	 DWORD PTR [eax+4], xmm0

; 2570 : 
; 2571 : 	this_explosion->show_on_map				=	TRUE;

  0079b	8b 45 f8	 mov	 eax, DWORD PTR _this_explosion$[ebp]
  0079e	c7 40 08 01 00
	00 00		 mov	 DWORD PTR [eax+8], 1

; 2572 : 
; 2573 : 	this_explosion->component = (meta_explosion_component *) malloc_fast_mem( sizeof( meta_explosion_component ) * this_explosion->number_of_components );

  007a5	8b 45 f8	 mov	 eax, DWORD PTR _this_explosion$[ebp]
  007a8	6b 08 34	 imul	 ecx, DWORD PTR [eax], 52
  007ab	51		 push	 ecx
  007ac	e8 00 00 00 00	 call	 ?malloc_fast_memory@@YGPAXI@Z ; malloc_fast_memory
  007b1	8b 55 f8	 mov	 edx, DWORD PTR _this_explosion$[ebp]
  007b4	89 42 0c	 mov	 DWORD PTR [edx+12], eax

; 2574 : 
; 2575 : 	//
; 2576 : 	// component 0
; 2577 : 	//
; 2578 : 
; 2579 : 	explosion_info = &(this_explosion->component[ 0 ]);

  007b7	b8 34 00 00 00	 mov	 eax, 52			; 00000034H
  007bc	6b c8 00	 imul	 ecx, eax, 0
  007bf	8b 55 f8	 mov	 edx, DWORD PTR _this_explosion$[ebp]
  007c2	03 4a 0c	 add	 ecx, DWORD PTR [edx+12]
  007c5	89 4d fc	 mov	 DWORD PTR _explosion_info$[ebp], ecx

; 2580 : 
; 2581 : 	explosion_info->type 						=	EXPLOSION_OBJECTS;

  007c8	8b 45 fc	 mov	 eax, DWORD PTR _explosion_info$[ebp]
  007cb	c7 00 01 00 00
	00		 mov	 DWORD PTR [eax], 1

; 2582 : 
; 2583 : 	explosion_info->object_3d_shape 			=	OBJECT_3D_EFFECT_DEBRI;

  007d1	8b 45 fc	 mov	 eax, DWORD PTR _explosion_info$[ebp]
  007d4	c7 40 04 18 0a
	00 00		 mov	 DWORD PTR [eax+4], 2584	; 00000a18H

; 2584 : 
; 2585 : 	explosion_info->object_count 				=	1;

  007db	8b 45 fc	 mov	 eax, DWORD PTR _explosion_info$[ebp]
  007de	c7 40 08 01 00
	00 00		 mov	 DWORD PTR [eax+8], 1

; 2586 : 
; 2587 : 	explosion_info->red 							=	160;

  007e5	8b 45 fc	 mov	 eax, DWORD PTR _explosion_info$[ebp]
  007e8	c6 40 0c a0	 mov	 BYTE PTR [eax+12], 160	; 000000a0H

; 2588 : 	explosion_info->green 						= 	160;

  007ec	8b 45 fc	 mov	 eax, DWORD PTR _explosion_info$[ebp]
  007ef	c6 40 0d a0	 mov	 BYTE PTR [eax+13], 160	; 000000a0H

; 2589 : 	explosion_info->blue 						=	160;

  007f3	8b 45 fc	 mov	 eax, DWORD PTR _explosion_info$[ebp]
  007f6	c6 40 0e a0	 mov	 BYTE PTR [eax+14], 160	; 000000a0H

; 2590 : 	explosion_info->alpha 						=	180;

  007fa	8b 45 fc	 mov	 eax, DWORD PTR _explosion_info$[ebp]
  007fd	c6 40 0f b4	 mov	 BYTE PTR [eax+15], 180	; 000000b4H

; 2591 : 
; 2592 : 	explosion_info->blast_hemisphere_only	=	TRUE;

  00801	8b 45 fc	 mov	 eax, DWORD PTR _explosion_info$[ebp]
  00804	8a 48 10	 mov	 cl, BYTE PTR [eax+16]
  00807	80 c9 02	 or	 cl, 2
  0080a	8b 55 fc	 mov	 edx, DWORD PTR _explosion_info$[ebp]
  0080d	88 4a 10	 mov	 BYTE PTR [edx+16], cl

; 2593 : 
; 2594 : 	explosion_info->delay_max 					=	0.0;

  00810	8b 45 fc	 mov	 eax, DWORD PTR _explosion_info$[ebp]
  00813	0f 57 c0	 xorps	 xmm0, xmm0
  00816	f3 0f 11 40 14	 movss	 DWORD PTR [eax+20], xmm0

; 2595 : 
; 2596 : 	explosion_info->lifetime_min 				=	2.0;

  0081b	8b 45 fc	 mov	 eax, DWORD PTR _explosion_info$[ebp]
  0081e	f3 0f 10 05 00
	00 00 00	 movss	 xmm0, DWORD PTR __real@40000000
  00826	f3 0f 11 40 18	 movss	 DWORD PTR [eax+24], xmm0

; 2597 : 	explosion_info->lifetime_max 				=	2.0;

  0082b	8b 45 fc	 mov	 eax, DWORD PTR _explosion_info$[ebp]
  0082e	f3 0f 10 05 00
	00 00 00	 movss	 xmm0, DWORD PTR __real@40000000
  00836	f3 0f 11 40 1c	 movss	 DWORD PTR [eax+28], xmm0

; 2598 : 
; 2599 : 	explosion_info->scale_min 					=	8.0;

  0083b	8b 45 fc	 mov	 eax, DWORD PTR _explosion_info$[ebp]
  0083e	f3 0f 10 05 00
	00 00 00	 movss	 xmm0, DWORD PTR __real@41000000
  00846	f3 0f 11 40 20	 movss	 DWORD PTR [eax+32], xmm0

; 2600 : 	explosion_info->scale_max 					=	10.0;

  0084b	8b 45 fc	 mov	 eax, DWORD PTR _explosion_info$[ebp]
  0084e	f3 0f 10 05 00
	00 00 00	 movss	 xmm0, DWORD PTR __real@41200000
  00856	f3 0f 11 40 24	 movss	 DWORD PTR [eax+36], xmm0

; 2601 : 
; 2602 : 	explosion_info->blast_radius		 		=	0.0;

  0085b	8b 45 fc	 mov	 eax, DWORD PTR _explosion_info$[ebp]
  0085e	0f 57 c0	 xorps	 xmm0, xmm0
  00861	f3 0f 11 40 28	 movss	 DWORD PTR [eax+40], xmm0

; 2603 : 
; 2604 : 	//
; 2605 : 	// component 1
; 2606 : 	//
; 2607 : 
; 2608 : 	explosion_info = &(this_explosion->component[ 1 ]);

  00866	b8 34 00 00 00	 mov	 eax, 52			; 00000034H
  0086b	c1 e0 00	 shl	 eax, 0
  0086e	8b 4d f8	 mov	 ecx, DWORD PTR _this_explosion$[ebp]
  00871	03 41 0c	 add	 eax, DWORD PTR [ecx+12]
  00874	89 45 fc	 mov	 DWORD PTR _explosion_info$[ebp], eax

; 2609 : 
; 2610 : 	explosion_info->type 						=	EXPLOSION_OBJECTS;

  00877	8b 45 fc	 mov	 eax, DWORD PTR _explosion_info$[ebp]
  0087a	c7 00 01 00 00
	00		 mov	 DWORD PTR [eax], 1

; 2611 : 
; 2612 : 	explosion_info->object_3d_shape 			=	OBJECT_3D_EFFECT_FIREBALL;

  00880	8b 45 fc	 mov	 eax, DWORD PTR _explosion_info$[ebp]
  00883	c7 40 04 19 0a
	00 00		 mov	 DWORD PTR [eax+4], 2585	; 00000a19H

; 2613 : 
; 2614 : 	explosion_info->object_count 				=	1;

  0088a	8b 45 fc	 mov	 eax, DWORD PTR _explosion_info$[ebp]
  0088d	c7 40 08 01 00
	00 00		 mov	 DWORD PTR [eax+8], 1

; 2615 : 
; 2616 : 	explosion_info->red 							=	160;

  00894	8b 45 fc	 mov	 eax, DWORD PTR _explosion_info$[ebp]
  00897	c6 40 0c a0	 mov	 BYTE PTR [eax+12], 160	; 000000a0H

; 2617 : 	explosion_info->green 						= 	160;

  0089b	8b 45 fc	 mov	 eax, DWORD PTR _explosion_info$[ebp]
  0089e	c6 40 0d a0	 mov	 BYTE PTR [eax+13], 160	; 000000a0H

; 2618 : 	explosion_info->blue 						=	160;

  008a2	8b 45 fc	 mov	 eax, DWORD PTR _explosion_info$[ebp]
  008a5	c6 40 0e a0	 mov	 BYTE PTR [eax+14], 160	; 000000a0H

; 2619 : 	explosion_info->alpha 						=	180;

  008a9	8b 45 fc	 mov	 eax, DWORD PTR _explosion_info$[ebp]
  008ac	c6 40 0f b4	 mov	 BYTE PTR [eax+15], 180	; 000000b4H

; 2620 : 
; 2621 : 	explosion_info->blast_hemisphere_only	=	TRUE;

  008b0	8b 45 fc	 mov	 eax, DWORD PTR _explosion_info$[ebp]
  008b3	8a 48 10	 mov	 cl, BYTE PTR [eax+16]
  008b6	80 c9 02	 or	 cl, 2
  008b9	8b 55 fc	 mov	 edx, DWORD PTR _explosion_info$[ebp]
  008bc	88 4a 10	 mov	 BYTE PTR [edx+16], cl

; 2622 : 
; 2623 : 	explosion_info->delay_max 					=	0.0;

  008bf	8b 45 fc	 mov	 eax, DWORD PTR _explosion_info$[ebp]
  008c2	0f 57 c0	 xorps	 xmm0, xmm0
  008c5	f3 0f 11 40 14	 movss	 DWORD PTR [eax+20], xmm0

; 2624 : 
; 2625 : 	explosion_info->lifetime_min 				=	1.75;

  008ca	8b 45 fc	 mov	 eax, DWORD PTR _explosion_info$[ebp]
  008cd	f3 0f 10 05 00
	00 00 00	 movss	 xmm0, DWORD PTR __real@3fe00000
  008d5	f3 0f 11 40 18	 movss	 DWORD PTR [eax+24], xmm0

; 2626 : 	explosion_info->lifetime_max 				=	1.75;

  008da	8b 45 fc	 mov	 eax, DWORD PTR _explosion_info$[ebp]
  008dd	f3 0f 10 05 00
	00 00 00	 movss	 xmm0, DWORD PTR __real@3fe00000
  008e5	f3 0f 11 40 1c	 movss	 DWORD PTR [eax+28], xmm0

; 2627 : 
; 2628 : 	explosion_info->scale_min 					=	12.0;

  008ea	8b 45 fc	 mov	 eax, DWORD PTR _explosion_info$[ebp]
  008ed	f3 0f 10 05 00
	00 00 00	 movss	 xmm0, DWORD PTR __real@41400000
  008f5	f3 0f 11 40 20	 movss	 DWORD PTR [eax+32], xmm0

; 2629 : 	explosion_info->scale_max 					=	15.0;

  008fa	8b 45 fc	 mov	 eax, DWORD PTR _explosion_info$[ebp]
  008fd	f3 0f 10 05 00
	00 00 00	 movss	 xmm0, DWORD PTR __real@41700000
  00905	f3 0f 11 40 24	 movss	 DWORD PTR [eax+36], xmm0

; 2630 : 
; 2631 : 	explosion_info->blast_radius		 		=	0.0;

  0090a	8b 45 fc	 mov	 eax, DWORD PTR _explosion_info$[ebp]
  0090d	0f 57 c0	 xorps	 xmm0, xmm0
  00910	f3 0f 11 40 28	 movss	 DWORD PTR [eax+40], xmm0

; 2632 : 
; 2633 : 	//
; 2634 : 	// component 2
; 2635 : 	//
; 2636 : 
; 2637 : 	explosion_info = &(this_explosion->component[ 2 ]);

  00915	b8 34 00 00 00	 mov	 eax, 52			; 00000034H
  0091a	d1 e0		 shl	 eax, 1
  0091c	8b 4d f8	 mov	 ecx, DWORD PTR _this_explosion$[ebp]
  0091f	03 41 0c	 add	 eax, DWORD PTR [ecx+12]
  00922	89 45 fc	 mov	 DWORD PTR _explosion_info$[ebp], eax

; 2638 : 
; 2639 : 	explosion_info->type 						=	EXPLOSION_SPRITES;

  00925	8b 45 fc	 mov	 eax, DWORD PTR _explosion_info$[ebp]
  00928	c7 00 00 00 00
	00		 mov	 DWORD PTR [eax], 0

; 2640 : 
; 2641 : 	explosion_info->animated_texture 		=	TEXTURE_ANIMATION_INDEX_CANNON_FLARE;

  0092e	8b 45 fc	 mov	 eax, DWORD PTR _explosion_info$[ebp]
  00931	c7 40 04 59 00
	00 00		 mov	 DWORD PTR [eax+4], 89	; 00000059H

; 2642 : 
; 2643 : 	explosion_info->sprite_count 				=	5;

  00938	8b 45 fc	 mov	 eax, DWORD PTR _explosion_info$[ebp]
  0093b	c7 40 08 05 00
	00 00		 mov	 DWORD PTR [eax+8], 5

; 2644 : 
; 2645 : 	explosion_info->red 							=	255;

  00942	8b 45 fc	 mov	 eax, DWORD PTR _explosion_info$[ebp]
  00945	c6 40 0c ff	 mov	 BYTE PTR [eax+12], 255	; 000000ffH

; 2646 : 	explosion_info->green 						= 	255;

  00949	8b 45 fc	 mov	 eax, DWORD PTR _explosion_info$[ebp]
  0094c	c6 40 0d ff	 mov	 BYTE PTR [eax+13], 255	; 000000ffH

; 2647 : 	explosion_info->blue 						=	255;

  00950	8b 45 fc	 mov	 eax, DWORD PTR _explosion_info$[ebp]
  00953	c6 40 0e ff	 mov	 BYTE PTR [eax+14], 255	; 000000ffH

; 2648 : 	explosion_info->alpha 						=	255;

  00957	8b 45 fc	 mov	 eax, DWORD PTR _explosion_info$[ebp]
  0095a	c6 40 0f ff	 mov	 BYTE PTR [eax+15], 255	; 000000ffH

; 2649 : 
; 2650 : 	explosion_info->additive 					=	TRUE;

  0095e	8b 45 fc	 mov	 eax, DWORD PTR _explosion_info$[ebp]
  00961	8a 48 10	 mov	 cl, BYTE PTR [eax+16]
  00964	80 c9 01	 or	 cl, 1
  00967	8b 55 fc	 mov	 edx, DWORD PTR _explosion_info$[ebp]
  0096a	88 4a 10	 mov	 BYTE PTR [edx+16], cl

; 2651 : 
; 2652 : 	explosion_info->blast_hemisphere_only	=	TRUE;

  0096d	8b 45 fc	 mov	 eax, DWORD PTR _explosion_info$[ebp]
  00970	8a 48 10	 mov	 cl, BYTE PTR [eax+16]
  00973	80 c9 02	 or	 cl, 2
  00976	8b 55 fc	 mov	 edx, DWORD PTR _explosion_info$[ebp]
  00979	88 4a 10	 mov	 BYTE PTR [edx+16], cl

; 2653 : 
; 2654 : 	explosion_info->delay_max 					=	1.0;

  0097c	8b 45 fc	 mov	 eax, DWORD PTR _explosion_info$[ebp]
  0097f	f3 0f 10 05 00
	00 00 00	 movss	 xmm0, DWORD PTR __real@3f800000
  00987	f3 0f 11 40 14	 movss	 DWORD PTR [eax+20], xmm0

; 2655 : 
; 2656 : 	explosion_info->lifetime_min 				=	1.0;

  0098c	8b 45 fc	 mov	 eax, DWORD PTR _explosion_info$[ebp]
  0098f	f3 0f 10 05 00
	00 00 00	 movss	 xmm0, DWORD PTR __real@3f800000
  00997	f3 0f 11 40 18	 movss	 DWORD PTR [eax+24], xmm0

; 2657 : 	explosion_info->lifetime_max 				=	1.5;

  0099c	8b 45 fc	 mov	 eax, DWORD PTR _explosion_info$[ebp]
  0099f	f3 0f 10 05 00
	00 00 00	 movss	 xmm0, DWORD PTR __real@3fc00000
  009a7	f3 0f 11 40 1c	 movss	 DWORD PTR [eax+28], xmm0

; 2658 : 
; 2659 : 	explosion_info->scale_min 					=	50.0;

  009ac	8b 45 fc	 mov	 eax, DWORD PTR _explosion_info$[ebp]
  009af	f3 0f 10 05 00
	00 00 00	 movss	 xmm0, DWORD PTR __real@42480000
  009b7	f3 0f 11 40 20	 movss	 DWORD PTR [eax+32], xmm0

; 2660 : 	explosion_info->scale_max 					=	10.0;

  009bc	8b 45 fc	 mov	 eax, DWORD PTR _explosion_info$[ebp]
  009bf	f3 0f 10 05 00
	00 00 00	 movss	 xmm0, DWORD PTR __real@41200000
  009c7	f3 0f 11 40 24	 movss	 DWORD PTR [eax+36], xmm0

; 2661 : 
; 2662 : 	explosion_info->blast_radius		 		=	18.0;

  009cc	8b 45 fc	 mov	 eax, DWORD PTR _explosion_info$[ebp]
  009cf	f3 0f 10 05 00
	00 00 00	 movss	 xmm0, DWORD PTR __real@41900000
  009d7	f3 0f 11 40 28	 movss	 DWORD PTR [eax+40], xmm0

; 2663 : 
; 2664 : 	explosion_info->animation_frequency		=	2.0;

  009dc	8b 45 fc	 mov	 eax, DWORD PTR _explosion_info$[ebp]
  009df	f3 0f 10 05 00
	00 00 00	 movss	 xmm0, DWORD PTR __real@40000000
  009e7	f3 0f 11 40 2c	 movss	 DWORD PTR [eax+44], xmm0

; 2665 : 
; 2666 : 	explosion_info->rotation_rate		=	1.0;

  009ec	8b 45 fc	 mov	 eax, DWORD PTR _explosion_info$[ebp]
  009ef	f3 0f 10 05 00
	00 00 00	 movss	 xmm0, DWORD PTR __real@3f800000
  009f7	f3 0f 11 40 30	 movss	 DWORD PTR [eax+48], xmm0

; 2667 : 
; 2668 : 	//
; 2669 : 	// component 3
; 2670 : 	//
; 2671 : 
; 2672 : 	explosion_info = &(this_explosion->component[ 3 ]);

  009fc	b8 34 00 00 00	 mov	 eax, 52			; 00000034H
  00a01	6b c8 03	 imul	 ecx, eax, 3
  00a04	8b 55 f8	 mov	 edx, DWORD PTR _this_explosion$[ebp]
  00a07	03 4a 0c	 add	 ecx, DWORD PTR [edx+12]
  00a0a	89 4d fc	 mov	 DWORD PTR _explosion_info$[ebp], ecx

; 2673 : 
; 2674 : 	explosion_info->type 						=	EXPLOSION_SPRITES;

  00a0d	8b 45 fc	 mov	 eax, DWORD PTR _explosion_info$[ebp]
  00a10	c7 00 00 00 00
	00		 mov	 DWORD PTR [eax], 0

; 2675 : 
; 2676 : 	explosion_info->animated_texture 		=	TEXTURE_ANIMATION_INDEX_MISSILE_FLARE;

  00a16	8b 45 fc	 mov	 eax, DWORD PTR _explosion_info$[ebp]
  00a19	c7 40 04 61 00
	00 00		 mov	 DWORD PTR [eax+4], 97	; 00000061H

; 2677 : 
; 2678 : 	explosion_info->sprite_count 				=	3;

  00a20	8b 45 fc	 mov	 eax, DWORD PTR _explosion_info$[ebp]
  00a23	c7 40 08 03 00
	00 00		 mov	 DWORD PTR [eax+8], 3

; 2679 : 
; 2680 : 	explosion_info->red 							=	255;

  00a2a	8b 45 fc	 mov	 eax, DWORD PTR _explosion_info$[ebp]
  00a2d	c6 40 0c ff	 mov	 BYTE PTR [eax+12], 255	; 000000ffH

; 2681 : 	explosion_info->green 						= 	255;

  00a31	8b 45 fc	 mov	 eax, DWORD PTR _explosion_info$[ebp]
  00a34	c6 40 0d ff	 mov	 BYTE PTR [eax+13], 255	; 000000ffH

; 2682 : 	explosion_info->blue 						=	255;

  00a38	8b 45 fc	 mov	 eax, DWORD PTR _explosion_info$[ebp]
  00a3b	c6 40 0e ff	 mov	 BYTE PTR [eax+14], 255	; 000000ffH

; 2683 : 	explosion_info->alpha 						=	255;

  00a3f	8b 45 fc	 mov	 eax, DWORD PTR _explosion_info$[ebp]
  00a42	c6 40 0f ff	 mov	 BYTE PTR [eax+15], 255	; 000000ffH

; 2684 : 
; 2685 : 	explosion_info->additive 					=	TRUE;

  00a46	8b 45 fc	 mov	 eax, DWORD PTR _explosion_info$[ebp]
  00a49	8a 48 10	 mov	 cl, BYTE PTR [eax+16]
  00a4c	80 c9 01	 or	 cl, 1
  00a4f	8b 55 fc	 mov	 edx, DWORD PTR _explosion_info$[ebp]
  00a52	88 4a 10	 mov	 BYTE PTR [edx+16], cl

; 2686 : 
; 2687 : 	explosion_info->blast_hemisphere_only	=	TRUE;

  00a55	8b 45 fc	 mov	 eax, DWORD PTR _explosion_info$[ebp]
  00a58	8a 48 10	 mov	 cl, BYTE PTR [eax+16]
  00a5b	80 c9 02	 or	 cl, 2
  00a5e	8b 55 fc	 mov	 edx, DWORD PTR _explosion_info$[ebp]
  00a61	88 4a 10	 mov	 BYTE PTR [edx+16], cl

; 2688 : 
; 2689 : 	explosion_info->delay_max 					=	0.75;

  00a64	8b 45 fc	 mov	 eax, DWORD PTR _explosion_info$[ebp]
  00a67	f3 0f 10 05 00
	00 00 00	 movss	 xmm0, DWORD PTR __real@3f400000
  00a6f	f3 0f 11 40 14	 movss	 DWORD PTR [eax+20], xmm0

; 2690 : 
; 2691 : 	explosion_info->lifetime_min 				=	1.0;

  00a74	8b 45 fc	 mov	 eax, DWORD PTR _explosion_info$[ebp]
  00a77	f3 0f 10 05 00
	00 00 00	 movss	 xmm0, DWORD PTR __real@3f800000
  00a7f	f3 0f 11 40 18	 movss	 DWORD PTR [eax+24], xmm0

; 2692 : 	explosion_info->lifetime_max 				=	1.0;

  00a84	8b 45 fc	 mov	 eax, DWORD PTR _explosion_info$[ebp]
  00a87	f3 0f 10 05 00
	00 00 00	 movss	 xmm0, DWORD PTR __real@3f800000
  00a8f	f3 0f 11 40 1c	 movss	 DWORD PTR [eax+28], xmm0

; 2693 : 
; 2694 : 	explosion_info->scale_min 					=	40.0;

  00a94	8b 45 fc	 mov	 eax, DWORD PTR _explosion_info$[ebp]
  00a97	f3 0f 10 05 00
	00 00 00	 movss	 xmm0, DWORD PTR __real@42200000
  00a9f	f3 0f 11 40 20	 movss	 DWORD PTR [eax+32], xmm0

; 2695 : 	explosion_info->scale_max 					=	8.0;

  00aa4	8b 45 fc	 mov	 eax, DWORD PTR _explosion_info$[ebp]
  00aa7	f3 0f 10 05 00
	00 00 00	 movss	 xmm0, DWORD PTR __real@41000000
  00aaf	f3 0f 11 40 24	 movss	 DWORD PTR [eax+36], xmm0

; 2696 : 
; 2697 : 	explosion_info->blast_radius		 		=	17.0;

  00ab4	8b 45 fc	 mov	 eax, DWORD PTR _explosion_info$[ebp]
  00ab7	f3 0f 10 05 00
	00 00 00	 movss	 xmm0, DWORD PTR __real@41880000
  00abf	f3 0f 11 40 28	 movss	 DWORD PTR [eax+40], xmm0

; 2698 : 
; 2699 : 	explosion_info->animation_frequency		=	2.0;

  00ac4	8b 45 fc	 mov	 eax, DWORD PTR _explosion_info$[ebp]
  00ac7	f3 0f 10 05 00
	00 00 00	 movss	 xmm0, DWORD PTR __real@40000000
  00acf	f3 0f 11 40 2c	 movss	 DWORD PTR [eax+44], xmm0

; 2700 : 
; 2701 : 	explosion_info->rotation_rate		=	1.0;

  00ad4	8b 45 fc	 mov	 eax, DWORD PTR _explosion_info$[ebp]
  00ad7	f3 0f 10 05 00
	00 00 00	 movss	 xmm0, DWORD PTR __real@3f800000
  00adf	f3 0f 11 40 30	 movss	 DWORD PTR [eax+48], xmm0

; 2702 : 
; 2703 : 	//
; 2704 : 	// component 4
; 2705 : 	//
; 2706 : 
; 2707 : 	explosion_info = &(this_explosion->component[ 4 ]);

  00ae4	b8 34 00 00 00	 mov	 eax, 52			; 00000034H
  00ae9	c1 e0 02	 shl	 eax, 2
  00aec	8b 4d f8	 mov	 ecx, DWORD PTR _this_explosion$[ebp]
  00aef	03 41 0c	 add	 eax, DWORD PTR [ecx+12]
  00af2	89 45 fc	 mov	 DWORD PTR _explosion_info$[ebp], eax

; 2708 : 
; 2709 : 	explosion_info->type 						= EXPLOSION_SOUND_EFFECT;

  00af5	8b 45 fc	 mov	 eax, DWORD PTR _explosion_info$[ebp]
  00af8	c7 00 04 00 00
	00		 mov	 DWORD PTR [eax], 4

; 2710 : 
; 2711 : 	explosion_info->sound_type 				= SOUND_SAMPLE_INDEX_LARGE_EXPLOSION;

  00afe	8b 45 fc	 mov	 eax, DWORD PTR _explosion_info$[ebp]
  00b01	c7 40 04 4d 00
	00 00		 mov	 DWORD PTR [eax+4], 77	; 0000004dH

; 2712 : 	explosion_info->sound_volume 				= 1.0;

  00b08	8b 45 fc	 mov	 eax, DWORD PTR _explosion_info$[ebp]
  00b0b	f3 0f 10 05 00
	00 00 00	 movss	 xmm0, DWORD PTR __real@3f800000
  00b13	f3 0f 11 40 08	 movss	 DWORD PTR [eax+8], xmm0

; 2713 : 
; 2714 : 	//
; 2715 : 	// component 5
; 2716 : 	//
; 2717 : 
; 2718 : 	explosion_info = &(this_explosion->component[ 5 ]);

  00b18	b8 34 00 00 00	 mov	 eax, 52			; 00000034H
  00b1d	6b c8 05	 imul	 ecx, eax, 5
  00b20	8b 55 f8	 mov	 edx, DWORD PTR _this_explosion$[ebp]
  00b23	03 4a 0c	 add	 ecx, DWORD PTR [edx+12]
  00b26	89 4d fc	 mov	 DWORD PTR _explosion_info$[ebp], ecx

; 2719 : 
; 2720 : 	explosion_info->type 						= EXPLOSION_PARTICLES;

  00b29	8b 45 fc	 mov	 eax, DWORD PTR _explosion_info$[ebp]
  00b2c	c7 00 02 00 00
	00		 mov	 DWORD PTR [eax], 2

; 2721 : 
; 2722 : 	explosion_info->particle_count 			= 8;

  00b32	8b 45 fc	 mov	 eax, DWORD PTR _explosion_info$[ebp]
  00b35	c7 40 04 08 00
	00 00		 mov	 DWORD PTR [eax+4], 8

; 2723 : 
; 2724 : 	explosion_info->trail_type 				= SMOKE_LIST_TYPE_SMALL_PARTICLE_TRAIL;

  00b3c	8b 45 fc	 mov	 eax, DWORD PTR _explosion_info$[ebp]
  00b3f	c7 40 08 08 00
	00 00		 mov	 DWORD PTR [eax+8], 8

; 2725 : 
; 2726 : 	explosion_info->initial_speed 			= 30.0;

  00b46	8b 45 fc	 mov	 eax, DWORD PTR _explosion_info$[ebp]
  00b49	f3 0f 10 05 00
	00 00 00	 movss	 xmm0, DWORD PTR __real@41f00000
  00b51	f3 0f 11 40 0c	 movss	 DWORD PTR [eax+12], xmm0

; 2727 : 
; 2728 : 	explosion_info->frequency 			= 0.1;

  00b56	8b 45 fc	 mov	 eax, DWORD PTR _explosion_info$[ebp]
  00b59	f3 0f 10 05 00
	00 00 00	 movss	 xmm0, DWORD PTR __real@3dcccccd
  00b61	f3 0f 11 40 10	 movss	 DWORD PTR [eax+16], xmm0

; 2729 : 
; 2730 : 	explosion_info->smoke_lifetime 			= 1.5;

  00b66	8b 45 fc	 mov	 eax, DWORD PTR _explosion_info$[ebp]
  00b69	f3 0f 10 05 00
	00 00 00	 movss	 xmm0, DWORD PTR __real@3fc00000
  00b71	f3 0f 11 40 14	 movss	 DWORD PTR [eax+20], xmm0

; 2731 : 
; 2732 : 	//
; 2733 : 	// component 6
; 2734 : 	//
; 2735 : 
; 2736 : 	explosion_info = &(this_explosion->component[ 6 ]);

  00b76	b8 34 00 00 00	 mov	 eax, 52			; 00000034H
  00b7b	6b c8 06	 imul	 ecx, eax, 6
  00b7e	8b 55 f8	 mov	 edx, DWORD PTR _this_explosion$[ebp]
  00b81	03 4a 0c	 add	 ecx, DWORD PTR [edx+12]
  00b84	89 4d fc	 mov	 DWORD PTR _explosion_info$[ebp], ecx

; 2737 : 
; 2738 : 	explosion_info->type 						= EXPLOSION_SMOKE_TRAILS;

  00b87	8b 45 fc	 mov	 eax, DWORD PTR _explosion_info$[ebp]
  00b8a	c7 00 03 00 00
	00		 mov	 DWORD PTR [eax], 3

; 2739 : 
; 2740 : 	explosion_info->trail_type 				= SMOKE_LIST_TYPE_FIRE;

  00b90	8b 45 fc	 mov	 eax, DWORD PTR _explosion_info$[ebp]
  00b93	c7 40 08 04 00
	00 00		 mov	 DWORD PTR [eax+8], 4

; 2741 : 
; 2742 : 	explosion_info->trail_count 				=	1;

  00b9a	8b 45 fc	 mov	 eax, DWORD PTR _explosion_info$[ebp]
  00b9d	c7 40 04 01 00
	00 00		 mov	 DWORD PTR [eax+4], 1

; 2743 : 
; 2744 : 	if (command_line_persistent_smoke)

  00ba4	83 3d 00 00 00
	00 00		 cmp	 DWORD PTR ?command_line_persistent_smoke@@3HA, 0 ; command_line_persistent_smoke
  00bab	74 12		 je	 SHORT $LN8@initialise

; 2745 : 		explosion_info->generator_lifetime		= 1200.0;

  00bad	8b 45 fc	 mov	 eax, DWORD PTR _explosion_info$[ebp]
  00bb0	f3 0f 10 05 00
	00 00 00	 movss	 xmm0, DWORD PTR __real@44960000
  00bb8	f3 0f 11 40 0c	 movss	 DWORD PTR [eax+12], xmm0

; 2746 : 	else

  00bbd	eb 10		 jmp	 SHORT $LN9@initialise
$LN8@initialise:

; 2747 : 		explosion_info->generator_lifetime		= 10.0;

  00bbf	8b 45 fc	 mov	 eax, DWORD PTR _explosion_info$[ebp]
  00bc2	f3 0f 10 05 00
	00 00 00	 movss	 xmm0, DWORD PTR __real@41200000
  00bca	f3 0f 11 40 0c	 movss	 DWORD PTR [eax+12], xmm0
$LN9@initialise:

; 2748 : 	explosion_info->frequency					= 1.0;

  00bcf	8b 45 fc	 mov	 eax, DWORD PTR _explosion_info$[ebp]
  00bd2	f3 0f 10 05 00
	00 00 00	 movss	 xmm0, DWORD PTR __real@3f800000
  00bda	f3 0f 11 40 10	 movss	 DWORD PTR [eax+16], xmm0

; 2749 : 	explosion_info->smoke_lifetime			= 200.0;

  00bdf	8b 45 fc	 mov	 eax, DWORD PTR _explosion_info$[ebp]
  00be2	f3 0f 10 05 00
	00 00 00	 movss	 xmm0, DWORD PTR __real@43480000
  00bea	f3 0f 11 40 14	 movss	 DWORD PTR [eax+20], xmm0

; 2750 : 
; 2751 : 	explosion_info->initial_velocity.x		= 0.0;

  00bef	8b 45 fc	 mov	 eax, DWORD PTR _explosion_info$[ebp]
  00bf2	0f 57 c0	 xorps	 xmm0, xmm0
  00bf5	f3 0f 11 40 18	 movss	 DWORD PTR [eax+24], xmm0

; 2752 : 	explosion_info->initial_velocity.y		= 0.2;

  00bfa	8b 45 fc	 mov	 eax, DWORD PTR _explosion_info$[ebp]
  00bfd	f3 0f 10 05 00
	00 00 00	 movss	 xmm0, DWORD PTR __real@3e4ccccd
  00c05	f3 0f 11 40 1c	 movss	 DWORD PTR [eax+28], xmm0

; 2753 : 	explosion_info->initial_velocity.z		= 0.0;

  00c0a	8b 45 fc	 mov	 eax, DWORD PTR _explosion_info$[ebp]
  00c0d	0f 57 c0	 xorps	 xmm0, xmm0
  00c10	f3 0f 11 40 20	 movss	 DWORD PTR [eax+32], xmm0

; 2754 : 
; 2755 : 	//
; 2756 : 	// component 7: Flame
; 2757 : 	//
; 2758 : 
; 2759 : 	explosion_info = &(this_explosion->component[ 7 ]);

  00c15	b8 34 00 00 00	 mov	 eax, 52			; 00000034H
  00c1a	6b c8 07	 imul	 ecx, eax, 7
  00c1d	8b 55 f8	 mov	 edx, DWORD PTR _this_explosion$[ebp]
  00c20	03 4a 0c	 add	 ecx, DWORD PTR [edx+12]
  00c23	89 4d fc	 mov	 DWORD PTR _explosion_info$[ebp], ecx

; 2760 : 
; 2761 : 	explosion_info->type 						= EXPLOSION_SMOKE_TRAILS;

  00c26	8b 45 fc	 mov	 eax, DWORD PTR _explosion_info$[ebp]
  00c29	c7 00 03 00 00
	00		 mov	 DWORD PTR [eax], 3

; 2762 : 
; 2763 : 	explosion_info->trail_type 				= SMOKE_LIST_TYPE_FLAME;

  00c2f	8b 45 fc	 mov	 eax, DWORD PTR _explosion_info$[ebp]
  00c32	c7 40 08 22 00
	00 00		 mov	 DWORD PTR [eax+8], 34	; 00000022H

; 2764 : 
; 2765 : 	explosion_info->trail_count 				=	1;

  00c39	8b 45 fc	 mov	 eax, DWORD PTR _explosion_info$[ebp]
  00c3c	c7 40 04 01 00
	00 00		 mov	 DWORD PTR [eax+4], 1

; 2766 : 
; 2767 : 	if (command_line_persistent_smoke)

  00c43	83 3d 00 00 00
	00 00		 cmp	 DWORD PTR ?command_line_persistent_smoke@@3HA, 0 ; command_line_persistent_smoke
  00c4a	74 12		 je	 SHORT $LN10@initialise

; 2768 : 		explosion_info->generator_lifetime		= 120.0;

  00c4c	8b 45 fc	 mov	 eax, DWORD PTR _explosion_info$[ebp]
  00c4f	f3 0f 10 05 00
	00 00 00	 movss	 xmm0, DWORD PTR __real@42f00000
  00c57	f3 0f 11 40 0c	 movss	 DWORD PTR [eax+12], xmm0

; 2769 : 	else

  00c5c	eb 10		 jmp	 SHORT $LN11@initialise
$LN10@initialise:

; 2770 : 		explosion_info->generator_lifetime		= 5.0;

  00c5e	8b 45 fc	 mov	 eax, DWORD PTR _explosion_info$[ebp]
  00c61	f3 0f 10 05 00
	00 00 00	 movss	 xmm0, DWORD PTR __real@40a00000
  00c69	f3 0f 11 40 0c	 movss	 DWORD PTR [eax+12], xmm0
$LN11@initialise:

; 2771 : 	explosion_info->frequency					= 0.3;

  00c6e	8b 45 fc	 mov	 eax, DWORD PTR _explosion_info$[ebp]
  00c71	f3 0f 10 05 00
	00 00 00	 movss	 xmm0, DWORD PTR __real@3e99999a
  00c79	f3 0f 11 40 10	 movss	 DWORD PTR [eax+16], xmm0

; 2772 : 	explosion_info->smoke_lifetime			= 4.0;

  00c7e	8b 45 fc	 mov	 eax, DWORD PTR _explosion_info$[ebp]
  00c81	f3 0f 10 05 00
	00 00 00	 movss	 xmm0, DWORD PTR __real@40800000
  00c89	f3 0f 11 40 14	 movss	 DWORD PTR [eax+20], xmm0

; 2773 : 
; 2774 : 	explosion_info->initial_velocity.x		= 0.0;

  00c8e	8b 45 fc	 mov	 eax, DWORD PTR _explosion_info$[ebp]
  00c91	0f 57 c0	 xorps	 xmm0, xmm0
  00c94	f3 0f 11 40 18	 movss	 DWORD PTR [eax+24], xmm0

; 2775 : 	explosion_info->initial_velocity.y		= 0.2;

  00c99	8b 45 fc	 mov	 eax, DWORD PTR _explosion_info$[ebp]
  00c9c	f3 0f 10 05 00
	00 00 00	 movss	 xmm0, DWORD PTR __real@3e4ccccd
  00ca4	f3 0f 11 40 1c	 movss	 DWORD PTR [eax+28], xmm0

; 2776 : 	explosion_info->initial_velocity.z		= 0.0;

  00ca9	8b 45 fc	 mov	 eax, DWORD PTR _explosion_info$[ebp]
  00cac	0f 57 c0	 xorps	 xmm0, xmm0
  00caf	f3 0f 11 40 20	 movss	 DWORD PTR [eax+32], xmm0

; 2777 : 
; 2778 : 	//
; 2779 : 	// component 8: Flame
; 2780 : 	//
; 2781 : 
; 2782 : 	explosion_info = &(this_explosion->component[ 8 ]);

  00cb4	b8 34 00 00 00	 mov	 eax, 52			; 00000034H
  00cb9	c1 e0 03	 shl	 eax, 3
  00cbc	8b 4d f8	 mov	 ecx, DWORD PTR _this_explosion$[ebp]
  00cbf	03 41 0c	 add	 eax, DWORD PTR [ecx+12]
  00cc2	89 45 fc	 mov	 DWORD PTR _explosion_info$[ebp], eax

; 2783 : 
; 2784 : 	explosion_info->type 						= EXPLOSION_SMOKE_TRAILS;

  00cc5	8b 45 fc	 mov	 eax, DWORD PTR _explosion_info$[ebp]
  00cc8	c7 00 03 00 00
	00		 mov	 DWORD PTR [eax], 3

; 2785 : 
; 2786 : 	explosion_info->trail_type 				= SMOKE_LIST_TYPE_FLAME;

  00cce	8b 45 fc	 mov	 eax, DWORD PTR _explosion_info$[ebp]
  00cd1	c7 40 08 22 00
	00 00		 mov	 DWORD PTR [eax+8], 34	; 00000022H

; 2787 : 
; 2788 : 	explosion_info->trail_count 				=	1;

  00cd8	8b 45 fc	 mov	 eax, DWORD PTR _explosion_info$[ebp]
  00cdb	c7 40 04 01 00
	00 00		 mov	 DWORD PTR [eax+4], 1

; 2789 : 
; 2790 : 	if (command_line_persistent_smoke)

  00ce2	83 3d 00 00 00
	00 00		 cmp	 DWORD PTR ?command_line_persistent_smoke@@3HA, 0 ; command_line_persistent_smoke
  00ce9	74 12		 je	 SHORT $LN12@initialise

; 2791 : 		explosion_info->generator_lifetime		= 200.0;

  00ceb	8b 45 fc	 mov	 eax, DWORD PTR _explosion_info$[ebp]
  00cee	f3 0f 10 05 00
	00 00 00	 movss	 xmm0, DWORD PTR __real@43480000
  00cf6	f3 0f 11 40 0c	 movss	 DWORD PTR [eax+12], xmm0

; 2792 : 	else

  00cfb	eb 10		 jmp	 SHORT $LN13@initialise
$LN12@initialise:

; 2793 : 		explosion_info->generator_lifetime		= 10.0;

  00cfd	8b 45 fc	 mov	 eax, DWORD PTR _explosion_info$[ebp]
  00d00	f3 0f 10 05 00
	00 00 00	 movss	 xmm0, DWORD PTR __real@41200000
  00d08	f3 0f 11 40 0c	 movss	 DWORD PTR [eax+12], xmm0
$LN13@initialise:

; 2794 : 	explosion_info->frequency					= 0.2;

  00d0d	8b 45 fc	 mov	 eax, DWORD PTR _explosion_info$[ebp]
  00d10	f3 0f 10 05 00
	00 00 00	 movss	 xmm0, DWORD PTR __real@3e4ccccd
  00d18	f3 0f 11 40 10	 movss	 DWORD PTR [eax+16], xmm0

; 2795 : 	explosion_info->smoke_lifetime			= 3.0;

  00d1d	8b 45 fc	 mov	 eax, DWORD PTR _explosion_info$[ebp]
  00d20	f3 0f 10 05 00
	00 00 00	 movss	 xmm0, DWORD PTR __real@40400000
  00d28	f3 0f 11 40 14	 movss	 DWORD PTR [eax+20], xmm0

; 2796 : 
; 2797 : 	explosion_info->initial_velocity.x		= 0.0;

  00d2d	8b 45 fc	 mov	 eax, DWORD PTR _explosion_info$[ebp]
  00d30	0f 57 c0	 xorps	 xmm0, xmm0
  00d33	f3 0f 11 40 18	 movss	 DWORD PTR [eax+24], xmm0

; 2798 : 	explosion_info->initial_velocity.y		= 0.2;

  00d38	8b 45 fc	 mov	 eax, DWORD PTR _explosion_info$[ebp]
  00d3b	f3 0f 10 05 00
	00 00 00	 movss	 xmm0, DWORD PTR __real@3e4ccccd
  00d43	f3 0f 11 40 1c	 movss	 DWORD PTR [eax+28], xmm0

; 2799 : 	explosion_info->initial_velocity.z		= 0.0;

  00d48	8b 45 fc	 mov	 eax, DWORD PTR _explosion_info$[ebp]
  00d4b	0f 57 c0	 xorps	 xmm0, xmm0
  00d4e	f3 0f 11 40 20	 movss	 DWORD PTR [eax+32], xmm0

; 2800 : 
; 2801 : 	//
; 2802 : 	// Werewolf: distant explosion sound
; 2803 : 	//
; 2804 : 
; 2805 : 	explosion_info = &(this_explosion->component[ 9 ]);

  00d53	b8 34 00 00 00	 mov	 eax, 52			; 00000034H
  00d58	6b c8 09	 imul	 ecx, eax, 9
  00d5b	8b 55 f8	 mov	 edx, DWORD PTR _this_explosion$[ebp]
  00d5e	03 4a 0c	 add	 ecx, DWORD PTR [edx+12]
  00d61	89 4d fc	 mov	 DWORD PTR _explosion_info$[ebp], ecx

; 2806 : 	explosion_info->type 						= EXPLOSION_SOUND_EFFECT;

  00d64	8b 45 fc	 mov	 eax, DWORD PTR _explosion_info$[ebp]
  00d67	c7 00 04 00 00
	00		 mov	 DWORD PTR [eax], 4

; 2807 : 	explosion_info->sound_type 				= SOUND_SAMPLE_INDEX_EXPLOSION_DISTANT_1;

  00d6d	8b 45 fc	 mov	 eax, DWORD PTR _explosion_info$[ebp]
  00d70	c7 40 04 d1 07
	00 00		 mov	 DWORD PTR [eax+4], 2001	; 000007d1H

; 2808 : 	explosion_info->sound_volume 				= 1.0;

  00d77	8b 45 fc	 mov	 eax, DWORD PTR _explosion_info$[ebp]
  00d7a	f3 0f 10 05 00
	00 00 00	 movss	 xmm0, DWORD PTR __real@3f800000
  00d82	f3 0f 11 40 08	 movss	 DWORD PTR [eax+8], xmm0

; 2809 : 
; 2810 : }

  00d87	5f		 pop	 edi
  00d88	5e		 pop	 esi
  00d89	5b		 pop	 ebx
  00d8a	8b e5		 mov	 esp, ebp
  00d8c	5d		 pop	 ebp
  00d8d	c3		 ret	 0
?initialise_object_explosive_explosion_database@@YGXXZ ENDP ; initialise_object_explosive_explosion_database
_TEXT	ENDS
; Function compile flags: /Odtp /ZI
; File c:\users\nhv90\projects\eech\aphavoc\source\entity\special\effect\explosn\xp_dbase.c
;	COMDAT ?initialise_object_dust_explosion_database@@YGXXZ
_TEXT	SEGMENT
_this_explosion$ = -8					; size = 4
_explosion_info$ = -4					; size = 4
?initialise_object_dust_explosion_database@@YGXXZ PROC	; initialise_object_dust_explosion_database, COMDAT

; 1916 : {

  00000	55		 push	 ebp
  00001	8b ec		 mov	 ebp, esp
  00003	83 ec 48	 sub	 esp, 72			; 00000048H
  00006	53		 push	 ebx
  00007	56		 push	 esi
  00008	57		 push	 edi

; 1917 : 
; 1918 : 	meta_explosion_component
; 1919 : 		*explosion_info;
; 1920 : 
; 1921 : 	meta_explosion_data
; 1922 : 		*this_explosion;
; 1923 : 
; 1924 : 	////////////////////////////////////////
; 1925 : 	//
; 1926 : 	// SMALL DUST EXPLOSION
; 1927 : 	//
; 1928 : 	////////////////////////////////////////
; 1929 : 
; 1930 : 	this_explosion = &(meta_explosion_database[ SMALL_DUST_META_EXPLOSION ]);

  00009	b8 10 00 00 00	 mov	 eax, 16			; 00000010H
  0000e	6b c8 09	 imul	 ecx, eax, 9
  00011	81 c1 00 00 00
	00		 add	 ecx, OFFSET ?meta_explosion_database@@3PAUMETA_EXPLOSION_DATA@@A ; meta_explosion_database
  00017	89 4d f8	 mov	 DWORD PTR _this_explosion$[ebp], ecx

; 1931 : 
; 1932 : 	this_explosion->number_of_components	=	1;

  0001a	8b 45 f8	 mov	 eax, DWORD PTR _this_explosion$[ebp]
  0001d	c7 00 01 00 00
	00		 mov	 DWORD PTR [eax], 1

; 1933 : 
; 1934 : 	this_explosion->damage_radius				=	0.0;

  00023	8b 45 f8	 mov	 eax, DWORD PTR _this_explosion$[ebp]
  00026	0f 57 c0	 xorps	 xmm0, xmm0
  00029	f3 0f 11 40 04	 movss	 DWORD PTR [eax+4], xmm0

; 1935 : 
; 1936 : 	this_explosion->show_on_map				=	FALSE;

  0002e	8b 45 f8	 mov	 eax, DWORD PTR _this_explosion$[ebp]
  00031	c7 40 08 00 00
	00 00		 mov	 DWORD PTR [eax+8], 0

; 1937 : 
; 1938 : 	this_explosion->component = (meta_explosion_component *) malloc_fast_mem( sizeof( meta_explosion_component ) * this_explosion->number_of_components );

  00038	8b 45 f8	 mov	 eax, DWORD PTR _this_explosion$[ebp]
  0003b	6b 08 34	 imul	 ecx, DWORD PTR [eax], 52
  0003e	51		 push	 ecx
  0003f	e8 00 00 00 00	 call	 ?malloc_fast_memory@@YGPAXI@Z ; malloc_fast_memory
  00044	8b 55 f8	 mov	 edx, DWORD PTR _this_explosion$[ebp]
  00047	89 42 0c	 mov	 DWORD PTR [edx+12], eax

; 1939 : 
; 1940 : 	//
; 1941 : 	// component 0
; 1942 : 	//
; 1943 : 
; 1944 : 	explosion_info = &(this_explosion->component[ 0 ]);

  0004a	b8 34 00 00 00	 mov	 eax, 52			; 00000034H
  0004f	6b c8 00	 imul	 ecx, eax, 0
  00052	8b 55 f8	 mov	 edx, DWORD PTR _this_explosion$[ebp]
  00055	03 4a 0c	 add	 ecx, DWORD PTR [edx+12]
  00058	89 4d fc	 mov	 DWORD PTR _explosion_info$[ebp], ecx

; 1945 : 
; 1946 : 	explosion_info->type 						=	EXPLOSION_SPRITES;

  0005b	8b 45 fc	 mov	 eax, DWORD PTR _explosion_info$[ebp]
  0005e	c7 00 00 00 00
	00		 mov	 DWORD PTR [eax], 0

; 1947 : 
; 1948 : 	explosion_info->animated_texture 		=	TEXTURE_ANIMATION_INDEX_SMOKE;

  00064	8b 45 fc	 mov	 eax, DWORD PTR _explosion_info$[ebp]
  00067	c7 40 04 63 00
	00 00		 mov	 DWORD PTR [eax+4], 99	; 00000063H

; 1949 : 
; 1950 : 	explosion_info->sprite_count 				=	6;

  0006e	8b 45 fc	 mov	 eax, DWORD PTR _explosion_info$[ebp]
  00071	c7 40 08 06 00
	00 00		 mov	 DWORD PTR [eax+8], 6

; 1951 : 
; 1952 : 	explosion_info->red 							=	200;

  00078	8b 45 fc	 mov	 eax, DWORD PTR _explosion_info$[ebp]
  0007b	c6 40 0c c8	 mov	 BYTE PTR [eax+12], 200	; 000000c8H

; 1953 : 	explosion_info->green 						= 	200;

  0007f	8b 45 fc	 mov	 eax, DWORD PTR _explosion_info$[ebp]
  00082	c6 40 0d c8	 mov	 BYTE PTR [eax+13], 200	; 000000c8H

; 1954 : 	explosion_info->blue 						=	200;

  00086	8b 45 fc	 mov	 eax, DWORD PTR _explosion_info$[ebp]
  00089	c6 40 0e c8	 mov	 BYTE PTR [eax+14], 200	; 000000c8H

; 1955 : 	explosion_info->alpha 						=	255;

  0008d	8b 45 fc	 mov	 eax, DWORD PTR _explosion_info$[ebp]
  00090	c6 40 0f ff	 mov	 BYTE PTR [eax+15], 255	; 000000ffH

; 1956 : 
; 1957 : 	explosion_info->additive 					=	FALSE;

  00094	8b 45 fc	 mov	 eax, DWORD PTR _explosion_info$[ebp]
  00097	8a 48 10	 mov	 cl, BYTE PTR [eax+16]
  0009a	80 e1 fe	 and	 cl, 254			; 000000feH
  0009d	8b 55 fc	 mov	 edx, DWORD PTR _explosion_info$[ebp]
  000a0	88 4a 10	 mov	 BYTE PTR [edx+16], cl

; 1958 : 
; 1959 : 	explosion_info->blast_hemisphere_only	=	TRUE;

  000a3	8b 45 fc	 mov	 eax, DWORD PTR _explosion_info$[ebp]
  000a6	8a 48 10	 mov	 cl, BYTE PTR [eax+16]
  000a9	80 c9 02	 or	 cl, 2
  000ac	8b 55 fc	 mov	 edx, DWORD PTR _explosion_info$[ebp]
  000af	88 4a 10	 mov	 BYTE PTR [edx+16], cl

; 1960 : 
; 1961 : 	explosion_info->delay_max 					=	0.75;

  000b2	8b 45 fc	 mov	 eax, DWORD PTR _explosion_info$[ebp]
  000b5	f3 0f 10 05 00
	00 00 00	 movss	 xmm0, DWORD PTR __real@3f400000
  000bd	f3 0f 11 40 14	 movss	 DWORD PTR [eax+20], xmm0

; 1962 : 
; 1963 : 	explosion_info->lifetime_min 				=	0.35;

  000c2	8b 45 fc	 mov	 eax, DWORD PTR _explosion_info$[ebp]
  000c5	f3 0f 10 05 00
	00 00 00	 movss	 xmm0, DWORD PTR __real@3eb33333
  000cd	f3 0f 11 40 18	 movss	 DWORD PTR [eax+24], xmm0

; 1964 : 	explosion_info->lifetime_max 				=	1.0;

  000d2	8b 45 fc	 mov	 eax, DWORD PTR _explosion_info$[ebp]
  000d5	f3 0f 10 05 00
	00 00 00	 movss	 xmm0, DWORD PTR __real@3f800000
  000dd	f3 0f 11 40 1c	 movss	 DWORD PTR [eax+28], xmm0

; 1965 : 
; 1966 : 	explosion_info->scale_min 					=	5.0;

  000e2	8b 45 fc	 mov	 eax, DWORD PTR _explosion_info$[ebp]
  000e5	f3 0f 10 05 00
	00 00 00	 movss	 xmm0, DWORD PTR __real@40a00000
  000ed	f3 0f 11 40 20	 movss	 DWORD PTR [eax+32], xmm0

; 1967 : 	explosion_info->scale_max 					=	8.0;

  000f2	8b 45 fc	 mov	 eax, DWORD PTR _explosion_info$[ebp]
  000f5	f3 0f 10 05 00
	00 00 00	 movss	 xmm0, DWORD PTR __real@41000000
  000fd	f3 0f 11 40 24	 movss	 DWORD PTR [eax+36], xmm0

; 1968 : 
; 1969 : 	explosion_info->blast_radius		 		=	-1.0;

  00102	8b 45 fc	 mov	 eax, DWORD PTR _explosion_info$[ebp]
  00105	f3 0f 10 05 00
	00 00 00	 movss	 xmm0, DWORD PTR __real@bf800000
  0010d	f3 0f 11 40 28	 movss	 DWORD PTR [eax+40], xmm0

; 1970 : 
; 1971 : 	explosion_info->animation_frequency		=	0.0;

  00112	8b 45 fc	 mov	 eax, DWORD PTR _explosion_info$[ebp]
  00115	0f 57 c0	 xorps	 xmm0, xmm0
  00118	f3 0f 11 40 2c	 movss	 DWORD PTR [eax+44], xmm0

; 1972 : 
; 1973 : 	explosion_info->rotation_rate		=	0.0;

  0011d	8b 45 fc	 mov	 eax, DWORD PTR _explosion_info$[ebp]
  00120	0f 57 c0	 xorps	 xmm0, xmm0
  00123	f3 0f 11 40 30	 movss	 DWORD PTR [eax+48], xmm0

; 1974 : 
; 1975 : 	////////////////////////////////////////
; 1976 : 	//
; 1977 : 	// MEDIUM DUST EXPLOSION
; 1978 : 	//
; 1979 : 	////////////////////////////////////////
; 1980 : 
; 1981 : 	this_explosion = &(meta_explosion_database[ MEDIUM_DUST_META_EXPLOSION ]);

  00128	b8 10 00 00 00	 mov	 eax, 16			; 00000010H
  0012d	6b c8 0a	 imul	 ecx, eax, 10
  00130	81 c1 00 00 00
	00		 add	 ecx, OFFSET ?meta_explosion_database@@3PAUMETA_EXPLOSION_DATA@@A ; meta_explosion_database
  00136	89 4d f8	 mov	 DWORD PTR _this_explosion$[ebp], ecx

; 1982 : 
; 1983 : 	this_explosion->number_of_components	=	4;

  00139	8b 45 f8	 mov	 eax, DWORD PTR _this_explosion$[ebp]
  0013c	c7 00 04 00 00
	00		 mov	 DWORD PTR [eax], 4

; 1984 : 
; 1985 : 	this_explosion->damage_radius				=	0.0;

  00142	8b 45 f8	 mov	 eax, DWORD PTR _this_explosion$[ebp]
  00145	0f 57 c0	 xorps	 xmm0, xmm0
  00148	f3 0f 11 40 04	 movss	 DWORD PTR [eax+4], xmm0

; 1986 : 
; 1987 : 	this_explosion->show_on_map				=	FALSE;

  0014d	8b 45 f8	 mov	 eax, DWORD PTR _this_explosion$[ebp]
  00150	c7 40 08 00 00
	00 00		 mov	 DWORD PTR [eax+8], 0

; 1988 : 
; 1989 : 	this_explosion->component = (meta_explosion_component *) malloc_fast_mem( sizeof( meta_explosion_component ) * this_explosion->number_of_components );

  00157	8b 45 f8	 mov	 eax, DWORD PTR _this_explosion$[ebp]
  0015a	6b 08 34	 imul	 ecx, DWORD PTR [eax], 52
  0015d	51		 push	 ecx
  0015e	e8 00 00 00 00	 call	 ?malloc_fast_memory@@YGPAXI@Z ; malloc_fast_memory
  00163	8b 55 f8	 mov	 edx, DWORD PTR _this_explosion$[ebp]
  00166	89 42 0c	 mov	 DWORD PTR [edx+12], eax

; 1990 : 
; 1991 : 	//
; 1992 : 	// component 0
; 1993 : 	//
; 1994 : 
; 1995 : 	explosion_info = &(this_explosion->component[ 0 ]);

  00169	b8 34 00 00 00	 mov	 eax, 52			; 00000034H
  0016e	6b c8 00	 imul	 ecx, eax, 0
  00171	8b 55 f8	 mov	 edx, DWORD PTR _this_explosion$[ebp]
  00174	03 4a 0c	 add	 ecx, DWORD PTR [edx+12]
  00177	89 4d fc	 mov	 DWORD PTR _explosion_info$[ebp], ecx

; 1996 : 
; 1997 : 	explosion_info->type 						=	EXPLOSION_SPRITES;

  0017a	8b 45 fc	 mov	 eax, DWORD PTR _explosion_info$[ebp]
  0017d	c7 00 00 00 00
	00		 mov	 DWORD PTR [eax], 0

; 1998 : 
; 1999 : 	explosion_info->animated_texture 		=	TEXTURE_ANIMATION_INDEX_SMOKE;

  00183	8b 45 fc	 mov	 eax, DWORD PTR _explosion_info$[ebp]
  00186	c7 40 04 63 00
	00 00		 mov	 DWORD PTR [eax+4], 99	; 00000063H

; 2000 : 
; 2001 : 	explosion_info->sprite_count 				=	6;

  0018d	8b 45 fc	 mov	 eax, DWORD PTR _explosion_info$[ebp]
  00190	c7 40 08 06 00
	00 00		 mov	 DWORD PTR [eax+8], 6

; 2002 : 
; 2003 : 	explosion_info->red 							=	200;

  00197	8b 45 fc	 mov	 eax, DWORD PTR _explosion_info$[ebp]
  0019a	c6 40 0c c8	 mov	 BYTE PTR [eax+12], 200	; 000000c8H

; 2004 : 	explosion_info->green 						= 	200;

  0019e	8b 45 fc	 mov	 eax, DWORD PTR _explosion_info$[ebp]
  001a1	c6 40 0d c8	 mov	 BYTE PTR [eax+13], 200	; 000000c8H

; 2005 : 	explosion_info->blue 						=	200;

  001a5	8b 45 fc	 mov	 eax, DWORD PTR _explosion_info$[ebp]
  001a8	c6 40 0e c8	 mov	 BYTE PTR [eax+14], 200	; 000000c8H

; 2006 : 	explosion_info->alpha 						=	255;

  001ac	8b 45 fc	 mov	 eax, DWORD PTR _explosion_info$[ebp]
  001af	c6 40 0f ff	 mov	 BYTE PTR [eax+15], 255	; 000000ffH

; 2007 : 
; 2008 : 	explosion_info->additive 					=	FALSE;

  001b3	8b 45 fc	 mov	 eax, DWORD PTR _explosion_info$[ebp]
  001b6	8a 48 10	 mov	 cl, BYTE PTR [eax+16]
  001b9	80 e1 fe	 and	 cl, 254			; 000000feH
  001bc	8b 55 fc	 mov	 edx, DWORD PTR _explosion_info$[ebp]
  001bf	88 4a 10	 mov	 BYTE PTR [edx+16], cl

; 2009 : 
; 2010 : 	explosion_info->blast_hemisphere_only	=	TRUE;

  001c2	8b 45 fc	 mov	 eax, DWORD PTR _explosion_info$[ebp]
  001c5	8a 48 10	 mov	 cl, BYTE PTR [eax+16]
  001c8	80 c9 02	 or	 cl, 2
  001cb	8b 55 fc	 mov	 edx, DWORD PTR _explosion_info$[ebp]
  001ce	88 4a 10	 mov	 BYTE PTR [edx+16], cl

; 2011 : 
; 2012 : 	explosion_info->delay_max 					=	0.75;

  001d1	8b 45 fc	 mov	 eax, DWORD PTR _explosion_info$[ebp]
  001d4	f3 0f 10 05 00
	00 00 00	 movss	 xmm0, DWORD PTR __real@3f400000
  001dc	f3 0f 11 40 14	 movss	 DWORD PTR [eax+20], xmm0

; 2013 : 
; 2014 : 	explosion_info->lifetime_min 				=	1.0;

  001e1	8b 45 fc	 mov	 eax, DWORD PTR _explosion_info$[ebp]
  001e4	f3 0f 10 05 00
	00 00 00	 movss	 xmm0, DWORD PTR __real@3f800000
  001ec	f3 0f 11 40 18	 movss	 DWORD PTR [eax+24], xmm0

; 2015 : 	explosion_info->lifetime_max 				=	2.0;

  001f1	8b 45 fc	 mov	 eax, DWORD PTR _explosion_info$[ebp]
  001f4	f3 0f 10 05 00
	00 00 00	 movss	 xmm0, DWORD PTR __real@40000000
  001fc	f3 0f 11 40 1c	 movss	 DWORD PTR [eax+28], xmm0

; 2016 : 
; 2017 : 	explosion_info->scale_min 					=	7.0;

  00201	8b 45 fc	 mov	 eax, DWORD PTR _explosion_info$[ebp]
  00204	f3 0f 10 05 00
	00 00 00	 movss	 xmm0, DWORD PTR __real@40e00000
  0020c	f3 0f 11 40 20	 movss	 DWORD PTR [eax+32], xmm0

; 2018 : 	explosion_info->scale_max 					=	10.0;

  00211	8b 45 fc	 mov	 eax, DWORD PTR _explosion_info$[ebp]
  00214	f3 0f 10 05 00
	00 00 00	 movss	 xmm0, DWORD PTR __real@41200000
  0021c	f3 0f 11 40 24	 movss	 DWORD PTR [eax+36], xmm0

; 2019 : 
; 2020 : 	explosion_info->blast_radius		 		=	-1.0;

  00221	8b 45 fc	 mov	 eax, DWORD PTR _explosion_info$[ebp]
  00224	f3 0f 10 05 00
	00 00 00	 movss	 xmm0, DWORD PTR __real@bf800000
  0022c	f3 0f 11 40 28	 movss	 DWORD PTR [eax+40], xmm0

; 2021 : 
; 2022 : 	explosion_info->animation_frequency		=	0.0;

  00231	8b 45 fc	 mov	 eax, DWORD PTR _explosion_info$[ebp]
  00234	0f 57 c0	 xorps	 xmm0, xmm0
  00237	f3 0f 11 40 2c	 movss	 DWORD PTR [eax+44], xmm0

; 2023 : 
; 2024 : 	explosion_info->rotation_rate		=	0.0;

  0023c	8b 45 fc	 mov	 eax, DWORD PTR _explosion_info$[ebp]
  0023f	0f 57 c0	 xorps	 xmm0, xmm0
  00242	f3 0f 11 40 30	 movss	 DWORD PTR [eax+48], xmm0

; 2025 : 
; 2026 : 	//
; 2027 : 	// component 1
; 2028 : 	//
; 2029 : 
; 2030 : 	explosion_info = &(this_explosion->component[ 1 ]);

  00247	b8 34 00 00 00	 mov	 eax, 52			; 00000034H
  0024c	c1 e0 00	 shl	 eax, 0
  0024f	8b 4d f8	 mov	 ecx, DWORD PTR _this_explosion$[ebp]
  00252	03 41 0c	 add	 eax, DWORD PTR [ecx+12]
  00255	89 45 fc	 mov	 DWORD PTR _explosion_info$[ebp], eax

; 2031 : 
; 2032 : 	explosion_info->type 						=	EXPLOSION_SPRITES;

  00258	8b 45 fc	 mov	 eax, DWORD PTR _explosion_info$[ebp]
  0025b	c7 00 00 00 00
	00		 mov	 DWORD PTR [eax], 0

; 2033 : 
; 2034 : 	explosion_info->animated_texture 		=	TEXTURE_ANIMATION_INDEX_SMOKE;

  00261	8b 45 fc	 mov	 eax, DWORD PTR _explosion_info$[ebp]
  00264	c7 40 04 63 00
	00 00		 mov	 DWORD PTR [eax+4], 99	; 00000063H

; 2035 : 
; 2036 : 	explosion_info->sprite_count 				=	6;

  0026b	8b 45 fc	 mov	 eax, DWORD PTR _explosion_info$[ebp]
  0026e	c7 40 08 06 00
	00 00		 mov	 DWORD PTR [eax+8], 6

; 2037 : 
; 2038 : 	explosion_info->red 							=	140;

  00275	8b 45 fc	 mov	 eax, DWORD PTR _explosion_info$[ebp]
  00278	c6 40 0c 8c	 mov	 BYTE PTR [eax+12], 140	; 0000008cH

; 2039 : 	explosion_info->green 						= 	140;

  0027c	8b 45 fc	 mov	 eax, DWORD PTR _explosion_info$[ebp]
  0027f	c6 40 0d 8c	 mov	 BYTE PTR [eax+13], 140	; 0000008cH

; 2040 : 	explosion_info->blue 						=	140;

  00283	8b 45 fc	 mov	 eax, DWORD PTR _explosion_info$[ebp]
  00286	c6 40 0e 8c	 mov	 BYTE PTR [eax+14], 140	; 0000008cH

; 2041 : 	explosion_info->alpha 						=	255;

  0028a	8b 45 fc	 mov	 eax, DWORD PTR _explosion_info$[ebp]
  0028d	c6 40 0f ff	 mov	 BYTE PTR [eax+15], 255	; 000000ffH

; 2042 : 
; 2043 : 	explosion_info->additive 					=	FALSE;

  00291	8b 45 fc	 mov	 eax, DWORD PTR _explosion_info$[ebp]
  00294	8a 48 10	 mov	 cl, BYTE PTR [eax+16]
  00297	80 e1 fe	 and	 cl, 254			; 000000feH
  0029a	8b 55 fc	 mov	 edx, DWORD PTR _explosion_info$[ebp]
  0029d	88 4a 10	 mov	 BYTE PTR [edx+16], cl

; 2044 : 
; 2045 : 	explosion_info->blast_hemisphere_only	=	TRUE;

  002a0	8b 45 fc	 mov	 eax, DWORD PTR _explosion_info$[ebp]
  002a3	8a 48 10	 mov	 cl, BYTE PTR [eax+16]
  002a6	80 c9 02	 or	 cl, 2
  002a9	8b 55 fc	 mov	 edx, DWORD PTR _explosion_info$[ebp]
  002ac	88 4a 10	 mov	 BYTE PTR [edx+16], cl

; 2046 : 
; 2047 : 	explosion_info->delay_max 					=	0.75;

  002af	8b 45 fc	 mov	 eax, DWORD PTR _explosion_info$[ebp]
  002b2	f3 0f 10 05 00
	00 00 00	 movss	 xmm0, DWORD PTR __real@3f400000
  002ba	f3 0f 11 40 14	 movss	 DWORD PTR [eax+20], xmm0

; 2048 : 
; 2049 : 	explosion_info->lifetime_min 				=	0.5;

  002bf	8b 45 fc	 mov	 eax, DWORD PTR _explosion_info$[ebp]
  002c2	f3 0f 10 05 00
	00 00 00	 movss	 xmm0, DWORD PTR __real@3f000000
  002ca	f3 0f 11 40 18	 movss	 DWORD PTR [eax+24], xmm0

; 2050 : 	explosion_info->lifetime_max 				=	1.0;

  002cf	8b 45 fc	 mov	 eax, DWORD PTR _explosion_info$[ebp]
  002d2	f3 0f 10 05 00
	00 00 00	 movss	 xmm0, DWORD PTR __real@3f800000
  002da	f3 0f 11 40 1c	 movss	 DWORD PTR [eax+28], xmm0

; 2051 : 
; 2052 : 	explosion_info->scale_min 					=	7.0;

  002df	8b 45 fc	 mov	 eax, DWORD PTR _explosion_info$[ebp]
  002e2	f3 0f 10 05 00
	00 00 00	 movss	 xmm0, DWORD PTR __real@40e00000
  002ea	f3 0f 11 40 20	 movss	 DWORD PTR [eax+32], xmm0

; 2053 : 	explosion_info->scale_max 					=	10.0;

  002ef	8b 45 fc	 mov	 eax, DWORD PTR _explosion_info$[ebp]
  002f2	f3 0f 10 05 00
	00 00 00	 movss	 xmm0, DWORD PTR __real@41200000
  002fa	f3 0f 11 40 24	 movss	 DWORD PTR [eax+36], xmm0

; 2054 : 
; 2055 : 	explosion_info->blast_radius		 		=	-1.0;

  002ff	8b 45 fc	 mov	 eax, DWORD PTR _explosion_info$[ebp]
  00302	f3 0f 10 05 00
	00 00 00	 movss	 xmm0, DWORD PTR __real@bf800000
  0030a	f3 0f 11 40 28	 movss	 DWORD PTR [eax+40], xmm0

; 2056 : 
; 2057 : 	explosion_info->animation_frequency		=	0.0;

  0030f	8b 45 fc	 mov	 eax, DWORD PTR _explosion_info$[ebp]
  00312	0f 57 c0	 xorps	 xmm0, xmm0
  00315	f3 0f 11 40 2c	 movss	 DWORD PTR [eax+44], xmm0

; 2058 : 
; 2059 : 	explosion_info->rotation_rate		=	0.0;

  0031a	8b 45 fc	 mov	 eax, DWORD PTR _explosion_info$[ebp]
  0031d	0f 57 c0	 xorps	 xmm0, xmm0
  00320	f3 0f 11 40 30	 movss	 DWORD PTR [eax+48], xmm0

; 2060 : 
; 2061 : 	//
; 2062 : 	// component 2
; 2063 : 	//
; 2064 : 
; 2065 : 	explosion_info = &(this_explosion->component[ 2 ]);

  00325	b8 34 00 00 00	 mov	 eax, 52			; 00000034H
  0032a	d1 e0		 shl	 eax, 1
  0032c	8b 4d f8	 mov	 ecx, DWORD PTR _this_explosion$[ebp]
  0032f	03 41 0c	 add	 eax, DWORD PTR [ecx+12]
  00332	89 45 fc	 mov	 DWORD PTR _explosion_info$[ebp], eax

; 2066 : 
; 2067 : 	explosion_info->type 						= EXPLOSION_SOUND_EFFECT;

  00335	8b 45 fc	 mov	 eax, DWORD PTR _explosion_info$[ebp]
  00338	c7 00 04 00 00
	00		 mov	 DWORD PTR [eax], 4

; 2068 : 
; 2069 : 	explosion_info->sound_type 				= SOUND_SAMPLE_INDEX_RUBBLE;

  0033e	8b 45 fc	 mov	 eax, DWORD PTR _explosion_info$[ebp]
  00341	c7 40 04 55 00
	00 00		 mov	 DWORD PTR [eax+4], 85	; 00000055H

; 2070 : 	explosion_info->sound_volume 				= 0.65;

  00348	8b 45 fc	 mov	 eax, DWORD PTR _explosion_info$[ebp]
  0034b	f3 0f 10 05 00
	00 00 00	 movss	 xmm0, DWORD PTR __real@3f266666
  00353	f3 0f 11 40 08	 movss	 DWORD PTR [eax+8], xmm0

; 2071 : 
; 2072 : 	//
; 2073 : 	// component 3
; 2074 : 	//
; 2075 : 
; 2076 : 	explosion_info = &(this_explosion->component[ 3 ]);

  00358	b8 34 00 00 00	 mov	 eax, 52			; 00000034H
  0035d	6b c8 03	 imul	 ecx, eax, 3
  00360	8b 55 f8	 mov	 edx, DWORD PTR _this_explosion$[ebp]
  00363	03 4a 0c	 add	 ecx, DWORD PTR [edx+12]
  00366	89 4d fc	 mov	 DWORD PTR _explosion_info$[ebp], ecx

; 2077 : 
; 2078 : 	explosion_info->type 						= EXPLOSION_SMOKE_TRAILS;

  00369	8b 45 fc	 mov	 eax, DWORD PTR _explosion_info$[ebp]
  0036c	c7 00 03 00 00
	00		 mov	 DWORD PTR [eax], 3

; 2079 : 
; 2080 : 	explosion_info->trail_type 				= SMOKE_LIST_TYPE_LARGE_DUST_CLOUD;

  00372	8b 45 fc	 mov	 eax, DWORD PTR _explosion_info$[ebp]
  00375	c7 40 08 07 00
	00 00		 mov	 DWORD PTR [eax+8], 7

; 2081 : 
; 2082 : 	explosion_info->trail_count 				=	1;

  0037c	8b 45 fc	 mov	 eax, DWORD PTR _explosion_info$[ebp]
  0037f	c7 40 04 01 00
	00 00		 mov	 DWORD PTR [eax+4], 1

; 2083 : 
; 2084 : 	explosion_info->generator_lifetime		= 10.0;

  00386	8b 45 fc	 mov	 eax, DWORD PTR _explosion_info$[ebp]
  00389	f3 0f 10 05 00
	00 00 00	 movss	 xmm0, DWORD PTR __real@41200000
  00391	f3 0f 11 40 0c	 movss	 DWORD PTR [eax+12], xmm0

; 2085 : 	explosion_info->frequency					= 0.6;

  00396	8b 45 fc	 mov	 eax, DWORD PTR _explosion_info$[ebp]
  00399	f3 0f 10 05 00
	00 00 00	 movss	 xmm0, DWORD PTR __real@3f19999a
  003a1	f3 0f 11 40 10	 movss	 DWORD PTR [eax+16], xmm0

; 2086 : 	explosion_info->smoke_lifetime			= 30.0;

  003a6	8b 45 fc	 mov	 eax, DWORD PTR _explosion_info$[ebp]
  003a9	f3 0f 10 05 00
	00 00 00	 movss	 xmm0, DWORD PTR __real@41f00000
  003b1	f3 0f 11 40 14	 movss	 DWORD PTR [eax+20], xmm0

; 2087 : 
; 2088 : 	explosion_info->initial_velocity.x		= 0.0;

  003b6	8b 45 fc	 mov	 eax, DWORD PTR _explosion_info$[ebp]
  003b9	0f 57 c0	 xorps	 xmm0, xmm0
  003bc	f3 0f 11 40 18	 movss	 DWORD PTR [eax+24], xmm0

; 2089 : 	explosion_info->initial_velocity.y		= 0.2;

  003c1	8b 45 fc	 mov	 eax, DWORD PTR _explosion_info$[ebp]
  003c4	f3 0f 10 05 00
	00 00 00	 movss	 xmm0, DWORD PTR __real@3e4ccccd
  003cc	f3 0f 11 40 1c	 movss	 DWORD PTR [eax+28], xmm0

; 2090 : 	explosion_info->initial_velocity.z		= 0.0;

  003d1	8b 45 fc	 mov	 eax, DWORD PTR _explosion_info$[ebp]
  003d4	0f 57 c0	 xorps	 xmm0, xmm0
  003d7	f3 0f 11 40 20	 movss	 DWORD PTR [eax+32], xmm0

; 2091 : 
; 2092 : 	////////////////////////////////////////
; 2093 : 	//
; 2094 : 	// LARGE DUST EXPLOSION
; 2095 : 	//
; 2096 : 	////////////////////////////////////////
; 2097 : 
; 2098 : 	this_explosion = &(meta_explosion_database[ LARGE_DUST_META_EXPLOSION ]);

  003dc	b8 10 00 00 00	 mov	 eax, 16			; 00000010H
  003e1	6b c8 0b	 imul	 ecx, eax, 11
  003e4	81 c1 00 00 00
	00		 add	 ecx, OFFSET ?meta_explosion_database@@3PAUMETA_EXPLOSION_DATA@@A ; meta_explosion_database
  003ea	89 4d f8	 mov	 DWORD PTR _this_explosion$[ebp], ecx

; 2099 : 
; 2100 : 	this_explosion->number_of_components	=	5;

  003ed	8b 45 f8	 mov	 eax, DWORD PTR _this_explosion$[ebp]
  003f0	c7 00 05 00 00
	00		 mov	 DWORD PTR [eax], 5

; 2101 : 
; 2102 : 	this_explosion->damage_radius				=	0.0;

  003f6	8b 45 f8	 mov	 eax, DWORD PTR _this_explosion$[ebp]
  003f9	0f 57 c0	 xorps	 xmm0, xmm0
  003fc	f3 0f 11 40 04	 movss	 DWORD PTR [eax+4], xmm0

; 2103 : 
; 2104 : 	this_explosion->show_on_map				=	FALSE;

  00401	8b 45 f8	 mov	 eax, DWORD PTR _this_explosion$[ebp]
  00404	c7 40 08 00 00
	00 00		 mov	 DWORD PTR [eax+8], 0

; 2105 : 
; 2106 : 	this_explosion->component = (meta_explosion_component *) malloc_fast_mem( sizeof( meta_explosion_component ) * this_explosion->number_of_components );

  0040b	8b 45 f8	 mov	 eax, DWORD PTR _this_explosion$[ebp]
  0040e	6b 08 34	 imul	 ecx, DWORD PTR [eax], 52
  00411	51		 push	 ecx
  00412	e8 00 00 00 00	 call	 ?malloc_fast_memory@@YGPAXI@Z ; malloc_fast_memory
  00417	8b 55 f8	 mov	 edx, DWORD PTR _this_explosion$[ebp]
  0041a	89 42 0c	 mov	 DWORD PTR [edx+12], eax

; 2107 : 
; 2108 : 	//
; 2109 : 	// component 0
; 2110 : 	//
; 2111 : 
; 2112 : 	explosion_info = &(this_explosion->component[ 0 ]);

  0041d	b8 34 00 00 00	 mov	 eax, 52			; 00000034H
  00422	6b c8 00	 imul	 ecx, eax, 0
  00425	8b 55 f8	 mov	 edx, DWORD PTR _this_explosion$[ebp]
  00428	03 4a 0c	 add	 ecx, DWORD PTR [edx+12]
  0042b	89 4d fc	 mov	 DWORD PTR _explosion_info$[ebp], ecx

; 2113 : 
; 2114 : 	explosion_info->type 						=	EXPLOSION_SPRITES;

  0042e	8b 45 fc	 mov	 eax, DWORD PTR _explosion_info$[ebp]
  00431	c7 00 00 00 00
	00		 mov	 DWORD PTR [eax], 0

; 2115 : 
; 2116 : 	explosion_info->animated_texture 		=	TEXTURE_ANIMATION_INDEX_SMOKE;

  00437	8b 45 fc	 mov	 eax, DWORD PTR _explosion_info$[ebp]
  0043a	c7 40 04 63 00
	00 00		 mov	 DWORD PTR [eax+4], 99	; 00000063H

; 2117 : 
; 2118 : 	explosion_info->sprite_count 				=	4;

  00441	8b 45 fc	 mov	 eax, DWORD PTR _explosion_info$[ebp]
  00444	c7 40 08 04 00
	00 00		 mov	 DWORD PTR [eax+8], 4

; 2119 : 
; 2120 : 	explosion_info->red 							=	200;

  0044b	8b 45 fc	 mov	 eax, DWORD PTR _explosion_info$[ebp]
  0044e	c6 40 0c c8	 mov	 BYTE PTR [eax+12], 200	; 000000c8H

; 2121 : 	explosion_info->green 						= 	200;

  00452	8b 45 fc	 mov	 eax, DWORD PTR _explosion_info$[ebp]
  00455	c6 40 0d c8	 mov	 BYTE PTR [eax+13], 200	; 000000c8H

; 2122 : 	explosion_info->blue 						=	200;

  00459	8b 45 fc	 mov	 eax, DWORD PTR _explosion_info$[ebp]
  0045c	c6 40 0e c8	 mov	 BYTE PTR [eax+14], 200	; 000000c8H

; 2123 : 	explosion_info->alpha 						=	255;

  00460	8b 45 fc	 mov	 eax, DWORD PTR _explosion_info$[ebp]
  00463	c6 40 0f ff	 mov	 BYTE PTR [eax+15], 255	; 000000ffH

; 2124 : 
; 2125 : 	explosion_info->additive 					=	FALSE;

  00467	8b 45 fc	 mov	 eax, DWORD PTR _explosion_info$[ebp]
  0046a	8a 48 10	 mov	 cl, BYTE PTR [eax+16]
  0046d	80 e1 fe	 and	 cl, 254			; 000000feH
  00470	8b 55 fc	 mov	 edx, DWORD PTR _explosion_info$[ebp]
  00473	88 4a 10	 mov	 BYTE PTR [edx+16], cl

; 2126 : 
; 2127 : 	explosion_info->blast_hemisphere_only	=	TRUE;

  00476	8b 45 fc	 mov	 eax, DWORD PTR _explosion_info$[ebp]
  00479	8a 48 10	 mov	 cl, BYTE PTR [eax+16]
  0047c	80 c9 02	 or	 cl, 2
  0047f	8b 55 fc	 mov	 edx, DWORD PTR _explosion_info$[ebp]
  00482	88 4a 10	 mov	 BYTE PTR [edx+16], cl

; 2128 : 
; 2129 : 	explosion_info->delay_max 					=	0.0;

  00485	8b 45 fc	 mov	 eax, DWORD PTR _explosion_info$[ebp]
  00488	0f 57 c0	 xorps	 xmm0, xmm0
  0048b	f3 0f 11 40 14	 movss	 DWORD PTR [eax+20], xmm0

; 2130 : 
; 2131 : 	explosion_info->lifetime_min 				=	1.5;

  00490	8b 45 fc	 mov	 eax, DWORD PTR _explosion_info$[ebp]
  00493	f3 0f 10 05 00
	00 00 00	 movss	 xmm0, DWORD PTR __real@3fc00000
  0049b	f3 0f 11 40 18	 movss	 DWORD PTR [eax+24], xmm0

; 2132 : 	explosion_info->lifetime_max 				=	4.0;

  004a0	8b 45 fc	 mov	 eax, DWORD PTR _explosion_info$[ebp]
  004a3	f3 0f 10 05 00
	00 00 00	 movss	 xmm0, DWORD PTR __real@40800000
  004ab	f3 0f 11 40 1c	 movss	 DWORD PTR [eax+28], xmm0

; 2133 : 
; 2134 : 	explosion_info->scale_min 					=	25.0;

  004b0	8b 45 fc	 mov	 eax, DWORD PTR _explosion_info$[ebp]
  004b3	f3 0f 10 05 00
	00 00 00	 movss	 xmm0, DWORD PTR __real@41c80000
  004bb	f3 0f 11 40 20	 movss	 DWORD PTR [eax+32], xmm0

; 2135 : 	explosion_info->scale_max 					=	45.0;

  004c0	8b 45 fc	 mov	 eax, DWORD PTR _explosion_info$[ebp]
  004c3	f3 0f 10 05 00
	00 00 00	 movss	 xmm0, DWORD PTR __real@42340000
  004cb	f3 0f 11 40 24	 movss	 DWORD PTR [eax+36], xmm0

; 2136 : 
; 2137 : 	explosion_info->blast_radius		 		=	-1.0;

  004d0	8b 45 fc	 mov	 eax, DWORD PTR _explosion_info$[ebp]
  004d3	f3 0f 10 05 00
	00 00 00	 movss	 xmm0, DWORD PTR __real@bf800000
  004db	f3 0f 11 40 28	 movss	 DWORD PTR [eax+40], xmm0

; 2138 : 
; 2139 : 	explosion_info->animation_frequency		=	0.0;

  004e0	8b 45 fc	 mov	 eax, DWORD PTR _explosion_info$[ebp]
  004e3	0f 57 c0	 xorps	 xmm0, xmm0
  004e6	f3 0f 11 40 2c	 movss	 DWORD PTR [eax+44], xmm0

; 2140 : 
; 2141 : 	explosion_info->rotation_rate		=	0.0;

  004eb	8b 45 fc	 mov	 eax, DWORD PTR _explosion_info$[ebp]
  004ee	0f 57 c0	 xorps	 xmm0, xmm0
  004f1	f3 0f 11 40 30	 movss	 DWORD PTR [eax+48], xmm0

; 2142 : 
; 2143 : 	//
; 2144 : 	// component 1
; 2145 : 	//
; 2146 : 
; 2147 : 	explosion_info = &(this_explosion->component[ 1 ]);

  004f6	b8 34 00 00 00	 mov	 eax, 52			; 00000034H
  004fb	c1 e0 00	 shl	 eax, 0
  004fe	8b 4d f8	 mov	 ecx, DWORD PTR _this_explosion$[ebp]
  00501	03 41 0c	 add	 eax, DWORD PTR [ecx+12]
  00504	89 45 fc	 mov	 DWORD PTR _explosion_info$[ebp], eax

; 2148 : 
; 2149 : 	explosion_info->type 						=	EXPLOSION_SPRITES;

  00507	8b 45 fc	 mov	 eax, DWORD PTR _explosion_info$[ebp]
  0050a	c7 00 00 00 00
	00		 mov	 DWORD PTR [eax], 0

; 2150 : 
; 2151 : 	explosion_info->animated_texture 		=	TEXTURE_ANIMATION_INDEX_SMOKE;

  00510	8b 45 fc	 mov	 eax, DWORD PTR _explosion_info$[ebp]
  00513	c7 40 04 63 00
	00 00		 mov	 DWORD PTR [eax+4], 99	; 00000063H

; 2152 : 
; 2153 : 	explosion_info->sprite_count 				=	4;

  0051a	8b 45 fc	 mov	 eax, DWORD PTR _explosion_info$[ebp]
  0051d	c7 40 08 04 00
	00 00		 mov	 DWORD PTR [eax+8], 4

; 2154 : 
; 2155 : 	explosion_info->red 							=	140;

  00524	8b 45 fc	 mov	 eax, DWORD PTR _explosion_info$[ebp]
  00527	c6 40 0c 8c	 mov	 BYTE PTR [eax+12], 140	; 0000008cH

; 2156 : 	explosion_info->green 						= 	140;

  0052b	8b 45 fc	 mov	 eax, DWORD PTR _explosion_info$[ebp]
  0052e	c6 40 0d 8c	 mov	 BYTE PTR [eax+13], 140	; 0000008cH

; 2157 : 	explosion_info->blue 						=	140;

  00532	8b 45 fc	 mov	 eax, DWORD PTR _explosion_info$[ebp]
  00535	c6 40 0e 8c	 mov	 BYTE PTR [eax+14], 140	; 0000008cH

; 2158 : 	explosion_info->alpha 						=	255;

  00539	8b 45 fc	 mov	 eax, DWORD PTR _explosion_info$[ebp]
  0053c	c6 40 0f ff	 mov	 BYTE PTR [eax+15], 255	; 000000ffH

; 2159 : 
; 2160 : 	explosion_info->additive 					=	FALSE;

  00540	8b 45 fc	 mov	 eax, DWORD PTR _explosion_info$[ebp]
  00543	8a 48 10	 mov	 cl, BYTE PTR [eax+16]
  00546	80 e1 fe	 and	 cl, 254			; 000000feH
  00549	8b 55 fc	 mov	 edx, DWORD PTR _explosion_info$[ebp]
  0054c	88 4a 10	 mov	 BYTE PTR [edx+16], cl

; 2161 : 
; 2162 : 	explosion_info->blast_hemisphere_only	=	TRUE;

  0054f	8b 45 fc	 mov	 eax, DWORD PTR _explosion_info$[ebp]
  00552	8a 48 10	 mov	 cl, BYTE PTR [eax+16]
  00555	80 c9 02	 or	 cl, 2
  00558	8b 55 fc	 mov	 edx, DWORD PTR _explosion_info$[ebp]
  0055b	88 4a 10	 mov	 BYTE PTR [edx+16], cl

; 2163 : 
; 2164 : 	explosion_info->delay_max 					=	1.0;

  0055e	8b 45 fc	 mov	 eax, DWORD PTR _explosion_info$[ebp]
  00561	f3 0f 10 05 00
	00 00 00	 movss	 xmm0, DWORD PTR __real@3f800000
  00569	f3 0f 11 40 14	 movss	 DWORD PTR [eax+20], xmm0

; 2165 : 
; 2166 : 	explosion_info->lifetime_min 				=	1.0;

  0056e	8b 45 fc	 mov	 eax, DWORD PTR _explosion_info$[ebp]
  00571	f3 0f 10 05 00
	00 00 00	 movss	 xmm0, DWORD PTR __real@3f800000
  00579	f3 0f 11 40 18	 movss	 DWORD PTR [eax+24], xmm0

; 2167 : 	explosion_info->lifetime_max 				=	3.5;

  0057e	8b 45 fc	 mov	 eax, DWORD PTR _explosion_info$[ebp]
  00581	f3 0f 10 05 00
	00 00 00	 movss	 xmm0, DWORD PTR __real@40600000
  00589	f3 0f 11 40 1c	 movss	 DWORD PTR [eax+28], xmm0

; 2168 : 
; 2169 : 	explosion_info->scale_min 					=	20.0;

  0058e	8b 45 fc	 mov	 eax, DWORD PTR _explosion_info$[ebp]
  00591	f3 0f 10 05 00
	00 00 00	 movss	 xmm0, DWORD PTR __real@41a00000
  00599	f3 0f 11 40 20	 movss	 DWORD PTR [eax+32], xmm0

; 2170 : 	explosion_info->scale_max 					=	30.0;

  0059e	8b 45 fc	 mov	 eax, DWORD PTR _explosion_info$[ebp]
  005a1	f3 0f 10 05 00
	00 00 00	 movss	 xmm0, DWORD PTR __real@41f00000
  005a9	f3 0f 11 40 24	 movss	 DWORD PTR [eax+36], xmm0

; 2171 : 
; 2172 : 	explosion_info->blast_radius		 		=	-1.0;

  005ae	8b 45 fc	 mov	 eax, DWORD PTR _explosion_info$[ebp]
  005b1	f3 0f 10 05 00
	00 00 00	 movss	 xmm0, DWORD PTR __real@bf800000
  005b9	f3 0f 11 40 28	 movss	 DWORD PTR [eax+40], xmm0

; 2173 : 
; 2174 : 	explosion_info->animation_frequency		=	1.0;

  005be	8b 45 fc	 mov	 eax, DWORD PTR _explosion_info$[ebp]
  005c1	f3 0f 10 05 00
	00 00 00	 movss	 xmm0, DWORD PTR __real@3f800000
  005c9	f3 0f 11 40 2c	 movss	 DWORD PTR [eax+44], xmm0

; 2175 : 
; 2176 : 	explosion_info->rotation_rate		=	0.0;

  005ce	8b 45 fc	 mov	 eax, DWORD PTR _explosion_info$[ebp]
  005d1	0f 57 c0	 xorps	 xmm0, xmm0
  005d4	f3 0f 11 40 30	 movss	 DWORD PTR [eax+48], xmm0

; 2177 : 
; 2178 : 	//
; 2179 : 	// component 2
; 2180 : 	//
; 2181 : 
; 2182 : 	explosion_info = &(this_explosion->component[ 2 ]);

  005d9	b8 34 00 00 00	 mov	 eax, 52			; 00000034H
  005de	d1 e0		 shl	 eax, 1
  005e0	8b 4d f8	 mov	 ecx, DWORD PTR _this_explosion$[ebp]
  005e3	03 41 0c	 add	 eax, DWORD PTR [ecx+12]
  005e6	89 45 fc	 mov	 DWORD PTR _explosion_info$[ebp], eax

; 2183 : 
; 2184 : 	explosion_info->type 						= EXPLOSION_PARTICLES;

  005e9	8b 45 fc	 mov	 eax, DWORD PTR _explosion_info$[ebp]
  005ec	c7 00 02 00 00
	00		 mov	 DWORD PTR [eax], 2

; 2185 : 
; 2186 : 	explosion_info->particle_count 			= 4;

  005f2	8b 45 fc	 mov	 eax, DWORD PTR _explosion_info$[ebp]
  005f5	c7 40 04 04 00
	00 00		 mov	 DWORD PTR [eax+4], 4

; 2187 : 
; 2188 : 	explosion_info->trail_type 				= SMOKE_LIST_TYPE_DUST_TRAIL_2;

  005fc	8b 45 fc	 mov	 eax, DWORD PTR _explosion_info$[ebp]
  005ff	c7 40 08 0c 00
	00 00		 mov	 DWORD PTR [eax+8], 12	; 0000000cH

; 2189 : 
; 2190 : 	explosion_info->initial_speed 			= 20.0;

  00606	8b 45 fc	 mov	 eax, DWORD PTR _explosion_info$[ebp]
  00609	f3 0f 10 05 00
	00 00 00	 movss	 xmm0, DWORD PTR __real@41a00000
  00611	f3 0f 11 40 0c	 movss	 DWORD PTR [eax+12], xmm0

; 2191 : 
; 2192 : 	explosion_info->frequency 			= 0.1;

  00616	8b 45 fc	 mov	 eax, DWORD PTR _explosion_info$[ebp]
  00619	f3 0f 10 05 00
	00 00 00	 movss	 xmm0, DWORD PTR __real@3dcccccd
  00621	f3 0f 11 40 10	 movss	 DWORD PTR [eax+16], xmm0

; 2193 : 
; 2194 : 	explosion_info->smoke_lifetime 			= 1.5;

  00626	8b 45 fc	 mov	 eax, DWORD PTR _explosion_info$[ebp]
  00629	f3 0f 10 05 00
	00 00 00	 movss	 xmm0, DWORD PTR __real@3fc00000
  00631	f3 0f 11 40 14	 movss	 DWORD PTR [eax+20], xmm0

; 2195 : 
; 2196 : //	explosion_info->trail_scale 				= 15.0;
; 2197 : 
; 2198 : 	//
; 2199 : 	// component 3
; 2200 : 	//
; 2201 : 
; 2202 : 	explosion_info = &(this_explosion->component[ 3 ]);

  00636	b8 34 00 00 00	 mov	 eax, 52			; 00000034H
  0063b	6b c8 03	 imul	 ecx, eax, 3
  0063e	8b 55 f8	 mov	 edx, DWORD PTR _this_explosion$[ebp]
  00641	03 4a 0c	 add	 ecx, DWORD PTR [edx+12]
  00644	89 4d fc	 mov	 DWORD PTR _explosion_info$[ebp], ecx

; 2203 : 
; 2204 : 	explosion_info->type 						= EXPLOSION_SMOKE_TRAILS;

  00647	8b 45 fc	 mov	 eax, DWORD PTR _explosion_info$[ebp]
  0064a	c7 00 03 00 00
	00		 mov	 DWORD PTR [eax], 3

; 2205 : 
; 2206 : 	explosion_info->trail_type 				= SMOKE_LIST_TYPE_LARGE_DUST_CLOUD;

  00650	8b 45 fc	 mov	 eax, DWORD PTR _explosion_info$[ebp]
  00653	c7 40 08 07 00
	00 00		 mov	 DWORD PTR [eax+8], 7

; 2207 : 
; 2208 : 	explosion_info->trail_count 				=	1;

  0065a	8b 45 fc	 mov	 eax, DWORD PTR _explosion_info$[ebp]
  0065d	c7 40 04 01 00
	00 00		 mov	 DWORD PTR [eax+4], 1

; 2209 : 
; 2210 : 	explosion_info->generator_lifetime		= 20.0;

  00664	8b 45 fc	 mov	 eax, DWORD PTR _explosion_info$[ebp]
  00667	f3 0f 10 05 00
	00 00 00	 movss	 xmm0, DWORD PTR __real@41a00000
  0066f	f3 0f 11 40 0c	 movss	 DWORD PTR [eax+12], xmm0

; 2211 : 	explosion_info->frequency					= 0.5;

  00674	8b 45 fc	 mov	 eax, DWORD PTR _explosion_info$[ebp]
  00677	f3 0f 10 05 00
	00 00 00	 movss	 xmm0, DWORD PTR __real@3f000000
  0067f	f3 0f 11 40 10	 movss	 DWORD PTR [eax+16], xmm0

; 2212 : 	explosion_info->smoke_lifetime			= 40.0;

  00684	8b 45 fc	 mov	 eax, DWORD PTR _explosion_info$[ebp]
  00687	f3 0f 10 05 00
	00 00 00	 movss	 xmm0, DWORD PTR __real@42200000
  0068f	f3 0f 11 40 14	 movss	 DWORD PTR [eax+20], xmm0

; 2213 : 
; 2214 : 	explosion_info->initial_velocity.x		= 0.0;

  00694	8b 45 fc	 mov	 eax, DWORD PTR _explosion_info$[ebp]
  00697	0f 57 c0	 xorps	 xmm0, xmm0
  0069a	f3 0f 11 40 18	 movss	 DWORD PTR [eax+24], xmm0

; 2215 : 	explosion_info->initial_velocity.y		= 0.2;

  0069f	8b 45 fc	 mov	 eax, DWORD PTR _explosion_info$[ebp]
  006a2	f3 0f 10 05 00
	00 00 00	 movss	 xmm0, DWORD PTR __real@3e4ccccd
  006aa	f3 0f 11 40 1c	 movss	 DWORD PTR [eax+28], xmm0

; 2216 : 	explosion_info->initial_velocity.z		= 0.0;

  006af	8b 45 fc	 mov	 eax, DWORD PTR _explosion_info$[ebp]
  006b2	0f 57 c0	 xorps	 xmm0, xmm0
  006b5	f3 0f 11 40 20	 movss	 DWORD PTR [eax+32], xmm0

; 2217 : 
; 2218 : 	//
; 2219 : 	// component 4
; 2220 : 	//
; 2221 : 
; 2222 : 	explosion_info = &(this_explosion->component[ 4 ]);

  006ba	b8 34 00 00 00	 mov	 eax, 52			; 00000034H
  006bf	c1 e0 02	 shl	 eax, 2
  006c2	8b 4d f8	 mov	 ecx, DWORD PTR _this_explosion$[ebp]
  006c5	03 41 0c	 add	 eax, DWORD PTR [ecx+12]
  006c8	89 45 fc	 mov	 DWORD PTR _explosion_info$[ebp], eax

; 2223 : 
; 2224 : 	explosion_info->type 						= EXPLOSION_SOUND_EFFECT;

  006cb	8b 45 fc	 mov	 eax, DWORD PTR _explosion_info$[ebp]
  006ce	c7 00 04 00 00
	00		 mov	 DWORD PTR [eax], 4

; 2225 : 
; 2226 : 	explosion_info->sound_type 				= SOUND_SAMPLE_INDEX_RUBBLE;

  006d4	8b 45 fc	 mov	 eax, DWORD PTR _explosion_info$[ebp]
  006d7	c7 40 04 55 00
	00 00		 mov	 DWORD PTR [eax+4], 85	; 00000055H

; 2227 : 	explosion_info->sound_volume 				= 1.0;

  006de	8b 45 fc	 mov	 eax, DWORD PTR _explosion_info$[ebp]
  006e1	f3 0f 10 05 00
	00 00 00	 movss	 xmm0, DWORD PTR __real@3f800000
  006e9	f3 0f 11 40 08	 movss	 DWORD PTR [eax+8], xmm0

; 2228 : }

  006ee	5f		 pop	 edi
  006ef	5e		 pop	 esi
  006f0	5b		 pop	 ebx
  006f1	8b e5		 mov	 esp, ebp
  006f3	5d		 pop	 ebp
  006f4	c3		 ret	 0
?initialise_object_dust_explosion_database@@YGXXZ ENDP	; initialise_object_dust_explosion_database
_TEXT	ENDS
; Function compile flags: /Odtp /ZI
; File c:\users\nhv90\projects\eech\aphavoc\source\entity\special\effect\explosn\xp_dbase.c
;	COMDAT ?initialise_water_explosion_database@@YGXXZ
_TEXT	SEGMENT
_this_explosion$ = -8					; size = 4
_explosion_info$ = -4					; size = 4
?initialise_water_explosion_database@@YGXXZ PROC	; initialise_water_explosion_database, COMDAT

; 1697 : {

  00000	55		 push	 ebp
  00001	8b ec		 mov	 ebp, esp
  00003	83 ec 48	 sub	 esp, 72			; 00000048H
  00006	53		 push	 ebx
  00007	56		 push	 esi
  00008	57		 push	 edi

; 1698 : 
; 1699 : 	meta_explosion_component
; 1700 : 		*explosion_info;
; 1701 : 
; 1702 : 	meta_explosion_data
; 1703 : 		*this_explosion;
; 1704 : 
; 1705 : 	////////////////////////////////////////
; 1706 : 	//
; 1707 : 	// SMALL WATER EXPLOSION
; 1708 : 	//
; 1709 : 	////////////////////////////////////////
; 1710 : 
; 1711 : 	this_explosion = &(meta_explosion_database[ SMALL_WATER_META_EXPLOSION ]);

  00009	b8 10 00 00 00	 mov	 eax, 16			; 00000010H
  0000e	6b c8 12	 imul	 ecx, eax, 18
  00011	81 c1 00 00 00
	00		 add	 ecx, OFFSET ?meta_explosion_database@@3PAUMETA_EXPLOSION_DATA@@A ; meta_explosion_database
  00017	89 4d f8	 mov	 DWORD PTR _this_explosion$[ebp], ecx

; 1712 : 
; 1713 : 	this_explosion->number_of_components	=	2;

  0001a	8b 45 f8	 mov	 eax, DWORD PTR _this_explosion$[ebp]
  0001d	c7 00 02 00 00
	00		 mov	 DWORD PTR [eax], 2

; 1714 : 
; 1715 : 	this_explosion->damage_radius				=	0.0;

  00023	8b 45 f8	 mov	 eax, DWORD PTR _this_explosion$[ebp]
  00026	0f 57 c0	 xorps	 xmm0, xmm0
  00029	f3 0f 11 40 04	 movss	 DWORD PTR [eax+4], xmm0

; 1716 : 
; 1717 : 	this_explosion->show_on_map				=	FALSE;

  0002e	8b 45 f8	 mov	 eax, DWORD PTR _this_explosion$[ebp]
  00031	c7 40 08 00 00
	00 00		 mov	 DWORD PTR [eax+8], 0

; 1718 : 
; 1719 : 	this_explosion->component = (meta_explosion_component *) malloc_fast_mem( sizeof( meta_explosion_component ) * this_explosion->number_of_components );

  00038	8b 45 f8	 mov	 eax, DWORD PTR _this_explosion$[ebp]
  0003b	6b 08 34	 imul	 ecx, DWORD PTR [eax], 52
  0003e	51		 push	 ecx
  0003f	e8 00 00 00 00	 call	 ?malloc_fast_memory@@YGPAXI@Z ; malloc_fast_memory
  00044	8b 55 f8	 mov	 edx, DWORD PTR _this_explosion$[ebp]
  00047	89 42 0c	 mov	 DWORD PTR [edx+12], eax

; 1720 : 
; 1721 : 	//
; 1722 : 	// component 0
; 1723 : 	//
; 1724 : 
; 1725 : 	explosion_info = &(this_explosion->component[ 0 ]);

  0004a	b8 34 00 00 00	 mov	 eax, 52			; 00000034H
  0004f	6b c8 00	 imul	 ecx, eax, 0
  00052	8b 55 f8	 mov	 edx, DWORD PTR _this_explosion$[ebp]
  00055	03 4a 0c	 add	 ecx, DWORD PTR [edx+12]
  00058	89 4d fc	 mov	 DWORD PTR _explosion_info$[ebp], ecx

; 1726 : 
; 1727 : 	explosion_info->type 						= EXPLOSION_PARTICLES;

  0005b	8b 45 fc	 mov	 eax, DWORD PTR _explosion_info$[ebp]
  0005e	c7 00 02 00 00
	00		 mov	 DWORD PTR [eax], 2

; 1728 : 
; 1729 : 	explosion_info->particle_count 			= 3;

  00064	8b 45 fc	 mov	 eax, DWORD PTR _explosion_info$[ebp]
  00067	c7 40 04 03 00
	00 00		 mov	 DWORD PTR [eax+4], 3

; 1730 : 
; 1731 : 	explosion_info->trail_type 				= SMOKE_LIST_TYPE_MEDIUM_WATER_PARTICLE_TRAIL;

  0006e	8b 45 fc	 mov	 eax, DWORD PTR _explosion_info$[ebp]
  00071	c7 40 08 0a 00
	00 00		 mov	 DWORD PTR [eax+8], 10	; 0000000aH

; 1732 : 
; 1733 : 	explosion_info->initial_speed 			= 5.0;

  00078	8b 45 fc	 mov	 eax, DWORD PTR _explosion_info$[ebp]
  0007b	f3 0f 10 05 00
	00 00 00	 movss	 xmm0, DWORD PTR __real@40a00000
  00083	f3 0f 11 40 0c	 movss	 DWORD PTR [eax+12], xmm0

; 1734 : 
; 1735 : 	explosion_info->frequency 			= 0.1;

  00088	8b 45 fc	 mov	 eax, DWORD PTR _explosion_info$[ebp]
  0008b	f3 0f 10 05 00
	00 00 00	 movss	 xmm0, DWORD PTR __real@3dcccccd
  00093	f3 0f 11 40 10	 movss	 DWORD PTR [eax+16], xmm0

; 1736 : 
; 1737 : 	explosion_info->smoke_lifetime 			= 1.5;

  00098	8b 45 fc	 mov	 eax, DWORD PTR _explosion_info$[ebp]
  0009b	f3 0f 10 05 00
	00 00 00	 movss	 xmm0, DWORD PTR __real@3fc00000
  000a3	f3 0f 11 40 14	 movss	 DWORD PTR [eax+20], xmm0

; 1738 : 
; 1739 : 	//
; 1740 : 	// component 1
; 1741 : 	//
; 1742 : 
; 1743 : 	explosion_info = &(this_explosion->component[ 1 ]);

  000a8	b8 34 00 00 00	 mov	 eax, 52			; 00000034H
  000ad	c1 e0 00	 shl	 eax, 0
  000b0	8b 4d f8	 mov	 ecx, DWORD PTR _this_explosion$[ebp]
  000b3	03 41 0c	 add	 eax, DWORD PTR [ecx+12]
  000b6	89 45 fc	 mov	 DWORD PTR _explosion_info$[ebp], eax

; 1744 : 
; 1745 : 	explosion_info->type 						= EXPLOSION_SOUND_EFFECT;

  000b9	8b 45 fc	 mov	 eax, DWORD PTR _explosion_info$[ebp]
  000bc	c7 00 04 00 00
	00		 mov	 DWORD PTR [eax], 4

; 1746 : 
; 1747 : 	explosion_info->sound_type 				= SOUND_SAMPLE_INDEX_SMALL_WATER_SPLASH;

  000c2	8b 45 fc	 mov	 eax, DWORD PTR _explosion_info$[ebp]
  000c5	c7 40 04 53 00
	00 00		 mov	 DWORD PTR [eax+4], 83	; 00000053H

; 1748 : 	explosion_info->sound_volume 				= 0.75;

  000cc	8b 45 fc	 mov	 eax, DWORD PTR _explosion_info$[ebp]
  000cf	f3 0f 10 05 00
	00 00 00	 movss	 xmm0, DWORD PTR __real@3f400000
  000d7	f3 0f 11 40 08	 movss	 DWORD PTR [eax+8], xmm0

; 1749 : 
; 1750 : 	////////////////////////////////////////
; 1751 : 	//
; 1752 : 	// MEDIUM WATER EXPLOSION
; 1753 : 	//
; 1754 : 	////////////////////////////////////////
; 1755 : 
; 1756 : 	this_explosion = &(meta_explosion_database[ MEDIUM_WATER_META_EXPLOSION ]);

  000dc	b8 10 00 00 00	 mov	 eax, 16			; 00000010H
  000e1	6b c8 13	 imul	 ecx, eax, 19
  000e4	81 c1 00 00 00
	00		 add	 ecx, OFFSET ?meta_explosion_database@@3PAUMETA_EXPLOSION_DATA@@A ; meta_explosion_database
  000ea	89 4d f8	 mov	 DWORD PTR _this_explosion$[ebp], ecx

; 1757 : 
; 1758 : 	this_explosion->number_of_components	=	3;

  000ed	8b 45 f8	 mov	 eax, DWORD PTR _this_explosion$[ebp]
  000f0	c7 00 03 00 00
	00		 mov	 DWORD PTR [eax], 3

; 1759 : 
; 1760 : 	this_explosion->damage_radius				=	0.0;

  000f6	8b 45 f8	 mov	 eax, DWORD PTR _this_explosion$[ebp]
  000f9	0f 57 c0	 xorps	 xmm0, xmm0
  000fc	f3 0f 11 40 04	 movss	 DWORD PTR [eax+4], xmm0

; 1761 : 
; 1762 : 	this_explosion->show_on_map				=	FALSE;

  00101	8b 45 f8	 mov	 eax, DWORD PTR _this_explosion$[ebp]
  00104	c7 40 08 00 00
	00 00		 mov	 DWORD PTR [eax+8], 0

; 1763 : 
; 1764 : 	this_explosion->component = (meta_explosion_component *) malloc_fast_mem( sizeof( meta_explosion_component ) * this_explosion->number_of_components );

  0010b	8b 45 f8	 mov	 eax, DWORD PTR _this_explosion$[ebp]
  0010e	6b 08 34	 imul	 ecx, DWORD PTR [eax], 52
  00111	51		 push	 ecx
  00112	e8 00 00 00 00	 call	 ?malloc_fast_memory@@YGPAXI@Z ; malloc_fast_memory
  00117	8b 55 f8	 mov	 edx, DWORD PTR _this_explosion$[ebp]
  0011a	89 42 0c	 mov	 DWORD PTR [edx+12], eax

; 1765 : 
; 1766 : 	//
; 1767 : 	// component 0
; 1768 : 	//
; 1769 : 
; 1770 : 	explosion_info = &(this_explosion->component[ 0 ]);

  0011d	b8 34 00 00 00	 mov	 eax, 52			; 00000034H
  00122	6b c8 00	 imul	 ecx, eax, 0
  00125	8b 55 f8	 mov	 edx, DWORD PTR _this_explosion$[ebp]
  00128	03 4a 0c	 add	 ecx, DWORD PTR [edx+12]
  0012b	89 4d fc	 mov	 DWORD PTR _explosion_info$[ebp], ecx

; 1771 : 
; 1772 : 	explosion_info->type 						=	EXPLOSION_SPRITES;

  0012e	8b 45 fc	 mov	 eax, DWORD PTR _explosion_info$[ebp]
  00131	c7 00 00 00 00
	00		 mov	 DWORD PTR [eax], 0

; 1773 : 
; 1774 : 	explosion_info->animated_texture 		=	TEXTURE_ANIMATION_INDEX_SMOKE;

  00137	8b 45 fc	 mov	 eax, DWORD PTR _explosion_info$[ebp]
  0013a	c7 40 04 63 00
	00 00		 mov	 DWORD PTR [eax+4], 99	; 00000063H

; 1775 : 
; 1776 : 	explosion_info->sprite_count 				=	2;

  00141	8b 45 fc	 mov	 eax, DWORD PTR _explosion_info$[ebp]
  00144	c7 40 08 02 00
	00 00		 mov	 DWORD PTR [eax+8], 2

; 1777 : 
; 1778 : 	explosion_info->red 							=	255;

  0014b	8b 45 fc	 mov	 eax, DWORD PTR _explosion_info$[ebp]
  0014e	c6 40 0c ff	 mov	 BYTE PTR [eax+12], 255	; 000000ffH

; 1779 : 	explosion_info->green 						= 	255;

  00152	8b 45 fc	 mov	 eax, DWORD PTR _explosion_info$[ebp]
  00155	c6 40 0d ff	 mov	 BYTE PTR [eax+13], 255	; 000000ffH

; 1780 : 	explosion_info->blue 						=	255;

  00159	8b 45 fc	 mov	 eax, DWORD PTR _explosion_info$[ebp]
  0015c	c6 40 0e ff	 mov	 BYTE PTR [eax+14], 255	; 000000ffH

; 1781 : 	explosion_info->alpha 						=	140;

  00160	8b 45 fc	 mov	 eax, DWORD PTR _explosion_info$[ebp]
  00163	c6 40 0f 8c	 mov	 BYTE PTR [eax+15], 140	; 0000008cH

; 1782 : 
; 1783 : 	explosion_info->additive 					=	FALSE;

  00167	8b 45 fc	 mov	 eax, DWORD PTR _explosion_info$[ebp]
  0016a	8a 48 10	 mov	 cl, BYTE PTR [eax+16]
  0016d	80 e1 fe	 and	 cl, 254			; 000000feH
  00170	8b 55 fc	 mov	 edx, DWORD PTR _explosion_info$[ebp]
  00173	88 4a 10	 mov	 BYTE PTR [edx+16], cl

; 1784 : 
; 1785 : 	explosion_info->blast_hemisphere_only	=	TRUE;

  00176	8b 45 fc	 mov	 eax, DWORD PTR _explosion_info$[ebp]
  00179	8a 48 10	 mov	 cl, BYTE PTR [eax+16]
  0017c	80 c9 02	 or	 cl, 2
  0017f	8b 55 fc	 mov	 edx, DWORD PTR _explosion_info$[ebp]
  00182	88 4a 10	 mov	 BYTE PTR [edx+16], cl

; 1786 : 
; 1787 : 	explosion_info->delay_max 					=	0.25;

  00185	8b 45 fc	 mov	 eax, DWORD PTR _explosion_info$[ebp]
  00188	f3 0f 10 05 00
	00 00 00	 movss	 xmm0, DWORD PTR __real@3e800000
  00190	f3 0f 11 40 14	 movss	 DWORD PTR [eax+20], xmm0

; 1788 : 
; 1789 : 	explosion_info->lifetime_min 				=	0.75;

  00195	8b 45 fc	 mov	 eax, DWORD PTR _explosion_info$[ebp]
  00198	f3 0f 10 05 00
	00 00 00	 movss	 xmm0, DWORD PTR __real@3f400000
  001a0	f3 0f 11 40 18	 movss	 DWORD PTR [eax+24], xmm0

; 1790 : 	explosion_info->lifetime_max 				=	1.5;

  001a5	8b 45 fc	 mov	 eax, DWORD PTR _explosion_info$[ebp]
  001a8	f3 0f 10 05 00
	00 00 00	 movss	 xmm0, DWORD PTR __real@3fc00000
  001b0	f3 0f 11 40 1c	 movss	 DWORD PTR [eax+28], xmm0

; 1791 : 
; 1792 : 	explosion_info->scale_min 					=	4.0;

  001b5	8b 45 fc	 mov	 eax, DWORD PTR _explosion_info$[ebp]
  001b8	f3 0f 10 05 00
	00 00 00	 movss	 xmm0, DWORD PTR __real@40800000
  001c0	f3 0f 11 40 20	 movss	 DWORD PTR [eax+32], xmm0

; 1793 : 	explosion_info->scale_max 					=	6.0;

  001c5	8b 45 fc	 mov	 eax, DWORD PTR _explosion_info$[ebp]
  001c8	f3 0f 10 05 00
	00 00 00	 movss	 xmm0, DWORD PTR __real@40c00000
  001d0	f3 0f 11 40 24	 movss	 DWORD PTR [eax+36], xmm0

; 1794 : 
; 1795 : 	explosion_info->blast_radius		 		=	5.0;

  001d5	8b 45 fc	 mov	 eax, DWORD PTR _explosion_info$[ebp]
  001d8	f3 0f 10 05 00
	00 00 00	 movss	 xmm0, DWORD PTR __real@40a00000
  001e0	f3 0f 11 40 28	 movss	 DWORD PTR [eax+40], xmm0

; 1796 : 
; 1797 : 	explosion_info->animation_frequency		=	2.0;

  001e5	8b 45 fc	 mov	 eax, DWORD PTR _explosion_info$[ebp]
  001e8	f3 0f 10 05 00
	00 00 00	 movss	 xmm0, DWORD PTR __real@40000000
  001f0	f3 0f 11 40 2c	 movss	 DWORD PTR [eax+44], xmm0

; 1798 : 
; 1799 : 	explosion_info->rotation_rate		=	0.0;

  001f5	8b 45 fc	 mov	 eax, DWORD PTR _explosion_info$[ebp]
  001f8	0f 57 c0	 xorps	 xmm0, xmm0
  001fb	f3 0f 11 40 30	 movss	 DWORD PTR [eax+48], xmm0

; 1800 : 
; 1801 : 	//
; 1802 : 	// component 1
; 1803 : 	//
; 1804 : 
; 1805 : 	explosion_info = &(this_explosion->component[ 1 ]);

  00200	b8 34 00 00 00	 mov	 eax, 52			; 00000034H
  00205	c1 e0 00	 shl	 eax, 0
  00208	8b 4d f8	 mov	 ecx, DWORD PTR _this_explosion$[ebp]
  0020b	03 41 0c	 add	 eax, DWORD PTR [ecx+12]
  0020e	89 45 fc	 mov	 DWORD PTR _explosion_info$[ebp], eax

; 1806 : 
; 1807 : 	explosion_info->type 						= EXPLOSION_PARTICLES;

  00211	8b 45 fc	 mov	 eax, DWORD PTR _explosion_info$[ebp]
  00214	c7 00 02 00 00
	00		 mov	 DWORD PTR [eax], 2

; 1808 : 
; 1809 : 	explosion_info->particle_count 			= 4;

  0021a	8b 45 fc	 mov	 eax, DWORD PTR _explosion_info$[ebp]
  0021d	c7 40 04 04 00
	00 00		 mov	 DWORD PTR [eax+4], 4

; 1810 : 
; 1811 : 	explosion_info->trail_type 				= SMOKE_LIST_TYPE_MEDIUM_WATER_PARTICLE_TRAIL;

  00224	8b 45 fc	 mov	 eax, DWORD PTR _explosion_info$[ebp]
  00227	c7 40 08 0a 00
	00 00		 mov	 DWORD PTR [eax+8], 10	; 0000000aH

; 1812 : 
; 1813 : 	explosion_info->initial_speed 			= 15.0;

  0022e	8b 45 fc	 mov	 eax, DWORD PTR _explosion_info$[ebp]
  00231	f3 0f 10 05 00
	00 00 00	 movss	 xmm0, DWORD PTR __real@41700000
  00239	f3 0f 11 40 0c	 movss	 DWORD PTR [eax+12], xmm0

; 1814 : 
; 1815 : 	explosion_info->frequency 			= 0.1;

  0023e	8b 45 fc	 mov	 eax, DWORD PTR _explosion_info$[ebp]
  00241	f3 0f 10 05 00
	00 00 00	 movss	 xmm0, DWORD PTR __real@3dcccccd
  00249	f3 0f 11 40 10	 movss	 DWORD PTR [eax+16], xmm0

; 1816 : 
; 1817 : 	explosion_info->smoke_lifetime 			= 1.5;

  0024e	8b 45 fc	 mov	 eax, DWORD PTR _explosion_info$[ebp]
  00251	f3 0f 10 05 00
	00 00 00	 movss	 xmm0, DWORD PTR __real@3fc00000
  00259	f3 0f 11 40 14	 movss	 DWORD PTR [eax+20], xmm0

; 1818 : 
; 1819 : 	//
; 1820 : 	// component 2
; 1821 : 	//
; 1822 : 
; 1823 : 	explosion_info = &(this_explosion->component[ 2 ]);

  0025e	b8 34 00 00 00	 mov	 eax, 52			; 00000034H
  00263	d1 e0		 shl	 eax, 1
  00265	8b 4d f8	 mov	 ecx, DWORD PTR _this_explosion$[ebp]
  00268	03 41 0c	 add	 eax, DWORD PTR [ecx+12]
  0026b	89 45 fc	 mov	 DWORD PTR _explosion_info$[ebp], eax

; 1824 : 
; 1825 : 	explosion_info->type 						= EXPLOSION_SOUND_EFFECT;

  0026e	8b 45 fc	 mov	 eax, DWORD PTR _explosion_info$[ebp]
  00271	c7 00 04 00 00
	00		 mov	 DWORD PTR [eax], 4

; 1826 : 
; 1827 : 	explosion_info->sound_type 				= SOUND_SAMPLE_INDEX_LARGE_WATER_SPLASH;

  00277	8b 45 fc	 mov	 eax, DWORD PTR _explosion_info$[ebp]
  0027a	c7 40 04 54 00
	00 00		 mov	 DWORD PTR [eax+4], 84	; 00000054H

; 1828 : 	explosion_info->sound_volume 				= 0.7;

  00281	8b 45 fc	 mov	 eax, DWORD PTR _explosion_info$[ebp]
  00284	f3 0f 10 05 00
	00 00 00	 movss	 xmm0, DWORD PTR __real@3f333333
  0028c	f3 0f 11 40 08	 movss	 DWORD PTR [eax+8], xmm0

; 1829 : 
; 1830 : 	////////////////////////////////////////
; 1831 : 	//
; 1832 : 	// LARGE WATER EXPLOSION
; 1833 : 	//
; 1834 : 	////////////////////////////////////////
; 1835 : 
; 1836 : 	this_explosion = &(meta_explosion_database[ LARGE_WATER_META_EXPLOSION ]);

  00291	b8 10 00 00 00	 mov	 eax, 16			; 00000010H
  00296	6b c8 14	 imul	 ecx, eax, 20
  00299	81 c1 00 00 00
	00		 add	 ecx, OFFSET ?meta_explosion_database@@3PAUMETA_EXPLOSION_DATA@@A ; meta_explosion_database
  0029f	89 4d f8	 mov	 DWORD PTR _this_explosion$[ebp], ecx

; 1837 : 
; 1838 : 	this_explosion->number_of_components	=	3;

  002a2	8b 45 f8	 mov	 eax, DWORD PTR _this_explosion$[ebp]
  002a5	c7 00 03 00 00
	00		 mov	 DWORD PTR [eax], 3

; 1839 : 
; 1840 : 	this_explosion->damage_radius				=	0.0;

  002ab	8b 45 f8	 mov	 eax, DWORD PTR _this_explosion$[ebp]
  002ae	0f 57 c0	 xorps	 xmm0, xmm0
  002b1	f3 0f 11 40 04	 movss	 DWORD PTR [eax+4], xmm0

; 1841 : 
; 1842 : 	this_explosion->show_on_map				=	FALSE;

  002b6	8b 45 f8	 mov	 eax, DWORD PTR _this_explosion$[ebp]
  002b9	c7 40 08 00 00
	00 00		 mov	 DWORD PTR [eax+8], 0

; 1843 : 
; 1844 : 	this_explosion->component = (meta_explosion_component *) malloc_fast_mem( sizeof( meta_explosion_component ) * this_explosion->number_of_components );

  002c0	8b 45 f8	 mov	 eax, DWORD PTR _this_explosion$[ebp]
  002c3	6b 08 34	 imul	 ecx, DWORD PTR [eax], 52
  002c6	51		 push	 ecx
  002c7	e8 00 00 00 00	 call	 ?malloc_fast_memory@@YGPAXI@Z ; malloc_fast_memory
  002cc	8b 55 f8	 mov	 edx, DWORD PTR _this_explosion$[ebp]
  002cf	89 42 0c	 mov	 DWORD PTR [edx+12], eax

; 1845 : 
; 1846 : 	//
; 1847 : 	// component 0
; 1848 : 	//
; 1849 : 
; 1850 : 	explosion_info = &(this_explosion->component[ 0 ]);

  002d2	b8 34 00 00 00	 mov	 eax, 52			; 00000034H
  002d7	6b c8 00	 imul	 ecx, eax, 0
  002da	8b 55 f8	 mov	 edx, DWORD PTR _this_explosion$[ebp]
  002dd	03 4a 0c	 add	 ecx, DWORD PTR [edx+12]
  002e0	89 4d fc	 mov	 DWORD PTR _explosion_info$[ebp], ecx

; 1851 : 
; 1852 : 	explosion_info->type 						=	EXPLOSION_SPRITES;

  002e3	8b 45 fc	 mov	 eax, DWORD PTR _explosion_info$[ebp]
  002e6	c7 00 00 00 00
	00		 mov	 DWORD PTR [eax], 0

; 1853 : 
; 1854 : 	explosion_info->animated_texture 		=	TEXTURE_ANIMATION_INDEX_SMOKE;

  002ec	8b 45 fc	 mov	 eax, DWORD PTR _explosion_info$[ebp]
  002ef	c7 40 04 63 00
	00 00		 mov	 DWORD PTR [eax+4], 99	; 00000063H

; 1855 : 
; 1856 : 	explosion_info->sprite_count 				=	5;

  002f6	8b 45 fc	 mov	 eax, DWORD PTR _explosion_info$[ebp]
  002f9	c7 40 08 05 00
	00 00		 mov	 DWORD PTR [eax+8], 5

; 1857 : 
; 1858 : 	explosion_info->red 							=	255;

  00300	8b 45 fc	 mov	 eax, DWORD PTR _explosion_info$[ebp]
  00303	c6 40 0c ff	 mov	 BYTE PTR [eax+12], 255	; 000000ffH

; 1859 : 	explosion_info->green 						= 	255;

  00307	8b 45 fc	 mov	 eax, DWORD PTR _explosion_info$[ebp]
  0030a	c6 40 0d ff	 mov	 BYTE PTR [eax+13], 255	; 000000ffH

; 1860 : 	explosion_info->blue 						=	255;

  0030e	8b 45 fc	 mov	 eax, DWORD PTR _explosion_info$[ebp]
  00311	c6 40 0e ff	 mov	 BYTE PTR [eax+14], 255	; 000000ffH

; 1861 : 	explosion_info->alpha 						=	140;

  00315	8b 45 fc	 mov	 eax, DWORD PTR _explosion_info$[ebp]
  00318	c6 40 0f 8c	 mov	 BYTE PTR [eax+15], 140	; 0000008cH

; 1862 : 
; 1863 : 	explosion_info->additive 					=	FALSE;

  0031c	8b 45 fc	 mov	 eax, DWORD PTR _explosion_info$[ebp]
  0031f	8a 48 10	 mov	 cl, BYTE PTR [eax+16]
  00322	80 e1 fe	 and	 cl, 254			; 000000feH
  00325	8b 55 fc	 mov	 edx, DWORD PTR _explosion_info$[ebp]
  00328	88 4a 10	 mov	 BYTE PTR [edx+16], cl

; 1864 : 
; 1865 : 	explosion_info->blast_hemisphere_only	=	TRUE;

  0032b	8b 45 fc	 mov	 eax, DWORD PTR _explosion_info$[ebp]
  0032e	8a 48 10	 mov	 cl, BYTE PTR [eax+16]
  00331	80 c9 02	 or	 cl, 2
  00334	8b 55 fc	 mov	 edx, DWORD PTR _explosion_info$[ebp]
  00337	88 4a 10	 mov	 BYTE PTR [edx+16], cl

; 1866 : 
; 1867 : 	explosion_info->delay_max 					=	0.25;

  0033a	8b 45 fc	 mov	 eax, DWORD PTR _explosion_info$[ebp]
  0033d	f3 0f 10 05 00
	00 00 00	 movss	 xmm0, DWORD PTR __real@3e800000
  00345	f3 0f 11 40 14	 movss	 DWORD PTR [eax+20], xmm0

; 1868 : 
; 1869 : 	explosion_info->lifetime_min 				=	1.0;

  0034a	8b 45 fc	 mov	 eax, DWORD PTR _explosion_info$[ebp]
  0034d	f3 0f 10 05 00
	00 00 00	 movss	 xmm0, DWORD PTR __real@3f800000
  00355	f3 0f 11 40 18	 movss	 DWORD PTR [eax+24], xmm0

; 1870 : 	explosion_info->lifetime_max 				=	2.5;

  0035a	8b 45 fc	 mov	 eax, DWORD PTR _explosion_info$[ebp]
  0035d	f3 0f 10 05 00
	00 00 00	 movss	 xmm0, DWORD PTR __real@40200000
  00365	f3 0f 11 40 1c	 movss	 DWORD PTR [eax+28], xmm0

; 1871 : 
; 1872 : 	explosion_info->scale_min 					=	6.0;

  0036a	8b 45 fc	 mov	 eax, DWORD PTR _explosion_info$[ebp]
  0036d	f3 0f 10 05 00
	00 00 00	 movss	 xmm0, DWORD PTR __real@40c00000
  00375	f3 0f 11 40 20	 movss	 DWORD PTR [eax+32], xmm0

; 1873 : 	explosion_info->scale_max 					=	8.0;

  0037a	8b 45 fc	 mov	 eax, DWORD PTR _explosion_info$[ebp]
  0037d	f3 0f 10 05 00
	00 00 00	 movss	 xmm0, DWORD PTR __real@41000000
  00385	f3 0f 11 40 24	 movss	 DWORD PTR [eax+36], xmm0

; 1874 : 
; 1875 : 	explosion_info->blast_radius		 		=	6.0;

  0038a	8b 45 fc	 mov	 eax, DWORD PTR _explosion_info$[ebp]
  0038d	f3 0f 10 05 00
	00 00 00	 movss	 xmm0, DWORD PTR __real@40c00000
  00395	f3 0f 11 40 28	 movss	 DWORD PTR [eax+40], xmm0

; 1876 : 
; 1877 : 	explosion_info->animation_frequency		=	2.0;

  0039a	8b 45 fc	 mov	 eax, DWORD PTR _explosion_info$[ebp]
  0039d	f3 0f 10 05 00
	00 00 00	 movss	 xmm0, DWORD PTR __real@40000000
  003a5	f3 0f 11 40 2c	 movss	 DWORD PTR [eax+44], xmm0

; 1878 : 
; 1879 : 	explosion_info->rotation_rate		=	0.0;

  003aa	8b 45 fc	 mov	 eax, DWORD PTR _explosion_info$[ebp]
  003ad	0f 57 c0	 xorps	 xmm0, xmm0
  003b0	f3 0f 11 40 30	 movss	 DWORD PTR [eax+48], xmm0

; 1880 : 
; 1881 : 	//
; 1882 : 	// component 1
; 1883 : 	//
; 1884 : 
; 1885 : 	explosion_info = &(this_explosion->component[ 1 ]);

  003b5	b8 34 00 00 00	 mov	 eax, 52			; 00000034H
  003ba	c1 e0 00	 shl	 eax, 0
  003bd	8b 4d f8	 mov	 ecx, DWORD PTR _this_explosion$[ebp]
  003c0	03 41 0c	 add	 eax, DWORD PTR [ecx+12]
  003c3	89 45 fc	 mov	 DWORD PTR _explosion_info$[ebp], eax

; 1886 : 
; 1887 : 	explosion_info->type 						= EXPLOSION_PARTICLES;

  003c6	8b 45 fc	 mov	 eax, DWORD PTR _explosion_info$[ebp]
  003c9	c7 00 02 00 00
	00		 mov	 DWORD PTR [eax], 2

; 1888 : 
; 1889 : 	explosion_info->particle_count 			= 6;

  003cf	8b 45 fc	 mov	 eax, DWORD PTR _explosion_info$[ebp]
  003d2	c7 40 04 06 00
	00 00		 mov	 DWORD PTR [eax+4], 6

; 1890 : 
; 1891 : 	explosion_info->trail_type 				= SMOKE_LIST_TYPE_MEDIUM_WATER_PARTICLE_TRAIL;

  003d9	8b 45 fc	 mov	 eax, DWORD PTR _explosion_info$[ebp]
  003dc	c7 40 08 0a 00
	00 00		 mov	 DWORD PTR [eax+8], 10	; 0000000aH

; 1892 : 
; 1893 : 	explosion_info->initial_speed 			= 25.0;

  003e3	8b 45 fc	 mov	 eax, DWORD PTR _explosion_info$[ebp]
  003e6	f3 0f 10 05 00
	00 00 00	 movss	 xmm0, DWORD PTR __real@41c80000
  003ee	f3 0f 11 40 0c	 movss	 DWORD PTR [eax+12], xmm0

; 1894 : 
; 1895 : 	explosion_info->frequency 			= 0.1;

  003f3	8b 45 fc	 mov	 eax, DWORD PTR _explosion_info$[ebp]
  003f6	f3 0f 10 05 00
	00 00 00	 movss	 xmm0, DWORD PTR __real@3dcccccd
  003fe	f3 0f 11 40 10	 movss	 DWORD PTR [eax+16], xmm0

; 1896 : 
; 1897 : 	explosion_info->smoke_lifetime 			= 1.5;

  00403	8b 45 fc	 mov	 eax, DWORD PTR _explosion_info$[ebp]
  00406	f3 0f 10 05 00
	00 00 00	 movss	 xmm0, DWORD PTR __real@3fc00000
  0040e	f3 0f 11 40 14	 movss	 DWORD PTR [eax+20], xmm0

; 1898 : 
; 1899 : 	//
; 1900 : 	// component 2
; 1901 : 	//
; 1902 : 
; 1903 : 	explosion_info = &(this_explosion->component[ 2 ]);

  00413	b8 34 00 00 00	 mov	 eax, 52			; 00000034H
  00418	d1 e0		 shl	 eax, 1
  0041a	8b 4d f8	 mov	 ecx, DWORD PTR _this_explosion$[ebp]
  0041d	03 41 0c	 add	 eax, DWORD PTR [ecx+12]
  00420	89 45 fc	 mov	 DWORD PTR _explosion_info$[ebp], eax

; 1904 : 
; 1905 : 	explosion_info->type 						= EXPLOSION_SOUND_EFFECT;

  00423	8b 45 fc	 mov	 eax, DWORD PTR _explosion_info$[ebp]
  00426	c7 00 04 00 00
	00		 mov	 DWORD PTR [eax], 4

; 1906 : 
; 1907 : 	explosion_info->sound_type 				= SOUND_SAMPLE_INDEX_LARGE_WATER_SPLASH;

  0042c	8b 45 fc	 mov	 eax, DWORD PTR _explosion_info$[ebp]
  0042f	c7 40 04 54 00
	00 00		 mov	 DWORD PTR [eax+4], 84	; 00000054H

; 1908 : 	explosion_info->sound_volume 				= 1.0;

  00436	8b 45 fc	 mov	 eax, DWORD PTR _explosion_info$[ebp]
  00439	f3 0f 10 05 00
	00 00 00	 movss	 xmm0, DWORD PTR __real@3f800000
  00441	f3 0f 11 40 08	 movss	 DWORD PTR [eax+8], xmm0

; 1909 : }

  00446	5f		 pop	 edi
  00447	5e		 pop	 esi
  00448	5b		 pop	 ebx
  00449	8b e5		 mov	 esp, ebp
  0044b	5d		 pop	 ebp
  0044c	c3		 ret	 0
?initialise_water_explosion_database@@YGXXZ ENDP	; initialise_water_explosion_database
_TEXT	ENDS
; Function compile flags: /Odtp /ZI
; File c:\users\nhv90\projects\eech\aphavoc\source\entity\special\effect\explosn\xp_dbase.c
;	COMDAT ?initialise_earth_explosion_database@@YGXXZ
_TEXT	SEGMENT
_this_explosion$ = -8					; size = 4
_explosion_info$ = -4					; size = 4
?initialise_earth_explosion_database@@YGXXZ PROC	; initialise_earth_explosion_database, COMDAT

; 1483 : {

  00000	55		 push	 ebp
  00001	8b ec		 mov	 ebp, esp
  00003	83 ec 48	 sub	 esp, 72			; 00000048H
  00006	53		 push	 ebx
  00007	56		 push	 esi
  00008	57		 push	 edi

; 1484 : 
; 1485 : 	meta_explosion_component
; 1486 : 		*explosion_info;
; 1487 : 
; 1488 : 	meta_explosion_data
; 1489 : 		*this_explosion;
; 1490 : 
; 1491 : 	////////////////////////////////////////
; 1492 : 	//
; 1493 : 	// SMALL EARTH EXPLOSION
; 1494 : 	//
; 1495 : 	////////////////////////////////////////
; 1496 : 
; 1497 : 	this_explosion = &(meta_explosion_database[ SMALL_EARTH_META_EXPLOSION ]);

  00009	b8 10 00 00 00	 mov	 eax, 16			; 00000010H
  0000e	6b c8 0f	 imul	 ecx, eax, 15
  00011	81 c1 00 00 00
	00		 add	 ecx, OFFSET ?meta_explosion_database@@3PAUMETA_EXPLOSION_DATA@@A ; meta_explosion_database
  00017	89 4d f8	 mov	 DWORD PTR _this_explosion$[ebp], ecx

; 1498 : 
; 1499 : 	this_explosion->number_of_components	=	2;

  0001a	8b 45 f8	 mov	 eax, DWORD PTR _this_explosion$[ebp]
  0001d	c7 00 02 00 00
	00		 mov	 DWORD PTR [eax], 2

; 1500 : 
; 1501 : 	this_explosion->damage_radius				=	0.0;

  00023	8b 45 f8	 mov	 eax, DWORD PTR _this_explosion$[ebp]
  00026	0f 57 c0	 xorps	 xmm0, xmm0
  00029	f3 0f 11 40 04	 movss	 DWORD PTR [eax+4], xmm0

; 1502 : 
; 1503 : 	this_explosion->show_on_map				=	FALSE;

  0002e	8b 45 f8	 mov	 eax, DWORD PTR _this_explosion$[ebp]
  00031	c7 40 08 00 00
	00 00		 mov	 DWORD PTR [eax+8], 0

; 1504 : 
; 1505 : 	this_explosion->component = (meta_explosion_component *) malloc_fast_mem( sizeof( meta_explosion_component ) * this_explosion->number_of_components );

  00038	8b 45 f8	 mov	 eax, DWORD PTR _this_explosion$[ebp]
  0003b	6b 08 34	 imul	 ecx, DWORD PTR [eax], 52
  0003e	51		 push	 ecx
  0003f	e8 00 00 00 00	 call	 ?malloc_fast_memory@@YGPAXI@Z ; malloc_fast_memory
  00044	8b 55 f8	 mov	 edx, DWORD PTR _this_explosion$[ebp]
  00047	89 42 0c	 mov	 DWORD PTR [edx+12], eax

; 1506 : 
; 1507 : 	//
; 1508 : 	// component 0
; 1509 : 	//
; 1510 : 
; 1511 : 	explosion_info = &(this_explosion->component[ 0 ]);

  0004a	b8 34 00 00 00	 mov	 eax, 52			; 00000034H
  0004f	6b c8 00	 imul	 ecx, eax, 0
  00052	8b 55 f8	 mov	 edx, DWORD PTR _this_explosion$[ebp]
  00055	03 4a 0c	 add	 ecx, DWORD PTR [edx+12]
  00058	89 4d fc	 mov	 DWORD PTR _explosion_info$[ebp], ecx

; 1512 : 
; 1513 : 	explosion_info->type 						=	EXPLOSION_SPRITES;

  0005b	8b 45 fc	 mov	 eax, DWORD PTR _explosion_info$[ebp]
  0005e	c7 00 00 00 00
	00		 mov	 DWORD PTR [eax], 0

; 1514 : 
; 1515 : 	explosion_info->animated_texture 		=	TEXTURE_ANIMATION_INDEX_SMOKE;

  00064	8b 45 fc	 mov	 eax, DWORD PTR _explosion_info$[ebp]
  00067	c7 40 04 63 00
	00 00		 mov	 DWORD PTR [eax+4], 99	; 00000063H

; 1516 : 
; 1517 : 	explosion_info->sprite_count 				=	2;

  0006e	8b 45 fc	 mov	 eax, DWORD PTR _explosion_info$[ebp]
  00071	c7 40 08 02 00
	00 00		 mov	 DWORD PTR [eax+8], 2

; 1518 : 
; 1519 : 	explosion_info->red 							=	80;

  00078	8b 45 fc	 mov	 eax, DWORD PTR _explosion_info$[ebp]
  0007b	c6 40 0c 50	 mov	 BYTE PTR [eax+12], 80	; 00000050H

; 1520 : 	explosion_info->green 						= 	60;

  0007f	8b 45 fc	 mov	 eax, DWORD PTR _explosion_info$[ebp]
  00082	c6 40 0d 3c	 mov	 BYTE PTR [eax+13], 60	; 0000003cH

; 1521 : 	explosion_info->blue 						=	20;

  00086	8b 45 fc	 mov	 eax, DWORD PTR _explosion_info$[ebp]
  00089	c6 40 0e 14	 mov	 BYTE PTR [eax+14], 20	; 00000014H

; 1522 : 	explosion_info->alpha 						=	140;

  0008d	8b 45 fc	 mov	 eax, DWORD PTR _explosion_info$[ebp]
  00090	c6 40 0f 8c	 mov	 BYTE PTR [eax+15], 140	; 0000008cH

; 1523 : 
; 1524 : 	explosion_info->additive 					=	FALSE;

  00094	8b 45 fc	 mov	 eax, DWORD PTR _explosion_info$[ebp]
  00097	8a 48 10	 mov	 cl, BYTE PTR [eax+16]
  0009a	80 e1 fe	 and	 cl, 254			; 000000feH
  0009d	8b 55 fc	 mov	 edx, DWORD PTR _explosion_info$[ebp]
  000a0	88 4a 10	 mov	 BYTE PTR [edx+16], cl

; 1525 : 
; 1526 : 	explosion_info->blast_hemisphere_only	=	TRUE;

  000a3	8b 45 fc	 mov	 eax, DWORD PTR _explosion_info$[ebp]
  000a6	8a 48 10	 mov	 cl, BYTE PTR [eax+16]
  000a9	80 c9 02	 or	 cl, 2
  000ac	8b 55 fc	 mov	 edx, DWORD PTR _explosion_info$[ebp]
  000af	88 4a 10	 mov	 BYTE PTR [edx+16], cl

; 1527 : 
; 1528 : 	explosion_info->delay_max 					=	0.25;

  000b2	8b 45 fc	 mov	 eax, DWORD PTR _explosion_info$[ebp]
  000b5	f3 0f 10 05 00
	00 00 00	 movss	 xmm0, DWORD PTR __real@3e800000
  000bd	f3 0f 11 40 14	 movss	 DWORD PTR [eax+20], xmm0

; 1529 : 
; 1530 : 	explosion_info->lifetime_min 				=	0.75;

  000c2	8b 45 fc	 mov	 eax, DWORD PTR _explosion_info$[ebp]
  000c5	f3 0f 10 05 00
	00 00 00	 movss	 xmm0, DWORD PTR __real@3f400000
  000cd	f3 0f 11 40 18	 movss	 DWORD PTR [eax+24], xmm0

; 1531 : 	explosion_info->lifetime_max 				=	1.5;

  000d2	8b 45 fc	 mov	 eax, DWORD PTR _explosion_info$[ebp]
  000d5	f3 0f 10 05 00
	00 00 00	 movss	 xmm0, DWORD PTR __real@3fc00000
  000dd	f3 0f 11 40 1c	 movss	 DWORD PTR [eax+28], xmm0

; 1532 : 
; 1533 : 	explosion_info->scale_min 					=	4.0;

  000e2	8b 45 fc	 mov	 eax, DWORD PTR _explosion_info$[ebp]
  000e5	f3 0f 10 05 00
	00 00 00	 movss	 xmm0, DWORD PTR __real@40800000
  000ed	f3 0f 11 40 20	 movss	 DWORD PTR [eax+32], xmm0

; 1534 : 	explosion_info->scale_max 					=	6.0;

  000f2	8b 45 fc	 mov	 eax, DWORD PTR _explosion_info$[ebp]
  000f5	f3 0f 10 05 00
	00 00 00	 movss	 xmm0, DWORD PTR __real@40c00000
  000fd	f3 0f 11 40 24	 movss	 DWORD PTR [eax+36], xmm0

; 1535 : 
; 1536 : 	explosion_info->blast_radius		 		=	5.0;

  00102	8b 45 fc	 mov	 eax, DWORD PTR _explosion_info$[ebp]
  00105	f3 0f 10 05 00
	00 00 00	 movss	 xmm0, DWORD PTR __real@40a00000
  0010d	f3 0f 11 40 28	 movss	 DWORD PTR [eax+40], xmm0

; 1537 : 
; 1538 : 	explosion_info->animation_frequency		=	2.0;

  00112	8b 45 fc	 mov	 eax, DWORD PTR _explosion_info$[ebp]
  00115	f3 0f 10 05 00
	00 00 00	 movss	 xmm0, DWORD PTR __real@40000000
  0011d	f3 0f 11 40 2c	 movss	 DWORD PTR [eax+44], xmm0

; 1539 : 
; 1540 : 	explosion_info->rotation_rate		=	0.0;

  00122	8b 45 fc	 mov	 eax, DWORD PTR _explosion_info$[ebp]
  00125	0f 57 c0	 xorps	 xmm0, xmm0
  00128	f3 0f 11 40 30	 movss	 DWORD PTR [eax+48], xmm0

; 1541 : 
; 1542 : 	//
; 1543 : 	// component 1
; 1544 : 	//
; 1545 : 
; 1546 : 	explosion_info = &(this_explosion->component[ 1 ]);

  0012d	b8 34 00 00 00	 mov	 eax, 52			; 00000034H
  00132	c1 e0 00	 shl	 eax, 0
  00135	8b 4d f8	 mov	 ecx, DWORD PTR _this_explosion$[ebp]
  00138	03 41 0c	 add	 eax, DWORD PTR [ecx+12]
  0013b	89 45 fc	 mov	 DWORD PTR _explosion_info$[ebp], eax

; 1547 : 
; 1548 : 	explosion_info->type 						= EXPLOSION_SOUND_EFFECT;

  0013e	8b 45 fc	 mov	 eax, DWORD PTR _explosion_info$[ebp]
  00141	c7 00 04 00 00
	00		 mov	 DWORD PTR [eax], 4

; 1549 : 
; 1550 : 	explosion_info->sound_type 				= SOUND_SAMPLE_INDEX_GROUND_STRAFE;

  00147	8b 45 fc	 mov	 eax, DWORD PTR _explosion_info$[ebp]
  0014a	c7 40 04 50 00
	00 00		 mov	 DWORD PTR [eax+4], 80	; 00000050H

; 1551 : 	explosion_info->sound_volume 				= 1.0;

  00151	8b 45 fc	 mov	 eax, DWORD PTR _explosion_info$[ebp]
  00154	f3 0f 10 05 00
	00 00 00	 movss	 xmm0, DWORD PTR __real@3f800000
  0015c	f3 0f 11 40 08	 movss	 DWORD PTR [eax+8], xmm0

; 1552 : 
; 1553 : 	////////////////////////////////////////
; 1554 : 	//
; 1555 : 	// MEDIUM EARTH EXPLOSION
; 1556 : 	//
; 1557 : 	////////////////////////////////////////
; 1558 : 
; 1559 : 	this_explosion = &(meta_explosion_database[ MEDIUM_EARTH_META_EXPLOSION ]);

  00161	b8 10 00 00 00	 mov	 eax, 16			; 00000010H
  00166	c1 e0 04	 shl	 eax, 4
  00169	05 00 00 00 00	 add	 eax, OFFSET ?meta_explosion_database@@3PAUMETA_EXPLOSION_DATA@@A ; meta_explosion_database
  0016e	89 45 f8	 mov	 DWORD PTR _this_explosion$[ebp], eax

; 1560 : 
; 1561 : 	this_explosion->number_of_components	=	2;

  00171	8b 45 f8	 mov	 eax, DWORD PTR _this_explosion$[ebp]
  00174	c7 00 02 00 00
	00		 mov	 DWORD PTR [eax], 2

; 1562 : 
; 1563 : 	this_explosion->damage_radius				=	0.0;

  0017a	8b 45 f8	 mov	 eax, DWORD PTR _this_explosion$[ebp]
  0017d	0f 57 c0	 xorps	 xmm0, xmm0
  00180	f3 0f 11 40 04	 movss	 DWORD PTR [eax+4], xmm0

; 1564 : 
; 1565 : 	this_explosion->show_on_map				=	FALSE;

  00185	8b 45 f8	 mov	 eax, DWORD PTR _this_explosion$[ebp]
  00188	c7 40 08 00 00
	00 00		 mov	 DWORD PTR [eax+8], 0

; 1566 : 
; 1567 : 	this_explosion->component = (meta_explosion_component *) malloc_fast_mem( sizeof( meta_explosion_component ) * this_explosion->number_of_components );

  0018f	8b 45 f8	 mov	 eax, DWORD PTR _this_explosion$[ebp]
  00192	6b 08 34	 imul	 ecx, DWORD PTR [eax], 52
  00195	51		 push	 ecx
  00196	e8 00 00 00 00	 call	 ?malloc_fast_memory@@YGPAXI@Z ; malloc_fast_memory
  0019b	8b 55 f8	 mov	 edx, DWORD PTR _this_explosion$[ebp]
  0019e	89 42 0c	 mov	 DWORD PTR [edx+12], eax

; 1568 : 
; 1569 : 	//
; 1570 : 	// component 0
; 1571 : 	//
; 1572 : 
; 1573 : 	explosion_info = &(this_explosion->component[ 0 ]);

  001a1	b8 34 00 00 00	 mov	 eax, 52			; 00000034H
  001a6	6b c8 00	 imul	 ecx, eax, 0
  001a9	8b 55 f8	 mov	 edx, DWORD PTR _this_explosion$[ebp]
  001ac	03 4a 0c	 add	 ecx, DWORD PTR [edx+12]
  001af	89 4d fc	 mov	 DWORD PTR _explosion_info$[ebp], ecx

; 1574 : 
; 1575 : 	explosion_info->type 						=	EXPLOSION_SPRITES;

  001b2	8b 45 fc	 mov	 eax, DWORD PTR _explosion_info$[ebp]
  001b5	c7 00 00 00 00
	00		 mov	 DWORD PTR [eax], 0

; 1576 : 
; 1577 : 	explosion_info->animated_texture 		=	TEXTURE_ANIMATION_INDEX_SMOKE;

  001bb	8b 45 fc	 mov	 eax, DWORD PTR _explosion_info$[ebp]
  001be	c7 40 04 63 00
	00 00		 mov	 DWORD PTR [eax+4], 99	; 00000063H

; 1578 : 
; 1579 : 	explosion_info->sprite_count 				=	2;

  001c5	8b 45 fc	 mov	 eax, DWORD PTR _explosion_info$[ebp]
  001c8	c7 40 08 02 00
	00 00		 mov	 DWORD PTR [eax+8], 2

; 1580 : 
; 1581 : 	explosion_info->red 							=	80;

  001cf	8b 45 fc	 mov	 eax, DWORD PTR _explosion_info$[ebp]
  001d2	c6 40 0c 50	 mov	 BYTE PTR [eax+12], 80	; 00000050H

; 1582 : 	explosion_info->green 						= 	60;

  001d6	8b 45 fc	 mov	 eax, DWORD PTR _explosion_info$[ebp]
  001d9	c6 40 0d 3c	 mov	 BYTE PTR [eax+13], 60	; 0000003cH

; 1583 : 	explosion_info->blue 						=	20;

  001dd	8b 45 fc	 mov	 eax, DWORD PTR _explosion_info$[ebp]
  001e0	c6 40 0e 14	 mov	 BYTE PTR [eax+14], 20	; 00000014H

; 1584 : 	explosion_info->alpha 						=	140;

  001e4	8b 45 fc	 mov	 eax, DWORD PTR _explosion_info$[ebp]
  001e7	c6 40 0f 8c	 mov	 BYTE PTR [eax+15], 140	; 0000008cH

; 1585 : 
; 1586 : 	explosion_info->additive 					=	FALSE;

  001eb	8b 45 fc	 mov	 eax, DWORD PTR _explosion_info$[ebp]
  001ee	8a 48 10	 mov	 cl, BYTE PTR [eax+16]
  001f1	80 e1 fe	 and	 cl, 254			; 000000feH
  001f4	8b 55 fc	 mov	 edx, DWORD PTR _explosion_info$[ebp]
  001f7	88 4a 10	 mov	 BYTE PTR [edx+16], cl

; 1587 : 
; 1588 : 	explosion_info->blast_hemisphere_only	=	TRUE;

  001fa	8b 45 fc	 mov	 eax, DWORD PTR _explosion_info$[ebp]
  001fd	8a 48 10	 mov	 cl, BYTE PTR [eax+16]
  00200	80 c9 02	 or	 cl, 2
  00203	8b 55 fc	 mov	 edx, DWORD PTR _explosion_info$[ebp]
  00206	88 4a 10	 mov	 BYTE PTR [edx+16], cl

; 1589 : 
; 1590 : 	explosion_info->delay_max 					=	0.25;

  00209	8b 45 fc	 mov	 eax, DWORD PTR _explosion_info$[ebp]
  0020c	f3 0f 10 05 00
	00 00 00	 movss	 xmm0, DWORD PTR __real@3e800000
  00214	f3 0f 11 40 14	 movss	 DWORD PTR [eax+20], xmm0

; 1591 : 
; 1592 : 	explosion_info->lifetime_min 				=	0.75;

  00219	8b 45 fc	 mov	 eax, DWORD PTR _explosion_info$[ebp]
  0021c	f3 0f 10 05 00
	00 00 00	 movss	 xmm0, DWORD PTR __real@3f400000
  00224	f3 0f 11 40 18	 movss	 DWORD PTR [eax+24], xmm0

; 1593 : 	explosion_info->lifetime_max 				=	1.5;

  00229	8b 45 fc	 mov	 eax, DWORD PTR _explosion_info$[ebp]
  0022c	f3 0f 10 05 00
	00 00 00	 movss	 xmm0, DWORD PTR __real@3fc00000
  00234	f3 0f 11 40 1c	 movss	 DWORD PTR [eax+28], xmm0

; 1594 : 
; 1595 : 	explosion_info->scale_min 					=	4.0;

  00239	8b 45 fc	 mov	 eax, DWORD PTR _explosion_info$[ebp]
  0023c	f3 0f 10 05 00
	00 00 00	 movss	 xmm0, DWORD PTR __real@40800000
  00244	f3 0f 11 40 20	 movss	 DWORD PTR [eax+32], xmm0

; 1596 : 	explosion_info->scale_max 					=	6.0;

  00249	8b 45 fc	 mov	 eax, DWORD PTR _explosion_info$[ebp]
  0024c	f3 0f 10 05 00
	00 00 00	 movss	 xmm0, DWORD PTR __real@40c00000
  00254	f3 0f 11 40 24	 movss	 DWORD PTR [eax+36], xmm0

; 1597 : 
; 1598 : 	explosion_info->blast_radius		 		=	5.0;

  00259	8b 45 fc	 mov	 eax, DWORD PTR _explosion_info$[ebp]
  0025c	f3 0f 10 05 00
	00 00 00	 movss	 xmm0, DWORD PTR __real@40a00000
  00264	f3 0f 11 40 28	 movss	 DWORD PTR [eax+40], xmm0

; 1599 : 
; 1600 : 	explosion_info->animation_frequency		=	2.0;

  00269	8b 45 fc	 mov	 eax, DWORD PTR _explosion_info$[ebp]
  0026c	f3 0f 10 05 00
	00 00 00	 movss	 xmm0, DWORD PTR __real@40000000
  00274	f3 0f 11 40 2c	 movss	 DWORD PTR [eax+44], xmm0

; 1601 : 
; 1602 : 	explosion_info->rotation_rate		=	0.0;

  00279	8b 45 fc	 mov	 eax, DWORD PTR _explosion_info$[ebp]
  0027c	0f 57 c0	 xorps	 xmm0, xmm0
  0027f	f3 0f 11 40 30	 movss	 DWORD PTR [eax+48], xmm0

; 1603 : 
; 1604 : 	//
; 1605 : 	// component 1
; 1606 : 	//
; 1607 : 
; 1608 : 	explosion_info = &(this_explosion->component[ 1 ]);

  00284	b8 34 00 00 00	 mov	 eax, 52			; 00000034H
  00289	c1 e0 00	 shl	 eax, 0
  0028c	8b 4d f8	 mov	 ecx, DWORD PTR _this_explosion$[ebp]
  0028f	03 41 0c	 add	 eax, DWORD PTR [ecx+12]
  00292	89 45 fc	 mov	 DWORD PTR _explosion_info$[ebp], eax

; 1609 : 
; 1610 : 	explosion_info->type 						= EXPLOSION_PARTICLES;

  00295	8b 45 fc	 mov	 eax, DWORD PTR _explosion_info$[ebp]
  00298	c7 00 02 00 00
	00		 mov	 DWORD PTR [eax], 2

; 1611 : 
; 1612 : 	explosion_info->particle_count 			= 4;

  0029e	8b 45 fc	 mov	 eax, DWORD PTR _explosion_info$[ebp]
  002a1	c7 40 04 04 00
	00 00		 mov	 DWORD PTR [eax+4], 4

; 1613 : 
; 1614 : 	explosion_info->trail_type 				= SMOKE_LIST_TYPE_MEDIUM_EARTH_PARTICLE_TRAIL;

  002a8	8b 45 fc	 mov	 eax, DWORD PTR _explosion_info$[ebp]
  002ab	c7 40 08 09 00
	00 00		 mov	 DWORD PTR [eax+8], 9

; 1615 : 
; 1616 : 	explosion_info->initial_speed 			= 15.0;

  002b2	8b 45 fc	 mov	 eax, DWORD PTR _explosion_info$[ebp]
  002b5	f3 0f 10 05 00
	00 00 00	 movss	 xmm0, DWORD PTR __real@41700000
  002bd	f3 0f 11 40 0c	 movss	 DWORD PTR [eax+12], xmm0

; 1617 : 
; 1618 : 	explosion_info->frequency 			= 0.1;

  002c2	8b 45 fc	 mov	 eax, DWORD PTR _explosion_info$[ebp]
  002c5	f3 0f 10 05 00
	00 00 00	 movss	 xmm0, DWORD PTR __real@3dcccccd
  002cd	f3 0f 11 40 10	 movss	 DWORD PTR [eax+16], xmm0

; 1619 : 
; 1620 : 	explosion_info->smoke_lifetime 			= 1.5;

  002d2	8b 45 fc	 mov	 eax, DWORD PTR _explosion_info$[ebp]
  002d5	f3 0f 10 05 00
	00 00 00	 movss	 xmm0, DWORD PTR __real@3fc00000
  002dd	f3 0f 11 40 14	 movss	 DWORD PTR [eax+20], xmm0

; 1621 : 
; 1622 : 	////////////////////////////////////////
; 1623 : 	//
; 1624 : 	// LARGE EARTH EXPLOSION
; 1625 : 	//
; 1626 : 	////////////////////////////////////////
; 1627 : 
; 1628 : 	this_explosion = &(meta_explosion_database[ LARGE_EARTH_META_EXPLOSION ]);

  002e2	b8 10 00 00 00	 mov	 eax, 16			; 00000010H
  002e7	6b c8 11	 imul	 ecx, eax, 17
  002ea	81 c1 00 00 00
	00		 add	 ecx, OFFSET ?meta_explosion_database@@3PAUMETA_EXPLOSION_DATA@@A ; meta_explosion_database
  002f0	89 4d f8	 mov	 DWORD PTR _this_explosion$[ebp], ecx

; 1629 : 
; 1630 : 	this_explosion->number_of_components	=	2;

  002f3	8b 45 f8	 mov	 eax, DWORD PTR _this_explosion$[ebp]
  002f6	c7 00 02 00 00
	00		 mov	 DWORD PTR [eax], 2

; 1631 : 
; 1632 : 	this_explosion->damage_radius				=	0.0;

  002fc	8b 45 f8	 mov	 eax, DWORD PTR _this_explosion$[ebp]
  002ff	0f 57 c0	 xorps	 xmm0, xmm0
  00302	f3 0f 11 40 04	 movss	 DWORD PTR [eax+4], xmm0

; 1633 : 
; 1634 : 	this_explosion->show_on_map				=	FALSE;

  00307	8b 45 f8	 mov	 eax, DWORD PTR _this_explosion$[ebp]
  0030a	c7 40 08 00 00
	00 00		 mov	 DWORD PTR [eax+8], 0

; 1635 : 
; 1636 : 	this_explosion->component = (meta_explosion_component *) malloc_fast_mem( sizeof( meta_explosion_component ) * this_explosion->number_of_components );

  00311	8b 45 f8	 mov	 eax, DWORD PTR _this_explosion$[ebp]
  00314	6b 08 34	 imul	 ecx, DWORD PTR [eax], 52
  00317	51		 push	 ecx
  00318	e8 00 00 00 00	 call	 ?malloc_fast_memory@@YGPAXI@Z ; malloc_fast_memory
  0031d	8b 55 f8	 mov	 edx, DWORD PTR _this_explosion$[ebp]
  00320	89 42 0c	 mov	 DWORD PTR [edx+12], eax

; 1637 : 
; 1638 : 	//
; 1639 : 	// component 0
; 1640 : 	//
; 1641 : 
; 1642 : 	explosion_info = &(this_explosion->component[ 0 ]);

  00323	b8 34 00 00 00	 mov	 eax, 52			; 00000034H
  00328	6b c8 00	 imul	 ecx, eax, 0
  0032b	8b 55 f8	 mov	 edx, DWORD PTR _this_explosion$[ebp]
  0032e	03 4a 0c	 add	 ecx, DWORD PTR [edx+12]
  00331	89 4d fc	 mov	 DWORD PTR _explosion_info$[ebp], ecx

; 1643 : 
; 1644 : 	explosion_info->type 						=	EXPLOSION_SPRITES;

  00334	8b 45 fc	 mov	 eax, DWORD PTR _explosion_info$[ebp]
  00337	c7 00 00 00 00
	00		 mov	 DWORD PTR [eax], 0

; 1645 : 
; 1646 : 	explosion_info->animated_texture 		=	TEXTURE_ANIMATION_INDEX_SMOKE;

  0033d	8b 45 fc	 mov	 eax, DWORD PTR _explosion_info$[ebp]
  00340	c7 40 04 63 00
	00 00		 mov	 DWORD PTR [eax+4], 99	; 00000063H

; 1647 : 
; 1648 : 	explosion_info->sprite_count 				=	5;

  00347	8b 45 fc	 mov	 eax, DWORD PTR _explosion_info$[ebp]
  0034a	c7 40 08 05 00
	00 00		 mov	 DWORD PTR [eax+8], 5

; 1649 : 
; 1650 : 	explosion_info->red 							=	80;

  00351	8b 45 fc	 mov	 eax, DWORD PTR _explosion_info$[ebp]
  00354	c6 40 0c 50	 mov	 BYTE PTR [eax+12], 80	; 00000050H

; 1651 : 	explosion_info->green 						= 	60;

  00358	8b 45 fc	 mov	 eax, DWORD PTR _explosion_info$[ebp]
  0035b	c6 40 0d 3c	 mov	 BYTE PTR [eax+13], 60	; 0000003cH

; 1652 : 	explosion_info->blue 						=	20;

  0035f	8b 45 fc	 mov	 eax, DWORD PTR _explosion_info$[ebp]
  00362	c6 40 0e 14	 mov	 BYTE PTR [eax+14], 20	; 00000014H

; 1653 : 	explosion_info->alpha 						=	140;

  00366	8b 45 fc	 mov	 eax, DWORD PTR _explosion_info$[ebp]
  00369	c6 40 0f 8c	 mov	 BYTE PTR [eax+15], 140	; 0000008cH

; 1654 : 
; 1655 : 	explosion_info->additive 					=	FALSE;

  0036d	8b 45 fc	 mov	 eax, DWORD PTR _explosion_info$[ebp]
  00370	8a 48 10	 mov	 cl, BYTE PTR [eax+16]
  00373	80 e1 fe	 and	 cl, 254			; 000000feH
  00376	8b 55 fc	 mov	 edx, DWORD PTR _explosion_info$[ebp]
  00379	88 4a 10	 mov	 BYTE PTR [edx+16], cl

; 1656 : 
; 1657 : 	explosion_info->blast_hemisphere_only	=	TRUE;

  0037c	8b 45 fc	 mov	 eax, DWORD PTR _explosion_info$[ebp]
  0037f	8a 48 10	 mov	 cl, BYTE PTR [eax+16]
  00382	80 c9 02	 or	 cl, 2
  00385	8b 55 fc	 mov	 edx, DWORD PTR _explosion_info$[ebp]
  00388	88 4a 10	 mov	 BYTE PTR [edx+16], cl

; 1658 : 
; 1659 : 	explosion_info->delay_max 					=	0.25;

  0038b	8b 45 fc	 mov	 eax, DWORD PTR _explosion_info$[ebp]
  0038e	f3 0f 10 05 00
	00 00 00	 movss	 xmm0, DWORD PTR __real@3e800000
  00396	f3 0f 11 40 14	 movss	 DWORD PTR [eax+20], xmm0

; 1660 : 
; 1661 : 	explosion_info->lifetime_min 				=	1.0;

  0039b	8b 45 fc	 mov	 eax, DWORD PTR _explosion_info$[ebp]
  0039e	f3 0f 10 05 00
	00 00 00	 movss	 xmm0, DWORD PTR __real@3f800000
  003a6	f3 0f 11 40 18	 movss	 DWORD PTR [eax+24], xmm0

; 1662 : 	explosion_info->lifetime_max 				=	2.5;

  003ab	8b 45 fc	 mov	 eax, DWORD PTR _explosion_info$[ebp]
  003ae	f3 0f 10 05 00
	00 00 00	 movss	 xmm0, DWORD PTR __real@40200000
  003b6	f3 0f 11 40 1c	 movss	 DWORD PTR [eax+28], xmm0

; 1663 : 
; 1664 : 	explosion_info->scale_min 					=	6.0;

  003bb	8b 45 fc	 mov	 eax, DWORD PTR _explosion_info$[ebp]
  003be	f3 0f 10 05 00
	00 00 00	 movss	 xmm0, DWORD PTR __real@40c00000
  003c6	f3 0f 11 40 20	 movss	 DWORD PTR [eax+32], xmm0

; 1665 : 	explosion_info->scale_max 					=	8.0;

  003cb	8b 45 fc	 mov	 eax, DWORD PTR _explosion_info$[ebp]
  003ce	f3 0f 10 05 00
	00 00 00	 movss	 xmm0, DWORD PTR __real@41000000
  003d6	f3 0f 11 40 24	 movss	 DWORD PTR [eax+36], xmm0

; 1666 : 
; 1667 : 	explosion_info->blast_radius		 		=	6.0;

  003db	8b 45 fc	 mov	 eax, DWORD PTR _explosion_info$[ebp]
  003de	f3 0f 10 05 00
	00 00 00	 movss	 xmm0, DWORD PTR __real@40c00000
  003e6	f3 0f 11 40 28	 movss	 DWORD PTR [eax+40], xmm0

; 1668 : 
; 1669 : 	explosion_info->animation_frequency		=	2.0;

  003eb	8b 45 fc	 mov	 eax, DWORD PTR _explosion_info$[ebp]
  003ee	f3 0f 10 05 00
	00 00 00	 movss	 xmm0, DWORD PTR __real@40000000
  003f6	f3 0f 11 40 2c	 movss	 DWORD PTR [eax+44], xmm0

; 1670 : 
; 1671 : 	explosion_info->rotation_rate		=	0.0;

  003fb	8b 45 fc	 mov	 eax, DWORD PTR _explosion_info$[ebp]
  003fe	0f 57 c0	 xorps	 xmm0, xmm0
  00401	f3 0f 11 40 30	 movss	 DWORD PTR [eax+48], xmm0

; 1672 : 
; 1673 : 	//
; 1674 : 	// component 1
; 1675 : 	//
; 1676 : 
; 1677 : 	explosion_info = &(this_explosion->component[ 1 ]);

  00406	b8 34 00 00 00	 mov	 eax, 52			; 00000034H
  0040b	c1 e0 00	 shl	 eax, 0
  0040e	8b 4d f8	 mov	 ecx, DWORD PTR _this_explosion$[ebp]
  00411	03 41 0c	 add	 eax, DWORD PTR [ecx+12]
  00414	89 45 fc	 mov	 DWORD PTR _explosion_info$[ebp], eax

; 1678 : 
; 1679 : 	explosion_info->type 						= EXPLOSION_PARTICLES;

  00417	8b 45 fc	 mov	 eax, DWORD PTR _explosion_info$[ebp]
  0041a	c7 00 02 00 00
	00		 mov	 DWORD PTR [eax], 2

; 1680 : 
; 1681 : 	explosion_info->particle_count 			= 6;

  00420	8b 45 fc	 mov	 eax, DWORD PTR _explosion_info$[ebp]
  00423	c7 40 04 06 00
	00 00		 mov	 DWORD PTR [eax+4], 6

; 1682 : 
; 1683 : 	explosion_info->trail_type 				= SMOKE_LIST_TYPE_MEDIUM_EARTH_PARTICLE_TRAIL;

  0042a	8b 45 fc	 mov	 eax, DWORD PTR _explosion_info$[ebp]
  0042d	c7 40 08 09 00
	00 00		 mov	 DWORD PTR [eax+8], 9

; 1684 : 
; 1685 : 	explosion_info->initial_speed 			= 20.0;

  00434	8b 45 fc	 mov	 eax, DWORD PTR _explosion_info$[ebp]
  00437	f3 0f 10 05 00
	00 00 00	 movss	 xmm0, DWORD PTR __real@41a00000
  0043f	f3 0f 11 40 0c	 movss	 DWORD PTR [eax+12], xmm0

; 1686 : 
; 1687 : 	explosion_info->frequency 			= 0.1;

  00444	8b 45 fc	 mov	 eax, DWORD PTR _explosion_info$[ebp]
  00447	f3 0f 10 05 00
	00 00 00	 movss	 xmm0, DWORD PTR __real@3dcccccd
  0044f	f3 0f 11 40 10	 movss	 DWORD PTR [eax+16], xmm0

; 1688 : 
; 1689 : 	explosion_info->smoke_lifetime 			= 1.5;

  00454	8b 45 fc	 mov	 eax, DWORD PTR _explosion_info$[ebp]
  00457	f3 0f 10 05 00
	00 00 00	 movss	 xmm0, DWORD PTR __real@3fc00000
  0045f	f3 0f 11 40 14	 movss	 DWORD PTR [eax+20], xmm0

; 1690 : }

  00464	5f		 pop	 edi
  00465	5e		 pop	 esi
  00466	5b		 pop	 ebx
  00467	8b e5		 mov	 esp, ebp
  00469	5d		 pop	 ebp
  0046a	c3		 ret	 0
?initialise_earth_explosion_database@@YGXXZ ENDP	; initialise_earth_explosion_database
_TEXT	ENDS
; Function compile flags: /Odtp /ZI
; File c:\users\nhv90\projects\eech\aphavoc\source\entity\special\effect\explosn\xp_dbase.c
;	COMDAT ?initialise_high_explosive_explosion_database@@YGXXZ
_TEXT	SEGMENT
_this_explosion$ = -8					; size = 4
_explosion_info$ = -4					; size = 4
?initialise_high_explosive_explosion_database@@YGXXZ PROC ; initialise_high_explosive_explosion_database, COMDAT

; 939  : {

  00000	55		 push	 ebp
  00001	8b ec		 mov	 ebp, esp
  00003	83 ec 48	 sub	 esp, 72			; 00000048H
  00006	53		 push	 ebx
  00007	56		 push	 esi
  00008	57		 push	 edi

; 940  : 
; 941  : 	meta_explosion_component
; 942  : 		*explosion_info;
; 943  : 
; 944  : 	meta_explosion_data
; 945  : 		*this_explosion;
; 946  : 
; 947  : 	////////////////////////////////////////
; 948  : 	//
; 949  : 	// SMALL HE EXPLOSION
; 950  : 	//
; 951  : 	////////////////////////////////////////
; 952  : 
; 953  : 	this_explosion = &(meta_explosion_database[ SMALL_HE_META_EXPLOSION ]);

  00009	b8 10 00 00 00	 mov	 eax, 16			; 00000010H
  0000e	6b c8 06	 imul	 ecx, eax, 6
  00011	81 c1 00 00 00
	00		 add	 ecx, OFFSET ?meta_explosion_database@@3PAUMETA_EXPLOSION_DATA@@A ; meta_explosion_database
  00017	89 4d f8	 mov	 DWORD PTR _this_explosion$[ebp], ecx

; 954  : 
; 955  : 	this_explosion->number_of_components	=	5;

  0001a	8b 45 f8	 mov	 eax, DWORD PTR _this_explosion$[ebp]
  0001d	c7 00 05 00 00
	00		 mov	 DWORD PTR [eax], 5

; 956  : 
; 957  : 	this_explosion->damage_radius				=	10.0;

  00023	8b 45 f8	 mov	 eax, DWORD PTR _this_explosion$[ebp]
  00026	f3 0f 10 05 00
	00 00 00	 movss	 xmm0, DWORD PTR __real@41200000
  0002e	f3 0f 11 40 04	 movss	 DWORD PTR [eax+4], xmm0

; 958  : 
; 959  : 	this_explosion->show_on_map				=	FALSE;

  00033	8b 45 f8	 mov	 eax, DWORD PTR _this_explosion$[ebp]
  00036	c7 40 08 00 00
	00 00		 mov	 DWORD PTR [eax+8], 0

; 960  : 
; 961  : 	this_explosion->component = (meta_explosion_component *) malloc_fast_mem( sizeof( meta_explosion_component ) * this_explosion->number_of_components );

  0003d	8b 45 f8	 mov	 eax, DWORD PTR _this_explosion$[ebp]
  00040	6b 08 34	 imul	 ecx, DWORD PTR [eax], 52
  00043	51		 push	 ecx
  00044	e8 00 00 00 00	 call	 ?malloc_fast_memory@@YGPAXI@Z ; malloc_fast_memory
  00049	8b 55 f8	 mov	 edx, DWORD PTR _this_explosion$[ebp]
  0004c	89 42 0c	 mov	 DWORD PTR [edx+12], eax

; 962  : 
; 963  : 	//
; 964  : 	// component 0
; 965  : 	//
; 966  : 
; 967  : 	explosion_info = &(this_explosion->component[ 0 ]);

  0004f	b8 34 00 00 00	 mov	 eax, 52			; 00000034H
  00054	6b c8 00	 imul	 ecx, eax, 0
  00057	8b 55 f8	 mov	 edx, DWORD PTR _this_explosion$[ebp]
  0005a	03 4a 0c	 add	 ecx, DWORD PTR [edx+12]
  0005d	89 4d fc	 mov	 DWORD PTR _explosion_info$[ebp], ecx

; 968  : 
; 969  : 	explosion_info->type 						=	EXPLOSION_OBJECTS;

  00060	8b 45 fc	 mov	 eax, DWORD PTR _explosion_info$[ebp]
  00063	c7 00 01 00 00
	00		 mov	 DWORD PTR [eax], 1

; 970  : 
; 971  : 	explosion_info->object_3d_shape 			=	OBJECT_3D_EFFECT_DEBRI;

  00069	8b 45 fc	 mov	 eax, DWORD PTR _explosion_info$[ebp]
  0006c	c7 40 04 18 0a
	00 00		 mov	 DWORD PTR [eax+4], 2584	; 00000a18H

; 972  : 
; 973  : 	explosion_info->object_count 				=	0;

  00073	8b 45 fc	 mov	 eax, DWORD PTR _explosion_info$[ebp]
  00076	c7 40 08 00 00
	00 00		 mov	 DWORD PTR [eax+8], 0

; 974  : 
; 975  : 	explosion_info->red 							=	160;

  0007d	8b 45 fc	 mov	 eax, DWORD PTR _explosion_info$[ebp]
  00080	c6 40 0c a0	 mov	 BYTE PTR [eax+12], 160	; 000000a0H

; 976  : 	explosion_info->green 						= 	160;

  00084	8b 45 fc	 mov	 eax, DWORD PTR _explosion_info$[ebp]
  00087	c6 40 0d a0	 mov	 BYTE PTR [eax+13], 160	; 000000a0H

; 977  : 	explosion_info->blue 						=	160;

  0008b	8b 45 fc	 mov	 eax, DWORD PTR _explosion_info$[ebp]
  0008e	c6 40 0e a0	 mov	 BYTE PTR [eax+14], 160	; 000000a0H

; 978  : 	explosion_info->alpha 						=	180;

  00092	8b 45 fc	 mov	 eax, DWORD PTR _explosion_info$[ebp]
  00095	c6 40 0f b4	 mov	 BYTE PTR [eax+15], 180	; 000000b4H

; 979  : 
; 980  : 	explosion_info->blast_hemisphere_only	=	TRUE;

  00099	8b 45 fc	 mov	 eax, DWORD PTR _explosion_info$[ebp]
  0009c	8a 48 10	 mov	 cl, BYTE PTR [eax+16]
  0009f	80 c9 02	 or	 cl, 2
  000a2	8b 55 fc	 mov	 edx, DWORD PTR _explosion_info$[ebp]
  000a5	88 4a 10	 mov	 BYTE PTR [edx+16], cl

; 981  : 
; 982  : 	explosion_info->delay_max 					=	0.0;

  000a8	8b 45 fc	 mov	 eax, DWORD PTR _explosion_info$[ebp]
  000ab	0f 57 c0	 xorps	 xmm0, xmm0
  000ae	f3 0f 11 40 14	 movss	 DWORD PTR [eax+20], xmm0

; 983  : 
; 984  : 	explosion_info->lifetime_min 				=	1.0;

  000b3	8b 45 fc	 mov	 eax, DWORD PTR _explosion_info$[ebp]
  000b6	f3 0f 10 05 00
	00 00 00	 movss	 xmm0, DWORD PTR __real@3f800000
  000be	f3 0f 11 40 18	 movss	 DWORD PTR [eax+24], xmm0

; 985  : 	explosion_info->lifetime_max 				=	1.0;

  000c3	8b 45 fc	 mov	 eax, DWORD PTR _explosion_info$[ebp]
  000c6	f3 0f 10 05 00
	00 00 00	 movss	 xmm0, DWORD PTR __real@3f800000
  000ce	f3 0f 11 40 1c	 movss	 DWORD PTR [eax+28], xmm0

; 986  : 
; 987  : 	explosion_info->scale_min 					=	2.0;

  000d3	8b 45 fc	 mov	 eax, DWORD PTR _explosion_info$[ebp]
  000d6	f3 0f 10 05 00
	00 00 00	 movss	 xmm0, DWORD PTR __real@40000000
  000de	f3 0f 11 40 20	 movss	 DWORD PTR [eax+32], xmm0

; 988  : 	explosion_info->scale_max 					=	2.0;

  000e3	8b 45 fc	 mov	 eax, DWORD PTR _explosion_info$[ebp]
  000e6	f3 0f 10 05 00
	00 00 00	 movss	 xmm0, DWORD PTR __real@40000000
  000ee	f3 0f 11 40 24	 movss	 DWORD PTR [eax+36], xmm0

; 989  : 
; 990  : 	explosion_info->blast_radius		 		=	0.0;

  000f3	8b 45 fc	 mov	 eax, DWORD PTR _explosion_info$[ebp]
  000f6	0f 57 c0	 xorps	 xmm0, xmm0
  000f9	f3 0f 11 40 28	 movss	 DWORD PTR [eax+40], xmm0

; 991  : 
; 992  : 	//
; 993  : 	// component 1
; 994  : 	//
; 995  : 
; 996  : 	explosion_info = &(this_explosion->component[ 1 ]);

  000fe	b8 34 00 00 00	 mov	 eax, 52			; 00000034H
  00103	c1 e0 00	 shl	 eax, 0
  00106	8b 4d f8	 mov	 ecx, DWORD PTR _this_explosion$[ebp]
  00109	03 41 0c	 add	 eax, DWORD PTR [ecx+12]
  0010c	89 45 fc	 mov	 DWORD PTR _explosion_info$[ebp], eax

; 997  : 
; 998  : 	explosion_info->type 						=	EXPLOSION_SPRITES;

  0010f	8b 45 fc	 mov	 eax, DWORD PTR _explosion_info$[ebp]
  00112	c7 00 00 00 00
	00		 mov	 DWORD PTR [eax], 0

; 999  : 
; 1000 : 	explosion_info->animated_texture 		=	TEXTURE_ANIMATION_INDEX_CANNON_FLARE;

  00118	8b 45 fc	 mov	 eax, DWORD PTR _explosion_info$[ebp]
  0011b	c7 40 04 59 00
	00 00		 mov	 DWORD PTR [eax+4], 89	; 00000059H

; 1001 : 
; 1002 : 	explosion_info->sprite_count 				=	2;

  00122	8b 45 fc	 mov	 eax, DWORD PTR _explosion_info$[ebp]
  00125	c7 40 08 02 00
	00 00		 mov	 DWORD PTR [eax+8], 2

; 1003 : 
; 1004 : 	explosion_info->red 							=	255;

  0012c	8b 45 fc	 mov	 eax, DWORD PTR _explosion_info$[ebp]
  0012f	c6 40 0c ff	 mov	 BYTE PTR [eax+12], 255	; 000000ffH

; 1005 : 	explosion_info->green 						= 	255;

  00133	8b 45 fc	 mov	 eax, DWORD PTR _explosion_info$[ebp]
  00136	c6 40 0d ff	 mov	 BYTE PTR [eax+13], 255	; 000000ffH

; 1006 : 	explosion_info->blue 						=	255;

  0013a	8b 45 fc	 mov	 eax, DWORD PTR _explosion_info$[ebp]
  0013d	c6 40 0e ff	 mov	 BYTE PTR [eax+14], 255	; 000000ffH

; 1007 : 	explosion_info->alpha 						=	255;

  00141	8b 45 fc	 mov	 eax, DWORD PTR _explosion_info$[ebp]
  00144	c6 40 0f ff	 mov	 BYTE PTR [eax+15], 255	; 000000ffH

; 1008 : 
; 1009 : 	explosion_info->additive 					=	TRUE;

  00148	8b 45 fc	 mov	 eax, DWORD PTR _explosion_info$[ebp]
  0014b	8a 48 10	 mov	 cl, BYTE PTR [eax+16]
  0014e	80 c9 01	 or	 cl, 1
  00151	8b 55 fc	 mov	 edx, DWORD PTR _explosion_info$[ebp]
  00154	88 4a 10	 mov	 BYTE PTR [edx+16], cl

; 1010 : 
; 1011 : 	explosion_info->blast_hemisphere_only	=	TRUE;

  00157	8b 45 fc	 mov	 eax, DWORD PTR _explosion_info$[ebp]
  0015a	8a 48 10	 mov	 cl, BYTE PTR [eax+16]
  0015d	80 c9 02	 or	 cl, 2
  00160	8b 55 fc	 mov	 edx, DWORD PTR _explosion_info$[ebp]
  00163	88 4a 10	 mov	 BYTE PTR [edx+16], cl

; 1012 : 
; 1013 : 	explosion_info->delay_max 					=	0.4;

  00166	8b 45 fc	 mov	 eax, DWORD PTR _explosion_info$[ebp]
  00169	f3 0f 10 05 00
	00 00 00	 movss	 xmm0, DWORD PTR __real@3ecccccd
  00171	f3 0f 11 40 14	 movss	 DWORD PTR [eax+20], xmm0

; 1014 : 
; 1015 : 	explosion_info->lifetime_min 				=	0.875;

  00176	8b 45 fc	 mov	 eax, DWORD PTR _explosion_info$[ebp]
  00179	f3 0f 10 05 00
	00 00 00	 movss	 xmm0, DWORD PTR __real@3f600000
  00181	f3 0f 11 40 18	 movss	 DWORD PTR [eax+24], xmm0

; 1016 : 	explosion_info->lifetime_max 				=	0.875;

  00186	8b 45 fc	 mov	 eax, DWORD PTR _explosion_info$[ebp]
  00189	f3 0f 10 05 00
	00 00 00	 movss	 xmm0, DWORD PTR __real@3f600000
  00191	f3 0f 11 40 1c	 movss	 DWORD PTR [eax+28], xmm0

; 1017 : 
; 1018 : 	explosion_info->scale_min 					=	10.0;

  00196	8b 45 fc	 mov	 eax, DWORD PTR _explosion_info$[ebp]
  00199	f3 0f 10 05 00
	00 00 00	 movss	 xmm0, DWORD PTR __real@41200000
  001a1	f3 0f 11 40 20	 movss	 DWORD PTR [eax+32], xmm0

; 1019 : 	explosion_info->scale_max 					=	2.5;

  001a6	8b 45 fc	 mov	 eax, DWORD PTR _explosion_info$[ebp]
  001a9	f3 0f 10 05 00
	00 00 00	 movss	 xmm0, DWORD PTR __real@40200000
  001b1	f3 0f 11 40 24	 movss	 DWORD PTR [eax+36], xmm0

; 1020 : 
; 1021 : 	explosion_info->blast_radius		 		=	3.0;

  001b6	8b 45 fc	 mov	 eax, DWORD PTR _explosion_info$[ebp]
  001b9	f3 0f 10 05 00
	00 00 00	 movss	 xmm0, DWORD PTR __real@40400000
  001c1	f3 0f 11 40 28	 movss	 DWORD PTR [eax+40], xmm0

; 1022 : 
; 1023 : 	explosion_info->animation_frequency		=	2.0;

  001c6	8b 45 fc	 mov	 eax, DWORD PTR _explosion_info$[ebp]
  001c9	f3 0f 10 05 00
	00 00 00	 movss	 xmm0, DWORD PTR __real@40000000
  001d1	f3 0f 11 40 2c	 movss	 DWORD PTR [eax+44], xmm0

; 1024 : 
; 1025 : 	explosion_info->rotation_rate		=	1.0;

  001d6	8b 45 fc	 mov	 eax, DWORD PTR _explosion_info$[ebp]
  001d9	f3 0f 10 05 00
	00 00 00	 movss	 xmm0, DWORD PTR __real@3f800000
  001e1	f3 0f 11 40 30	 movss	 DWORD PTR [eax+48], xmm0

; 1026 : 
; 1027 : 	//
; 1028 : 	// component 2
; 1029 : 	//
; 1030 : 
; 1031 : 	explosion_info = &(this_explosion->component[ 2 ]);

  001e6	b8 34 00 00 00	 mov	 eax, 52			; 00000034H
  001eb	d1 e0		 shl	 eax, 1
  001ed	8b 4d f8	 mov	 ecx, DWORD PTR _this_explosion$[ebp]
  001f0	03 41 0c	 add	 eax, DWORD PTR [ecx+12]
  001f3	89 45 fc	 mov	 DWORD PTR _explosion_info$[ebp], eax

; 1032 : 
; 1033 : 	explosion_info->type 						=	EXPLOSION_OBJECTS;

  001f6	8b 45 fc	 mov	 eax, DWORD PTR _explosion_info$[ebp]
  001f9	c7 00 01 00 00
	00		 mov	 DWORD PTR [eax], 1

; 1034 : 
; 1035 : 	explosion_info->object_3d_shape 			=	OBJECT_3D_EFFECT_FIREBALL;

  001ff	8b 45 fc	 mov	 eax, DWORD PTR _explosion_info$[ebp]
  00202	c7 40 04 19 0a
	00 00		 mov	 DWORD PTR [eax+4], 2585	; 00000a19H

; 1036 : 
; 1037 : 	explosion_info->object_count 				=	0;

  00209	8b 45 fc	 mov	 eax, DWORD PTR _explosion_info$[ebp]
  0020c	c7 40 08 00 00
	00 00		 mov	 DWORD PTR [eax+8], 0

; 1038 : 
; 1039 : 	explosion_info->red 							=	160;

  00213	8b 45 fc	 mov	 eax, DWORD PTR _explosion_info$[ebp]
  00216	c6 40 0c a0	 mov	 BYTE PTR [eax+12], 160	; 000000a0H

; 1040 : 	explosion_info->green 						= 	160;

  0021a	8b 45 fc	 mov	 eax, DWORD PTR _explosion_info$[ebp]
  0021d	c6 40 0d a0	 mov	 BYTE PTR [eax+13], 160	; 000000a0H

; 1041 : 	explosion_info->blue 						=	160;

  00221	8b 45 fc	 mov	 eax, DWORD PTR _explosion_info$[ebp]
  00224	c6 40 0e a0	 mov	 BYTE PTR [eax+14], 160	; 000000a0H

; 1042 : 	explosion_info->alpha 						=	180;

  00228	8b 45 fc	 mov	 eax, DWORD PTR _explosion_info$[ebp]
  0022b	c6 40 0f b4	 mov	 BYTE PTR [eax+15], 180	; 000000b4H

; 1043 : 
; 1044 : 	explosion_info->blast_hemisphere_only	=	TRUE;

  0022f	8b 45 fc	 mov	 eax, DWORD PTR _explosion_info$[ebp]
  00232	8a 48 10	 mov	 cl, BYTE PTR [eax+16]
  00235	80 c9 02	 or	 cl, 2
  00238	8b 55 fc	 mov	 edx, DWORD PTR _explosion_info$[ebp]
  0023b	88 4a 10	 mov	 BYTE PTR [edx+16], cl

; 1045 : 
; 1046 : 	explosion_info->delay_max 					=	0.0;

  0023e	8b 45 fc	 mov	 eax, DWORD PTR _explosion_info$[ebp]
  00241	0f 57 c0	 xorps	 xmm0, xmm0
  00244	f3 0f 11 40 14	 movss	 DWORD PTR [eax+20], xmm0

; 1047 : 
; 1048 : 	explosion_info->lifetime_min 				=	1.0;

  00249	8b 45 fc	 mov	 eax, DWORD PTR _explosion_info$[ebp]
  0024c	f3 0f 10 05 00
	00 00 00	 movss	 xmm0, DWORD PTR __real@3f800000
  00254	f3 0f 11 40 18	 movss	 DWORD PTR [eax+24], xmm0

; 1049 : 	explosion_info->lifetime_max 				=	1.0;

  00259	8b 45 fc	 mov	 eax, DWORD PTR _explosion_info$[ebp]
  0025c	f3 0f 10 05 00
	00 00 00	 movss	 xmm0, DWORD PTR __real@3f800000
  00264	f3 0f 11 40 1c	 movss	 DWORD PTR [eax+28], xmm0

; 1050 : 
; 1051 : 	explosion_info->scale_min 					=	5.0;

  00269	8b 45 fc	 mov	 eax, DWORD PTR _explosion_info$[ebp]
  0026c	f3 0f 10 05 00
	00 00 00	 movss	 xmm0, DWORD PTR __real@40a00000
  00274	f3 0f 11 40 20	 movss	 DWORD PTR [eax+32], xmm0

; 1052 : 	explosion_info->scale_max 					=	5.0;

  00279	8b 45 fc	 mov	 eax, DWORD PTR _explosion_info$[ebp]
  0027c	f3 0f 10 05 00
	00 00 00	 movss	 xmm0, DWORD PTR __real@40a00000
  00284	f3 0f 11 40 24	 movss	 DWORD PTR [eax+36], xmm0

; 1053 : 
; 1054 : 	explosion_info->blast_radius		 		=	0.0;

  00289	8b 45 fc	 mov	 eax, DWORD PTR _explosion_info$[ebp]
  0028c	0f 57 c0	 xorps	 xmm0, xmm0
  0028f	f3 0f 11 40 28	 movss	 DWORD PTR [eax+40], xmm0

; 1055 : 
; 1056 : 	//
; 1057 : 	// component 3
; 1058 : 	//
; 1059 : 
; 1060 : 	explosion_info = &(this_explosion->component[ 3 ]);

  00294	b8 34 00 00 00	 mov	 eax, 52			; 00000034H
  00299	6b c8 03	 imul	 ecx, eax, 3
  0029c	8b 55 f8	 mov	 edx, DWORD PTR _this_explosion$[ebp]
  0029f	03 4a 0c	 add	 ecx, DWORD PTR [edx+12]
  002a2	89 4d fc	 mov	 DWORD PTR _explosion_info$[ebp], ecx

; 1061 : 
; 1062 : 	explosion_info->type 						=	EXPLOSION_SPRITES;

  002a5	8b 45 fc	 mov	 eax, DWORD PTR _explosion_info$[ebp]
  002a8	c7 00 00 00 00
	00		 mov	 DWORD PTR [eax], 0

; 1063 : 
; 1064 : 	explosion_info->animated_texture 		=	TEXTURE_ANIMATION_INDEX_MISSILE_FLARE;

  002ae	8b 45 fc	 mov	 eax, DWORD PTR _explosion_info$[ebp]
  002b1	c7 40 04 61 00
	00 00		 mov	 DWORD PTR [eax+4], 97	; 00000061H

; 1065 : 
; 1066 : 	explosion_info->sprite_count 				=	0;

  002b8	8b 45 fc	 mov	 eax, DWORD PTR _explosion_info$[ebp]
  002bb	c7 40 08 00 00
	00 00		 mov	 DWORD PTR [eax+8], 0

; 1067 : 
; 1068 : 	explosion_info->red 							=	255;

  002c2	8b 45 fc	 mov	 eax, DWORD PTR _explosion_info$[ebp]
  002c5	c6 40 0c ff	 mov	 BYTE PTR [eax+12], 255	; 000000ffH

; 1069 : 	explosion_info->green 						= 	255;

  002c9	8b 45 fc	 mov	 eax, DWORD PTR _explosion_info$[ebp]
  002cc	c6 40 0d ff	 mov	 BYTE PTR [eax+13], 255	; 000000ffH

; 1070 : 	explosion_info->blue 						=	255;

  002d0	8b 45 fc	 mov	 eax, DWORD PTR _explosion_info$[ebp]
  002d3	c6 40 0e ff	 mov	 BYTE PTR [eax+14], 255	; 000000ffH

; 1071 : 	explosion_info->alpha 						=	255;

  002d7	8b 45 fc	 mov	 eax, DWORD PTR _explosion_info$[ebp]
  002da	c6 40 0f ff	 mov	 BYTE PTR [eax+15], 255	; 000000ffH

; 1072 : 
; 1073 : 	explosion_info->additive 					=	TRUE;

  002de	8b 45 fc	 mov	 eax, DWORD PTR _explosion_info$[ebp]
  002e1	8a 48 10	 mov	 cl, BYTE PTR [eax+16]
  002e4	80 c9 01	 or	 cl, 1
  002e7	8b 55 fc	 mov	 edx, DWORD PTR _explosion_info$[ebp]
  002ea	88 4a 10	 mov	 BYTE PTR [edx+16], cl

; 1074 : 
; 1075 : 	explosion_info->blast_hemisphere_only	=	TRUE;

  002ed	8b 45 fc	 mov	 eax, DWORD PTR _explosion_info$[ebp]
  002f0	8a 48 10	 mov	 cl, BYTE PTR [eax+16]
  002f3	80 c9 02	 or	 cl, 2
  002f6	8b 55 fc	 mov	 edx, DWORD PTR _explosion_info$[ebp]
  002f9	88 4a 10	 mov	 BYTE PTR [edx+16], cl

; 1076 : 
; 1077 : 	explosion_info->delay_max 					=	0.5;

  002fc	8b 45 fc	 mov	 eax, DWORD PTR _explosion_info$[ebp]
  002ff	f3 0f 10 05 00
	00 00 00	 movss	 xmm0, DWORD PTR __real@3f000000
  00307	f3 0f 11 40 14	 movss	 DWORD PTR [eax+20], xmm0

; 1078 : 
; 1079 : 	explosion_info->lifetime_min 				=	0.5;

  0030c	8b 45 fc	 mov	 eax, DWORD PTR _explosion_info$[ebp]
  0030f	f3 0f 10 05 00
	00 00 00	 movss	 xmm0, DWORD PTR __real@3f000000
  00317	f3 0f 11 40 18	 movss	 DWORD PTR [eax+24], xmm0

; 1080 : 	explosion_info->lifetime_max 				=	0.5;

  0031c	8b 45 fc	 mov	 eax, DWORD PTR _explosion_info$[ebp]
  0031f	f3 0f 10 05 00
	00 00 00	 movss	 xmm0, DWORD PTR __real@3f000000
  00327	f3 0f 11 40 1c	 movss	 DWORD PTR [eax+28], xmm0

; 1081 : 
; 1082 : 	explosion_info->scale_min 					=	30.0;

  0032c	8b 45 fc	 mov	 eax, DWORD PTR _explosion_info$[ebp]
  0032f	f3 0f 10 05 00
	00 00 00	 movss	 xmm0, DWORD PTR __real@41f00000
  00337	f3 0f 11 40 20	 movss	 DWORD PTR [eax+32], xmm0

; 1083 : 	explosion_info->scale_max 					=	5.0;

  0033c	8b 45 fc	 mov	 eax, DWORD PTR _explosion_info$[ebp]
  0033f	f3 0f 10 05 00
	00 00 00	 movss	 xmm0, DWORD PTR __real@40a00000
  00347	f3 0f 11 40 24	 movss	 DWORD PTR [eax+36], xmm0

; 1084 : 
; 1085 : 	explosion_info->blast_radius		 		=	4.0;

  0034c	8b 45 fc	 mov	 eax, DWORD PTR _explosion_info$[ebp]
  0034f	f3 0f 10 05 00
	00 00 00	 movss	 xmm0, DWORD PTR __real@40800000
  00357	f3 0f 11 40 28	 movss	 DWORD PTR [eax+40], xmm0

; 1086 : 
; 1087 : 	explosion_info->animation_frequency		=	2.0;

  0035c	8b 45 fc	 mov	 eax, DWORD PTR _explosion_info$[ebp]
  0035f	f3 0f 10 05 00
	00 00 00	 movss	 xmm0, DWORD PTR __real@40000000
  00367	f3 0f 11 40 2c	 movss	 DWORD PTR [eax+44], xmm0

; 1088 : 
; 1089 : 	explosion_info->rotation_rate		=	1.0;

  0036c	8b 45 fc	 mov	 eax, DWORD PTR _explosion_info$[ebp]
  0036f	f3 0f 10 05 00
	00 00 00	 movss	 xmm0, DWORD PTR __real@3f800000
  00377	f3 0f 11 40 30	 movss	 DWORD PTR [eax+48], xmm0

; 1090 : 
; 1091 : 	//
; 1092 : 	// component 4
; 1093 : 	//
; 1094 : 
; 1095 : 	explosion_info = &(this_explosion->component[ 4 ]);

  0037c	b8 34 00 00 00	 mov	 eax, 52			; 00000034H
  00381	c1 e0 02	 shl	 eax, 2
  00384	8b 4d f8	 mov	 ecx, DWORD PTR _this_explosion$[ebp]
  00387	03 41 0c	 add	 eax, DWORD PTR [ecx+12]
  0038a	89 45 fc	 mov	 DWORD PTR _explosion_info$[ebp], eax

; 1096 : 
; 1097 : 	explosion_info->type 						= EXPLOSION_SOUND_EFFECT;

  0038d	8b 45 fc	 mov	 eax, DWORD PTR _explosion_info$[ebp]
  00390	c7 00 04 00 00
	00		 mov	 DWORD PTR [eax], 4

; 1098 : 
; 1099 : 	explosion_info->sound_type 				= SOUND_SAMPLE_INDEX_SMALL_EXPLOSION;

  00396	8b 45 fc	 mov	 eax, DWORD PTR _explosion_info$[ebp]
  00399	c7 40 04 4f 00
	00 00		 mov	 DWORD PTR [eax+4], 79	; 0000004fH

; 1100 : 	explosion_info->sound_volume 				= 0.8;

  003a0	8b 45 fc	 mov	 eax, DWORD PTR _explosion_info$[ebp]
  003a3	f3 0f 10 05 00
	00 00 00	 movss	 xmm0, DWORD PTR __real@3f4ccccd
  003ab	f3 0f 11 40 08	 movss	 DWORD PTR [eax+8], xmm0

; 1101 : 
; 1102 : 	////////////////////////////////////////
; 1103 : 	//
; 1104 : 	// MEDIUM HE EXPLOSION
; 1105 : 	//
; 1106 : 	////////////////////////////////////////
; 1107 : 
; 1108 : 	this_explosion = &(meta_explosion_database[ MEDIUM_HE_META_EXPLOSION ]);

  003b0	b8 10 00 00 00	 mov	 eax, 16			; 00000010H
  003b5	6b c8 07	 imul	 ecx, eax, 7
  003b8	81 c1 00 00 00
	00		 add	 ecx, OFFSET ?meta_explosion_database@@3PAUMETA_EXPLOSION_DATA@@A ; meta_explosion_database
  003be	89 4d f8	 mov	 DWORD PTR _this_explosion$[ebp], ecx

; 1109 : 
; 1110 : 	this_explosion->number_of_components	=	6;

  003c1	8b 45 f8	 mov	 eax, DWORD PTR _this_explosion$[ebp]
  003c4	c7 00 06 00 00
	00		 mov	 DWORD PTR [eax], 6

; 1111 : 
; 1112 : 	this_explosion->damage_radius				=	30.0;

  003ca	8b 45 f8	 mov	 eax, DWORD PTR _this_explosion$[ebp]
  003cd	f3 0f 10 05 00
	00 00 00	 movss	 xmm0, DWORD PTR __real@41f00000
  003d5	f3 0f 11 40 04	 movss	 DWORD PTR [eax+4], xmm0

; 1113 : 
; 1114 : 	this_explosion->show_on_map				=	TRUE;

  003da	8b 45 f8	 mov	 eax, DWORD PTR _this_explosion$[ebp]
  003dd	c7 40 08 01 00
	00 00		 mov	 DWORD PTR [eax+8], 1

; 1115 : 
; 1116 : 	this_explosion->component = (meta_explosion_component *) malloc_fast_mem( sizeof( meta_explosion_component ) * this_explosion->number_of_components );

  003e4	8b 45 f8	 mov	 eax, DWORD PTR _this_explosion$[ebp]
  003e7	6b 08 34	 imul	 ecx, DWORD PTR [eax], 52
  003ea	51		 push	 ecx
  003eb	e8 00 00 00 00	 call	 ?malloc_fast_memory@@YGPAXI@Z ; malloc_fast_memory
  003f0	8b 55 f8	 mov	 edx, DWORD PTR _this_explosion$[ebp]
  003f3	89 42 0c	 mov	 DWORD PTR [edx+12], eax

; 1117 : 
; 1118 : 	//
; 1119 : 	// component 0
; 1120 : 	//
; 1121 : 
; 1122 : 	explosion_info = &(this_explosion->component[ 0 ]);

  003f6	b8 34 00 00 00	 mov	 eax, 52			; 00000034H
  003fb	6b c8 00	 imul	 ecx, eax, 0
  003fe	8b 55 f8	 mov	 edx, DWORD PTR _this_explosion$[ebp]
  00401	03 4a 0c	 add	 ecx, DWORD PTR [edx+12]
  00404	89 4d fc	 mov	 DWORD PTR _explosion_info$[ebp], ecx

; 1123 : 
; 1124 : 	explosion_info->type 						=	EXPLOSION_OBJECTS;

  00407	8b 45 fc	 mov	 eax, DWORD PTR _explosion_info$[ebp]
  0040a	c7 00 01 00 00
	00		 mov	 DWORD PTR [eax], 1

; 1125 : 
; 1126 : 	explosion_info->object_3d_shape 			=	OBJECT_3D_EFFECT_DEBRI;

  00410	8b 45 fc	 mov	 eax, DWORD PTR _explosion_info$[ebp]
  00413	c7 40 04 18 0a
	00 00		 mov	 DWORD PTR [eax+4], 2584	; 00000a18H

; 1127 : 
; 1128 : 	explosion_info->object_count 				=	1;

  0041a	8b 45 fc	 mov	 eax, DWORD PTR _explosion_info$[ebp]
  0041d	c7 40 08 01 00
	00 00		 mov	 DWORD PTR [eax+8], 1

; 1129 : 
; 1130 : 	explosion_info->red 							=	160;

  00424	8b 45 fc	 mov	 eax, DWORD PTR _explosion_info$[ebp]
  00427	c6 40 0c a0	 mov	 BYTE PTR [eax+12], 160	; 000000a0H

; 1131 : 	explosion_info->green 						= 	160;

  0042b	8b 45 fc	 mov	 eax, DWORD PTR _explosion_info$[ebp]
  0042e	c6 40 0d a0	 mov	 BYTE PTR [eax+13], 160	; 000000a0H

; 1132 : 	explosion_info->blue 						=	160;

  00432	8b 45 fc	 mov	 eax, DWORD PTR _explosion_info$[ebp]
  00435	c6 40 0e a0	 mov	 BYTE PTR [eax+14], 160	; 000000a0H

; 1133 : 	explosion_info->alpha 						=	180;

  00439	8b 45 fc	 mov	 eax, DWORD PTR _explosion_info$[ebp]
  0043c	c6 40 0f b4	 mov	 BYTE PTR [eax+15], 180	; 000000b4H

; 1134 : 
; 1135 : 	explosion_info->blast_hemisphere_only	=	TRUE;

  00440	8b 45 fc	 mov	 eax, DWORD PTR _explosion_info$[ebp]
  00443	8a 48 10	 mov	 cl, BYTE PTR [eax+16]
  00446	80 c9 02	 or	 cl, 2
  00449	8b 55 fc	 mov	 edx, DWORD PTR _explosion_info$[ebp]
  0044c	88 4a 10	 mov	 BYTE PTR [edx+16], cl

; 1136 : 
; 1137 : 	explosion_info->delay_max 					=	0.0;

  0044f	8b 45 fc	 mov	 eax, DWORD PTR _explosion_info$[ebp]
  00452	0f 57 c0	 xorps	 xmm0, xmm0
  00455	f3 0f 11 40 14	 movss	 DWORD PTR [eax+20], xmm0

; 1138 : 
; 1139 : 	explosion_info->lifetime_min 				=	1.5;

  0045a	8b 45 fc	 mov	 eax, DWORD PTR _explosion_info$[ebp]
  0045d	f3 0f 10 05 00
	00 00 00	 movss	 xmm0, DWORD PTR __real@3fc00000
  00465	f3 0f 11 40 18	 movss	 DWORD PTR [eax+24], xmm0

; 1140 : 	explosion_info->lifetime_max 				=	1.5;

  0046a	8b 45 fc	 mov	 eax, DWORD PTR _explosion_info$[ebp]
  0046d	f3 0f 10 05 00
	00 00 00	 movss	 xmm0, DWORD PTR __real@3fc00000
  00475	f3 0f 11 40 1c	 movss	 DWORD PTR [eax+28], xmm0

; 1141 : 
; 1142 : 	explosion_info->scale_min 					=	3.0;

  0047a	8b 45 fc	 mov	 eax, DWORD PTR _explosion_info$[ebp]
  0047d	f3 0f 10 05 00
	00 00 00	 movss	 xmm0, DWORD PTR __real@40400000
  00485	f3 0f 11 40 20	 movss	 DWORD PTR [eax+32], xmm0

; 1143 : 	explosion_info->scale_max 					=	3.0;

  0048a	8b 45 fc	 mov	 eax, DWORD PTR _explosion_info$[ebp]
  0048d	f3 0f 10 05 00
	00 00 00	 movss	 xmm0, DWORD PTR __real@40400000
  00495	f3 0f 11 40 24	 movss	 DWORD PTR [eax+36], xmm0

; 1144 : 
; 1145 : 	explosion_info->blast_radius		 		=	0.0;

  0049a	8b 45 fc	 mov	 eax, DWORD PTR _explosion_info$[ebp]
  0049d	0f 57 c0	 xorps	 xmm0, xmm0
  004a0	f3 0f 11 40 28	 movss	 DWORD PTR [eax+40], xmm0

; 1146 : 
; 1147 : 	//
; 1148 : 	// component 1
; 1149 : 	//
; 1150 : 
; 1151 : 	explosion_info = &(this_explosion->component[ 1 ]);

  004a5	b8 34 00 00 00	 mov	 eax, 52			; 00000034H
  004aa	c1 e0 00	 shl	 eax, 0
  004ad	8b 4d f8	 mov	 ecx, DWORD PTR _this_explosion$[ebp]
  004b0	03 41 0c	 add	 eax, DWORD PTR [ecx+12]
  004b3	89 45 fc	 mov	 DWORD PTR _explosion_info$[ebp], eax

; 1152 : 
; 1153 : 	explosion_info->type 						=	EXPLOSION_OBJECTS;

  004b6	8b 45 fc	 mov	 eax, DWORD PTR _explosion_info$[ebp]
  004b9	c7 00 01 00 00
	00		 mov	 DWORD PTR [eax], 1

; 1154 : 
; 1155 : 	explosion_info->object_3d_shape 			=	OBJECT_3D_EFFECT_FIREBALL;

  004bf	8b 45 fc	 mov	 eax, DWORD PTR _explosion_info$[ebp]
  004c2	c7 40 04 19 0a
	00 00		 mov	 DWORD PTR [eax+4], 2585	; 00000a19H

; 1156 : 
; 1157 : 	explosion_info->object_count 				=	0;

  004c9	8b 45 fc	 mov	 eax, DWORD PTR _explosion_info$[ebp]
  004cc	c7 40 08 00 00
	00 00		 mov	 DWORD PTR [eax+8], 0

; 1158 : 
; 1159 : 	explosion_info->red 							=	160;

  004d3	8b 45 fc	 mov	 eax, DWORD PTR _explosion_info$[ebp]
  004d6	c6 40 0c a0	 mov	 BYTE PTR [eax+12], 160	; 000000a0H

; 1160 : 	explosion_info->green 						= 	160;

  004da	8b 45 fc	 mov	 eax, DWORD PTR _explosion_info$[ebp]
  004dd	c6 40 0d a0	 mov	 BYTE PTR [eax+13], 160	; 000000a0H

; 1161 : 	explosion_info->blue 						=	160;

  004e1	8b 45 fc	 mov	 eax, DWORD PTR _explosion_info$[ebp]
  004e4	c6 40 0e a0	 mov	 BYTE PTR [eax+14], 160	; 000000a0H

; 1162 : 	explosion_info->alpha 						=	180;

  004e8	8b 45 fc	 mov	 eax, DWORD PTR _explosion_info$[ebp]
  004eb	c6 40 0f b4	 mov	 BYTE PTR [eax+15], 180	; 000000b4H

; 1163 : 
; 1164 : 	explosion_info->blast_hemisphere_only	=	TRUE;

  004ef	8b 45 fc	 mov	 eax, DWORD PTR _explosion_info$[ebp]
  004f2	8a 48 10	 mov	 cl, BYTE PTR [eax+16]
  004f5	80 c9 02	 or	 cl, 2
  004f8	8b 55 fc	 mov	 edx, DWORD PTR _explosion_info$[ebp]
  004fb	88 4a 10	 mov	 BYTE PTR [edx+16], cl

; 1165 : 
; 1166 : 	explosion_info->delay_max 					=	0.0;

  004fe	8b 45 fc	 mov	 eax, DWORD PTR _explosion_info$[ebp]
  00501	0f 57 c0	 xorps	 xmm0, xmm0
  00504	f3 0f 11 40 14	 movss	 DWORD PTR [eax+20], xmm0

; 1167 : 
; 1168 : 	explosion_info->lifetime_min 				=	1.5;

  00509	8b 45 fc	 mov	 eax, DWORD PTR _explosion_info$[ebp]
  0050c	f3 0f 10 05 00
	00 00 00	 movss	 xmm0, DWORD PTR __real@3fc00000
  00514	f3 0f 11 40 18	 movss	 DWORD PTR [eax+24], xmm0

; 1169 : 	explosion_info->lifetime_max 				=	1.5;

  00519	8b 45 fc	 mov	 eax, DWORD PTR _explosion_info$[ebp]
  0051c	f3 0f 10 05 00
	00 00 00	 movss	 xmm0, DWORD PTR __real@3fc00000
  00524	f3 0f 11 40 1c	 movss	 DWORD PTR [eax+28], xmm0

; 1170 : 
; 1171 : 	explosion_info->scale_min 					=	8.0;

  00529	8b 45 fc	 mov	 eax, DWORD PTR _explosion_info$[ebp]
  0052c	f3 0f 10 05 00
	00 00 00	 movss	 xmm0, DWORD PTR __real@41000000
  00534	f3 0f 11 40 20	 movss	 DWORD PTR [eax+32], xmm0

; 1172 : 	explosion_info->scale_max 					=	8.0;

  00539	8b 45 fc	 mov	 eax, DWORD PTR _explosion_info$[ebp]
  0053c	f3 0f 10 05 00
	00 00 00	 movss	 xmm0, DWORD PTR __real@41000000
  00544	f3 0f 11 40 24	 movss	 DWORD PTR [eax+36], xmm0

; 1173 : 
; 1174 : 	explosion_info->blast_radius		 		=	0.0;

  00549	8b 45 fc	 mov	 eax, DWORD PTR _explosion_info$[ebp]
  0054c	0f 57 c0	 xorps	 xmm0, xmm0
  0054f	f3 0f 11 40 28	 movss	 DWORD PTR [eax+40], xmm0

; 1175 : 
; 1176 : 	//
; 1177 : 	// component 2
; 1178 : 	//
; 1179 : 
; 1180 : 	explosion_info = &(this_explosion->component[ 2 ]);

  00554	b8 34 00 00 00	 mov	 eax, 52			; 00000034H
  00559	d1 e0		 shl	 eax, 1
  0055b	8b 4d f8	 mov	 ecx, DWORD PTR _this_explosion$[ebp]
  0055e	03 41 0c	 add	 eax, DWORD PTR [ecx+12]
  00561	89 45 fc	 mov	 DWORD PTR _explosion_info$[ebp], eax

; 1181 : 
; 1182 : 	explosion_info->type 						=	EXPLOSION_SPRITES;

  00564	8b 45 fc	 mov	 eax, DWORD PTR _explosion_info$[ebp]
  00567	c7 00 00 00 00
	00		 mov	 DWORD PTR [eax], 0

; 1183 : 
; 1184 : 	explosion_info->animated_texture 		=	TEXTURE_ANIMATION_INDEX_CANNON_FLARE;

  0056d	8b 45 fc	 mov	 eax, DWORD PTR _explosion_info$[ebp]
  00570	c7 40 04 59 00
	00 00		 mov	 DWORD PTR [eax+4], 89	; 00000059H

; 1185 : 
; 1186 : 	explosion_info->sprite_count 				=	1;

  00577	8b 45 fc	 mov	 eax, DWORD PTR _explosion_info$[ebp]
  0057a	c7 40 08 01 00
	00 00		 mov	 DWORD PTR [eax+8], 1

; 1187 : 
; 1188 : 	explosion_info->red 							=	255;

  00581	8b 45 fc	 mov	 eax, DWORD PTR _explosion_info$[ebp]
  00584	c6 40 0c ff	 mov	 BYTE PTR [eax+12], 255	; 000000ffH

; 1189 : 	explosion_info->green 						= 	255;

  00588	8b 45 fc	 mov	 eax, DWORD PTR _explosion_info$[ebp]
  0058b	c6 40 0d ff	 mov	 BYTE PTR [eax+13], 255	; 000000ffH

; 1190 : 	explosion_info->blue 						=	255;

  0058f	8b 45 fc	 mov	 eax, DWORD PTR _explosion_info$[ebp]
  00592	c6 40 0e ff	 mov	 BYTE PTR [eax+14], 255	; 000000ffH

; 1191 : 	explosion_info->alpha 						=	255;

  00596	8b 45 fc	 mov	 eax, DWORD PTR _explosion_info$[ebp]
  00599	c6 40 0f ff	 mov	 BYTE PTR [eax+15], 255	; 000000ffH

; 1192 : 
; 1193 : 	explosion_info->additive 					=	TRUE;

  0059d	8b 45 fc	 mov	 eax, DWORD PTR _explosion_info$[ebp]
  005a0	8a 48 10	 mov	 cl, BYTE PTR [eax+16]
  005a3	80 c9 01	 or	 cl, 1
  005a6	8b 55 fc	 mov	 edx, DWORD PTR _explosion_info$[ebp]
  005a9	88 4a 10	 mov	 BYTE PTR [edx+16], cl

; 1194 : 
; 1195 : 	explosion_info->blast_hemisphere_only	=	TRUE;

  005ac	8b 45 fc	 mov	 eax, DWORD PTR _explosion_info$[ebp]
  005af	8a 48 10	 mov	 cl, BYTE PTR [eax+16]
  005b2	80 c9 02	 or	 cl, 2
  005b5	8b 55 fc	 mov	 edx, DWORD PTR _explosion_info$[ebp]
  005b8	88 4a 10	 mov	 BYTE PTR [edx+16], cl

; 1196 : 
; 1197 : 	explosion_info->delay_max 					=	0.0;

  005bb	8b 45 fc	 mov	 eax, DWORD PTR _explosion_info$[ebp]
  005be	0f 57 c0	 xorps	 xmm0, xmm0
  005c1	f3 0f 11 40 14	 movss	 DWORD PTR [eax+20], xmm0

; 1198 : 
; 1199 : 	explosion_info->lifetime_min 				=	1.0;

  005c6	8b 45 fc	 mov	 eax, DWORD PTR _explosion_info$[ebp]
  005c9	f3 0f 10 05 00
	00 00 00	 movss	 xmm0, DWORD PTR __real@3f800000
  005d1	f3 0f 11 40 18	 movss	 DWORD PTR [eax+24], xmm0

; 1200 : 	explosion_info->lifetime_max 				=	1.0;

  005d6	8b 45 fc	 mov	 eax, DWORD PTR _explosion_info$[ebp]
  005d9	f3 0f 10 05 00
	00 00 00	 movss	 xmm0, DWORD PTR __real@3f800000
  005e1	f3 0f 11 40 1c	 movss	 DWORD PTR [eax+28], xmm0

; 1201 : 
; 1202 : 	explosion_info->scale_min 					=	40.0;

  005e6	8b 45 fc	 mov	 eax, DWORD PTR _explosion_info$[ebp]
  005e9	f3 0f 10 05 00
	00 00 00	 movss	 xmm0, DWORD PTR __real@42200000
  005f1	f3 0f 11 40 20	 movss	 DWORD PTR [eax+32], xmm0

; 1203 : 	explosion_info->scale_max 					=	7.5;

  005f6	8b 45 fc	 mov	 eax, DWORD PTR _explosion_info$[ebp]
  005f9	f3 0f 10 05 00
	00 00 00	 movss	 xmm0, DWORD PTR __real@40f00000
  00601	f3 0f 11 40 24	 movss	 DWORD PTR [eax+36], xmm0

; 1204 : 
; 1205 : 	explosion_info->blast_radius		 		=	0.0;

  00606	8b 45 fc	 mov	 eax, DWORD PTR _explosion_info$[ebp]
  00609	0f 57 c0	 xorps	 xmm0, xmm0
  0060c	f3 0f 11 40 28	 movss	 DWORD PTR [eax+40], xmm0

; 1206 : 
; 1207 : 	explosion_info->animation_frequency		=	2.0;

  00611	8b 45 fc	 mov	 eax, DWORD PTR _explosion_info$[ebp]
  00614	f3 0f 10 05 00
	00 00 00	 movss	 xmm0, DWORD PTR __real@40000000
  0061c	f3 0f 11 40 2c	 movss	 DWORD PTR [eax+44], xmm0

; 1208 : 
; 1209 : 	explosion_info->rotation_rate		=	1.0;

  00621	8b 45 fc	 mov	 eax, DWORD PTR _explosion_info$[ebp]
  00624	f3 0f 10 05 00
	00 00 00	 movss	 xmm0, DWORD PTR __real@3f800000
  0062c	f3 0f 11 40 30	 movss	 DWORD PTR [eax+48], xmm0

; 1210 : 
; 1211 : 	//
; 1212 : 	// component 3
; 1213 : 	//
; 1214 : 
; 1215 : 	explosion_info = &(this_explosion->component[ 3 ]);

  00631	b8 34 00 00 00	 mov	 eax, 52			; 00000034H
  00636	6b c8 03	 imul	 ecx, eax, 3
  00639	8b 55 f8	 mov	 edx, DWORD PTR _this_explosion$[ebp]
  0063c	03 4a 0c	 add	 ecx, DWORD PTR [edx+12]
  0063f	89 4d fc	 mov	 DWORD PTR _explosion_info$[ebp], ecx

; 1216 : 
; 1217 : 	explosion_info->type 						=	EXPLOSION_SPRITES;

  00642	8b 45 fc	 mov	 eax, DWORD PTR _explosion_info$[ebp]
  00645	c7 00 00 00 00
	00		 mov	 DWORD PTR [eax], 0

; 1218 : 
; 1219 : 	explosion_info->animated_texture 		=	TEXTURE_ANIMATION_INDEX_CANNON_FLARE;

  0064b	8b 45 fc	 mov	 eax, DWORD PTR _explosion_info$[ebp]
  0064e	c7 40 04 59 00
	00 00		 mov	 DWORD PTR [eax+4], 89	; 00000059H

; 1220 : 
; 1221 : 	explosion_info->sprite_count 				=	1;

  00655	8b 45 fc	 mov	 eax, DWORD PTR _explosion_info$[ebp]
  00658	c7 40 08 01 00
	00 00		 mov	 DWORD PTR [eax+8], 1

; 1222 : 
; 1223 : 	explosion_info->red 							=	255;

  0065f	8b 45 fc	 mov	 eax, DWORD PTR _explosion_info$[ebp]
  00662	c6 40 0c ff	 mov	 BYTE PTR [eax+12], 255	; 000000ffH

; 1224 : 	explosion_info->green 						= 	255;

  00666	8b 45 fc	 mov	 eax, DWORD PTR _explosion_info$[ebp]
  00669	c6 40 0d ff	 mov	 BYTE PTR [eax+13], 255	; 000000ffH

; 1225 : 	explosion_info->blue 						=	255;

  0066d	8b 45 fc	 mov	 eax, DWORD PTR _explosion_info$[ebp]
  00670	c6 40 0e ff	 mov	 BYTE PTR [eax+14], 255	; 000000ffH

; 1226 : 	explosion_info->alpha 						=	255;

  00674	8b 45 fc	 mov	 eax, DWORD PTR _explosion_info$[ebp]
  00677	c6 40 0f ff	 mov	 BYTE PTR [eax+15], 255	; 000000ffH

; 1227 : 
; 1228 : 	explosion_info->additive 					=	TRUE;

  0067b	8b 45 fc	 mov	 eax, DWORD PTR _explosion_info$[ebp]
  0067e	8a 48 10	 mov	 cl, BYTE PTR [eax+16]
  00681	80 c9 01	 or	 cl, 1
  00684	8b 55 fc	 mov	 edx, DWORD PTR _explosion_info$[ebp]
  00687	88 4a 10	 mov	 BYTE PTR [edx+16], cl

; 1229 : 
; 1230 : 	explosion_info->blast_hemisphere_only	=	TRUE;

  0068a	8b 45 fc	 mov	 eax, DWORD PTR _explosion_info$[ebp]
  0068d	8a 48 10	 mov	 cl, BYTE PTR [eax+16]
  00690	80 c9 02	 or	 cl, 2
  00693	8b 55 fc	 mov	 edx, DWORD PTR _explosion_info$[ebp]
  00696	88 4a 10	 mov	 BYTE PTR [edx+16], cl

; 1231 : 
; 1232 : 	explosion_info->delay_max 					=	0.3;

  00699	8b 45 fc	 mov	 eax, DWORD PTR _explosion_info$[ebp]
  0069c	f3 0f 10 05 00
	00 00 00	 movss	 xmm0, DWORD PTR __real@3e99999a
  006a4	f3 0f 11 40 14	 movss	 DWORD PTR [eax+20], xmm0

; 1233 : 
; 1234 : 	explosion_info->lifetime_min 				=	1.0;

  006a9	8b 45 fc	 mov	 eax, DWORD PTR _explosion_info$[ebp]
  006ac	f3 0f 10 05 00
	00 00 00	 movss	 xmm0, DWORD PTR __real@3f800000
  006b4	f3 0f 11 40 18	 movss	 DWORD PTR [eax+24], xmm0

; 1235 : 	explosion_info->lifetime_max 				=	1.0;

  006b9	8b 45 fc	 mov	 eax, DWORD PTR _explosion_info$[ebp]
  006bc	f3 0f 10 05 00
	00 00 00	 movss	 xmm0, DWORD PTR __real@3f800000
  006c4	f3 0f 11 40 1c	 movss	 DWORD PTR [eax+28], xmm0

; 1236 : 
; 1237 : 	explosion_info->scale_min 					=	30.0;

  006c9	8b 45 fc	 mov	 eax, DWORD PTR _explosion_info$[ebp]
  006cc	f3 0f 10 05 00
	00 00 00	 movss	 xmm0, DWORD PTR __real@41f00000
  006d4	f3 0f 11 40 20	 movss	 DWORD PTR [eax+32], xmm0

; 1238 : 	explosion_info->scale_max 					=	5.0;

  006d9	8b 45 fc	 mov	 eax, DWORD PTR _explosion_info$[ebp]
  006dc	f3 0f 10 05 00
	00 00 00	 movss	 xmm0, DWORD PTR __real@40a00000
  006e4	f3 0f 11 40 24	 movss	 DWORD PTR [eax+36], xmm0

; 1239 : 
; 1240 : 	explosion_info->blast_radius		 		=	6.0;

  006e9	8b 45 fc	 mov	 eax, DWORD PTR _explosion_info$[ebp]
  006ec	f3 0f 10 05 00
	00 00 00	 movss	 xmm0, DWORD PTR __real@40c00000
  006f4	f3 0f 11 40 28	 movss	 DWORD PTR [eax+40], xmm0

; 1241 : 
; 1242 : 	explosion_info->animation_frequency		=	2.0;

  006f9	8b 45 fc	 mov	 eax, DWORD PTR _explosion_info$[ebp]
  006fc	f3 0f 10 05 00
	00 00 00	 movss	 xmm0, DWORD PTR __real@40000000
  00704	f3 0f 11 40 2c	 movss	 DWORD PTR [eax+44], xmm0

; 1243 : 
; 1244 : 	explosion_info->rotation_rate		=	1.0;

  00709	8b 45 fc	 mov	 eax, DWORD PTR _explosion_info$[ebp]
  0070c	f3 0f 10 05 00
	00 00 00	 movss	 xmm0, DWORD PTR __real@3f800000
  00714	f3 0f 11 40 30	 movss	 DWORD PTR [eax+48], xmm0

; 1245 : 
; 1246 : 	//
; 1247 : 	// component 4
; 1248 : 	//
; 1249 : 
; 1250 : 	explosion_info = &(this_explosion->component[ 4 ]);

  00719	b8 34 00 00 00	 mov	 eax, 52			; 00000034H
  0071e	c1 e0 02	 shl	 eax, 2
  00721	8b 4d f8	 mov	 ecx, DWORD PTR _this_explosion$[ebp]
  00724	03 41 0c	 add	 eax, DWORD PTR [ecx+12]
  00727	89 45 fc	 mov	 DWORD PTR _explosion_info$[ebp], eax

; 1251 : 
; 1252 : 	explosion_info->type 						= EXPLOSION_SOUND_EFFECT;

  0072a	8b 45 fc	 mov	 eax, DWORD PTR _explosion_info$[ebp]
  0072d	c7 00 04 00 00
	00		 mov	 DWORD PTR [eax], 4

; 1253 : 
; 1254 : 	explosion_info->sound_type 				= SOUND_SAMPLE_INDEX_MEDIUM_EXPLOSION;

  00733	8b 45 fc	 mov	 eax, DWORD PTR _explosion_info$[ebp]
  00736	c7 40 04 4e 00
	00 00		 mov	 DWORD PTR [eax+4], 78	; 0000004eH

; 1255 : 	explosion_info->sound_volume 				= 1.0;

  0073d	8b 45 fc	 mov	 eax, DWORD PTR _explosion_info$[ebp]
  00740	f3 0f 10 05 00
	00 00 00	 movss	 xmm0, DWORD PTR __real@3f800000
  00748	f3 0f 11 40 08	 movss	 DWORD PTR [eax+8], xmm0

; 1256 : 
; 1257 : 	//
; 1258 : 	// Werewolf: distant explosion sound
; 1259 : 	//
; 1260 : 
; 1261 : 	explosion_info = &(this_explosion->component[ 5 ]);

  0074d	b8 34 00 00 00	 mov	 eax, 52			; 00000034H
  00752	6b c8 05	 imul	 ecx, eax, 5
  00755	8b 55 f8	 mov	 edx, DWORD PTR _this_explosion$[ebp]
  00758	03 4a 0c	 add	 ecx, DWORD PTR [edx+12]
  0075b	89 4d fc	 mov	 DWORD PTR _explosion_info$[ebp], ecx

; 1262 : 	explosion_info->type 						= EXPLOSION_SOUND_EFFECT;

  0075e	8b 45 fc	 mov	 eax, DWORD PTR _explosion_info$[ebp]
  00761	c7 00 04 00 00
	00		 mov	 DWORD PTR [eax], 4

; 1263 : 	explosion_info->sound_type 				= SOUND_SAMPLE_INDEX_EXPLOSION_DISTANT_1;

  00767	8b 45 fc	 mov	 eax, DWORD PTR _explosion_info$[ebp]
  0076a	c7 40 04 d1 07
	00 00		 mov	 DWORD PTR [eax+4], 2001	; 000007d1H

; 1264 : 	explosion_info->sound_volume 				= 1.0;

  00771	8b 45 fc	 mov	 eax, DWORD PTR _explosion_info$[ebp]
  00774	f3 0f 10 05 00
	00 00 00	 movss	 xmm0, DWORD PTR __real@3f800000
  0077c	f3 0f 11 40 08	 movss	 DWORD PTR [eax+8], xmm0

; 1265 : 
; 1266 : 	////////////////////////////////////////
; 1267 : 	//
; 1268 : 	// LARGE HE EXPLOSION
; 1269 : 	//
; 1270 : 	////////////////////////////////////////
; 1271 : 
; 1272 : 	this_explosion = &(meta_explosion_database[ LARGE_HE_META_EXPLOSION ]);

  00781	b8 10 00 00 00	 mov	 eax, 16			; 00000010H
  00786	c1 e0 03	 shl	 eax, 3
  00789	05 00 00 00 00	 add	 eax, OFFSET ?meta_explosion_database@@3PAUMETA_EXPLOSION_DATA@@A ; meta_explosion_database
  0078e	89 45 f8	 mov	 DWORD PTR _this_explosion$[ebp], eax

; 1273 : 
; 1274 : 	this_explosion->number_of_components	=	8;

  00791	8b 45 f8	 mov	 eax, DWORD PTR _this_explosion$[ebp]
  00794	c7 00 08 00 00
	00		 mov	 DWORD PTR [eax], 8

; 1275 : 
; 1276 : 	this_explosion->damage_radius				=	60.0;

  0079a	8b 45 f8	 mov	 eax, DWORD PTR _this_explosion$[ebp]
  0079d	f3 0f 10 05 00
	00 00 00	 movss	 xmm0, DWORD PTR __real@42700000
  007a5	f3 0f 11 40 04	 movss	 DWORD PTR [eax+4], xmm0

; 1277 : 
; 1278 : 	this_explosion->show_on_map				=	TRUE;

  007aa	8b 45 f8	 mov	 eax, DWORD PTR _this_explosion$[ebp]
  007ad	c7 40 08 01 00
	00 00		 mov	 DWORD PTR [eax+8], 1

; 1279 : 
; 1280 : 	this_explosion->component = (meta_explosion_component *) malloc_fast_mem( sizeof( meta_explosion_component ) * this_explosion->number_of_components );

  007b4	8b 45 f8	 mov	 eax, DWORD PTR _this_explosion$[ebp]
  007b7	6b 08 34	 imul	 ecx, DWORD PTR [eax], 52
  007ba	51		 push	 ecx
  007bb	e8 00 00 00 00	 call	 ?malloc_fast_memory@@YGPAXI@Z ; malloc_fast_memory
  007c0	8b 55 f8	 mov	 edx, DWORD PTR _this_explosion$[ebp]
  007c3	89 42 0c	 mov	 DWORD PTR [edx+12], eax

; 1281 : 
; 1282 : 	//
; 1283 : 	// component 0
; 1284 : 	//
; 1285 : 
; 1286 : 	explosion_info = &(this_explosion->component[ 0 ]);

  007c6	b8 34 00 00 00	 mov	 eax, 52			; 00000034H
  007cb	6b c8 00	 imul	 ecx, eax, 0
  007ce	8b 55 f8	 mov	 edx, DWORD PTR _this_explosion$[ebp]
  007d1	03 4a 0c	 add	 ecx, DWORD PTR [edx+12]
  007d4	89 4d fc	 mov	 DWORD PTR _explosion_info$[ebp], ecx

; 1287 : 
; 1288 : 	explosion_info->type 						=	EXPLOSION_OBJECTS;

  007d7	8b 45 fc	 mov	 eax, DWORD PTR _explosion_info$[ebp]
  007da	c7 00 01 00 00
	00		 mov	 DWORD PTR [eax], 1

; 1289 : 
; 1290 : 	explosion_info->object_3d_shape 			=	OBJECT_3D_EFFECT_DEBRI;

  007e0	8b 45 fc	 mov	 eax, DWORD PTR _explosion_info$[ebp]
  007e3	c7 40 04 18 0a
	00 00		 mov	 DWORD PTR [eax+4], 2584	; 00000a18H

; 1291 : 
; 1292 : 	explosion_info->object_count 				=	1;

  007ea	8b 45 fc	 mov	 eax, DWORD PTR _explosion_info$[ebp]
  007ed	c7 40 08 01 00
	00 00		 mov	 DWORD PTR [eax+8], 1

; 1293 : 
; 1294 : 	explosion_info->red 							=	160;

  007f4	8b 45 fc	 mov	 eax, DWORD PTR _explosion_info$[ebp]
  007f7	c6 40 0c a0	 mov	 BYTE PTR [eax+12], 160	; 000000a0H

; 1295 : 	explosion_info->green 						= 	160;

  007fb	8b 45 fc	 mov	 eax, DWORD PTR _explosion_info$[ebp]
  007fe	c6 40 0d a0	 mov	 BYTE PTR [eax+13], 160	; 000000a0H

; 1296 : 	explosion_info->blue 						=	160;

  00802	8b 45 fc	 mov	 eax, DWORD PTR _explosion_info$[ebp]
  00805	c6 40 0e a0	 mov	 BYTE PTR [eax+14], 160	; 000000a0H

; 1297 : 	explosion_info->alpha 						=	180;

  00809	8b 45 fc	 mov	 eax, DWORD PTR _explosion_info$[ebp]
  0080c	c6 40 0f b4	 mov	 BYTE PTR [eax+15], 180	; 000000b4H

; 1298 : 
; 1299 : 	explosion_info->blast_hemisphere_only	=	TRUE;

  00810	8b 45 fc	 mov	 eax, DWORD PTR _explosion_info$[ebp]
  00813	8a 48 10	 mov	 cl, BYTE PTR [eax+16]
  00816	80 c9 02	 or	 cl, 2
  00819	8b 55 fc	 mov	 edx, DWORD PTR _explosion_info$[ebp]
  0081c	88 4a 10	 mov	 BYTE PTR [edx+16], cl

; 1300 : 
; 1301 : 	explosion_info->delay_max 					=	0.0;

  0081f	8b 45 fc	 mov	 eax, DWORD PTR _explosion_info$[ebp]
  00822	0f 57 c0	 xorps	 xmm0, xmm0
  00825	f3 0f 11 40 14	 movss	 DWORD PTR [eax+20], xmm0

; 1302 : 
; 1303 : 	explosion_info->lifetime_min 				=	1.75;

  0082a	8b 45 fc	 mov	 eax, DWORD PTR _explosion_info$[ebp]
  0082d	f3 0f 10 05 00
	00 00 00	 movss	 xmm0, DWORD PTR __real@3fe00000
  00835	f3 0f 11 40 18	 movss	 DWORD PTR [eax+24], xmm0

; 1304 : 	explosion_info->lifetime_max 				=	1.75;

  0083a	8b 45 fc	 mov	 eax, DWORD PTR _explosion_info$[ebp]
  0083d	f3 0f 10 05 00
	00 00 00	 movss	 xmm0, DWORD PTR __real@3fe00000
  00845	f3 0f 11 40 1c	 movss	 DWORD PTR [eax+28], xmm0

; 1305 : 
; 1306 : 	explosion_info->scale_min 					=	4.0;

  0084a	8b 45 fc	 mov	 eax, DWORD PTR _explosion_info$[ebp]
  0084d	f3 0f 10 05 00
	00 00 00	 movss	 xmm0, DWORD PTR __real@40800000
  00855	f3 0f 11 40 20	 movss	 DWORD PTR [eax+32], xmm0

; 1307 : 	explosion_info->scale_max 					=	4.0;

  0085a	8b 45 fc	 mov	 eax, DWORD PTR _explosion_info$[ebp]
  0085d	f3 0f 10 05 00
	00 00 00	 movss	 xmm0, DWORD PTR __real@40800000
  00865	f3 0f 11 40 24	 movss	 DWORD PTR [eax+36], xmm0

; 1308 : 
; 1309 : 	explosion_info->blast_radius		 		=	0.0;

  0086a	8b 45 fc	 mov	 eax, DWORD PTR _explosion_info$[ebp]
  0086d	0f 57 c0	 xorps	 xmm0, xmm0
  00870	f3 0f 11 40 28	 movss	 DWORD PTR [eax+40], xmm0

; 1310 : 
; 1311 : 	//
; 1312 : 	// component 1
; 1313 : 	//
; 1314 : 
; 1315 : 	explosion_info = &(this_explosion->component[ 1 ]);

  00875	b8 34 00 00 00	 mov	 eax, 52			; 00000034H
  0087a	c1 e0 00	 shl	 eax, 0
  0087d	8b 4d f8	 mov	 ecx, DWORD PTR _this_explosion$[ebp]
  00880	03 41 0c	 add	 eax, DWORD PTR [ecx+12]
  00883	89 45 fc	 mov	 DWORD PTR _explosion_info$[ebp], eax

; 1316 : 
; 1317 : 	explosion_info->type 						=	EXPLOSION_OBJECTS;

  00886	8b 45 fc	 mov	 eax, DWORD PTR _explosion_info$[ebp]
  00889	c7 00 01 00 00
	00		 mov	 DWORD PTR [eax], 1

; 1318 : 
; 1319 : 	explosion_info->object_3d_shape 			=	OBJECT_3D_EFFECT_FIREBALL;

  0088f	8b 45 fc	 mov	 eax, DWORD PTR _explosion_info$[ebp]
  00892	c7 40 04 19 0a
	00 00		 mov	 DWORD PTR [eax+4], 2585	; 00000a19H

; 1320 : 
; 1321 : 	explosion_info->object_count 				=	1;

  00899	8b 45 fc	 mov	 eax, DWORD PTR _explosion_info$[ebp]
  0089c	c7 40 08 01 00
	00 00		 mov	 DWORD PTR [eax+8], 1

; 1322 : 
; 1323 : 	explosion_info->red 							=	160;

  008a3	8b 45 fc	 mov	 eax, DWORD PTR _explosion_info$[ebp]
  008a6	c6 40 0c a0	 mov	 BYTE PTR [eax+12], 160	; 000000a0H

; 1324 : 	explosion_info->green 						= 	160;

  008aa	8b 45 fc	 mov	 eax, DWORD PTR _explosion_info$[ebp]
  008ad	c6 40 0d a0	 mov	 BYTE PTR [eax+13], 160	; 000000a0H

; 1325 : 	explosion_info->blue 						=	160;

  008b1	8b 45 fc	 mov	 eax, DWORD PTR _explosion_info$[ebp]
  008b4	c6 40 0e a0	 mov	 BYTE PTR [eax+14], 160	; 000000a0H

; 1326 : 	explosion_info->alpha 						=	180;

  008b8	8b 45 fc	 mov	 eax, DWORD PTR _explosion_info$[ebp]
  008bb	c6 40 0f b4	 mov	 BYTE PTR [eax+15], 180	; 000000b4H

; 1327 : 
; 1328 : 	explosion_info->blast_hemisphere_only	=	TRUE;

  008bf	8b 45 fc	 mov	 eax, DWORD PTR _explosion_info$[ebp]
  008c2	8a 48 10	 mov	 cl, BYTE PTR [eax+16]
  008c5	80 c9 02	 or	 cl, 2
  008c8	8b 55 fc	 mov	 edx, DWORD PTR _explosion_info$[ebp]
  008cb	88 4a 10	 mov	 BYTE PTR [edx+16], cl

; 1329 : 
; 1330 : 	explosion_info->delay_max 					=	0.0;

  008ce	8b 45 fc	 mov	 eax, DWORD PTR _explosion_info$[ebp]
  008d1	0f 57 c0	 xorps	 xmm0, xmm0
  008d4	f3 0f 11 40 14	 movss	 DWORD PTR [eax+20], xmm0

; 1331 : 
; 1332 : 	explosion_info->lifetime_min 				=	1.75;

  008d9	8b 45 fc	 mov	 eax, DWORD PTR _explosion_info$[ebp]
  008dc	f3 0f 10 05 00
	00 00 00	 movss	 xmm0, DWORD PTR __real@3fe00000
  008e4	f3 0f 11 40 18	 movss	 DWORD PTR [eax+24], xmm0

; 1333 : 	explosion_info->lifetime_max 				=	1.75;

  008e9	8b 45 fc	 mov	 eax, DWORD PTR _explosion_info$[ebp]
  008ec	f3 0f 10 05 00
	00 00 00	 movss	 xmm0, DWORD PTR __real@3fe00000
  008f4	f3 0f 11 40 1c	 movss	 DWORD PTR [eax+28], xmm0

; 1334 : 
; 1335 : 	explosion_info->scale_min 					=	10.0;

  008f9	8b 45 fc	 mov	 eax, DWORD PTR _explosion_info$[ebp]
  008fc	f3 0f 10 05 00
	00 00 00	 movss	 xmm0, DWORD PTR __real@41200000
  00904	f3 0f 11 40 20	 movss	 DWORD PTR [eax+32], xmm0

; 1336 : 	explosion_info->scale_max 					=	10.0;

  00909	8b 45 fc	 mov	 eax, DWORD PTR _explosion_info$[ebp]
  0090c	f3 0f 10 05 00
	00 00 00	 movss	 xmm0, DWORD PTR __real@41200000
  00914	f3 0f 11 40 24	 movss	 DWORD PTR [eax+36], xmm0

; 1337 : 
; 1338 : 	explosion_info->blast_radius		 		=	0.0;

  00919	8b 45 fc	 mov	 eax, DWORD PTR _explosion_info$[ebp]
  0091c	0f 57 c0	 xorps	 xmm0, xmm0
  0091f	f3 0f 11 40 28	 movss	 DWORD PTR [eax+40], xmm0

; 1339 : 
; 1340 : 	//
; 1341 : 	// component 2
; 1342 : 	//
; 1343 : 
; 1344 : 	explosion_info = &(this_explosion->component[ 2 ]);

  00924	b8 34 00 00 00	 mov	 eax, 52			; 00000034H
  00929	d1 e0		 shl	 eax, 1
  0092b	8b 4d f8	 mov	 ecx, DWORD PTR _this_explosion$[ebp]
  0092e	03 41 0c	 add	 eax, DWORD PTR [ecx+12]
  00931	89 45 fc	 mov	 DWORD PTR _explosion_info$[ebp], eax

; 1345 : 
; 1346 : 	explosion_info->type 						=	EXPLOSION_SPRITES;

  00934	8b 45 fc	 mov	 eax, DWORD PTR _explosion_info$[ebp]
  00937	c7 00 00 00 00
	00		 mov	 DWORD PTR [eax], 0

; 1347 : 
; 1348 : 	explosion_info->animated_texture 		=	TEXTURE_ANIMATION_INDEX_CANNON_FLARE;

  0093d	8b 45 fc	 mov	 eax, DWORD PTR _explosion_info$[ebp]
  00940	c7 40 04 59 00
	00 00		 mov	 DWORD PTR [eax+4], 89	; 00000059H

; 1349 : 
; 1350 : 	explosion_info->sprite_count 				=	3;

  00947	8b 45 fc	 mov	 eax, DWORD PTR _explosion_info$[ebp]
  0094a	c7 40 08 03 00
	00 00		 mov	 DWORD PTR [eax+8], 3

; 1351 : 
; 1352 : 	explosion_info->red 							=	255;

  00951	8b 45 fc	 mov	 eax, DWORD PTR _explosion_info$[ebp]
  00954	c6 40 0c ff	 mov	 BYTE PTR [eax+12], 255	; 000000ffH

; 1353 : 	explosion_info->green 						= 	255;

  00958	8b 45 fc	 mov	 eax, DWORD PTR _explosion_info$[ebp]
  0095b	c6 40 0d ff	 mov	 BYTE PTR [eax+13], 255	; 000000ffH

; 1354 : 	explosion_info->blue 						=	255;

  0095f	8b 45 fc	 mov	 eax, DWORD PTR _explosion_info$[ebp]
  00962	c6 40 0e ff	 mov	 BYTE PTR [eax+14], 255	; 000000ffH

; 1355 : 	explosion_info->alpha 						=	255;

  00966	8b 45 fc	 mov	 eax, DWORD PTR _explosion_info$[ebp]
  00969	c6 40 0f ff	 mov	 BYTE PTR [eax+15], 255	; 000000ffH

; 1356 : 
; 1357 : 	explosion_info->additive 					=	TRUE;

  0096d	8b 45 fc	 mov	 eax, DWORD PTR _explosion_info$[ebp]
  00970	8a 48 10	 mov	 cl, BYTE PTR [eax+16]
  00973	80 c9 01	 or	 cl, 1
  00976	8b 55 fc	 mov	 edx, DWORD PTR _explosion_info$[ebp]
  00979	88 4a 10	 mov	 BYTE PTR [edx+16], cl

; 1358 : 
; 1359 : 	explosion_info->blast_hemisphere_only	=	TRUE;

  0097c	8b 45 fc	 mov	 eax, DWORD PTR _explosion_info$[ebp]
  0097f	8a 48 10	 mov	 cl, BYTE PTR [eax+16]
  00982	80 c9 02	 or	 cl, 2
  00985	8b 55 fc	 mov	 edx, DWORD PTR _explosion_info$[ebp]
  00988	88 4a 10	 mov	 BYTE PTR [edx+16], cl

; 1360 : 
; 1361 : 	explosion_info->delay_max 					=	1.0;

  0098b	8b 45 fc	 mov	 eax, DWORD PTR _explosion_info$[ebp]
  0098e	f3 0f 10 05 00
	00 00 00	 movss	 xmm0, DWORD PTR __real@3f800000
  00996	f3 0f 11 40 14	 movss	 DWORD PTR [eax+20], xmm0

; 1362 : 
; 1363 : 	explosion_info->lifetime_min 				=	1.0;

  0099b	8b 45 fc	 mov	 eax, DWORD PTR _explosion_info$[ebp]
  0099e	f3 0f 10 05 00
	00 00 00	 movss	 xmm0, DWORD PTR __real@3f800000
  009a6	f3 0f 11 40 18	 movss	 DWORD PTR [eax+24], xmm0

; 1364 : 	explosion_info->lifetime_max 				=	1.0;

  009ab	8b 45 fc	 mov	 eax, DWORD PTR _explosion_info$[ebp]
  009ae	f3 0f 10 05 00
	00 00 00	 movss	 xmm0, DWORD PTR __real@3f800000
  009b6	f3 0f 11 40 1c	 movss	 DWORD PTR [eax+28], xmm0

; 1365 : 
; 1366 : 	explosion_info->scale_min 					=	50.0;

  009bb	8b 45 fc	 mov	 eax, DWORD PTR _explosion_info$[ebp]
  009be	f3 0f 10 05 00
	00 00 00	 movss	 xmm0, DWORD PTR __real@42480000
  009c6	f3 0f 11 40 20	 movss	 DWORD PTR [eax+32], xmm0

; 1367 : 	explosion_info->scale_max 					=	10.0;

  009cb	8b 45 fc	 mov	 eax, DWORD PTR _explosion_info$[ebp]
  009ce	f3 0f 10 05 00
	00 00 00	 movss	 xmm0, DWORD PTR __real@41200000
  009d6	f3 0f 11 40 24	 movss	 DWORD PTR [eax+36], xmm0

; 1368 : 
; 1369 : 	explosion_info->blast_radius		 		=	18.0;

  009db	8b 45 fc	 mov	 eax, DWORD PTR _explosion_info$[ebp]
  009de	f3 0f 10 05 00
	00 00 00	 movss	 xmm0, DWORD PTR __real@41900000
  009e6	f3 0f 11 40 28	 movss	 DWORD PTR [eax+40], xmm0

; 1370 : 
; 1371 : 	explosion_info->animation_frequency		=	2.0;

  009eb	8b 45 fc	 mov	 eax, DWORD PTR _explosion_info$[ebp]
  009ee	f3 0f 10 05 00
	00 00 00	 movss	 xmm0, DWORD PTR __real@40000000
  009f6	f3 0f 11 40 2c	 movss	 DWORD PTR [eax+44], xmm0

; 1372 : 
; 1373 : 	explosion_info->rotation_rate		=	1.0;

  009fb	8b 45 fc	 mov	 eax, DWORD PTR _explosion_info$[ebp]
  009fe	f3 0f 10 05 00
	00 00 00	 movss	 xmm0, DWORD PTR __real@3f800000
  00a06	f3 0f 11 40 30	 movss	 DWORD PTR [eax+48], xmm0

; 1374 : 
; 1375 : 	//
; 1376 : 	// component 3
; 1377 : 	//
; 1378 : 
; 1379 : 	explosion_info = &(this_explosion->component[ 3 ]);

  00a0b	b8 34 00 00 00	 mov	 eax, 52			; 00000034H
  00a10	6b c8 03	 imul	 ecx, eax, 3
  00a13	8b 55 f8	 mov	 edx, DWORD PTR _this_explosion$[ebp]
  00a16	03 4a 0c	 add	 ecx, DWORD PTR [edx+12]
  00a19	89 4d fc	 mov	 DWORD PTR _explosion_info$[ebp], ecx

; 1380 : 
; 1381 : 	explosion_info->type 						=	EXPLOSION_SPRITES;

  00a1c	8b 45 fc	 mov	 eax, DWORD PTR _explosion_info$[ebp]
  00a1f	c7 00 00 00 00
	00		 mov	 DWORD PTR [eax], 0

; 1382 : 
; 1383 : 	explosion_info->animated_texture 		=	TEXTURE_ANIMATION_INDEX_MISSILE_FLARE;

  00a25	8b 45 fc	 mov	 eax, DWORD PTR _explosion_info$[ebp]
  00a28	c7 40 04 61 00
	00 00		 mov	 DWORD PTR [eax+4], 97	; 00000061H

; 1384 : 
; 1385 : 	explosion_info->sprite_count 				=	3;

  00a2f	8b 45 fc	 mov	 eax, DWORD PTR _explosion_info$[ebp]
  00a32	c7 40 08 03 00
	00 00		 mov	 DWORD PTR [eax+8], 3

; 1386 : 
; 1387 : 	explosion_info->red 							=	255;

  00a39	8b 45 fc	 mov	 eax, DWORD PTR _explosion_info$[ebp]
  00a3c	c6 40 0c ff	 mov	 BYTE PTR [eax+12], 255	; 000000ffH

; 1388 : 	explosion_info->green 						= 	255;

  00a40	8b 45 fc	 mov	 eax, DWORD PTR _explosion_info$[ebp]
  00a43	c6 40 0d ff	 mov	 BYTE PTR [eax+13], 255	; 000000ffH

; 1389 : 	explosion_info->blue 						=	255;

  00a47	8b 45 fc	 mov	 eax, DWORD PTR _explosion_info$[ebp]
  00a4a	c6 40 0e ff	 mov	 BYTE PTR [eax+14], 255	; 000000ffH

; 1390 : 	explosion_info->alpha 						=	255;

  00a4e	8b 45 fc	 mov	 eax, DWORD PTR _explosion_info$[ebp]
  00a51	c6 40 0f ff	 mov	 BYTE PTR [eax+15], 255	; 000000ffH

; 1391 : 
; 1392 : 	explosion_info->additive 					=	TRUE;

  00a55	8b 45 fc	 mov	 eax, DWORD PTR _explosion_info$[ebp]
  00a58	8a 48 10	 mov	 cl, BYTE PTR [eax+16]
  00a5b	80 c9 01	 or	 cl, 1
  00a5e	8b 55 fc	 mov	 edx, DWORD PTR _explosion_info$[ebp]
  00a61	88 4a 10	 mov	 BYTE PTR [edx+16], cl

; 1393 : 
; 1394 : 	explosion_info->blast_hemisphere_only	=	TRUE;

  00a64	8b 45 fc	 mov	 eax, DWORD PTR _explosion_info$[ebp]
  00a67	8a 48 10	 mov	 cl, BYTE PTR [eax+16]
  00a6a	80 c9 02	 or	 cl, 2
  00a6d	8b 55 fc	 mov	 edx, DWORD PTR _explosion_info$[ebp]
  00a70	88 4a 10	 mov	 BYTE PTR [edx+16], cl

; 1395 : 
; 1396 : 	explosion_info->delay_max 					=	0.75;

  00a73	8b 45 fc	 mov	 eax, DWORD PTR _explosion_info$[ebp]
  00a76	f3 0f 10 05 00
	00 00 00	 movss	 xmm0, DWORD PTR __real@3f400000
  00a7e	f3 0f 11 40 14	 movss	 DWORD PTR [eax+20], xmm0

; 1397 : 
; 1398 : 	explosion_info->lifetime_min 				=	1.0;

  00a83	8b 45 fc	 mov	 eax, DWORD PTR _explosion_info$[ebp]
  00a86	f3 0f 10 05 00
	00 00 00	 movss	 xmm0, DWORD PTR __real@3f800000
  00a8e	f3 0f 11 40 18	 movss	 DWORD PTR [eax+24], xmm0

; 1399 : 	explosion_info->lifetime_max 				=	1.0;

  00a93	8b 45 fc	 mov	 eax, DWORD PTR _explosion_info$[ebp]
  00a96	f3 0f 10 05 00
	00 00 00	 movss	 xmm0, DWORD PTR __real@3f800000
  00a9e	f3 0f 11 40 1c	 movss	 DWORD PTR [eax+28], xmm0

; 1400 : 
; 1401 : 	explosion_info->scale_min 					=	40.0;

  00aa3	8b 45 fc	 mov	 eax, DWORD PTR _explosion_info$[ebp]
  00aa6	f3 0f 10 05 00
	00 00 00	 movss	 xmm0, DWORD PTR __real@42200000
  00aae	f3 0f 11 40 20	 movss	 DWORD PTR [eax+32], xmm0

; 1402 : 	explosion_info->scale_max 					=	8.0;

  00ab3	8b 45 fc	 mov	 eax, DWORD PTR _explosion_info$[ebp]
  00ab6	f3 0f 10 05 00
	00 00 00	 movss	 xmm0, DWORD PTR __real@41000000
  00abe	f3 0f 11 40 24	 movss	 DWORD PTR [eax+36], xmm0

; 1403 : 
; 1404 : 	explosion_info->blast_radius		 		=	17.0;

  00ac3	8b 45 fc	 mov	 eax, DWORD PTR _explosion_info$[ebp]
  00ac6	f3 0f 10 05 00
	00 00 00	 movss	 xmm0, DWORD PTR __real@41880000
  00ace	f3 0f 11 40 28	 movss	 DWORD PTR [eax+40], xmm0

; 1405 : 
; 1406 : 	explosion_info->animation_frequency		=	2.0;

  00ad3	8b 45 fc	 mov	 eax, DWORD PTR _explosion_info$[ebp]
  00ad6	f3 0f 10 05 00
	00 00 00	 movss	 xmm0, DWORD PTR __real@40000000
  00ade	f3 0f 11 40 2c	 movss	 DWORD PTR [eax+44], xmm0

; 1407 : 
; 1408 : 	explosion_info->rotation_rate		=	1.0;

  00ae3	8b 45 fc	 mov	 eax, DWORD PTR _explosion_info$[ebp]
  00ae6	f3 0f 10 05 00
	00 00 00	 movss	 xmm0, DWORD PTR __real@3f800000
  00aee	f3 0f 11 40 30	 movss	 DWORD PTR [eax+48], xmm0

; 1409 : 
; 1410 : 	//
; 1411 : 	// component 4
; 1412 : 	//
; 1413 : 
; 1414 : 	explosion_info = &(this_explosion->component[ 4 ]);

  00af3	b8 34 00 00 00	 mov	 eax, 52			; 00000034H
  00af8	c1 e0 02	 shl	 eax, 2
  00afb	8b 4d f8	 mov	 ecx, DWORD PTR _this_explosion$[ebp]
  00afe	03 41 0c	 add	 eax, DWORD PTR [ecx+12]
  00b01	89 45 fc	 mov	 DWORD PTR _explosion_info$[ebp], eax

; 1415 : 
; 1416 : 	explosion_info->type 						= EXPLOSION_SOUND_EFFECT;

  00b04	8b 45 fc	 mov	 eax, DWORD PTR _explosion_info$[ebp]
  00b07	c7 00 04 00 00
	00		 mov	 DWORD PTR [eax], 4

; 1417 : 
; 1418 : 	explosion_info->sound_type 				= SOUND_SAMPLE_INDEX_LARGE_EXPLOSION;

  00b0d	8b 45 fc	 mov	 eax, DWORD PTR _explosion_info$[ebp]
  00b10	c7 40 04 4d 00
	00 00		 mov	 DWORD PTR [eax+4], 77	; 0000004dH

; 1419 : 	explosion_info->sound_volume 				= 1.0;

  00b17	8b 45 fc	 mov	 eax, DWORD PTR _explosion_info$[ebp]
  00b1a	f3 0f 10 05 00
	00 00 00	 movss	 xmm0, DWORD PTR __real@3f800000
  00b22	f3 0f 11 40 08	 movss	 DWORD PTR [eax+8], xmm0

; 1420 : 
; 1421 : 	//
; 1422 : 	// component 5
; 1423 : 	//
; 1424 : 
; 1425 : 	explosion_info = &(this_explosion->component[ 5 ]);

  00b27	b8 34 00 00 00	 mov	 eax, 52			; 00000034H
  00b2c	6b c8 05	 imul	 ecx, eax, 5
  00b2f	8b 55 f8	 mov	 edx, DWORD PTR _this_explosion$[ebp]
  00b32	03 4a 0c	 add	 ecx, DWORD PTR [edx+12]
  00b35	89 4d fc	 mov	 DWORD PTR _explosion_info$[ebp], ecx

; 1426 : 
; 1427 : 	explosion_info->type 						=	EXPLOSION_OBJECTS;

  00b38	8b 45 fc	 mov	 eax, DWORD PTR _explosion_info$[ebp]
  00b3b	c7 00 01 00 00
	00		 mov	 DWORD PTR [eax], 1

; 1428 : 
; 1429 : 	explosion_info->object_3d_shape 			=	OBJECT_3D_EFFECT_FIREBALL;

  00b41	8b 45 fc	 mov	 eax, DWORD PTR _explosion_info$[ebp]
  00b44	c7 40 04 19 0a
	00 00		 mov	 DWORD PTR [eax+4], 2585	; 00000a19H

; 1430 : 
; 1431 : 	explosion_info->object_count 				=	0;

  00b4b	8b 45 fc	 mov	 eax, DWORD PTR _explosion_info$[ebp]
  00b4e	c7 40 08 00 00
	00 00		 mov	 DWORD PTR [eax+8], 0

; 1432 : 
; 1433 : 	explosion_info->red 							=	160;

  00b55	8b 45 fc	 mov	 eax, DWORD PTR _explosion_info$[ebp]
  00b58	c6 40 0c a0	 mov	 BYTE PTR [eax+12], 160	; 000000a0H

; 1434 : 	explosion_info->green 						= 	160;

  00b5c	8b 45 fc	 mov	 eax, DWORD PTR _explosion_info$[ebp]
  00b5f	c6 40 0d a0	 mov	 BYTE PTR [eax+13], 160	; 000000a0H

; 1435 : 	explosion_info->blue 						=	160;

  00b63	8b 45 fc	 mov	 eax, DWORD PTR _explosion_info$[ebp]
  00b66	c6 40 0e a0	 mov	 BYTE PTR [eax+14], 160	; 000000a0H

; 1436 : 	explosion_info->alpha 						=	180;

  00b6a	8b 45 fc	 mov	 eax, DWORD PTR _explosion_info$[ebp]
  00b6d	c6 40 0f b4	 mov	 BYTE PTR [eax+15], 180	; 000000b4H

; 1437 : 
; 1438 : 	explosion_info->blast_hemisphere_only	=	TRUE;

  00b71	8b 45 fc	 mov	 eax, DWORD PTR _explosion_info$[ebp]
  00b74	8a 48 10	 mov	 cl, BYTE PTR [eax+16]
  00b77	80 c9 02	 or	 cl, 2
  00b7a	8b 55 fc	 mov	 edx, DWORD PTR _explosion_info$[ebp]
  00b7d	88 4a 10	 mov	 BYTE PTR [edx+16], cl

; 1439 : 
; 1440 : 	explosion_info->delay_max 					=	0.5;

  00b80	8b 45 fc	 mov	 eax, DWORD PTR _explosion_info$[ebp]
  00b83	f3 0f 10 05 00
	00 00 00	 movss	 xmm0, DWORD PTR __real@3f000000
  00b8b	f3 0f 11 40 14	 movss	 DWORD PTR [eax+20], xmm0

; 1441 : 
; 1442 : 	explosion_info->lifetime_min 				=	1.75;

  00b90	8b 45 fc	 mov	 eax, DWORD PTR _explosion_info$[ebp]
  00b93	f3 0f 10 05 00
	00 00 00	 movss	 xmm0, DWORD PTR __real@3fe00000
  00b9b	f3 0f 11 40 18	 movss	 DWORD PTR [eax+24], xmm0

; 1443 : 	explosion_info->lifetime_max 				=	1.75;

  00ba0	8b 45 fc	 mov	 eax, DWORD PTR _explosion_info$[ebp]
  00ba3	f3 0f 10 05 00
	00 00 00	 movss	 xmm0, DWORD PTR __real@3fe00000
  00bab	f3 0f 11 40 1c	 movss	 DWORD PTR [eax+28], xmm0

; 1444 : 
; 1445 : 	explosion_info->scale_min 					=	10.0;

  00bb0	8b 45 fc	 mov	 eax, DWORD PTR _explosion_info$[ebp]
  00bb3	f3 0f 10 05 00
	00 00 00	 movss	 xmm0, DWORD PTR __real@41200000
  00bbb	f3 0f 11 40 20	 movss	 DWORD PTR [eax+32], xmm0

; 1446 : 	explosion_info->scale_max 					=	10.0;

  00bc0	8b 45 fc	 mov	 eax, DWORD PTR _explosion_info$[ebp]
  00bc3	f3 0f 10 05 00
	00 00 00	 movss	 xmm0, DWORD PTR __real@41200000
  00bcb	f3 0f 11 40 24	 movss	 DWORD PTR [eax+36], xmm0

; 1447 : 
; 1448 : 	explosion_info->blast_radius		 		=	0.0;

  00bd0	8b 45 fc	 mov	 eax, DWORD PTR _explosion_info$[ebp]
  00bd3	0f 57 c0	 xorps	 xmm0, xmm0
  00bd6	f3 0f 11 40 28	 movss	 DWORD PTR [eax+40], xmm0

; 1449 : 
; 1450 : 	//
; 1451 : 	// component 6
; 1452 : 	//
; 1453 : 
; 1454 : 	explosion_info = &(this_explosion->component[ 6 ]);

  00bdb	b8 34 00 00 00	 mov	 eax, 52			; 00000034H
  00be0	6b c8 06	 imul	 ecx, eax, 6
  00be3	8b 55 f8	 mov	 edx, DWORD PTR _this_explosion$[ebp]
  00be6	03 4a 0c	 add	 ecx, DWORD PTR [edx+12]
  00be9	89 4d fc	 mov	 DWORD PTR _explosion_info$[ebp], ecx

; 1455 : 
; 1456 : 	explosion_info->type 						= EXPLOSION_PARTICLES;

  00bec	8b 45 fc	 mov	 eax, DWORD PTR _explosion_info$[ebp]
  00bef	c7 00 02 00 00
	00		 mov	 DWORD PTR [eax], 2

; 1457 : 
; 1458 : 	explosion_info->particle_count 			= 0;

  00bf5	8b 45 fc	 mov	 eax, DWORD PTR _explosion_info$[ebp]
  00bf8	c7 40 04 00 00
	00 00		 mov	 DWORD PTR [eax+4], 0

; 1459 : 
; 1460 : 	explosion_info->trail_type 				= SMOKE_LIST_TYPE_SMALL_PARTICLE_TRAIL;

  00bff	8b 45 fc	 mov	 eax, DWORD PTR _explosion_info$[ebp]
  00c02	c7 40 08 08 00
	00 00		 mov	 DWORD PTR [eax+8], 8

; 1461 : 
; 1462 : 	explosion_info->initial_speed 			= 30.0;

  00c09	8b 45 fc	 mov	 eax, DWORD PTR _explosion_info$[ebp]
  00c0c	f3 0f 10 05 00
	00 00 00	 movss	 xmm0, DWORD PTR __real@41f00000
  00c14	f3 0f 11 40 0c	 movss	 DWORD PTR [eax+12], xmm0

; 1463 : 
; 1464 : 	explosion_info->frequency 			= 0.1;

  00c19	8b 45 fc	 mov	 eax, DWORD PTR _explosion_info$[ebp]
  00c1c	f3 0f 10 05 00
	00 00 00	 movss	 xmm0, DWORD PTR __real@3dcccccd
  00c24	f3 0f 11 40 10	 movss	 DWORD PTR [eax+16], xmm0

; 1465 : 
; 1466 : 	explosion_info->smoke_lifetime 			= 1.5;

  00c29	8b 45 fc	 mov	 eax, DWORD PTR _explosion_info$[ebp]
  00c2c	f3 0f 10 05 00
	00 00 00	 movss	 xmm0, DWORD PTR __real@3fc00000
  00c34	f3 0f 11 40 14	 movss	 DWORD PTR [eax+20], xmm0

; 1467 : 
; 1468 : 	//
; 1469 : 	// Werewolf: distant explosion sound
; 1470 : 	//
; 1471 : 
; 1472 : 	explosion_info = &(this_explosion->component[ 7 ]);

  00c39	b8 34 00 00 00	 mov	 eax, 52			; 00000034H
  00c3e	6b c8 07	 imul	 ecx, eax, 7
  00c41	8b 55 f8	 mov	 edx, DWORD PTR _this_explosion$[ebp]
  00c44	03 4a 0c	 add	 ecx, DWORD PTR [edx+12]
  00c47	89 4d fc	 mov	 DWORD PTR _explosion_info$[ebp], ecx

; 1473 : 	explosion_info->type 						= EXPLOSION_SOUND_EFFECT;

  00c4a	8b 45 fc	 mov	 eax, DWORD PTR _explosion_info$[ebp]
  00c4d	c7 00 04 00 00
	00		 mov	 DWORD PTR [eax], 4

; 1474 : 	explosion_info->sound_type 				= SOUND_SAMPLE_INDEX_EXPLOSION_DISTANT_1;

  00c53	8b 45 fc	 mov	 eax, DWORD PTR _explosion_info$[ebp]
  00c56	c7 40 04 d1 07
	00 00		 mov	 DWORD PTR [eax+4], 2001	; 000007d1H

; 1475 : 	explosion_info->sound_volume 				= 1.0;

  00c5d	8b 45 fc	 mov	 eax, DWORD PTR _explosion_info$[ebp]
  00c60	f3 0f 10 05 00
	00 00 00	 movss	 xmm0, DWORD PTR __real@3f800000
  00c68	f3 0f 11 40 08	 movss	 DWORD PTR [eax+8], xmm0

; 1476 : }

  00c6d	5f		 pop	 edi
  00c6e	5e		 pop	 esi
  00c6f	5b		 pop	 ebx
  00c70	8b e5		 mov	 esp, ebp
  00c72	5d		 pop	 ebp
  00c73	c3		 ret	 0
?initialise_high_explosive_explosion_database@@YGXXZ ENDP ; initialise_high_explosive_explosion_database
_TEXT	ENDS
; Function compile flags: /Odtp /ZI
; File c:\users\nhv90\projects\eech\aphavoc\source\entity\special\effect\explosn\xp_dbase.c
;	COMDAT ?initialise_armour_piercing_explosion_database@@YGXXZ
_TEXT	SEGMENT
_this_explosion$ = -8					; size = 4
_explosion_info$ = -4					; size = 4
?initialise_armour_piercing_explosion_database@@YGXXZ PROC ; initialise_armour_piercing_explosion_database, COMDAT

; 702  : {

  00000	55		 push	 ebp
  00001	8b ec		 mov	 ebp, esp
  00003	83 ec 48	 sub	 esp, 72			; 00000048H
  00006	53		 push	 ebx
  00007	56		 push	 esi
  00008	57		 push	 edi

; 703  : 
; 704  : 	meta_explosion_component
; 705  : 		*explosion_info;
; 706  : 
; 707  : 	meta_explosion_data
; 708  : 		*this_explosion;
; 709  : 
; 710  : 	////////////////////////////////////////
; 711  : 	//
; 712  : 	// SMALL A.P. EXPLOSION
; 713  : 	//
; 714  : 	////////////////////////////////////////
; 715  : 
; 716  : 	this_explosion = &(meta_explosion_database[ SMALL_AP_META_EXPLOSION ]);

  00009	b8 10 00 00 00	 mov	 eax, 16			; 00000010H
  0000e	6b c8 03	 imul	 ecx, eax, 3
  00011	81 c1 00 00 00
	00		 add	 ecx, OFFSET ?meta_explosion_database@@3PAUMETA_EXPLOSION_DATA@@A ; meta_explosion_database
  00017	89 4d f8	 mov	 DWORD PTR _this_explosion$[ebp], ecx

; 717  : 
; 718  : 	this_explosion->number_of_components	=	1;

  0001a	8b 45 f8	 mov	 eax, DWORD PTR _this_explosion$[ebp]
  0001d	c7 00 01 00 00
	00		 mov	 DWORD PTR [eax], 1

; 719  : 
; 720  : 	this_explosion->damage_radius				=	0.0;

  00023	8b 45 f8	 mov	 eax, DWORD PTR _this_explosion$[ebp]
  00026	0f 57 c0	 xorps	 xmm0, xmm0
  00029	f3 0f 11 40 04	 movss	 DWORD PTR [eax+4], xmm0

; 721  : 
; 722  : 	this_explosion->show_on_map				=	FALSE;

  0002e	8b 45 f8	 mov	 eax, DWORD PTR _this_explosion$[ebp]
  00031	c7 40 08 00 00
	00 00		 mov	 DWORD PTR [eax+8], 0

; 723  : 
; 724  : 	this_explosion->component = (meta_explosion_component *) malloc_fast_mem( sizeof( meta_explosion_component ) * this_explosion->number_of_components );

  00038	8b 45 f8	 mov	 eax, DWORD PTR _this_explosion$[ebp]
  0003b	6b 08 34	 imul	 ecx, DWORD PTR [eax], 52
  0003e	51		 push	 ecx
  0003f	e8 00 00 00 00	 call	 ?malloc_fast_memory@@YGPAXI@Z ; malloc_fast_memory
  00044	8b 55 f8	 mov	 edx, DWORD PTR _this_explosion$[ebp]
  00047	89 42 0c	 mov	 DWORD PTR [edx+12], eax

; 725  : 
; 726  : 	//
; 727  : 	// component 0
; 728  : 	//
; 729  : 
; 730  : 	explosion_info = &(this_explosion->component[ 0 ]);

  0004a	b8 34 00 00 00	 mov	 eax, 52			; 00000034H
  0004f	6b c8 00	 imul	 ecx, eax, 0
  00052	8b 55 f8	 mov	 edx, DWORD PTR _this_explosion$[ebp]
  00055	03 4a 0c	 add	 ecx, DWORD PTR [edx+12]
  00058	89 4d fc	 mov	 DWORD PTR _explosion_info$[ebp], ecx

; 731  : 
; 732  : 	explosion_info->type 						=	EXPLOSION_SPRITES;

  0005b	8b 45 fc	 mov	 eax, DWORD PTR _explosion_info$[ebp]
  0005e	c7 00 00 00 00
	00		 mov	 DWORD PTR [eax], 0

; 733  : 
; 734  : 	explosion_info->animated_texture 		=	TEXTURE_ANIMATION_INDEX_SMOKE;

  00064	8b 45 fc	 mov	 eax, DWORD PTR _explosion_info$[ebp]
  00067	c7 40 04 63 00
	00 00		 mov	 DWORD PTR [eax+4], 99	; 00000063H

; 735  : 
; 736  : 	explosion_info->sprite_count 				=	1;

  0006e	8b 45 fc	 mov	 eax, DWORD PTR _explosion_info$[ebp]
  00071	c7 40 08 01 00
	00 00		 mov	 DWORD PTR [eax+8], 1

; 737  : 
; 738  : 	explosion_info->red 							=	200;

  00078	8b 45 fc	 mov	 eax, DWORD PTR _explosion_info$[ebp]
  0007b	c6 40 0c c8	 mov	 BYTE PTR [eax+12], 200	; 000000c8H

; 739  : 	explosion_info->green 						= 	200;

  0007f	8b 45 fc	 mov	 eax, DWORD PTR _explosion_info$[ebp]
  00082	c6 40 0d c8	 mov	 BYTE PTR [eax+13], 200	; 000000c8H

; 740  : 	explosion_info->blue 						=	200;

  00086	8b 45 fc	 mov	 eax, DWORD PTR _explosion_info$[ebp]
  00089	c6 40 0e c8	 mov	 BYTE PTR [eax+14], 200	; 000000c8H

; 741  : 	explosion_info->alpha 						=	200;

  0008d	8b 45 fc	 mov	 eax, DWORD PTR _explosion_info$[ebp]
  00090	c6 40 0f c8	 mov	 BYTE PTR [eax+15], 200	; 000000c8H

; 742  : 
; 743  : 	explosion_info->additive 					=	FALSE;

  00094	8b 45 fc	 mov	 eax, DWORD PTR _explosion_info$[ebp]
  00097	8a 48 10	 mov	 cl, BYTE PTR [eax+16]
  0009a	80 e1 fe	 and	 cl, 254			; 000000feH
  0009d	8b 55 fc	 mov	 edx, DWORD PTR _explosion_info$[ebp]
  000a0	88 4a 10	 mov	 BYTE PTR [edx+16], cl

; 744  : 
; 745  : 	explosion_info->blast_hemisphere_only	=	FALSE;

  000a3	8b 45 fc	 mov	 eax, DWORD PTR _explosion_info$[ebp]
  000a6	8a 48 10	 mov	 cl, BYTE PTR [eax+16]
  000a9	80 e1 fd	 and	 cl, 253			; 000000fdH
  000ac	8b 55 fc	 mov	 edx, DWORD PTR _explosion_info$[ebp]
  000af	88 4a 10	 mov	 BYTE PTR [edx+16], cl

; 746  : 
; 747  : 	explosion_info->delay_max 					=	0.0;

  000b2	8b 45 fc	 mov	 eax, DWORD PTR _explosion_info$[ebp]
  000b5	0f 57 c0	 xorps	 xmm0, xmm0
  000b8	f3 0f 11 40 14	 movss	 DWORD PTR [eax+20], xmm0

; 748  : 
; 749  : 	explosion_info->lifetime_min 				=	0.5;

  000bd	8b 45 fc	 mov	 eax, DWORD PTR _explosion_info$[ebp]
  000c0	f3 0f 10 05 00
	00 00 00	 movss	 xmm0, DWORD PTR __real@3f000000
  000c8	f3 0f 11 40 18	 movss	 DWORD PTR [eax+24], xmm0

; 750  : 	explosion_info->lifetime_max 				=	1.0;

  000cd	8b 45 fc	 mov	 eax, DWORD PTR _explosion_info$[ebp]
  000d0	f3 0f 10 05 00
	00 00 00	 movss	 xmm0, DWORD PTR __real@3f800000
  000d8	f3 0f 11 40 1c	 movss	 DWORD PTR [eax+28], xmm0

; 751  : 
; 752  : 	explosion_info->scale_min 					=	0.5;

  000dd	8b 45 fc	 mov	 eax, DWORD PTR _explosion_info$[ebp]
  000e0	f3 0f 10 05 00
	00 00 00	 movss	 xmm0, DWORD PTR __real@3f000000
  000e8	f3 0f 11 40 20	 movss	 DWORD PTR [eax+32], xmm0

; 753  : 	explosion_info->scale_max 					=	1.5;

  000ed	8b 45 fc	 mov	 eax, DWORD PTR _explosion_info$[ebp]
  000f0	f3 0f 10 05 00
	00 00 00	 movss	 xmm0, DWORD PTR __real@3fc00000
  000f8	f3 0f 11 40 24	 movss	 DWORD PTR [eax+36], xmm0

; 754  : 
; 755  : 	explosion_info->blast_radius		 		=	0.5;

  000fd	8b 45 fc	 mov	 eax, DWORD PTR _explosion_info$[ebp]
  00100	f3 0f 10 05 00
	00 00 00	 movss	 xmm0, DWORD PTR __real@3f000000
  00108	f3 0f 11 40 28	 movss	 DWORD PTR [eax+40], xmm0

; 756  : 
; 757  : 	explosion_info->animation_frequency		=	2.0;

  0010d	8b 45 fc	 mov	 eax, DWORD PTR _explosion_info$[ebp]
  00110	f3 0f 10 05 00
	00 00 00	 movss	 xmm0, DWORD PTR __real@40000000
  00118	f3 0f 11 40 2c	 movss	 DWORD PTR [eax+44], xmm0

; 758  : 
; 759  : 	explosion_info->rotation_rate		=	0.0;

  0011d	8b 45 fc	 mov	 eax, DWORD PTR _explosion_info$[ebp]
  00120	0f 57 c0	 xorps	 xmm0, xmm0
  00123	f3 0f 11 40 30	 movss	 DWORD PTR [eax+48], xmm0

; 760  : 
; 761  : 	////////////////////////////////////////
; 762  : 	//
; 763  : 	// MEDIUM A.P. EXPLOSION
; 764  : 	//
; 765  : 	////////////////////////////////////////
; 766  : 
; 767  : 	this_explosion = &(meta_explosion_database[ MEDIUM_AP_META_EXPLOSION ]);

  00128	b8 10 00 00 00	 mov	 eax, 16			; 00000010H
  0012d	c1 e0 02	 shl	 eax, 2
  00130	05 00 00 00 00	 add	 eax, OFFSET ?meta_explosion_database@@3PAUMETA_EXPLOSION_DATA@@A ; meta_explosion_database
  00135	89 45 f8	 mov	 DWORD PTR _this_explosion$[ebp], eax

; 768  : 
; 769  : 	this_explosion->number_of_components	=	2;

  00138	8b 45 f8	 mov	 eax, DWORD PTR _this_explosion$[ebp]
  0013b	c7 00 02 00 00
	00		 mov	 DWORD PTR [eax], 2

; 770  : 
; 771  : 	this_explosion->damage_radius				=	0.0;

  00141	8b 45 f8	 mov	 eax, DWORD PTR _this_explosion$[ebp]
  00144	0f 57 c0	 xorps	 xmm0, xmm0
  00147	f3 0f 11 40 04	 movss	 DWORD PTR [eax+4], xmm0

; 772  : 
; 773  : 	this_explosion->show_on_map				=	TRUE;

  0014c	8b 45 f8	 mov	 eax, DWORD PTR _this_explosion$[ebp]
  0014f	c7 40 08 01 00
	00 00		 mov	 DWORD PTR [eax+8], 1

; 774  : 
; 775  : 	this_explosion->component = (meta_explosion_component *) malloc_fast_mem( sizeof( meta_explosion_component ) * this_explosion->number_of_components );

  00156	8b 45 f8	 mov	 eax, DWORD PTR _this_explosion$[ebp]
  00159	6b 08 34	 imul	 ecx, DWORD PTR [eax], 52
  0015c	51		 push	 ecx
  0015d	e8 00 00 00 00	 call	 ?malloc_fast_memory@@YGPAXI@Z ; malloc_fast_memory
  00162	8b 55 f8	 mov	 edx, DWORD PTR _this_explosion$[ebp]
  00165	89 42 0c	 mov	 DWORD PTR [edx+12], eax

; 776  : 
; 777  : 	//
; 778  : 	// component 0
; 779  : 	//
; 780  : 
; 781  : 	explosion_info = &(this_explosion->component[ 0 ]);

  00168	b8 34 00 00 00	 mov	 eax, 52			; 00000034H
  0016d	6b c8 00	 imul	 ecx, eax, 0
  00170	8b 55 f8	 mov	 edx, DWORD PTR _this_explosion$[ebp]
  00173	03 4a 0c	 add	 ecx, DWORD PTR [edx+12]
  00176	89 4d fc	 mov	 DWORD PTR _explosion_info$[ebp], ecx

; 782  : 
; 783  : 	explosion_info->type 						=	EXPLOSION_SPRITES;

  00179	8b 45 fc	 mov	 eax, DWORD PTR _explosion_info$[ebp]
  0017c	c7 00 00 00 00
	00		 mov	 DWORD PTR [eax], 0

; 784  : 
; 785  : 	explosion_info->animated_texture 		=	TEXTURE_ANIMATION_INDEX_SMOKE;

  00182	8b 45 fc	 mov	 eax, DWORD PTR _explosion_info$[ebp]
  00185	c7 40 04 63 00
	00 00		 mov	 DWORD PTR [eax+4], 99	; 00000063H

; 786  : 
; 787  : 	explosion_info->sprite_count 				=	2;

  0018c	8b 45 fc	 mov	 eax, DWORD PTR _explosion_info$[ebp]
  0018f	c7 40 08 02 00
	00 00		 mov	 DWORD PTR [eax+8], 2

; 788  : 
; 789  : 	explosion_info->red 							=	140;

  00196	8b 45 fc	 mov	 eax, DWORD PTR _explosion_info$[ebp]
  00199	c6 40 0c 8c	 mov	 BYTE PTR [eax+12], 140	; 0000008cH

; 790  : 	explosion_info->green 						= 	140;

  0019d	8b 45 fc	 mov	 eax, DWORD PTR _explosion_info$[ebp]
  001a0	c6 40 0d 8c	 mov	 BYTE PTR [eax+13], 140	; 0000008cH

; 791  : 	explosion_info->blue 						=	140;

  001a4	8b 45 fc	 mov	 eax, DWORD PTR _explosion_info$[ebp]
  001a7	c6 40 0e 8c	 mov	 BYTE PTR [eax+14], 140	; 0000008cH

; 792  : 	explosion_info->alpha 						=	200;

  001ab	8b 45 fc	 mov	 eax, DWORD PTR _explosion_info$[ebp]
  001ae	c6 40 0f c8	 mov	 BYTE PTR [eax+15], 200	; 000000c8H

; 793  : 
; 794  : 	explosion_info->additive 					=	FALSE;

  001b2	8b 45 fc	 mov	 eax, DWORD PTR _explosion_info$[ebp]
  001b5	8a 48 10	 mov	 cl, BYTE PTR [eax+16]
  001b8	80 e1 fe	 and	 cl, 254			; 000000feH
  001bb	8b 55 fc	 mov	 edx, DWORD PTR _explosion_info$[ebp]
  001be	88 4a 10	 mov	 BYTE PTR [edx+16], cl

; 795  : 
; 796  : 	explosion_info->blast_hemisphere_only	=	FALSE;

  001c1	8b 45 fc	 mov	 eax, DWORD PTR _explosion_info$[ebp]
  001c4	8a 48 10	 mov	 cl, BYTE PTR [eax+16]
  001c7	80 e1 fd	 and	 cl, 253			; 000000fdH
  001ca	8b 55 fc	 mov	 edx, DWORD PTR _explosion_info$[ebp]
  001cd	88 4a 10	 mov	 BYTE PTR [edx+16], cl

; 797  : 
; 798  : 	explosion_info->delay_max 					=	0.25;

  001d0	8b 45 fc	 mov	 eax, DWORD PTR _explosion_info$[ebp]
  001d3	f3 0f 10 05 00
	00 00 00	 movss	 xmm0, DWORD PTR __real@3e800000
  001db	f3 0f 11 40 14	 movss	 DWORD PTR [eax+20], xmm0

; 799  : 
; 800  : 	explosion_info->lifetime_min 				=	0.75;

  001e0	8b 45 fc	 mov	 eax, DWORD PTR _explosion_info$[ebp]
  001e3	f3 0f 10 05 00
	00 00 00	 movss	 xmm0, DWORD PTR __real@3f400000
  001eb	f3 0f 11 40 18	 movss	 DWORD PTR [eax+24], xmm0

; 801  : 	explosion_info->lifetime_max 				=	1.5;

  001f0	8b 45 fc	 mov	 eax, DWORD PTR _explosion_info$[ebp]
  001f3	f3 0f 10 05 00
	00 00 00	 movss	 xmm0, DWORD PTR __real@3fc00000
  001fb	f3 0f 11 40 1c	 movss	 DWORD PTR [eax+28], xmm0

; 802  : 
; 803  : 	explosion_info->scale_min 					=	2.0;

  00200	8b 45 fc	 mov	 eax, DWORD PTR _explosion_info$[ebp]
  00203	f3 0f 10 05 00
	00 00 00	 movss	 xmm0, DWORD PTR __real@40000000
  0020b	f3 0f 11 40 20	 movss	 DWORD PTR [eax+32], xmm0

; 804  : 	explosion_info->scale_max 					=	5.0;

  00210	8b 45 fc	 mov	 eax, DWORD PTR _explosion_info$[ebp]
  00213	f3 0f 10 05 00
	00 00 00	 movss	 xmm0, DWORD PTR __real@40a00000
  0021b	f3 0f 11 40 24	 movss	 DWORD PTR [eax+36], xmm0

; 805  : 
; 806  : 	explosion_info->blast_radius		 		=	2.0;

  00220	8b 45 fc	 mov	 eax, DWORD PTR _explosion_info$[ebp]
  00223	f3 0f 10 05 00
	00 00 00	 movss	 xmm0, DWORD PTR __real@40000000
  0022b	f3 0f 11 40 28	 movss	 DWORD PTR [eax+40], xmm0

; 807  : 
; 808  : 	explosion_info->animation_frequency		=	2.0;

  00230	8b 45 fc	 mov	 eax, DWORD PTR _explosion_info$[ebp]
  00233	f3 0f 10 05 00
	00 00 00	 movss	 xmm0, DWORD PTR __real@40000000
  0023b	f3 0f 11 40 2c	 movss	 DWORD PTR [eax+44], xmm0

; 809  : 
; 810  : 	explosion_info->rotation_rate		=	0.0;

  00240	8b 45 fc	 mov	 eax, DWORD PTR _explosion_info$[ebp]
  00243	0f 57 c0	 xorps	 xmm0, xmm0
  00246	f3 0f 11 40 30	 movss	 DWORD PTR [eax+48], xmm0

; 811  : 
; 812  : 	//
; 813  : 	// component 1
; 814  : 	//
; 815  : 
; 816  : 	explosion_info = &(this_explosion->component[ 1 ]);

  0024b	b8 34 00 00 00	 mov	 eax, 52			; 00000034H
  00250	c1 e0 00	 shl	 eax, 0
  00253	8b 4d f8	 mov	 ecx, DWORD PTR _this_explosion$[ebp]
  00256	03 41 0c	 add	 eax, DWORD PTR [ecx+12]
  00259	89 45 fc	 mov	 DWORD PTR _explosion_info$[ebp], eax

; 817  : 
; 818  : 	explosion_info->type 						=	EXPLOSION_SPRITES;

  0025c	8b 45 fc	 mov	 eax, DWORD PTR _explosion_info$[ebp]
  0025f	c7 00 00 00 00
	00		 mov	 DWORD PTR [eax], 0

; 819  : 
; 820  : 	explosion_info->animated_texture 		=	TEXTURE_ANIMATION_INDEX_SMOKE;

  00265	8b 45 fc	 mov	 eax, DWORD PTR _explosion_info$[ebp]
  00268	c7 40 04 63 00
	00 00		 mov	 DWORD PTR [eax+4], 99	; 00000063H

; 821  : 
; 822  : 	explosion_info->sprite_count 				=	2;

  0026f	8b 45 fc	 mov	 eax, DWORD PTR _explosion_info$[ebp]
  00272	c7 40 08 02 00
	00 00		 mov	 DWORD PTR [eax+8], 2

; 823  : 
; 824  : 	explosion_info->red 							=	200;

  00279	8b 45 fc	 mov	 eax, DWORD PTR _explosion_info$[ebp]
  0027c	c6 40 0c c8	 mov	 BYTE PTR [eax+12], 200	; 000000c8H

; 825  : 	explosion_info->green 						= 	200;

  00280	8b 45 fc	 mov	 eax, DWORD PTR _explosion_info$[ebp]
  00283	c6 40 0d c8	 mov	 BYTE PTR [eax+13], 200	; 000000c8H

; 826  : 	explosion_info->blue 						=	200;

  00287	8b 45 fc	 mov	 eax, DWORD PTR _explosion_info$[ebp]
  0028a	c6 40 0e c8	 mov	 BYTE PTR [eax+14], 200	; 000000c8H

; 827  : 	explosion_info->alpha 						=	200;

  0028e	8b 45 fc	 mov	 eax, DWORD PTR _explosion_info$[ebp]
  00291	c6 40 0f c8	 mov	 BYTE PTR [eax+15], 200	; 000000c8H

; 828  : 
; 829  : 	explosion_info->additive 					=	FALSE;

  00295	8b 45 fc	 mov	 eax, DWORD PTR _explosion_info$[ebp]
  00298	8a 48 10	 mov	 cl, BYTE PTR [eax+16]
  0029b	80 e1 fe	 and	 cl, 254			; 000000feH
  0029e	8b 55 fc	 mov	 edx, DWORD PTR _explosion_info$[ebp]
  002a1	88 4a 10	 mov	 BYTE PTR [edx+16], cl

; 830  : 
; 831  : 	explosion_info->blast_hemisphere_only	=	FALSE;

  002a4	8b 45 fc	 mov	 eax, DWORD PTR _explosion_info$[ebp]
  002a7	8a 48 10	 mov	 cl, BYTE PTR [eax+16]
  002aa	80 e1 fd	 and	 cl, 253			; 000000fdH
  002ad	8b 55 fc	 mov	 edx, DWORD PTR _explosion_info$[ebp]
  002b0	88 4a 10	 mov	 BYTE PTR [edx+16], cl

; 832  : 
; 833  : 	explosion_info->delay_max 					=	0.25;

  002b3	8b 45 fc	 mov	 eax, DWORD PTR _explosion_info$[ebp]
  002b6	f3 0f 10 05 00
	00 00 00	 movss	 xmm0, DWORD PTR __real@3e800000
  002be	f3 0f 11 40 14	 movss	 DWORD PTR [eax+20], xmm0

; 834  : 
; 835  : 	explosion_info->lifetime_min 				=	1.0;

  002c3	8b 45 fc	 mov	 eax, DWORD PTR _explosion_info$[ebp]
  002c6	f3 0f 10 05 00
	00 00 00	 movss	 xmm0, DWORD PTR __real@3f800000
  002ce	f3 0f 11 40 18	 movss	 DWORD PTR [eax+24], xmm0

; 836  : 	explosion_info->lifetime_max 				=	3.0;

  002d3	8b 45 fc	 mov	 eax, DWORD PTR _explosion_info$[ebp]
  002d6	f3 0f 10 05 00
	00 00 00	 movss	 xmm0, DWORD PTR __real@40400000
  002de	f3 0f 11 40 1c	 movss	 DWORD PTR [eax+28], xmm0

; 837  : 
; 838  : 	explosion_info->scale_min 					=	2.0;

  002e3	8b 45 fc	 mov	 eax, DWORD PTR _explosion_info$[ebp]
  002e6	f3 0f 10 05 00
	00 00 00	 movss	 xmm0, DWORD PTR __real@40000000
  002ee	f3 0f 11 40 20	 movss	 DWORD PTR [eax+32], xmm0

; 839  : 	explosion_info->scale_max 					=	5.0;

  002f3	8b 45 fc	 mov	 eax, DWORD PTR _explosion_info$[ebp]
  002f6	f3 0f 10 05 00
	00 00 00	 movss	 xmm0, DWORD PTR __real@40a00000
  002fe	f3 0f 11 40 24	 movss	 DWORD PTR [eax+36], xmm0

; 840  : 
; 841  : 	explosion_info->blast_radius		 		=	2.5;

  00303	8b 45 fc	 mov	 eax, DWORD PTR _explosion_info$[ebp]
  00306	f3 0f 10 05 00
	00 00 00	 movss	 xmm0, DWORD PTR __real@40200000
  0030e	f3 0f 11 40 28	 movss	 DWORD PTR [eax+40], xmm0

; 842  : 
; 843  : 	explosion_info->animation_frequency		=	2.0;

  00313	8b 45 fc	 mov	 eax, DWORD PTR _explosion_info$[ebp]
  00316	f3 0f 10 05 00
	00 00 00	 movss	 xmm0, DWORD PTR __real@40000000
  0031e	f3 0f 11 40 2c	 movss	 DWORD PTR [eax+44], xmm0

; 844  : 
; 845  : 	explosion_info->rotation_rate		=	0.0;

  00323	8b 45 fc	 mov	 eax, DWORD PTR _explosion_info$[ebp]
  00326	0f 57 c0	 xorps	 xmm0, xmm0
  00329	f3 0f 11 40 30	 movss	 DWORD PTR [eax+48], xmm0

; 846  : 
; 847  : 	////////////////////////////////////////
; 848  : 	//
; 849  : 	// LARGE A.P. EXPLOSION
; 850  : 	//
; 851  : 	////////////////////////////////////////
; 852  : 
; 853  : 	this_explosion = &(meta_explosion_database[ LARGE_AP_META_EXPLOSION ]);

  0032e	b8 10 00 00 00	 mov	 eax, 16			; 00000010H
  00333	6b c8 05	 imul	 ecx, eax, 5
  00336	81 c1 00 00 00
	00		 add	 ecx, OFFSET ?meta_explosion_database@@3PAUMETA_EXPLOSION_DATA@@A ; meta_explosion_database
  0033c	89 4d f8	 mov	 DWORD PTR _this_explosion$[ebp], ecx

; 854  : 
; 855  : 	this_explosion->number_of_components	=	2;

  0033f	8b 45 f8	 mov	 eax, DWORD PTR _this_explosion$[ebp]
  00342	c7 00 02 00 00
	00		 mov	 DWORD PTR [eax], 2

; 856  : 
; 857  : 	this_explosion->damage_radius				=	0.0;

  00348	8b 45 f8	 mov	 eax, DWORD PTR _this_explosion$[ebp]
  0034b	0f 57 c0	 xorps	 xmm0, xmm0
  0034e	f3 0f 11 40 04	 movss	 DWORD PTR [eax+4], xmm0

; 858  : 
; 859  : 	this_explosion->show_on_map				=	TRUE;

  00353	8b 45 f8	 mov	 eax, DWORD PTR _this_explosion$[ebp]
  00356	c7 40 08 01 00
	00 00		 mov	 DWORD PTR [eax+8], 1

; 860  : 
; 861  : 	this_explosion->component = (meta_explosion_component *) malloc_fast_mem( sizeof( meta_explosion_component ) * this_explosion->number_of_components );

  0035d	8b 45 f8	 mov	 eax, DWORD PTR _this_explosion$[ebp]
  00360	6b 08 34	 imul	 ecx, DWORD PTR [eax], 52
  00363	51		 push	 ecx
  00364	e8 00 00 00 00	 call	 ?malloc_fast_memory@@YGPAXI@Z ; malloc_fast_memory
  00369	8b 55 f8	 mov	 edx, DWORD PTR _this_explosion$[ebp]
  0036c	89 42 0c	 mov	 DWORD PTR [edx+12], eax

; 862  : 
; 863  : 	//
; 864  : 	// component 0
; 865  : 	//
; 866  : 
; 867  : 	explosion_info = &(this_explosion->component[ 0 ]);

  0036f	b8 34 00 00 00	 mov	 eax, 52			; 00000034H
  00374	6b c8 00	 imul	 ecx, eax, 0
  00377	8b 55 f8	 mov	 edx, DWORD PTR _this_explosion$[ebp]
  0037a	03 4a 0c	 add	 ecx, DWORD PTR [edx+12]
  0037d	89 4d fc	 mov	 DWORD PTR _explosion_info$[ebp], ecx

; 868  : 
; 869  : 	explosion_info->type 						=	EXPLOSION_SPRITES;

  00380	8b 45 fc	 mov	 eax, DWORD PTR _explosion_info$[ebp]
  00383	c7 00 00 00 00
	00		 mov	 DWORD PTR [eax], 0

; 870  : 
; 871  : 	explosion_info->animated_texture 		=	TEXTURE_ANIMATION_INDEX_SMOKE;

  00389	8b 45 fc	 mov	 eax, DWORD PTR _explosion_info$[ebp]
  0038c	c7 40 04 63 00
	00 00		 mov	 DWORD PTR [eax+4], 99	; 00000063H

; 872  : 
; 873  : 	explosion_info->sprite_count 				=	5;

  00393	8b 45 fc	 mov	 eax, DWORD PTR _explosion_info$[ebp]
  00396	c7 40 08 05 00
	00 00		 mov	 DWORD PTR [eax+8], 5

; 874  : 
; 875  : 	explosion_info->red 							=	140;

  0039d	8b 45 fc	 mov	 eax, DWORD PTR _explosion_info$[ebp]
  003a0	c6 40 0c 8c	 mov	 BYTE PTR [eax+12], 140	; 0000008cH

; 876  : 	explosion_info->green 						= 	140;

  003a4	8b 45 fc	 mov	 eax, DWORD PTR _explosion_info$[ebp]
  003a7	c6 40 0d 8c	 mov	 BYTE PTR [eax+13], 140	; 0000008cH

; 877  : 	explosion_info->blue 						=	140;

  003ab	8b 45 fc	 mov	 eax, DWORD PTR _explosion_info$[ebp]
  003ae	c6 40 0e 8c	 mov	 BYTE PTR [eax+14], 140	; 0000008cH

; 878  : 	explosion_info->alpha 						=	200;

  003b2	8b 45 fc	 mov	 eax, DWORD PTR _explosion_info$[ebp]
  003b5	c6 40 0f c8	 mov	 BYTE PTR [eax+15], 200	; 000000c8H

; 879  : 
; 880  : 	explosion_info->additive 					=	FALSE;

  003b9	8b 45 fc	 mov	 eax, DWORD PTR _explosion_info$[ebp]
  003bc	8a 48 10	 mov	 cl, BYTE PTR [eax+16]
  003bf	80 e1 fe	 and	 cl, 254			; 000000feH
  003c2	8b 55 fc	 mov	 edx, DWORD PTR _explosion_info$[ebp]
  003c5	88 4a 10	 mov	 BYTE PTR [edx+16], cl

; 881  : 
; 882  : 	explosion_info->blast_hemisphere_only	=	FALSE;

  003c8	8b 45 fc	 mov	 eax, DWORD PTR _explosion_info$[ebp]
  003cb	8a 48 10	 mov	 cl, BYTE PTR [eax+16]
  003ce	80 e1 fd	 and	 cl, 253			; 000000fdH
  003d1	8b 55 fc	 mov	 edx, DWORD PTR _explosion_info$[ebp]
  003d4	88 4a 10	 mov	 BYTE PTR [edx+16], cl

; 883  : 
; 884  : 	explosion_info->delay_max 					=	2.5;

  003d7	8b 45 fc	 mov	 eax, DWORD PTR _explosion_info$[ebp]
  003da	f3 0f 10 05 00
	00 00 00	 movss	 xmm0, DWORD PTR __real@40200000
  003e2	f3 0f 11 40 14	 movss	 DWORD PTR [eax+20], xmm0

; 885  : 
; 886  : 	explosion_info->lifetime_min 				=	1.5;

  003e7	8b 45 fc	 mov	 eax, DWORD PTR _explosion_info$[ebp]
  003ea	f3 0f 10 05 00
	00 00 00	 movss	 xmm0, DWORD PTR __real@3fc00000
  003f2	f3 0f 11 40 18	 movss	 DWORD PTR [eax+24], xmm0

; 887  : 	explosion_info->lifetime_max 				=	3.0;

  003f7	8b 45 fc	 mov	 eax, DWORD PTR _explosion_info$[ebp]
  003fa	f3 0f 10 05 00
	00 00 00	 movss	 xmm0, DWORD PTR __real@40400000
  00402	f3 0f 11 40 1c	 movss	 DWORD PTR [eax+28], xmm0

; 888  : 
; 889  : 	explosion_info->scale_min 					=	2.0;

  00407	8b 45 fc	 mov	 eax, DWORD PTR _explosion_info$[ebp]
  0040a	f3 0f 10 05 00
	00 00 00	 movss	 xmm0, DWORD PTR __real@40000000
  00412	f3 0f 11 40 20	 movss	 DWORD PTR [eax+32], xmm0

; 890  : 	explosion_info->scale_max 					=	6.5;

  00417	8b 45 fc	 mov	 eax, DWORD PTR _explosion_info$[ebp]
  0041a	f3 0f 10 05 00
	00 00 00	 movss	 xmm0, DWORD PTR __real@40d00000
  00422	f3 0f 11 40 24	 movss	 DWORD PTR [eax+36], xmm0

; 891  : 
; 892  : 	explosion_info->blast_radius		 		=	4.0;

  00427	8b 45 fc	 mov	 eax, DWORD PTR _explosion_info$[ebp]
  0042a	f3 0f 10 05 00
	00 00 00	 movss	 xmm0, DWORD PTR __real@40800000
  00432	f3 0f 11 40 28	 movss	 DWORD PTR [eax+40], xmm0

; 893  : 
; 894  : 	explosion_info->animation_frequency		=	2.0;

  00437	8b 45 fc	 mov	 eax, DWORD PTR _explosion_info$[ebp]
  0043a	f3 0f 10 05 00
	00 00 00	 movss	 xmm0, DWORD PTR __real@40000000
  00442	f3 0f 11 40 2c	 movss	 DWORD PTR [eax+44], xmm0

; 895  : 
; 896  : 	explosion_info->rotation_rate		=	0.0;

  00447	8b 45 fc	 mov	 eax, DWORD PTR _explosion_info$[ebp]
  0044a	0f 57 c0	 xorps	 xmm0, xmm0
  0044d	f3 0f 11 40 30	 movss	 DWORD PTR [eax+48], xmm0

; 897  : 
; 898  : 	//
; 899  : 	// component 1
; 900  : 	//
; 901  : 
; 902  : 	explosion_info = &(this_explosion->component[ 1 ]);

  00452	b8 34 00 00 00	 mov	 eax, 52			; 00000034H
  00457	c1 e0 00	 shl	 eax, 0
  0045a	8b 4d f8	 mov	 ecx, DWORD PTR _this_explosion$[ebp]
  0045d	03 41 0c	 add	 eax, DWORD PTR [ecx+12]
  00460	89 45 fc	 mov	 DWORD PTR _explosion_info$[ebp], eax

; 903  : 
; 904  : 	explosion_info->type 						=	EXPLOSION_SPRITES;

  00463	8b 45 fc	 mov	 eax, DWORD PTR _explosion_info$[ebp]
  00466	c7 00 00 00 00
	00		 mov	 DWORD PTR [eax], 0

; 905  : 
; 906  : 	explosion_info->animated_texture 		=	TEXTURE_ANIMATION_INDEX_SMOKE;

  0046c	8b 45 fc	 mov	 eax, DWORD PTR _explosion_info$[ebp]
  0046f	c7 40 04 63 00
	00 00		 mov	 DWORD PTR [eax+4], 99	; 00000063H

; 907  : 
; 908  : 	explosion_info->sprite_count 				=	6;

  00476	8b 45 fc	 mov	 eax, DWORD PTR _explosion_info$[ebp]
  00479	c7 40 08 06 00
	00 00		 mov	 DWORD PTR [eax+8], 6

; 909  : 
; 910  : 	explosion_info->red 							=	180;

  00480	8b 45 fc	 mov	 eax, DWORD PTR _explosion_info$[ebp]
  00483	c6 40 0c b4	 mov	 BYTE PTR [eax+12], 180	; 000000b4H

; 911  : 	explosion_info->green 						= 	180;

  00487	8b 45 fc	 mov	 eax, DWORD PTR _explosion_info$[ebp]
  0048a	c6 40 0d b4	 mov	 BYTE PTR [eax+13], 180	; 000000b4H

; 912  : 	explosion_info->blue 						=	180;

  0048e	8b 45 fc	 mov	 eax, DWORD PTR _explosion_info$[ebp]
  00491	c6 40 0e b4	 mov	 BYTE PTR [eax+14], 180	; 000000b4H

; 913  : 	explosion_info->alpha 						=	120;

  00495	8b 45 fc	 mov	 eax, DWORD PTR _explosion_info$[ebp]
  00498	c6 40 0f 78	 mov	 BYTE PTR [eax+15], 120	; 00000078H

; 914  : 
; 915  : 	explosion_info->additive 					=	FALSE;

  0049c	8b 45 fc	 mov	 eax, DWORD PTR _explosion_info$[ebp]
  0049f	8a 48 10	 mov	 cl, BYTE PTR [eax+16]
  004a2	80 e1 fe	 and	 cl, 254			; 000000feH
  004a5	8b 55 fc	 mov	 edx, DWORD PTR _explosion_info$[ebp]
  004a8	88 4a 10	 mov	 BYTE PTR [edx+16], cl

; 916  : 
; 917  : 	explosion_info->blast_hemisphere_only	=	FALSE;

  004ab	8b 45 fc	 mov	 eax, DWORD PTR _explosion_info$[ebp]
  004ae	8a 48 10	 mov	 cl, BYTE PTR [eax+16]
  004b1	80 e1 fd	 and	 cl, 253			; 000000fdH
  004b4	8b 55 fc	 mov	 edx, DWORD PTR _explosion_info$[ebp]
  004b7	88 4a 10	 mov	 BYTE PTR [edx+16], cl

; 918  : 
; 919  : 	explosion_info->delay_max 					=	2.5;

  004ba	8b 45 fc	 mov	 eax, DWORD PTR _explosion_info$[ebp]
  004bd	f3 0f 10 05 00
	00 00 00	 movss	 xmm0, DWORD PTR __real@40200000
  004c5	f3 0f 11 40 14	 movss	 DWORD PTR [eax+20], xmm0

; 920  : 
; 921  : 	explosion_info->lifetime_min 				=	3.2;

  004ca	8b 45 fc	 mov	 eax, DWORD PTR _explosion_info$[ebp]
  004cd	f3 0f 10 05 00
	00 00 00	 movss	 xmm0, DWORD PTR __real@404ccccd
  004d5	f3 0f 11 40 18	 movss	 DWORD PTR [eax+24], xmm0

; 922  : 	explosion_info->lifetime_max 				=	5.5;

  004da	8b 45 fc	 mov	 eax, DWORD PTR _explosion_info$[ebp]
  004dd	f3 0f 10 05 00
	00 00 00	 movss	 xmm0, DWORD PTR __real@40b00000
  004e5	f3 0f 11 40 1c	 movss	 DWORD PTR [eax+28], xmm0

; 923  : 
; 924  : 	explosion_info->scale_min 					=	3.0;

  004ea	8b 45 fc	 mov	 eax, DWORD PTR _explosion_info$[ebp]
  004ed	f3 0f 10 05 00
	00 00 00	 movss	 xmm0, DWORD PTR __real@40400000
  004f5	f3 0f 11 40 20	 movss	 DWORD PTR [eax+32], xmm0

; 925  : 	explosion_info->scale_max 					=	7.0;

  004fa	8b 45 fc	 mov	 eax, DWORD PTR _explosion_info$[ebp]
  004fd	f3 0f 10 05 00
	00 00 00	 movss	 xmm0, DWORD PTR __real@40e00000
  00505	f3 0f 11 40 24	 movss	 DWORD PTR [eax+36], xmm0

; 926  : 
; 927  : 	explosion_info->blast_radius		 		=	4.5;

  0050a	8b 45 fc	 mov	 eax, DWORD PTR _explosion_info$[ebp]
  0050d	f3 0f 10 05 00
	00 00 00	 movss	 xmm0, DWORD PTR __real@40900000
  00515	f3 0f 11 40 28	 movss	 DWORD PTR [eax+40], xmm0

; 928  : 
; 929  : 	explosion_info->animation_frequency		=	2.0;

  0051a	8b 45 fc	 mov	 eax, DWORD PTR _explosion_info$[ebp]
  0051d	f3 0f 10 05 00
	00 00 00	 movss	 xmm0, DWORD PTR __real@40000000
  00525	f3 0f 11 40 2c	 movss	 DWORD PTR [eax+44], xmm0

; 930  : 
; 931  : 	explosion_info->rotation_rate		=	0.0;

  0052a	8b 45 fc	 mov	 eax, DWORD PTR _explosion_info$[ebp]
  0052d	0f 57 c0	 xorps	 xmm0, xmm0
  00530	f3 0f 11 40 30	 movss	 DWORD PTR [eax+48], xmm0

; 932  : }

  00535	5f		 pop	 edi
  00536	5e		 pop	 esi
  00537	5b		 pop	 ebx
  00538	8b e5		 mov	 esp, ebp
  0053a	5d		 pop	 ebp
  0053b	c3		 ret	 0
?initialise_armour_piercing_explosion_database@@YGXXZ ENDP ; initialise_armour_piercing_explosion_database
_TEXT	ENDS
; Function compile flags: /Odtp /ZI
; File c:\users\nhv90\projects\eech\aphavoc\source\entity\special\effect\explosn\xp_dbase.c
;	COMDAT ?initialise_misc_explosion_database@@YGXXZ
_TEXT	SEGMENT
_this_explosion$ = -8					; size = 4
_explosion_info$ = -4					; size = 4
?initialise_misc_explosion_database@@YGXXZ PROC		; initialise_misc_explosion_database, COMDAT

; 532  : {

  00000	55		 push	 ebp
  00001	8b ec		 mov	 ebp, esp
  00003	83 ec 48	 sub	 esp, 72			; 00000048H
  00006	53		 push	 ebx
  00007	56		 push	 esi
  00008	57		 push	 edi

; 533  : 
; 534  : 	meta_explosion_component
; 535  : 		*explosion_info;
; 536  : 
; 537  : 	meta_explosion_data
; 538  : 		*this_explosion;
; 539  : 
; 540  : 	////////////////////////////////////////
; 541  : 	//
; 542  : 	// NONE
; 543  : 	//
; 544  : 	////////////////////////////////////////
; 545  : 
; 546  : 	this_explosion = &(meta_explosion_database[ META_EXPLOSION_TYPE_NONE ]);

  00009	b8 10 00 00 00	 mov	 eax, 16			; 00000010H
  0000e	6b c8 00	 imul	 ecx, eax, 0
  00011	81 c1 00 00 00
	00		 add	 ecx, OFFSET ?meta_explosion_database@@3PAUMETA_EXPLOSION_DATA@@A ; meta_explosion_database
  00017	89 4d f8	 mov	 DWORD PTR _this_explosion$[ebp], ecx

; 547  : 
; 548  : 	this_explosion->number_of_components	=	0;

  0001a	8b 45 f8	 mov	 eax, DWORD PTR _this_explosion$[ebp]
  0001d	c7 00 00 00 00
	00		 mov	 DWORD PTR [eax], 0

; 549  : 
; 550  : 	this_explosion->damage_radius				=	0.0;

  00023	8b 45 f8	 mov	 eax, DWORD PTR _this_explosion$[ebp]
  00026	0f 57 c0	 xorps	 xmm0, xmm0
  00029	f3 0f 11 40 04	 movss	 DWORD PTR [eax+4], xmm0

; 551  : 
; 552  : 	this_explosion->show_on_map				=	FALSE;

  0002e	8b 45 f8	 mov	 eax, DWORD PTR _this_explosion$[ebp]
  00031	c7 40 08 00 00
	00 00		 mov	 DWORD PTR [eax+8], 0

; 553  : 
; 554  : 	this_explosion->component = NULL;

  00038	8b 45 f8	 mov	 eax, DWORD PTR _this_explosion$[ebp]
  0003b	c7 40 0c 00 00
	00 00		 mov	 DWORD PTR [eax+12], 0

; 555  : 
; 556  : 	////////////////////////////////////////
; 557  : 	//
; 558  : 	// TEST
; 559  : 	//
; 560  : 	////////////////////////////////////////
; 561  : 
; 562  : 	this_explosion = &(meta_explosion_database[ TEST_META_EXPLOSION ]);

  00042	b8 10 00 00 00	 mov	 eax, 16			; 00000010H
  00047	c1 e0 00	 shl	 eax, 0
  0004a	05 00 00 00 00	 add	 eax, OFFSET ?meta_explosion_database@@3PAUMETA_EXPLOSION_DATA@@A ; meta_explosion_database
  0004f	89 45 f8	 mov	 DWORD PTR _this_explosion$[ebp], eax

; 563  : 
; 564  : 	this_explosion->number_of_components	=	3;

  00052	8b 45 f8	 mov	 eax, DWORD PTR _this_explosion$[ebp]
  00055	c7 00 03 00 00
	00		 mov	 DWORD PTR [eax], 3

; 565  : 
; 566  : 	this_explosion->damage_radius				=	20.0;

  0005b	8b 45 f8	 mov	 eax, DWORD PTR _this_explosion$[ebp]
  0005e	f3 0f 10 05 00
	00 00 00	 movss	 xmm0, DWORD PTR __real@41a00000
  00066	f3 0f 11 40 04	 movss	 DWORD PTR [eax+4], xmm0

; 567  : 
; 568  : 	this_explosion->show_on_map				=	FALSE;

  0006b	8b 45 f8	 mov	 eax, DWORD PTR _this_explosion$[ebp]
  0006e	c7 40 08 00 00
	00 00		 mov	 DWORD PTR [eax+8], 0

; 569  : 
; 570  : 	this_explosion->component = (meta_explosion_component *) malloc_fast_mem( sizeof( meta_explosion_component ) * this_explosion->number_of_components );

  00075	8b 45 f8	 mov	 eax, DWORD PTR _this_explosion$[ebp]
  00078	6b 08 34	 imul	 ecx, DWORD PTR [eax], 52
  0007b	51		 push	 ecx
  0007c	e8 00 00 00 00	 call	 ?malloc_fast_memory@@YGPAXI@Z ; malloc_fast_memory
  00081	8b 55 f8	 mov	 edx, DWORD PTR _this_explosion$[ebp]
  00084	89 42 0c	 mov	 DWORD PTR [edx+12], eax

; 571  : 
; 572  : 	//
; 573  : 	// component 0
; 574  : 	//
; 575  : 
; 576  : 	explosion_info = &(this_explosion->component[ 0 ]);

  00087	b8 34 00 00 00	 mov	 eax, 52			; 00000034H
  0008c	6b c8 00	 imul	 ecx, eax, 0
  0008f	8b 55 f8	 mov	 edx, DWORD PTR _this_explosion$[ebp]
  00092	03 4a 0c	 add	 ecx, DWORD PTR [edx+12]
  00095	89 4d fc	 mov	 DWORD PTR _explosion_info$[ebp], ecx

; 577  : 
; 578  : 	explosion_info->type 						=	EXPLOSION_SPRITES;

  00098	8b 45 fc	 mov	 eax, DWORD PTR _explosion_info$[ebp]
  0009b	c7 00 00 00 00
	00		 mov	 DWORD PTR [eax], 0

; 579  : 
; 580  : 	explosion_info->animated_texture 		=	TEXTURE_ANIMATION_INDEX_MISSILE_FLARE;

  000a1	8b 45 fc	 mov	 eax, DWORD PTR _explosion_info$[ebp]
  000a4	c7 40 04 61 00
	00 00		 mov	 DWORD PTR [eax+4], 97	; 00000061H

; 581  : 
; 582  : 	explosion_info->sprite_count 				=	5;

  000ab	8b 45 fc	 mov	 eax, DWORD PTR _explosion_info$[ebp]
  000ae	c7 40 08 05 00
	00 00		 mov	 DWORD PTR [eax+8], 5

; 583  : 
; 584  : 	explosion_info->red 							=	255;

  000b5	8b 45 fc	 mov	 eax, DWORD PTR _explosion_info$[ebp]
  000b8	c6 40 0c ff	 mov	 BYTE PTR [eax+12], 255	; 000000ffH

; 585  : 	explosion_info->green 						= 	255;

  000bc	8b 45 fc	 mov	 eax, DWORD PTR _explosion_info$[ebp]
  000bf	c6 40 0d ff	 mov	 BYTE PTR [eax+13], 255	; 000000ffH

; 586  : 	explosion_info->blue 						=	255;

  000c3	8b 45 fc	 mov	 eax, DWORD PTR _explosion_info$[ebp]
  000c6	c6 40 0e ff	 mov	 BYTE PTR [eax+14], 255	; 000000ffH

; 587  : 	explosion_info->alpha 						=	255;

  000ca	8b 45 fc	 mov	 eax, DWORD PTR _explosion_info$[ebp]
  000cd	c6 40 0f ff	 mov	 BYTE PTR [eax+15], 255	; 000000ffH

; 588  : 
; 589  : 	explosion_info->additive 					=	TRUE;

  000d1	8b 45 fc	 mov	 eax, DWORD PTR _explosion_info$[ebp]
  000d4	8a 48 10	 mov	 cl, BYTE PTR [eax+16]
  000d7	80 c9 01	 or	 cl, 1
  000da	8b 55 fc	 mov	 edx, DWORD PTR _explosion_info$[ebp]
  000dd	88 4a 10	 mov	 BYTE PTR [edx+16], cl

; 590  : 
; 591  : 	explosion_info->blast_hemisphere_only	=	FALSE;

  000e0	8b 45 fc	 mov	 eax, DWORD PTR _explosion_info$[ebp]
  000e3	8a 48 10	 mov	 cl, BYTE PTR [eax+16]
  000e6	80 e1 fd	 and	 cl, 253			; 000000fdH
  000e9	8b 55 fc	 mov	 edx, DWORD PTR _explosion_info$[ebp]
  000ec	88 4a 10	 mov	 BYTE PTR [edx+16], cl

; 592  : 
; 593  : 	explosion_info->delay_max 					=	1.5;

  000ef	8b 45 fc	 mov	 eax, DWORD PTR _explosion_info$[ebp]
  000f2	f3 0f 10 05 00
	00 00 00	 movss	 xmm0, DWORD PTR __real@3fc00000
  000fa	f3 0f 11 40 14	 movss	 DWORD PTR [eax+20], xmm0

; 594  : 
; 595  : 	explosion_info->lifetime_min 				=	0.5;

  000ff	8b 45 fc	 mov	 eax, DWORD PTR _explosion_info$[ebp]
  00102	f3 0f 10 05 00
	00 00 00	 movss	 xmm0, DWORD PTR __real@3f000000
  0010a	f3 0f 11 40 18	 movss	 DWORD PTR [eax+24], xmm0

; 596  : 	explosion_info->lifetime_max 				=	0.5;

  0010f	8b 45 fc	 mov	 eax, DWORD PTR _explosion_info$[ebp]
  00112	f3 0f 10 05 00
	00 00 00	 movss	 xmm0, DWORD PTR __real@3f000000
  0011a	f3 0f 11 40 1c	 movss	 DWORD PTR [eax+28], xmm0

; 597  : 
; 598  : 	explosion_info->scale_min 					=	25.0;

  0011f	8b 45 fc	 mov	 eax, DWORD PTR _explosion_info$[ebp]
  00122	f3 0f 10 05 00
	00 00 00	 movss	 xmm0, DWORD PTR __real@41c80000
  0012a	f3 0f 11 40 20	 movss	 DWORD PTR [eax+32], xmm0

; 599  : 	explosion_info->scale_max 					=	40.0;

  0012f	8b 45 fc	 mov	 eax, DWORD PTR _explosion_info$[ebp]
  00132	f3 0f 10 05 00
	00 00 00	 movss	 xmm0, DWORD PTR __real@42200000
  0013a	f3 0f 11 40 24	 movss	 DWORD PTR [eax+36], xmm0

; 600  : 
; 601  : 	explosion_info->blast_radius		 		=	40.0;

  0013f	8b 45 fc	 mov	 eax, DWORD PTR _explosion_info$[ebp]
  00142	f3 0f 10 05 00
	00 00 00	 movss	 xmm0, DWORD PTR __real@42200000
  0014a	f3 0f 11 40 28	 movss	 DWORD PTR [eax+40], xmm0

; 602  : 
; 603  : 	explosion_info->animation_frequency		=	1.0;

  0014f	8b 45 fc	 mov	 eax, DWORD PTR _explosion_info$[ebp]
  00152	f3 0f 10 05 00
	00 00 00	 movss	 xmm0, DWORD PTR __real@3f800000
  0015a	f3 0f 11 40 2c	 movss	 DWORD PTR [eax+44], xmm0

; 604  : 
; 605  : 	explosion_info->rotation_rate		=	1.0;

  0015f	8b 45 fc	 mov	 eax, DWORD PTR _explosion_info$[ebp]
  00162	f3 0f 10 05 00
	00 00 00	 movss	 xmm0, DWORD PTR __real@3f800000
  0016a	f3 0f 11 40 30	 movss	 DWORD PTR [eax+48], xmm0

; 606  : 
; 607  : 	//
; 608  : 	// component 1
; 609  : 	//
; 610  : 
; 611  : 	explosion_info = &(this_explosion->component[ 1 ]);

  0016f	b8 34 00 00 00	 mov	 eax, 52			; 00000034H
  00174	c1 e0 00	 shl	 eax, 0
  00177	8b 4d f8	 mov	 ecx, DWORD PTR _this_explosion$[ebp]
  0017a	03 41 0c	 add	 eax, DWORD PTR [ecx+12]
  0017d	89 45 fc	 mov	 DWORD PTR _explosion_info$[ebp], eax

; 612  : 
; 613  : 	explosion_info->type 						= EXPLOSION_SPRITES;

  00180	8b 45 fc	 mov	 eax, DWORD PTR _explosion_info$[ebp]
  00183	c7 00 00 00 00
	00		 mov	 DWORD PTR [eax], 0

; 614  : 
; 615  : 	explosion_info->animated_texture 		= TEXTURE_ANIMATION_INDEX_MISSILE_FLARE;

  00189	8b 45 fc	 mov	 eax, DWORD PTR _explosion_info$[ebp]
  0018c	c7 40 04 61 00
	00 00		 mov	 DWORD PTR [eax+4], 97	; 00000061H

; 616  : 
; 617  : 	explosion_info->sprite_count 				= 6;

  00193	8b 45 fc	 mov	 eax, DWORD PTR _explosion_info$[ebp]
  00196	c7 40 08 06 00
	00 00		 mov	 DWORD PTR [eax+8], 6

; 618  : 
; 619  : 	explosion_info->red 							= 255;

  0019d	8b 45 fc	 mov	 eax, DWORD PTR _explosion_info$[ebp]
  001a0	c6 40 0c ff	 mov	 BYTE PTR [eax+12], 255	; 000000ffH

; 620  : 	explosion_info->green 						= 255;

  001a4	8b 45 fc	 mov	 eax, DWORD PTR _explosion_info$[ebp]
  001a7	c6 40 0d ff	 mov	 BYTE PTR [eax+13], 255	; 000000ffH

; 621  : 	explosion_info->blue 						= 255;

  001ab	8b 45 fc	 mov	 eax, DWORD PTR _explosion_info$[ebp]
  001ae	c6 40 0e ff	 mov	 BYTE PTR [eax+14], 255	; 000000ffH

; 622  : 	explosion_info->alpha 						= 255;

  001b2	8b 45 fc	 mov	 eax, DWORD PTR _explosion_info$[ebp]
  001b5	c6 40 0f ff	 mov	 BYTE PTR [eax+15], 255	; 000000ffH

; 623  : 
; 624  : 	explosion_info->additive 					= TRUE;

  001b9	8b 45 fc	 mov	 eax, DWORD PTR _explosion_info$[ebp]
  001bc	8a 48 10	 mov	 cl, BYTE PTR [eax+16]
  001bf	80 c9 01	 or	 cl, 1
  001c2	8b 55 fc	 mov	 edx, DWORD PTR _explosion_info$[ebp]
  001c5	88 4a 10	 mov	 BYTE PTR [edx+16], cl

; 625  : 
; 626  : 	explosion_info->blast_hemisphere_only	= FALSE;

  001c8	8b 45 fc	 mov	 eax, DWORD PTR _explosion_info$[ebp]
  001cb	8a 48 10	 mov	 cl, BYTE PTR [eax+16]
  001ce	80 e1 fd	 and	 cl, 253			; 000000fdH
  001d1	8b 55 fc	 mov	 edx, DWORD PTR _explosion_info$[ebp]
  001d4	88 4a 10	 mov	 BYTE PTR [edx+16], cl

; 627  : 
; 628  : 	explosion_info->delay_max 					= 1.5;

  001d7	8b 45 fc	 mov	 eax, DWORD PTR _explosion_info$[ebp]
  001da	f3 0f 10 05 00
	00 00 00	 movss	 xmm0, DWORD PTR __real@3fc00000
  001e2	f3 0f 11 40 14	 movss	 DWORD PTR [eax+20], xmm0

; 629  : 
; 630  : 	explosion_info->lifetime_min 				= 0.5;

  001e7	8b 45 fc	 mov	 eax, DWORD PTR _explosion_info$[ebp]
  001ea	f3 0f 10 05 00
	00 00 00	 movss	 xmm0, DWORD PTR __real@3f000000
  001f2	f3 0f 11 40 18	 movss	 DWORD PTR [eax+24], xmm0

; 631  : 	explosion_info->lifetime_max 				= 0.5;

  001f7	8b 45 fc	 mov	 eax, DWORD PTR _explosion_info$[ebp]
  001fa	f3 0f 10 05 00
	00 00 00	 movss	 xmm0, DWORD PTR __real@3f000000
  00202	f3 0f 11 40 1c	 movss	 DWORD PTR [eax+28], xmm0

; 632  : 
; 633  : 	explosion_info->scale_min 					= 25.0;

  00207	8b 45 fc	 mov	 eax, DWORD PTR _explosion_info$[ebp]
  0020a	f3 0f 10 05 00
	00 00 00	 movss	 xmm0, DWORD PTR __real@41c80000
  00212	f3 0f 11 40 20	 movss	 DWORD PTR [eax+32], xmm0

; 634  : 	explosion_info->scale_max 					= 40.0;

  00217	8b 45 fc	 mov	 eax, DWORD PTR _explosion_info$[ebp]
  0021a	f3 0f 10 05 00
	00 00 00	 movss	 xmm0, DWORD PTR __real@42200000
  00222	f3 0f 11 40 24	 movss	 DWORD PTR [eax+36], xmm0

; 635  : 
; 636  : 	explosion_info->blast_radius		 		= 10.0;

  00227	8b 45 fc	 mov	 eax, DWORD PTR _explosion_info$[ebp]
  0022a	f3 0f 10 05 00
	00 00 00	 movss	 xmm0, DWORD PTR __real@41200000
  00232	f3 0f 11 40 28	 movss	 DWORD PTR [eax+40], xmm0

; 637  : 
; 638  : 	explosion_info->animation_frequency		=	1.0;

  00237	8b 45 fc	 mov	 eax, DWORD PTR _explosion_info$[ebp]
  0023a	f3 0f 10 05 00
	00 00 00	 movss	 xmm0, DWORD PTR __real@3f800000
  00242	f3 0f 11 40 2c	 movss	 DWORD PTR [eax+44], xmm0

; 639  : 
; 640  : 	explosion_info->rotation_rate		=	1.0;

  00247	8b 45 fc	 mov	 eax, DWORD PTR _explosion_info$[ebp]
  0024a	f3 0f 10 05 00
	00 00 00	 movss	 xmm0, DWORD PTR __real@3f800000
  00252	f3 0f 11 40 30	 movss	 DWORD PTR [eax+48], xmm0

; 641  : 
; 642  : 	//
; 643  : 	// component 2
; 644  : 	//
; 645  : 
; 646  : 	explosion_info = &(this_explosion->component[ 2 ]);

  00257	b8 34 00 00 00	 mov	 eax, 52			; 00000034H
  0025c	d1 e0		 shl	 eax, 1
  0025e	8b 4d f8	 mov	 ecx, DWORD PTR _this_explosion$[ebp]
  00261	03 41 0c	 add	 eax, DWORD PTR [ecx+12]
  00264	89 45 fc	 mov	 DWORD PTR _explosion_info$[ebp], eax

; 647  : 
; 648  : 	explosion_info->type 						= EXPLOSION_PARTICLES;

  00267	8b 45 fc	 mov	 eax, DWORD PTR _explosion_info$[ebp]
  0026a	c7 00 02 00 00
	00		 mov	 DWORD PTR [eax], 2

; 649  : 
; 650  : 	explosion_info->particle_count 			= 4;

  00270	8b 45 fc	 mov	 eax, DWORD PTR _explosion_info$[ebp]
  00273	c7 40 04 04 00
	00 00		 mov	 DWORD PTR [eax+4], 4

; 651  : 
; 652  : 	explosion_info->trail_type 				= SMOKE_LIST_TYPE_SMALL_PARTICLE_TRAIL;

  0027a	8b 45 fc	 mov	 eax, DWORD PTR _explosion_info$[ebp]
  0027d	c7 40 08 08 00
	00 00		 mov	 DWORD PTR [eax+8], 8

; 653  : 
; 654  : 	explosion_info->initial_speed 			= 30.0;

  00284	8b 45 fc	 mov	 eax, DWORD PTR _explosion_info$[ebp]
  00287	f3 0f 10 05 00
	00 00 00	 movss	 xmm0, DWORD PTR __real@41f00000
  0028f	f3 0f 11 40 0c	 movss	 DWORD PTR [eax+12], xmm0

; 655  : 
; 656  : 	explosion_info->frequency 			= 0.1;

  00294	8b 45 fc	 mov	 eax, DWORD PTR _explosion_info$[ebp]
  00297	f3 0f 10 05 00
	00 00 00	 movss	 xmm0, DWORD PTR __real@3dcccccd
  0029f	f3 0f 11 40 10	 movss	 DWORD PTR [eax+16], xmm0

; 657  : 
; 658  : 	explosion_info->smoke_lifetime 			= 1.5;

  002a4	8b 45 fc	 mov	 eax, DWORD PTR _explosion_info$[ebp]
  002a7	f3 0f 10 05 00
	00 00 00	 movss	 xmm0, DWORD PTR __real@3fc00000
  002af	f3 0f 11 40 14	 movss	 DWORD PTR [eax+20], xmm0

; 659  : 
; 660  : 	////////////////////////////////////////
; 661  : 	//
; 662  : 	// PURPLE FLARE
; 663  : 	//
; 664  : 	////////////////////////////////////////
; 665  : 
; 666  : 	this_explosion = &(meta_explosion_database[ PURPLE_FLARE_META_EXPLOSION ]);

  002b4	b8 10 00 00 00	 mov	 eax, 16			; 00000010H
  002b9	d1 e0		 shl	 eax, 1
  002bb	05 00 00 00 00	 add	 eax, OFFSET ?meta_explosion_database@@3PAUMETA_EXPLOSION_DATA@@A ; meta_explosion_database
  002c0	89 45 f8	 mov	 DWORD PTR _this_explosion$[ebp], eax

; 667  : 
; 668  : 	this_explosion->number_of_components	=	1;

  002c3	8b 45 f8	 mov	 eax, DWORD PTR _this_explosion$[ebp]
  002c6	c7 00 01 00 00
	00		 mov	 DWORD PTR [eax], 1

; 669  : 
; 670  : 	this_explosion->damage_radius				=	0.0;

  002cc	8b 45 f8	 mov	 eax, DWORD PTR _this_explosion$[ebp]
  002cf	0f 57 c0	 xorps	 xmm0, xmm0
  002d2	f3 0f 11 40 04	 movss	 DWORD PTR [eax+4], xmm0

; 671  : 
; 672  : 	this_explosion->show_on_map				=	FALSE;

  002d7	8b 45 f8	 mov	 eax, DWORD PTR _this_explosion$[ebp]
  002da	c7 40 08 00 00
	00 00		 mov	 DWORD PTR [eax+8], 0

; 673  : 
; 674  : 	this_explosion->component = (meta_explosion_component *) malloc_fast_mem( sizeof( meta_explosion_component ) * this_explosion->number_of_components );

  002e1	8b 45 f8	 mov	 eax, DWORD PTR _this_explosion$[ebp]
  002e4	6b 08 34	 imul	 ecx, DWORD PTR [eax], 52
  002e7	51		 push	 ecx
  002e8	e8 00 00 00 00	 call	 ?malloc_fast_memory@@YGPAXI@Z ; malloc_fast_memory
  002ed	8b 55 f8	 mov	 edx, DWORD PTR _this_explosion$[ebp]
  002f0	89 42 0c	 mov	 DWORD PTR [edx+12], eax

; 675  : 
; 676  : 	//
; 677  : 	// component 0
; 678  : 	//
; 679  : 
; 680  : 	explosion_info = &(this_explosion->component[ 0 ]);

  002f3	b8 34 00 00 00	 mov	 eax, 52			; 00000034H
  002f8	6b c8 00	 imul	 ecx, eax, 0
  002fb	8b 55 f8	 mov	 edx, DWORD PTR _this_explosion$[ebp]
  002fe	03 4a 0c	 add	 ecx, DWORD PTR [edx+12]
  00301	89 4d fc	 mov	 DWORD PTR _explosion_info$[ebp], ecx

; 681  : 
; 682  : 	explosion_info->type 						= EXPLOSION_SMOKE_TRAILS;

  00304	8b 45 fc	 mov	 eax, DWORD PTR _explosion_info$[ebp]
  00307	c7 00 03 00 00
	00		 mov	 DWORD PTR [eax], 3

; 683  : 
; 684  : 	explosion_info->trail_type 				= SMOKE_LIST_TYPE_PURPLE_FLARE;

  0030d	8b 45 fc	 mov	 eax, DWORD PTR _explosion_info$[ebp]
  00310	c7 40 08 06 00
	00 00		 mov	 DWORD PTR [eax+8], 6

; 685  : 
; 686  : 	explosion_info->trail_count 				=	1;

  00317	8b 45 fc	 mov	 eax, DWORD PTR _explosion_info$[ebp]
  0031a	c7 40 04 01 00
	00 00		 mov	 DWORD PTR [eax+4], 1

; 687  : 
; 688  : 	explosion_info->generator_lifetime		= 70.0;

  00321	8b 45 fc	 mov	 eax, DWORD PTR _explosion_info$[ebp]
  00324	f3 0f 10 05 00
	00 00 00	 movss	 xmm0, DWORD PTR __real@428c0000
  0032c	f3 0f 11 40 0c	 movss	 DWORD PTR [eax+12], xmm0

; 689  : 	explosion_info->frequency					= 0.33333;

  00331	8b 45 fc	 mov	 eax, DWORD PTR _explosion_info$[ebp]
  00334	f3 0f 10 05 00
	00 00 00	 movss	 xmm0, DWORD PTR __real@3eaaaa3b
  0033c	f3 0f 11 40 10	 movss	 DWORD PTR [eax+16], xmm0

; 690  : 	explosion_info->smoke_lifetime			= 30.0;

  00341	8b 45 fc	 mov	 eax, DWORD PTR _explosion_info$[ebp]
  00344	f3 0f 10 05 00
	00 00 00	 movss	 xmm0, DWORD PTR __real@41f00000
  0034c	f3 0f 11 40 14	 movss	 DWORD PTR [eax+20], xmm0

; 691  : 
; 692  : 	explosion_info->initial_velocity.x		= 0.0;

  00351	8b 45 fc	 mov	 eax, DWORD PTR _explosion_info$[ebp]
  00354	0f 57 c0	 xorps	 xmm0, xmm0
  00357	f3 0f 11 40 18	 movss	 DWORD PTR [eax+24], xmm0

; 693  : 	explosion_info->initial_velocity.y		= 0.0;

  0035c	8b 45 fc	 mov	 eax, DWORD PTR _explosion_info$[ebp]
  0035f	0f 57 c0	 xorps	 xmm0, xmm0
  00362	f3 0f 11 40 1c	 movss	 DWORD PTR [eax+28], xmm0

; 694  : 	explosion_info->initial_velocity.z		= 0.0;

  00367	8b 45 fc	 mov	 eax, DWORD PTR _explosion_info$[ebp]
  0036a	0f 57 c0	 xorps	 xmm0, xmm0
  0036d	f3 0f 11 40 20	 movss	 DWORD PTR [eax+32], xmm0

; 695  : }

  00372	5f		 pop	 edi
  00373	5e		 pop	 esi
  00374	5b		 pop	 ebx
  00375	8b e5		 mov	 esp, ebp
  00377	5d		 pop	 ebp
  00378	c3		 ret	 0
?initialise_misc_explosion_database@@YGXXZ ENDP		; initialise_misc_explosion_database
_TEXT	ENDS
; Function compile flags: /Odtp /ZI
; File c:\users\nhv90\projects\eech\aphavoc\source\entity\special\effect\explosn\xp_dbase.c
;	COMDAT ?deinitialise_explosion_database@@YGXXZ
_TEXT	SEGMENT
_this_explosion$ = -4					; size = 4
?deinitialise_explosion_database@@YGXXZ PROC		; deinitialise_explosion_database, COMDAT

; 2817 : {

  00000	55		 push	 ebp
  00001	8b ec		 mov	 ebp, esp
  00003	83 ec 44	 sub	 esp, 68			; 00000044H
  00006	53		 push	 ebx
  00007	56		 push	 esi
  00008	57		 push	 edi

; 2818 : 
; 2819 : 	meta_explosion_data
; 2820 : 		*this_explosion;
; 2821 : 
; 2822 : 	deinitialise_weapon_explosion_criteria_tables();

  00009	e8 00 00 00 00	 call	 ?deinitialise_weapon_explosion_criteria_tables@@YGXXZ ; deinitialise_weapon_explosion_criteria_tables

; 2823 : 
; 2824 : 	////////////////////////////////////////
; 2825 : 	//
; 2826 : 	// TEST
; 2827 : 	//
; 2828 : 	////////////////////////////////////////
; 2829 : 
; 2830 : 	this_explosion = &(meta_explosion_database[ TEST_META_EXPLOSION ]);

  0000e	b8 10 00 00 00	 mov	 eax, 16			; 00000010H
  00013	c1 e0 00	 shl	 eax, 0
  00016	05 00 00 00 00	 add	 eax, OFFSET ?meta_explosion_database@@3PAUMETA_EXPLOSION_DATA@@A ; meta_explosion_database
  0001b	89 45 fc	 mov	 DWORD PTR _this_explosion$[ebp], eax

; 2831 : 
; 2832 : 	free_mem( this_explosion->component );

  0001e	8b 45 fc	 mov	 eax, DWORD PTR _this_explosion$[ebp]
  00021	8b 48 0c	 mov	 ecx, DWORD PTR [eax+12]
  00024	51		 push	 ecx
  00025	e8 00 00 00 00	 call	 ?free_mem@@YGXPAX@Z	; free_mem

; 2833 : 
; 2834 : 	////////////////////////////////////////
; 2835 : 	//
; 2836 : 	// PURPLE FLARE
; 2837 : 	//
; 2838 : 	////////////////////////////////////////
; 2839 : 
; 2840 : 	this_explosion = &(meta_explosion_database[ PURPLE_FLARE_META_EXPLOSION ]);

  0002a	b8 10 00 00 00	 mov	 eax, 16			; 00000010H
  0002f	d1 e0		 shl	 eax, 1
  00031	05 00 00 00 00	 add	 eax, OFFSET ?meta_explosion_database@@3PAUMETA_EXPLOSION_DATA@@A ; meta_explosion_database
  00036	89 45 fc	 mov	 DWORD PTR _this_explosion$[ebp], eax

; 2841 : 
; 2842 : 	free_mem( this_explosion->component );

  00039	8b 45 fc	 mov	 eax, DWORD PTR _this_explosion$[ebp]
  0003c	8b 48 0c	 mov	 ecx, DWORD PTR [eax+12]
  0003f	51		 push	 ecx
  00040	e8 00 00 00 00	 call	 ?free_mem@@YGXPAX@Z	; free_mem

; 2843 : 
; 2844 : 	////////////////////////////////////////
; 2845 : 	//
; 2846 : 	// SMALL AP EXPLOSION
; 2847 : 	//
; 2848 : 	////////////////////////////////////////
; 2849 : 
; 2850 : 	this_explosion = &(meta_explosion_database[ SMALL_AP_META_EXPLOSION ]);

  00045	b8 10 00 00 00	 mov	 eax, 16			; 00000010H
  0004a	6b c8 03	 imul	 ecx, eax, 3
  0004d	81 c1 00 00 00
	00		 add	 ecx, OFFSET ?meta_explosion_database@@3PAUMETA_EXPLOSION_DATA@@A ; meta_explosion_database
  00053	89 4d fc	 mov	 DWORD PTR _this_explosion$[ebp], ecx

; 2851 : 
; 2852 : 	free_mem( this_explosion->component );

  00056	8b 45 fc	 mov	 eax, DWORD PTR _this_explosion$[ebp]
  00059	8b 48 0c	 mov	 ecx, DWORD PTR [eax+12]
  0005c	51		 push	 ecx
  0005d	e8 00 00 00 00	 call	 ?free_mem@@YGXPAX@Z	; free_mem

; 2853 : 
; 2854 : 	////////////////////////////////////////
; 2855 : 	//
; 2856 : 	// MEDIUM AP EXPLOSION
; 2857 : 	//
; 2858 : 	////////////////////////////////////////
; 2859 : 
; 2860 : 	this_explosion = &(meta_explosion_database[ MEDIUM_AP_META_EXPLOSION ]);

  00062	b8 10 00 00 00	 mov	 eax, 16			; 00000010H
  00067	c1 e0 02	 shl	 eax, 2
  0006a	05 00 00 00 00	 add	 eax, OFFSET ?meta_explosion_database@@3PAUMETA_EXPLOSION_DATA@@A ; meta_explosion_database
  0006f	89 45 fc	 mov	 DWORD PTR _this_explosion$[ebp], eax

; 2861 : 
; 2862 : 	free_mem( this_explosion->component );

  00072	8b 45 fc	 mov	 eax, DWORD PTR _this_explosion$[ebp]
  00075	8b 48 0c	 mov	 ecx, DWORD PTR [eax+12]
  00078	51		 push	 ecx
  00079	e8 00 00 00 00	 call	 ?free_mem@@YGXPAX@Z	; free_mem

; 2863 : 
; 2864 : 	////////////////////////////////////////
; 2865 : 	//
; 2866 : 	// LARGE AP EXPLOSION
; 2867 : 	//
; 2868 : 	////////////////////////////////////////
; 2869 : 
; 2870 : 	this_explosion = &(meta_explosion_database[ LARGE_AP_META_EXPLOSION ]);

  0007e	b8 10 00 00 00	 mov	 eax, 16			; 00000010H
  00083	6b c8 05	 imul	 ecx, eax, 5
  00086	81 c1 00 00 00
	00		 add	 ecx, OFFSET ?meta_explosion_database@@3PAUMETA_EXPLOSION_DATA@@A ; meta_explosion_database
  0008c	89 4d fc	 mov	 DWORD PTR _this_explosion$[ebp], ecx

; 2871 : 
; 2872 : 	free_mem( this_explosion->component );

  0008f	8b 45 fc	 mov	 eax, DWORD PTR _this_explosion$[ebp]
  00092	8b 48 0c	 mov	 ecx, DWORD PTR [eax+12]
  00095	51		 push	 ecx
  00096	e8 00 00 00 00	 call	 ?free_mem@@YGXPAX@Z	; free_mem

; 2873 : 
; 2874 : 	////////////////////////////////////////
; 2875 : 	//
; 2876 : 	// SMALL HE EXPLOSION
; 2877 : 	//
; 2878 : 	////////////////////////////////////////
; 2879 : 
; 2880 : 	this_explosion = &(meta_explosion_database[ SMALL_HE_META_EXPLOSION ]);

  0009b	b8 10 00 00 00	 mov	 eax, 16			; 00000010H
  000a0	6b c8 06	 imul	 ecx, eax, 6
  000a3	81 c1 00 00 00
	00		 add	 ecx, OFFSET ?meta_explosion_database@@3PAUMETA_EXPLOSION_DATA@@A ; meta_explosion_database
  000a9	89 4d fc	 mov	 DWORD PTR _this_explosion$[ebp], ecx

; 2881 : 
; 2882 : 	free_mem( this_explosion->component );

  000ac	8b 45 fc	 mov	 eax, DWORD PTR _this_explosion$[ebp]
  000af	8b 48 0c	 mov	 ecx, DWORD PTR [eax+12]
  000b2	51		 push	 ecx
  000b3	e8 00 00 00 00	 call	 ?free_mem@@YGXPAX@Z	; free_mem

; 2883 : 
; 2884 : 	////////////////////////////////////////
; 2885 : 	//
; 2886 : 	// MEDIUM HE EXPLOSION
; 2887 : 	//
; 2888 : 	////////////////////////////////////////
; 2889 : 
; 2890 : 	this_explosion = &(meta_explosion_database[ MEDIUM_HE_META_EXPLOSION ]);

  000b8	b8 10 00 00 00	 mov	 eax, 16			; 00000010H
  000bd	6b c8 07	 imul	 ecx, eax, 7
  000c0	81 c1 00 00 00
	00		 add	 ecx, OFFSET ?meta_explosion_database@@3PAUMETA_EXPLOSION_DATA@@A ; meta_explosion_database
  000c6	89 4d fc	 mov	 DWORD PTR _this_explosion$[ebp], ecx

; 2891 : 
; 2892 : 	free_mem( this_explosion->component );

  000c9	8b 45 fc	 mov	 eax, DWORD PTR _this_explosion$[ebp]
  000cc	8b 48 0c	 mov	 ecx, DWORD PTR [eax+12]
  000cf	51		 push	 ecx
  000d0	e8 00 00 00 00	 call	 ?free_mem@@YGXPAX@Z	; free_mem

; 2893 : 
; 2894 : 	////////////////////////////////////////
; 2895 : 	//
; 2896 : 	// LARGE HE EXPLOSION
; 2897 : 	//
; 2898 : 	////////////////////////////////////////
; 2899 : 
; 2900 : 	this_explosion = &(meta_explosion_database[ LARGE_HE_META_EXPLOSION ]);

  000d5	b8 10 00 00 00	 mov	 eax, 16			; 00000010H
  000da	c1 e0 03	 shl	 eax, 3
  000dd	05 00 00 00 00	 add	 eax, OFFSET ?meta_explosion_database@@3PAUMETA_EXPLOSION_DATA@@A ; meta_explosion_database
  000e2	89 45 fc	 mov	 DWORD PTR _this_explosion$[ebp], eax

; 2901 : 
; 2902 : 	free_mem( this_explosion->component );

  000e5	8b 45 fc	 mov	 eax, DWORD PTR _this_explosion$[ebp]
  000e8	8b 48 0c	 mov	 ecx, DWORD PTR [eax+12]
  000eb	51		 push	 ecx
  000ec	e8 00 00 00 00	 call	 ?free_mem@@YGXPAX@Z	; free_mem

; 2903 : 
; 2904 : 	////////////////////////////////////////
; 2905 : 	//
; 2906 : 	// SMALL EARTH EXPLOSION
; 2907 : 	//
; 2908 : 	////////////////////////////////////////
; 2909 : 
; 2910 : 	this_explosion = &(meta_explosion_database[ SMALL_EARTH_META_EXPLOSION ]);

  000f1	b8 10 00 00 00	 mov	 eax, 16			; 00000010H
  000f6	6b c8 0f	 imul	 ecx, eax, 15
  000f9	81 c1 00 00 00
	00		 add	 ecx, OFFSET ?meta_explosion_database@@3PAUMETA_EXPLOSION_DATA@@A ; meta_explosion_database
  000ff	89 4d fc	 mov	 DWORD PTR _this_explosion$[ebp], ecx

; 2911 : 
; 2912 : 	free_mem( this_explosion->component );

  00102	8b 45 fc	 mov	 eax, DWORD PTR _this_explosion$[ebp]
  00105	8b 48 0c	 mov	 ecx, DWORD PTR [eax+12]
  00108	51		 push	 ecx
  00109	e8 00 00 00 00	 call	 ?free_mem@@YGXPAX@Z	; free_mem

; 2913 : 
; 2914 : 	////////////////////////////////////////
; 2915 : 	//
; 2916 : 	// MEDIUM EARTH EXPLOSION
; 2917 : 	//
; 2918 : 	////////////////////////////////////////
; 2919 : 
; 2920 : 	this_explosion = &(meta_explosion_database[ MEDIUM_EARTH_META_EXPLOSION ]);

  0010e	b8 10 00 00 00	 mov	 eax, 16			; 00000010H
  00113	c1 e0 04	 shl	 eax, 4
  00116	05 00 00 00 00	 add	 eax, OFFSET ?meta_explosion_database@@3PAUMETA_EXPLOSION_DATA@@A ; meta_explosion_database
  0011b	89 45 fc	 mov	 DWORD PTR _this_explosion$[ebp], eax

; 2921 : 
; 2922 : 	free_mem( this_explosion->component );

  0011e	8b 45 fc	 mov	 eax, DWORD PTR _this_explosion$[ebp]
  00121	8b 48 0c	 mov	 ecx, DWORD PTR [eax+12]
  00124	51		 push	 ecx
  00125	e8 00 00 00 00	 call	 ?free_mem@@YGXPAX@Z	; free_mem

; 2923 : 
; 2924 : 	////////////////////////////////////////
; 2925 : 	//
; 2926 : 	// LARGE EARTH EXPLOSION
; 2927 : 	//
; 2928 : 	////////////////////////////////////////
; 2929 : 
; 2930 : 	this_explosion = &(meta_explosion_database[ LARGE_EARTH_META_EXPLOSION ]);

  0012a	b8 10 00 00 00	 mov	 eax, 16			; 00000010H
  0012f	6b c8 11	 imul	 ecx, eax, 17
  00132	81 c1 00 00 00
	00		 add	 ecx, OFFSET ?meta_explosion_database@@3PAUMETA_EXPLOSION_DATA@@A ; meta_explosion_database
  00138	89 4d fc	 mov	 DWORD PTR _this_explosion$[ebp], ecx

; 2931 : 
; 2932 : 	free_mem( this_explosion->component );

  0013b	8b 45 fc	 mov	 eax, DWORD PTR _this_explosion$[ebp]
  0013e	8b 48 0c	 mov	 ecx, DWORD PTR [eax+12]
  00141	51		 push	 ecx
  00142	e8 00 00 00 00	 call	 ?free_mem@@YGXPAX@Z	; free_mem

; 2933 : 
; 2934 : 	////////////////////////////////////////
; 2935 : 	//
; 2936 : 	// SMALL WATER EXPLOSION
; 2937 : 	//
; 2938 : 	////////////////////////////////////////
; 2939 : 
; 2940 : 	this_explosion = &(meta_explosion_database[ SMALL_WATER_META_EXPLOSION ]);

  00147	b8 10 00 00 00	 mov	 eax, 16			; 00000010H
  0014c	6b c8 12	 imul	 ecx, eax, 18
  0014f	81 c1 00 00 00
	00		 add	 ecx, OFFSET ?meta_explosion_database@@3PAUMETA_EXPLOSION_DATA@@A ; meta_explosion_database
  00155	89 4d fc	 mov	 DWORD PTR _this_explosion$[ebp], ecx

; 2941 : 
; 2942 : 	free_mem( this_explosion->component );

  00158	8b 45 fc	 mov	 eax, DWORD PTR _this_explosion$[ebp]
  0015b	8b 48 0c	 mov	 ecx, DWORD PTR [eax+12]
  0015e	51		 push	 ecx
  0015f	e8 00 00 00 00	 call	 ?free_mem@@YGXPAX@Z	; free_mem

; 2943 : 
; 2944 : 	////////////////////////////////////////
; 2945 : 	//
; 2946 : 	// MEDIUM WATER EXPLOSION
; 2947 : 	//
; 2948 : 	////////////////////////////////////////
; 2949 : 
; 2950 : 	this_explosion = &(meta_explosion_database[ MEDIUM_WATER_META_EXPLOSION ]);

  00164	b8 10 00 00 00	 mov	 eax, 16			; 00000010H
  00169	6b c8 13	 imul	 ecx, eax, 19
  0016c	81 c1 00 00 00
	00		 add	 ecx, OFFSET ?meta_explosion_database@@3PAUMETA_EXPLOSION_DATA@@A ; meta_explosion_database
  00172	89 4d fc	 mov	 DWORD PTR _this_explosion$[ebp], ecx

; 2951 : 
; 2952 : 	free_mem( this_explosion->component );

  00175	8b 45 fc	 mov	 eax, DWORD PTR _this_explosion$[ebp]
  00178	8b 48 0c	 mov	 ecx, DWORD PTR [eax+12]
  0017b	51		 push	 ecx
  0017c	e8 00 00 00 00	 call	 ?free_mem@@YGXPAX@Z	; free_mem

; 2953 : 
; 2954 : 	////////////////////////////////////////
; 2955 : 	//
; 2956 : 	// LARGE WATER EXPLOSION
; 2957 : 	//
; 2958 : 	////////////////////////////////////////
; 2959 : 
; 2960 : 	this_explosion = &(meta_explosion_database[ LARGE_WATER_META_EXPLOSION ]);

  00181	b8 10 00 00 00	 mov	 eax, 16			; 00000010H
  00186	6b c8 14	 imul	 ecx, eax, 20
  00189	81 c1 00 00 00
	00		 add	 ecx, OFFSET ?meta_explosion_database@@3PAUMETA_EXPLOSION_DATA@@A ; meta_explosion_database
  0018f	89 4d fc	 mov	 DWORD PTR _this_explosion$[ebp], ecx

; 2961 : 
; 2962 : 	free_mem( this_explosion->component );

  00192	8b 45 fc	 mov	 eax, DWORD PTR _this_explosion$[ebp]
  00195	8b 48 0c	 mov	 ecx, DWORD PTR [eax+12]
  00198	51		 push	 ecx
  00199	e8 00 00 00 00	 call	 ?free_mem@@YGXPAX@Z	; free_mem

; 2963 : 
; 2964 : 	////////////////////////////////////////
; 2965 : 	//
; 2966 : 	// SMALL DUST EXPLOSION
; 2967 : 	//
; 2968 : 	////////////////////////////////////////
; 2969 : 
; 2970 : 	this_explosion = &(meta_explosion_database[ SMALL_DUST_META_EXPLOSION ]);

  0019e	b8 10 00 00 00	 mov	 eax, 16			; 00000010H
  001a3	6b c8 09	 imul	 ecx, eax, 9
  001a6	81 c1 00 00 00
	00		 add	 ecx, OFFSET ?meta_explosion_database@@3PAUMETA_EXPLOSION_DATA@@A ; meta_explosion_database
  001ac	89 4d fc	 mov	 DWORD PTR _this_explosion$[ebp], ecx

; 2971 : 
; 2972 : 	free_mem( this_explosion->component );

  001af	8b 45 fc	 mov	 eax, DWORD PTR _this_explosion$[ebp]
  001b2	8b 48 0c	 mov	 ecx, DWORD PTR [eax+12]
  001b5	51		 push	 ecx
  001b6	e8 00 00 00 00	 call	 ?free_mem@@YGXPAX@Z	; free_mem

; 2973 : 
; 2974 : 	////////////////////////////////////////
; 2975 : 	//
; 2976 : 	// MEDIUM DUST EXPLOSION
; 2977 : 	//
; 2978 : 	////////////////////////////////////////
; 2979 : 
; 2980 : 	this_explosion = &(meta_explosion_database[ MEDIUM_DUST_META_EXPLOSION ]);

  001bb	b8 10 00 00 00	 mov	 eax, 16			; 00000010H
  001c0	6b c8 0a	 imul	 ecx, eax, 10
  001c3	81 c1 00 00 00
	00		 add	 ecx, OFFSET ?meta_explosion_database@@3PAUMETA_EXPLOSION_DATA@@A ; meta_explosion_database
  001c9	89 4d fc	 mov	 DWORD PTR _this_explosion$[ebp], ecx

; 2981 : 
; 2982 : 	free_mem( this_explosion->component );

  001cc	8b 45 fc	 mov	 eax, DWORD PTR _this_explosion$[ebp]
  001cf	8b 48 0c	 mov	 ecx, DWORD PTR [eax+12]
  001d2	51		 push	 ecx
  001d3	e8 00 00 00 00	 call	 ?free_mem@@YGXPAX@Z	; free_mem

; 2983 : 
; 2984 : 	////////////////////////////////////////
; 2985 : 	//
; 2986 : 	// LARGE DUST EXPLOSION
; 2987 : 	//
; 2988 : 	////////////////////////////////////////
; 2989 : 
; 2990 : 	this_explosion = &(meta_explosion_database[ LARGE_DUST_META_EXPLOSION ]);

  001d8	b8 10 00 00 00	 mov	 eax, 16			; 00000010H
  001dd	6b c8 0b	 imul	 ecx, eax, 11
  001e0	81 c1 00 00 00
	00		 add	 ecx, OFFSET ?meta_explosion_database@@3PAUMETA_EXPLOSION_DATA@@A ; meta_explosion_database
  001e6	89 4d fc	 mov	 DWORD PTR _this_explosion$[ebp], ecx

; 2991 : 
; 2992 : 	free_mem( this_explosion->component );

  001e9	8b 45 fc	 mov	 eax, DWORD PTR _this_explosion$[ebp]
  001ec	8b 48 0c	 mov	 ecx, DWORD PTR [eax+12]
  001ef	51		 push	 ecx
  001f0	e8 00 00 00 00	 call	 ?free_mem@@YGXPAX@Z	; free_mem

; 2993 : 
; 2994 : 	////////////////////////////////////////
; 2995 : 	//
; 2996 : 	// SMALL EXPLOSIVE OBJECT EXPLOSION
; 2997 : 	//
; 2998 : 	////////////////////////////////////////
; 2999 : 
; 3000 : 	this_explosion = &(meta_explosion_database[ SMALL_EXPLOSIVE_OBJECT_META_EXPLOSION ]);

  001f5	b8 10 00 00 00	 mov	 eax, 16			; 00000010H
  001fa	6b c8 0c	 imul	 ecx, eax, 12
  001fd	81 c1 00 00 00
	00		 add	 ecx, OFFSET ?meta_explosion_database@@3PAUMETA_EXPLOSION_DATA@@A ; meta_explosion_database
  00203	89 4d fc	 mov	 DWORD PTR _this_explosion$[ebp], ecx

; 3001 : 
; 3002 : 	free_mem( this_explosion->component );

  00206	8b 45 fc	 mov	 eax, DWORD PTR _this_explosion$[ebp]
  00209	8b 48 0c	 mov	 ecx, DWORD PTR [eax+12]
  0020c	51		 push	 ecx
  0020d	e8 00 00 00 00	 call	 ?free_mem@@YGXPAX@Z	; free_mem

; 3003 : 
; 3004 : 	////////////////////////////////////////
; 3005 : 	//
; 3006 : 	// MEDIUM EXPLOSIVE OBJECT EXPLOSION
; 3007 : 	//
; 3008 : 	////////////////////////////////////////
; 3009 : 
; 3010 : 	this_explosion = &(meta_explosion_database[ MEDIUM_EXPLOSIVE_OBJECT_META_EXPLOSION ]);

  00212	b8 10 00 00 00	 mov	 eax, 16			; 00000010H
  00217	6b c8 0d	 imul	 ecx, eax, 13
  0021a	81 c1 00 00 00
	00		 add	 ecx, OFFSET ?meta_explosion_database@@3PAUMETA_EXPLOSION_DATA@@A ; meta_explosion_database
  00220	89 4d fc	 mov	 DWORD PTR _this_explosion$[ebp], ecx

; 3011 : 
; 3012 : 	free_mem( this_explosion->component );

  00223	8b 45 fc	 mov	 eax, DWORD PTR _this_explosion$[ebp]
  00226	8b 48 0c	 mov	 ecx, DWORD PTR [eax+12]
  00229	51		 push	 ecx
  0022a	e8 00 00 00 00	 call	 ?free_mem@@YGXPAX@Z	; free_mem

; 3013 : 
; 3014 : 	////////////////////////////////////////
; 3015 : 	//
; 3016 : 	// LARGE EXPLOSIVE OBJECT EXPLOSION
; 3017 : 	//
; 3018 : 	////////////////////////////////////////
; 3019 : 
; 3020 : 	this_explosion = &(meta_explosion_database[ LARGE_EXPLOSIVE_OBJECT_META_EXPLOSION ]);

  0022f	b8 10 00 00 00	 mov	 eax, 16			; 00000010H
  00234	6b c8 0e	 imul	 ecx, eax, 14
  00237	81 c1 00 00 00
	00		 add	 ecx, OFFSET ?meta_explosion_database@@3PAUMETA_EXPLOSION_DATA@@A ; meta_explosion_database
  0023d	89 4d fc	 mov	 DWORD PTR _this_explosion$[ebp], ecx

; 3021 : 
; 3022 : 	free_mem( this_explosion->component );

  00240	8b 45 fc	 mov	 eax, DWORD PTR _this_explosion$[ebp]
  00243	8b 48 0c	 mov	 ecx, DWORD PTR [eax+12]
  00246	51		 push	 ecx
  00247	e8 00 00 00 00	 call	 ?free_mem@@YGXPAX@Z	; free_mem

; 3023 : }

  0024c	5f		 pop	 edi
  0024d	5e		 pop	 esi
  0024e	5b		 pop	 ebx
  0024f	8b e5		 mov	 esp, ebp
  00251	5d		 pop	 ebp
  00252	c3		 ret	 0
?deinitialise_explosion_database@@YGXXZ ENDP		; deinitialise_explosion_database
_TEXT	ENDS
; Function compile flags: /Odtp /ZI
; File c:\users\nhv90\projects\eech\aphavoc\source\entity\special\effect\explosn\xp_dbase.c
;	COMDAT ?initialise_explosion_database@@YGXXZ
_TEXT	SEGMENT
?initialise_explosion_database@@YGXXZ PROC		; initialise_explosion_database, COMDAT

; 499  : {

  00000	55		 push	 ebp
  00001	8b ec		 mov	 ebp, esp
  00003	83 ec 40	 sub	 esp, 64			; 00000040H
  00006	53		 push	 ebx
  00007	56		 push	 esi
  00008	57		 push	 edi

; 500  : 	initialise_misc_explosion_database();

  00009	e8 00 00 00 00	 call	 ?initialise_misc_explosion_database@@YGXXZ ; initialise_misc_explosion_database

; 501  : 
; 502  : 	initialise_armour_piercing_explosion_database();

  0000e	e8 00 00 00 00	 call	 ?initialise_armour_piercing_explosion_database@@YGXXZ ; initialise_armour_piercing_explosion_database

; 503  : 
; 504  : 	initialise_high_explosive_explosion_database();

  00013	e8 00 00 00 00	 call	 ?initialise_high_explosive_explosion_database@@YGXXZ ; initialise_high_explosive_explosion_database

; 505  : 
; 506  : 	initialise_earth_explosion_database();

  00018	e8 00 00 00 00	 call	 ?initialise_earth_explosion_database@@YGXXZ ; initialise_earth_explosion_database

; 507  : 
; 508  : 	initialise_water_explosion_database();

  0001d	e8 00 00 00 00	 call	 ?initialise_water_explosion_database@@YGXXZ ; initialise_water_explosion_database

; 509  : 
; 510  : 	initialise_object_dust_explosion_database();

  00022	e8 00 00 00 00	 call	 ?initialise_object_dust_explosion_database@@YGXXZ ; initialise_object_dust_explosion_database

; 511  : 
; 512  : 	initialise_weapon_explosion_criteria_tables();

  00027	e8 00 00 00 00	 call	 ?initialise_weapon_explosion_criteria_tables@@YGXXZ ; initialise_weapon_explosion_criteria_tables

; 513  : 
; 514  : 	initialise_object_explosive_explosion_database();

  0002c	e8 00 00 00 00	 call	 ?initialise_object_explosive_explosion_database@@YGXXZ ; initialise_object_explosive_explosion_database

; 515  : 
; 516  : 	// 01DEC10 Casm Explosion database import/export
; 517  : 	if (file_exist(EXPLOSION_DATABASE_FILENAME))

  00031	68 00 00 00 00	 push	 OFFSET ??_C@_0L@NINGNIJC@EXPLOS?4CSV@
  00036	e8 00 00 00 00	 call	 ?file_exist@@YGHPBD@Z	; file_exist
  0003b	85 c0		 test	 eax, eax
  0003d	74 07		 je	 SHORT $LN2@initialise

; 518  : 	{
; 519  : 		import_explosion_database();

  0003f	e8 00 00 00 00	 call	 ?import_explosion_database@@YGXXZ ; import_explosion_database

; 520  : 	}
; 521  : 	else

  00044	eb 05		 jmp	 SHORT $LN1@initialise
$LN2@initialise:

; 522  : 	{
; 523  : 		export_explosion_database();

  00046	e8 00 00 00 00	 call	 ?export_explosion_database@@YGXXZ ; export_explosion_database
$LN1@initialise:

; 524  : 	}
; 525  : }

  0004b	5f		 pop	 edi
  0004c	5e		 pop	 esi
  0004d	5b		 pop	 ebx
  0004e	8b e5		 mov	 esp, ebp
  00050	5d		 pop	 ebp
  00051	c3		 ret	 0
?initialise_explosion_database@@YGXXZ ENDP		; initialise_explosion_database
_TEXT	ENDS
; Function compile flags: /Odtp /ZI
; File c:\program files (x86)\windows kits\10\include\10.0.18362.0\ucrt\string.h
;	COMDAT ?strchr@@YAPADQADH@Z
_TEXT	SEGMENT
__String$ = 8						; size = 4
__Ch$ = 12						; size = 4
?strchr@@YAPADQADH@Z PROC				; strchr, COMDAT

; 505  :     {

  00000	55		 push	 ebp
  00001	8b ec		 mov	 ebp, esp
  00003	83 ec 40	 sub	 esp, 64			; 00000040H
  00006	53		 push	 ebx
  00007	56		 push	 esi
  00008	57		 push	 edi

; 506  :         return const_cast<char*>(strchr(static_cast<char const*>(_String), _Ch));

  00009	8b 45 0c	 mov	 eax, DWORD PTR __Ch$[ebp]
  0000c	50		 push	 eax
  0000d	8b 4d 08	 mov	 ecx, DWORD PTR __String$[ebp]
  00010	51		 push	 ecx
  00011	e8 00 00 00 00	 call	 _strchr
  00016	83 c4 08	 add	 esp, 8

; 507  :     }

  00019	5f		 pop	 edi
  0001a	5e		 pop	 esi
  0001b	5b		 pop	 ebx
  0001c	8b e5		 mov	 esp, ebp
  0001e	5d		 pop	 ebp
  0001f	c3		 ret	 0
?strchr@@YAPADQADH@Z ENDP				; strchr
_TEXT	ENDS
; Function compile flags: /Odtp /ZI
; File c:\program files (x86)\windows kits\10\include\10.0.18362.0\ucrt\stdio.h
;	COMDAT _sscanf
_TEXT	SEGMENT
__ArgList$ = -8						; size = 4
__Result$ = -4						; size = 4
__Buffer$ = 8						; size = 4
__Format$ = 12						; size = 4
_sscanf	PROC						; COMDAT

; 2270 :     {

  00000	55		 push	 ebp
  00001	8b ec		 mov	 ebp, esp
  00003	83 ec 4c	 sub	 esp, 76			; 0000004cH
  00006	53		 push	 ebx
  00007	56		 push	 esi
  00008	57		 push	 edi

; 2271 :         int _Result;
; 2272 :         va_list _ArgList;
; 2273 :         __crt_va_start(_ArgList, _Format);

  00009	8d 45 10	 lea	 eax, DWORD PTR __Format$[ebp+4]
  0000c	89 45 f8	 mov	 DWORD PTR __ArgList$[ebp], eax

; 2274 :         _Result = _vsscanf_l(_Buffer, _Format, NULL, _ArgList);

  0000f	8b 45 f8	 mov	 eax, DWORD PTR __ArgList$[ebp]
  00012	50		 push	 eax
  00013	6a 00		 push	 0
  00015	8b 4d 0c	 mov	 ecx, DWORD PTR __Format$[ebp]
  00018	51		 push	 ecx
  00019	8b 55 08	 mov	 edx, DWORD PTR __Buffer$[ebp]
  0001c	52		 push	 edx
  0001d	e8 00 00 00 00	 call	 __vsscanf_l
  00022	83 c4 10	 add	 esp, 16			; 00000010H
  00025	89 45 fc	 mov	 DWORD PTR __Result$[ebp], eax

; 2275 :         __crt_va_end(_ArgList);

  00028	c7 45 f8 00 00
	00 00		 mov	 DWORD PTR __ArgList$[ebp], 0

; 2276 :         return _Result;

  0002f	8b 45 fc	 mov	 eax, DWORD PTR __Result$[ebp]

; 2277 :     }

  00032	5f		 pop	 edi
  00033	5e		 pop	 esi
  00034	5b		 pop	 ebx
  00035	8b e5		 mov	 esp, ebp
  00037	5d		 pop	 ebp
  00038	c3		 ret	 0
_sscanf	ENDP
_TEXT	ENDS
; Function compile flags: /Odtp /ZI
; File c:\program files (x86)\windows kits\10\include\10.0.18362.0\ucrt\stdio.h
;	COMDAT __vsscanf_l
_TEXT	SEGMENT
__Buffer$ = 8						; size = 4
__Format$ = 12						; size = 4
__Locale$ = 16						; size = 4
__ArgList$ = 20						; size = 4
__vsscanf_l PROC					; COMDAT

; 2175 :     {

  00000	55		 push	 ebp
  00001	8b ec		 mov	 ebp, esp
  00003	83 ec 40	 sub	 esp, 64			; 00000040H
  00006	53		 push	 ebx
  00007	56		 push	 esi
  00008	57		 push	 edi

; 2176 :         return __stdio_common_vsscanf(

  00009	8b 45 14	 mov	 eax, DWORD PTR __ArgList$[ebp]
  0000c	50		 push	 eax
  0000d	8b 4d 10	 mov	 ecx, DWORD PTR __Locale$[ebp]
  00010	51		 push	 ecx
  00011	8b 55 0c	 mov	 edx, DWORD PTR __Format$[ebp]
  00014	52		 push	 edx
  00015	6a ff		 push	 -1
  00017	8b 45 08	 mov	 eax, DWORD PTR __Buffer$[ebp]
  0001a	50		 push	 eax
  0001b	e8 00 00 00 00	 call	 ___local_stdio_scanf_options
  00020	8b 48 04	 mov	 ecx, DWORD PTR [eax+4]
  00023	51		 push	 ecx
  00024	8b 10		 mov	 edx, DWORD PTR [eax]
  00026	52		 push	 edx
  00027	ff 15 00 00 00
	00		 call	 DWORD PTR __imp____stdio_common_vsscanf
  0002d	83 c4 1c	 add	 esp, 28			; 0000001cH

; 2177 :             _CRT_INTERNAL_LOCAL_SCANF_OPTIONS,
; 2178 :             _Buffer, (size_t)-1, _Format, _Locale, _ArgList);
; 2179 :     }

  00030	5f		 pop	 edi
  00031	5e		 pop	 esi
  00032	5b		 pop	 ebx
  00033	8b e5		 mov	 esp, ebp
  00035	5d		 pop	 ebp
  00036	c3		 ret	 0
__vsscanf_l ENDP
_TEXT	ENDS
; Function compile flags: /Odtp /ZI
; File c:\program files (x86)\windows kits\10\include\10.0.18362.0\ucrt\stdio.h
;	COMDAT _fprintf
_TEXT	SEGMENT
__ArgList$ = -8						; size = 4
__Result$ = -4						; size = 4
__Stream$ = 8						; size = 4
__Format$ = 12						; size = 4
_fprintf PROC						; COMDAT

; 835  :     {

  00000	55		 push	 ebp
  00001	8b ec		 mov	 ebp, esp
  00003	83 ec 4c	 sub	 esp, 76			; 0000004cH
  00006	53		 push	 ebx
  00007	56		 push	 esi
  00008	57		 push	 edi

; 836  :         int _Result;
; 837  :         va_list _ArgList;
; 838  :         __crt_va_start(_ArgList, _Format);

  00009	8d 45 10	 lea	 eax, DWORD PTR __Format$[ebp+4]
  0000c	89 45 f8	 mov	 DWORD PTR __ArgList$[ebp], eax

; 839  :         _Result = _vfprintf_l(_Stream, _Format, NULL, _ArgList);

  0000f	8b 45 f8	 mov	 eax, DWORD PTR __ArgList$[ebp]
  00012	50		 push	 eax
  00013	6a 00		 push	 0
  00015	8b 4d 0c	 mov	 ecx, DWORD PTR __Format$[ebp]
  00018	51		 push	 ecx
  00019	8b 55 08	 mov	 edx, DWORD PTR __Stream$[ebp]
  0001c	52		 push	 edx
  0001d	e8 00 00 00 00	 call	 __vfprintf_l
  00022	83 c4 10	 add	 esp, 16			; 00000010H
  00025	89 45 fc	 mov	 DWORD PTR __Result$[ebp], eax

; 840  :         __crt_va_end(_ArgList);

  00028	c7 45 f8 00 00
	00 00		 mov	 DWORD PTR __ArgList$[ebp], 0

; 841  :         return _Result;

  0002f	8b 45 fc	 mov	 eax, DWORD PTR __Result$[ebp]

; 842  :     }

  00032	5f		 pop	 edi
  00033	5e		 pop	 esi
  00034	5b		 pop	 ebx
  00035	8b e5		 mov	 esp, ebp
  00037	5d		 pop	 ebp
  00038	c3		 ret	 0
_fprintf ENDP
_TEXT	ENDS
; Function compile flags: /Odtp /ZI
; File c:\program files (x86)\windows kits\10\include\10.0.18362.0\ucrt\stdio.h
;	COMDAT __vfprintf_l
_TEXT	SEGMENT
__Stream$ = 8						; size = 4
__Format$ = 12						; size = 4
__Locale$ = 16						; size = 4
__ArgList$ = 20						; size = 4
__vfprintf_l PROC					; COMDAT

; 642  :     {

  00000	55		 push	 ebp
  00001	8b ec		 mov	 ebp, esp
  00003	83 ec 40	 sub	 esp, 64			; 00000040H
  00006	53		 push	 ebx
  00007	56		 push	 esi
  00008	57		 push	 edi

; 643  :         return __stdio_common_vfprintf(_CRT_INTERNAL_LOCAL_PRINTF_OPTIONS, _Stream, _Format, _Locale, _ArgList);

  00009	8b 45 14	 mov	 eax, DWORD PTR __ArgList$[ebp]
  0000c	50		 push	 eax
  0000d	8b 4d 10	 mov	 ecx, DWORD PTR __Locale$[ebp]
  00010	51		 push	 ecx
  00011	8b 55 0c	 mov	 edx, DWORD PTR __Format$[ebp]
  00014	52		 push	 edx
  00015	8b 45 08	 mov	 eax, DWORD PTR __Stream$[ebp]
  00018	50		 push	 eax
  00019	e8 00 00 00 00	 call	 ___local_stdio_printf_options
  0001e	8b 48 04	 mov	 ecx, DWORD PTR [eax+4]
  00021	51		 push	 ecx
  00022	8b 10		 mov	 edx, DWORD PTR [eax]
  00024	52		 push	 edx
  00025	ff 15 00 00 00
	00		 call	 DWORD PTR __imp____stdio_common_vfprintf
  0002b	83 c4 18	 add	 esp, 24			; 00000018H

; 644  :     }

  0002e	5f		 pop	 edi
  0002f	5e		 pop	 esi
  00030	5b		 pop	 ebx
  00031	8b e5		 mov	 esp, ebp
  00033	5d		 pop	 ebp
  00034	c3		 ret	 0
__vfprintf_l ENDP
_TEXT	ENDS
; Function compile flags: /Odtp /ZI
; File c:\program files (x86)\windows kits\10\include\10.0.18362.0\ucrt\corecrt_stdio_config.h
;	COMDAT ___local_stdio_scanf_options
_TEXT	SEGMENT
___local_stdio_scanf_options PROC			; COMDAT

; 96   :     {

  00000	55		 push	 ebp
  00001	8b ec		 mov	 ebp, esp
  00003	83 ec 40	 sub	 esp, 64			; 00000040H
  00006	53		 push	 ebx
  00007	56		 push	 esi
  00008	57		 push	 edi

; 97   :         static unsigned __int64 _OptionsStorage;
; 98   :         return &_OptionsStorage;

  00009	b8 00 00 00 00	 mov	 eax, OFFSET ?_OptionsStorage@?1??__local_stdio_scanf_options@@9@4_KA ; `__local_stdio_scanf_options'::`2'::_OptionsStorage

; 99   :     }

  0000e	5f		 pop	 edi
  0000f	5e		 pop	 esi
  00010	5b		 pop	 ebx
  00011	8b e5		 mov	 esp, ebp
  00013	5d		 pop	 ebp
  00014	c3		 ret	 0
___local_stdio_scanf_options ENDP
_TEXT	ENDS
; Function compile flags: /Odtp /ZI
; File c:\program files (x86)\windows kits\10\include\10.0.18362.0\ucrt\corecrt_stdio_config.h
;	COMDAT ___local_stdio_printf_options
_TEXT	SEGMENT
___local_stdio_printf_options PROC			; COMDAT

; 86   :     {

  00000	55		 push	 ebp
  00001	8b ec		 mov	 ebp, esp
  00003	83 ec 40	 sub	 esp, 64			; 00000040H
  00006	53		 push	 ebx
  00007	56		 push	 esi
  00008	57		 push	 edi

; 87   :         static unsigned __int64 _OptionsStorage;
; 88   :         return &_OptionsStorage;

  00009	b8 00 00 00 00	 mov	 eax, OFFSET ?_OptionsStorage@?1??__local_stdio_printf_options@@9@4_KA ; `__local_stdio_printf_options'::`2'::_OptionsStorage

; 89   :     }

  0000e	5f		 pop	 edi
  0000f	5e		 pop	 esi
  00010	5b		 pop	 ebx
  00011	8b e5		 mov	 esp, ebp
  00013	5d		 pop	 ebp
  00014	c3		 ret	 0
___local_stdio_printf_options ENDP
_TEXT	ENDS
END
