; Listing generated by Microsoft (R) Optimizing Compiler Version 19.16.27045.0 

	TITLE	C:\Users\nhv90\Projects\eech\aphavoc\source\entity\special\effect\explosn\xp_pack.c
	.686P
	.XMM
	include listing.inc
	.model	flat

INCLUDELIB MSVCRTD
INCLUDELIB OLDNAMES

PUBLIC	?overload_explosion_pack_functions@@YGXXZ	; overload_explosion_pack_functions
PUBLIC	?__LINE__Var@?0??pack_local_data@@YGXPAUENTITY@@W4PACK_MODES@@@Z@4JA ; `pack_local_data'::`1'::__LINE__Var
PUBLIC	??_C@_0FE@EBNGNEEC@c?3?2users?2nhv90?2projects?2eech?2ap@ ; `string'
PUBLIC	??_C@_0CH@MMFDPOBJ@?$CImode?5?$DO?$DN?50?$CJ?5?$CG?$CG?5?$CImode?5?$DM?5NUM_PACK@ ; `string'
PUBLIC	?__LINE__Var@?0??unpack_local_data@@YGXPAUENTITY@@W4ENTITY_TYPES@@W4PACK_MODES@@@Z@4JA ; `unpack_local_data'::`1'::__LINE__Var
EXTRN	_memset:PROC
EXTRN	?process_assert@@YGXPBD0H@Z:PROC		; process_assert
EXTRN	?malloc_heap_memory@@YGPAXI@Z:PROC		; malloc_heap_memory
EXTRN	?pack_entity_type@@YGXW4ENTITY_TYPES@@@Z:PROC	; pack_entity_type
EXTRN	?insert_local_entity_into_parents_child_list@@YGXPAUENTITY@@W4LIST_TYPES@@00@Z:PROC ; insert_local_entity_into_parents_child_list
EXTRN	?pack_float_value@@YGXPAUENTITY@@W4FLOAT_TYPES@@M@Z:PROC ; pack_float_value
EXTRN	?unpack_float_value@@YGMPAUENTITY@@W4FLOAT_TYPES@@@Z:PROC ; unpack_float_value
EXTRN	?pack_int_value@@YGXPAUENTITY@@W4INT_TYPES@@H@Z:PROC ; pack_int_value
EXTRN	?unpack_int_value@@YGHPAUENTITY@@W4INT_TYPES@@@Z:PROC ; unpack_int_value
EXTRN	?get_free_entity@@YGPAUENTITY@@H@Z:PROC		; get_free_entity
EXTRN	?unpack_entity_safe_index@@YGHXZ:PROC		; unpack_entity_safe_index
EXTRN	?pack_entity_safe_ptr@@YGXPAUENTITY@@@Z:PROC	; pack_entity_safe_ptr
EXTRN	?pack_effect_data@@YGXPAUENTITY@@PAUEFFECT@@W4PACK_MODES@@@Z:PROC ; pack_effect_data
EXTRN	?unpack_effect_data@@YGXPAUENTITY@@PAUEFFECT@@W4PACK_MODES@@@Z:PROC ; unpack_effect_data
EXTRN	?get_local_sector_entity@@YGPAUENTITY@@PAUVEC3D@@@Z:PROC ; get_local_sector_entity
EXTRN	?null_entity_pointer_message@@3PBDB:DWORD	; null_entity_pointer_message
EXTRN	?fn_pack_local_entity_data@@3PAP6GXPAUENTITY@@W4PACK_MODES@@@ZA:BYTE ; fn_pack_local_entity_data
EXTRN	?fn_unpack_local_entity_data@@3PAP6GXPAUENTITY@@W4ENTITY_TYPES@@W4PACK_MODES@@@ZA:BYTE ; fn_unpack_local_entity_data
EXTRN	?update_entity@@3PAUENTITY@@A:DWORD		; update_entity
EXTRN	__fltused:DWORD
;	COMDAT ?__LINE__Var@?0??unpack_local_data@@YGXPAUENTITY@@W4ENTITY_TYPES@@W4PACK_MODES@@@Z@4JA
_DATA	SEGMENT
?__LINE__Var@?0??unpack_local_data@@YGXPAUENTITY@@W4ENTITY_TYPES@@W4PACK_MODES@@@Z@4JA DD 092H ; `unpack_local_data'::`1'::__LINE__Var
_DATA	ENDS
;	COMDAT ??_C@_0CH@MMFDPOBJ@?$CImode?5?$DO?$DN?50?$CJ?5?$CG?$CG?5?$CImode?5?$DM?5NUM_PACK@
CONST	SEGMENT
??_C@_0CH@MMFDPOBJ@?$CImode?5?$DO?$DN?50?$CJ?5?$CG?$CG?5?$CImode?5?$DM?5NUM_PACK@ DB '('
	DB	'mode >= 0) && (mode < NUM_PACK_MODES)', 00H	; `string'
CONST	ENDS
;	COMDAT ??_C@_0FE@EBNGNEEC@c?3?2users?2nhv90?2projects?2eech?2ap@
CONST	SEGMENT
??_C@_0FE@EBNGNEEC@c?3?2users?2nhv90?2projects?2eech?2ap@ DB 'c:\users\nh'
	DB	'v90\projects\eech\aphavoc\source\entity\special\effect\explos'
	DB	'n\xp_pack.c', 00H				; `string'
CONST	ENDS
;	COMDAT ?__LINE__Var@?0??pack_local_data@@YGXPAUENTITY@@W4PACK_MODES@@@Z@4JA
_DATA	SEGMENT
?__LINE__Var@?0??pack_local_data@@YGXPAUENTITY@@W4PACK_MODES@@@Z@4JA DD 050H ; `pack_local_data'::`1'::__LINE__Var
_DATA	ENDS
; Function compile flags: /Odtp /ZI
; File c:\users\nhv90\projects\eech\aphavoc\source\entity\special\effect\explosn\xp_pack.c
;	COMDAT ?unpack_local_data@@YGXPAUENTITY@@W4ENTITY_TYPES@@W4PACK_MODES@@@Z
_TEXT	SEGMENT
tv70 = -76						; size = 4
_raw$1 = -8						; size = 4
_index$2 = -4						; size = 4
_en$ = 8						; size = 4
_type$ = 12						; size = 4
_mode$ = 16						; size = 4
?unpack_local_data@@YGXPAUENTITY@@W4ENTITY_TYPES@@W4PACK_MODES@@@Z PROC ; unpack_local_data, COMDAT

; 146  : {

  00000	55		 push	 ebp
  00001	8b ec		 mov	 ebp, esp
  00003	83 ec 4c	 sub	 esp, 76			; 0000004cH
  00006	53		 push	 ebx
  00007	56		 push	 esi
  00008	57		 push	 edi

; 147  : 	ASSERT ((mode >= 0) && (mode < NUM_PACK_MODES));

  00009	83 7d 10 00	 cmp	 DWORD PTR _mode$[ebp], 0
  0000d	7c 06		 jl	 SHORT $LN5@unpack_loc
  0000f	83 7d 10 04	 cmp	 DWORD PTR _mode$[ebp], 4
  00013	7c 18		 jl	 SHORT $LN4@unpack_loc
$LN5@unpack_loc:
  00015	a1 00 00 00 00	 mov	 eax, DWORD PTR ?__LINE__Var@?0??unpack_local_data@@YGXPAUENTITY@@W4ENTITY_TYPES@@W4PACK_MODES@@@Z@4JA
  0001a	83 c0 01	 add	 eax, 1
  0001d	50		 push	 eax
  0001e	68 00 00 00 00	 push	 OFFSET ??_C@_0FE@EBNGNEEC@c?3?2users?2nhv90?2projects?2eech?2ap@
  00023	68 00 00 00 00	 push	 OFFSET ??_C@_0CH@MMFDPOBJ@?$CImode?5?$DO?$DN?50?$CJ?5?$CG?$CG?5?$CImode?5?$DM?5NUM_PACK@
  00028	e8 00 00 00 00	 call	 ?process_assert@@YGXPBD0H@Z ; process_assert
$LN4@unpack_loc:

; 148  : 
; 149  : 	switch (mode)

  0002d	8b 45 10	 mov	 eax, DWORD PTR _mode$[ebp]
  00030	89 45 b4	 mov	 DWORD PTR tv70[ebp], eax
  00033	83 7d b4 00	 cmp	 DWORD PTR tv70[ebp], 0
  00037	0f 8c 13 01 00
	00		 jl	 $LN2@unpack_loc
  0003d	83 7d b4 01	 cmp	 DWORD PTR tv70[ebp], 1
  00041	7e 05		 jle	 SHORT $LN6@unpack_loc
  00043	e9 08 01 00 00	 jmp	 $LN2@unpack_loc
$LN6@unpack_loc:

; 150  : 	{
; 151  : 		////////////////////////////////////////
; 152  : 		case PACK_MODE_SERVER_SESSION:
; 153  : 		case PACK_MODE_CLIENT_SESSION:
; 154  : 		////////////////////////////////////////
; 155  : 		{
; 156  : 			int
; 157  : 				index;
; 158  : 
; 159  : 			explosion
; 160  : 				*raw;
; 161  : 
; 162  : 			//
; 163  : 			// create entity
; 164  : 			//
; 165  : 
; 166  : 			index = unpack_entity_safe_index ();

  00048	e8 00 00 00 00	 call	 ?unpack_entity_safe_index@@YGHXZ ; unpack_entity_safe_index
  0004d	89 45 fc	 mov	 DWORD PTR _index$2[ebp], eax

; 167  : 
; 168  : 			en = get_free_entity (index);

  00050	8b 45 fc	 mov	 eax, DWORD PTR _index$2[ebp]
  00053	50		 push	 eax
  00054	e8 00 00 00 00	 call	 ?get_free_entity@@YGPAUENTITY@@H@Z ; get_free_entity
  00059	89 45 08	 mov	 DWORD PTR _en$[ebp], eax

; 169  : 
; 170  : 			set_local_entity_type (en, type);

  0005c	8b 45 08	 mov	 eax, DWORD PTR _en$[ebp]
  0005f	8b 4d 0c	 mov	 ecx, DWORD PTR _type$[ebp]
  00062	89 08		 mov	 DWORD PTR [eax], ecx

; 171  : 
; 172  : 			raw = (explosion *) malloc_heap_mem (sizeof (explosion));

  00064	6a 48		 push	 72			; 00000048H
  00066	e8 00 00 00 00	 call	 ?malloc_heap_memory@@YGPAXI@Z ; malloc_heap_memory
  0006b	89 45 f8	 mov	 DWORD PTR _raw$1[ebp], eax

; 173  : 
; 174  : 			set_local_entity_data (en, raw);

  0006e	8b 45 08	 mov	 eax, DWORD PTR _en$[ebp]
  00071	8b 4d f8	 mov	 ecx, DWORD PTR _raw$1[ebp]
  00074	89 48 04	 mov	 DWORD PTR [eax+4], ecx

; 175  : 
; 176  : 			memset (raw, 0, sizeof (explosion));

  00077	6a 48		 push	 72			; 00000048H
  00079	6a 00		 push	 0
  0007b	8b 45 f8	 mov	 eax, DWORD PTR _raw$1[ebp]
  0007e	50		 push	 eax
  0007f	e8 00 00 00 00	 call	 _memset
  00084	83 c4 0c	 add	 esp, 12			; 0000000cH

; 177  : 
; 178  : 			//
; 179  : 			// unpack effect data (in exactly the same order as the data was packed)
; 180  : 			//
; 181  : 
; 182  : 			unpack_effect_data( en, &raw->eff, mode );

  00087	8b 45 10	 mov	 eax, DWORD PTR _mode$[ebp]
  0008a	50		 push	 eax
  0008b	8b 4d f8	 mov	 ecx, DWORD PTR _raw$1[ebp]
  0008e	51		 push	 ecx
  0008f	8b 55 08	 mov	 edx, DWORD PTR _en$[ebp]
  00092	52		 push	 edx
  00093	e8 00 00 00 00	 call	 ?unpack_effect_data@@YGXPAUENTITY@@PAUEFFECT@@W4PACK_MODES@@@Z ; unpack_effect_data

; 183  : 
; 184  : 			//
; 185  : 			// unpack explosion data
; 186  : 			//
; 187  : 
; 188  : 			raw->object_3d_shape = unpack_int_value (en, INT_TYPE_OBJECT_3D_SHAPE);

  00098	68 92 00 00 00	 push	 146			; 00000092H
  0009d	8b 45 08	 mov	 eax, DWORD PTR _en$[ebp]
  000a0	50		 push	 eax
  000a1	e8 00 00 00 00	 call	 ?unpack_int_value@@YGHPAUENTITY@@W4INT_TYPES@@@Z ; unpack_int_value
  000a6	8b 4d f8	 mov	 ecx, DWORD PTR _raw$1[ebp]
  000a9	89 41 28	 mov	 DWORD PTR [ecx+40], eax

; 189  : 
; 190  : 			raw->animation_frequency = unpack_float_value (en, FLOAT_TYPE_ANIMATION_FREQUENCY);

  000ac	6a 0b		 push	 11			; 0000000bH
  000ae	8b 45 08	 mov	 eax, DWORD PTR _en$[ebp]
  000b1	50		 push	 eax
  000b2	e8 00 00 00 00	 call	 ?unpack_float_value@@YGMPAUENTITY@@W4FLOAT_TYPES@@@Z ; unpack_float_value
  000b7	8b 4d f8	 mov	 ecx, DWORD PTR _raw$1[ebp]
  000ba	d9 59 2c	 fstp	 DWORD PTR [ecx+44]

; 191  : 
; 192  : 			raw->explosion_state = unpack_float_value (en, FLOAT_TYPE_EXPLOSION_STATE);

  000bd	6a 26		 push	 38			; 00000026H
  000bf	8b 45 08	 mov	 eax, DWORD PTR _en$[ebp]
  000c2	50		 push	 eax
  000c3	e8 00 00 00 00	 call	 ?unpack_float_value@@YGMPAUENTITY@@W4FLOAT_TYPES@@@Z ; unpack_float_value
  000c8	8b 4d f8	 mov	 ecx, DWORD PTR _raw$1[ebp]
  000cb	d9 59 30	 fstp	 DWORD PTR [ecx+48]

; 193  : 
; 194  : 			raw->scale = unpack_float_value (en, FLOAT_TYPE_SCALE);

  000ce	6a 73		 push	 115			; 00000073H
  000d0	8b 45 08	 mov	 eax, DWORD PTR _en$[ebp]
  000d3	50		 push	 eax
  000d4	e8 00 00 00 00	 call	 ?unpack_float_value@@YGMPAUENTITY@@W4FLOAT_TYPES@@@Z ; unpack_float_value
  000d9	8b 4d f8	 mov	 ecx, DWORD PTR _raw$1[ebp]
  000dc	d9 59 34	 fstp	 DWORD PTR [ecx+52]

; 195  : 
; 196  : 			raw->colour_red = unpack_int_value (en, INT_TYPE_COLOUR_RED);

  000df	6a 20		 push	 32			; 00000020H
  000e1	8b 45 08	 mov	 eax, DWORD PTR _en$[ebp]
  000e4	50		 push	 eax
  000e5	e8 00 00 00 00	 call	 ?unpack_int_value@@YGHPAUENTITY@@W4INT_TYPES@@@Z ; unpack_int_value
  000ea	8b 4d f8	 mov	 ecx, DWORD PTR _raw$1[ebp]
  000ed	88 41 38	 mov	 BYTE PTR [ecx+56], al

; 197  : 			raw->colour_green = unpack_int_value (en, INT_TYPE_COLOUR_GREEN);

  000f0	6a 1f		 push	 31			; 0000001fH
  000f2	8b 45 08	 mov	 eax, DWORD PTR _en$[ebp]
  000f5	50		 push	 eax
  000f6	e8 00 00 00 00	 call	 ?unpack_int_value@@YGHPAUENTITY@@W4INT_TYPES@@@Z ; unpack_int_value
  000fb	8b 4d f8	 mov	 ecx, DWORD PTR _raw$1[ebp]
  000fe	88 41 39	 mov	 BYTE PTR [ecx+57], al

; 198  : 			raw->colour_blue = unpack_int_value (en, INT_TYPE_COLOUR_BLUE);

  00101	6a 1e		 push	 30			; 0000001eH
  00103	8b 45 08	 mov	 eax, DWORD PTR _en$[ebp]
  00106	50		 push	 eax
  00107	e8 00 00 00 00	 call	 ?unpack_int_value@@YGHPAUENTITY@@W4INT_TYPES@@@Z ; unpack_int_value
  0010c	8b 4d f8	 mov	 ecx, DWORD PTR _raw$1[ebp]
  0010f	88 41 3a	 mov	 BYTE PTR [ecx+58], al

; 199  : 			raw->colour_alpha = unpack_int_value (en, INT_TYPE_COLOUR_ALPHA);

  00112	6a 1d		 push	 29			; 0000001dH
  00114	8b 45 08	 mov	 eax, DWORD PTR _en$[ebp]
  00117	50		 push	 eax
  00118	e8 00 00 00 00	 call	 ?unpack_int_value@@YGHPAUENTITY@@W4INT_TYPES@@@Z ; unpack_int_value
  0011d	8b 4d f8	 mov	 ecx, DWORD PTR _raw$1[ebp]
  00120	88 41 3b	 mov	 BYTE PTR [ecx+59], al

; 200  : 
; 201  : 			// sector_link
; 202  : 
; 203  : 			////////////////////////////////////////
; 204  : 			//
; 205  : 			// BUILD COMPONENTS
; 206  : 			//
; 207  : 			////////////////////////////////////////
; 208  : 	
; 209  : 			////////////////////////////////////////
; 210  : 			//
; 211  : 			// LINK INTO SYSTEM
; 212  : 			//
; 213  : 			////////////////////////////////////////
; 214  : 
; 215  : 			insert_local_entity_into_parents_child_list (en, LIST_TYPE_UPDATE, get_update_entity (), NULL);

  00123	6a 00		 push	 0
  00125	a1 00 00 00 00	 mov	 eax, DWORD PTR ?update_entity@@3PAUENTITY@@A ; update_entity
  0012a	50		 push	 eax
  0012b	6a 29		 push	 41			; 00000029H
  0012d	8b 4d 08	 mov	 ecx, DWORD PTR _en$[ebp]
  00130	51		 push	 ecx
  00131	e8 00 00 00 00	 call	 ?insert_local_entity_into_parents_child_list@@YGXPAUENTITY@@W4LIST_TYPES@@00@Z ; insert_local_entity_into_parents_child_list

; 216  : 
; 217  : 			insert_local_entity_into_parents_child_list (en, LIST_TYPE_SECTOR, get_local_sector_entity (&raw->eff.position), NULL);

  00136	6a 00		 push	 0
  00138	8b 45 f8	 mov	 eax, DWORD PTR _raw$1[ebp]
  0013b	83 c0 04	 add	 eax, 4
  0013e	50		 push	 eax
  0013f	e8 00 00 00 00	 call	 ?get_local_sector_entity@@YGPAUENTITY@@PAUVEC3D@@@Z ; get_local_sector_entity
  00144	50		 push	 eax
  00145	6a 21		 push	 33			; 00000021H
  00147	8b 4d 08	 mov	 ecx, DWORD PTR _en$[ebp]
  0014a	51		 push	 ecx
  0014b	e8 00 00 00 00	 call	 ?insert_local_entity_into_parents_child_list@@YGXPAUENTITY@@W4LIST_TYPES@@00@Z ; insert_local_entity_into_parents_child_list
$LN2@unpack_loc:

; 218  : 
; 219  : 			break;
; 220  : 		}
; 221  : 		////////////////////////////////////////
; 222  : 		case PACK_MODE_BROWSE_SESSION:
; 223  : 		////////////////////////////////////////
; 224  : 		{
; 225  : 			break;
; 226  : 		}
; 227  : 		////////////////////////////////////////
; 228  : 		case PACK_MODE_UPDATE_ENTITY:
; 229  : 		////////////////////////////////////////
; 230  : 		{
; 231  : 			//
; 232  : 			// always use access functions to set the data
; 233  : 			//
; 234  : 
; 235  : 			break;
; 236  : 		}
; 237  : 	}
; 238  : }

  00150	5f		 pop	 edi
  00151	5e		 pop	 esi
  00152	5b		 pop	 ebx
  00153	8b e5		 mov	 esp, ebp
  00155	5d		 pop	 ebp
  00156	c2 0c 00	 ret	 12			; 0000000cH
?unpack_local_data@@YGXPAUENTITY@@W4ENTITY_TYPES@@W4PACK_MODES@@@Z ENDP ; unpack_local_data
_TEXT	ENDS
; Function compile flags: /Odtp /ZI
; File c:\users\nhv90\projects\eech\aphavoc\source\entity\special\effect\explosn\xp_pack.c
;	COMDAT ?pack_local_data@@YGXPAUENTITY@@W4PACK_MODES@@@Z
_TEXT	SEGMENT
tv78 = -72						; size = 4
tv70 = -72						; size = 4
_raw$1 = -4						; size = 4
_en$ = 8						; size = 4
_mode$ = 12						; size = 4
?pack_local_data@@YGXPAUENTITY@@W4PACK_MODES@@@Z PROC	; pack_local_data, COMDAT

; 80   : {

  00000	55		 push	 ebp
  00001	8b ec		 mov	 ebp, esp
  00003	83 ec 48	 sub	 esp, 72			; 00000048H
  00006	53		 push	 ebx
  00007	56		 push	 esi
  00008	57		 push	 edi

; 81   : 	ASSERT ((mode >= 0) && (mode < NUM_PACK_MODES));

  00009	83 7d 0c 00	 cmp	 DWORD PTR _mode$[ebp], 0
  0000d	7c 06		 jl	 SHORT $LN5@pack_local
  0000f	83 7d 0c 04	 cmp	 DWORD PTR _mode$[ebp], 4
  00013	7c 18		 jl	 SHORT $LN4@pack_local
$LN5@pack_local:
  00015	a1 00 00 00 00	 mov	 eax, DWORD PTR ?__LINE__Var@?0??pack_local_data@@YGXPAUENTITY@@W4PACK_MODES@@@Z@4JA
  0001a	83 c0 01	 add	 eax, 1
  0001d	50		 push	 eax
  0001e	68 00 00 00 00	 push	 OFFSET ??_C@_0FE@EBNGNEEC@c?3?2users?2nhv90?2projects?2eech?2ap@
  00023	68 00 00 00 00	 push	 OFFSET ??_C@_0CH@MMFDPOBJ@?$CImode?5?$DO?$DN?50?$CJ?5?$CG?$CG?5?$CImode?5?$DM?5NUM_PACK@
  00028	e8 00 00 00 00	 call	 ?process_assert@@YGXPBD0H@Z ; process_assert
$LN4@pack_local:

; 82   : 
; 83   : 	switch (mode)

  0002d	8b 45 0c	 mov	 eax, DWORD PTR _mode$[ebp]
  00030	89 45 b8	 mov	 DWORD PTR tv70[ebp], eax
  00033	83 7d b8 00	 cmp	 DWORD PTR tv70[ebp], 0
  00037	0f 8c 14 01 00
	00		 jl	 $LN2@pack_local
  0003d	83 7d b8 01	 cmp	 DWORD PTR tv70[ebp], 1
  00041	7e 05		 jle	 SHORT $LN6@pack_local
  00043	e9 09 01 00 00	 jmp	 $LN2@pack_local
$LN6@pack_local:

; 84   : 	{
; 85   : 		////////////////////////////////////////
; 86   : 		case PACK_MODE_SERVER_SESSION:
; 87   : 		case PACK_MODE_CLIENT_SESSION:
; 88   : 		////////////////////////////////////////
; 89   : 		{
; 90   : 			explosion
; 91   : 				*raw;
; 92   : 
; 93   : 			raw = (explosion *) get_local_entity_data (en);

  00048	8b 45 08	 mov	 eax, DWORD PTR _en$[ebp]
  0004b	8b 48 04	 mov	 ecx, DWORD PTR [eax+4]
  0004e	89 4d fc	 mov	 DWORD PTR _raw$1[ebp], ecx

; 94   : 
; 95   : 			pack_entity_type (get_local_entity_type (en));

  00051	83 7d 08 00	 cmp	 DWORD PTR _en$[ebp], 0
  00055	74 0a		 je	 SHORT $LN10@pack_local
  00057	8b 45 08	 mov	 eax, DWORD PTR _en$[ebp]
  0005a	8b 08		 mov	 ecx, DWORD PTR [eax]
  0005c	89 4d b8	 mov	 DWORD PTR tv78[ebp], ecx
  0005f	eb 21		 jmp	 SHORT $LN11@pack_local
$LN10@pack_local:
  00061	8b 15 00 00 00
	00		 mov	 edx, DWORD PTR ?__LINE__Var@?0??pack_local_data@@YGXPAUENTITY@@W4PACK_MODES@@@Z@4JA
  00067	83 c2 0f	 add	 edx, 15			; 0000000fH
  0006a	52		 push	 edx
  0006b	68 00 00 00 00	 push	 OFFSET ??_C@_0FE@EBNGNEEC@c?3?2users?2nhv90?2projects?2eech?2ap@
  00070	a1 00 00 00 00	 mov	 eax, DWORD PTR ?null_entity_pointer_message@@3PBDB ; null_entity_pointer_message
  00075	50		 push	 eax
  00076	e8 00 00 00 00	 call	 ?process_assert@@YGXPBD0H@Z ; process_assert
  0007b	c7 45 b8 00 00
	00 00		 mov	 DWORD PTR tv78[ebp], 0
$LN11@pack_local:
  00082	8b 4d b8	 mov	 ecx, DWORD PTR tv78[ebp]
  00085	51		 push	 ecx
  00086	e8 00 00 00 00	 call	 ?pack_entity_type@@YGXW4ENTITY_TYPES@@@Z ; pack_entity_type

; 96   : 
; 97   : 			pack_entity_safe_ptr (en);

  0008b	8b 45 08	 mov	 eax, DWORD PTR _en$[ebp]
  0008e	50		 push	 eax
  0008f	e8 00 00 00 00	 call	 ?pack_entity_safe_ptr@@YGXPAUENTITY@@@Z ; pack_entity_safe_ptr

; 98   : 
; 99   : 			//
; 100  : 			// pack effect data
; 101  : 			//
; 102  : 
; 103  : 			pack_effect_data (en, &raw->eff, mode);

  00094	8b 45 0c	 mov	 eax, DWORD PTR _mode$[ebp]
  00097	50		 push	 eax
  00098	8b 4d fc	 mov	 ecx, DWORD PTR _raw$1[ebp]
  0009b	51		 push	 ecx
  0009c	8b 55 08	 mov	 edx, DWORD PTR _en$[ebp]
  0009f	52		 push	 edx
  000a0	e8 00 00 00 00	 call	 ?pack_effect_data@@YGXPAUENTITY@@PAUEFFECT@@W4PACK_MODES@@@Z ; pack_effect_data

; 104  : 
; 105  : 			//
; 106  : 			// pack explosion data
; 107  : 			//
; 108  : 
; 109  : 			pack_int_value (en, INT_TYPE_OBJECT_3D_SHAPE, raw->object_3d_shape);

  000a5	8b 45 fc	 mov	 eax, DWORD PTR _raw$1[ebp]
  000a8	8b 48 28	 mov	 ecx, DWORD PTR [eax+40]
  000ab	51		 push	 ecx
  000ac	68 92 00 00 00	 push	 146			; 00000092H
  000b1	8b 55 08	 mov	 edx, DWORD PTR _en$[ebp]
  000b4	52		 push	 edx
  000b5	e8 00 00 00 00	 call	 ?pack_int_value@@YGXPAUENTITY@@W4INT_TYPES@@H@Z ; pack_int_value

; 110  : 
; 111  : 			pack_float_value (en, FLOAT_TYPE_ANIMATION_FREQUENCY, raw->animation_frequency);

  000ba	8b 45 fc	 mov	 eax, DWORD PTR _raw$1[ebp]
  000bd	51		 push	 ecx
  000be	f3 0f 10 40 2c	 movss	 xmm0, DWORD PTR [eax+44]
  000c3	f3 0f 11 04 24	 movss	 DWORD PTR [esp], xmm0
  000c8	6a 0b		 push	 11			; 0000000bH
  000ca	8b 4d 08	 mov	 ecx, DWORD PTR _en$[ebp]
  000cd	51		 push	 ecx
  000ce	e8 00 00 00 00	 call	 ?pack_float_value@@YGXPAUENTITY@@W4FLOAT_TYPES@@M@Z ; pack_float_value

; 112  : 
; 113  : 			pack_float_value (en, FLOAT_TYPE_EXPLOSION_STATE, raw->explosion_state);

  000d3	8b 45 fc	 mov	 eax, DWORD PTR _raw$1[ebp]
  000d6	51		 push	 ecx
  000d7	f3 0f 10 40 30	 movss	 xmm0, DWORD PTR [eax+48]
  000dc	f3 0f 11 04 24	 movss	 DWORD PTR [esp], xmm0
  000e1	6a 26		 push	 38			; 00000026H
  000e3	8b 4d 08	 mov	 ecx, DWORD PTR _en$[ebp]
  000e6	51		 push	 ecx
  000e7	e8 00 00 00 00	 call	 ?pack_float_value@@YGXPAUENTITY@@W4FLOAT_TYPES@@M@Z ; pack_float_value

; 114  : 
; 115  : 			pack_float_value (en, FLOAT_TYPE_SCALE, raw->scale);

  000ec	8b 45 fc	 mov	 eax, DWORD PTR _raw$1[ebp]
  000ef	51		 push	 ecx
  000f0	f3 0f 10 40 34	 movss	 xmm0, DWORD PTR [eax+52]
  000f5	f3 0f 11 04 24	 movss	 DWORD PTR [esp], xmm0
  000fa	6a 73		 push	 115			; 00000073H
  000fc	8b 4d 08	 mov	 ecx, DWORD PTR _en$[ebp]
  000ff	51		 push	 ecx
  00100	e8 00 00 00 00	 call	 ?pack_float_value@@YGXPAUENTITY@@W4FLOAT_TYPES@@M@Z ; pack_float_value

; 116  : 
; 117  : 			pack_int_value (en, INT_TYPE_COLOUR_RED, raw->colour_red);

  00105	8b 45 fc	 mov	 eax, DWORD PTR _raw$1[ebp]
  00108	0f b6 48 38	 movzx	 ecx, BYTE PTR [eax+56]
  0010c	51		 push	 ecx
  0010d	6a 20		 push	 32			; 00000020H
  0010f	8b 55 08	 mov	 edx, DWORD PTR _en$[ebp]
  00112	52		 push	 edx
  00113	e8 00 00 00 00	 call	 ?pack_int_value@@YGXPAUENTITY@@W4INT_TYPES@@H@Z ; pack_int_value

; 118  : 			pack_int_value (en, INT_TYPE_COLOUR_GREEN, raw->colour_green);

  00118	8b 45 fc	 mov	 eax, DWORD PTR _raw$1[ebp]
  0011b	0f b6 48 39	 movzx	 ecx, BYTE PTR [eax+57]
  0011f	51		 push	 ecx
  00120	6a 1f		 push	 31			; 0000001fH
  00122	8b 55 08	 mov	 edx, DWORD PTR _en$[ebp]
  00125	52		 push	 edx
  00126	e8 00 00 00 00	 call	 ?pack_int_value@@YGXPAUENTITY@@W4INT_TYPES@@H@Z ; pack_int_value

; 119  : 			pack_int_value (en, INT_TYPE_COLOUR_BLUE, raw->colour_blue);

  0012b	8b 45 fc	 mov	 eax, DWORD PTR _raw$1[ebp]
  0012e	0f b6 48 3a	 movzx	 ecx, BYTE PTR [eax+58]
  00132	51		 push	 ecx
  00133	6a 1e		 push	 30			; 0000001eH
  00135	8b 55 08	 mov	 edx, DWORD PTR _en$[ebp]
  00138	52		 push	 edx
  00139	e8 00 00 00 00	 call	 ?pack_int_value@@YGXPAUENTITY@@W4INT_TYPES@@H@Z ; pack_int_value

; 120  : 			pack_int_value (en, INT_TYPE_COLOUR_ALPHA, raw->colour_alpha);

  0013e	8b 45 fc	 mov	 eax, DWORD PTR _raw$1[ebp]
  00141	0f b6 48 3b	 movzx	 ecx, BYTE PTR [eax+59]
  00145	51		 push	 ecx
  00146	6a 1d		 push	 29			; 0000001dH
  00148	8b 55 08	 mov	 edx, DWORD PTR _en$[ebp]
  0014b	52		 push	 edx
  0014c	e8 00 00 00 00	 call	 ?pack_int_value@@YGXPAUENTITY@@W4INT_TYPES@@H@Z ; pack_int_value
$LN2@pack_local:

; 121  : 
; 122  : 			// sector_link linked later
; 123  : 
; 124  : 			break;
; 125  : 		}
; 126  : 		////////////////////////////////////////
; 127  : 		case PACK_MODE_BROWSE_SESSION:
; 128  : 		////////////////////////////////////////
; 129  : 		{
; 130  : 			break;
; 131  : 		}
; 132  : 		////////////////////////////////////////
; 133  : 		case PACK_MODE_UPDATE_ENTITY:
; 134  : 		////////////////////////////////////////
; 135  : 		{
; 136  : 			break;
; 137  : 		}
; 138  : 	}
; 139  : }

  00151	5f		 pop	 edi
  00152	5e		 pop	 esi
  00153	5b		 pop	 ebx
  00154	8b e5		 mov	 esp, ebp
  00156	5d		 pop	 ebp
  00157	c2 08 00	 ret	 8
?pack_local_data@@YGXPAUENTITY@@W4PACK_MODES@@@Z ENDP	; pack_local_data
_TEXT	ENDS
; Function compile flags: /Odtp /ZI
; File c:\users\nhv90\projects\eech\aphavoc\source\entity\special\effect\explosn\xp_pack.c
;	COMDAT ?overload_explosion_pack_functions@@YGXXZ
_TEXT	SEGMENT
?overload_explosion_pack_functions@@YGXXZ PROC		; overload_explosion_pack_functions, COMDAT

; 245  : {

  00000	55		 push	 ebp
  00001	8b ec		 mov	 ebp, esp
  00003	83 ec 40	 sub	 esp, 64			; 00000040H
  00006	53		 push	 ebx
  00007	56		 push	 esi
  00008	57		 push	 edi

; 246  : 	fn_pack_local_entity_data[ENTITY_TYPE_EXPLOSION]		= pack_local_data;

  00009	b8 04 00 00 00	 mov	 eax, 4
  0000e	6b c8 09	 imul	 ecx, eax, 9
  00011	c7 81 00 00 00
	00 00 00 00 00	 mov	 DWORD PTR ?fn_pack_local_entity_data@@3PAP6GXPAUENTITY@@W4PACK_MODES@@@ZA[ecx], OFFSET ?pack_local_data@@YGXPAUENTITY@@W4PACK_MODES@@@Z ; pack_local_data

; 247  : 
; 248  : 	fn_unpack_local_entity_data[ENTITY_TYPE_EXPLOSION]		= unpack_local_data;

  0001b	b8 04 00 00 00	 mov	 eax, 4
  00020	6b c8 09	 imul	 ecx, eax, 9
  00023	c7 81 00 00 00
	00 00 00 00 00	 mov	 DWORD PTR ?fn_unpack_local_entity_data@@3PAP6GXPAUENTITY@@W4ENTITY_TYPES@@W4PACK_MODES@@@ZA[ecx], OFFSET ?unpack_local_data@@YGXPAUENTITY@@W4ENTITY_TYPES@@W4PACK_MODES@@@Z ; unpack_local_data

; 249  : }

  0002d	5f		 pop	 edi
  0002e	5e		 pop	 esi
  0002f	5b		 pop	 ebx
  00030	8b e5		 mov	 esp, ebp
  00032	5d		 pop	 ebp
  00033	c3		 ret	 0
?overload_explosion_pack_functions@@YGXXZ ENDP		; overload_explosion_pack_functions
_TEXT	ENDS
END
