; Listing generated by Microsoft (R) Optimizing Compiler Version 19.16.27045.0 

	TITLE	C:\Users\nhv90\Projects\eech\aphavoc\source\entity\special\effect\explosn\xp_wpn.c
	.686P
	.XMM
	include listing.inc
	.model	flat

INCLUDELIB MSVCRTD
INCLUDELIB OLDNAMES

PUBLIC	?initialise_weapon_explosion_criteria_tables@@YGXXZ ; initialise_weapon_explosion_criteria_tables
PUBLIC	?deinitialise_weapon_explosion_criteria_tables@@YGXXZ ; deinitialise_weapon_explosion_criteria_tables
PUBLIC	?get_suitable_weapon_explosion_type@@YG?AW4META_EXPLOSION_TYPES@@PAUENTITY@@W4WEAPON_KILL_CODES@@@Z ; get_suitable_weapon_explosion_type
PUBLIC	?__LINE__Var@?0??add_explosion_criteria@@YGXHW4WEAPON_KILL_CODES@@HHW4META_EXPLOSION_TYPES@@PAUWEAPON_EXPLOSION_CRITERIA@@@Z@4JA ; `add_explosion_criteria'::`1'::__LINE__Var
PUBLIC	??_C@_0FD@IHHMDKHN@c?3?2users?2nhv90?2projects?2eech?2ap@ ; `string'
PUBLIC	??_C@_0L@MKDLGBOI@index?5?$DO?$DN?50@		; `string'
PUBLIC	??_C@_0DE@PNJKNEIH@index?5?$DM?5table?9?$DOkill_code_criter@ ; `string'
PUBLIC	?__LINE__Var@?0??get_suitable_weapon_explosion_type@@YG?AW4META_EXPLOSION_TYPES@@PAUENTITY@@W4WEAPON_KILL_CODES@@@Z@4JA ; `get_suitable_weapon_explosion_type'::`1'::__LINE__Var
PUBLIC	??_C@_0CB@OPLJCEE@XP_WPN?5?3?5Invalid?5warhead?5type?5?$CF@ ; `string'
PUBLIC	??_C@_0ED@EADDGBFC@XP_WPN?5?3?5No?5criteria?5table?5foun@ ; `string'
EXTRN	?process_assert@@YGXPBD0H@Z:PROC		; process_assert
EXTRN	?debug_fatal@@YAXPBDZZ:PROC			; debug_fatal
EXTRN	?malloc_heap_memory@@YGPAXI@Z:PROC		; malloc_heap_memory
EXTRN	?free_mem@@YGXPAX@Z:PROC			; free_mem
EXTRN	?null_entity_pointer_message@@3PBDB:DWORD	; null_entity_pointer_message
EXTRN	?overload_invalid_int_type_message@@3PBDB:DWORD	; overload_invalid_int_type_message
EXTRN	?fn_get_local_entity_int_value@@3PAY0BBH@P6GHPAUENTITY@@W4INT_TYPES@@@ZA:BYTE ; fn_get_local_entity_int_value
_BSS	SEGMENT
?ball_explosion_criteria_table@@3UWEAPON_EXPLOSION_CRITERIA@@A DB 040H DUP (?) ; ball_explosion_criteria_table
?high_explosive_explosion_criteria_table@@3UWEAPON_EXPLOSION_CRITERIA@@A DB 040H DUP (?) ; high_explosive_explosion_criteria_table
?armour_piercing_explosion_criteria_table@@3UWEAPON_EXPLOSION_CRITERIA@@A DB 040H DUP (?) ; armour_piercing_explosion_criteria_table
?heat_explosion_criteria_table@@3UWEAPON_EXPLOSION_CRITERIA@@A DB 040H DUP (?) ; heat_explosion_criteria_table
?smoke_grenade_explosion_criteria_table@@3UWEAPON_EXPLOSION_CRITERIA@@A DB 040H DUP (?) ; smoke_grenade_explosion_criteria_table
_BSS	ENDS
;	COMDAT ??_C@_0ED@EADDGBFC@XP_WPN?5?3?5No?5criteria?5table?5foun@
CONST	SEGMENT
??_C@_0ED@EADDGBFC@XP_WPN?5?3?5No?5criteria?5table?5foun@ DB 'XP_WPN : No'
	DB	' criteria table found for warhead type %d, kill code %d', 00H ; `string'
CONST	ENDS
;	COMDAT ??_C@_0CB@OPLJCEE@XP_WPN?5?3?5Invalid?5warhead?5type?5?$CF@
CONST	SEGMENT
??_C@_0CB@OPLJCEE@XP_WPN?5?3?5Invalid?5warhead?5type?5?$CF@ DB 'XP_WPN : '
	DB	'Invalid warhead type %d', 00H		; `string'
CONST	ENDS
;	COMDAT ?__LINE__Var@?0??get_suitable_weapon_explosion_type@@YG?AW4META_EXPLOSION_TYPES@@PAUENTITY@@W4WEAPON_KILL_CODES@@@Z@4JA
_DATA	SEGMENT
?__LINE__Var@?0??get_suitable_weapon_explosion_type@@YG?AW4META_EXPLOSION_TYPES@@PAUENTITY@@W4WEAPON_KILL_CODES@@@Z@4JA DD 031bH ; `get_suitable_weapon_explosion_type'::`1'::__LINE__Var
_DATA	ENDS
;	COMDAT ??_C@_0DE@PNJKNEIH@index?5?$DM?5table?9?$DOkill_code_criter@
CONST	SEGMENT
??_C@_0DE@PNJKNEIH@index?5?$DM?5table?9?$DOkill_code_criter@ DB 'index < '
	DB	'table->kill_code_criteria_count [kill_code]', 00H ; `string'
CONST	ENDS
;	COMDAT ??_C@_0L@MKDLGBOI@index?5?$DO?$DN?50@
CONST	SEGMENT
??_C@_0L@MKDLGBOI@index?5?$DO?$DN?50@ DB 'index >= 0', 00H ; `string'
CONST	ENDS
;	COMDAT ??_C@_0FD@IHHMDKHN@c?3?2users?2nhv90?2projects?2eech?2ap@
CONST	SEGMENT
??_C@_0FD@IHHMDKHN@c?3?2users?2nhv90?2projects?2eech?2ap@ DB 'c:\users\nh'
	DB	'v90\projects\eech\aphavoc\source\entity\special\effect\explos'
	DB	'n\xp_wpn.c', 00H				; `string'
CONST	ENDS
;	COMDAT ?__LINE__Var@?0??add_explosion_criteria@@YGXHW4WEAPON_KILL_CODES@@HHW4META_EXPLOSION_TYPES@@PAUWEAPON_EXPLOSION_CRITERIA@@@Z@4JA
_DATA	SEGMENT
?__LINE__Var@?0??add_explosion_criteria@@YGXHW4WEAPON_KILL_CODES@@HHW4META_EXPLOSION_TYPES@@PAUWEAPON_EXPLOSION_CRITERIA@@@Z@4JA DD 030aH ; `add_explosion_criteria'::`1'::__LINE__Var
_DATA	ENDS
; Function compile flags: /Odtp /ZI
; File c:\users\nhv90\projects\eech\aphavoc\source\entity\special\effect\explosn\xp_wpn.c
;	COMDAT ?add_explosion_criteria@@YGXHW4WEAPON_KILL_CODES@@HHW4META_EXPLOSION_TYPES@@PAUWEAPON_EXPLOSION_CRITERIA@@@Z
_TEXT	SEGMENT
_index$ = 8						; size = 4
_kill_code$ = 12					; size = 4
_min_damage$ = 16					; size = 4
_max_damage$ = 20					; size = 4
_type$ = 24						; size = 4
_table$ = 28						; size = 4
?add_explosion_criteria@@YGXHW4WEAPON_KILL_CODES@@HHW4META_EXPLOSION_TYPES@@PAUWEAPON_EXPLOSION_CRITERIA@@@Z PROC ; add_explosion_criteria, COMDAT

; 778  : {

  00000	55		 push	 ebp
  00001	8b ec		 mov	 ebp, esp
  00003	83 ec 40	 sub	 esp, 64			; 00000040H
  00006	53		 push	 ebx
  00007	56		 push	 esi
  00008	57		 push	 edi

; 779  : 
; 780  : 	ASSERT (index >= 0);

  00009	83 7d 08 00	 cmp	 DWORD PTR _index$[ebp], 0
  0000d	7d 18		 jge	 SHORT $LN2@add_explos
  0000f	a1 00 00 00 00	 mov	 eax, DWORD PTR ?__LINE__Var@?0??add_explosion_criteria@@YGXHW4WEAPON_KILL_CODES@@HHW4META_EXPLOSION_TYPES@@PAUWEAPON_EXPLOSION_CRITERIA@@@Z@4JA
  00014	83 c0 02	 add	 eax, 2
  00017	50		 push	 eax
  00018	68 00 00 00 00	 push	 OFFSET ??_C@_0FD@IHHMDKHN@c?3?2users?2nhv90?2projects?2eech?2ap@
  0001d	68 00 00 00 00	 push	 OFFSET ??_C@_0L@MKDLGBOI@index?5?$DO?$DN?50@
  00022	e8 00 00 00 00	 call	 ?process_assert@@YGXPBD0H@Z ; process_assert
$LN2@add_explos:

; 781  : 
; 782  : 	ASSERT (index < table->kill_code_criteria_count [kill_code]);

  00027	8b 45 0c	 mov	 eax, DWORD PTR _kill_code$[ebp]
  0002a	8b 4d 1c	 mov	 ecx, DWORD PTR _table$[ebp]
  0002d	8b 55 08	 mov	 edx, DWORD PTR _index$[ebp]
  00030	3b 14 81	 cmp	 edx, DWORD PTR [ecx+eax*4]
  00033	7c 18		 jl	 SHORT $LN3@add_explos
  00035	a1 00 00 00 00	 mov	 eax, DWORD PTR ?__LINE__Var@?0??add_explosion_criteria@@YGXHW4WEAPON_KILL_CODES@@HHW4META_EXPLOSION_TYPES@@PAUWEAPON_EXPLOSION_CRITERIA@@@Z@4JA
  0003a	83 c0 04	 add	 eax, 4
  0003d	50		 push	 eax
  0003e	68 00 00 00 00	 push	 OFFSET ??_C@_0FD@IHHMDKHN@c?3?2users?2nhv90?2projects?2eech?2ap@
  00043	68 00 00 00 00	 push	 OFFSET ??_C@_0DE@PNJKNEIH@index?5?$DM?5table?9?$DOkill_code_criter@
  00048	e8 00 00 00 00	 call	 ?process_assert@@YGXPBD0H@Z ; process_assert
$LN3@add_explos:

; 783  : 
; 784  : 	table->kill_code_criteria [kill_code][index].min_damage = min_damage;

  0004d	6b 45 08 0c	 imul	 eax, DWORD PTR _index$[ebp], 12
  00051	8b 4d 0c	 mov	 ecx, DWORD PTR _kill_code$[ebp]
  00054	8b 55 1c	 mov	 edx, DWORD PTR _table$[ebp]
  00057	8b 4c 8a 20	 mov	 ecx, DWORD PTR [edx+ecx*4+32]
  0005b	8b 55 10	 mov	 edx, DWORD PTR _min_damage$[ebp]
  0005e	89 14 01	 mov	 DWORD PTR [ecx+eax], edx

; 785  : 	table->kill_code_criteria [kill_code][index].max_damage = max_damage;

  00061	6b 45 08 0c	 imul	 eax, DWORD PTR _index$[ebp], 12
  00065	8b 4d 0c	 mov	 ecx, DWORD PTR _kill_code$[ebp]
  00068	8b 55 1c	 mov	 edx, DWORD PTR _table$[ebp]
  0006b	8b 4c 8a 20	 mov	 ecx, DWORD PTR [edx+ecx*4+32]
  0006f	8b 55 14	 mov	 edx, DWORD PTR _max_damage$[ebp]
  00072	89 54 01 04	 mov	 DWORD PTR [ecx+eax+4], edx

; 786  : 
; 787  : 	table->kill_code_criteria [kill_code][index].type = type;

  00076	6b 45 08 0c	 imul	 eax, DWORD PTR _index$[ebp], 12
  0007a	8b 4d 0c	 mov	 ecx, DWORD PTR _kill_code$[ebp]
  0007d	8b 55 1c	 mov	 edx, DWORD PTR _table$[ebp]
  00080	8b 4c 8a 20	 mov	 ecx, DWORD PTR [edx+ecx*4+32]
  00084	8b 55 18	 mov	 edx, DWORD PTR _type$[ebp]
  00087	89 54 01 08	 mov	 DWORD PTR [ecx+eax+8], edx

; 788  : }

  0008b	5f		 pop	 edi
  0008c	5e		 pop	 esi
  0008d	5b		 pop	 ebx
  0008e	8b e5		 mov	 esp, ebp
  00090	5d		 pop	 ebp
  00091	c2 18 00	 ret	 24			; 00000018H
?add_explosion_criteria@@YGXHW4WEAPON_KILL_CODES@@HHW4META_EXPLOSION_TYPES@@PAUWEAPON_EXPLOSION_CRITERIA@@@Z ENDP ; add_explosion_criteria
_TEXT	ENDS
; Function compile flags: /Odtp /ZI
; File c:\users\nhv90\projects\eech\aphavoc\source\entity\special\effect\explosn\xp_wpn.c
;	COMDAT ?initialise_smoke_grenade_explosion_criteria_table@@YGXXZ
_TEXT	SEGMENT
_count$ = -12						; size = 4
_kill_code$ = -8					; size = 4
_table$ = -4						; size = 4
?initialise_smoke_grenade_explosion_criteria_table@@YGXXZ PROC ; initialise_smoke_grenade_explosion_criteria_table, COMDAT

; 607  : {

  00000	55		 push	 ebp
  00001	8b ec		 mov	 ebp, esp
  00003	83 ec 4c	 sub	 esp, 76			; 0000004cH
  00006	53		 push	 ebx
  00007	56		 push	 esi
  00008	57		 push	 edi

; 608  : 	weapon_explosion_criteria
; 609  : 		*table;
; 610  : 
; 611  : 	weapon_kill_codes
; 612  : 		kill_code;
; 613  : 
; 614  : 	int
; 615  : 		count;
; 616  : 
; 617  : 	table = &smoke_grenade_explosion_criteria_table;

  00009	c7 45 fc 00 00
	00 00		 mov	 DWORD PTR _table$[ebp], OFFSET ?smoke_grenade_explosion_criteria_table@@3UWEAPON_EXPLOSION_CRITERIA@@A

; 618  : 
; 619  : 	////////////////////////////////////////
; 620  : 
; 621  : 	kill_code =  WEAPON_KILL_CODE_OK;

  00010	c7 45 f8 00 00
	00 00		 mov	 DWORD PTR _kill_code$[ebp], 0

; 622  : 
; 623  : 	table->kill_code_criteria_count [kill_code] = 0;

  00017	8b 45 f8	 mov	 eax, DWORD PTR _kill_code$[ebp]
  0001a	8b 4d fc	 mov	 ecx, DWORD PTR _table$[ebp]
  0001d	c7 04 81 00 00
	00 00		 mov	 DWORD PTR [ecx+eax*4], 0

; 624  : 
; 625  : 	table->kill_code_criteria [kill_code] = NULL;

  00024	8b 45 f8	 mov	 eax, DWORD PTR _kill_code$[ebp]
  00027	8b 4d fc	 mov	 ecx, DWORD PTR _table$[ebp]
  0002a	c7 44 81 20 00
	00 00 00	 mov	 DWORD PTR [ecx+eax*4+32], 0

; 626  : 
; 627  : 	////////////////////////////////////////
; 628  : 
; 629  : 	kill_code = WEAPON_KILL_CODE_EXHAUSTED;

  00032	c7 45 f8 01 00
	00 00		 mov	 DWORD PTR _kill_code$[ebp], 1

; 630  : 
; 631  : 	count = 1;

  00039	c7 45 f4 01 00
	00 00		 mov	 DWORD PTR _count$[ebp], 1

; 632  : 
; 633  : 	table->kill_code_criteria_count [kill_code] = count;

  00040	8b 45 f8	 mov	 eax, DWORD PTR _kill_code$[ebp]
  00043	8b 4d fc	 mov	 ecx, DWORD PTR _table$[ebp]
  00046	8b 55 f4	 mov	 edx, DWORD PTR _count$[ebp]
  00049	89 14 81	 mov	 DWORD PTR [ecx+eax*4], edx

; 634  : 
; 635  : 	table->kill_code_criteria [kill_code] = (weapon_explosion_kill_code_criteria *) malloc_heap_mem (sizeof (weapon_explosion_kill_code_criteria) * count);

  0004c	6b 45 f4 0c	 imul	 eax, DWORD PTR _count$[ebp], 12
  00050	50		 push	 eax
  00051	e8 00 00 00 00	 call	 ?malloc_heap_memory@@YGPAXI@Z ; malloc_heap_memory
  00056	8b 4d f8	 mov	 ecx, DWORD PTR _kill_code$[ebp]
  00059	8b 55 fc	 mov	 edx, DWORD PTR _table$[ebp]
  0005c	89 44 8a 20	 mov	 DWORD PTR [edx+ecx*4+32], eax

; 636  : 
; 637  : 	add_explosion_criteria (0, kill_code, 0, INT_MAX, META_EXPLOSION_TYPE_NONE, table);

  00060	8b 45 fc	 mov	 eax, DWORD PTR _table$[ebp]
  00063	50		 push	 eax
  00064	6a 00		 push	 0
  00066	68 ff ff ff 7f	 push	 2147483647		; 7fffffffH
  0006b	6a 00		 push	 0
  0006d	8b 4d f8	 mov	 ecx, DWORD PTR _kill_code$[ebp]
  00070	51		 push	 ecx
  00071	6a 00		 push	 0
  00073	e8 00 00 00 00	 call	 ?add_explosion_criteria@@YGXHW4WEAPON_KILL_CODES@@HHW4META_EXPLOSION_TYPES@@PAUWEAPON_EXPLOSION_CRITERIA@@@Z ; add_explosion_criteria

; 638  : 
; 639  : 	////////////////////////////////////////
; 640  : 
; 641  : 	kill_code = WEAPON_KILL_CODE_OUT_OF_BOUNDS;

  00078	c7 45 f8 02 00
	00 00		 mov	 DWORD PTR _kill_code$[ebp], 2

; 642  : 
; 643  : 	count = 1;

  0007f	c7 45 f4 01 00
	00 00		 mov	 DWORD PTR _count$[ebp], 1

; 644  : 
; 645  : 	table->kill_code_criteria_count [kill_code] = count;

  00086	8b 45 f8	 mov	 eax, DWORD PTR _kill_code$[ebp]
  00089	8b 4d fc	 mov	 ecx, DWORD PTR _table$[ebp]
  0008c	8b 55 f4	 mov	 edx, DWORD PTR _count$[ebp]
  0008f	89 14 81	 mov	 DWORD PTR [ecx+eax*4], edx

; 646  : 
; 647  : 	table->kill_code_criteria [kill_code] = (weapon_explosion_kill_code_criteria *) malloc_heap_mem (sizeof (weapon_explosion_kill_code_criteria) * count);

  00092	6b 45 f4 0c	 imul	 eax, DWORD PTR _count$[ebp], 12
  00096	50		 push	 eax
  00097	e8 00 00 00 00	 call	 ?malloc_heap_memory@@YGPAXI@Z ; malloc_heap_memory
  0009c	8b 4d f8	 mov	 ecx, DWORD PTR _kill_code$[ebp]
  0009f	8b 55 fc	 mov	 edx, DWORD PTR _table$[ebp]
  000a2	89 44 8a 20	 mov	 DWORD PTR [edx+ecx*4+32], eax

; 648  : 
; 649  : 	add_explosion_criteria (0, kill_code, 0, INT_MAX, META_EXPLOSION_TYPE_NONE, table);

  000a6	8b 45 fc	 mov	 eax, DWORD PTR _table$[ebp]
  000a9	50		 push	 eax
  000aa	6a 00		 push	 0
  000ac	68 ff ff ff 7f	 push	 2147483647		; 7fffffffH
  000b1	6a 00		 push	 0
  000b3	8b 4d f8	 mov	 ecx, DWORD PTR _kill_code$[ebp]
  000b6	51		 push	 ecx
  000b7	6a 00		 push	 0
  000b9	e8 00 00 00 00	 call	 ?add_explosion_criteria@@YGXHW4WEAPON_KILL_CODES@@HHW4META_EXPLOSION_TYPES@@PAUWEAPON_EXPLOSION_CRITERIA@@@Z ; add_explosion_criteria

; 650  : 
; 651  : 	////////////////////////////////////////
; 652  : 
; 653  : 	kill_code = WEAPON_KILL_CODE_HIT_LAND;

  000be	c7 45 f8 03 00
	00 00		 mov	 DWORD PTR _kill_code$[ebp], 3

; 654  : 
; 655  : 	count = 1;

  000c5	c7 45 f4 01 00
	00 00		 mov	 DWORD PTR _count$[ebp], 1

; 656  : 
; 657  : 	table->kill_code_criteria_count [kill_code] = count;

  000cc	8b 45 f8	 mov	 eax, DWORD PTR _kill_code$[ebp]
  000cf	8b 4d fc	 mov	 ecx, DWORD PTR _table$[ebp]
  000d2	8b 55 f4	 mov	 edx, DWORD PTR _count$[ebp]
  000d5	89 14 81	 mov	 DWORD PTR [ecx+eax*4], edx

; 658  : 
; 659  : 	table->kill_code_criteria [kill_code] = (weapon_explosion_kill_code_criteria *) malloc_heap_mem (sizeof (weapon_explosion_kill_code_criteria) * count);

  000d8	6b 45 f4 0c	 imul	 eax, DWORD PTR _count$[ebp], 12
  000dc	50		 push	 eax
  000dd	e8 00 00 00 00	 call	 ?malloc_heap_memory@@YGPAXI@Z ; malloc_heap_memory
  000e2	8b 4d f8	 mov	 ecx, DWORD PTR _kill_code$[ebp]
  000e5	8b 55 fc	 mov	 edx, DWORD PTR _table$[ebp]
  000e8	89 44 8a 20	 mov	 DWORD PTR [edx+ecx*4+32], eax

; 660  : 
; 661  : 	add_explosion_criteria (0, kill_code, 0, INT_MAX, PURPLE_FLARE_META_EXPLOSION, table);

  000ec	8b 45 fc	 mov	 eax, DWORD PTR _table$[ebp]
  000ef	50		 push	 eax
  000f0	6a 02		 push	 2
  000f2	68 ff ff ff 7f	 push	 2147483647		; 7fffffffH
  000f7	6a 00		 push	 0
  000f9	8b 4d f8	 mov	 ecx, DWORD PTR _kill_code$[ebp]
  000fc	51		 push	 ecx
  000fd	6a 00		 push	 0
  000ff	e8 00 00 00 00	 call	 ?add_explosion_criteria@@YGXHW4WEAPON_KILL_CODES@@HHW4META_EXPLOSION_TYPES@@PAUWEAPON_EXPLOSION_CRITERIA@@@Z ; add_explosion_criteria

; 662  : 
; 663  : 	////////////////////////////////////////
; 664  : 
; 665  : 	kill_code = WEAPON_KILL_CODE_HIT_WATER;

  00104	c7 45 f8 04 00
	00 00		 mov	 DWORD PTR _kill_code$[ebp], 4

; 666  : 
; 667  : 	count = 1;

  0010b	c7 45 f4 01 00
	00 00		 mov	 DWORD PTR _count$[ebp], 1

; 668  : 
; 669  : 	table->kill_code_criteria_count [kill_code] = count;

  00112	8b 45 f8	 mov	 eax, DWORD PTR _kill_code$[ebp]
  00115	8b 4d fc	 mov	 ecx, DWORD PTR _table$[ebp]
  00118	8b 55 f4	 mov	 edx, DWORD PTR _count$[ebp]
  0011b	89 14 81	 mov	 DWORD PTR [ecx+eax*4], edx

; 670  : 
; 671  : 	table->kill_code_criteria [kill_code] = (weapon_explosion_kill_code_criteria *) malloc_heap_mem (sizeof (weapon_explosion_kill_code_criteria) * count);

  0011e	6b 45 f4 0c	 imul	 eax, DWORD PTR _count$[ebp], 12
  00122	50		 push	 eax
  00123	e8 00 00 00 00	 call	 ?malloc_heap_memory@@YGPAXI@Z ; malloc_heap_memory
  00128	8b 4d f8	 mov	 ecx, DWORD PTR _kill_code$[ebp]
  0012b	8b 55 fc	 mov	 edx, DWORD PTR _table$[ebp]
  0012e	89 44 8a 20	 mov	 DWORD PTR [edx+ecx*4+32], eax

; 672  : 
; 673  : 	add_explosion_criteria (0, kill_code, 0, INT_MAX, META_EXPLOSION_TYPE_NONE, table);

  00132	8b 45 fc	 mov	 eax, DWORD PTR _table$[ebp]
  00135	50		 push	 eax
  00136	6a 00		 push	 0
  00138	68 ff ff ff 7f	 push	 2147483647		; 7fffffffH
  0013d	6a 00		 push	 0
  0013f	8b 4d f8	 mov	 ecx, DWORD PTR _kill_code$[ebp]
  00142	51		 push	 ecx
  00143	6a 00		 push	 0
  00145	e8 00 00 00 00	 call	 ?add_explosion_criteria@@YGXHW4WEAPON_KILL_CODES@@HHW4META_EXPLOSION_TYPES@@PAUWEAPON_EXPLOSION_CRITERIA@@@Z ; add_explosion_criteria

; 674  : 
; 675  : 	////////////////////////////////////////
; 676  : 
; 677  : 	kill_code = WEAPON_KILL_CODE_HIT_TARGET;

  0014a	c7 45 f8 05 00
	00 00		 mov	 DWORD PTR _kill_code$[ebp], 5

; 678  : 
; 679  : 	table->kill_code_criteria_count [kill_code] = 0;

  00151	8b 45 f8	 mov	 eax, DWORD PTR _kill_code$[ebp]
  00154	8b 4d fc	 mov	 ecx, DWORD PTR _table$[ebp]
  00157	c7 04 81 00 00
	00 00		 mov	 DWORD PTR [ecx+eax*4], 0

; 680  : 
; 681  : 	table->kill_code_criteria [kill_code] = NULL;

  0015e	8b 45 f8	 mov	 eax, DWORD PTR _kill_code$[ebp]
  00161	8b 4d fc	 mov	 ecx, DWORD PTR _table$[ebp]
  00164	c7 44 81 20 00
	00 00 00	 mov	 DWORD PTR [ecx+eax*4+32], 0

; 682  : 
; 683  : 	////////////////////////////////////////
; 684  : 
; 685  : 	kill_code = WEAPON_KILL_CODE_OVERSHOT_TARGET;

  0016c	c7 45 f8 06 00
	00 00		 mov	 DWORD PTR _kill_code$[ebp], 6

; 686  : 
; 687  : 	table->kill_code_criteria_count [kill_code] = 0;

  00173	8b 45 f8	 mov	 eax, DWORD PTR _kill_code$[ebp]
  00176	8b 4d fc	 mov	 ecx, DWORD PTR _table$[ebp]
  00179	c7 04 81 00 00
	00 00		 mov	 DWORD PTR [ecx+eax*4], 0

; 688  : 
; 689  : 	table->kill_code_criteria [kill_code] = NULL;

  00180	8b 45 f8	 mov	 eax, DWORD PTR _kill_code$[ebp]
  00183	8b 4d fc	 mov	 ecx, DWORD PTR _table$[ebp]
  00186	c7 44 81 20 00
	00 00 00	 mov	 DWORD PTR [ecx+eax*4+32], 0

; 690  : 
; 691  : 	////////////////////////////////////////
; 692  : 
; 693  : 	kill_code = WEAPON_KILL_CODE_SELF_DESTRUCT;

  0018e	c7 45 f8 07 00
	00 00		 mov	 DWORD PTR _kill_code$[ebp], 7

; 694  : 
; 695  : 	table->kill_code_criteria_count [kill_code] = 0;

  00195	8b 45 f8	 mov	 eax, DWORD PTR _kill_code$[ebp]
  00198	8b 4d fc	 mov	 ecx, DWORD PTR _table$[ebp]
  0019b	c7 04 81 00 00
	00 00		 mov	 DWORD PTR [ecx+eax*4], 0

; 696  : 
; 697  : 	table->kill_code_criteria [kill_code] = NULL;

  001a2	8b 45 f8	 mov	 eax, DWORD PTR _kill_code$[ebp]
  001a5	8b 4d fc	 mov	 ecx, DWORD PTR _table$[ebp]
  001a8	c7 44 81 20 00
	00 00 00	 mov	 DWORD PTR [ecx+eax*4+32], 0

; 698  : }

  001b0	5f		 pop	 edi
  001b1	5e		 pop	 esi
  001b2	5b		 pop	 ebx
  001b3	8b e5		 mov	 esp, ebp
  001b5	5d		 pop	 ebp
  001b6	c3		 ret	 0
?initialise_smoke_grenade_explosion_criteria_table@@YGXXZ ENDP ; initialise_smoke_grenade_explosion_criteria_table
_TEXT	ENDS
; Function compile flags: /Odtp /ZI
; File c:\users\nhv90\projects\eech\aphavoc\source\entity\special\effect\explosn\xp_wpn.c
;	COMDAT ?initialise_heat_explosion_criteria_table@@YGXXZ
_TEXT	SEGMENT
_count$ = -12						; size = 4
_kill_code$ = -8					; size = 4
_table$ = -4						; size = 4
?initialise_heat_explosion_criteria_table@@YGXXZ PROC	; initialise_heat_explosion_criteria_table, COMDAT

; 470  : {

  00000	55		 push	 ebp
  00001	8b ec		 mov	 ebp, esp
  00003	83 ec 4c	 sub	 esp, 76			; 0000004cH
  00006	53		 push	 ebx
  00007	56		 push	 esi
  00008	57		 push	 edi

; 471  : 	weapon_explosion_criteria
; 472  : 		*table;
; 473  : 
; 474  : 	weapon_kill_codes
; 475  : 		kill_code;
; 476  : 
; 477  : 	int
; 478  : 		count;
; 479  : 
; 480  : 	table = &heat_explosion_criteria_table;

  00009	c7 45 fc 00 00
	00 00		 mov	 DWORD PTR _table$[ebp], OFFSET ?heat_explosion_criteria_table@@3UWEAPON_EXPLOSION_CRITERIA@@A

; 481  : 
; 482  : 	////////////////////////////////////////
; 483  : 
; 484  : 	kill_code =  WEAPON_KILL_CODE_OK;

  00010	c7 45 f8 00 00
	00 00		 mov	 DWORD PTR _kill_code$[ebp], 0

; 485  : 
; 486  : 	table->kill_code_criteria_count [kill_code] = 0;

  00017	8b 45 f8	 mov	 eax, DWORD PTR _kill_code$[ebp]
  0001a	8b 4d fc	 mov	 ecx, DWORD PTR _table$[ebp]
  0001d	c7 04 81 00 00
	00 00		 mov	 DWORD PTR [ecx+eax*4], 0

; 487  : 
; 488  : 	table->kill_code_criteria [kill_code] = NULL;

  00024	8b 45 f8	 mov	 eax, DWORD PTR _kill_code$[ebp]
  00027	8b 4d fc	 mov	 ecx, DWORD PTR _table$[ebp]
  0002a	c7 44 81 20 00
	00 00 00	 mov	 DWORD PTR [ecx+eax*4+32], 0

; 489  : 
; 490  : 	////////////////////////////////////////
; 491  : 
; 492  : 	kill_code = WEAPON_KILL_CODE_EXHAUSTED;

  00032	c7 45 f8 01 00
	00 00		 mov	 DWORD PTR _kill_code$[ebp], 1

; 493  : 
; 494  : 	count = 1;

  00039	c7 45 f4 01 00
	00 00		 mov	 DWORD PTR _count$[ebp], 1

; 495  : 
; 496  : 	table->kill_code_criteria_count [kill_code] = count;

  00040	8b 45 f8	 mov	 eax, DWORD PTR _kill_code$[ebp]
  00043	8b 4d fc	 mov	 ecx, DWORD PTR _table$[ebp]
  00046	8b 55 f4	 mov	 edx, DWORD PTR _count$[ebp]
  00049	89 14 81	 mov	 DWORD PTR [ecx+eax*4], edx

; 497  : 
; 498  : 	table->kill_code_criteria [kill_code] = (weapon_explosion_kill_code_criteria *) malloc_heap_mem (sizeof (weapon_explosion_kill_code_criteria) * count);

  0004c	6b 45 f4 0c	 imul	 eax, DWORD PTR _count$[ebp], 12
  00050	50		 push	 eax
  00051	e8 00 00 00 00	 call	 ?malloc_heap_memory@@YGPAXI@Z ; malloc_heap_memory
  00056	8b 4d f8	 mov	 ecx, DWORD PTR _kill_code$[ebp]
  00059	8b 55 fc	 mov	 edx, DWORD PTR _table$[ebp]
  0005c	89 44 8a 20	 mov	 DWORD PTR [edx+ecx*4+32], eax

; 499  : 
; 500  : 	add_explosion_criteria (0, kill_code, 0, INT_MAX, SMALL_HE_META_EXPLOSION, table);

  00060	8b 45 fc	 mov	 eax, DWORD PTR _table$[ebp]
  00063	50		 push	 eax
  00064	6a 06		 push	 6
  00066	68 ff ff ff 7f	 push	 2147483647		; 7fffffffH
  0006b	6a 00		 push	 0
  0006d	8b 4d f8	 mov	 ecx, DWORD PTR _kill_code$[ebp]
  00070	51		 push	 ecx
  00071	6a 00		 push	 0
  00073	e8 00 00 00 00	 call	 ?add_explosion_criteria@@YGXHW4WEAPON_KILL_CODES@@HHW4META_EXPLOSION_TYPES@@PAUWEAPON_EXPLOSION_CRITERIA@@@Z ; add_explosion_criteria

; 501  : 
; 502  : 	////////////////////////////////////////
; 503  : 
; 504  : 	kill_code = WEAPON_KILL_CODE_OUT_OF_BOUNDS;

  00078	c7 45 f8 02 00
	00 00		 mov	 DWORD PTR _kill_code$[ebp], 2

; 505  : 
; 506  : 	count = 1;

  0007f	c7 45 f4 01 00
	00 00		 mov	 DWORD PTR _count$[ebp], 1

; 507  : 
; 508  : 	table->kill_code_criteria_count [kill_code] = count;

  00086	8b 45 f8	 mov	 eax, DWORD PTR _kill_code$[ebp]
  00089	8b 4d fc	 mov	 ecx, DWORD PTR _table$[ebp]
  0008c	8b 55 f4	 mov	 edx, DWORD PTR _count$[ebp]
  0008f	89 14 81	 mov	 DWORD PTR [ecx+eax*4], edx

; 509  : 
; 510  : 	table->kill_code_criteria [kill_code] = (weapon_explosion_kill_code_criteria *) malloc_heap_mem (sizeof (weapon_explosion_kill_code_criteria) * count);

  00092	6b 45 f4 0c	 imul	 eax, DWORD PTR _count$[ebp], 12
  00096	50		 push	 eax
  00097	e8 00 00 00 00	 call	 ?malloc_heap_memory@@YGPAXI@Z ; malloc_heap_memory
  0009c	8b 4d f8	 mov	 ecx, DWORD PTR _kill_code$[ebp]
  0009f	8b 55 fc	 mov	 edx, DWORD PTR _table$[ebp]
  000a2	89 44 8a 20	 mov	 DWORD PTR [edx+ecx*4+32], eax

; 511  : 
; 512  : 	add_explosion_criteria (0, kill_code, 0, INT_MAX, META_EXPLOSION_TYPE_NONE, table);

  000a6	8b 45 fc	 mov	 eax, DWORD PTR _table$[ebp]
  000a9	50		 push	 eax
  000aa	6a 00		 push	 0
  000ac	68 ff ff ff 7f	 push	 2147483647		; 7fffffffH
  000b1	6a 00		 push	 0
  000b3	8b 4d f8	 mov	 ecx, DWORD PTR _kill_code$[ebp]
  000b6	51		 push	 ecx
  000b7	6a 00		 push	 0
  000b9	e8 00 00 00 00	 call	 ?add_explosion_criteria@@YGXHW4WEAPON_KILL_CODES@@HHW4META_EXPLOSION_TYPES@@PAUWEAPON_EXPLOSION_CRITERIA@@@Z ; add_explosion_criteria

; 513  : 
; 514  : 	////////////////////////////////////////
; 515  : 
; 516  : 	kill_code = WEAPON_KILL_CODE_HIT_LAND;

  000be	c7 45 f8 03 00
	00 00		 mov	 DWORD PTR _kill_code$[ebp], 3

; 517  : 
; 518  : 	count = 3;

  000c5	c7 45 f4 03 00
	00 00		 mov	 DWORD PTR _count$[ebp], 3

; 519  : 
; 520  : 	table->kill_code_criteria_count [kill_code] = count;

  000cc	8b 45 f8	 mov	 eax, DWORD PTR _kill_code$[ebp]
  000cf	8b 4d fc	 mov	 ecx, DWORD PTR _table$[ebp]
  000d2	8b 55 f4	 mov	 edx, DWORD PTR _count$[ebp]
  000d5	89 14 81	 mov	 DWORD PTR [ecx+eax*4], edx

; 521  : 
; 522  : 	table->kill_code_criteria [kill_code] = (weapon_explosion_kill_code_criteria *) malloc_heap_mem (sizeof (weapon_explosion_kill_code_criteria) * count);

  000d8	6b 45 f4 0c	 imul	 eax, DWORD PTR _count$[ebp], 12
  000dc	50		 push	 eax
  000dd	e8 00 00 00 00	 call	 ?malloc_heap_memory@@YGPAXI@Z ; malloc_heap_memory
  000e2	8b 4d f8	 mov	 ecx, DWORD PTR _kill_code$[ebp]
  000e5	8b 55 fc	 mov	 edx, DWORD PTR _table$[ebp]
  000e8	89 44 8a 20	 mov	 DWORD PTR [edx+ecx*4+32], eax

; 523  : 
; 524  : 	add_explosion_criteria (0, kill_code, 0, 99, SMALL_HE_META_EXPLOSION, table);

  000ec	8b 45 fc	 mov	 eax, DWORD PTR _table$[ebp]
  000ef	50		 push	 eax
  000f0	6a 06		 push	 6
  000f2	6a 63		 push	 99			; 00000063H
  000f4	6a 00		 push	 0
  000f6	8b 4d f8	 mov	 ecx, DWORD PTR _kill_code$[ebp]
  000f9	51		 push	 ecx
  000fa	6a 00		 push	 0
  000fc	e8 00 00 00 00	 call	 ?add_explosion_criteria@@YGXHW4WEAPON_KILL_CODES@@HHW4META_EXPLOSION_TYPES@@PAUWEAPON_EXPLOSION_CRITERIA@@@Z ; add_explosion_criteria

; 525  : 	add_explosion_criteria (1, kill_code, 100, 999, MEDIUM_HE_META_EXPLOSION, table);

  00101	8b 45 fc	 mov	 eax, DWORD PTR _table$[ebp]
  00104	50		 push	 eax
  00105	6a 07		 push	 7
  00107	68 e7 03 00 00	 push	 999			; 000003e7H
  0010c	6a 64		 push	 100			; 00000064H
  0010e	8b 4d f8	 mov	 ecx, DWORD PTR _kill_code$[ebp]
  00111	51		 push	 ecx
  00112	6a 01		 push	 1
  00114	e8 00 00 00 00	 call	 ?add_explosion_criteria@@YGXHW4WEAPON_KILL_CODES@@HHW4META_EXPLOSION_TYPES@@PAUWEAPON_EXPLOSION_CRITERIA@@@Z ; add_explosion_criteria

; 526  : 	add_explosion_criteria (2, kill_code, 1000, INT_MAX, LARGE_HE_META_EXPLOSION, table);

  00119	8b 45 fc	 mov	 eax, DWORD PTR _table$[ebp]
  0011c	50		 push	 eax
  0011d	6a 08		 push	 8
  0011f	68 ff ff ff 7f	 push	 2147483647		; 7fffffffH
  00124	68 e8 03 00 00	 push	 1000			; 000003e8H
  00129	8b 4d f8	 mov	 ecx, DWORD PTR _kill_code$[ebp]
  0012c	51		 push	 ecx
  0012d	6a 02		 push	 2
  0012f	e8 00 00 00 00	 call	 ?add_explosion_criteria@@YGXHW4WEAPON_KILL_CODES@@HHW4META_EXPLOSION_TYPES@@PAUWEAPON_EXPLOSION_CRITERIA@@@Z ; add_explosion_criteria

; 527  : 
; 528  : 	////////////////////////////////////////
; 529  : 
; 530  : 	kill_code = WEAPON_KILL_CODE_HIT_WATER;

  00134	c7 45 f8 04 00
	00 00		 mov	 DWORD PTR _kill_code$[ebp], 4

; 531  : 
; 532  : 	count = 3;

  0013b	c7 45 f4 03 00
	00 00		 mov	 DWORD PTR _count$[ebp], 3

; 533  : 
; 534  : 	table->kill_code_criteria_count [kill_code] = count;

  00142	8b 45 f8	 mov	 eax, DWORD PTR _kill_code$[ebp]
  00145	8b 4d fc	 mov	 ecx, DWORD PTR _table$[ebp]
  00148	8b 55 f4	 mov	 edx, DWORD PTR _count$[ebp]
  0014b	89 14 81	 mov	 DWORD PTR [ecx+eax*4], edx

; 535  : 
; 536  : 	table->kill_code_criteria [kill_code] = (weapon_explosion_kill_code_criteria *) malloc_heap_mem (sizeof (weapon_explosion_kill_code_criteria) * count);

  0014e	6b 45 f4 0c	 imul	 eax, DWORD PTR _count$[ebp], 12
  00152	50		 push	 eax
  00153	e8 00 00 00 00	 call	 ?malloc_heap_memory@@YGPAXI@Z ; malloc_heap_memory
  00158	8b 4d f8	 mov	 ecx, DWORD PTR _kill_code$[ebp]
  0015b	8b 55 fc	 mov	 edx, DWORD PTR _table$[ebp]
  0015e	89 44 8a 20	 mov	 DWORD PTR [edx+ecx*4+32], eax

; 537  : 
; 538  : 	add_explosion_criteria (0, kill_code, 0, 99, SMALL_WATER_META_EXPLOSION, table);

  00162	8b 45 fc	 mov	 eax, DWORD PTR _table$[ebp]
  00165	50		 push	 eax
  00166	6a 12		 push	 18			; 00000012H
  00168	6a 63		 push	 99			; 00000063H
  0016a	6a 00		 push	 0
  0016c	8b 4d f8	 mov	 ecx, DWORD PTR _kill_code$[ebp]
  0016f	51		 push	 ecx
  00170	6a 00		 push	 0
  00172	e8 00 00 00 00	 call	 ?add_explosion_criteria@@YGXHW4WEAPON_KILL_CODES@@HHW4META_EXPLOSION_TYPES@@PAUWEAPON_EXPLOSION_CRITERIA@@@Z ; add_explosion_criteria

; 539  : 	add_explosion_criteria (1, kill_code, 100, 999, MEDIUM_WATER_META_EXPLOSION, table);

  00177	8b 45 fc	 mov	 eax, DWORD PTR _table$[ebp]
  0017a	50		 push	 eax
  0017b	6a 13		 push	 19			; 00000013H
  0017d	68 e7 03 00 00	 push	 999			; 000003e7H
  00182	6a 64		 push	 100			; 00000064H
  00184	8b 4d f8	 mov	 ecx, DWORD PTR _kill_code$[ebp]
  00187	51		 push	 ecx
  00188	6a 01		 push	 1
  0018a	e8 00 00 00 00	 call	 ?add_explosion_criteria@@YGXHW4WEAPON_KILL_CODES@@HHW4META_EXPLOSION_TYPES@@PAUWEAPON_EXPLOSION_CRITERIA@@@Z ; add_explosion_criteria

; 540  : 	add_explosion_criteria (2, kill_code, 1000, INT_MAX, LARGE_WATER_META_EXPLOSION, table);

  0018f	8b 45 fc	 mov	 eax, DWORD PTR _table$[ebp]
  00192	50		 push	 eax
  00193	6a 14		 push	 20			; 00000014H
  00195	68 ff ff ff 7f	 push	 2147483647		; 7fffffffH
  0019a	68 e8 03 00 00	 push	 1000			; 000003e8H
  0019f	8b 4d f8	 mov	 ecx, DWORD PTR _kill_code$[ebp]
  001a2	51		 push	 ecx
  001a3	6a 02		 push	 2
  001a5	e8 00 00 00 00	 call	 ?add_explosion_criteria@@YGXHW4WEAPON_KILL_CODES@@HHW4META_EXPLOSION_TYPES@@PAUWEAPON_EXPLOSION_CRITERIA@@@Z ; add_explosion_criteria

; 541  : 
; 542  : 	////////////////////////////////////////
; 543  : 
; 544  : 	kill_code = WEAPON_KILL_CODE_HIT_TARGET;

  001aa	c7 45 f8 05 00
	00 00		 mov	 DWORD PTR _kill_code$[ebp], 5

; 545  : 
; 546  : 	count = 3;

  001b1	c7 45 f4 03 00
	00 00		 mov	 DWORD PTR _count$[ebp], 3

; 547  : 
; 548  : 	table->kill_code_criteria_count [kill_code] = count;

  001b8	8b 45 f8	 mov	 eax, DWORD PTR _kill_code$[ebp]
  001bb	8b 4d fc	 mov	 ecx, DWORD PTR _table$[ebp]
  001be	8b 55 f4	 mov	 edx, DWORD PTR _count$[ebp]
  001c1	89 14 81	 mov	 DWORD PTR [ecx+eax*4], edx

; 549  : 
; 550  : 	table->kill_code_criteria [kill_code] = (weapon_explosion_kill_code_criteria *) malloc_heap_mem (sizeof (weapon_explosion_kill_code_criteria) * count);

  001c4	6b 45 f4 0c	 imul	 eax, DWORD PTR _count$[ebp], 12
  001c8	50		 push	 eax
  001c9	e8 00 00 00 00	 call	 ?malloc_heap_memory@@YGPAXI@Z ; malloc_heap_memory
  001ce	8b 4d f8	 mov	 ecx, DWORD PTR _kill_code$[ebp]
  001d1	8b 55 fc	 mov	 edx, DWORD PTR _table$[ebp]
  001d4	89 44 8a 20	 mov	 DWORD PTR [edx+ecx*4+32], eax

; 551  : 
; 552  : 	add_explosion_criteria (0, kill_code, 0, 99, SMALL_HE_META_EXPLOSION, table);

  001d8	8b 45 fc	 mov	 eax, DWORD PTR _table$[ebp]
  001db	50		 push	 eax
  001dc	6a 06		 push	 6
  001de	6a 63		 push	 99			; 00000063H
  001e0	6a 00		 push	 0
  001e2	8b 4d f8	 mov	 ecx, DWORD PTR _kill_code$[ebp]
  001e5	51		 push	 ecx
  001e6	6a 00		 push	 0
  001e8	e8 00 00 00 00	 call	 ?add_explosion_criteria@@YGXHW4WEAPON_KILL_CODES@@HHW4META_EXPLOSION_TYPES@@PAUWEAPON_EXPLOSION_CRITERIA@@@Z ; add_explosion_criteria

; 553  : 	add_explosion_criteria (1, kill_code, 100, 999, MEDIUM_HE_META_EXPLOSION, table);

  001ed	8b 45 fc	 mov	 eax, DWORD PTR _table$[ebp]
  001f0	50		 push	 eax
  001f1	6a 07		 push	 7
  001f3	68 e7 03 00 00	 push	 999			; 000003e7H
  001f8	6a 64		 push	 100			; 00000064H
  001fa	8b 4d f8	 mov	 ecx, DWORD PTR _kill_code$[ebp]
  001fd	51		 push	 ecx
  001fe	6a 01		 push	 1
  00200	e8 00 00 00 00	 call	 ?add_explosion_criteria@@YGXHW4WEAPON_KILL_CODES@@HHW4META_EXPLOSION_TYPES@@PAUWEAPON_EXPLOSION_CRITERIA@@@Z ; add_explosion_criteria

; 554  : 	add_explosion_criteria (2, kill_code, 1000, INT_MAX, LARGE_HE_META_EXPLOSION, table);

  00205	8b 45 fc	 mov	 eax, DWORD PTR _table$[ebp]
  00208	50		 push	 eax
  00209	6a 08		 push	 8
  0020b	68 ff ff ff 7f	 push	 2147483647		; 7fffffffH
  00210	68 e8 03 00 00	 push	 1000			; 000003e8H
  00215	8b 4d f8	 mov	 ecx, DWORD PTR _kill_code$[ebp]
  00218	51		 push	 ecx
  00219	6a 02		 push	 2
  0021b	e8 00 00 00 00	 call	 ?add_explosion_criteria@@YGXHW4WEAPON_KILL_CODES@@HHW4META_EXPLOSION_TYPES@@PAUWEAPON_EXPLOSION_CRITERIA@@@Z ; add_explosion_criteria

; 555  : 
; 556  : 	////////////////////////////////////////
; 557  : 
; 558  : 	kill_code = WEAPON_KILL_CODE_OVERSHOT_TARGET;

  00220	c7 45 f8 06 00
	00 00		 mov	 DWORD PTR _kill_code$[ebp], 6

; 559  : 
; 560  : 	count = 1;

  00227	c7 45 f4 01 00
	00 00		 mov	 DWORD PTR _count$[ebp], 1

; 561  : 
; 562  : 	table->kill_code_criteria_count [kill_code] = count;

  0022e	8b 45 f8	 mov	 eax, DWORD PTR _kill_code$[ebp]
  00231	8b 4d fc	 mov	 ecx, DWORD PTR _table$[ebp]
  00234	8b 55 f4	 mov	 edx, DWORD PTR _count$[ebp]
  00237	89 14 81	 mov	 DWORD PTR [ecx+eax*4], edx

; 563  : 
; 564  : 	table->kill_code_criteria [kill_code] = (weapon_explosion_kill_code_criteria *) malloc_heap_mem (sizeof (weapon_explosion_kill_code_criteria) * count);

  0023a	6b 45 f4 0c	 imul	 eax, DWORD PTR _count$[ebp], 12
  0023e	50		 push	 eax
  0023f	e8 00 00 00 00	 call	 ?malloc_heap_memory@@YGPAXI@Z ; malloc_heap_memory
  00244	8b 4d f8	 mov	 ecx, DWORD PTR _kill_code$[ebp]
  00247	8b 55 fc	 mov	 edx, DWORD PTR _table$[ebp]
  0024a	89 44 8a 20	 mov	 DWORD PTR [edx+ecx*4+32], eax

; 565  : 
; 566  : 	add_explosion_criteria (0, kill_code, 0, INT_MAX, SMALL_HE_META_EXPLOSION, table);

  0024e	8b 45 fc	 mov	 eax, DWORD PTR _table$[ebp]
  00251	50		 push	 eax
  00252	6a 06		 push	 6
  00254	68 ff ff ff 7f	 push	 2147483647		; 7fffffffH
  00259	6a 00		 push	 0
  0025b	8b 4d f8	 mov	 ecx, DWORD PTR _kill_code$[ebp]
  0025e	51		 push	 ecx
  0025f	6a 00		 push	 0
  00261	e8 00 00 00 00	 call	 ?add_explosion_criteria@@YGXHW4WEAPON_KILL_CODES@@HHW4META_EXPLOSION_TYPES@@PAUWEAPON_EXPLOSION_CRITERIA@@@Z ; add_explosion_criteria

; 567  : 
; 568  : /*	count = 3;
; 569  : 
; 570  : 	table->kill_code_criteria_count [kill_code] = count;
; 571  : 
; 572  : 	table->kill_code_criteria [kill_code] = (weapon_explosion_kill_code_criteria *) malloc_heap_mem (sizeof (weapon_explosion_kill_code_criteria) * count);
; 573  : 
; 574  : 	add_explosion_criteria (0, kill_code, 0, 99, SMALL_HE_META_EXPLOSION, table);
; 575  : 	add_explosion_criteria (1, kill_code, 100, 999, MEDIUM_HE_META_EXPLOSION, table);
; 576  : 	add_explosion_criteria (2, kill_code, 1000, INT_MAX, LARGE_HE_META_EXPLOSION, table); */
; 577  : 
; 578  : 	////////////////////////////////////////
; 579  : 
; 580  : 	kill_code = WEAPON_KILL_CODE_SELF_DESTRUCT;

  00266	c7 45 f8 07 00
	00 00		 mov	 DWORD PTR _kill_code$[ebp], 7

; 581  : 
; 582  : 	count = 1;

  0026d	c7 45 f4 01 00
	00 00		 mov	 DWORD PTR _count$[ebp], 1

; 583  : 
; 584  : 	table->kill_code_criteria_count [kill_code] = count;

  00274	8b 45 f8	 mov	 eax, DWORD PTR _kill_code$[ebp]
  00277	8b 4d fc	 mov	 ecx, DWORD PTR _table$[ebp]
  0027a	8b 55 f4	 mov	 edx, DWORD PTR _count$[ebp]
  0027d	89 14 81	 mov	 DWORD PTR [ecx+eax*4], edx

; 585  : 
; 586  : 	table->kill_code_criteria [kill_code] = (weapon_explosion_kill_code_criteria *) malloc_heap_mem (sizeof (weapon_explosion_kill_code_criteria) * count);

  00280	6b 45 f4 0c	 imul	 eax, DWORD PTR _count$[ebp], 12
  00284	50		 push	 eax
  00285	e8 00 00 00 00	 call	 ?malloc_heap_memory@@YGPAXI@Z ; malloc_heap_memory
  0028a	8b 4d f8	 mov	 ecx, DWORD PTR _kill_code$[ebp]
  0028d	8b 55 fc	 mov	 edx, DWORD PTR _table$[ebp]
  00290	89 44 8a 20	 mov	 DWORD PTR [edx+ecx*4+32], eax

; 587  : 
; 588  : 	add_explosion_criteria (0, kill_code, 0, INT_MAX, SMALL_HE_META_EXPLOSION, table);

  00294	8b 45 fc	 mov	 eax, DWORD PTR _table$[ebp]
  00297	50		 push	 eax
  00298	6a 06		 push	 6
  0029a	68 ff ff ff 7f	 push	 2147483647		; 7fffffffH
  0029f	6a 00		 push	 0
  002a1	8b 4d f8	 mov	 ecx, DWORD PTR _kill_code$[ebp]
  002a4	51		 push	 ecx
  002a5	6a 00		 push	 0
  002a7	e8 00 00 00 00	 call	 ?add_explosion_criteria@@YGXHW4WEAPON_KILL_CODES@@HHW4META_EXPLOSION_TYPES@@PAUWEAPON_EXPLOSION_CRITERIA@@@Z ; add_explosion_criteria

; 589  : 
; 590  : /*
; 591  : 	count = 3;
; 592  : 
; 593  : 	table->kill_code_criteria_count [kill_code] = count;
; 594  : 
; 595  : 	table->kill_code_criteria [kill_code] = (weapon_explosion_kill_code_criteria *) malloc_heap_mem (sizeof (weapon_explosion_kill_code_criteria) * count);
; 596  : 
; 597  : 	add_explosion_criteria (0, kill_code, 0, 99, SMALL_HE_META_EXPLOSION, table);
; 598  : 	add_explosion_criteria (1, kill_code, 100, 999, MEDIUM_HE_META_EXPLOSION, table);
; 599  : 	add_explosion_criteria (2, kill_code, 1000, INT_MAX, LARGE_HE_META_EXPLOSION, table);*/
; 600  : }

  002ac	5f		 pop	 edi
  002ad	5e		 pop	 esi
  002ae	5b		 pop	 ebx
  002af	8b e5		 mov	 esp, ebp
  002b1	5d		 pop	 ebp
  002b2	c3		 ret	 0
?initialise_heat_explosion_criteria_table@@YGXXZ ENDP	; initialise_heat_explosion_criteria_table
_TEXT	ENDS
; Function compile flags: /Odtp /ZI
; File c:\users\nhv90\projects\eech\aphavoc\source\entity\special\effect\explosn\xp_wpn.c
;	COMDAT ?initialise_armour_piercing_explosion_criteria_table@@YGXXZ
_TEXT	SEGMENT
_count$ = -12						; size = 4
_kill_code$ = -8					; size = 4
_table$ = -4						; size = 4
?initialise_armour_piercing_explosion_criteria_table@@YGXXZ PROC ; initialise_armour_piercing_explosion_criteria_table, COMDAT

; 354  : {

  00000	55		 push	 ebp
  00001	8b ec		 mov	 ebp, esp
  00003	83 ec 4c	 sub	 esp, 76			; 0000004cH
  00006	53		 push	 ebx
  00007	56		 push	 esi
  00008	57		 push	 edi

; 355  : 	weapon_explosion_criteria
; 356  : 		*table;
; 357  : 
; 358  : 	weapon_kill_codes
; 359  : 		kill_code;
; 360  : 
; 361  : 	int
; 362  : 		count;
; 363  : 
; 364  : 	table = &armour_piercing_explosion_criteria_table;

  00009	c7 45 fc 00 00
	00 00		 mov	 DWORD PTR _table$[ebp], OFFSET ?armour_piercing_explosion_criteria_table@@3UWEAPON_EXPLOSION_CRITERIA@@A

; 365  : 
; 366  : 	////////////////////////////////////////
; 367  : 
; 368  : 	kill_code =  WEAPON_KILL_CODE_OK;

  00010	c7 45 f8 00 00
	00 00		 mov	 DWORD PTR _kill_code$[ebp], 0

; 369  : 
; 370  : 	table->kill_code_criteria_count [kill_code] = 0;

  00017	8b 45 f8	 mov	 eax, DWORD PTR _kill_code$[ebp]
  0001a	8b 4d fc	 mov	 ecx, DWORD PTR _table$[ebp]
  0001d	c7 04 81 00 00
	00 00		 mov	 DWORD PTR [ecx+eax*4], 0

; 371  : 
; 372  : 	table->kill_code_criteria [kill_code] = NULL;

  00024	8b 45 f8	 mov	 eax, DWORD PTR _kill_code$[ebp]
  00027	8b 4d fc	 mov	 ecx, DWORD PTR _table$[ebp]
  0002a	c7 44 81 20 00
	00 00 00	 mov	 DWORD PTR [ecx+eax*4+32], 0

; 373  : 
; 374  : 	////////////////////////////////////////
; 375  : 
; 376  : 	kill_code = WEAPON_KILL_CODE_EXHAUSTED;

  00032	c7 45 f8 01 00
	00 00		 mov	 DWORD PTR _kill_code$[ebp], 1

; 377  : 
; 378  : 	count = 1;

  00039	c7 45 f4 01 00
	00 00		 mov	 DWORD PTR _count$[ebp], 1

; 379  : 
; 380  : 	table->kill_code_criteria_count [kill_code] = count;

  00040	8b 45 f8	 mov	 eax, DWORD PTR _kill_code$[ebp]
  00043	8b 4d fc	 mov	 ecx, DWORD PTR _table$[ebp]
  00046	8b 55 f4	 mov	 edx, DWORD PTR _count$[ebp]
  00049	89 14 81	 mov	 DWORD PTR [ecx+eax*4], edx

; 381  : 
; 382  : 	table->kill_code_criteria [kill_code] = (weapon_explosion_kill_code_criteria *) malloc_heap_mem (sizeof (weapon_explosion_kill_code_criteria) * count);

  0004c	6b 45 f4 0c	 imul	 eax, DWORD PTR _count$[ebp], 12
  00050	50		 push	 eax
  00051	e8 00 00 00 00	 call	 ?malloc_heap_memory@@YGPAXI@Z ; malloc_heap_memory
  00056	8b 4d f8	 mov	 ecx, DWORD PTR _kill_code$[ebp]
  00059	8b 55 fc	 mov	 edx, DWORD PTR _table$[ebp]
  0005c	89 44 8a 20	 mov	 DWORD PTR [edx+ecx*4+32], eax

; 383  : 
; 384  : 	add_explosion_criteria (0, kill_code, 0, INT_MAX, META_EXPLOSION_TYPE_NONE, table);

  00060	8b 45 fc	 mov	 eax, DWORD PTR _table$[ebp]
  00063	50		 push	 eax
  00064	6a 00		 push	 0
  00066	68 ff ff ff 7f	 push	 2147483647		; 7fffffffH
  0006b	6a 00		 push	 0
  0006d	8b 4d f8	 mov	 ecx, DWORD PTR _kill_code$[ebp]
  00070	51		 push	 ecx
  00071	6a 00		 push	 0
  00073	e8 00 00 00 00	 call	 ?add_explosion_criteria@@YGXHW4WEAPON_KILL_CODES@@HHW4META_EXPLOSION_TYPES@@PAUWEAPON_EXPLOSION_CRITERIA@@@Z ; add_explosion_criteria

; 385  : 
; 386  : 	////////////////////////////////////////
; 387  : 
; 388  : 	kill_code = WEAPON_KILL_CODE_OUT_OF_BOUNDS;

  00078	c7 45 f8 02 00
	00 00		 mov	 DWORD PTR _kill_code$[ebp], 2

; 389  : 
; 390  : 	count = 1;

  0007f	c7 45 f4 01 00
	00 00		 mov	 DWORD PTR _count$[ebp], 1

; 391  : 
; 392  : 	table->kill_code_criteria_count [kill_code] = count;

  00086	8b 45 f8	 mov	 eax, DWORD PTR _kill_code$[ebp]
  00089	8b 4d fc	 mov	 ecx, DWORD PTR _table$[ebp]
  0008c	8b 55 f4	 mov	 edx, DWORD PTR _count$[ebp]
  0008f	89 14 81	 mov	 DWORD PTR [ecx+eax*4], edx

; 393  : 
; 394  : 	table->kill_code_criteria [kill_code] = (weapon_explosion_kill_code_criteria *) malloc_heap_mem (sizeof (weapon_explosion_kill_code_criteria) * count);

  00092	6b 45 f4 0c	 imul	 eax, DWORD PTR _count$[ebp], 12
  00096	50		 push	 eax
  00097	e8 00 00 00 00	 call	 ?malloc_heap_memory@@YGPAXI@Z ; malloc_heap_memory
  0009c	8b 4d f8	 mov	 ecx, DWORD PTR _kill_code$[ebp]
  0009f	8b 55 fc	 mov	 edx, DWORD PTR _table$[ebp]
  000a2	89 44 8a 20	 mov	 DWORD PTR [edx+ecx*4+32], eax

; 395  : 
; 396  : 	add_explosion_criteria (0, kill_code, 0, INT_MAX, META_EXPLOSION_TYPE_NONE, table);

  000a6	8b 45 fc	 mov	 eax, DWORD PTR _table$[ebp]
  000a9	50		 push	 eax
  000aa	6a 00		 push	 0
  000ac	68 ff ff ff 7f	 push	 2147483647		; 7fffffffH
  000b1	6a 00		 push	 0
  000b3	8b 4d f8	 mov	 ecx, DWORD PTR _kill_code$[ebp]
  000b6	51		 push	 ecx
  000b7	6a 00		 push	 0
  000b9	e8 00 00 00 00	 call	 ?add_explosion_criteria@@YGXHW4WEAPON_KILL_CODES@@HHW4META_EXPLOSION_TYPES@@PAUWEAPON_EXPLOSION_CRITERIA@@@Z ; add_explosion_criteria

; 397  : 
; 398  : 	////////////////////////////////////////
; 399  : 
; 400  : 	kill_code = WEAPON_KILL_CODE_HIT_LAND;

  000be	c7 45 f8 03 00
	00 00		 mov	 DWORD PTR _kill_code$[ebp], 3

; 401  : 
; 402  : 	count = 3;

  000c5	c7 45 f4 03 00
	00 00		 mov	 DWORD PTR _count$[ebp], 3

; 403  : 
; 404  : 	table->kill_code_criteria_count [kill_code] = count;

  000cc	8b 45 f8	 mov	 eax, DWORD PTR _kill_code$[ebp]
  000cf	8b 4d fc	 mov	 ecx, DWORD PTR _table$[ebp]
  000d2	8b 55 f4	 mov	 edx, DWORD PTR _count$[ebp]
  000d5	89 14 81	 mov	 DWORD PTR [ecx+eax*4], edx

; 405  : 
; 406  : 	table->kill_code_criteria [kill_code] = (weapon_explosion_kill_code_criteria *) malloc_heap_mem (sizeof (weapon_explosion_kill_code_criteria) * count);

  000d8	6b 45 f4 0c	 imul	 eax, DWORD PTR _count$[ebp], 12
  000dc	50		 push	 eax
  000dd	e8 00 00 00 00	 call	 ?malloc_heap_memory@@YGPAXI@Z ; malloc_heap_memory
  000e2	8b 4d f8	 mov	 ecx, DWORD PTR _kill_code$[ebp]
  000e5	8b 55 fc	 mov	 edx, DWORD PTR _table$[ebp]
  000e8	89 44 8a 20	 mov	 DWORD PTR [edx+ecx*4+32], eax

; 407  : 
; 408  : 	add_explosion_criteria (0, kill_code, 0, 99, SMALL_EARTH_META_EXPLOSION, table);

  000ec	8b 45 fc	 mov	 eax, DWORD PTR _table$[ebp]
  000ef	50		 push	 eax
  000f0	6a 0f		 push	 15			; 0000000fH
  000f2	6a 63		 push	 99			; 00000063H
  000f4	6a 00		 push	 0
  000f6	8b 4d f8	 mov	 ecx, DWORD PTR _kill_code$[ebp]
  000f9	51		 push	 ecx
  000fa	6a 00		 push	 0
  000fc	e8 00 00 00 00	 call	 ?add_explosion_criteria@@YGXHW4WEAPON_KILL_CODES@@HHW4META_EXPLOSION_TYPES@@PAUWEAPON_EXPLOSION_CRITERIA@@@Z ; add_explosion_criteria

; 409  : 	add_explosion_criteria (1, kill_code, 100, 999, MEDIUM_EARTH_META_EXPLOSION, table);

  00101	8b 45 fc	 mov	 eax, DWORD PTR _table$[ebp]
  00104	50		 push	 eax
  00105	6a 10		 push	 16			; 00000010H
  00107	68 e7 03 00 00	 push	 999			; 000003e7H
  0010c	6a 64		 push	 100			; 00000064H
  0010e	8b 4d f8	 mov	 ecx, DWORD PTR _kill_code$[ebp]
  00111	51		 push	 ecx
  00112	6a 01		 push	 1
  00114	e8 00 00 00 00	 call	 ?add_explosion_criteria@@YGXHW4WEAPON_KILL_CODES@@HHW4META_EXPLOSION_TYPES@@PAUWEAPON_EXPLOSION_CRITERIA@@@Z ; add_explosion_criteria

; 410  : 	add_explosion_criteria (2, kill_code, 1000, INT_MAX, LARGE_EARTH_META_EXPLOSION, table);

  00119	8b 45 fc	 mov	 eax, DWORD PTR _table$[ebp]
  0011c	50		 push	 eax
  0011d	6a 11		 push	 17			; 00000011H
  0011f	68 ff ff ff 7f	 push	 2147483647		; 7fffffffH
  00124	68 e8 03 00 00	 push	 1000			; 000003e8H
  00129	8b 4d f8	 mov	 ecx, DWORD PTR _kill_code$[ebp]
  0012c	51		 push	 ecx
  0012d	6a 02		 push	 2
  0012f	e8 00 00 00 00	 call	 ?add_explosion_criteria@@YGXHW4WEAPON_KILL_CODES@@HHW4META_EXPLOSION_TYPES@@PAUWEAPON_EXPLOSION_CRITERIA@@@Z ; add_explosion_criteria

; 411  : 
; 412  : 	////////////////////////////////////////
; 413  : 
; 414  : 	kill_code = WEAPON_KILL_CODE_HIT_WATER;

  00134	c7 45 f8 04 00
	00 00		 mov	 DWORD PTR _kill_code$[ebp], 4

; 415  : 
; 416  : 	count = 3;

  0013b	c7 45 f4 03 00
	00 00		 mov	 DWORD PTR _count$[ebp], 3

; 417  : 
; 418  : 	table->kill_code_criteria_count [kill_code] = count;

  00142	8b 45 f8	 mov	 eax, DWORD PTR _kill_code$[ebp]
  00145	8b 4d fc	 mov	 ecx, DWORD PTR _table$[ebp]
  00148	8b 55 f4	 mov	 edx, DWORD PTR _count$[ebp]
  0014b	89 14 81	 mov	 DWORD PTR [ecx+eax*4], edx

; 419  : 
; 420  : 	table->kill_code_criteria [kill_code] = (weapon_explosion_kill_code_criteria *) malloc_heap_mem (sizeof (weapon_explosion_kill_code_criteria) * count);

  0014e	6b 45 f4 0c	 imul	 eax, DWORD PTR _count$[ebp], 12
  00152	50		 push	 eax
  00153	e8 00 00 00 00	 call	 ?malloc_heap_memory@@YGPAXI@Z ; malloc_heap_memory
  00158	8b 4d f8	 mov	 ecx, DWORD PTR _kill_code$[ebp]
  0015b	8b 55 fc	 mov	 edx, DWORD PTR _table$[ebp]
  0015e	89 44 8a 20	 mov	 DWORD PTR [edx+ecx*4+32], eax

; 421  : 
; 422  : 	add_explosion_criteria (0, kill_code, 0, 99, SMALL_WATER_META_EXPLOSION, table);

  00162	8b 45 fc	 mov	 eax, DWORD PTR _table$[ebp]
  00165	50		 push	 eax
  00166	6a 12		 push	 18			; 00000012H
  00168	6a 63		 push	 99			; 00000063H
  0016a	6a 00		 push	 0
  0016c	8b 4d f8	 mov	 ecx, DWORD PTR _kill_code$[ebp]
  0016f	51		 push	 ecx
  00170	6a 00		 push	 0
  00172	e8 00 00 00 00	 call	 ?add_explosion_criteria@@YGXHW4WEAPON_KILL_CODES@@HHW4META_EXPLOSION_TYPES@@PAUWEAPON_EXPLOSION_CRITERIA@@@Z ; add_explosion_criteria

; 423  : 	add_explosion_criteria (1, kill_code, 100, 999, MEDIUM_WATER_META_EXPLOSION, table);

  00177	8b 45 fc	 mov	 eax, DWORD PTR _table$[ebp]
  0017a	50		 push	 eax
  0017b	6a 13		 push	 19			; 00000013H
  0017d	68 e7 03 00 00	 push	 999			; 000003e7H
  00182	6a 64		 push	 100			; 00000064H
  00184	8b 4d f8	 mov	 ecx, DWORD PTR _kill_code$[ebp]
  00187	51		 push	 ecx
  00188	6a 01		 push	 1
  0018a	e8 00 00 00 00	 call	 ?add_explosion_criteria@@YGXHW4WEAPON_KILL_CODES@@HHW4META_EXPLOSION_TYPES@@PAUWEAPON_EXPLOSION_CRITERIA@@@Z ; add_explosion_criteria

; 424  : 	add_explosion_criteria (2, kill_code, 1000, INT_MAX, LARGE_WATER_META_EXPLOSION, table);

  0018f	8b 45 fc	 mov	 eax, DWORD PTR _table$[ebp]
  00192	50		 push	 eax
  00193	6a 14		 push	 20			; 00000014H
  00195	68 ff ff ff 7f	 push	 2147483647		; 7fffffffH
  0019a	68 e8 03 00 00	 push	 1000			; 000003e8H
  0019f	8b 4d f8	 mov	 ecx, DWORD PTR _kill_code$[ebp]
  001a2	51		 push	 ecx
  001a3	6a 02		 push	 2
  001a5	e8 00 00 00 00	 call	 ?add_explosion_criteria@@YGXHW4WEAPON_KILL_CODES@@HHW4META_EXPLOSION_TYPES@@PAUWEAPON_EXPLOSION_CRITERIA@@@Z ; add_explosion_criteria

; 425  : 
; 426  : 	////////////////////////////////////////
; 427  : 
; 428  : 	kill_code = WEAPON_KILL_CODE_HIT_TARGET;

  001aa	c7 45 f8 05 00
	00 00		 mov	 DWORD PTR _kill_code$[ebp], 5

; 429  : 
; 430  : 	count = 3;

  001b1	c7 45 f4 03 00
	00 00		 mov	 DWORD PTR _count$[ebp], 3

; 431  : 
; 432  : 	table->kill_code_criteria_count [kill_code] = count;

  001b8	8b 45 f8	 mov	 eax, DWORD PTR _kill_code$[ebp]
  001bb	8b 4d fc	 mov	 ecx, DWORD PTR _table$[ebp]
  001be	8b 55 f4	 mov	 edx, DWORD PTR _count$[ebp]
  001c1	89 14 81	 mov	 DWORD PTR [ecx+eax*4], edx

; 433  : 
; 434  : 	table->kill_code_criteria [kill_code] = (weapon_explosion_kill_code_criteria *) malloc_heap_mem (sizeof (weapon_explosion_kill_code_criteria) * count);

  001c4	6b 45 f4 0c	 imul	 eax, DWORD PTR _count$[ebp], 12
  001c8	50		 push	 eax
  001c9	e8 00 00 00 00	 call	 ?malloc_heap_memory@@YGPAXI@Z ; malloc_heap_memory
  001ce	8b 4d f8	 mov	 ecx, DWORD PTR _kill_code$[ebp]
  001d1	8b 55 fc	 mov	 edx, DWORD PTR _table$[ebp]
  001d4	89 44 8a 20	 mov	 DWORD PTR [edx+ecx*4+32], eax

; 435  : 
; 436  : 	add_explosion_criteria (0, kill_code, 0, 99, SMALL_AP_META_EXPLOSION, table);

  001d8	8b 45 fc	 mov	 eax, DWORD PTR _table$[ebp]
  001db	50		 push	 eax
  001dc	6a 03		 push	 3
  001de	6a 63		 push	 99			; 00000063H
  001e0	6a 00		 push	 0
  001e2	8b 4d f8	 mov	 ecx, DWORD PTR _kill_code$[ebp]
  001e5	51		 push	 ecx
  001e6	6a 00		 push	 0
  001e8	e8 00 00 00 00	 call	 ?add_explosion_criteria@@YGXHW4WEAPON_KILL_CODES@@HHW4META_EXPLOSION_TYPES@@PAUWEAPON_EXPLOSION_CRITERIA@@@Z ; add_explosion_criteria

; 437  : 	add_explosion_criteria (1, kill_code, 100, 999, MEDIUM_AP_META_EXPLOSION, table);

  001ed	8b 45 fc	 mov	 eax, DWORD PTR _table$[ebp]
  001f0	50		 push	 eax
  001f1	6a 04		 push	 4
  001f3	68 e7 03 00 00	 push	 999			; 000003e7H
  001f8	6a 64		 push	 100			; 00000064H
  001fa	8b 4d f8	 mov	 ecx, DWORD PTR _kill_code$[ebp]
  001fd	51		 push	 ecx
  001fe	6a 01		 push	 1
  00200	e8 00 00 00 00	 call	 ?add_explosion_criteria@@YGXHW4WEAPON_KILL_CODES@@HHW4META_EXPLOSION_TYPES@@PAUWEAPON_EXPLOSION_CRITERIA@@@Z ; add_explosion_criteria

; 438  : 	add_explosion_criteria (2, kill_code, 1000, INT_MAX, LARGE_AP_META_EXPLOSION, table);

  00205	8b 45 fc	 mov	 eax, DWORD PTR _table$[ebp]
  00208	50		 push	 eax
  00209	6a 05		 push	 5
  0020b	68 ff ff ff 7f	 push	 2147483647		; 7fffffffH
  00210	68 e8 03 00 00	 push	 1000			; 000003e8H
  00215	8b 4d f8	 mov	 ecx, DWORD PTR _kill_code$[ebp]
  00218	51		 push	 ecx
  00219	6a 02		 push	 2
  0021b	e8 00 00 00 00	 call	 ?add_explosion_criteria@@YGXHW4WEAPON_KILL_CODES@@HHW4META_EXPLOSION_TYPES@@PAUWEAPON_EXPLOSION_CRITERIA@@@Z ; add_explosion_criteria

; 439  : 
; 440  : 	////////////////////////////////////////
; 441  : 
; 442  : 	kill_code = WEAPON_KILL_CODE_OVERSHOT_TARGET;

  00220	c7 45 f8 06 00
	00 00		 mov	 DWORD PTR _kill_code$[ebp], 6

; 443  : 
; 444  : 	count = 1;

  00227	c7 45 f4 01 00
	00 00		 mov	 DWORD PTR _count$[ebp], 1

; 445  : 
; 446  : 	table->kill_code_criteria_count [kill_code] = count;

  0022e	8b 45 f8	 mov	 eax, DWORD PTR _kill_code$[ebp]
  00231	8b 4d fc	 mov	 ecx, DWORD PTR _table$[ebp]
  00234	8b 55 f4	 mov	 edx, DWORD PTR _count$[ebp]
  00237	89 14 81	 mov	 DWORD PTR [ecx+eax*4], edx

; 447  : 
; 448  : 	table->kill_code_criteria [kill_code] = (weapon_explosion_kill_code_criteria *) malloc_heap_mem (sizeof (weapon_explosion_kill_code_criteria) * count);

  0023a	6b 45 f4 0c	 imul	 eax, DWORD PTR _count$[ebp], 12
  0023e	50		 push	 eax
  0023f	e8 00 00 00 00	 call	 ?malloc_heap_memory@@YGPAXI@Z ; malloc_heap_memory
  00244	8b 4d f8	 mov	 ecx, DWORD PTR _kill_code$[ebp]
  00247	8b 55 fc	 mov	 edx, DWORD PTR _table$[ebp]
  0024a	89 44 8a 20	 mov	 DWORD PTR [edx+ecx*4+32], eax

; 449  : 
; 450  : 	add_explosion_criteria (0, kill_code, 0, INT_MAX, META_EXPLOSION_TYPE_NONE, table);

  0024e	8b 45 fc	 mov	 eax, DWORD PTR _table$[ebp]
  00251	50		 push	 eax
  00252	6a 00		 push	 0
  00254	68 ff ff ff 7f	 push	 2147483647		; 7fffffffH
  00259	6a 00		 push	 0
  0025b	8b 4d f8	 mov	 ecx, DWORD PTR _kill_code$[ebp]
  0025e	51		 push	 ecx
  0025f	6a 00		 push	 0
  00261	e8 00 00 00 00	 call	 ?add_explosion_criteria@@YGXHW4WEAPON_KILL_CODES@@HHW4META_EXPLOSION_TYPES@@PAUWEAPON_EXPLOSION_CRITERIA@@@Z ; add_explosion_criteria

; 451  : 
; 452  : 	////////////////////////////////////////
; 453  : 
; 454  : 	kill_code = WEAPON_KILL_CODE_SELF_DESTRUCT;

  00266	c7 45 f8 07 00
	00 00		 mov	 DWORD PTR _kill_code$[ebp], 7

; 455  : 
; 456  : 	count = 1;

  0026d	c7 45 f4 01 00
	00 00		 mov	 DWORD PTR _count$[ebp], 1

; 457  : 
; 458  : 	table->kill_code_criteria_count [kill_code] = count;

  00274	8b 45 f8	 mov	 eax, DWORD PTR _kill_code$[ebp]
  00277	8b 4d fc	 mov	 ecx, DWORD PTR _table$[ebp]
  0027a	8b 55 f4	 mov	 edx, DWORD PTR _count$[ebp]
  0027d	89 14 81	 mov	 DWORD PTR [ecx+eax*4], edx

; 459  : 
; 460  : 	table->kill_code_criteria [kill_code] = (weapon_explosion_kill_code_criteria *) malloc_heap_mem (sizeof (weapon_explosion_kill_code_criteria) * count);

  00280	6b 45 f4 0c	 imul	 eax, DWORD PTR _count$[ebp], 12
  00284	50		 push	 eax
  00285	e8 00 00 00 00	 call	 ?malloc_heap_memory@@YGPAXI@Z ; malloc_heap_memory
  0028a	8b 4d f8	 mov	 ecx, DWORD PTR _kill_code$[ebp]
  0028d	8b 55 fc	 mov	 edx, DWORD PTR _table$[ebp]
  00290	89 44 8a 20	 mov	 DWORD PTR [edx+ecx*4+32], eax

; 461  : 
; 462  : 	add_explosion_criteria (0, kill_code, 0, INT_MAX, META_EXPLOSION_TYPE_NONE, table);

  00294	8b 45 fc	 mov	 eax, DWORD PTR _table$[ebp]
  00297	50		 push	 eax
  00298	6a 00		 push	 0
  0029a	68 ff ff ff 7f	 push	 2147483647		; 7fffffffH
  0029f	6a 00		 push	 0
  002a1	8b 4d f8	 mov	 ecx, DWORD PTR _kill_code$[ebp]
  002a4	51		 push	 ecx
  002a5	6a 00		 push	 0
  002a7	e8 00 00 00 00	 call	 ?add_explosion_criteria@@YGXHW4WEAPON_KILL_CODES@@HHW4META_EXPLOSION_TYPES@@PAUWEAPON_EXPLOSION_CRITERIA@@@Z ; add_explosion_criteria

; 463  : }

  002ac	5f		 pop	 edi
  002ad	5e		 pop	 esi
  002ae	5b		 pop	 ebx
  002af	8b e5		 mov	 esp, ebp
  002b1	5d		 pop	 ebp
  002b2	c3		 ret	 0
?initialise_armour_piercing_explosion_criteria_table@@YGXXZ ENDP ; initialise_armour_piercing_explosion_criteria_table
_TEXT	ENDS
; Function compile flags: /Odtp /ZI
; File c:\users\nhv90\projects\eech\aphavoc\source\entity\special\effect\explosn\xp_wpn.c
;	COMDAT ?initialise_high_explosive_explosion_criteria_table@@YGXXZ
_TEXT	SEGMENT
_count$ = -12						; size = 4
_kill_code$ = -8					; size = 4
_table$ = -4						; size = 4
?initialise_high_explosive_explosion_criteria_table@@YGXXZ PROC ; initialise_high_explosive_explosion_criteria_table, COMDAT

; 234  : {

  00000	55		 push	 ebp
  00001	8b ec		 mov	 ebp, esp
  00003	83 ec 4c	 sub	 esp, 76			; 0000004cH
  00006	53		 push	 ebx
  00007	56		 push	 esi
  00008	57		 push	 edi

; 235  : 	weapon_explosion_criteria
; 236  : 		*table;
; 237  : 
; 238  : 	weapon_kill_codes
; 239  : 		kill_code;
; 240  : 
; 241  : 	int
; 242  : 		count;
; 243  : 
; 244  : 	table = &high_explosive_explosion_criteria_table;

  00009	c7 45 fc 00 00
	00 00		 mov	 DWORD PTR _table$[ebp], OFFSET ?high_explosive_explosion_criteria_table@@3UWEAPON_EXPLOSION_CRITERIA@@A

; 245  : 
; 246  : 	////////////////////////////////////////
; 247  : 
; 248  : 	kill_code =  WEAPON_KILL_CODE_OK;

  00010	c7 45 f8 00 00
	00 00		 mov	 DWORD PTR _kill_code$[ebp], 0

; 249  : 
; 250  : 	table->kill_code_criteria_count [kill_code] = 0;

  00017	8b 45 f8	 mov	 eax, DWORD PTR _kill_code$[ebp]
  0001a	8b 4d fc	 mov	 ecx, DWORD PTR _table$[ebp]
  0001d	c7 04 81 00 00
	00 00		 mov	 DWORD PTR [ecx+eax*4], 0

; 251  : 
; 252  : 	table->kill_code_criteria [kill_code] = NULL;

  00024	8b 45 f8	 mov	 eax, DWORD PTR _kill_code$[ebp]
  00027	8b 4d fc	 mov	 ecx, DWORD PTR _table$[ebp]
  0002a	c7 44 81 20 00
	00 00 00	 mov	 DWORD PTR [ecx+eax*4+32], 0

; 253  : 
; 254  : 	////////////////////////////////////////
; 255  : 
; 256  : 	kill_code = WEAPON_KILL_CODE_EXHAUSTED;

  00032	c7 45 f8 01 00
	00 00		 mov	 DWORD PTR _kill_code$[ebp], 1

; 257  : 
; 258  : 	count = 1;

  00039	c7 45 f4 01 00
	00 00		 mov	 DWORD PTR _count$[ebp], 1

; 259  : 
; 260  : 	table->kill_code_criteria_count [kill_code] = count;

  00040	8b 45 f8	 mov	 eax, DWORD PTR _kill_code$[ebp]
  00043	8b 4d fc	 mov	 ecx, DWORD PTR _table$[ebp]
  00046	8b 55 f4	 mov	 edx, DWORD PTR _count$[ebp]
  00049	89 14 81	 mov	 DWORD PTR [ecx+eax*4], edx

; 261  : 
; 262  : 	table->kill_code_criteria [kill_code] = (weapon_explosion_kill_code_criteria *) malloc_heap_mem (sizeof (weapon_explosion_kill_code_criteria) * count);

  0004c	6b 45 f4 0c	 imul	 eax, DWORD PTR _count$[ebp], 12
  00050	50		 push	 eax
  00051	e8 00 00 00 00	 call	 ?malloc_heap_memory@@YGPAXI@Z ; malloc_heap_memory
  00056	8b 4d f8	 mov	 ecx, DWORD PTR _kill_code$[ebp]
  00059	8b 55 fc	 mov	 edx, DWORD PTR _table$[ebp]
  0005c	89 44 8a 20	 mov	 DWORD PTR [edx+ecx*4+32], eax

; 263  : 
; 264  : 	add_explosion_criteria (0, kill_code, 0, INT_MAX, META_EXPLOSION_TYPE_NONE, table);

  00060	8b 45 fc	 mov	 eax, DWORD PTR _table$[ebp]
  00063	50		 push	 eax
  00064	6a 00		 push	 0
  00066	68 ff ff ff 7f	 push	 2147483647		; 7fffffffH
  0006b	6a 00		 push	 0
  0006d	8b 4d f8	 mov	 ecx, DWORD PTR _kill_code$[ebp]
  00070	51		 push	 ecx
  00071	6a 00		 push	 0
  00073	e8 00 00 00 00	 call	 ?add_explosion_criteria@@YGXHW4WEAPON_KILL_CODES@@HHW4META_EXPLOSION_TYPES@@PAUWEAPON_EXPLOSION_CRITERIA@@@Z ; add_explosion_criteria

; 265  : 
; 266  : 	////////////////////////////////////////
; 267  : 
; 268  : 	kill_code = WEAPON_KILL_CODE_OUT_OF_BOUNDS;

  00078	c7 45 f8 02 00
	00 00		 mov	 DWORD PTR _kill_code$[ebp], 2

; 269  : 
; 270  : 	count = 1;

  0007f	c7 45 f4 01 00
	00 00		 mov	 DWORD PTR _count$[ebp], 1

; 271  : 
; 272  : 	table->kill_code_criteria_count [kill_code] = count;

  00086	8b 45 f8	 mov	 eax, DWORD PTR _kill_code$[ebp]
  00089	8b 4d fc	 mov	 ecx, DWORD PTR _table$[ebp]
  0008c	8b 55 f4	 mov	 edx, DWORD PTR _count$[ebp]
  0008f	89 14 81	 mov	 DWORD PTR [ecx+eax*4], edx

; 273  : 
; 274  : 	table->kill_code_criteria [kill_code] = (weapon_explosion_kill_code_criteria *) malloc_heap_mem (sizeof (weapon_explosion_kill_code_criteria) * count);

  00092	6b 45 f4 0c	 imul	 eax, DWORD PTR _count$[ebp], 12
  00096	50		 push	 eax
  00097	e8 00 00 00 00	 call	 ?malloc_heap_memory@@YGPAXI@Z ; malloc_heap_memory
  0009c	8b 4d f8	 mov	 ecx, DWORD PTR _kill_code$[ebp]
  0009f	8b 55 fc	 mov	 edx, DWORD PTR _table$[ebp]
  000a2	89 44 8a 20	 mov	 DWORD PTR [edx+ecx*4+32], eax

; 275  : 
; 276  : 	add_explosion_criteria (0, kill_code, 0, INT_MAX, META_EXPLOSION_TYPE_NONE, table);

  000a6	8b 45 fc	 mov	 eax, DWORD PTR _table$[ebp]
  000a9	50		 push	 eax
  000aa	6a 00		 push	 0
  000ac	68 ff ff ff 7f	 push	 2147483647		; 7fffffffH
  000b1	6a 00		 push	 0
  000b3	8b 4d f8	 mov	 ecx, DWORD PTR _kill_code$[ebp]
  000b6	51		 push	 ecx
  000b7	6a 00		 push	 0
  000b9	e8 00 00 00 00	 call	 ?add_explosion_criteria@@YGXHW4WEAPON_KILL_CODES@@HHW4META_EXPLOSION_TYPES@@PAUWEAPON_EXPLOSION_CRITERIA@@@Z ; add_explosion_criteria

; 277  : 
; 278  : 	////////////////////////////////////////
; 279  : 
; 280  : 	kill_code = WEAPON_KILL_CODE_HIT_LAND;

  000be	c7 45 f8 03 00
	00 00		 mov	 DWORD PTR _kill_code$[ebp], 3

; 281  : 
; 282  : 	count = 3;

  000c5	c7 45 f4 03 00
	00 00		 mov	 DWORD PTR _count$[ebp], 3

; 283  : 
; 284  : 	table->kill_code_criteria_count [kill_code] = count;

  000cc	8b 45 f8	 mov	 eax, DWORD PTR _kill_code$[ebp]
  000cf	8b 4d fc	 mov	 ecx, DWORD PTR _table$[ebp]
  000d2	8b 55 f4	 mov	 edx, DWORD PTR _count$[ebp]
  000d5	89 14 81	 mov	 DWORD PTR [ecx+eax*4], edx

; 285  : 
; 286  : 	table->kill_code_criteria [kill_code] = (weapon_explosion_kill_code_criteria *) malloc_heap_mem (sizeof (weapon_explosion_kill_code_criteria) * count);

  000d8	6b 45 f4 0c	 imul	 eax, DWORD PTR _count$[ebp], 12
  000dc	50		 push	 eax
  000dd	e8 00 00 00 00	 call	 ?malloc_heap_memory@@YGPAXI@Z ; malloc_heap_memory
  000e2	8b 4d f8	 mov	 ecx, DWORD PTR _kill_code$[ebp]
  000e5	8b 55 fc	 mov	 edx, DWORD PTR _table$[ebp]
  000e8	89 44 8a 20	 mov	 DWORD PTR [edx+ecx*4+32], eax

; 287  : 
; 288  : 	add_explosion_criteria (0, kill_code, 0, 99, SMALL_HE_META_EXPLOSION, table);

  000ec	8b 45 fc	 mov	 eax, DWORD PTR _table$[ebp]
  000ef	50		 push	 eax
  000f0	6a 06		 push	 6
  000f2	6a 63		 push	 99			; 00000063H
  000f4	6a 00		 push	 0
  000f6	8b 4d f8	 mov	 ecx, DWORD PTR _kill_code$[ebp]
  000f9	51		 push	 ecx
  000fa	6a 00		 push	 0
  000fc	e8 00 00 00 00	 call	 ?add_explosion_criteria@@YGXHW4WEAPON_KILL_CODES@@HHW4META_EXPLOSION_TYPES@@PAUWEAPON_EXPLOSION_CRITERIA@@@Z ; add_explosion_criteria

; 289  : 	add_explosion_criteria (1, kill_code, 100, 999, MEDIUM_HE_META_EXPLOSION, table);

  00101	8b 45 fc	 mov	 eax, DWORD PTR _table$[ebp]
  00104	50		 push	 eax
  00105	6a 07		 push	 7
  00107	68 e7 03 00 00	 push	 999			; 000003e7H
  0010c	6a 64		 push	 100			; 00000064H
  0010e	8b 4d f8	 mov	 ecx, DWORD PTR _kill_code$[ebp]
  00111	51		 push	 ecx
  00112	6a 01		 push	 1
  00114	e8 00 00 00 00	 call	 ?add_explosion_criteria@@YGXHW4WEAPON_KILL_CODES@@HHW4META_EXPLOSION_TYPES@@PAUWEAPON_EXPLOSION_CRITERIA@@@Z ; add_explosion_criteria

; 290  : 	add_explosion_criteria (2, kill_code, 1000, INT_MAX, LARGE_HE_META_EXPLOSION, table);

  00119	8b 45 fc	 mov	 eax, DWORD PTR _table$[ebp]
  0011c	50		 push	 eax
  0011d	6a 08		 push	 8
  0011f	68 ff ff ff 7f	 push	 2147483647		; 7fffffffH
  00124	68 e8 03 00 00	 push	 1000			; 000003e8H
  00129	8b 4d f8	 mov	 ecx, DWORD PTR _kill_code$[ebp]
  0012c	51		 push	 ecx
  0012d	6a 02		 push	 2
  0012f	e8 00 00 00 00	 call	 ?add_explosion_criteria@@YGXHW4WEAPON_KILL_CODES@@HHW4META_EXPLOSION_TYPES@@PAUWEAPON_EXPLOSION_CRITERIA@@@Z ; add_explosion_criteria

; 291  : 
; 292  : 	////////////////////////////////////////
; 293  : 
; 294  : 	kill_code = WEAPON_KILL_CODE_HIT_WATER;

  00134	c7 45 f8 04 00
	00 00		 mov	 DWORD PTR _kill_code$[ebp], 4

; 295  : 
; 296  : 	count = 3;

  0013b	c7 45 f4 03 00
	00 00		 mov	 DWORD PTR _count$[ebp], 3

; 297  : 
; 298  : 	table->kill_code_criteria_count [kill_code] = count;

  00142	8b 45 f8	 mov	 eax, DWORD PTR _kill_code$[ebp]
  00145	8b 4d fc	 mov	 ecx, DWORD PTR _table$[ebp]
  00148	8b 55 f4	 mov	 edx, DWORD PTR _count$[ebp]
  0014b	89 14 81	 mov	 DWORD PTR [ecx+eax*4], edx

; 299  : 
; 300  : 	table->kill_code_criteria [kill_code] = (weapon_explosion_kill_code_criteria *) malloc_heap_mem (sizeof (weapon_explosion_kill_code_criteria) * count);

  0014e	6b 45 f4 0c	 imul	 eax, DWORD PTR _count$[ebp], 12
  00152	50		 push	 eax
  00153	e8 00 00 00 00	 call	 ?malloc_heap_memory@@YGPAXI@Z ; malloc_heap_memory
  00158	8b 4d f8	 mov	 ecx, DWORD PTR _kill_code$[ebp]
  0015b	8b 55 fc	 mov	 edx, DWORD PTR _table$[ebp]
  0015e	89 44 8a 20	 mov	 DWORD PTR [edx+ecx*4+32], eax

; 301  : 
; 302  : 	add_explosion_criteria (0, kill_code, 0, 99, SMALL_WATER_META_EXPLOSION, table);

  00162	8b 45 fc	 mov	 eax, DWORD PTR _table$[ebp]
  00165	50		 push	 eax
  00166	6a 12		 push	 18			; 00000012H
  00168	6a 63		 push	 99			; 00000063H
  0016a	6a 00		 push	 0
  0016c	8b 4d f8	 mov	 ecx, DWORD PTR _kill_code$[ebp]
  0016f	51		 push	 ecx
  00170	6a 00		 push	 0
  00172	e8 00 00 00 00	 call	 ?add_explosion_criteria@@YGXHW4WEAPON_KILL_CODES@@HHW4META_EXPLOSION_TYPES@@PAUWEAPON_EXPLOSION_CRITERIA@@@Z ; add_explosion_criteria

; 303  : 	add_explosion_criteria (1, kill_code, 100, 999, MEDIUM_WATER_META_EXPLOSION, table);

  00177	8b 45 fc	 mov	 eax, DWORD PTR _table$[ebp]
  0017a	50		 push	 eax
  0017b	6a 13		 push	 19			; 00000013H
  0017d	68 e7 03 00 00	 push	 999			; 000003e7H
  00182	6a 64		 push	 100			; 00000064H
  00184	8b 4d f8	 mov	 ecx, DWORD PTR _kill_code$[ebp]
  00187	51		 push	 ecx
  00188	6a 01		 push	 1
  0018a	e8 00 00 00 00	 call	 ?add_explosion_criteria@@YGXHW4WEAPON_KILL_CODES@@HHW4META_EXPLOSION_TYPES@@PAUWEAPON_EXPLOSION_CRITERIA@@@Z ; add_explosion_criteria

; 304  : 	add_explosion_criteria (2, kill_code, 1000, INT_MAX, LARGE_WATER_META_EXPLOSION, table);

  0018f	8b 45 fc	 mov	 eax, DWORD PTR _table$[ebp]
  00192	50		 push	 eax
  00193	6a 14		 push	 20			; 00000014H
  00195	68 ff ff ff 7f	 push	 2147483647		; 7fffffffH
  0019a	68 e8 03 00 00	 push	 1000			; 000003e8H
  0019f	8b 4d f8	 mov	 ecx, DWORD PTR _kill_code$[ebp]
  001a2	51		 push	 ecx
  001a3	6a 02		 push	 2
  001a5	e8 00 00 00 00	 call	 ?add_explosion_criteria@@YGXHW4WEAPON_KILL_CODES@@HHW4META_EXPLOSION_TYPES@@PAUWEAPON_EXPLOSION_CRITERIA@@@Z ; add_explosion_criteria

; 305  : 
; 306  : 	////////////////////////////////////////
; 307  : 
; 308  : 	kill_code = WEAPON_KILL_CODE_HIT_TARGET;

  001aa	c7 45 f8 05 00
	00 00		 mov	 DWORD PTR _kill_code$[ebp], 5

; 309  : 
; 310  : 	count = 3;

  001b1	c7 45 f4 03 00
	00 00		 mov	 DWORD PTR _count$[ebp], 3

; 311  : 
; 312  : 	table->kill_code_criteria_count [kill_code] = count;

  001b8	8b 45 f8	 mov	 eax, DWORD PTR _kill_code$[ebp]
  001bb	8b 4d fc	 mov	 ecx, DWORD PTR _table$[ebp]
  001be	8b 55 f4	 mov	 edx, DWORD PTR _count$[ebp]
  001c1	89 14 81	 mov	 DWORD PTR [ecx+eax*4], edx

; 313  : 
; 314  : 	table->kill_code_criteria [kill_code] = (weapon_explosion_kill_code_criteria *) malloc_heap_mem (sizeof (weapon_explosion_kill_code_criteria) * count);

  001c4	6b 45 f4 0c	 imul	 eax, DWORD PTR _count$[ebp], 12
  001c8	50		 push	 eax
  001c9	e8 00 00 00 00	 call	 ?malloc_heap_memory@@YGPAXI@Z ; malloc_heap_memory
  001ce	8b 4d f8	 mov	 ecx, DWORD PTR _kill_code$[ebp]
  001d1	8b 55 fc	 mov	 edx, DWORD PTR _table$[ebp]
  001d4	89 44 8a 20	 mov	 DWORD PTR [edx+ecx*4+32], eax

; 315  : 
; 316  : 	add_explosion_criteria (0, kill_code, 0, 99, SMALL_AP_META_EXPLOSION, table);

  001d8	8b 45 fc	 mov	 eax, DWORD PTR _table$[ebp]
  001db	50		 push	 eax
  001dc	6a 03		 push	 3
  001de	6a 63		 push	 99			; 00000063H
  001e0	6a 00		 push	 0
  001e2	8b 4d f8	 mov	 ecx, DWORD PTR _kill_code$[ebp]
  001e5	51		 push	 ecx
  001e6	6a 00		 push	 0
  001e8	e8 00 00 00 00	 call	 ?add_explosion_criteria@@YGXHW4WEAPON_KILL_CODES@@HHW4META_EXPLOSION_TYPES@@PAUWEAPON_EXPLOSION_CRITERIA@@@Z ; add_explosion_criteria

; 317  : 	add_explosion_criteria (1, kill_code, 100, 999, MEDIUM_HE_META_EXPLOSION, table);

  001ed	8b 45 fc	 mov	 eax, DWORD PTR _table$[ebp]
  001f0	50		 push	 eax
  001f1	6a 07		 push	 7
  001f3	68 e7 03 00 00	 push	 999			; 000003e7H
  001f8	6a 64		 push	 100			; 00000064H
  001fa	8b 4d f8	 mov	 ecx, DWORD PTR _kill_code$[ebp]
  001fd	51		 push	 ecx
  001fe	6a 01		 push	 1
  00200	e8 00 00 00 00	 call	 ?add_explosion_criteria@@YGXHW4WEAPON_KILL_CODES@@HHW4META_EXPLOSION_TYPES@@PAUWEAPON_EXPLOSION_CRITERIA@@@Z ; add_explosion_criteria

; 318  : 	add_explosion_criteria (2, kill_code, 1000, INT_MAX, LARGE_HE_META_EXPLOSION, table);

  00205	8b 45 fc	 mov	 eax, DWORD PTR _table$[ebp]
  00208	50		 push	 eax
  00209	6a 08		 push	 8
  0020b	68 ff ff ff 7f	 push	 2147483647		; 7fffffffH
  00210	68 e8 03 00 00	 push	 1000			; 000003e8H
  00215	8b 4d f8	 mov	 ecx, DWORD PTR _kill_code$[ebp]
  00218	51		 push	 ecx
  00219	6a 02		 push	 2
  0021b	e8 00 00 00 00	 call	 ?add_explosion_criteria@@YGXHW4WEAPON_KILL_CODES@@HHW4META_EXPLOSION_TYPES@@PAUWEAPON_EXPLOSION_CRITERIA@@@Z ; add_explosion_criteria

; 319  : 
; 320  : 	////////////////////////////////////////
; 321  : 
; 322  : 	kill_code = WEAPON_KILL_CODE_OVERSHOT_TARGET;

  00220	c7 45 f8 06 00
	00 00		 mov	 DWORD PTR _kill_code$[ebp], 6

; 323  : 
; 324  : 	count = 3;

  00227	c7 45 f4 03 00
	00 00		 mov	 DWORD PTR _count$[ebp], 3

; 325  : 
; 326  : 	table->kill_code_criteria_count [kill_code] = count;

  0022e	8b 45 f8	 mov	 eax, DWORD PTR _kill_code$[ebp]
  00231	8b 4d fc	 mov	 ecx, DWORD PTR _table$[ebp]
  00234	8b 55 f4	 mov	 edx, DWORD PTR _count$[ebp]
  00237	89 14 81	 mov	 DWORD PTR [ecx+eax*4], edx

; 327  : 
; 328  : 	table->kill_code_criteria [kill_code] = (weapon_explosion_kill_code_criteria *) malloc_heap_mem (sizeof (weapon_explosion_kill_code_criteria) * count);

  0023a	6b 45 f4 0c	 imul	 eax, DWORD PTR _count$[ebp], 12
  0023e	50		 push	 eax
  0023f	e8 00 00 00 00	 call	 ?malloc_heap_memory@@YGPAXI@Z ; malloc_heap_memory
  00244	8b 4d f8	 mov	 ecx, DWORD PTR _kill_code$[ebp]
  00247	8b 55 fc	 mov	 edx, DWORD PTR _table$[ebp]
  0024a	89 44 8a 20	 mov	 DWORD PTR [edx+ecx*4+32], eax

; 329  : 
; 330  : 	add_explosion_criteria (0, kill_code, 0, 99, META_EXPLOSION_TYPE_NONE, table);

  0024e	8b 45 fc	 mov	 eax, DWORD PTR _table$[ebp]
  00251	50		 push	 eax
  00252	6a 00		 push	 0
  00254	6a 63		 push	 99			; 00000063H
  00256	6a 00		 push	 0
  00258	8b 4d f8	 mov	 ecx, DWORD PTR _kill_code$[ebp]
  0025b	51		 push	 ecx
  0025c	6a 00		 push	 0
  0025e	e8 00 00 00 00	 call	 ?add_explosion_criteria@@YGXHW4WEAPON_KILL_CODES@@HHW4META_EXPLOSION_TYPES@@PAUWEAPON_EXPLOSION_CRITERIA@@@Z ; add_explosion_criteria

; 331  : 	add_explosion_criteria (1, kill_code, 100, 999, MEDIUM_HE_META_EXPLOSION, table);

  00263	8b 45 fc	 mov	 eax, DWORD PTR _table$[ebp]
  00266	50		 push	 eax
  00267	6a 07		 push	 7
  00269	68 e7 03 00 00	 push	 999			; 000003e7H
  0026e	6a 64		 push	 100			; 00000064H
  00270	8b 4d f8	 mov	 ecx, DWORD PTR _kill_code$[ebp]
  00273	51		 push	 ecx
  00274	6a 01		 push	 1
  00276	e8 00 00 00 00	 call	 ?add_explosion_criteria@@YGXHW4WEAPON_KILL_CODES@@HHW4META_EXPLOSION_TYPES@@PAUWEAPON_EXPLOSION_CRITERIA@@@Z ; add_explosion_criteria

; 332  : 	add_explosion_criteria (2, kill_code, 1000, INT_MAX, LARGE_HE_META_EXPLOSION, table);

  0027b	8b 45 fc	 mov	 eax, DWORD PTR _table$[ebp]
  0027e	50		 push	 eax
  0027f	6a 08		 push	 8
  00281	68 ff ff ff 7f	 push	 2147483647		; 7fffffffH
  00286	68 e8 03 00 00	 push	 1000			; 000003e8H
  0028b	8b 4d f8	 mov	 ecx, DWORD PTR _kill_code$[ebp]
  0028e	51		 push	 ecx
  0028f	6a 02		 push	 2
  00291	e8 00 00 00 00	 call	 ?add_explosion_criteria@@YGXHW4WEAPON_KILL_CODES@@HHW4META_EXPLOSION_TYPES@@PAUWEAPON_EXPLOSION_CRITERIA@@@Z ; add_explosion_criteria

; 333  : 
; 334  : 	////////////////////////////////////////
; 335  : 
; 336  : 	kill_code = WEAPON_KILL_CODE_SELF_DESTRUCT;

  00296	c7 45 f8 07 00
	00 00		 mov	 DWORD PTR _kill_code$[ebp], 7

; 337  : 
; 338  : 	count = 3;

  0029d	c7 45 f4 03 00
	00 00		 mov	 DWORD PTR _count$[ebp], 3

; 339  : 
; 340  : 	table->kill_code_criteria_count [kill_code] = count;

  002a4	8b 45 f8	 mov	 eax, DWORD PTR _kill_code$[ebp]
  002a7	8b 4d fc	 mov	 ecx, DWORD PTR _table$[ebp]
  002aa	8b 55 f4	 mov	 edx, DWORD PTR _count$[ebp]
  002ad	89 14 81	 mov	 DWORD PTR [ecx+eax*4], edx

; 341  : 
; 342  : 	table->kill_code_criteria [kill_code] = (weapon_explosion_kill_code_criteria *) malloc_heap_mem (sizeof (weapon_explosion_kill_code_criteria) * count);

  002b0	6b 45 f4 0c	 imul	 eax, DWORD PTR _count$[ebp], 12
  002b4	50		 push	 eax
  002b5	e8 00 00 00 00	 call	 ?malloc_heap_memory@@YGPAXI@Z ; malloc_heap_memory
  002ba	8b 4d f8	 mov	 ecx, DWORD PTR _kill_code$[ebp]
  002bd	8b 55 fc	 mov	 edx, DWORD PTR _table$[ebp]
  002c0	89 44 8a 20	 mov	 DWORD PTR [edx+ecx*4+32], eax

; 343  : 
; 344  : 	add_explosion_criteria (0, kill_code, 0, 99, META_EXPLOSION_TYPE_NONE, table);

  002c4	8b 45 fc	 mov	 eax, DWORD PTR _table$[ebp]
  002c7	50		 push	 eax
  002c8	6a 00		 push	 0
  002ca	6a 63		 push	 99			; 00000063H
  002cc	6a 00		 push	 0
  002ce	8b 4d f8	 mov	 ecx, DWORD PTR _kill_code$[ebp]
  002d1	51		 push	 ecx
  002d2	6a 00		 push	 0
  002d4	e8 00 00 00 00	 call	 ?add_explosion_criteria@@YGXHW4WEAPON_KILL_CODES@@HHW4META_EXPLOSION_TYPES@@PAUWEAPON_EXPLOSION_CRITERIA@@@Z ; add_explosion_criteria

; 345  : 	add_explosion_criteria (1, kill_code, 100, 999, MEDIUM_HE_META_EXPLOSION, table);

  002d9	8b 45 fc	 mov	 eax, DWORD PTR _table$[ebp]
  002dc	50		 push	 eax
  002dd	6a 07		 push	 7
  002df	68 e7 03 00 00	 push	 999			; 000003e7H
  002e4	6a 64		 push	 100			; 00000064H
  002e6	8b 4d f8	 mov	 ecx, DWORD PTR _kill_code$[ebp]
  002e9	51		 push	 ecx
  002ea	6a 01		 push	 1
  002ec	e8 00 00 00 00	 call	 ?add_explosion_criteria@@YGXHW4WEAPON_KILL_CODES@@HHW4META_EXPLOSION_TYPES@@PAUWEAPON_EXPLOSION_CRITERIA@@@Z ; add_explosion_criteria

; 346  : 	add_explosion_criteria (2, kill_code, 1000, INT_MAX, LARGE_HE_META_EXPLOSION, table);

  002f1	8b 45 fc	 mov	 eax, DWORD PTR _table$[ebp]
  002f4	50		 push	 eax
  002f5	6a 08		 push	 8
  002f7	68 ff ff ff 7f	 push	 2147483647		; 7fffffffH
  002fc	68 e8 03 00 00	 push	 1000			; 000003e8H
  00301	8b 4d f8	 mov	 ecx, DWORD PTR _kill_code$[ebp]
  00304	51		 push	 ecx
  00305	6a 02		 push	 2
  00307	e8 00 00 00 00	 call	 ?add_explosion_criteria@@YGXHW4WEAPON_KILL_CODES@@HHW4META_EXPLOSION_TYPES@@PAUWEAPON_EXPLOSION_CRITERIA@@@Z ; add_explosion_criteria

; 347  : }

  0030c	5f		 pop	 edi
  0030d	5e		 pop	 esi
  0030e	5b		 pop	 ebx
  0030f	8b e5		 mov	 esp, ebp
  00311	5d		 pop	 ebp
  00312	c3		 ret	 0
?initialise_high_explosive_explosion_criteria_table@@YGXXZ ENDP ; initialise_high_explosive_explosion_criteria_table
_TEXT	ENDS
; Function compile flags: /Odtp /ZI
; File c:\users\nhv90\projects\eech\aphavoc\source\entity\special\effect\explosn\xp_wpn.c
;	COMDAT ?initialise_ball_explosion_criteria_table@@YGXXZ
_TEXT	SEGMENT
_count$ = -12						; size = 4
_kill_code$ = -8					; size = 4
_table$ = -4						; size = 4
?initialise_ball_explosion_criteria_table@@YGXXZ PROC	; initialise_ball_explosion_criteria_table, COMDAT

; 124  : {

  00000	55		 push	 ebp
  00001	8b ec		 mov	 ebp, esp
  00003	83 ec 4c	 sub	 esp, 76			; 0000004cH
  00006	53		 push	 ebx
  00007	56		 push	 esi
  00008	57		 push	 edi

; 125  : 	weapon_explosion_criteria
; 126  : 		*table;
; 127  : 
; 128  : 	weapon_kill_codes
; 129  : 		kill_code;
; 130  : 
; 131  : 	int
; 132  : 		count;
; 133  : 
; 134  : 	table = &ball_explosion_criteria_table;

  00009	c7 45 fc 00 00
	00 00		 mov	 DWORD PTR _table$[ebp], OFFSET ?ball_explosion_criteria_table@@3UWEAPON_EXPLOSION_CRITERIA@@A

; 135  : 
; 136  : 	////////////////////////////////////////
; 137  : 
; 138  : 	kill_code =  WEAPON_KILL_CODE_OK;

  00010	c7 45 f8 00 00
	00 00		 mov	 DWORD PTR _kill_code$[ebp], 0

; 139  : 
; 140  : 	table->kill_code_criteria_count [kill_code] = 0;

  00017	8b 45 f8	 mov	 eax, DWORD PTR _kill_code$[ebp]
  0001a	8b 4d fc	 mov	 ecx, DWORD PTR _table$[ebp]
  0001d	c7 04 81 00 00
	00 00		 mov	 DWORD PTR [ecx+eax*4], 0

; 141  : 
; 142  : 	table->kill_code_criteria [kill_code] = NULL;

  00024	8b 45 f8	 mov	 eax, DWORD PTR _kill_code$[ebp]
  00027	8b 4d fc	 mov	 ecx, DWORD PTR _table$[ebp]
  0002a	c7 44 81 20 00
	00 00 00	 mov	 DWORD PTR [ecx+eax*4+32], 0

; 143  : 
; 144  : 	////////////////////////////////////////
; 145  : 
; 146  : 	kill_code = WEAPON_KILL_CODE_EXHAUSTED;

  00032	c7 45 f8 01 00
	00 00		 mov	 DWORD PTR _kill_code$[ebp], 1

; 147  : 
; 148  : 	count = 1;

  00039	c7 45 f4 01 00
	00 00		 mov	 DWORD PTR _count$[ebp], 1

; 149  : 
; 150  : 	table->kill_code_criteria_count [kill_code] = count;

  00040	8b 45 f8	 mov	 eax, DWORD PTR _kill_code$[ebp]
  00043	8b 4d fc	 mov	 ecx, DWORD PTR _table$[ebp]
  00046	8b 55 f4	 mov	 edx, DWORD PTR _count$[ebp]
  00049	89 14 81	 mov	 DWORD PTR [ecx+eax*4], edx

; 151  : 
; 152  : 	table->kill_code_criteria [kill_code] = (weapon_explosion_kill_code_criteria *) malloc_heap_mem (sizeof (weapon_explosion_kill_code_criteria) * count);

  0004c	6b 45 f4 0c	 imul	 eax, DWORD PTR _count$[ebp], 12
  00050	50		 push	 eax
  00051	e8 00 00 00 00	 call	 ?malloc_heap_memory@@YGPAXI@Z ; malloc_heap_memory
  00056	8b 4d f8	 mov	 ecx, DWORD PTR _kill_code$[ebp]
  00059	8b 55 fc	 mov	 edx, DWORD PTR _table$[ebp]
  0005c	89 44 8a 20	 mov	 DWORD PTR [edx+ecx*4+32], eax

; 153  : 
; 154  : 	add_explosion_criteria (0, kill_code, 0, INT_MAX, META_EXPLOSION_TYPE_NONE, table);

  00060	8b 45 fc	 mov	 eax, DWORD PTR _table$[ebp]
  00063	50		 push	 eax
  00064	6a 00		 push	 0
  00066	68 ff ff ff 7f	 push	 2147483647		; 7fffffffH
  0006b	6a 00		 push	 0
  0006d	8b 4d f8	 mov	 ecx, DWORD PTR _kill_code$[ebp]
  00070	51		 push	 ecx
  00071	6a 00		 push	 0
  00073	e8 00 00 00 00	 call	 ?add_explosion_criteria@@YGXHW4WEAPON_KILL_CODES@@HHW4META_EXPLOSION_TYPES@@PAUWEAPON_EXPLOSION_CRITERIA@@@Z ; add_explosion_criteria

; 155  : 
; 156  : 	////////////////////////////////////////
; 157  : 
; 158  : 	kill_code = WEAPON_KILL_CODE_OUT_OF_BOUNDS;

  00078	c7 45 f8 02 00
	00 00		 mov	 DWORD PTR _kill_code$[ebp], 2

; 159  : 
; 160  : 	count = 1;

  0007f	c7 45 f4 01 00
	00 00		 mov	 DWORD PTR _count$[ebp], 1

; 161  : 
; 162  : 	table->kill_code_criteria_count [kill_code] = count;

  00086	8b 45 f8	 mov	 eax, DWORD PTR _kill_code$[ebp]
  00089	8b 4d fc	 mov	 ecx, DWORD PTR _table$[ebp]
  0008c	8b 55 f4	 mov	 edx, DWORD PTR _count$[ebp]
  0008f	89 14 81	 mov	 DWORD PTR [ecx+eax*4], edx

; 163  : 
; 164  : 	table->kill_code_criteria [kill_code] = (weapon_explosion_kill_code_criteria *) malloc_heap_mem (sizeof (weapon_explosion_kill_code_criteria) * count);

  00092	6b 45 f4 0c	 imul	 eax, DWORD PTR _count$[ebp], 12
  00096	50		 push	 eax
  00097	e8 00 00 00 00	 call	 ?malloc_heap_memory@@YGPAXI@Z ; malloc_heap_memory
  0009c	8b 4d f8	 mov	 ecx, DWORD PTR _kill_code$[ebp]
  0009f	8b 55 fc	 mov	 edx, DWORD PTR _table$[ebp]
  000a2	89 44 8a 20	 mov	 DWORD PTR [edx+ecx*4+32], eax

; 165  : 
; 166  : 	add_explosion_criteria (0, kill_code, 0, INT_MAX, META_EXPLOSION_TYPE_NONE, table);

  000a6	8b 45 fc	 mov	 eax, DWORD PTR _table$[ebp]
  000a9	50		 push	 eax
  000aa	6a 00		 push	 0
  000ac	68 ff ff ff 7f	 push	 2147483647		; 7fffffffH
  000b1	6a 00		 push	 0
  000b3	8b 4d f8	 mov	 ecx, DWORD PTR _kill_code$[ebp]
  000b6	51		 push	 ecx
  000b7	6a 00		 push	 0
  000b9	e8 00 00 00 00	 call	 ?add_explosion_criteria@@YGXHW4WEAPON_KILL_CODES@@HHW4META_EXPLOSION_TYPES@@PAUWEAPON_EXPLOSION_CRITERIA@@@Z ; add_explosion_criteria

; 167  : 
; 168  : 	////////////////////////////////////////
; 169  : 
; 170  : 	kill_code = WEAPON_KILL_CODE_HIT_LAND;

  000be	c7 45 f8 03 00
	00 00		 mov	 DWORD PTR _kill_code$[ebp], 3

; 171  : 
; 172  : 	count = 1;

  000c5	c7 45 f4 01 00
	00 00		 mov	 DWORD PTR _count$[ebp], 1

; 173  : 
; 174  : 	table->kill_code_criteria_count [kill_code] = count;

  000cc	8b 45 f8	 mov	 eax, DWORD PTR _kill_code$[ebp]
  000cf	8b 4d fc	 mov	 ecx, DWORD PTR _table$[ebp]
  000d2	8b 55 f4	 mov	 edx, DWORD PTR _count$[ebp]
  000d5	89 14 81	 mov	 DWORD PTR [ecx+eax*4], edx

; 175  : 
; 176  : 	table->kill_code_criteria [kill_code] = (weapon_explosion_kill_code_criteria *) malloc_heap_mem (sizeof (weapon_explosion_kill_code_criteria) * count);

  000d8	6b 45 f4 0c	 imul	 eax, DWORD PTR _count$[ebp], 12
  000dc	50		 push	 eax
  000dd	e8 00 00 00 00	 call	 ?malloc_heap_memory@@YGPAXI@Z ; malloc_heap_memory
  000e2	8b 4d f8	 mov	 ecx, DWORD PTR _kill_code$[ebp]
  000e5	8b 55 fc	 mov	 edx, DWORD PTR _table$[ebp]
  000e8	89 44 8a 20	 mov	 DWORD PTR [edx+ecx*4+32], eax

; 177  : 
; 178  : 	add_explosion_criteria (0, kill_code, 0, INT_MAX, SMALL_EARTH_META_EXPLOSION, table);

  000ec	8b 45 fc	 mov	 eax, DWORD PTR _table$[ebp]
  000ef	50		 push	 eax
  000f0	6a 0f		 push	 15			; 0000000fH
  000f2	68 ff ff ff 7f	 push	 2147483647		; 7fffffffH
  000f7	6a 00		 push	 0
  000f9	8b 4d f8	 mov	 ecx, DWORD PTR _kill_code$[ebp]
  000fc	51		 push	 ecx
  000fd	6a 00		 push	 0
  000ff	e8 00 00 00 00	 call	 ?add_explosion_criteria@@YGXHW4WEAPON_KILL_CODES@@HHW4META_EXPLOSION_TYPES@@PAUWEAPON_EXPLOSION_CRITERIA@@@Z ; add_explosion_criteria

; 179  : 
; 180  : 	////////////////////////////////////////
; 181  : 
; 182  : 	kill_code = WEAPON_KILL_CODE_HIT_WATER;

  00104	c7 45 f8 04 00
	00 00		 mov	 DWORD PTR _kill_code$[ebp], 4

; 183  : 
; 184  : 	count = 1;

  0010b	c7 45 f4 01 00
	00 00		 mov	 DWORD PTR _count$[ebp], 1

; 185  : 
; 186  : 	table->kill_code_criteria_count [kill_code] = count;

  00112	8b 45 f8	 mov	 eax, DWORD PTR _kill_code$[ebp]
  00115	8b 4d fc	 mov	 ecx, DWORD PTR _table$[ebp]
  00118	8b 55 f4	 mov	 edx, DWORD PTR _count$[ebp]
  0011b	89 14 81	 mov	 DWORD PTR [ecx+eax*4], edx

; 187  : 
; 188  : 	table->kill_code_criteria [kill_code] = (weapon_explosion_kill_code_criteria *) malloc_heap_mem (sizeof (weapon_explosion_kill_code_criteria) * count);

  0011e	6b 45 f4 0c	 imul	 eax, DWORD PTR _count$[ebp], 12
  00122	50		 push	 eax
  00123	e8 00 00 00 00	 call	 ?malloc_heap_memory@@YGPAXI@Z ; malloc_heap_memory
  00128	8b 4d f8	 mov	 ecx, DWORD PTR _kill_code$[ebp]
  0012b	8b 55 fc	 mov	 edx, DWORD PTR _table$[ebp]
  0012e	89 44 8a 20	 mov	 DWORD PTR [edx+ecx*4+32], eax

; 189  : 
; 190  : 	add_explosion_criteria (0, kill_code, 0, INT_MAX, SMALL_WATER_META_EXPLOSION, table);

  00132	8b 45 fc	 mov	 eax, DWORD PTR _table$[ebp]
  00135	50		 push	 eax
  00136	6a 12		 push	 18			; 00000012H
  00138	68 ff ff ff 7f	 push	 2147483647		; 7fffffffH
  0013d	6a 00		 push	 0
  0013f	8b 4d f8	 mov	 ecx, DWORD PTR _kill_code$[ebp]
  00142	51		 push	 ecx
  00143	6a 00		 push	 0
  00145	e8 00 00 00 00	 call	 ?add_explosion_criteria@@YGXHW4WEAPON_KILL_CODES@@HHW4META_EXPLOSION_TYPES@@PAUWEAPON_EXPLOSION_CRITERIA@@@Z ; add_explosion_criteria

; 191  : 
; 192  : 	////////////////////////////////////////
; 193  : 
; 194  : 	kill_code = WEAPON_KILL_CODE_HIT_TARGET;

  0014a	c7 45 f8 05 00
	00 00		 mov	 DWORD PTR _kill_code$[ebp], 5

; 195  : 
; 196  : 	count = 1;

  00151	c7 45 f4 01 00
	00 00		 mov	 DWORD PTR _count$[ebp], 1

; 197  : 
; 198  : 	table->kill_code_criteria_count [kill_code] = count;

  00158	8b 45 f8	 mov	 eax, DWORD PTR _kill_code$[ebp]
  0015b	8b 4d fc	 mov	 ecx, DWORD PTR _table$[ebp]
  0015e	8b 55 f4	 mov	 edx, DWORD PTR _count$[ebp]
  00161	89 14 81	 mov	 DWORD PTR [ecx+eax*4], edx

; 199  : 
; 200  : 	table->kill_code_criteria [kill_code] = (weapon_explosion_kill_code_criteria *) malloc_heap_mem (sizeof (weapon_explosion_kill_code_criteria) * count);

  00164	6b 45 f4 0c	 imul	 eax, DWORD PTR _count$[ebp], 12
  00168	50		 push	 eax
  00169	e8 00 00 00 00	 call	 ?malloc_heap_memory@@YGPAXI@Z ; malloc_heap_memory
  0016e	8b 4d f8	 mov	 ecx, DWORD PTR _kill_code$[ebp]
  00171	8b 55 fc	 mov	 edx, DWORD PTR _table$[ebp]
  00174	89 44 8a 20	 mov	 DWORD PTR [edx+ecx*4+32], eax

; 201  : 
; 202  : 	add_explosion_criteria (0, kill_code, 0, INT_MAX, SMALL_AP_META_EXPLOSION, table);

  00178	8b 45 fc	 mov	 eax, DWORD PTR _table$[ebp]
  0017b	50		 push	 eax
  0017c	6a 03		 push	 3
  0017e	68 ff ff ff 7f	 push	 2147483647		; 7fffffffH
  00183	6a 00		 push	 0
  00185	8b 4d f8	 mov	 ecx, DWORD PTR _kill_code$[ebp]
  00188	51		 push	 ecx
  00189	6a 00		 push	 0
  0018b	e8 00 00 00 00	 call	 ?add_explosion_criteria@@YGXHW4WEAPON_KILL_CODES@@HHW4META_EXPLOSION_TYPES@@PAUWEAPON_EXPLOSION_CRITERIA@@@Z ; add_explosion_criteria

; 203  : 
; 204  : 	////////////////////////////////////////
; 205  : 
; 206  : 	kill_code = WEAPON_KILL_CODE_OVERSHOT_TARGET;

  00190	c7 45 f8 06 00
	00 00		 mov	 DWORD PTR _kill_code$[ebp], 6

; 207  : 
; 208  : 	count = 1;

  00197	c7 45 f4 01 00
	00 00		 mov	 DWORD PTR _count$[ebp], 1

; 209  : 
; 210  : 	table->kill_code_criteria_count [kill_code] = count;

  0019e	8b 45 f8	 mov	 eax, DWORD PTR _kill_code$[ebp]
  001a1	8b 4d fc	 mov	 ecx, DWORD PTR _table$[ebp]
  001a4	8b 55 f4	 mov	 edx, DWORD PTR _count$[ebp]
  001a7	89 14 81	 mov	 DWORD PTR [ecx+eax*4], edx

; 211  : 
; 212  : 	table->kill_code_criteria [kill_code] = (weapon_explosion_kill_code_criteria *) malloc_heap_mem (sizeof (weapon_explosion_kill_code_criteria) * count);

  001aa	6b 45 f4 0c	 imul	 eax, DWORD PTR _count$[ebp], 12
  001ae	50		 push	 eax
  001af	e8 00 00 00 00	 call	 ?malloc_heap_memory@@YGPAXI@Z ; malloc_heap_memory
  001b4	8b 4d f8	 mov	 ecx, DWORD PTR _kill_code$[ebp]
  001b7	8b 55 fc	 mov	 edx, DWORD PTR _table$[ebp]
  001ba	89 44 8a 20	 mov	 DWORD PTR [edx+ecx*4+32], eax

; 213  : 
; 214  : 	add_explosion_criteria (0, kill_code, 0, INT_MAX, META_EXPLOSION_TYPE_NONE, table);

  001be	8b 45 fc	 mov	 eax, DWORD PTR _table$[ebp]
  001c1	50		 push	 eax
  001c2	6a 00		 push	 0
  001c4	68 ff ff ff 7f	 push	 2147483647		; 7fffffffH
  001c9	6a 00		 push	 0
  001cb	8b 4d f8	 mov	 ecx, DWORD PTR _kill_code$[ebp]
  001ce	51		 push	 ecx
  001cf	6a 00		 push	 0
  001d1	e8 00 00 00 00	 call	 ?add_explosion_criteria@@YGXHW4WEAPON_KILL_CODES@@HHW4META_EXPLOSION_TYPES@@PAUWEAPON_EXPLOSION_CRITERIA@@@Z ; add_explosion_criteria

; 215  : 
; 216  : 	////////////////////////////////////////
; 217  : 
; 218  : 	kill_code = WEAPON_KILL_CODE_SELF_DESTRUCT;

  001d6	c7 45 f8 07 00
	00 00		 mov	 DWORD PTR _kill_code$[ebp], 7

; 219  : 
; 220  : 	count = 1;

  001dd	c7 45 f4 01 00
	00 00		 mov	 DWORD PTR _count$[ebp], 1

; 221  : 
; 222  : 	table->kill_code_criteria_count [kill_code] = count;

  001e4	8b 45 f8	 mov	 eax, DWORD PTR _kill_code$[ebp]
  001e7	8b 4d fc	 mov	 ecx, DWORD PTR _table$[ebp]
  001ea	8b 55 f4	 mov	 edx, DWORD PTR _count$[ebp]
  001ed	89 14 81	 mov	 DWORD PTR [ecx+eax*4], edx

; 223  : 
; 224  : 	table->kill_code_criteria [kill_code] = (weapon_explosion_kill_code_criteria *) malloc_heap_mem (sizeof (weapon_explosion_kill_code_criteria) * count);

  001f0	6b 45 f4 0c	 imul	 eax, DWORD PTR _count$[ebp], 12
  001f4	50		 push	 eax
  001f5	e8 00 00 00 00	 call	 ?malloc_heap_memory@@YGPAXI@Z ; malloc_heap_memory
  001fa	8b 4d f8	 mov	 ecx, DWORD PTR _kill_code$[ebp]
  001fd	8b 55 fc	 mov	 edx, DWORD PTR _table$[ebp]
  00200	89 44 8a 20	 mov	 DWORD PTR [edx+ecx*4+32], eax

; 225  : 
; 226  : 	add_explosion_criteria (0, kill_code, 0, INT_MAX, META_EXPLOSION_TYPE_NONE, table);

  00204	8b 45 fc	 mov	 eax, DWORD PTR _table$[ebp]
  00207	50		 push	 eax
  00208	6a 00		 push	 0
  0020a	68 ff ff ff 7f	 push	 2147483647		; 7fffffffH
  0020f	6a 00		 push	 0
  00211	8b 4d f8	 mov	 ecx, DWORD PTR _kill_code$[ebp]
  00214	51		 push	 ecx
  00215	6a 00		 push	 0
  00217	e8 00 00 00 00	 call	 ?add_explosion_criteria@@YGXHW4WEAPON_KILL_CODES@@HHW4META_EXPLOSION_TYPES@@PAUWEAPON_EXPLOSION_CRITERIA@@@Z ; add_explosion_criteria

; 227  : }

  0021c	5f		 pop	 edi
  0021d	5e		 pop	 esi
  0021e	5b		 pop	 ebx
  0021f	8b e5		 mov	 esp, ebp
  00221	5d		 pop	 ebp
  00222	c3		 ret	 0
?initialise_ball_explosion_criteria_table@@YGXXZ ENDP	; initialise_ball_explosion_criteria_table
_TEXT	ENDS
; Function compile flags: /Odtp /ZI
; File c:\users\nhv90\projects\eech\aphavoc\source\entity\special\effect\explosn\xp_wpn.c
;	COMDAT ?get_suitable_weapon_explosion_type@@YG?AW4META_EXPLOSION_TYPES@@PAUENTITY@@W4WEAPON_KILL_CODES@@@Z
_TEXT	SEGMENT
tv191 = -88						; size = 4
tv171 = -88						; size = 4
tv151 = -88						; size = 4
tv131 = -88						; size = 4
tv78 = -88						; size = 4
tv183 = -84						; size = 4
tv163 = -84						; size = 4
tv143 = -84						; size = 4
tv91 = -84						; size = 4
tv84 = -84						; size = 4
tv70 = -84						; size = 4
_criteria_table$ = -16					; size = 4
_warhead_type$ = -12					; size = 4
_damage_capability$ = -8				; size = 4
_loop$ = -4						; size = 4
_en$ = 8						; size = 4
_kill_code$ = 12					; size = 4
?get_suitable_weapon_explosion_type@@YG?AW4META_EXPLOSION_TYPES@@PAUENTITY@@W4WEAPON_KILL_CODES@@@Z PROC ; get_suitable_weapon_explosion_type, COMDAT

; 795  : {

  00000	55		 push	 ebp
  00001	8b ec		 mov	 ebp, esp
  00003	83 ec 58	 sub	 esp, 88			; 00000058H
  00006	53		 push	 ebx
  00007	56		 push	 esi
  00008	57		 push	 edi

; 796  : 	int
; 797  : 		loop,
; 798  : 		damage_capability;
; 799  : 
; 800  : 	weapon_warhead_types
; 801  : 		warhead_type;
; 802  : 
; 803  : 	weapon_explosion_criteria
; 804  : 		*criteria_table;
; 805  : 
; 806  : 	warhead_type = (weapon_warhead_types) get_local_entity_int_value (en, INT_TYPE_WEAPON_WARHEAD_TYPE);

  00009	83 7d 08 00	 cmp	 DWORD PTR _en$[ebp], 0
  0000d	74 0a		 je	 SHORT $LN17@get_suitab
  0000f	8b 45 08	 mov	 eax, DWORD PTR _en$[ebp]
  00012	8b 08		 mov	 ecx, DWORD PTR [eax]
  00014	89 4d ac	 mov	 DWORD PTR tv70[ebp], ecx
  00017	eb 21		 jmp	 SHORT $LN18@get_suitab
$LN17@get_suitab:
  00019	8b 15 00 00 00
	00		 mov	 edx, DWORD PTR ?__LINE__Var@?0??get_suitable_weapon_explosion_type@@YG?AW4META_EXPLOSION_TYPES@@PAUENTITY@@W4WEAPON_KILL_CODES@@@Z@4JA
  0001f	83 c2 0b	 add	 edx, 11			; 0000000bH
  00022	52		 push	 edx
  00023	68 00 00 00 00	 push	 OFFSET ??_C@_0FD@IHHMDKHN@c?3?2users?2nhv90?2projects?2eech?2ap@
  00028	a1 00 00 00 00	 mov	 eax, DWORD PTR ?null_entity_pointer_message@@3PBDB ; null_entity_pointer_message
  0002d	50		 push	 eax
  0002e	e8 00 00 00 00	 call	 ?process_assert@@YGXPBD0H@Z ; process_assert
  00033	c7 45 ac 00 00
	00 00		 mov	 DWORD PTR tv70[ebp], 0
$LN18@get_suitab:
  0003a	b9 01 00 00 00	 mov	 ecx, 1
  0003f	85 c9		 test	 ecx, ecx
  00041	74 09		 je	 SHORT $LN19@get_suitab
  00043	c7 45 a8 10 01
	00 00		 mov	 DWORD PTR tv78[ebp], 272 ; 00000110H
  0004a	eb 21		 jmp	 SHORT $LN20@get_suitab
$LN19@get_suitab:
  0004c	8b 15 00 00 00
	00		 mov	 edx, DWORD PTR ?__LINE__Var@?0??get_suitable_weapon_explosion_type@@YG?AW4META_EXPLOSION_TYPES@@PAUENTITY@@W4WEAPON_KILL_CODES@@@Z@4JA
  00052	83 c2 0b	 add	 edx, 11			; 0000000bH
  00055	52		 push	 edx
  00056	68 00 00 00 00	 push	 OFFSET ??_C@_0FD@IHHMDKHN@c?3?2users?2nhv90?2projects?2eech?2ap@
  0005b	a1 00 00 00 00	 mov	 eax, DWORD PTR ?overload_invalid_int_type_message@@3PBDB ; overload_invalid_int_type_message
  00060	50		 push	 eax
  00061	e8 00 00 00 00	 call	 ?process_assert@@YGXPBD0H@Z ; process_assert
  00066	c7 45 a8 00 00
	00 00		 mov	 DWORD PTR tv78[ebp], 0
$LN20@get_suitab:
  0006d	68 10 01 00 00	 push	 272			; 00000110H
  00072	8b 4d 08	 mov	 ecx, DWORD PTR _en$[ebp]
  00075	51		 push	 ecx
  00076	69 55 ac 5c 04
	00 00		 imul	 edx, DWORD PTR tv70[ebp], 1116
  0007d	8b 45 a8	 mov	 eax, DWORD PTR tv78[ebp]
  00080	8b 8c 82 00 00
	00 00		 mov	 ecx, DWORD PTR ?fn_get_local_entity_int_value@@3PAY0BBH@P6GHPAUENTITY@@W4INT_TYPES@@@ZA[edx+eax*4]
  00087	ff d1		 call	 ecx
  00089	89 45 f4	 mov	 DWORD PTR _warhead_type$[ebp], eax

; 807  : 
; 808  : 	//
; 809  : 	// get relevant criteria table, based on warhead type
; 810  : 	//
; 811  : 
; 812  : 	switch (warhead_type)

  0008c	8b 45 f4	 mov	 eax, DWORD PTR _warhead_type$[ebp]
  0008f	89 45 ac	 mov	 DWORD PTR tv84[ebp], eax
  00092	83 7d ac 05	 cmp	 DWORD PTR tv84[ebp], 5
  00096	0f 87 57 02 00
	00		 ja	 $LN13@get_suitab
  0009c	8b 4d ac	 mov	 ecx, DWORD PTR tv84[ebp]
  0009f	ff 24 8d 00 00
	00 00		 jmp	 DWORD PTR $LN37@get_suitab[ecx*4]
$LN7@get_suitab:

; 813  : 	{
; 814  : 		case WEAPON_WARHEAD_TYPE_NONE:
; 815  : 		{
; 816  : 			return META_EXPLOSION_TYPE_NONE;

  000a6	33 c0		 xor	 eax, eax
  000a8	e9 e5 02 00 00	 jmp	 $LN1@get_suitab
$LN8@get_suitab:

; 817  : 		}
; 818  : 		case WEAPON_WARHEAD_TYPE_BALL:
; 819  : 		{
; 820  : 			damage_capability = get_local_entity_int_value (en, INT_TYPE_SOFT_DAMAGE_CAPABILITY);

  000ad	83 7d 08 00	 cmp	 DWORD PTR _en$[ebp], 0
  000b1	74 0a		 je	 SHORT $LN21@get_suitab
  000b3	8b 45 08	 mov	 eax, DWORD PTR _en$[ebp]
  000b6	8b 08		 mov	 ecx, DWORD PTR [eax]
  000b8	89 4d ac	 mov	 DWORD PTR tv91[ebp], ecx
  000bb	eb 21		 jmp	 SHORT $LN22@get_suitab
$LN21@get_suitab:
  000bd	8b 15 00 00 00
	00		 mov	 edx, DWORD PTR ?__LINE__Var@?0??get_suitable_weapon_explosion_type@@YG?AW4META_EXPLOSION_TYPES@@PAUENTITY@@W4WEAPON_KILL_CODES@@@Z@4JA
  000c3	83 c2 19	 add	 edx, 25			; 00000019H
  000c6	52		 push	 edx
  000c7	68 00 00 00 00	 push	 OFFSET ??_C@_0FD@IHHMDKHN@c?3?2users?2nhv90?2projects?2eech?2ap@
  000cc	a1 00 00 00 00	 mov	 eax, DWORD PTR ?null_entity_pointer_message@@3PBDB ; null_entity_pointer_message
  000d1	50		 push	 eax
  000d2	e8 00 00 00 00	 call	 ?process_assert@@YGXPBD0H@Z ; process_assert
  000d7	c7 45 ac 00 00
	00 00		 mov	 DWORD PTR tv91[ebp], 0
$LN22@get_suitab:
  000de	b9 01 00 00 00	 mov	 ecx, 1
  000e3	85 c9		 test	 ecx, ecx
  000e5	74 09		 je	 SHORT $LN23@get_suitab
  000e7	c7 45 a8 be 00
	00 00		 mov	 DWORD PTR tv131[ebp], 190 ; 000000beH
  000ee	eb 21		 jmp	 SHORT $LN24@get_suitab
$LN23@get_suitab:
  000f0	8b 15 00 00 00
	00		 mov	 edx, DWORD PTR ?__LINE__Var@?0??get_suitable_weapon_explosion_type@@YG?AW4META_EXPLOSION_TYPES@@PAUENTITY@@W4WEAPON_KILL_CODES@@@Z@4JA
  000f6	83 c2 19	 add	 edx, 25			; 00000019H
  000f9	52		 push	 edx
  000fa	68 00 00 00 00	 push	 OFFSET ??_C@_0FD@IHHMDKHN@c?3?2users?2nhv90?2projects?2eech?2ap@
  000ff	a1 00 00 00 00	 mov	 eax, DWORD PTR ?overload_invalid_int_type_message@@3PBDB ; overload_invalid_int_type_message
  00104	50		 push	 eax
  00105	e8 00 00 00 00	 call	 ?process_assert@@YGXPBD0H@Z ; process_assert
  0010a	c7 45 a8 00 00
	00 00		 mov	 DWORD PTR tv131[ebp], 0
$LN24@get_suitab:
  00111	68 be 00 00 00	 push	 190			; 000000beH
  00116	8b 4d 08	 mov	 ecx, DWORD PTR _en$[ebp]
  00119	51		 push	 ecx
  0011a	69 55 ac 5c 04
	00 00		 imul	 edx, DWORD PTR tv91[ebp], 1116
  00121	8b 45 a8	 mov	 eax, DWORD PTR tv131[ebp]
  00124	8b 8c 82 00 00
	00 00		 mov	 ecx, DWORD PTR ?fn_get_local_entity_int_value@@3PAY0BBH@P6GHPAUENTITY@@W4INT_TYPES@@@ZA[edx+eax*4]
  0012b	ff d1		 call	 ecx
  0012d	89 45 f8	 mov	 DWORD PTR _damage_capability$[ebp], eax

; 821  : 
; 822  : 			criteria_table = &ball_explosion_criteria_table;

  00130	c7 45 f0 00 00
	00 00		 mov	 DWORD PTR _criteria_table$[ebp], OFFSET ?ball_explosion_criteria_table@@3UWEAPON_EXPLOSION_CRITERIA@@A

; 823  : 
; 824  : 			break;

  00137	e9 cf 01 00 00	 jmp	 $LN2@get_suitab
$LN9@get_suitab:

; 825  : 		}
; 826  : 		case WEAPON_WARHEAD_TYPE_HIGH_EXPLOSIVE:
; 827  : 		{
; 828  : 			damage_capability = get_local_entity_int_value (en, INT_TYPE_SOFT_DAMAGE_CAPABILITY);

  0013c	83 7d 08 00	 cmp	 DWORD PTR _en$[ebp], 0
  00140	74 0a		 je	 SHORT $LN25@get_suitab
  00142	8b 45 08	 mov	 eax, DWORD PTR _en$[ebp]
  00145	8b 08		 mov	 ecx, DWORD PTR [eax]
  00147	89 4d ac	 mov	 DWORD PTR tv143[ebp], ecx
  0014a	eb 21		 jmp	 SHORT $LN26@get_suitab
$LN25@get_suitab:
  0014c	8b 15 00 00 00
	00		 mov	 edx, DWORD PTR ?__LINE__Var@?0??get_suitable_weapon_explosion_type@@YG?AW4META_EXPLOSION_TYPES@@PAUENTITY@@W4WEAPON_KILL_CODES@@@Z@4JA
  00152	83 c2 21	 add	 edx, 33			; 00000021H
  00155	52		 push	 edx
  00156	68 00 00 00 00	 push	 OFFSET ??_C@_0FD@IHHMDKHN@c?3?2users?2nhv90?2projects?2eech?2ap@
  0015b	a1 00 00 00 00	 mov	 eax, DWORD PTR ?null_entity_pointer_message@@3PBDB ; null_entity_pointer_message
  00160	50		 push	 eax
  00161	e8 00 00 00 00	 call	 ?process_assert@@YGXPBD0H@Z ; process_assert
  00166	c7 45 ac 00 00
	00 00		 mov	 DWORD PTR tv143[ebp], 0
$LN26@get_suitab:
  0016d	b9 01 00 00 00	 mov	 ecx, 1
  00172	85 c9		 test	 ecx, ecx
  00174	74 09		 je	 SHORT $LN27@get_suitab
  00176	c7 45 a8 be 00
	00 00		 mov	 DWORD PTR tv151[ebp], 190 ; 000000beH
  0017d	eb 21		 jmp	 SHORT $LN28@get_suitab
$LN27@get_suitab:
  0017f	8b 15 00 00 00
	00		 mov	 edx, DWORD PTR ?__LINE__Var@?0??get_suitable_weapon_explosion_type@@YG?AW4META_EXPLOSION_TYPES@@PAUENTITY@@W4WEAPON_KILL_CODES@@@Z@4JA
  00185	83 c2 21	 add	 edx, 33			; 00000021H
  00188	52		 push	 edx
  00189	68 00 00 00 00	 push	 OFFSET ??_C@_0FD@IHHMDKHN@c?3?2users?2nhv90?2projects?2eech?2ap@
  0018e	a1 00 00 00 00	 mov	 eax, DWORD PTR ?overload_invalid_int_type_message@@3PBDB ; overload_invalid_int_type_message
  00193	50		 push	 eax
  00194	e8 00 00 00 00	 call	 ?process_assert@@YGXPBD0H@Z ; process_assert
  00199	c7 45 a8 00 00
	00 00		 mov	 DWORD PTR tv151[ebp], 0
$LN28@get_suitab:
  001a0	68 be 00 00 00	 push	 190			; 000000beH
  001a5	8b 4d 08	 mov	 ecx, DWORD PTR _en$[ebp]
  001a8	51		 push	 ecx
  001a9	69 55 ac 5c 04
	00 00		 imul	 edx, DWORD PTR tv143[ebp], 1116
  001b0	8b 45 a8	 mov	 eax, DWORD PTR tv151[ebp]
  001b3	8b 8c 82 00 00
	00 00		 mov	 ecx, DWORD PTR ?fn_get_local_entity_int_value@@3PAY0BBH@P6GHPAUENTITY@@W4INT_TYPES@@@ZA[edx+eax*4]
  001ba	ff d1		 call	 ecx
  001bc	89 45 f8	 mov	 DWORD PTR _damage_capability$[ebp], eax

; 829  : 
; 830  : 			criteria_table = &high_explosive_explosion_criteria_table;

  001bf	c7 45 f0 00 00
	00 00		 mov	 DWORD PTR _criteria_table$[ebp], OFFSET ?high_explosive_explosion_criteria_table@@3UWEAPON_EXPLOSION_CRITERIA@@A

; 831  : 
; 832  : 			break;

  001c6	e9 40 01 00 00	 jmp	 $LN2@get_suitab
$LN10@get_suitab:

; 833  : 		}
; 834  : 		case WEAPON_WARHEAD_TYPE_ARMOUR_PIERCING:
; 835  : 		{
; 836  : 			damage_capability = get_local_entity_int_value (en, INT_TYPE_HARD_DAMAGE_CAPABILITY);

  001cb	83 7d 08 00	 cmp	 DWORD PTR _en$[ebp], 0
  001cf	74 0a		 je	 SHORT $LN29@get_suitab
  001d1	8b 45 08	 mov	 eax, DWORD PTR _en$[ebp]
  001d4	8b 08		 mov	 ecx, DWORD PTR [eax]
  001d6	89 4d ac	 mov	 DWORD PTR tv163[ebp], ecx
  001d9	eb 21		 jmp	 SHORT $LN30@get_suitab
$LN29@get_suitab:
  001db	8b 15 00 00 00
	00		 mov	 edx, DWORD PTR ?__LINE__Var@?0??get_suitable_weapon_explosion_type@@YG?AW4META_EXPLOSION_TYPES@@PAUENTITY@@W4WEAPON_KILL_CODES@@@Z@4JA
  001e1	83 c2 29	 add	 edx, 41			; 00000029H
  001e4	52		 push	 edx
  001e5	68 00 00 00 00	 push	 OFFSET ??_C@_0FD@IHHMDKHN@c?3?2users?2nhv90?2projects?2eech?2ap@
  001ea	a1 00 00 00 00	 mov	 eax, DWORD PTR ?null_entity_pointer_message@@3PBDB ; null_entity_pointer_message
  001ef	50		 push	 eax
  001f0	e8 00 00 00 00	 call	 ?process_assert@@YGXPBD0H@Z ; process_assert
  001f5	c7 45 ac 00 00
	00 00		 mov	 DWORD PTR tv163[ebp], 0
$LN30@get_suitab:
  001fc	b9 01 00 00 00	 mov	 ecx, 1
  00201	85 c9		 test	 ecx, ecx
  00203	74 09		 je	 SHORT $LN31@get_suitab
  00205	c7 45 a8 53 00
	00 00		 mov	 DWORD PTR tv171[ebp], 83 ; 00000053H
  0020c	eb 21		 jmp	 SHORT $LN32@get_suitab
$LN31@get_suitab:
  0020e	8b 15 00 00 00
	00		 mov	 edx, DWORD PTR ?__LINE__Var@?0??get_suitable_weapon_explosion_type@@YG?AW4META_EXPLOSION_TYPES@@PAUENTITY@@W4WEAPON_KILL_CODES@@@Z@4JA
  00214	83 c2 29	 add	 edx, 41			; 00000029H
  00217	52		 push	 edx
  00218	68 00 00 00 00	 push	 OFFSET ??_C@_0FD@IHHMDKHN@c?3?2users?2nhv90?2projects?2eech?2ap@
  0021d	a1 00 00 00 00	 mov	 eax, DWORD PTR ?overload_invalid_int_type_message@@3PBDB ; overload_invalid_int_type_message
  00222	50		 push	 eax
  00223	e8 00 00 00 00	 call	 ?process_assert@@YGXPBD0H@Z ; process_assert
  00228	c7 45 a8 00 00
	00 00		 mov	 DWORD PTR tv171[ebp], 0
$LN32@get_suitab:
  0022f	6a 53		 push	 83			; 00000053H
  00231	8b 4d 08	 mov	 ecx, DWORD PTR _en$[ebp]
  00234	51		 push	 ecx
  00235	69 55 ac 5c 04
	00 00		 imul	 edx, DWORD PTR tv163[ebp], 1116
  0023c	8b 45 a8	 mov	 eax, DWORD PTR tv171[ebp]
  0023f	8b 8c 82 00 00
	00 00		 mov	 ecx, DWORD PTR ?fn_get_local_entity_int_value@@3PAY0BBH@P6GHPAUENTITY@@W4INT_TYPES@@@ZA[edx+eax*4]
  00246	ff d1		 call	 ecx
  00248	89 45 f8	 mov	 DWORD PTR _damage_capability$[ebp], eax

; 837  : 
; 838  : 			criteria_table = &armour_piercing_explosion_criteria_table;

  0024b	c7 45 f0 00 00
	00 00		 mov	 DWORD PTR _criteria_table$[ebp], OFFSET ?armour_piercing_explosion_criteria_table@@3UWEAPON_EXPLOSION_CRITERIA@@A

; 839  : 
; 840  : 			break;

  00252	e9 b4 00 00 00	 jmp	 $LN2@get_suitab
$LN11@get_suitab:

; 841  : 		}
; 842  : 		case WEAPON_WARHEAD_TYPE_HIGH_EXPLOSIVE_ANTI_TANK:
; 843  : 		{
; 844  : 			damage_capability = get_local_entity_int_value (en, INT_TYPE_SOFT_DAMAGE_CAPABILITY);

  00257	83 7d 08 00	 cmp	 DWORD PTR _en$[ebp], 0
  0025b	74 0a		 je	 SHORT $LN33@get_suitab
  0025d	8b 45 08	 mov	 eax, DWORD PTR _en$[ebp]
  00260	8b 08		 mov	 ecx, DWORD PTR [eax]
  00262	89 4d ac	 mov	 DWORD PTR tv183[ebp], ecx
  00265	eb 21		 jmp	 SHORT $LN34@get_suitab
$LN33@get_suitab:
  00267	8b 15 00 00 00
	00		 mov	 edx, DWORD PTR ?__LINE__Var@?0??get_suitable_weapon_explosion_type@@YG?AW4META_EXPLOSION_TYPES@@PAUENTITY@@W4WEAPON_KILL_CODES@@@Z@4JA
  0026d	83 c2 31	 add	 edx, 49			; 00000031H
  00270	52		 push	 edx
  00271	68 00 00 00 00	 push	 OFFSET ??_C@_0FD@IHHMDKHN@c?3?2users?2nhv90?2projects?2eech?2ap@
  00276	a1 00 00 00 00	 mov	 eax, DWORD PTR ?null_entity_pointer_message@@3PBDB ; null_entity_pointer_message
  0027b	50		 push	 eax
  0027c	e8 00 00 00 00	 call	 ?process_assert@@YGXPBD0H@Z ; process_assert
  00281	c7 45 ac 00 00
	00 00		 mov	 DWORD PTR tv183[ebp], 0
$LN34@get_suitab:
  00288	b9 01 00 00 00	 mov	 ecx, 1
  0028d	85 c9		 test	 ecx, ecx
  0028f	74 09		 je	 SHORT $LN35@get_suitab
  00291	c7 45 a8 be 00
	00 00		 mov	 DWORD PTR tv191[ebp], 190 ; 000000beH
  00298	eb 21		 jmp	 SHORT $LN36@get_suitab
$LN35@get_suitab:
  0029a	8b 15 00 00 00
	00		 mov	 edx, DWORD PTR ?__LINE__Var@?0??get_suitable_weapon_explosion_type@@YG?AW4META_EXPLOSION_TYPES@@PAUENTITY@@W4WEAPON_KILL_CODES@@@Z@4JA
  002a0	83 c2 31	 add	 edx, 49			; 00000031H
  002a3	52		 push	 edx
  002a4	68 00 00 00 00	 push	 OFFSET ??_C@_0FD@IHHMDKHN@c?3?2users?2nhv90?2projects?2eech?2ap@
  002a9	a1 00 00 00 00	 mov	 eax, DWORD PTR ?overload_invalid_int_type_message@@3PBDB ; overload_invalid_int_type_message
  002ae	50		 push	 eax
  002af	e8 00 00 00 00	 call	 ?process_assert@@YGXPBD0H@Z ; process_assert
  002b4	c7 45 a8 00 00
	00 00		 mov	 DWORD PTR tv191[ebp], 0
$LN36@get_suitab:
  002bb	68 be 00 00 00	 push	 190			; 000000beH
  002c0	8b 4d 08	 mov	 ecx, DWORD PTR _en$[ebp]
  002c3	51		 push	 ecx
  002c4	69 55 ac 5c 04
	00 00		 imul	 edx, DWORD PTR tv183[ebp], 1116
  002cb	8b 45 a8	 mov	 eax, DWORD PTR tv191[ebp]
  002ce	8b 8c 82 00 00
	00 00		 mov	 ecx, DWORD PTR ?fn_get_local_entity_int_value@@3PAY0BBH@P6GHPAUENTITY@@W4INT_TYPES@@@ZA[edx+eax*4]
  002d5	ff d1		 call	 ecx
  002d7	89 45 f8	 mov	 DWORD PTR _damage_capability$[ebp], eax

; 845  : 
; 846  : 			criteria_table = &heat_explosion_criteria_table;

  002da	c7 45 f0 00 00
	00 00		 mov	 DWORD PTR _criteria_table$[ebp], OFFSET ?heat_explosion_criteria_table@@3UWEAPON_EXPLOSION_CRITERIA@@A

; 847  : 
; 848  : 			break;

  002e1	eb 28		 jmp	 SHORT $LN2@get_suitab
$LN12@get_suitab:

; 849  : 		}
; 850  : 		case WEAPON_WARHEAD_TYPE_SMOKE_GRENADE:
; 851  : 		{
; 852  : 			damage_capability = 0;

  002e3	c7 45 f8 00 00
	00 00		 mov	 DWORD PTR _damage_capability$[ebp], 0

; 853  : 
; 854  : 			criteria_table = &smoke_grenade_explosion_criteria_table;

  002ea	c7 45 f0 00 00
	00 00		 mov	 DWORD PTR _criteria_table$[ebp], OFFSET ?smoke_grenade_explosion_criteria_table@@3UWEAPON_EXPLOSION_CRITERIA@@A

; 855  : 
; 856  : 			break;

  002f1	eb 18		 jmp	 SHORT $LN2@get_suitab
$LN13@get_suitab:

; 857  : 		}
; 858  : 		default:
; 859  : 		{
; 860  : 			debug_fatal ("XP_WPN : Invalid warhead type %d", warhead_type);

  002f3	8b 45 f4	 mov	 eax, DWORD PTR _warhead_type$[ebp]
  002f6	50		 push	 eax
  002f7	68 00 00 00 00	 push	 OFFSET ??_C@_0CB@OPLJCEE@XP_WPN?5?3?5Invalid?5warhead?5type?5?$CF@
  002fc	e8 00 00 00 00	 call	 ?debug_fatal@@YAXPBDZZ	; debug_fatal
  00301	83 c4 08	 add	 esp, 8

; 861  : 
; 862  : 			return META_EXPLOSION_TYPE_NONE;

  00304	33 c0		 xor	 eax, eax
  00306	e9 87 00 00 00	 jmp	 $LN1@get_suitab
$LN2@get_suitab:

; 863  : 		}
; 864  : 	}
; 865  : 
; 866  : 	//
; 867  : 	// search through the table, checking all other criteria
; 868  : 	//
; 869  : 
; 870  : 	if (criteria_table->kill_code_criteria [kill_code] == NULL)

  0030b	8b 45 0c	 mov	 eax, DWORD PTR _kill_code$[ebp]
  0030e	8b 4d f0	 mov	 ecx, DWORD PTR _criteria_table$[ebp]
  00311	83 7c 81 20 00	 cmp	 DWORD PTR [ecx+eax*4+32], 0
  00316	75 15		 jne	 SHORT $LN14@get_suitab

; 871  : 	{
; 872  : 		debug_fatal ("XP_WPN : No criteria table found for warhead type %d, kill code %d", warhead_type, kill_code);

  00318	8b 45 0c	 mov	 eax, DWORD PTR _kill_code$[ebp]
  0031b	50		 push	 eax
  0031c	8b 4d f4	 mov	 ecx, DWORD PTR _warhead_type$[ebp]
  0031f	51		 push	 ecx
  00320	68 00 00 00 00	 push	 OFFSET ??_C@_0ED@EADDGBFC@XP_WPN?5?3?5No?5criteria?5table?5foun@
  00325	e8 00 00 00 00	 call	 ?debug_fatal@@YAXPBDZZ	; debug_fatal
  0032a	83 c4 0c	 add	 esp, 12			; 0000000cH
$LN14@get_suitab:

; 873  : 	}
; 874  : 
; 875  : 	for (loop = 0; loop < criteria_table->kill_code_criteria_count [kill_code]; loop ++)

  0032d	c7 45 fc 00 00
	00 00		 mov	 DWORD PTR _loop$[ebp], 0
  00334	eb 09		 jmp	 SHORT $LN6@get_suitab
$LN4@get_suitab:
  00336	8b 45 fc	 mov	 eax, DWORD PTR _loop$[ebp]
  00339	83 c0 01	 add	 eax, 1
  0033c	89 45 fc	 mov	 DWORD PTR _loop$[ebp], eax
$LN6@get_suitab:
  0033f	8b 45 0c	 mov	 eax, DWORD PTR _kill_code$[ebp]
  00342	8b 4d f0	 mov	 ecx, DWORD PTR _criteria_table$[ebp]
  00345	8b 55 fc	 mov	 edx, DWORD PTR _loop$[ebp]
  00348	3b 14 81	 cmp	 edx, DWORD PTR [ecx+eax*4]
  0034b	7d 43		 jge	 SHORT $LN5@get_suitab

; 876  : 	{
; 877  : 		//
; 878  : 		// check damage capability
; 879  : 		//
; 880  : 
; 881  : 		if ( ( criteria_table->kill_code_criteria [kill_code][loop].min_damage <= damage_capability ) &&

  0034d	6b 45 fc 0c	 imul	 eax, DWORD PTR _loop$[ebp], 12
  00351	8b 4d 0c	 mov	 ecx, DWORD PTR _kill_code$[ebp]
  00354	8b 55 f0	 mov	 edx, DWORD PTR _criteria_table$[ebp]
  00357	8b 4c 8a 20	 mov	 ecx, DWORD PTR [edx+ecx*4+32]
  0035b	8b 14 01	 mov	 edx, DWORD PTR [ecx+eax]
  0035e	3b 55 f8	 cmp	 edx, DWORD PTR _damage_capability$[ebp]
  00361	7f 2b		 jg	 SHORT $LN15@get_suitab
  00363	6b 45 fc 0c	 imul	 eax, DWORD PTR _loop$[ebp], 12
  00367	8b 4d 0c	 mov	 ecx, DWORD PTR _kill_code$[ebp]
  0036a	8b 55 f0	 mov	 edx, DWORD PTR _criteria_table$[ebp]
  0036d	8b 4c 8a 20	 mov	 ecx, DWORD PTR [edx+ecx*4+32]
  00371	8b 54 01 04	 mov	 edx, DWORD PTR [ecx+eax+4]
  00375	3b 55 f8	 cmp	 edx, DWORD PTR _damage_capability$[ebp]
  00378	7c 14		 jl	 SHORT $LN15@get_suitab

; 882  : 				( criteria_table->kill_code_criteria [kill_code][loop].max_damage >= damage_capability ) )
; 883  : 		{
; 884  : 
; 885  : 			return criteria_table->kill_code_criteria [kill_code][loop].type;

  0037a	6b 45 fc 0c	 imul	 eax, DWORD PTR _loop$[ebp], 12
  0037e	8b 4d 0c	 mov	 ecx, DWORD PTR _kill_code$[ebp]
  00381	8b 55 f0	 mov	 edx, DWORD PTR _criteria_table$[ebp]
  00384	8b 4c 8a 20	 mov	 ecx, DWORD PTR [edx+ecx*4+32]
  00388	8b 44 01 08	 mov	 eax, DWORD PTR [ecx+eax+8]
  0038c	eb 04		 jmp	 SHORT $LN1@get_suitab
$LN15@get_suitab:

; 886  : 		}
; 887  : 	}

  0038e	eb a6		 jmp	 SHORT $LN4@get_suitab
$LN5@get_suitab:

; 888  : 
; 889  : 	return META_EXPLOSION_TYPE_NONE;

  00390	33 c0		 xor	 eax, eax
$LN1@get_suitab:

; 890  : }

  00392	5f		 pop	 edi
  00393	5e		 pop	 esi
  00394	5b		 pop	 ebx
  00395	8b e5		 mov	 esp, ebp
  00397	5d		 pop	 ebp
  00398	c2 08 00	 ret	 8
  0039b	90		 npad	 1
$LN37@get_suitab:
  0039c	00 00 00 00	 DD	 $LN7@get_suitab
  003a0	00 00 00 00	 DD	 $LN8@get_suitab
  003a4	00 00 00 00	 DD	 $LN9@get_suitab
  003a8	00 00 00 00	 DD	 $LN10@get_suitab
  003ac	00 00 00 00	 DD	 $LN11@get_suitab
  003b0	00 00 00 00	 DD	 $LN12@get_suitab
?get_suitable_weapon_explosion_type@@YG?AW4META_EXPLOSION_TYPES@@PAUENTITY@@W4WEAPON_KILL_CODES@@@Z ENDP ; get_suitable_weapon_explosion_type
_TEXT	ENDS
; Function compile flags: /Odtp /ZI
; File c:\users\nhv90\projects\eech\aphavoc\source\entity\special\effect\explosn\xp_wpn.c
;	COMDAT ?deinitialise_weapon_explosion_criteria_tables@@YGXXZ
_TEXT	SEGMENT
_kill_code$ = -8					; size = 4
_table$ = -4						; size = 4
?deinitialise_weapon_explosion_criteria_tables@@YGXXZ PROC ; deinitialise_weapon_explosion_criteria_tables, COMDAT

; 705  : {

  00000	55		 push	 ebp
  00001	8b ec		 mov	 ebp, esp
  00003	83 ec 48	 sub	 esp, 72			; 00000048H
  00006	53		 push	 ebx
  00007	56		 push	 esi
  00008	57		 push	 edi

; 706  : 	weapon_explosion_criteria
; 707  : 		*table;
; 708  : 
; 709  : 	int
; 710  : 		kill_code;
; 711  : 
; 712  : 	///////////////////////////////////////////////////////////////////////
; 713  : 
; 714  : 	table = &ball_explosion_criteria_table;

  00009	c7 45 fc 00 00
	00 00		 mov	 DWORD PTR _table$[ebp], OFFSET ?ball_explosion_criteria_table@@3UWEAPON_EXPLOSION_CRITERIA@@A

; 715  : 
; 716  : 	for (kill_code = 0; kill_code < NUM_WEAPON_KILL_CODES; kill_code ++)

  00010	c7 45 f8 00 00
	00 00		 mov	 DWORD PTR _kill_code$[ebp], 0
  00017	eb 09		 jmp	 SHORT $LN4@deinitiali
$LN2@deinitiali:
  00019	8b 45 f8	 mov	 eax, DWORD PTR _kill_code$[ebp]
  0001c	83 c0 01	 add	 eax, 1
  0001f	89 45 f8	 mov	 DWORD PTR _kill_code$[ebp], eax
$LN4@deinitiali:
  00022	83 7d f8 08	 cmp	 DWORD PTR _kill_code$[ebp], 8
  00026	7d 1f		 jge	 SHORT $LN3@deinitiali

; 717  : 	{
; 718  : 		if (table->kill_code_criteria [kill_code])

  00028	8b 45 f8	 mov	 eax, DWORD PTR _kill_code$[ebp]
  0002b	8b 4d fc	 mov	 ecx, DWORD PTR _table$[ebp]
  0002e	83 7c 81 20 00	 cmp	 DWORD PTR [ecx+eax*4+32], 0
  00033	74 10		 je	 SHORT $LN17@deinitiali

; 719  : 		{
; 720  : 			free_mem (table->kill_code_criteria [kill_code]);

  00035	8b 45 f8	 mov	 eax, DWORD PTR _kill_code$[ebp]
  00038	8b 4d fc	 mov	 ecx, DWORD PTR _table$[ebp]
  0003b	8b 54 81 20	 mov	 edx, DWORD PTR [ecx+eax*4+32]
  0003f	52		 push	 edx
  00040	e8 00 00 00 00	 call	 ?free_mem@@YGXPAX@Z	; free_mem
$LN17@deinitiali:

; 721  : 		}
; 722  : 	}

  00045	eb d2		 jmp	 SHORT $LN2@deinitiali
$LN3@deinitiali:

; 723  : 
; 724  : 	///////////////////////////////////////////////////////////////////////
; 725  : 
; 726  : 	table = &high_explosive_explosion_criteria_table;

  00047	c7 45 fc 00 00
	00 00		 mov	 DWORD PTR _table$[ebp], OFFSET ?high_explosive_explosion_criteria_table@@3UWEAPON_EXPLOSION_CRITERIA@@A

; 727  : 
; 728  : 	for (kill_code = 0; kill_code < NUM_WEAPON_KILL_CODES; kill_code ++)

  0004e	c7 45 f8 00 00
	00 00		 mov	 DWORD PTR _kill_code$[ebp], 0
  00055	eb 09		 jmp	 SHORT $LN7@deinitiali
$LN5@deinitiali:
  00057	8b 45 f8	 mov	 eax, DWORD PTR _kill_code$[ebp]
  0005a	83 c0 01	 add	 eax, 1
  0005d	89 45 f8	 mov	 DWORD PTR _kill_code$[ebp], eax
$LN7@deinitiali:
  00060	83 7d f8 08	 cmp	 DWORD PTR _kill_code$[ebp], 8
  00064	7d 1f		 jge	 SHORT $LN6@deinitiali

; 729  : 	{
; 730  : 		if (table->kill_code_criteria [kill_code])

  00066	8b 45 f8	 mov	 eax, DWORD PTR _kill_code$[ebp]
  00069	8b 4d fc	 mov	 ecx, DWORD PTR _table$[ebp]
  0006c	83 7c 81 20 00	 cmp	 DWORD PTR [ecx+eax*4+32], 0
  00071	74 10		 je	 SHORT $LN18@deinitiali

; 731  : 		{
; 732  : 			free_mem (table->kill_code_criteria [kill_code]);

  00073	8b 45 f8	 mov	 eax, DWORD PTR _kill_code$[ebp]
  00076	8b 4d fc	 mov	 ecx, DWORD PTR _table$[ebp]
  00079	8b 54 81 20	 mov	 edx, DWORD PTR [ecx+eax*4+32]
  0007d	52		 push	 edx
  0007e	e8 00 00 00 00	 call	 ?free_mem@@YGXPAX@Z	; free_mem
$LN18@deinitiali:

; 733  : 		}
; 734  : 	}

  00083	eb d2		 jmp	 SHORT $LN5@deinitiali
$LN6@deinitiali:

; 735  : 
; 736  : 	///////////////////////////////////////////////////////////////////////
; 737  : 
; 738  : 	table = &armour_piercing_explosion_criteria_table;

  00085	c7 45 fc 00 00
	00 00		 mov	 DWORD PTR _table$[ebp], OFFSET ?armour_piercing_explosion_criteria_table@@3UWEAPON_EXPLOSION_CRITERIA@@A

; 739  : 
; 740  : 	for (kill_code = 0; kill_code < NUM_WEAPON_KILL_CODES; kill_code ++)

  0008c	c7 45 f8 00 00
	00 00		 mov	 DWORD PTR _kill_code$[ebp], 0
  00093	eb 09		 jmp	 SHORT $LN10@deinitiali
$LN8@deinitiali:
  00095	8b 45 f8	 mov	 eax, DWORD PTR _kill_code$[ebp]
  00098	83 c0 01	 add	 eax, 1
  0009b	89 45 f8	 mov	 DWORD PTR _kill_code$[ebp], eax
$LN10@deinitiali:
  0009e	83 7d f8 08	 cmp	 DWORD PTR _kill_code$[ebp], 8
  000a2	7d 1f		 jge	 SHORT $LN9@deinitiali

; 741  : 	{
; 742  : 		if (table->kill_code_criteria [kill_code])

  000a4	8b 45 f8	 mov	 eax, DWORD PTR _kill_code$[ebp]
  000a7	8b 4d fc	 mov	 ecx, DWORD PTR _table$[ebp]
  000aa	83 7c 81 20 00	 cmp	 DWORD PTR [ecx+eax*4+32], 0
  000af	74 10		 je	 SHORT $LN19@deinitiali

; 743  : 		{
; 744  : 			free_mem (table->kill_code_criteria [kill_code]);

  000b1	8b 45 f8	 mov	 eax, DWORD PTR _kill_code$[ebp]
  000b4	8b 4d fc	 mov	 ecx, DWORD PTR _table$[ebp]
  000b7	8b 54 81 20	 mov	 edx, DWORD PTR [ecx+eax*4+32]
  000bb	52		 push	 edx
  000bc	e8 00 00 00 00	 call	 ?free_mem@@YGXPAX@Z	; free_mem
$LN19@deinitiali:

; 745  : 		}
; 746  : 	}

  000c1	eb d2		 jmp	 SHORT $LN8@deinitiali
$LN9@deinitiali:

; 747  : 
; 748  : 	///////////////////////////////////////////////////////////////////////
; 749  : 
; 750  : 	table = &heat_explosion_criteria_table;

  000c3	c7 45 fc 00 00
	00 00		 mov	 DWORD PTR _table$[ebp], OFFSET ?heat_explosion_criteria_table@@3UWEAPON_EXPLOSION_CRITERIA@@A

; 751  : 
; 752  : 	for (kill_code = 0; kill_code < NUM_WEAPON_KILL_CODES; kill_code ++)

  000ca	c7 45 f8 00 00
	00 00		 mov	 DWORD PTR _kill_code$[ebp], 0
  000d1	eb 09		 jmp	 SHORT $LN13@deinitiali
$LN11@deinitiali:
  000d3	8b 45 f8	 mov	 eax, DWORD PTR _kill_code$[ebp]
  000d6	83 c0 01	 add	 eax, 1
  000d9	89 45 f8	 mov	 DWORD PTR _kill_code$[ebp], eax
$LN13@deinitiali:
  000dc	83 7d f8 08	 cmp	 DWORD PTR _kill_code$[ebp], 8
  000e0	7d 1f		 jge	 SHORT $LN12@deinitiali

; 753  : 	{
; 754  : 		if (table->kill_code_criteria [kill_code])

  000e2	8b 45 f8	 mov	 eax, DWORD PTR _kill_code$[ebp]
  000e5	8b 4d fc	 mov	 ecx, DWORD PTR _table$[ebp]
  000e8	83 7c 81 20 00	 cmp	 DWORD PTR [ecx+eax*4+32], 0
  000ed	74 10		 je	 SHORT $LN20@deinitiali

; 755  : 		{
; 756  : 			free_mem (table->kill_code_criteria [kill_code]);

  000ef	8b 45 f8	 mov	 eax, DWORD PTR _kill_code$[ebp]
  000f2	8b 4d fc	 mov	 ecx, DWORD PTR _table$[ebp]
  000f5	8b 54 81 20	 mov	 edx, DWORD PTR [ecx+eax*4+32]
  000f9	52		 push	 edx
  000fa	e8 00 00 00 00	 call	 ?free_mem@@YGXPAX@Z	; free_mem
$LN20@deinitiali:

; 757  : 		}
; 758  : 	}

  000ff	eb d2		 jmp	 SHORT $LN11@deinitiali
$LN12@deinitiali:

; 759  : 
; 760  : 	///////////////////////////////////////////////////////////////////////
; 761  : 
; 762  : 	table = &smoke_grenade_explosion_criteria_table;

  00101	c7 45 fc 00 00
	00 00		 mov	 DWORD PTR _table$[ebp], OFFSET ?smoke_grenade_explosion_criteria_table@@3UWEAPON_EXPLOSION_CRITERIA@@A

; 763  : 
; 764  : 	for (kill_code = 0; kill_code < NUM_WEAPON_KILL_CODES; kill_code ++)

  00108	c7 45 f8 00 00
	00 00		 mov	 DWORD PTR _kill_code$[ebp], 0
  0010f	eb 09		 jmp	 SHORT $LN16@deinitiali
$LN14@deinitiali:
  00111	8b 45 f8	 mov	 eax, DWORD PTR _kill_code$[ebp]
  00114	83 c0 01	 add	 eax, 1
  00117	89 45 f8	 mov	 DWORD PTR _kill_code$[ebp], eax
$LN16@deinitiali:
  0011a	83 7d f8 08	 cmp	 DWORD PTR _kill_code$[ebp], 8
  0011e	7d 1f		 jge	 SHORT $LN1@deinitiali

; 765  : 	{
; 766  : 		if (table->kill_code_criteria [kill_code])

  00120	8b 45 f8	 mov	 eax, DWORD PTR _kill_code$[ebp]
  00123	8b 4d fc	 mov	 ecx, DWORD PTR _table$[ebp]
  00126	83 7c 81 20 00	 cmp	 DWORD PTR [ecx+eax*4+32], 0
  0012b	74 10		 je	 SHORT $LN21@deinitiali

; 767  : 		{
; 768  : 			free_mem (table->kill_code_criteria [kill_code]);

  0012d	8b 45 f8	 mov	 eax, DWORD PTR _kill_code$[ebp]
  00130	8b 4d fc	 mov	 ecx, DWORD PTR _table$[ebp]
  00133	8b 54 81 20	 mov	 edx, DWORD PTR [ecx+eax*4+32]
  00137	52		 push	 edx
  00138	e8 00 00 00 00	 call	 ?free_mem@@YGXPAX@Z	; free_mem
$LN21@deinitiali:

; 769  : 		}
; 770  : 	}

  0013d	eb d2		 jmp	 SHORT $LN14@deinitiali
$LN1@deinitiali:

; 771  : }

  0013f	5f		 pop	 edi
  00140	5e		 pop	 esi
  00141	5b		 pop	 ebx
  00142	8b e5		 mov	 esp, ebp
  00144	5d		 pop	 ebp
  00145	c3		 ret	 0
?deinitialise_weapon_explosion_criteria_tables@@YGXXZ ENDP ; deinitialise_weapon_explosion_criteria_tables
_TEXT	ENDS
; Function compile flags: /Odtp /ZI
; File c:\users\nhv90\projects\eech\aphavoc\source\entity\special\effect\explosn\xp_wpn.c
;	COMDAT ?initialise_weapon_explosion_criteria_tables@@YGXXZ
_TEXT	SEGMENT
?initialise_weapon_explosion_criteria_tables@@YGXXZ PROC ; initialise_weapon_explosion_criteria_tables, COMDAT

; 107  : {

  00000	55		 push	 ebp
  00001	8b ec		 mov	 ebp, esp
  00003	83 ec 40	 sub	 esp, 64			; 00000040H
  00006	53		 push	 ebx
  00007	56		 push	 esi
  00008	57		 push	 edi

; 108  : 	initialise_ball_explosion_criteria_table ();

  00009	e8 00 00 00 00	 call	 ?initialise_ball_explosion_criteria_table@@YGXXZ ; initialise_ball_explosion_criteria_table

; 109  : 
; 110  : 	initialise_high_explosive_explosion_criteria_table ();

  0000e	e8 00 00 00 00	 call	 ?initialise_high_explosive_explosion_criteria_table@@YGXXZ ; initialise_high_explosive_explosion_criteria_table

; 111  : 
; 112  : 	initialise_armour_piercing_explosion_criteria_table ();

  00013	e8 00 00 00 00	 call	 ?initialise_armour_piercing_explosion_criteria_table@@YGXXZ ; initialise_armour_piercing_explosion_criteria_table

; 113  : 
; 114  : 	initialise_heat_explosion_criteria_table ();

  00018	e8 00 00 00 00	 call	 ?initialise_heat_explosion_criteria_table@@YGXXZ ; initialise_heat_explosion_criteria_table

; 115  : 
; 116  : 	initialise_smoke_grenade_explosion_criteria_table ();

  0001d	e8 00 00 00 00	 call	 ?initialise_smoke_grenade_explosion_criteria_table@@YGXXZ ; initialise_smoke_grenade_explosion_criteria_table

; 117  : }

  00022	5f		 pop	 edi
  00023	5e		 pop	 esi
  00024	5b		 pop	 ebx
  00025	8b e5		 mov	 esp, ebp
  00027	5d		 pop	 ebp
  00028	c3		 ret	 0
?initialise_weapon_explosion_criteria_tables@@YGXXZ ENDP ; initialise_weapon_explosion_criteria_tables
_TEXT	ENDS
END
