; Listing generated by Microsoft (R) Optimizing Compiler Version 19.16.27045.0 

	TITLE	c:\users\nhv90\projects\eech\aphavoc\source\app3d\3d_init.c
	.686P
	.XMM
	include listing.inc
	.model	flat

INCLUDELIB OLDNAMES

PUBLIC	??_C@_06KIELAJID@3ddata@			; `string'
PUBLIC	??_C@_0BE@DPPOKICC@3ddata?2displace?4bin@	; `string'
PUBLIC	??_C@_0BG@KJFKADBK@3ddata?2horizon?2dry6am@	; `string'
PUBLIC	??_C@_0BG@PBDJBDEM@3ddata?2horizon?2dry9am@	; `string'
PUBLIC	??_C@_0BH@FCPOPKOM@3ddata?2horizon?2dry12pm@	; `string'
PUBLIC	??_C@_0BG@IDGADKGP@3ddata?2horizon?2dry3pm@	; `string'
PUBLIC	??_C@_0BG@LELOMKFN@3ddata?2horizon?2dry6pm@	; `string'
PUBLIC	??_C@_0BG@OMNNNKAL@3ddata?2horizon?2dry9pm@	; `string'
PUBLIC	??_C@_0BH@EPBKDDKL@3ddata?2horizon?2dry12am@	; `string'
PUBLIC	??_C@_0BF@DPMMOJDG@3ddata?2horizon?2lr6am@	; `string'
PUBLIC	??_C@_0BF@GHKPPJGA@3ddata?2horizon?2lr9am@	; `string'
PUBLIC	??_C@_0BG@GALAAAOF@3ddata?2horizon?2lr12pm@	; `string'
PUBLIC	??_C@_0BF@BFPGNAED@3ddata?2horizon?2lr3pm@	; `string'
PUBLIC	??_C@_0BF@CCCICAHB@3ddata?2horizon?2lr6pm@	; `string'
PUBLIC	??_C@_0BF@HKELDACH@3ddata?2horizon?2lr9pm@	; `string'
PUBLIC	??_C@_0BG@HNFEMJKC@3ddata?2horizon?2lr12am@	; `string'
PUBLIC	??_C@_0BF@KEFNKLCA@3ddata?2horizon?2hr6am@	; `string'
PUBLIC	??_C@_0BF@PMDOLLHG@3ddata?2horizon?2hr9am@	; `string'
PUBLIC	??_C@_0BG@JEPPCEPG@3ddata?2horizon?2hr12pm@	; `string'
PUBLIC	??_C@_0BF@IOGHJCFF@3ddata?2horizon?2hr3pm@	; `string'
PUBLIC	??_C@_0BF@LJLJGCGH@3ddata?2horizon?2hr6pm@	; `string'
PUBLIC	??_C@_0BF@OBNKHCDB@3ddata?2horizon?2hr9pm@	; `string'
PUBLIC	??_C@_0BG@IJBLONLB@3ddata?2horizon?2hr12am@	; `string'
PUBLIC	??_C@_0BH@BEEECGBL@3ddata?2horizon?2snow6am@	; `string'
PUBLIC	??_C@_0BH@EMCHDGEN@3ddata?2horizon?2snow9am@	; `string'
PUBLIC	??_C@_0BI@CFEENEFP@3ddata?2horizon?2snow12pm@	; `string'
PUBLIC	??_C@_0BH@DOHOBPGO@3ddata?2horizon?2snow3pm@	; `string'
PUBLIC	??_C@_0BH@JKAOPFM@3ddata?2horizon?2snow6pm@	; `string'
PUBLIC	??_C@_0BH@FBMDPPAK@3ddata?2horizon?2snow9pm@	; `string'
PUBLIC	??_C@_0BI@DIKABNBI@3ddata?2horizon?2snow12am@	; `string'
PUBLIC	??_C@_0BB@NKBBKCGJ@3ddata?2stars?4bin@		; `string'
;	COMDAT ??_C@_0BB@NKBBKCGJ@3ddata?2stars?4bin@
CONST	SEGMENT
??_C@_0BB@NKBBKCGJ@3ddata?2stars?4bin@ DB '3ddata\stars.bin', 00H ; `string'
CONST	ENDS
;	COMDAT ??_C@_0BI@DIKABNBI@3ddata?2horizon?2snow12am@
CONST	SEGMENT
??_C@_0BI@DIKABNBI@3ddata?2horizon?2snow12am@ DB '3ddata\horizon\snow12am'
	DB	00H						; `string'
CONST	ENDS
;	COMDAT ??_C@_0BH@FBMDPPAK@3ddata?2horizon?2snow9pm@
CONST	SEGMENT
??_C@_0BH@FBMDPPAK@3ddata?2horizon?2snow9pm@ DB '3ddata\horizon\snow9pm', 00H ; `string'
CONST	ENDS
;	COMDAT ??_C@_0BH@JKAOPFM@3ddata?2horizon?2snow6pm@
CONST	SEGMENT
??_C@_0BH@JKAOPFM@3ddata?2horizon?2snow6pm@ DB '3ddata\horizon\snow6pm', 00H ; `string'
CONST	ENDS
;	COMDAT ??_C@_0BH@DOHOBPGO@3ddata?2horizon?2snow3pm@
CONST	SEGMENT
??_C@_0BH@DOHOBPGO@3ddata?2horizon?2snow3pm@ DB '3ddata\horizon\snow3pm', 00H ; `string'
CONST	ENDS
;	COMDAT ??_C@_0BI@CFEENEFP@3ddata?2horizon?2snow12pm@
CONST	SEGMENT
??_C@_0BI@CFEENEFP@3ddata?2horizon?2snow12pm@ DB '3ddata\horizon\snow12pm'
	DB	00H						; `string'
CONST	ENDS
;	COMDAT ??_C@_0BH@EMCHDGEN@3ddata?2horizon?2snow9am@
CONST	SEGMENT
??_C@_0BH@EMCHDGEN@3ddata?2horizon?2snow9am@ DB '3ddata\horizon\snow9am', 00H ; `string'
CONST	ENDS
;	COMDAT ??_C@_0BH@BEEECGBL@3ddata?2horizon?2snow6am@
CONST	SEGMENT
??_C@_0BH@BEEECGBL@3ddata?2horizon?2snow6am@ DB '3ddata\horizon\snow6am', 00H ; `string'
CONST	ENDS
;	COMDAT ??_C@_0BG@IJBLONLB@3ddata?2horizon?2hr12am@
CONST	SEGMENT
??_C@_0BG@IJBLONLB@3ddata?2horizon?2hr12am@ DB '3ddata\horizon\hr12am', 00H ; `string'
CONST	ENDS
;	COMDAT ??_C@_0BF@OBNKHCDB@3ddata?2horizon?2hr9pm@
CONST	SEGMENT
??_C@_0BF@OBNKHCDB@3ddata?2horizon?2hr9pm@ DB '3ddata\horizon\hr9pm', 00H ; `string'
CONST	ENDS
;	COMDAT ??_C@_0BF@LJLJGCGH@3ddata?2horizon?2hr6pm@
CONST	SEGMENT
??_C@_0BF@LJLJGCGH@3ddata?2horizon?2hr6pm@ DB '3ddata\horizon\hr6pm', 00H ; `string'
CONST	ENDS
;	COMDAT ??_C@_0BF@IOGHJCFF@3ddata?2horizon?2hr3pm@
CONST	SEGMENT
??_C@_0BF@IOGHJCFF@3ddata?2horizon?2hr3pm@ DB '3ddata\horizon\hr3pm', 00H ; `string'
CONST	ENDS
;	COMDAT ??_C@_0BG@JEPPCEPG@3ddata?2horizon?2hr12pm@
CONST	SEGMENT
??_C@_0BG@JEPPCEPG@3ddata?2horizon?2hr12pm@ DB '3ddata\horizon\hr12pm', 00H ; `string'
CONST	ENDS
;	COMDAT ??_C@_0BF@PMDOLLHG@3ddata?2horizon?2hr9am@
CONST	SEGMENT
??_C@_0BF@PMDOLLHG@3ddata?2horizon?2hr9am@ DB '3ddata\horizon\hr9am', 00H ; `string'
CONST	ENDS
;	COMDAT ??_C@_0BF@KEFNKLCA@3ddata?2horizon?2hr6am@
CONST	SEGMENT
??_C@_0BF@KEFNKLCA@3ddata?2horizon?2hr6am@ DB '3ddata\horizon\hr6am', 00H ; `string'
CONST	ENDS
;	COMDAT ??_C@_0BG@HNFEMJKC@3ddata?2horizon?2lr12am@
CONST	SEGMENT
??_C@_0BG@HNFEMJKC@3ddata?2horizon?2lr12am@ DB '3ddata\horizon\lr12am', 00H ; `string'
CONST	ENDS
;	COMDAT ??_C@_0BF@HKELDACH@3ddata?2horizon?2lr9pm@
CONST	SEGMENT
??_C@_0BF@HKELDACH@3ddata?2horizon?2lr9pm@ DB '3ddata\horizon\lr9pm', 00H ; `string'
CONST	ENDS
;	COMDAT ??_C@_0BF@CCCICAHB@3ddata?2horizon?2lr6pm@
CONST	SEGMENT
??_C@_0BF@CCCICAHB@3ddata?2horizon?2lr6pm@ DB '3ddata\horizon\lr6pm', 00H ; `string'
CONST	ENDS
;	COMDAT ??_C@_0BF@BFPGNAED@3ddata?2horizon?2lr3pm@
CONST	SEGMENT
??_C@_0BF@BFPGNAED@3ddata?2horizon?2lr3pm@ DB '3ddata\horizon\lr3pm', 00H ; `string'
CONST	ENDS
;	COMDAT ??_C@_0BG@GALAAAOF@3ddata?2horizon?2lr12pm@
CONST	SEGMENT
??_C@_0BG@GALAAAOF@3ddata?2horizon?2lr12pm@ DB '3ddata\horizon\lr12pm', 00H ; `string'
CONST	ENDS
;	COMDAT ??_C@_0BF@GHKPPJGA@3ddata?2horizon?2lr9am@
CONST	SEGMENT
??_C@_0BF@GHKPPJGA@3ddata?2horizon?2lr9am@ DB '3ddata\horizon\lr9am', 00H ; `string'
CONST	ENDS
;	COMDAT ??_C@_0BF@DPMMOJDG@3ddata?2horizon?2lr6am@
CONST	SEGMENT
??_C@_0BF@DPMMOJDG@3ddata?2horizon?2lr6am@ DB '3ddata\horizon\lr6am', 00H ; `string'
CONST	ENDS
;	COMDAT ??_C@_0BH@EPBKDDKL@3ddata?2horizon?2dry12am@
CONST	SEGMENT
??_C@_0BH@EPBKDDKL@3ddata?2horizon?2dry12am@ DB '3ddata\horizon\dry12am', 00H ; `string'
CONST	ENDS
;	COMDAT ??_C@_0BG@OMNNNKAL@3ddata?2horizon?2dry9pm@
CONST	SEGMENT
??_C@_0BG@OMNNNKAL@3ddata?2horizon?2dry9pm@ DB '3ddata\horizon\dry9pm', 00H ; `string'
CONST	ENDS
;	COMDAT ??_C@_0BG@LELOMKFN@3ddata?2horizon?2dry6pm@
CONST	SEGMENT
??_C@_0BG@LELOMKFN@3ddata?2horizon?2dry6pm@ DB '3ddata\horizon\dry6pm', 00H ; `string'
CONST	ENDS
;	COMDAT ??_C@_0BG@IDGADKGP@3ddata?2horizon?2dry3pm@
CONST	SEGMENT
??_C@_0BG@IDGADKGP@3ddata?2horizon?2dry3pm@ DB '3ddata\horizon\dry3pm', 00H ; `string'
CONST	ENDS
;	COMDAT ??_C@_0BH@FCPOPKOM@3ddata?2horizon?2dry12pm@
CONST	SEGMENT
??_C@_0BH@FCPOPKOM@3ddata?2horizon?2dry12pm@ DB '3ddata\horizon\dry12pm', 00H ; `string'
CONST	ENDS
;	COMDAT ??_C@_0BG@PBDJBDEM@3ddata?2horizon?2dry9am@
CONST	SEGMENT
??_C@_0BG@PBDJBDEM@3ddata?2horizon?2dry9am@ DB '3ddata\horizon\dry9am', 00H ; `string'
CONST	ENDS
;	COMDAT ??_C@_0BG@KJFKADBK@3ddata?2horizon?2dry6am@
CONST	SEGMENT
??_C@_0BG@KJFKADBK@3ddata?2horizon?2dry6am@ DB '3ddata\horizon\dry6am', 00H ; `string'
CONST	ENDS
;	COMDAT ??_C@_0BE@DPPOKICC@3ddata?2displace?4bin@
CONST	SEGMENT
??_C@_0BE@DPPOKICC@3ddata?2displace?4bin@ DB '3ddata\displace.bin', 00H ; `string'
CONST	ENDS
;	COMDAT ??_C@_06KIELAJID@3ddata@
CONST	SEGMENT
??_C@_06KIELAJID@3ddata@ DB '3ddata', 00H		; `string'
PUBLIC	?set_application_display_3d_mode@@YGXW4DISPLAY_3D_TINTS@@W4DISPLAY_3D_LIGHT_LEVELS@@W4DISPLAY_3D_NOISE_LEVELS@@@Z ; set_application_display_3d_mode
PUBLIC	?set_3d_detail_levels@@YGXXZ			; set_3d_detail_levels
PUBLIC	?deinitialise_application_3d_system@@YGXXZ	; deinitialise_application_3d_system
PUBLIC	?initialise_application_3d_system@@YGXXZ	; initialise_application_3d_system
END
