; Listing generated by Microsoft (R) Optimizing Compiler Version 19.16.27045.0 

	TITLE	c:\users\nhv90\projects\eech\modules\3d\3dfunc.c
	.686P
	.XMM
	include listing.inc
	.model	flat

INCLUDELIB OLDNAMES

PUBLIC	??_C@_0CD@EANIFNAM@Unable?5to?5create?5vertex?5buffer?3@ ; `string'
PUBLIC	??_C@_0CF@BPGGPPID@Unable?5to?5optimize?5vertex?5buffe@ ; `string'
PUBLIC	??_C@_0BN@GONAICMB@Unable?5to?5lock?5vertex?5buffer@ ; `string'
PUBLIC	??_C@_0CF@CNFGHKEF@Unable?5to?5create?5texture?5surfac@ ; `string'
PUBLIC	??_C@_0CO@IJHOPHMD@Unable?5to?5get?5texture?5surface?5d@ ; `string'
PUBLIC	??_C@_0CF@DKLIBHBL@Unable?5to?5set?5palette?5on?5textur@ ; `string'
PUBLIC	??_C@_0DA@BMGEHPGF@Unable?5to?5create?5texture?5surfac@ ; `string'
PUBLIC	??_C@_0DH@OOMGDHGM@Unable?5to?5create?5texture?5render@ ; `string'
PUBLIC	??_C@_0CF@EHFJKAKG@Unable?5to?5create?5Zbuffer?5surfac@ ; `string'
PUBLIC	??_C@_0CF@NNACDDNH@Unable?5to?5attach?5Zbuffer?5surfac@ ; `string'
EXTRN	_IID_IDirect3D7:BYTE
;	COMDAT ??_C@_0CF@NNACDDNH@Unable?5to?5attach?5Zbuffer?5surfac@
CONST	SEGMENT
??_C@_0CF@NNACDDNH@Unable?5to?5attach?5Zbuffer?5surfac@ DB 'Unable to att'
	DB	'ach Zbuffer surface: %s', 00H		; `string'
CONST	ENDS
;	COMDAT ??_C@_0CF@EHFJKAKG@Unable?5to?5create?5Zbuffer?5surfac@
CONST	SEGMENT
??_C@_0CF@EHFJKAKG@Unable?5to?5create?5Zbuffer?5surfac@ DB 'Unable to cre'
	DB	'ate Zbuffer surface: %s', 00H		; `string'
CONST	ENDS
;	COMDAT ??_C@_0DH@OOMGDHGM@Unable?5to?5create?5texture?5render@
CONST	SEGMENT
??_C@_0DH@OOMGDHGM@Unable?5to?5create?5texture?5render@ DB 'Unable to cre'
	DB	'ate texture render surface: %s ( %d, %d )', 00H ; `string'
CONST	ENDS
;	COMDAT ??_C@_0DA@BMGEHPGF@Unable?5to?5create?5texture?5surfac@
CONST	SEGMENT
??_C@_0DA@BMGEHPGF@Unable?5to?5create?5texture?5surfac@ DB 'Unable to cre'
	DB	'ate texture surface: %s ( %d, %d )', 00H	; `string'
CONST	ENDS
;	COMDAT ??_C@_0CF@DKLIBHBL@Unable?5to?5set?5palette?5on?5textur@
CONST	SEGMENT
??_C@_0CF@DKLIBHBL@Unable?5to?5set?5palette?5on?5textur@ DB 'Unable to se'
	DB	't palette on texture: %s', 00H		; `string'
CONST	ENDS
;	COMDAT ??_C@_0CO@IJHOPHMD@Unable?5to?5get?5texture?5surface?5d@
CONST	SEGMENT
??_C@_0CO@IJHOPHMD@Unable?5to?5get?5texture?5surface?5d@ DB 'Unable to ge'
	DB	't texture surface description: %s', 00H	; `string'
CONST	ENDS
;	COMDAT ??_C@_0CF@CNFGHKEF@Unable?5to?5create?5texture?5surfac@
CONST	SEGMENT
??_C@_0CF@CNFGHKEF@Unable?5to?5create?5texture?5surfac@ DB 'Unable to cre'
	DB	'ate texture surface: %s', 00H		; `string'
CONST	ENDS
;	COMDAT ??_C@_0BN@GONAICMB@Unable?5to?5lock?5vertex?5buffer@
CONST	SEGMENT
??_C@_0BN@GONAICMB@Unable?5to?5lock?5vertex?5buffer@ DB 'Unable to lock v'
	DB	'ertex buffer', 00H				; `string'
CONST	ENDS
;	COMDAT ??_C@_0CF@BPGGPPID@Unable?5to?5optimize?5vertex?5buffe@
CONST	SEGMENT
??_C@_0CF@BPGGPPID@Unable?5to?5optimize?5vertex?5buffe@ DB 'Unable to opt'
	DB	'imize vertex buffer: %s', 00H		; `string'
CONST	ENDS
;	COMDAT ??_C@_0CD@EANIFNAM@Unable?5to?5create?5vertex?5buffer?3@
CONST	SEGMENT
??_C@_0CD@EANIFNAM@Unable?5to?5create?5vertex?5buffer?3@ DB 'Unable to cr'
	DB	'eate vertex buffer: %s', 00H		; `string'
PUBLIC	?f3d_context_leave@@YGXXZ			; f3d_context_leave
PUBLIC	?f3d_context_set@@YGXXZ				; f3d_context_set
PUBLIC	?f3d_test_video_resolution@@YGHHHH@Z		; f3d_test_video_resolution
PUBLIC	?f3d_pixel_size@@YGIXZ				; f3d_pixel_size
PUBLIC	?f3d_texture_unlock@@YGHPAUSCREEN@@@Z		; f3d_texture_unlock
PUBLIC	?f3d_texture_lock@@YGHPAUSCREEN@@H@Z		; f3d_texture_lock
PUBLIC	?f3d_texture_restore@@YGXPAUSCREEN@@@Z		; f3d_texture_restore
PUBLIC	?f3d_texture_release@@YGHPAUSCREEN@@@Z		; f3d_texture_release
PUBLIC	?f3d_texture_create@@YGXPAUSCREEN@@HHIHH@Z	; f3d_texture_create
PUBLIC	?f3d_evict_textures@@YGXXZ			; f3d_evict_textures
PUBLIC	?f3d_enumerate_formats@@YGHP6GJPAU_DDPIXELFORMAT@@PAX@Z1@Z ; f3d_enumerate_formats
PUBLIC	?f3d_set_3d_render_target@@YGHPAUSCREEN@@@Z	; f3d_set_3d_render_target
PUBLIC	?f3d_clear_screen@@YGXXZ			; f3d_clear_screen
PUBLIC	?f3d_clear_zbuffer@@YGXXZ			; f3d_clear_zbuffer
PUBLIC	?f3d_surface_release@@YGXPAPAUIDirectDrawSurface7@@@Z ; f3d_surface_release
PUBLIC	?f3d_surface_blt@@YGXPAUIDirectDrawSurface7@@PAUtagRECT@@01IPAU_DDBLTFX@@@Z ; f3d_surface_blt
PUBLIC	?f3d_surface_palette@@YGXPAUIDirectDrawSurface7@@PAUIDirectDrawPalette@@@Z ; f3d_surface_palette
PUBLIC	?f3d_surface_render@@YGPAUIDirectDrawSurface7@@XZ ; f3d_surface_render
PUBLIC	?f3d_surface_front@@YGPAUIDirectDrawSurface7@@XZ ; f3d_surface_front
PUBLIC	?f3d_surface_description@@YGXPAUIDirectDrawSurface7@@PAU_DDSURFACEDESC2@@@Z ; f3d_surface_description
PUBLIC	?f3d_surface_create@@YGHPAU_DDSURFACEDESC2@@PAPAUIDirectDrawSurface7@@@Z ; f3d_surface_create
PUBLIC	?f3d_palette_create@@YGXPAUtagPALETTEENTRY@@PAPAUIDirectDrawPalette@@@Z ; f3d_palette_create
PUBLIC	?f3d_scene_end@@YGHXZ				; f3d_scene_end
PUBLIC	?f3d_scene_begin@@YGHXZ				; f3d_scene_begin
PUBLIC	?f3d_set_material@@YGXPAU_D3DMATERIAL7@@@Z	; f3d_set_material
PUBLIC	?f3d_set_texture_state@@YGXIII@Z		; f3d_set_texture_state
PUBLIC	?f3d_set_texture@@YGXIPAUSCREEN@@@Z		; f3d_set_texture
PUBLIC	?f3d_render_state@@YGXII@Z			; f3d_render_state
PUBLIC	?f3d_zbuffer_clear@@YGXM@Z			; f3d_zbuffer_clear
PUBLIC	?f3d_draw@@YGXIPAUIDirect3DVertexBuffer7@@II@Z	; f3d_draw
PUBLIC	?f3d_vertex_lock_strict@@YGXPAUIDirect3DVertexBuffer7@@IPAPAX@Z ; f3d_vertex_lock_strict
PUBLIC	?f3d_vertex_create@@YGXPAU_D3DVERTEXBUFFERDESC@@PAPAUIDirect3DVertexBuffer7@@@Z ; f3d_vertex_create
PUBLIC	?f3d_vertex_release@@YGXPAPAUIDirect3DVertexBuffer7@@@Z ; f3d_vertex_release
PUBLIC	?f3d_vertex_lock@@YGHPAUIDirect3DVertexBuffer7@@IPAPAX@Z ; f3d_vertex_lock
PUBLIC	?f3d_vertex_unlock@@YGXPAUIDirect3DVertexBuffer7@@@Z ; f3d_vertex_unlock
PUBLIC	?f3d_draw_vb@@YGXIPAUIDirect3DVertexBuffer7@@IIPAGI@Z ; f3d_draw_vb
PUBLIC	?f3d_set_light@@YGXIPAU_D3DLIGHT7@@@Z		; f3d_set_light
PUBLIC	?f3d_light_enable@@YGXII@Z			; f3d_light_enable
PUBLIC	?f3d_set_transform@@YGXIPAU_D3DMATRIX@@@Z	; f3d_set_transform
PUBLIC	?f3d_set_viewport@@YGHPAU_D3DVIEWPORT7@@@Z	; f3d_set_viewport
END
