; Listing generated by Microsoft (R) Optimizing Compiler Version 19.16.27045.0 

	TITLE	c:\users\nhv90\projects\eech\modules\3d\3dline.c
	.686P
	.XMM
	include listing.inc
	.model	flat

INCLUDELIB OLDNAMES

PUBLIC	?number_of_3d_polylines@@3HA			; number_of_3d_polylines
PUBLIC	?number_of_3d_polyline_points@@3HA		; number_of_3d_polyline_points
PUBLIC	?polyline_headers@@3PAUPOLYLINE_HEADER@@A	; polyline_headers
PUBLIC	?polyline_points@@3PAUPOLYLINE_POINT@@A		; polyline_points
?number_of_3d_polylines@@3HA DD 01H DUP (?)		; number_of_3d_polylines
?number_of_3d_polyline_points@@3HA DD 01H DUP (?)	; number_of_3d_polyline_points
?polyline_headers@@3PAUPOLYLINE_HEADER@@A DB 03000H DUP (?) ; polyline_headers
?polyline_points@@3PAUPOLYLINE_POINT@@A DB 026020H DUP (?) ; polyline_points
_BSS	ENDS
PUBLIC	?draw_3d_polyline@@YGXPAUOBJECT_3D_POLYLINE@@@Z	; draw_3d_polyline
PUBLIC	?reset_3d_polylines@@YGXXZ			; reset_3d_polylines
PUBLIC	?insert_3d_line_into_3d_scene@@YGHUREAL_COLOUR@@PAUVEC3D@@1@Z ; insert_3d_line_into_3d_scene
PUBLIC	?insert_zbiased_polyline_into_3d_scene@@YGHHMHUREAL_COLOUR@@PAUVEC3D@@@Z ; insert_zbiased_polyline_into_3d_scene
END
