; Listing generated by Microsoft (R) Optimizing Compiler Version 19.16.27045.0 

	TITLE	c:\users\nhv90\projects\eech\modules\3d\3dobjvb.c
	.686P
	.XMM
	include listing.inc
	.model	flat

INCLUDELIB OLDNAMES

PUBLIC	?number_of_d3d_vbs@@3PAY03HA			; number_of_d3d_vbs
PUBLIC	?object_3d_d3d_vb_indices@@3PAY03PAGA		; object_3d_d3d_vb_indices
PUBLIC	?object_3d_vb_slot_references@@3PAPAUD3D_VB_OBJECT_3D_INFO@@A ; object_3d_vb_slot_references
PUBLIC	?number_of_d3d_vb_slots@@3PAY03HA		; number_of_d3d_vb_slots
PUBLIC	?d3d_vb_slots_head@@3PAY03PAUD3D_VB_OBJECT_3D_INFO@@A ; d3d_vb_slots_head
PUBLIC	?d3d_vb_slots_tail@@3PAY03PAUD3D_VB_OBJECT_3D_INFO@@A ; d3d_vb_slots_tail
PUBLIC	?object_3d_d3d_vbs@@3PAY03PAPAUIDirect3DVertexBuffer7@@A ; object_3d_d3d_vbs
PUBLIC	?d3d_vb_slots@@3PAY03PAUD3D_VB_OBJECT_3D_INFO@@A ; d3d_vb_slots
PUBLIC	?d3d_hardware_vertex_indices@@3PAGA		; d3d_hardware_vertex_indices
;	COMDAT ?object_vbs_restore_registered@?1??initialise_3d_objects_in_d3d@@YGXXZ@4HA
_BSS	SEGMENT
?object_vbs_restore_registered@?1??initialise_3d_objects_in_d3d@@YGXXZ@4HA DD 01H DUP (?) ; `initialise_3d_objects_in_d3d'::`2'::object_vbs_restore_registered
?number_of_d3d_vbs@@3PAY03HA DD 0cH DUP (?)		; number_of_d3d_vbs
?object_3d_d3d_vb_indices@@3PAY03PAGA DD 0cH DUP (?)	; object_3d_d3d_vb_indices
?object_3d_vb_slot_references@@3PAPAUD3D_VB_OBJECT_3D_INFO@@A DD 01H DUP (?) ; object_3d_vb_slot_references
?number_of_d3d_vb_slots@@3PAY03HA DD 0cH DUP (?)	; number_of_d3d_vb_slots
?d3d_vb_slots_head@@3PAY03PAUD3D_VB_OBJECT_3D_INFO@@A DD 0cH DUP (?) ; d3d_vb_slots_head
?d3d_vb_slots_tail@@3PAY03PAUD3D_VB_OBJECT_3D_INFO@@A DD 0cH DUP (?) ; d3d_vb_slots_tail
?object_3d_d3d_vbs@@3PAY03PAPAUIDirect3DVertexBuffer7@@A DD 0cH DUP (?) ; object_3d_d3d_vbs
?d3d_vb_slots@@3PAY03PAUD3D_VB_OBJECT_3D_INFO@@A DD 0cH DUP (?) ; d3d_vb_slots
?d3d_hardware_vertex_indices@@3PAGA DW 0400H DUP (?)	; d3d_hardware_vertex_indices
_BSS	ENDS
PUBLIC	?object_3d_render_hardware_surface@@YGXPAUOBJECT_3D@@@Z ; object_3d_render_hardware_surface
PUBLIC	?initialise_3d_objects_in_d3d@@YGXXZ		; initialise_3d_objects_in_d3d
PUBLIC	?deinitialise_3d_objects_in_d3d@@YGXXZ		; deinitialise_3d_objects_in_d3d
END
