; Listing generated by Microsoft (R) Optimizing Compiler Version 19.16.27045.0 

	TITLE	c:\users\nhv90\projects\eech\modules\3d\3dview.c
	.686P
	.XMM
	include listing.inc
	.model	flat

INCLUDELIB OLDNAMES

PUBLIC	?visual_3d_vp@@3PAUVIEWPOINT@@A			; visual_3d_vp
PUBLIC	??_C@_0DH@JOGHONPK@Trying?5to?5set?5an?5unknown?5light?5@ ; `string'
PUBLIC	??_C@_0CC@HAAIBGLP@Unknown?5fogmode?5in?5set_3d_fogmo@ ; `string'
PUBLIC	??_C@_0BA@NCMBJOGI@Unknown?5fogmode@		; `string'
PUBLIC	?active_3d_environment@@3PAUENV_3D@@A		; active_3d_environment
PUBLIC	?current_3d_viewangle_distance_conversion_factor@@3MA ; current_3d_viewangle_distance_conversion_factor
?visual_3d_vp@@3PAUVIEWPOINT@@A DD 01H DUP (?)		; visual_3d_vp
?active_3d_environment@@3PAUENV_3D@@A DD 01H DUP (?)	; active_3d_environment
?current_3d_viewangle_distance_conversion_factor@@3MA DD 01H DUP (?) ; current_3d_viewangle_distance_conversion_factor
_BSS	ENDS
;	COMDAT ??_C@_0BA@NCMBJOGI@Unknown?5fogmode@
CONST	SEGMENT
??_C@_0BA@NCMBJOGI@Unknown?5fogmode@ DB 'Unknown fogmode', 00H ; `string'
CONST	ENDS
;	COMDAT ??_C@_0CC@HAAIBGLP@Unknown?5fogmode?5in?5set_3d_fogmo@
CONST	SEGMENT
??_C@_0CC@HAAIBGLP@Unknown?5fogmode?5in?5set_3d_fogmo@ DB 'Unknown fogmod'
	DB	'e in set_3d_fogmode', 00H			; `string'
CONST	ENDS
;	COMDAT ??_C@_0DH@JOGHONPK@Trying?5to?5set?5an?5unknown?5light?5@
CONST	SEGMENT
??_C@_0DH@JOGHONPK@Trying?5to?5set?5an?5unknown?5light?5@ DB 'Trying to s'
	DB	'et an unknown light mode for 3d environment', 00H ; `string'
PUBLIC	?realise_3d_fogmode@@YGXPAUENV_3D@@@Z		; realise_3d_fogmode
PUBLIC	?realise_3d_lightmode@@YGXPAUENV_3D@@@Z		; realise_3d_lightmode
PUBLIC	?realise_3d_viewpoint@@YGXPAUENV_3D@@@Z		; realise_3d_viewpoint
PUBLIC	?realise_3d_shadow_setting@@YGXPAUENV_3D@@@Z	; realise_3d_shadow_setting
PUBLIC	?realise_3d_clip_extents@@YGXPAUENV_3D@@@Z	; realise_3d_clip_extents
PUBLIC	?get_3d_fog_distances@@YGXPAUENV_3D@@PAM1@Z	; get_3d_fog_distances
PUBLIC	?get_3d_view_distances@@YGXPAUENV_3D@@PAM1@Z	; get_3d_view_distances
PUBLIC	?set_3d_lightmode@@YGXPAUENV_3D@@W4LIGHTMODES@@@Z ; set_3d_lightmode
PUBLIC	?set_3d_fogmode@@YGXPAUENV_3D@@W4FOGMODES@@@Z	; set_3d_fogmode
PUBLIC	?set_3d_fog_distances@@YGXPAUENV_3D@@MM@Z	; set_3d_fog_distances
PUBLIC	?set_3d_viewpoint@@YGXPAUENV_3D@@PAUVIEWPOINT@@@Z ; set_3d_viewpoint
PUBLIC	?set_3d_view_distances@@YGXPAUENV_3D@@MMMM@Z	; set_3d_view_distances
PUBLIC	?set_3d_origin@@YGXPAUENV_3D@@MM@Z		; set_3d_origin
PUBLIC	?set_3d_viewcone@@YGXPAUENV_3D@@MMMM@Z		; set_3d_viewcone
PUBLIC	?set_3d_viewport@@YGXPAUENV_3D@@MMMM@Z		; set_3d_viewport
PUBLIC	?get_3d_viewport@@YGXPAUENV_3D@@PAM111@Z	; get_3d_viewport
END
