; Listing generated by Microsoft (R) Optimizing Compiler Version 19.16.27045.0 

	TITLE	c:\users\nhv90\projects\eech\aphavoc\source\entity\special\bridge\bridge.c
	.686P
	.XMM
	include listing.inc
	.model	flat

INCLUDELIB OLDNAMES

PUBLIC	??_C@_0BB@OMLBFHIA@route?2bridge?4pop@		; `string'
PUBLIC	??_C@_0BB@FNDIHPEG@route?2bridge?4dat@		; `string'
PUBLIC	??_C@_0EA@NBHJHDC@BRIDGE?3?5suitable?5type?5counter?5?$DN@ ; `string'
PUBLIC	??_C@_0BO@LAGOEHEJ@BRIDGE?5?3?5No?5Valid?5Types?5Found@ ; `string'
PUBLIC	?valid_warzone_bridges@@3PADA			; valid_warzone_bridges
?valid_warzone_bridges@@3PADA DB 08H DUP (?)		; valid_warzone_bridges
_BSS	ENDS
;	COMDAT ??_C@_0BO@LAGOEHEJ@BRIDGE?5?3?5No?5Valid?5Types?5Found@
CONST	SEGMENT
??_C@_0BO@LAGOEHEJ@BRIDGE?5?3?5No?5Valid?5Types?5Found@ DB 'BRIDGE : No V'
	DB	'alid Types Found', 00H			; `string'
CONST	ENDS
;	COMDAT ??_C@_0EA@NBHJHDC@BRIDGE?3?5suitable?5type?5counter?5?$DN@
CONST	SEGMENT
??_C@_0EA@NBHJHDC@BRIDGE?3?5suitable?5type?5counter?5?$DN@ DB 'BRIDGE: su'
	DB	'itable type counter = %d, but no suitable types found', 00H ; `string'
CONST	ENDS
;	COMDAT ??_C@_0BB@FNDIHPEG@route?2bridge?4dat@
CONST	SEGMENT
??_C@_0BB@FNDIHPEG@route?2bridge?4dat@ DB 'route\bridge.dat', 00H ; `string'
CONST	ENDS
;	COMDAT ??_C@_0BB@OMLBFHIA@route?2bridge?4pop@
CONST	SEGMENT
??_C@_0BB@OMLBFHIA@route?2bridge?4pop@ DB 'route\bridge.pop', 00H ; `string'
PUBLIC	?repair_local_bridge_entity@@YGXPAUENTITY@@@Z	; repair_local_bridge_entity
PUBLIC	?get_most_suitable_bridge_type@@YGHPAUVEC3D@@0M@Z ; get_most_suitable_bridge_type
PUBLIC	?create_local_bridge_entities@@YGXW4PACK_MODES@@@Z ; create_local_bridge_entities
PUBLIC	?create_bridge@@YGPAUENTITY@@PAUVEC3D@@0HHHM@Z	; create_bridge
PUBLIC	?initialise_valid_warzone_bridge_database@@YGXXZ ; initialise_valid_warzone_bridge_database
PUBLIC	?repair_client_server_bridge_entity@@YGXPAUENTITY@@@Z ; repair_client_server_bridge_entity
END
