; Listing generated by Microsoft (R) Optimizing Compiler Version 19.16.27045.0 

	TITLE	c:\users\nhv90\projects\eech\aphavoc\source\ui_menu\ingame\campaign\ca_brief.c
	.686P
	.XMM
	include listing.inc
	.model	flat

INCLUDELIB OLDNAMES

PUBLIC	??_C@_08HJFJOAMM@Briefing@			; `string'
PUBLIC	??_C@_06DOPBEMKJ@?$CFs?5?$CD?$CFd@		; `string'
PUBLIC	??_C@_0L@HGGFBAAD@Unassigned@			; `string'
PUBLIC	??_C@_07DABPCBEH@Expires@			; `string'
PUBLIC	??_C@_06IBDOBMFG@?$CFs?5?3?5?5@			; `string'
PUBLIC	??_C@_0N@OACKFMDA@Elapsed?5Time@		; `string'
PUBLIC	??_C@_0O@FOJDFJFB@Clear?5and?5dry@		; `string'
PUBLIC	??_C@_0L@PNKPNJKD@Light?5rain@			; `string'
PUBLIC	??_C@_0BH@LGFJCMBN@Stormy?5with?5heavy?5rain@	; `string'
PUBLIC	??_C@_04LOGCFOOF@Snow@				; `string'
PUBLIC	??_C@_05FPOHJMOI@North@				; `string'
PUBLIC	??_C@_09MCIFADKN@Northeast@			; `string'
PUBLIC	??_C@_04DHLACFEG@East@				; `string'
PUBLIC	??_C@_09BKBAAAOM@Southeast@			; `string'
PUBLIC	??_C@_05HNHILFBE@South@				; `string'
PUBLIC	??_C@_09IPFCFDFJ@Southwest@			; `string'
PUBLIC	??_C@_04KCPCHGPD@West@				; `string'
PUBLIC	??_C@_09FHMHFABI@Northwest@			; `string'
PUBLIC	??_C@_05DJAPGADD@Knots@				; `string'
PUBLIC	??_C@_06MFLFNBF@?5?$CFd?5?$CFs@			; `string'
PUBLIC	??_C@_0O@HNIDPGNE@Est?4?5Duration@		; `string'
PUBLIC	??_C@_0L@NPPEPAHE@Start?5Base@			; `string'
PUBLIC	??_C@_0N@CNGNIIPB@Landing?5Base@		; `string'
PUBLIC	??_C@_05MBDCODDP@Group@				; `string'
PUBLIC	??_C@_09BFBOLFMF@Objective@			; `string'
PUBLIC	??_C@_07HOMNOOKI@Weather@			; `string'
PUBLIC	??_C@_09NFKGPKNO@Locked?5By@			; `string'
PUBLIC	??_C@_0CE@MKDJOFDM@graphics?2ui?2cohokum?2map?2acptbtn@ ; `string'
PUBLIC	??_C@_0P@EKIAOHIC@Accept?5Mission@		; `string'
PUBLIC	?mission_accept_button@@3PAUUI_OBJECT@@A	; mission_accept_button
?mission_accept_button@@3PAUUI_OBJECT@@A DD 01H DUP (?)	; mission_accept_button
_BSS	ENDS
;	COMDAT ??_C@_0P@EKIAOHIC@Accept?5Mission@
CONST	SEGMENT
??_C@_0P@EKIAOHIC@Accept?5Mission@ DB 'Accept Mission', 00H ; `string'
CONST	ENDS
;	COMDAT ??_C@_0CE@MKDJOFDM@graphics?2ui?2cohokum?2map?2acptbtn@
CONST	SEGMENT
??_C@_0CE@MKDJOFDM@graphics?2ui?2cohokum?2map?2acptbtn@ DB 'graphics\ui\c'
	DB	'ohokum\map\acptbtn.psd', 00H		; `string'
CONST	ENDS
;	COMDAT ??_C@_09NFKGPKNO@Locked?5By@
CONST	SEGMENT
??_C@_09NFKGPKNO@Locked?5By@ DB 'Locked By', 00H	; `string'
CONST	ENDS
;	COMDAT ??_C@_07HOMNOOKI@Weather@
CONST	SEGMENT
??_C@_07HOMNOOKI@Weather@ DB 'Weather', 00H		; `string'
CONST	ENDS
;	COMDAT ??_C@_09BFBOLFMF@Objective@
CONST	SEGMENT
??_C@_09BFBOLFMF@Objective@ DB 'Objective', 00H		; `string'
CONST	ENDS
;	COMDAT ??_C@_05MBDCODDP@Group@
CONST	SEGMENT
??_C@_05MBDCODDP@Group@ DB 'Group', 00H			; `string'
CONST	ENDS
;	COMDAT ??_C@_0N@CNGNIIPB@Landing?5Base@
CONST	SEGMENT
??_C@_0N@CNGNIIPB@Landing?5Base@ DB 'Landing Base', 00H	; `string'
CONST	ENDS
;	COMDAT ??_C@_0L@NPPEPAHE@Start?5Base@
CONST	SEGMENT
??_C@_0L@NPPEPAHE@Start?5Base@ DB 'Start Base', 00H	; `string'
CONST	ENDS
;	COMDAT ??_C@_0O@HNIDPGNE@Est?4?5Duration@
CONST	SEGMENT
??_C@_0O@HNIDPGNE@Est?4?5Duration@ DB 'Est. Duration', 00H ; `string'
CONST	ENDS
;	COMDAT ??_C@_06MFLFNBF@?5?$CFd?5?$CFs@
CONST	SEGMENT
??_C@_06MFLFNBF@?5?$CFd?5?$CFs@ DB ' %d %s', 00H	; `string'
CONST	ENDS
;	COMDAT ??_C@_05DJAPGADD@Knots@
CONST	SEGMENT
??_C@_05DJAPGADD@Knots@ DB 'Knots', 00H			; `string'
CONST	ENDS
;	COMDAT ??_C@_09FHMHFABI@Northwest@
CONST	SEGMENT
??_C@_09FHMHFABI@Northwest@ DB 'Northwest', 00H		; `string'
CONST	ENDS
;	COMDAT ??_C@_04KCPCHGPD@West@
CONST	SEGMENT
??_C@_04KCPCHGPD@West@ DB 'West', 00H			; `string'
CONST	ENDS
;	COMDAT ??_C@_09IPFCFDFJ@Southwest@
CONST	SEGMENT
??_C@_09IPFCFDFJ@Southwest@ DB 'Southwest', 00H		; `string'
CONST	ENDS
;	COMDAT ??_C@_05HNHILFBE@South@
CONST	SEGMENT
??_C@_05HNHILFBE@South@ DB 'South', 00H			; `string'
CONST	ENDS
;	COMDAT ??_C@_09BKBAAAOM@Southeast@
CONST	SEGMENT
??_C@_09BKBAAAOM@Southeast@ DB 'Southeast', 00H		; `string'
CONST	ENDS
;	COMDAT ??_C@_04DHLACFEG@East@
CONST	SEGMENT
??_C@_04DHLACFEG@East@ DB 'East', 00H			; `string'
CONST	ENDS
;	COMDAT ??_C@_09MCIFADKN@Northeast@
CONST	SEGMENT
??_C@_09MCIFADKN@Northeast@ DB 'Northeast', 00H		; `string'
CONST	ENDS
;	COMDAT ??_C@_05FPOHJMOI@North@
CONST	SEGMENT
??_C@_05FPOHJMOI@North@ DB 'North', 00H			; `string'
CONST	ENDS
;	COMDAT ??_C@_04LOGCFOOF@Snow@
CONST	SEGMENT
??_C@_04LOGCFOOF@Snow@ DB 'Snow', 00H			; `string'
CONST	ENDS
;	COMDAT ??_C@_0BH@LGFJCMBN@Stormy?5with?5heavy?5rain@
CONST	SEGMENT
??_C@_0BH@LGFJCMBN@Stormy?5with?5heavy?5rain@ DB 'Stormy with heavy rain', 00H ; `string'
CONST	ENDS
;	COMDAT ??_C@_0L@PNKPNJKD@Light?5rain@
CONST	SEGMENT
??_C@_0L@PNKPNJKD@Light?5rain@ DB 'Light rain', 00H	; `string'
CONST	ENDS
;	COMDAT ??_C@_0O@FOJDFJFB@Clear?5and?5dry@
CONST	SEGMENT
??_C@_0O@FOJDFJFB@Clear?5and?5dry@ DB 'Clear and dry', 00H ; `string'
CONST	ENDS
;	COMDAT ??_C@_0N@OACKFMDA@Elapsed?5Time@
CONST	SEGMENT
??_C@_0N@OACKFMDA@Elapsed?5Time@ DB 'Elapsed Time', 00H	; `string'
CONST	ENDS
;	COMDAT ??_C@_06IBDOBMFG@?$CFs?5?3?5?5@
CONST	SEGMENT
??_C@_06IBDOBMFG@?$CFs?5?3?5?5@ DB '%s :  ', 00H	; `string'
CONST	ENDS
;	COMDAT ??_C@_07DABPCBEH@Expires@
CONST	SEGMENT
??_C@_07DABPCBEH@Expires@ DB 'Expires', 00H		; `string'
CONST	ENDS
;	COMDAT ??_C@_0L@HGGFBAAD@Unassigned@
CONST	SEGMENT
??_C@_0L@HGGFBAAD@Unassigned@ DB 'Unassigned', 00H	; `string'
CONST	ENDS
;	COMDAT ??_C@_06DOPBEMKJ@?$CFs?5?$CD?$CFd@
CONST	SEGMENT
??_C@_06DOPBEMKJ@?$CFs?5?$CD?$CFd@ DB '%s #%d', 00H	; `string'
CONST	ENDS
;	COMDAT ??_C@_08HJFJOAMM@Briefing@
CONST	SEGMENT
??_C@_08HJFJOAMM@Briefing@ DB 'Briefing', 00H		; `string'
PUBLIC	?resize_briefing_list_size@@YGXPAUUI_OBJECT@@@Z	; resize_briefing_list_size
PUBLIC	?add_briefing_text_to_list@@YGXPAUUI_OBJECT@@PBD@Z ; add_briefing_text_to_list
PUBLIC	?overload_briefing_page_message_responses@@YGXXZ ; overload_briefing_page_message_responses
PUBLIC	?show_briefing_page@@YGXPAUENTITY@@H@Z		; show_briefing_page
PUBLIC	?initialise_campaign_screen_briefing_page_objects@@YGXXZ ; initialise_campaign_screen_briefing_page_objects
PUBLIC	?define_campaign_screen_briefing_page_objects@@YGXXZ ; define_campaign_screen_briefing_page_objects
PUBLIC	?initialise_campaign_screen_3d_textures@@YGXXZ	; initialise_campaign_screen_3d_textures
PUBLIC	?deinitialise_campaign_screen_3d_textures@@YGXXZ ; deinitialise_campaign_screen_3d_textures
?briefing_text_area@@3PAUUI_OBJECT@@A DD 01H DUP (?)	; briefing_text_area
?briefing_text_list@@3PAUUI_OBJECT@@A DD 01H DUP (?)	; briefing_text_list
?briefing_page_title@@3PAUUI_OBJECT@@A DD 01H DUP (?)	; briefing_page_title
?briefing_page_type@@3PAUUI_OBJECT@@A DD 01H DUP (?)	; briefing_page_type
?briefing_page_takeoff_base_box@@3PAUUI_OBJECT@@A DD 01H DUP (?) ; briefing_page_takeoff_base_box
?briefing_page_landing_base_box@@3PAUUI_OBJECT@@A DD 01H DUP (?) ; briefing_page_landing_base_box
?briefing_page_group_box@@3PAUUI_OBJECT@@A DD 01H DUP (?) ; briefing_page_group_box
?briefing_page_objective_box@@3PAUUI_OBJECT@@A DD 01H DUP (?) ; briefing_page_objective_box
?briefing_page_status_box@@3PAUUI_OBJECT@@A DD 01H DUP (?) ; briefing_page_status_box
?briefing_page_expire_elapsed_text_box@@3PAUUI_OBJECT@@A DD 01H DUP (?) ; briefing_page_expire_elapsed_text_box
?briefing_page_expire_time_box@@3PAUUI_OBJECT@@A DD 01H DUP (?) ; briefing_page_expire_time_box
?briefing_page_duration_time_box@@3PAUUI_OBJECT@@A DD 01H DUP (?) ; briefing_page_duration_time_box
?briefing_page_weather_box@@3PAUUI_OBJECT@@A DD 01H DUP (?) ; briefing_page_weather_box
?briefing_page_wind_box@@3PAUUI_OBJECT@@A DD 01H DUP (?) ; briefing_page_wind_box
?briefing_page_pilot_lock_box@@3PAUUI_OBJECT@@A DD 01H DUP (?) ; briefing_page_pilot_lock_box
?page_map_area@@3PAUUI_OBJECT@@A DD 01H DUP (?)		; page_map_area
?page_map_view_area@@3PAUUI_OBJECT@@A DD 01H DUP (?)	; page_map_view_area
?page_map_view_mode_area@@3PAUUI_OBJECT@@A DD 01H DUP (?) ; page_map_view_mode_area
?page_map_toggle@@3PAUUI_OBJECT@@A DD 01H DUP (?)	; page_map_toggle
?page_3d_area@@3PAUUI_OBJECT@@A DD 01H DUP (?)		; page_3d_area
?page_3d_toggle@@3PAUUI_OBJECT@@A DD 01H DUP (?)	; page_3d_toggle
?page_back_button@@3PAUUI_OBJECT@@A DD 01H DUP (?)	; page_back_button
?page_map_dimensions@@3UMAP_DIMENSION_TYPE@@A DB 06cH DUP (?) ; page_map_dimensions
?preview_texture_screen@@3PAUSCREEN@@A DD 01H DUP (?)	; preview_texture_screen
_BSS	ENDS
;	COMDAT ?text3@?1??show_briefing_page@@YGXPAUENTITY@@H@Z@4PADA
_BSS	SEGMENT
?text3@?1??show_briefing_page@@YGXPAUENTITY@@H@Z@4PADA DB 0400H DUP (?) ; `show_briefing_page'::`2'::text3
_BSS	ENDS
;	COMDAT ?text2@?1??show_briefing_page@@YGXPAUENTITY@@H@Z@4PADA
_BSS	SEGMENT
?text2@?1??show_briefing_page@@YGXPAUENTITY@@H@Z@4PADA DB 0400H DUP (?) ; `show_briefing_page'::`2'::text2
_BSS	ENDS
;	COMDAT ?text1@?1??show_briefing_page@@YGXPAUENTITY@@H@Z@4PADA
_BSS	SEGMENT
?text1@?1??show_briefing_page@@YGXPAUENTITY@@H@Z@4PADA DB 0400H DUP (?) ; `show_briefing_page'::`2'::text1
_BSS	ENDS
;	COMDAT ?text@?1??show_briefing_page@@YGXPAUENTITY@@H@Z@4PADA
_BSS	SEGMENT
?text@?1??show_briefing_page@@YGXPAUENTITY@@H@Z@4PADA DB 0c00H DUP (?) ; `show_briefing_page'::`2'::text
_BSS	ENDS
;	COMDAT ?s@?1??show_briefing_page@@YGXPAUENTITY@@H@Z@4PADA
_BSS	SEGMENT
?s@?1??show_briefing_page@@YGXPAUENTITY@@H@Z@4PADA DB 080H DUP (?) ; `show_briefing_page'::`2'::s
_BSS	ENDS
;	COMDAT ?objective_name@?1??show_briefing_page@@YGXPAUENTITY@@H@Z@4PBDB
_BSS	SEGMENT
?objective_name@?1??show_briefing_page@@YGXPAUENTITY@@H@Z@4PBDB DD 01H DUP (?) ; `show_briefing_page'::`2'::objective_name
_BSS	ENDS
END
