; Listing generated by Microsoft (R) Optimizing Compiler Version 19.16.27045.0 

	TITLE	c:\users\nhv90\projects\eech\aphavoc\source\ui_menu\ingame\campaign\ca_hist.c
	.686P
	.XMM
	include listing.inc
	.model	flat

INCLUDELIB OLDNAMES

PUBLIC	??_C@_0CE@DPJEDMLG@graphics?2ui?2cohokum?2map?2barryel@ ; `string'
PUBLIC	??_C@_0CE@KEEMMPLC@graphics?2ui?2cohokum?2map?2barrwht@ ; `string'
PUBLIC	??_C@_0CE@PGLGEHDN@graphics?2ui?2cohokum?2map?2barrprp@ ; `string'
;	COMDAT ??_C@_0CE@PGLGEHDN@graphics?2ui?2cohokum?2map?2barrprp@
CONST	SEGMENT
??_C@_0CE@PGLGEHDN@graphics?2ui?2cohokum?2map?2barrprp@ DB 'graphics\ui\c'
	DB	'ohokum\map\barrprp.psd', 00H		; `string'
CONST	ENDS
;	COMDAT ??_C@_0CE@KEEMMPLC@graphics?2ui?2cohokum?2map?2barrwht@
CONST	SEGMENT
??_C@_0CE@KEEMMPLC@graphics?2ui?2cohokum?2map?2barrwht@ DB 'graphics\ui\c'
	DB	'ohokum\map\barrwht.psd', 00H		; `string'
CONST	ENDS
;	COMDAT ??_C@_0CE@DPJEDMLG@graphics?2ui?2cohokum?2map?2barryel@
CONST	SEGMENT
??_C@_0CE@DPJEDMLG@graphics?2ui?2cohokum?2map?2barryel@ DB 'graphics\ui\c'
	DB	'ohokum\map\barryel.psd', 00H		; `string'
PUBLIC	?overload_campaign_history_message_responses@@YGXXZ ; overload_campaign_history_message_responses
PUBLIC	?remove_campaign_page_from_history@@YGXW4CAMPAIGN_PAGES@@@Z ; remove_campaign_page_from_history
PUBLIC	?pop_campaign_history@@YGXPAUUI_OBJECT@@PAX@Z	; pop_campaign_history
PUBLIC	?get_campaign_history_valid@@YGHXZ		; get_campaign_history_valid
PUBLIC	?define_campaign_page_back_button@@YGXPAUUI_OBJECT@@PAPAU1@@Z ; define_campaign_page_back_button
PUBLIC	?initialise_campaign_history@@YGXXZ		; initialise_campaign_history
PUBLIC	?push_campaign_history@@YGXW4CAMPAIGN_PAGES@@H@Z ; push_campaign_history
	ALIGN	8

?campaign_history@@3PAUCAMPAIGN_HISTORY_TYPE@@A DQ 018H DUP (?) ; campaign_history
?temp@@3PAUCAMPAIGN_HISTORY_TYPE@@A DQ 018H DUP (?)	; temp
?pop_flag@@3HA DD 01H DUP (?)				; pop_flag
?num_campaign_history_items@@3HA DD 01H DUP (?)		; num_campaign_history_items
_BSS	ENDS
END
