; Listing generated by Microsoft (R) Optimizing Compiler Version 19.16.27045.0 

	TITLE	c:\users\nhv90\projects\eech\aphavoc\source\ui_menu\ingame\campaign\ca_menu.c
	.686P
	.XMM
	include listing.inc
	.model	flat

INCLUDELIB OLDNAMES

PUBLIC	??_C@_0CB@PCLJFLPG@graphics?2ui?2cohokum?2map?2tabs?4ps@ ; `string'
PUBLIC	??_C@_09BPHPLPEG@Sit?4?5Rep?4@			; `string'
PUBLIC	??_C@_03GGEOLGBL@Log@				; `string'
PUBLIC	??_C@_07LJBELKKF@Payload@			; `string'
PUBLIC	??_C@_04NKFKOIHC@Chat@				; `string'
PUBLIC	??_C@_07KHIHFBFN@Options@			; `string'
PUBLIC	??_C@_04INACKGJP@Save@				; `string'
;	COMDAT ??_C@_04INACKGJP@Save@
CONST	SEGMENT
??_C@_04INACKGJP@Save@ DB 'Save', 00H			; `string'
CONST	ENDS
;	COMDAT ??_C@_07KHIHFBFN@Options@
CONST	SEGMENT
??_C@_07KHIHFBFN@Options@ DB 'Options', 00H		; `string'
CONST	ENDS
;	COMDAT ??_C@_04NKFKOIHC@Chat@
CONST	SEGMENT
??_C@_04NKFKOIHC@Chat@ DB 'Chat', 00H			; `string'
CONST	ENDS
;	COMDAT ??_C@_07LJBELKKF@Payload@
CONST	SEGMENT
??_C@_07LJBELKKF@Payload@ DB 'Payload', 00H		; `string'
CONST	ENDS
;	COMDAT ??_C@_03GGEOLGBL@Log@
CONST	SEGMENT
??_C@_03GGEOLGBL@Log@ DB 'Log', 00H			; `string'
CONST	ENDS
;	COMDAT ??_C@_09BPHPLPEG@Sit?4?5Rep?4@
CONST	SEGMENT
??_C@_09BPHPLPEG@Sit?4?5Rep?4@ DB 'Sit. Rep.', 00H	; `string'
CONST	ENDS
;	COMDAT ??_C@_0CB@PCLJFLPG@graphics?2ui?2cohokum?2map?2tabs?4ps@
CONST	SEGMENT
??_C@_0CB@PCLJFLPG@graphics?2ui?2cohokum?2map?2tabs?4ps@ DB 'graphics\ui\'
	DB	'cohokum\map\tabs.psd', 00H			; `string'
PUBLIC	?initialise_campaign_screen_menu_objects@@YGXXZ	; initialise_campaign_screen_menu_objects
PUBLIC	?define_campaign_screen_menu_objects@@YGXXZ	; define_campaign_screen_menu_objects
?top_menu_area@@3PAUUI_OBJECT@@A DD 01H DUP (?)		; top_menu_area
?campaign_chat_button@@3PAUUI_OBJECT@@A DD 01H DUP (?)	; campaign_chat_button
?campaign_save_button@@3PAUUI_OBJECT@@A DD 01H DUP (?)	; campaign_save_button
?campaign_briefing_button@@3PAUUI_OBJECT@@A DD 01H DUP (?) ; campaign_briefing_button
?campaign_weapon_loading_button@@3PAUUI_OBJECT@@A DD 01H DUP (?) ; campaign_weapon_loading_button
?button_list@@3PAPAUUI_OBJECT@@A DD 010H DUP (?)	; button_list
?menu_button_count@@3HA DD 01H DUP (?)			; menu_button_count
_BSS	ENDS
END
