; Listing generated by Microsoft (R) Optimizing Compiler Version 19.16.27045.0 

	TITLE	c:\users\nhv90\projects\eech\modules\graphics\clip.c
	.686P
	.XMM
	include listing.inc
	.model	flat

INCLUDELIB OLDNAMES

PUBLIC	?clip_3d_coord@@3HA				; clip_3d_coord
PUBLIC	?clip_yonder_reciprocal@@3MA			; clip_yonder_reciprocal
PUBLIC	?clip_3d_crds@@3PAUVERTEX@@A			; clip_3d_crds
PUBLIC	?clip_hither_reciprocal@@3MA			; clip_hither_reciprocal
PUBLIC	?clip_yonder@@3MA				; clip_yonder
PUBLIC	?clip_hither@@3MA				; clip_hither
PUBLIC	?number_of_polygons_screen_clipped@@3HA		; number_of_polygons_screen_clipped
?clip_3d_coord@@3HA DD 01H DUP (?)			; clip_3d_coord
?clip_yonder_reciprocal@@3MA DD 01H DUP (?)		; clip_yonder_reciprocal
?clip_3d_crds@@3PAUVERTEX@@A DB 01000H DUP (?)		; clip_3d_crds
?clip_hither_reciprocal@@3MA DD 01H DUP (?)		; clip_hither_reciprocal
?clip_yonder@@3MA DD 01H DUP (?)			; clip_yonder
?clip_hither@@3MA DD 01H DUP (?)			; clip_hither
?number_of_polygons_screen_clipped@@3HA DD 01H DUP (?)	; number_of_polygons_screen_clipped
_BSS	ENDS
PUBLIC	?insert_ymax_dual_texture_coordinate@@YGXPAUVERTEX@@0@Z ; insert_ymax_dual_texture_coordinate
PUBLIC	?insert_ymin_dual_texture_coordinate@@YGXPAUVERTEX@@0@Z ; insert_ymin_dual_texture_coordinate
PUBLIC	?insert_xmax_dual_texture_coordinate@@YGXPAUVERTEX@@0@Z ; insert_xmax_dual_texture_coordinate
PUBLIC	?insert_xmin_dual_texture_coordinate@@YGXPAUVERTEX@@0@Z ; insert_xmin_dual_texture_coordinate
PUBLIC	?insert_ymax_coordinate@@YGXPAUVERTEX@@0@Z	; insert_ymax_coordinate
PUBLIC	?insert_ymin_coordinate@@YGXPAUVERTEX@@0@Z	; insert_ymin_coordinate
PUBLIC	?insert_xmax_coordinate@@YGXPAUVERTEX@@0@Z	; insert_xmax_coordinate
PUBLIC	?insert_xmin_coordinate@@YGXPAUVERTEX@@0@Z	; insert_xmin_coordinate
PUBLIC	?clip_3d_dual_texture_polygon@@YGPAUVERTEX@@PAU1@H@Z ; clip_3d_dual_texture_polygon
PUBLIC	?initialise_3d_clip_system@@YGXXZ		; initialise_3d_clip_system
PUBLIC	?reset_clip_statistics@@YGXXZ			; reset_clip_statistics
PUBLIC	?report_clip_statistics@@YGXXZ			; report_clip_statistics
PUBLIC	?set_3d_clip_extents@@YGXMMMMMMMM@Z		; set_3d_clip_extents
PUBLIC	?generate_3d_outcode@@YGHMM@Z			; generate_3d_outcode
PUBLIC	?clip_3d_polygon@@YGPAUVERTEX@@PAU1@H@Z		; clip_3d_polygon
?this_point@@3PAUVERTEX@@A DD 01H DUP (?)		; this_point
?last_point@@3PAUVERTEX@@A DD 01H DUP (?)		; last_point
?clip_list@@3PAUVERTEX@@A DD 01H DUP (?)		; clip_list
?clip_point@@3PAUVERTEX@@A DD 01H DUP (?)		; clip_point
_BSS	ENDS
END
