; Listing generated by Microsoft (R) Optimizing Compiler Version 19.16.27045.0 

	TITLE	c:\users\nhv90\projects\eech\modules\3d\clouds\clouds.c
	.686P
	.XMM
	include listing.inc
	.model	flat

INCLUDELIB OLDNAMES

PUBLIC	??_C@_0CG@KNLJGFL@Trying?5to?5set?5cloud?5scan?5radius@ ; `string'
PUBLIC	??_C@_0ED@FKAGIKKK@Unable?5to?5draw?5clouds?5?9?5no?5text@ ; `string'
PUBLIC	??_C@_0EC@PJBPEHMN@Unable?5to?5draw?5clouds?5?9?5no?5text@ ; `string'
PUBLIC	?cloud_3d_base_height@@3MA			; cloud_3d_base_height
?cloud_3d_base_height@@3MA DD 01H DUP (?)		; cloud_3d_base_height
_BSS	ENDS
;	COMDAT ??_C@_0EC@PJBPEHMN@Unable?5to?5draw?5clouds?5?9?5no?5text@
CONST	SEGMENT
??_C@_0EC@PJBPEHMN@Unable?5to?5draw?5clouds?5?9?5no?5text@ DB 'Unable to '
	DB	'draw clouds - no texture set for target weathermode: %d', 00H ; `string'
CONST	ENDS
;	COMDAT ??_C@_0ED@FKAGIKKK@Unable?5to?5draw?5clouds?5?9?5no?5text@
CONST	SEGMENT
??_C@_0ED@FKAGIKKK@Unable?5to?5draw?5clouds?5?9?5no?5text@ DB 'Unable to '
	DB	'draw clouds - no texture set for current weathermode: %d', 00H ; `string'
CONST	ENDS
;	COMDAT ??_C@_0CG@KNLJGFL@Trying?5to?5set?5cloud?5scan?5radius@
CONST	SEGMENT
??_C@_0CG@KNLJGFL@Trying?5to?5set?5cloud?5scan?5radius@ DB 'Trying to set'
	DB	' cloud scan radius to %d', 00H		; `string'
PUBLIC	?get_cloud_3d_sector@@YGXMMPAH0@Z		; get_cloud_3d_sector
PUBLIC	?draw_3d_cloud_sector@@YGXPAUSCENE_SLOT_DRAWING_LIST@@@Z ; draw_3d_cloud_sector
PUBLIC	?get_position_in_clouds@@YGHM@Z			; get_position_in_clouds
PUBLIC	?get_cloud_3d_base_height@@YGMXZ		; get_cloud_3d_base_height
PUBLIC	?initialise_3d_clouds@@YGXXZ			; initialise_3d_clouds
PUBLIC	?add_3d_cloud_texture@@YGXHW4WEATHERMODES@@@Z	; add_3d_cloud_texture
PUBLIC	?set_cloud_3d_base_height@@YGXM@Z		; set_cloud_3d_base_height
PUBLIC	?set_cloud_3d_scan_radius@@YGXH@Z		; set_cloud_3d_scan_radius
PUBLIC	?scan_3d_clouds@@YGXXZ				; scan_3d_clouds
?cloud_3d_blend_start@@3MA DD 01H DUP (?)		; cloud_3d_blend_start
?cloud_3d_blend_end@@3MA DD 01H DUP (?)			; cloud_3d_blend_end
?cloud_3d_blend_distance@@3MA DD 01H DUP (?)		; cloud_3d_blend_distance
	ALIGN	8

?cloud_3d_blend_constant@@3NA DQ 01H DUP (?)		; cloud_3d_blend_constant
?cloud_3d_blend_factor@@3NA DQ 01H DUP (?)		; cloud_3d_blend_factor
?cloud_3d_adjusted_blend_factor@@3NA DQ 01H DUP (?)	; cloud_3d_adjusted_blend_factor
?cloud_3d_blend_start_squared@@3NA DQ 01H DUP (?)	; cloud_3d_blend_start_squared
?cloud_3d_blend_distance_squared@@3NA DQ 01H DUP (?)	; cloud_3d_blend_distance_squared
?cloud_3d_sector_scan_radius@@3HA DD 01H DUP (?)	; cloud_3d_sector_scan_radius
?cloud_transformed_3d_points@@3PAUVERTEX@@A DB 01000H DUP (?) ; cloud_transformed_3d_points
	ALIGN	8

?cloud_textures@@3PAUCLOUD_WEATHER_TEXTURE@@A DQ 05H DUP (?) ; cloud_textures
?cloud_weather_blend_factor@@3MA DD 01H DUP (?)		; cloud_weather_blend_factor
?cloud_weather_one_minus_blend_factor@@3MA DD 01H DUP (?) ; cloud_weather_one_minus_blend_factor
?current_weather_texture@@3PAUSCREEN@@A DD 01H DUP (?)	; current_weather_texture
?target_weather_texture@@3PAUSCREEN@@A DD 01H DUP (?)	; target_weather_texture
?cloud_colour_blend_vector@@3UVEC3D@@A DB 0cH DUP (?)	; cloud_colour_blend_vector
_BSS	ENDS
END
