; Listing generated by Microsoft (R) Optimizing Compiler Version 19.16.27045.0 

	TITLE	c:\users\nhv90\projects\eech\aphavoc\source\gunships\cockpits\comanche\cm_pilot.c
	.686P
	.XMM
	include listing.inc
	.model	flat

INCLUDELIB OLDNAMES

PUBLIC	??_C@_0CI@MIJJKLOO@GRAPHICS?2COCKPITS?2COMANCHE?2JOYS@ ; `string'
PUBLIC	??_C@_0CH@LJLHFPHN@GRAPHICS?2COCKPITS?2COMANCHE?2FORE@ ; `string'
PUBLIC	??_C@_0CI@PNKADEN@GRAPHICS?2COCKPITS?2COMANCHE?2SHOU@ ; `string'
PUBLIC	??_C@_0CB@MEHFMECA@Invalid?5rest?5animation?5mode?5?$DN?5?$CF@ ; `string'
PUBLIC	??_C@_0DB@HGENAKO@Failed?5to?5locate?5pilot?8s?5head?5i@ ; `string'
;	COMDAT ??_C@_0DB@HGENAKO@Failed?5to?5locate?5pilot?8s?5head?5i@
CONST	SEGMENT
??_C@_0DB@HGENAKO@Failed?5to?5locate?5pilot?8s?5head?5i@ DB 'Failed to lo'
	DB	'cate pilot''s head in virtual cockpit', 00H	; `string'
CONST	ENDS
;	COMDAT ??_C@_0CB@MEHFMECA@Invalid?5rest?5animation?5mode?5?$DN?5?$CF@
CONST	SEGMENT
??_C@_0CB@MEHFMECA@Invalid?5rest?5animation?5mode?5?$DN?5?$CF@ DB 'Invali'
	DB	'd rest animation mode = %d', 00H		; `string'
CONST	ENDS
;	COMDAT ??_C@_0CI@PNKADEN@GRAPHICS?2COCKPITS?2COMANCHE?2SHOU@
CONST	SEGMENT
??_C@_0CI@PNKADEN@GRAPHICS?2COCKPITS?2COMANCHE?2SHOU@ DB 'GRAPHICS\COCKPI'
	DB	'TS\COMANCHE\SHOULDER.MOT', 00H		; `string'
CONST	ENDS
;	COMDAT ??_C@_0CH@LJLHFPHN@GRAPHICS?2COCKPITS?2COMANCHE?2FORE@
CONST	SEGMENT
??_C@_0CH@LJLHFPHN@GRAPHICS?2COCKPITS?2COMANCHE?2FORE@ DB 'GRAPHICS\COCKP'
	DB	'ITS\COMANCHE\FOREARM.MOT', 00H		; `string'
CONST	ENDS
;	COMDAT ??_C@_0CI@MIJJKLOO@GRAPHICS?2COCKPITS?2COMANCHE?2JOYS@
CONST	SEGMENT
??_C@_0CI@MIJJKLOO@GRAPHICS?2COCKPITS?2COMANCHE?2JOYS@ DB 'GRAPHICS\COCKP'
	DB	'ITS\COMANCHE\JOYSTICK.MOT', 00H		; `string'
PUBLIC	?get_comanche_pilot_head_pitch_datum@@YGMXZ	; get_comanche_pilot_head_pitch_datum
PUBLIC	?initialise_comanche_pilot_animation@@YGXXZ	; initialise_comanche_pilot_animation
PUBLIC	?deinitialise_comanche_pilot_animation@@YGXXZ	; deinitialise_comanche_pilot_animation
PUBLIC	?update_comanche_pilot_animation@@YGXXZ		; update_comanche_pilot_animation
PUBLIC	?set_comanche_pilot_head_position@@YGXXZ	; set_comanche_pilot_head_position
?pilot_head_anim_frame@@3MA DD 01H DUP (?)		; pilot_head_anim_frame
?pilot_head_anim_pause@@3MA DD 01H DUP (?)		; pilot_head_anim_pause
?previous_pilot_head_tilt_angle@@3MA DD 01H DUP (?)	; previous_pilot_head_tilt_angle
?pilot_main_anim_mode@@3W4PILOT_MAIN_ANIM_MODES@@A DD 01H DUP (?) ; pilot_main_anim_mode
?pilot_main_anim_frame@@3MA DD 01H DUP (?)		; pilot_main_anim_frame
?cyclic_x_position@@3MA DD 01H DUP (?)			; cyclic_x_position
?cyclic_y_position@@3MA DD 01H DUP (?)			; cyclic_y_position
?collective_position@@3MA DD 01H DUP (?)		; collective_position
?pedal_position@@3MA DD 01H DUP (?)			; pedal_position
?previous_cyclic_x_position@@3MA DD 01H DUP (?)		; previous_cyclic_x_position
?previous_cyclic_y_position@@3MA DD 01H DUP (?)		; previous_cyclic_y_position
?previous_collective_position@@3MA DD 01H DUP (?)	; previous_collective_position
?previous_pedal_position@@3MA DD 01H DUP (?)		; previous_pedal_position
?pilot_rest_anim_mode@@3W4PILOT_REST_ANIM_MODES@@A DD 01H DUP (?) ; pilot_rest_anim_mode
?previous_random_pilot_rest_anim_mode@@3W4PILOT_REST_ANIM_MODES@@A DD 01H DUP (?) ; previous_random_pilot_rest_anim_mode
?pilot_rest_anim_frame@@3MA DD 01H DUP (?)		; pilot_rest_anim_frame
?pilot_rest_anim_delay@@3MA DD 01H DUP (?)		; pilot_rest_anim_delay
?right_arm_joystick_motion@@3PAUMOTION_DATA@@A DB 01b18H DUP (?) ; right_arm_joystick_motion
?right_arm_forearm_motion@@3PAUMOTION_DATA@@A DB 01b18H DUP (?) ; right_arm_forearm_motion
?right_arm_shoulder_motion@@3PAUMOTION_DATA@@A DB 01b18H DUP (?) ; right_arm_shoulder_motion
_BSS	ENDS
?pilot_main_anim_mode_taking_controls_anim_data@@3UPILOT_ANIM_DATA@@A DD 03d269217r ; 0.0406667 ; pilot_main_anim_mode_taking_controls_anim_data
	DD	03d75c28fr			; 0.06
	DD	03f000000r			; 0.5
	DD	03f000000r			; 0.5
	DD	03f000000r			; 0.5
	DD	03f000000r			; 0.5
	DD	00H
	ORG $+4
	DD	00H
	ORG $+4
	DD	00H
	DD	018H
?pilot_main_anim_mode_moving_controls_from_centre1_anim_data@@3UPILOT_ANIM_DATA@@A DD 000000000r ; 0 ; pilot_main_anim_mode_moving_controls_from_centre1_anim_data
	DD	000000000r			; 0
	DD	03f000000r			; 0.5
	DD	03f000000r			; 0.5
	DD	03f000000r			; 0.5
	DD	03f000000r			; 0.5
	DD	01H
	ORG $+4
	DD	01H
	ORG $+4
	DD	01H
	DD	00H
?pilot_main_anim_mode_moving_controls_from_centre2_anim_data@@3UPILOT_ANIM_DATA@@A DD 000000000r ; 0 ; pilot_main_anim_mode_moving_controls_from_centre2_anim_data
	DD	000000000r			; 0
	DD	000000000r			; 0
	DD	000000000r			; 0
	DD	000000000r			; 0
	DD	000000000r			; 0
	DD	01H
	ORG $+4
	DD	01H
	ORG $+4
	DD	01H
	DD	00H
?pilot_main_anim_mode_hands_on_controls_anim_data@@3UPILOT_ANIM_DATA@@A DD 000000000r ; 0 ; pilot_main_anim_mode_hands_on_controls_anim_data
	DD	000000000r			; 0
	DD	000000000r			; 0
	DD	000000000r			; 0
	DD	000000000r			; 0
	DD	000000000r			; 0
	DD	01H
	ORG $+4
	DD	01H
	ORG $+4
	DD	01H
	DD	00H
?pilot_main_anim_mode_moving_controls_to_centre1_anim_data@@3UPILOT_ANIM_DATA@@A DD 000000000r ; 0 ; pilot_main_anim_mode_moving_controls_to_centre1_anim_data
	DD	000000000r			; 0
	DD	000000000r			; 0
	DD	000000000r			; 0
	DD	000000000r			; 0
	DD	000000000r			; 0
	DD	01H
	ORG $+4
	DD	01H
	ORG $+4
	DD	01H
	DD	00H
?pilot_main_anim_mode_moving_controls_to_centre2_anim_data@@3UPILOT_ANIM_DATA@@A DD 000000000r ; 0 ; pilot_main_anim_mode_moving_controls_to_centre2_anim_data
	DD	000000000r			; 0
	DD	03f000000r			; 0.5
	DD	03f000000r			; 0.5
	DD	03f000000r			; 0.5
	DD	03f000000r			; 0.5
	DD	01H
	ORG $+4
	DD	01H
	ORG $+4
	DD	01H
	DD	00H
?pilot_main_anim_mode_releasing_controls_anim_data@@3UPILOT_ANIM_DATA@@A DD 03d269217r ; 0.0406667 ; pilot_main_anim_mode_releasing_controls_anim_data
	DD	03d75c28fr			; 0.06
	DD	03f000000r			; 0.5
	DD	03f000000r			; 0.5
	DD	03f000000r			; 0.5
	DD	03f000000r			; 0.5
	DD	00H
	ORG $+4
	DD	00H
	ORG $+4
	DD	00H
	DD	018H
?pilot_rest_anim_mode_none_anim_data@@3UPILOT_ANIM_DATA@@A DD 000000000r ; 0 ; pilot_rest_anim_mode_none_anim_data
	DD	000000000r			; 0
	DD	03f000000r			; 0.5
	DD	03f000000r			; 0.5
	DD	03f000000r			; 0.5
	DD	03f000000r			; 0.5
	DD	00H
	ORG $+4
	DD	00H
	ORG $+4
	DD	00H
	DD	00H
?pilot_rest_anim_mode_right_hand_to_rh_mfd_button_anim_data@@3UPILOT_ANIM_DATA@@A DD 03d75c28fr ; 0.06 ; pilot_rest_anim_mode_right_hand_to_rh_mfd_button_anim_data
	DD	03df5c28fr			; 0.12
	DD	03f000000r			; 0.5
	DD	03f000000r			; 0.5
	DD	03f000000r			; 0.5
	DD	03f000000r			; 0.5
	DD	00H
	ORG $+4
	DD	00H
	ORG $+4
	DD	00H
	DD	01eH
?pilot_rest_anim_mode_left_hand_to_lh_mfd_button_anim_data@@3UPILOT_ANIM_DATA@@A DD 03df5c28fr ; 0.12 ; pilot_rest_anim_mode_left_hand_to_lh_mfd_button_anim_data
	DD	03e23d70ar			; 0.16
	DD	03f000000r			; 0.5
	DD	03f000000r			; 0.5
	DD	03f000000r			; 0.5
	DD	03f000000r			; 0.5
	DD	00H
	ORG $+4
	DD	00H
	ORG $+4
	DD	00H
	DD	01eH
?pilot_rest_anim_mode_right_hand_to_rh_console_anim_data@@3UPILOT_ANIM_DATA@@A DD 03e23d70ar ; 0.16 ; pilot_rest_anim_mode_right_hand_to_rh_console_anim_data
	DD	03e6b851fr			; 0.23
	DD	03f000000r			; 0.5
	DD	03f000000r			; 0.5
	DD	03f000000r			; 0.5
	DD	03f000000r			; 0.5
	DD	00H
	ORG $+4
	DD	00H
	ORG $+4
	DD	00H
	DD	01eH
?pilot_rest_anim_mode_left_hand_to_lh_console_anim_data@@3UPILOT_ANIM_DATA@@A DD 03e8f5c29r ; 0.28 ; pilot_rest_anim_mode_left_hand_to_lh_console_anim_data
	DD	03eae147br			; 0.34
	DD	03f000000r			; 0.5
	DD	03f000000r			; 0.5
	DD	03f000000r			; 0.5
	DD	03f000000r			; 0.5
	DD	00H
	ORG $+4
	DD	00H
	ORG $+4
	DD	00H
	DD	01eH
?pilot_rest_anim_mode_right_hand_to_calculator_anim_data@@3UPILOT_ANIM_DATA@@A DD 03e6b851fr ; 0.23 ; pilot_rest_anim_mode_right_hand_to_calculator_anim_data
	DD	03e8f5c29r			; 0.28
	DD	03f000000r			; 0.5
	DD	03f000000r			; 0.5
	DD	03f000000r			; 0.5
	DD	03f000000r			; 0.5
	DD	00H
	ORG $+4
	DD	00H
	ORG $+4
	DD	00H
	DD	01eH
?pilot_rest_anim_mode_left_hand_to_rh_small_mfd_button_anim_data@@3UPILOT_ANIM_DATA@@A DD 03eae147br ; 0.34 ; pilot_rest_anim_mode_left_hand_to_rh_small_mfd_button_anim_data
	DD	03ecccccdr			; 0.4
	DD	03f000000r			; 0.5
	DD	03f000000r			; 0.5
	DD	03f000000r			; 0.5
	DD	03f000000r			; 0.5
	DD	00H
	ORG $+4
	DD	00H
	ORG $+4
	DD	00H
	DD	01eH
?pilot_rest_anim_mode_left_hand_to_lh_mfd_top_button_anim_data@@3UPILOT_ANIM_DATA@@A DD 03ecccccdr ; 0.4 ; pilot_rest_anim_mode_left_hand_to_lh_mfd_top_button_anim_data
	DD	03eeb851fr			; 0.46
	DD	03f000000r			; 0.5
	DD	03f000000r			; 0.5
	DD	03f000000r			; 0.5
	DD	03f000000r			; 0.5
	DD	00H
	ORG $+4
	DD	00H
	ORG $+4
	DD	00H
	DD	01eH
?pilot_rest_anim_mode_head_look_down_anim_data@@3UPILOT_ANIM_DATA@@A DD 03f428f5cr ; 0.76 ; pilot_rest_anim_mode_head_look_down_anim_data
	DD	03f4ccccdr			; 0.8
	DD	03f000000r			; 0.5
	DD	03f000000r			; 0.5
	DD	03f000000r			; 0.5
	DD	03f000000r			; 0.5
	DD	00H
	ORG $+4
	DD	00H
	ORG $+4
	DD	00H
	DD	02H
?pilot_rest_anim_mode_head_look_down_left_anim_data@@3UPILOT_ANIM_DATA@@A DD 03f2e147br ; 0.68 ; pilot_rest_anim_mode_head_look_down_left_anim_data
	DD	03f3851ecr			; 0.72
	DD	03f000000r			; 0.5
	DD	03f000000r			; 0.5
	DD	03f000000r			; 0.5
	DD	03f000000r			; 0.5
	DD	00H
	ORG $+4
	DD	00H
	ORG $+4
	DD	00H
	DD	02H
?pilot_rest_anim_mode_head_look_down_right_anim_data@@3UPILOT_ANIM_DATA@@A DD 03f3851ecr ; 0.72 ; pilot_rest_anim_mode_head_look_down_right_anim_data
	DD	03f428f5cr			; 0.76
	DD	03f000000r			; 0.5
	DD	03f000000r			; 0.5
	DD	03f000000r			; 0.5
	DD	03f000000r			; 0.5
	DD	00H
	ORG $+4
	DD	00H
	ORG $+4
	DD	00H
	DD	02H
?pilot_rest_anim_mode_head_look_up_anim_data@@3UPILOT_ANIM_DATA@@A DD 03f4ccccdr ; 0.8 ; pilot_rest_anim_mode_head_look_up_anim_data
	DD	03f570a3dr			; 0.84
	DD	03f000000r			; 0.5
	DD	03f000000r			; 0.5
	DD	03f000000r			; 0.5
	DD	03f000000r			; 0.5
	DD	00H
	ORG $+4
	DD	00H
	ORG $+4
	DD	00H
	DD	02H
?pilot_rest_anim_mode_head_look_up_left_anim_data@@3UPILOT_ANIM_DATA@@A DD 03f6b851fr ; 0.92 ; pilot_rest_anim_mode_head_look_up_left_anim_data
	DD	03f75c28fr			; 0.96
	DD	03f000000r			; 0.5
	DD	03f000000r			; 0.5
	DD	03f000000r			; 0.5
	DD	03f000000r			; 0.5
	DD	00H
	ORG $+4
	DD	00H
	ORG $+4
	DD	00H
	DD	02H
?pilot_rest_anim_mode_head_look_up_right_anim_data@@3UPILOT_ANIM_DATA@@A DD 03f75c28fr ; 0.96 ; pilot_rest_anim_mode_head_look_up_right_anim_data
	DD	03f800000r			; 1
	DD	03f000000r			; 0.5
	DD	03f000000r			; 0.5
	DD	03f000000r			; 0.5
	DD	03f000000r			; 0.5
	DD	00H
	ORG $+4
	DD	00H
	ORG $+4
	DD	00H
	DD	02H
?pilot_rest_anim_mode_head_look_left_anim_data@@3UPILOT_ANIM_DATA@@A DD 03f570a3dr ; 0.84 ; pilot_rest_anim_mode_head_look_left_anim_data
	DD	03f6147aer			; 0.88
	DD	03f000000r			; 0.5
	DD	03f000000r			; 0.5
	DD	03f000000r			; 0.5
	DD	03f000000r			; 0.5
	DD	00H
	ORG $+4
	DD	00H
	ORG $+4
	DD	00H
	DD	02H
?pilot_rest_anim_mode_head_look_right_anim_data@@3UPILOT_ANIM_DATA@@A DD 03f6147aer ; 0.88 ; pilot_rest_anim_mode_head_look_right_anim_data
	DD	03f6b851fr			; 0.92
	DD	03f000000r			; 0.5
	DD	03f000000r			; 0.5
	DD	03f000000r			; 0.5
	DD	03f000000r			; 0.5
	DD	00H
	ORG $+4
	DD	00H
	ORG $+4
	DD	00H
	DD	02H
END
