; Listing generated by Microsoft (R) Optimizing Compiler Version 19.16.27045.0 

	TITLE	c:\users\nhv90\projects\eech\aphavoc\source\cmndline.c
	.686P
	.XMM
	include listing.inc
	.model	flat

INCLUDELIB OLDNAMES

PUBLIC	?command_line_run_mode@@3HA			; command_line_run_mode
PUBLIC	?command_line_force_resolution@@3HA		; command_line_force_resolution
PUBLIC	?command_line_3d_visual_clear_edges@@3HA	; command_line_3d_visual_clear_edges
PUBLIC	?command_line_russian_nvg_no_ir@@3HA		; command_line_russian_nvg_no_ir
PUBLIC	?global_night_light_level@@3MA			; global_night_light_level
PUBLIC	?global_PNVS_level@@3HA				; global_PNVS_level
PUBLIC	?command_line_no_sound@@3HA			; command_line_no_sound
PUBLIC	?command_line_server_log_filename@@3PADA	; command_line_server_log_filename
PUBLIC	?command_line_secondary_server_setting@@3PADA	; command_line_secondary_server_setting
PUBLIC	?command_line_primary_server_setting@@3PADA	; command_line_primary_server_setting
PUBLIC	?command_line_ip_address@@3PADA			; command_line_ip_address
PUBLIC	?command_line_game_initialisation_phase_filename@@3PADA ; command_line_game_initialisation_phase_filename
PUBLIC	?command_line_game_initialisation_phase_directory@@3PADA ; command_line_game_initialisation_phase_directory
PUBLIC	?command_line_game_initialisation_phase_path@@3PADA ; command_line_game_initialisation_phase_path
PUBLIC	?command_line_sound_device_speech@@3PADA	; command_line_sound_device_speech
PUBLIC	?command_line_sound_device@@3PADA		; command_line_sound_device
PUBLIC	?command_line_themes@@3PADA			; command_line_themes
PUBLIC	?global_mfd_size@@3MA				; global_mfd_size
PUBLIC	?global_hud_size2@@3MA				; global_hud_size2
PUBLIC	?command_line_g_force_head_movment_modifier@@3MA ; command_line_g_force_head_movment_modifier
PUBLIC	?command_line_smoke_effectiveness@@3MA		; command_line_smoke_effectiveness
PUBLIC	?command_line_flare_effectiveness@@3MA		; command_line_flare_effectiveness
PUBLIC	?command_line_chaff_effectiveness@@3MA		; command_line_chaff_effectiveness
PUBLIC	?command_line_fog_of_war_maximum_value@@3MA	; command_line_fog_of_war_maximum_value
PUBLIC	?command_line_object_lod_factor@@3MA		; command_line_object_lod_factor
PUBLIC	?command_line_user_invulnerable_time@@3MA	; command_line_user_invulnerable_time
PUBLIC	?command_line_city_block_approximation_range@@3MA ; command_line_city_block_approximation_range
PUBLIC	?command_line_comms_packet_resend_timer@@3MA	; command_line_comms_packet_resend_timer
PUBLIC	?command_line_comms_resend_timeout@@3MA		; command_line_comms_resend_timeout
PUBLIC	?command_line_aitool_grid_pitch@@3MA		; command_line_aitool_grid_pitch
PUBLIC	?command_line_collective_percentage_at_zone1@@3MA ; command_line_collective_percentage_at_zone1
PUBLIC	?command_line_collective_zone_2_limit@@3MA	; command_line_collective_zone_2_limit
PUBLIC	?command_line_collective_zone_1_limit@@3MA	; command_line_collective_zone_1_limit
PUBLIC	?command_line_dynamics_yaw_altitude_loss@@3MA	; command_line_dynamics_yaw_altitude_loss
PUBLIC	?command_line_dynamics_cyclic_dead_zone@@3MA	; command_line_dynamics_cyclic_dead_zone
PUBLIC	?command_line_dynamics_tail_rotor_drag@@3MA	; command_line_dynamics_tail_rotor_drag
PUBLIC	?command_line_dynamics_main_rotor_lift@@3MA	; command_line_dynamics_main_rotor_lift
PUBLIC	?command_line_dynamics_main_rotor_drag@@3MA	; command_line_dynamics_main_rotor_drag
PUBLIC	?command_line_dynamics_rudder_acceleration@@3MA	; command_line_dynamics_rudder_acceleration
PUBLIC	?command_line_dynamics_rudder_value@@3MA	; command_line_dynamics_rudder_value
PUBLIC	?command_line_dynamics_retreating_blade_stall_effect@@3MA ; command_line_dynamics_retreating_blade_stall_effect
PUBLIC	?command_line_ui_sounds_muted@@3HA		; command_line_ui_sounds_muted
PUBLIC	?command_line_export_mfd_single_pos@@3PAHA	; command_line_export_mfd_single_pos
PUBLIC	?command_line_export_mfd_right_pos@@3PAHA	; command_line_export_mfd_right_pos
PUBLIC	?command_line_export_mfd_left_pos@@3PAHA	; command_line_export_mfd_left_pos
PUBLIC	?command_line_export_mfd_screen_height@@3HA	; command_line_export_mfd_screen_height
PUBLIC	?command_line_export_mfd_screen_width@@3HA	; command_line_export_mfd_screen_width
PUBLIC	?command_line_export_mfd_adapter@@3HA		; command_line_export_mfd_adapter
PUBLIC	?command_line_export_mfd@@3HA			; command_line_export_mfd
PUBLIC	?session_camcom@@3HA				; session_camcom
PUBLIC	?session_ground_radar_ignores_infantry@@3HA	; session_ground_radar_ignores_infantry
PUBLIC	?session_vector_flight_model@@3HA		; session_vector_flight_model
PUBLIC	?session_planner_goto_button@@3HA		; session_planner_goto_button
PUBLIC	?command_line_cannontrack@@3HA			; command_line_cannontrack
PUBLIC	?command_line_autosave@@3HA			; command_line_autosave
PUBLIC	?command_line_texture_colour@@3HA		; command_line_texture_colour
PUBLIC	?command_line_disable_message_text@@3HA		; command_line_disable_message_text
PUBLIC	?global_tsd_detail@@3HA				; global_tsd_detail
PUBLIC	?global_dynamic_water@@3HA			; global_dynamic_water
PUBLIC	?global_anisotropic@@3HA			; global_anisotropic
PUBLIC	?global_mipmapping@@3HA				; global_mipmapping
PUBLIC	?global_hud_alpha@@3HA				; global_hud_alpha
PUBLIC	?global_aphavoc_maps@@3HA			; global_aphavoc_maps
PUBLIC	?command_line_shared_mem_export@@3HA		; command_line_shared_mem_export
PUBLIC	?command_line_3d_cockpit@@3HA			; command_line_3d_cockpit
PUBLIC	?command_line_mouse_tsd_target_select@@3HA	; command_line_mouse_tsd_target_select
PUBLIC	?command_line_TIR_6DOF@@3HA			; command_line_TIR_6DOF
PUBLIC	?command_line_high_lod_hack@@3HA		; command_line_high_lod_hack
PUBLIC	?command_line_wobbly_camera@@3HA		; command_line_wobbly_camera
PUBLIC	?command_line_external_trackir_direction@@3HA	; command_line_external_trackir_direction
PUBLIC	?command_line_external_trackir@@3HA		; command_line_external_trackir
PUBLIC	?command_line_reverse_pedal@@3HA		; command_line_reverse_pedal
PUBLIC	?command_line_pause_server@@3HA			; command_line_pause_server
PUBLIC	?command_line_session_filter@@3HA		; command_line_session_filter
PUBLIC	?command_line_designated_targets@@3HA		; command_line_designated_targets
PUBLIC	?command_line_joylook_step@@3HA			; command_line_joylook_step
PUBLIC	?command_line_joylookv_joystick_axis@@3HA	; command_line_joylookv_joystick_axis
PUBLIC	?command_line_joylookh_joystick_axis@@3HA	; command_line_joylookh_joystick_axis
PUBLIC	?command_line_joylook_joystick_index@@3HA	; command_line_joylook_joystick_index
PUBLIC	?command_line_tacview_generate_srtm_height_data@@3HA ; command_line_tacview_generate_srtm_height_data
PUBLIC	?command_line_tacview_logging@@3HA		; command_line_tacview_logging
PUBLIC	?command_line_campaign_map_update_interval@@3HA	; command_line_campaign_map_update_interval
PUBLIC	?command_line_campaign_map_palette@@3HA		; command_line_campaign_map_palette
PUBLIC	?command_line_campaign_map@@3HA			; command_line_campaign_map
PUBLIC	?command_line_camcom@@3HA			; command_line_camcom
PUBLIC	?command_line_maxplayers@@3HA			; command_line_maxplayers
PUBLIC	?command_line_colour_mfd@@3HA			; command_line_colour_mfd
PUBLIC	?command_line_tsd_palette@@3HA			; command_line_tsd_palette
PUBLIC	?command_line_tsd_render_mode@@3HA		; command_line_tsd_render_mode
PUBLIC	?command_line_tsd_enemy_colours@@3HA		; command_line_tsd_enemy_colours
PUBLIC	?command_line_fly_any_airplane@@3HA		; command_line_fly_any_airplane
PUBLIC	?command_line_trees_fog@@3HA			; command_line_trees_fog
PUBLIC	?command_line_render_tree_shadows@@3HA		; command_line_render_tree_shadows
PUBLIC	?command_line_eo_full_range@@3HA		; command_line_eo_full_range
PUBLIC	?command_line_autoreturn_to_pilot_after_periscope@@3HA ; command_line_autoreturn_to_pilot_after_periscope
PUBLIC	?command_line_pilot_as_periscope_default@@3HA	; command_line_pilot_as_periscope_default
PUBLIC	?command_line_unpadlock_on_handover@@3HA	; command_line_unpadlock_on_handover
PUBLIC	?command_line_high_res_hud@@3HA			; command_line_high_res_hud
PUBLIC	?command_line_high_res_mfd@@3HA			; command_line_high_res_mfd
PUBLIC	?command_line_restricted_nvg_fov@@3HA		; command_line_restricted_nvg_fov
PUBLIC	?command_line_nonlinear_pedals@@3HA		; command_line_nonlinear_pedals
PUBLIC	?command_line_rudder_joystick_axis@@3HA		; command_line_rudder_joystick_axis
PUBLIC	?command_line_rudder_joystick_index@@3HA	; command_line_rudder_joystick_index
PUBLIC	?command_line_collective_joystick_axis@@3HA	; command_line_collective_joystick_axis
PUBLIC	?command_line_collective_joystick_index@@3HA	; command_line_collective_joystick_index
PUBLIC	?command_line_nonlinear_cyclic@@3HA		; command_line_nonlinear_cyclic
PUBLIC	?command_line_cyclic_joystick_y_axis@@3HA	; command_line_cyclic_joystick_y_axis
PUBLIC	?command_line_cyclic_joystick_x_axis@@3HA	; command_line_cyclic_joystick_x_axis
PUBLIC	?command_line_cyclic_joystick_index@@3HA	; command_line_cyclic_joystick_index
PUBLIC	?command_line_dump_ini@@3HA			; command_line_dump_ini
PUBLIC	?command_line_wut@@3HA				; command_line_wut
PUBLIC	?command_line_downwash@@3HA			; command_line_downwash
PUBLIC	?command_line_framerate@@3HA			; command_line_framerate
PUBLIC	?command_line_targeting_system_auto_page@@3HA	; command_line_targeting_system_auto_page
PUBLIC	?command_line_manual_laser_radar@@3HA		; command_line_manual_laser_radar
PUBLIC	?command_line_ground_stabilisation_available@@3HA ; command_line_ground_stabilisation_available
PUBLIC	?command_line_ground_radar_ignores_infantry@@3HA ; command_line_ground_radar_ignores_infantry
PUBLIC	?command_line_field_of_view_joystick_axis@@3HA	; command_line_field_of_view_joystick_axis
PUBLIC	?command_line_field_of_view_joystick_index@@3HA	; command_line_field_of_view_joystick_index
PUBLIC	?command_line_eo_zoom_joystick_axis@@3HA	; command_line_eo_zoom_joystick_axis
PUBLIC	?command_line_eo_zoom_joystick_index@@3HA	; command_line_eo_zoom_joystick_index
PUBLIC	?command_line_eo_pan_horizontal_joystick_axis@@3HA ; command_line_eo_pan_horizontal_joystick_axis
PUBLIC	?command_line_eo_pan_vertical_joystick_axis@@3HA ; command_line_eo_pan_vertical_joystick_axis
PUBLIC	?command_line_eo_pan_joystick_index@@3HA	; command_line_eo_pan_joystick_index
PUBLIC	?command_line_max_fov7@@3HA			; command_line_max_fov7
PUBLIC	?command_line_max_fov6@@3HA			; command_line_max_fov6
PUBLIC	?command_line_max_fov5@@3HA			; command_line_max_fov5
PUBLIC	?command_line_max_fov4@@3HA			; command_line_max_fov4
PUBLIC	?command_line_max_fov3@@3HA			; command_line_max_fov3
PUBLIC	?command_line_max_fov2@@3HA			; command_line_max_fov2
PUBLIC	?command_line_max_fov1@@3HA			; command_line_max_fov1
PUBLIC	?command_line_max_fov0@@3HA			; command_line_max_fov0
PUBLIC	?command_line_min_fov@@3HA			; command_line_min_fov
PUBLIC	?command_line_mouse_look_speed@@3HA		; command_line_mouse_look_speed
PUBLIC	?command_line_mouse_look@@3HA			; command_line_mouse_look
PUBLIC	?command_line_no_mission_complete_music@@3HA	; command_line_no_mission_complete_music
PUBLIC	?command_line_cloud_puffs@@3HA			; command_line_cloud_puffs
PUBLIC	?command_line_persistent_smoke@@3HA		; command_line_persistent_smoke
PUBLIC	?command_line_display_bpp@@3HA			; command_line_display_bpp
PUBLIC	?command_line_no_render_to_texture@@3HA		; command_line_no_render_to_texture
PUBLIC	?command_line_no_dx9zbuffer_fix@@3HA		; command_line_no_dx9zbuffer_fix
PUBLIC	?command_line_no_hardware_tnl@@3HA		; command_line_no_hardware_tnl
PUBLIC	?command_line_d3d_use_texture_management@@3HA	; command_line_d3d_use_texture_management
PUBLIC	?command_line_cpu_blit_textures@@3HA		; command_line_cpu_blit_textures
PUBLIC	?command_line_3d_reset@@3HA			; command_line_3d_reset
PUBLIC	?command_line_3d_visual_screen_height@@3HA	; command_line_3d_visual_screen_height
PUBLIC	?command_line_3d_visual_screen_width@@3HA	; command_line_3d_visual_screen_width
PUBLIC	?command_line_player_start_rank@@3HA		; command_line_player_start_rank
PUBLIC	?command_line_dynamics_sonic_buildup@@3HA	; command_line_dynamics_sonic_buildup
PUBLIC	?command_line_capture_aircraft@@3HA		; command_line_capture_aircraft
PUBLIC	?command_line_cheats_on@@3HA			; command_line_cheats_on
PUBLIC	?command_line_planner_goto_button@@3HA		; command_line_planner_goto_button
PUBLIC	?command_line_no_pilot_rejection@@3HA		; command_line_no_pilot_rejection
PUBLIC	?command_line_target_point_check@@3HA		; command_line_target_point_check
PUBLIC	?command_line_vector_flight_model@@3HA		; command_line_vector_flight_model
PUBLIC	?command_line_max_game_update_rate_set@@3HA	; command_line_max_game_update_rate_set
PUBLIC	?command_line_max_game_update_rate@@3HA		; command_line_max_game_update_rate
PUBLIC	?command_line_max_frame_rate@@3HA		; command_line_max_frame_rate
PUBLIC	?command_line_game_initialisation_phase_gunship_type@@3HA ; command_line_game_initialisation_phase_gunship_type
PUBLIC	?command_line_game_initialisation_phase_game_type@@3HA ; command_line_game_initialisation_phase_game_type
PUBLIC	?command_line_comms_validate_connections@@3HA	; command_line_comms_validate_connections
PUBLIC	?command_line_comms_interpolate_gunships@@3HA	; command_line_comms_interpolate_gunships
PUBLIC	?command_line_comms_dedicated_server@@3HA	; command_line_comms_dedicated_server
PUBLIC	?command_line_comms_guaranteed_send@@3HA	; command_line_comms_guaranteed_send
PUBLIC	?command_line_comms_initial_sleep_time@@3HA	; command_line_comms_initial_sleep_time
PUBLIC	?command_line_comms_pack_buffer_size@@3HA	; command_line_comms_pack_buffer_size
PUBLIC	?command_line_comms_timeout@@3HA		; command_line_comms_timeout
PUBLIC	?command_line_comms_data_record_size@@3HA	; command_line_comms_data_record_size
PUBLIC	?command_line_comms_connection_receive_size@@3HA ; command_line_comms_connection_receive_size
PUBLIC	?command_line_comms_packet_rerequest_limit@@3HA	; command_line_comms_packet_rerequest_limit
PUBLIC	?command_line_comms_packet_data_size@@3HA	; command_line_comms_packet_data_size
PUBLIC	?command_line_comms_resend_list_size@@3HA	; command_line_comms_resend_list_size
PUBLIC	?command_line_comms_packet_throttle_limit@@3HA	; command_line_comms_packet_throttle_limit
PUBLIC	?command_line_comms_show_stats@@3HA		; command_line_comms_show_stats
PUBLIC	?command_line_no_graphics_conversion@@3HA	; command_line_no_graphics_conversion
PUBLIC	?command_line_ai_use_route_generator@@3HA	; command_line_ai_use_route_generator
PUBLIC	?command_line_max_time_acceleration@@3HA	; command_line_max_time_acceleration
PUBLIC	?command_line_new_graphics@@3HA			; command_line_new_graphics
PUBLIC	?command_line_clean_graphics@@3HA		; command_line_clean_graphics
PUBLIC	?command_line_sound_hdwrbuf@@3HA		; command_line_sound_hdwrbuf
PUBLIC	?command_line_hardware_render@@3HA		; command_line_hardware_render
PUBLIC	?command_line_entity_update_frame_rate@@3HA	; command_line_entity_update_frame_rate
PUBLIC	?command_line_cdrom_drive_letter@@3HA		; command_line_cdrom_drive_letter
PUBLIC	?command_line_full_screen@@3HA			; command_line_full_screen
PUBLIC	?command_line_version_number@@3HA		; command_line_version_number
PUBLIC	?command_line_dump_session@@3HA			; command_line_dump_session
PUBLIC	?command_line_debug_input@@3HA			; command_line_debug_input
PUBLIC	?command_line_report_to_masterserver@@3HA	; command_line_report_to_masterserver
PUBLIC	?command_line_dynamics_engine_startup@@3HA	; command_line_dynamics_engine_startup
PUBLIC	?command_line_dynamics_flight_model@@3HA	; command_line_dynamics_flight_model
PUBLIC	?command_line_dynamics_advanced_engine_model@@3HA ; command_line_dynamics_advanced_engine_model
EXTRN	__imp__getenv:PROC
EXTRN	__imp__strchr:PROC
?command_line_run_mode@@3HA DD 01H DUP (?)		; command_line_run_mode
?command_line_force_resolution@@3HA DD 01H DUP (?)	; command_line_force_resolution
?command_line_3d_visual_clear_edges@@3HA DD 01H DUP (?)	; command_line_3d_visual_clear_edges
?command_line_russian_nvg_no_ir@@3HA DD 01H DUP (?)	; command_line_russian_nvg_no_ir
?global_PNVS_level@@3HA DD 01H DUP (?)			; global_PNVS_level
?command_line_no_sound@@3HA DD 01H DUP (?)		; command_line_no_sound
?command_line_server_log_filename@@3PADA DB 080H DUP (?) ; command_line_server_log_filename
?command_line_ip_address@@3PADA DB 080H DUP (?)		; command_line_ip_address
?command_line_game_initialisation_phase_filename@@3PADA DB 080H DUP (?) ; command_line_game_initialisation_phase_filename
?command_line_game_initialisation_phase_directory@@3PADA DB 080H DUP (?) ; command_line_game_initialisation_phase_directory
?command_line_game_initialisation_phase_path@@3PADA DB 080H DUP (?) ; command_line_game_initialisation_phase_path
?command_line_sound_device_speech@@3PADA DB 080H DUP (?) ; command_line_sound_device_speech
?command_line_sound_device@@3PADA DB 080H DUP (?)	; command_line_sound_device
?command_line_themes@@3PADA DB 080H DUP (?)		; command_line_themes
?command_line_g_force_head_movment_modifier@@3MA DD 01H DUP (?) ; command_line_g_force_head_movment_modifier
?command_line_aitool_grid_pitch@@3MA DD 01H DUP (?)	; command_line_aitool_grid_pitch
?command_line_dynamics_cyclic_dead_zone@@3MA DD 01H DUP (?) ; command_line_dynamics_cyclic_dead_zone
?command_line_export_mfd_adapter@@3HA DD 01H DUP (?)	; command_line_export_mfd_adapter
?command_line_export_mfd@@3HA DD 01H DUP (?)		; command_line_export_mfd
?session_camcom@@3HA DD 01H DUP (?)			; session_camcom
?session_vector_flight_model@@3HA DD 01H DUP (?)	; session_vector_flight_model
?session_planner_goto_button@@3HA DD 01H DUP (?)	; session_planner_goto_button
?command_line_autosave@@3HA DD 01H DUP (?)		; command_line_autosave
?command_line_disable_message_text@@3HA DD 01H DUP (?)	; command_line_disable_message_text
?global_tsd_detail@@3HA DD 01H DUP (?)			; global_tsd_detail
?global_hud_alpha@@3HA DD 01H DUP (?)			; global_hud_alpha
?global_aphavoc_maps@@3HA DD 01H DUP (?)		; global_aphavoc_maps
?command_line_shared_mem_export@@3HA DD 01H DUP (?)	; command_line_shared_mem_export
?command_line_3d_cockpit@@3HA DD 01H DUP (?)		; command_line_3d_cockpit
?command_line_TIR_6DOF@@3HA DD 01H DUP (?)		; command_line_TIR_6DOF
?command_line_high_lod_hack@@3HA DD 01H DUP (?)		; command_line_high_lod_hack
?command_line_external_trackir_direction@@3HA DD 01H DUP (?) ; command_line_external_trackir_direction
?command_line_external_trackir@@3HA DD 01H DUP (?)	; command_line_external_trackir
?command_line_reverse_pedal@@3HA DD 01H DUP (?)		; command_line_reverse_pedal
?command_line_pause_server@@3HA DD 01H DUP (?)		; command_line_pause_server
?command_line_designated_targets@@3HA DD 01H DUP (?)	; command_line_designated_targets
?command_line_tacview_generate_srtm_height_data@@3HA DD 01H DUP (?) ; command_line_tacview_generate_srtm_height_data
?command_line_tacview_logging@@3HA DD 01H DUP (?)	; command_line_tacview_logging
?command_line_camcom@@3HA DD 01H DUP (?)		; command_line_camcom
?command_line_tsd_palette@@3HA DD 01H DUP (?)		; command_line_tsd_palette
?command_line_tsd_render_mode@@3HA DD 01H DUP (?)	; command_line_tsd_render_mode
?command_line_tsd_enemy_colours@@3HA DD 01H DUP (?)	; command_line_tsd_enemy_colours
?command_line_eo_full_range@@3HA DD 01H DUP (?)		; command_line_eo_full_range
?command_line_autoreturn_to_pilot_after_periscope@@3HA DD 01H DUP (?) ; command_line_autoreturn_to_pilot_after_periscope
?command_line_pilot_as_periscope_default@@3HA DD 01H DUP (?) ; command_line_pilot_as_periscope_default
?command_line_unpadlock_on_handover@@3HA DD 01H DUP (?)	; command_line_unpadlock_on_handover
?command_line_wut@@3HA DD 01H DUP (?)			; command_line_wut
?command_line_downwash@@3HA DD 01H DUP (?)		; command_line_downwash
?command_line_framerate@@3HA DD 01H DUP (?)		; command_line_framerate
?command_line_manual_laser_radar@@3HA DD 01H DUP (?)	; command_line_manual_laser_radar
?command_line_mouse_look@@3HA DD 01H DUP (?)		; command_line_mouse_look
?command_line_no_mission_complete_music@@3HA DD 01H DUP (?) ; command_line_no_mission_complete_music
?command_line_no_render_to_texture@@3HA DD 01H DUP (?)	; command_line_no_render_to_texture
?command_line_no_dx9zbuffer_fix@@3HA DD 01H DUP (?)	; command_line_no_dx9zbuffer_fix
?command_line_d3d_use_texture_management@@3HA DD 01H DUP (?) ; command_line_d3d_use_texture_management
?command_line_cpu_blit_textures@@3HA DD 01H DUP (?)	; command_line_cpu_blit_textures
?command_line_3d_reset@@3HA DD 01H DUP (?)		; command_line_3d_reset
?command_line_cheats_on@@3HA DD 01H DUP (?)		; command_line_cheats_on
?command_line_planner_goto_button@@3HA DD 01H DUP (?)	; command_line_planner_goto_button
?command_line_no_pilot_rejection@@3HA DD 01H DUP (?)	; command_line_no_pilot_rejection
?command_line_target_point_check@@3HA DD 01H DUP (?)	; command_line_target_point_check
?command_line_vector_flight_model@@3HA DD 01H DUP (?)	; command_line_vector_flight_model
?command_line_max_game_update_rate_set@@3HA DD 01H DUP (?) ; command_line_max_game_update_rate_set
?command_line_game_initialisation_phase_game_type@@3HA DD 01H DUP (?) ; command_line_game_initialisation_phase_game_type
?command_line_comms_dedicated_server@@3HA DD 01H DUP (?) ; command_line_comms_dedicated_server
?command_line_comms_show_stats@@3HA DD 01H DUP (?)	; command_line_comms_show_stats
?command_line_no_graphics_conversion@@3HA DD 01H DUP (?) ; command_line_no_graphics_conversion
?command_line_clean_graphics@@3HA DD 01H DUP (?)	; command_line_clean_graphics
?command_line_sound_hdwrbuf@@3HA DD 01H DUP (?)		; command_line_sound_hdwrbuf
?command_line_hardware_render@@3HA DD 01H DUP (?)	; command_line_hardware_render
?command_line_cdrom_drive_letter@@3HA DD 01H DUP (?)	; command_line_cdrom_drive_letter
?command_line_version_number@@3HA DD 01H DUP (?)	; command_line_version_number
?command_line_dump_session@@3HA DD 01H DUP (?)		; command_line_dump_session
?command_line_debug_input@@3HA DD 01H DUP (?)		; command_line_debug_input
?command_line_report_to_masterserver@@3HA DD 01H DUP (?) ; command_line_report_to_masterserver
?command_line_dynamics_engine_startup@@3HA DD 01H DUP (?) ; command_line_dynamics_engine_startup
_BSS	ENDS
?global_night_light_level@@3MA DD 03f800000r	; 1	; global_night_light_level
?global_mfd_size@@3MA DD 03f800000r		; 1	; global_mfd_size
?command_line_secondary_server_setting@@3PADA DB 'eech.dhs.org', 00H ; command_line_secondary_server_setting
	ORG $+115
?command_line_primary_server_setting@@3PADA DB 'hoxdna.org', 00H ; command_line_primary_server_setting
	ORG $+117
?global_hud_size2@@3MA DD 03f800000r		; 1	; global_hud_size2
?command_line_smoke_effectiveness@@3MA DD 03f800000r ; 1 ; command_line_smoke_effectiveness
?command_line_flare_effectiveness@@3MA DD 03f800000r ; 1 ; command_line_flare_effectiveness
?command_line_chaff_effectiveness@@3MA DD 03f800000r ; 1 ; command_line_chaff_effectiveness
?command_line_fog_of_war_maximum_value@@3MA DD 046610000r ; 14400 ; command_line_fog_of_war_maximum_value
?command_line_object_lod_factor@@3MA DD 03f800000r ; 1	; command_line_object_lod_factor
?command_line_user_invulnerable_time@@3MA DD 040a00000r ; 5 ; command_line_user_invulnerable_time
?command_line_city_block_approximation_range@@3MA DD 043fa0000r ; 500 ; command_line_city_block_approximation_range
?command_line_comms_packet_resend_timer@@3MA DD 040a00000r ; 5 ; command_line_comms_packet_resend_timer
?command_line_comms_resend_timeout@@3MA DD 040000000r ; 2 ; command_line_comms_resend_timeout
?command_line_collective_percentage_at_zone1@@3MA DD 042700000r ; 60 ; command_line_collective_percentage_at_zone1
?command_line_collective_zone_2_limit@@3MA DD 03f333333r ; 0.7 ; command_line_collective_zone_2_limit
?command_line_collective_zone_1_limit@@3MA DD 03e99999ar ; 0.3 ; command_line_collective_zone_1_limit
?command_line_dynamics_yaw_altitude_loss@@3MA DD 040a00000r ; 5 ; command_line_dynamics_yaw_altitude_loss
?command_line_dynamics_tail_rotor_drag@@3MA DD 03f800000r ; 1 ; command_line_dynamics_tail_rotor_drag
?command_line_dynamics_main_rotor_lift@@3MA DD 03f800000r ; 1 ; command_line_dynamics_main_rotor_lift
?command_line_dynamics_main_rotor_drag@@3MA DD 03f800000r ; 1 ; command_line_dynamics_main_rotor_drag
?command_line_dynamics_rudder_acceleration@@3MA DD 03f4ccccdr ; 0.8 ; command_line_dynamics_rudder_acceleration
?command_line_dynamics_rudder_value@@3MA DD 03f800000r ; 1 ; command_line_dynamics_rudder_value
?command_line_dynamics_retreating_blade_stall_effect@@3MA DD 03f800000r ; 1 ; command_line_dynamics_retreating_blade_stall_effect
?command_line_ui_sounds_muted@@3HA DD 01H		; command_line_ui_sounds_muted
?command_line_export_mfd_single_pos@@3PAHA DD 00H	; command_line_export_mfd_single_pos
	DD	00H
	DD	0100H
	DD	0100H
?command_line_export_mfd_right_pos@@3PAHA DD 0180H	; command_line_export_mfd_right_pos
	DD	00H
	DD	0280H
	DD	0100H
?command_line_export_mfd_left_pos@@3PAHA DD 00H		; command_line_export_mfd_left_pos
	DD	00H
	DD	0100H
	DD	0100H
?command_line_export_mfd_screen_height@@3HA DD 0190H	; command_line_export_mfd_screen_height
?command_line_export_mfd_screen_width@@3HA DD 0280H	; command_line_export_mfd_screen_width
?session_ground_radar_ignores_infantry@@3HA DD 01H	; session_ground_radar_ignores_infantry
?command_line_cannontrack@@3HA DD 01H			; command_line_cannontrack
?command_line_texture_colour@@3HA DD 02H		; command_line_texture_colour
?global_dynamic_water@@3HA DD 01H			; global_dynamic_water
?global_anisotropic@@3HA DD 01H				; global_anisotropic
?global_mipmapping@@3HA DD 01H				; global_mipmapping
?command_line_mouse_tsd_target_select@@3HA DD 01H	; command_line_mouse_tsd_target_select
?command_line_wobbly_camera@@3HA DD 01H			; command_line_wobbly_camera
?command_line_session_filter@@3HA DD 01H		; command_line_session_filter
?command_line_joylook_step@@3HA DD 01eH			; command_line_joylook_step
?command_line_joylookv_joystick_axis@@3HA DD 02H	; command_line_joylookv_joystick_axis
?command_line_joylookh_joystick_axis@@3HA DD 01H	; command_line_joylookh_joystick_axis
?command_line_joylook_joystick_index@@3HA DD 0ffffffffH	; command_line_joylook_joystick_index
?command_line_campaign_map_update_interval@@3HA DD 078H	; command_line_campaign_map_update_interval
?command_line_campaign_map_palette@@3HA DD 01H		; command_line_campaign_map_palette
?command_line_campaign_map@@3HA DD 01H			; command_line_campaign_map
?command_line_maxplayers@@3HA DD 04H			; command_line_maxplayers
?command_line_colour_mfd@@3HA DD 01H			; command_line_colour_mfd
?command_line_fly_any_airplane@@3HA DD 01H		; command_line_fly_any_airplane
?command_line_trees_fog@@3HA DD 02H			; command_line_trees_fog
?command_line_render_tree_shadows@@3HA DD 01H		; command_line_render_tree_shadows
?command_line_high_res_hud@@3HA DD 01H			; command_line_high_res_hud
?command_line_high_res_mfd@@3HA DD 01H			; command_line_high_res_mfd
?command_line_restricted_nvg_fov@@3HA DD 01H		; command_line_restricted_nvg_fov
?command_line_nonlinear_pedals@@3HA DD 01H		; command_line_nonlinear_pedals
?command_line_rudder_joystick_axis@@3HA DD 06H		; command_line_rudder_joystick_axis
?command_line_rudder_joystick_index@@3HA DD 0ffffffffH	; command_line_rudder_joystick_index
?command_line_collective_joystick_axis@@3HA DD 03H	; command_line_collective_joystick_axis
?command_line_collective_joystick_index@@3HA DD 0ffffffffH ; command_line_collective_joystick_index
?command_line_nonlinear_cyclic@@3HA DD 01H		; command_line_nonlinear_cyclic
?command_line_cyclic_joystick_y_axis@@3HA DD 02H	; command_line_cyclic_joystick_y_axis
?command_line_cyclic_joystick_x_axis@@3HA DD 01H	; command_line_cyclic_joystick_x_axis
?command_line_cyclic_joystick_index@@3HA DD 0ffffffffH	; command_line_cyclic_joystick_index
?command_line_dump_ini@@3HA DD 01H			; command_line_dump_ini
?command_line_targeting_system_auto_page@@3HA DD 01H	; command_line_targeting_system_auto_page
?command_line_ground_stabilisation_available@@3HA DD 01H ; command_line_ground_stabilisation_available
?command_line_ground_radar_ignores_infantry@@3HA DD 01H	; command_line_ground_radar_ignores_infantry
?command_line_field_of_view_joystick_axis@@3HA DD 04H	; command_line_field_of_view_joystick_axis
?command_line_field_of_view_joystick_index@@3HA DD 0ffffffffH ; command_line_field_of_view_joystick_index
?command_line_eo_zoom_joystick_axis@@3HA DD 07H		; command_line_eo_zoom_joystick_axis
?command_line_eo_zoom_joystick_index@@3HA DD 0ffffffffH	; command_line_eo_zoom_joystick_index
?command_line_eo_pan_horizontal_joystick_axis@@3HA DD 08H ; command_line_eo_pan_horizontal_joystick_axis
?command_line_eo_pan_vertical_joystick_axis@@3HA DD 06H	; command_line_eo_pan_vertical_joystick_axis
?command_line_eo_pan_joystick_index@@3HA DD 0ffffffffH	; command_line_eo_pan_joystick_index
?command_line_max_fov7@@3HA DD 050H			; command_line_max_fov7
?command_line_max_fov6@@3HA DD 050H			; command_line_max_fov6
?command_line_max_fov5@@3HA DD 050H			; command_line_max_fov5
?command_line_max_fov4@@3HA DD 050H			; command_line_max_fov4
?command_line_max_fov3@@3HA DD 050H			; command_line_max_fov3
?command_line_max_fov2@@3HA DD 050H			; command_line_max_fov2
?command_line_max_fov1@@3HA DD 050H			; command_line_max_fov1
?command_line_max_fov0@@3HA DD 050H			; command_line_max_fov0
?command_line_min_fov@@3HA DD 014H			; command_line_min_fov
?command_line_mouse_look_speed@@3HA DD 0fH		; command_line_mouse_look_speed
?command_line_cloud_puffs@@3HA DD 01H			; command_line_cloud_puffs
?command_line_persistent_smoke@@3HA DD 01H		; command_line_persistent_smoke
?command_line_display_bpp@@3HA DD 020H			; command_line_display_bpp
?command_line_no_hardware_tnl@@3HA DD 01H		; command_line_no_hardware_tnl
?command_line_3d_visual_screen_height@@3HA DD 01e0H	; command_line_3d_visual_screen_height
?command_line_3d_visual_screen_width@@3HA DD 0280H	; command_line_3d_visual_screen_width
?command_line_player_start_rank@@3HA DD 01H		; command_line_player_start_rank
?command_line_dynamics_sonic_buildup@@3HA DD 01H	; command_line_dynamics_sonic_buildup
?command_line_capture_aircraft@@3HA DD 01H		; command_line_capture_aircraft
?command_line_max_game_update_rate@@3HA DD 0fH		; command_line_max_game_update_rate
?command_line_max_frame_rate@@3HA DD 01eH		; command_line_max_frame_rate
?command_line_game_initialisation_phase_gunship_type@@3HA DD 0aH ; command_line_game_initialisation_phase_gunship_type
?command_line_comms_validate_connections@@3HA DD 01H	; command_line_comms_validate_connections
?command_line_comms_interpolate_gunships@@3HA DD 01H	; command_line_comms_interpolate_gunships
?command_line_comms_guaranteed_send@@3HA DD 01H		; command_line_comms_guaranteed_send
?command_line_comms_initial_sleep_time@@3HA DD 01f4H	; command_line_comms_initial_sleep_time
?command_line_comms_pack_buffer_size@@3HA DD 034800H	; command_line_comms_pack_buffer_size
?command_line_comms_timeout@@3HA DD 0fH			; command_line_comms_timeout
?command_line_comms_data_record_size@@3HA DD 034800H	; command_line_comms_data_record_size
?command_line_comms_connection_receive_size@@3HA DD 034800H ; command_line_comms_connection_receive_size
?command_line_comms_packet_rerequest_limit@@3HA DD 0aH	; command_line_comms_packet_rerequest_limit
?command_line_comms_packet_data_size@@3HA DD 0200H	; command_line_comms_packet_data_size
?command_line_comms_resend_list_size@@3HA DD 03e8H	; command_line_comms_resend_list_size
?command_line_comms_packet_throttle_limit@@3HA DD 0aH	; command_line_comms_packet_throttle_limit
?command_line_ai_use_route_generator@@3HA DD 01H	; command_line_ai_use_route_generator
?command_line_max_time_acceleration@@3HA DD 04H		; command_line_max_time_acceleration
?command_line_new_graphics@@3HA DD 01H			; command_line_new_graphics
?command_line_entity_update_frame_rate@@3HA DD 02H	; command_line_entity_update_frame_rate
?command_line_full_screen@@3HA DD 01H			; command_line_full_screen
?command_line_dynamics_flight_model@@3HA DD 02H		; command_line_dynamics_flight_model
?command_line_dynamics_advanced_engine_model@@3HA DD 01H ; command_line_dynamics_advanced_engine_model
PUBLIC	?process_environment_variable@@YGXPBD@Z		; process_environment_variable
PUBLIC	?process_command_line@@YGXHQAPAD@Z		; process_command_line
?environment_variable@@3PADA DB 'ENVIRONMENT VARIABLE', 00H ; environment_variable
END
