; Listing generated by Microsoft (R) Optimizing Compiler Version 19.16.27045.0 

	TITLE	c:\users\nhv90\projects\eech\aphavoc\source\gunships\cockpits\common\co_crew.c
	.686P
	.XMM
	include listing.inc
	.model	flat

INCLUDELIB OLDNAMES

PUBLIC	??_C@_04PNKHMHOI@LWMO@				; `string'
PUBLIC	??_C@_0CC@CHNKGIAM@?$CFs?5is?5not?5a?5Lightwave?5motion?5fi@ ; `string'
PUBLIC	??_C@_0EK@KCDEFANI@Incorrect?5number?5of?5frames?5in?5m@ ; `string'
PUBLIC	??_C@_0BL@PNBJJOIP@?$CFf?5?$CFf?5?$CFf?5?$CFf?5?$CFf?5?$CFf?5?$CFf?5?$CFf?5?$CFf@ ; `string'
PUBLIC	??_C@_0P@GNCPONOH@?$CFd?5?$CFd?5?$CFd?5?$CFd?5?$CFd@ ; `string'
PUBLIC	??_C@_0CF@OAGBPBAE@GRAPHICS?2SKINS?2USA?2PILOT?2HI_FAC@ ; `string'
PUBLIC	??_C@_0CG@MEDCGGID@GRAPHICS?2SKINS?2USA?2PILOT?2LOW_FA@ ; `string'
PUBLIC	??_C@_0CC@HEFDNBHB@GRAPHICS?2SKINS?2USA?2PILOT?2NECK?4B@ ; `string'
PUBLIC	??_C@_0CD@HJBKPHK@GRAPHICS?2SKINS?2USA?2PILOT?2HANDS?4@ ; `string'
PUBLIC	??_C@_0CD@CDDKOMH@GRAPHICS?2SKINS?2USA?2CPG?2HI_FACE?4@ ; `string'
PUBLIC	??_C@_0CE@MGLNKHNG@GRAPHICS?2SKINS?2USA?2CPG?2LOW_FACE@ ; `string'
PUBLIC	??_C@_0CA@OLDABBOB@GRAPHICS?2SKINS?2USA?2CPG?2NECK?4BMP@ ; `string'
PUBLIC	??_C@_0CB@PHABFPPO@GRAPHICS?2SKINS?2USA?2CPG?2HANDS?4BM@ ; `string'
PUBLIC	??_C@_0CJ@KLAHLPFF@GRAPHICS?2SKINS?2RUSSIAN?2PILOT?2HI@ ; `string'
PUBLIC	??_C@_0CK@NIBFGBKP@GRAPHICS?2SKINS?2RUSSIAN?2PILOT?2LO@ ; `string'
PUBLIC	??_C@_0CG@MNGGPCJP@GRAPHICS?2SKINS?2RUSSIAN?2PILOT?2NE@ ; `string'
PUBLIC	??_C@_0CH@EAJKFFCG@GRAPHICS?2SKINS?2RUSSIAN?2PILOT?2HA@ ; `string'
PUBLIC	??_C@_0CH@EFDIFEJL@GRAPHICS?2SKINS?2RUSSIAN?2CPG?2HI_F@ ; `string'
PUBLIC	??_C@_0CI@KECHLBPD@GRAPHICS?2SKINS?2RUSSIAN?2CPG?2LOW_@ ; `string'
PUBLIC	??_C@_0CE@KPEEFHBD@GRAPHICS?2SKINS?2RUSSIAN?2CPG?2NECK@ ; `string'
PUBLIC	??_C@_0CF@KEPGLIII@GRAPHICS?2SKINS?2RUSSIAN?2CPG?2HAND@ ; `string'
;	COMDAT ??_C@_0CF@KEPGLIII@GRAPHICS?2SKINS?2RUSSIAN?2CPG?2HAND@
CONST	SEGMENT
??_C@_0CF@KEPGLIII@GRAPHICS?2SKINS?2RUSSIAN?2CPG?2HAND@ DB 'GRAPHICS\SKIN'
	DB	'S\RUSSIAN\CPG\HANDS.BMP', 00H		; `string'
CONST	ENDS
;	COMDAT ??_C@_0CE@KPEEFHBD@GRAPHICS?2SKINS?2RUSSIAN?2CPG?2NECK@
CONST	SEGMENT
??_C@_0CE@KPEEFHBD@GRAPHICS?2SKINS?2RUSSIAN?2CPG?2NECK@ DB 'GRAPHICS\SKIN'
	DB	'S\RUSSIAN\CPG\NECK.BMP', 00H		; `string'
CONST	ENDS
;	COMDAT ??_C@_0CI@KECHLBPD@GRAPHICS?2SKINS?2RUSSIAN?2CPG?2LOW_@
CONST	SEGMENT
??_C@_0CI@KECHLBPD@GRAPHICS?2SKINS?2RUSSIAN?2CPG?2LOW_@ DB 'GRAPHICS\SKIN'
	DB	'S\RUSSIAN\CPG\LOW_FACE.BMP', 00H		; `string'
CONST	ENDS
;	COMDAT ??_C@_0CH@EFDIFEJL@GRAPHICS?2SKINS?2RUSSIAN?2CPG?2HI_F@
CONST	SEGMENT
??_C@_0CH@EFDIFEJL@GRAPHICS?2SKINS?2RUSSIAN?2CPG?2HI_F@ DB 'GRAPHICS\SKIN'
	DB	'S\RUSSIAN\CPG\HI_FACE.BMP', 00H		; `string'
CONST	ENDS
;	COMDAT ??_C@_0CH@EAJKFFCG@GRAPHICS?2SKINS?2RUSSIAN?2PILOT?2HA@
CONST	SEGMENT
??_C@_0CH@EAJKFFCG@GRAPHICS?2SKINS?2RUSSIAN?2PILOT?2HA@ DB 'GRAPHICS\SKIN'
	DB	'S\RUSSIAN\PILOT\HANDS.BMP', 00H		; `string'
CONST	ENDS
;	COMDAT ??_C@_0CG@MNGGPCJP@GRAPHICS?2SKINS?2RUSSIAN?2PILOT?2NE@
CONST	SEGMENT
??_C@_0CG@MNGGPCJP@GRAPHICS?2SKINS?2RUSSIAN?2PILOT?2NE@ DB 'GRAPHICS\SKIN'
	DB	'S\RUSSIAN\PILOT\NECK.BMP', 00H		; `string'
CONST	ENDS
;	COMDAT ??_C@_0CK@NIBFGBKP@GRAPHICS?2SKINS?2RUSSIAN?2PILOT?2LO@
CONST	SEGMENT
??_C@_0CK@NIBFGBKP@GRAPHICS?2SKINS?2RUSSIAN?2PILOT?2LO@ DB 'GRAPHICS\SKIN'
	DB	'S\RUSSIAN\PILOT\LOW_FACE.BMP', 00H		; `string'
CONST	ENDS
;	COMDAT ??_C@_0CJ@KLAHLPFF@GRAPHICS?2SKINS?2RUSSIAN?2PILOT?2HI@
CONST	SEGMENT
??_C@_0CJ@KLAHLPFF@GRAPHICS?2SKINS?2RUSSIAN?2PILOT?2HI@ DB 'GRAPHICS\SKIN'
	DB	'S\RUSSIAN\PILOT\HI_FACE.BMP', 00H		; `string'
CONST	ENDS
;	COMDAT ??_C@_0CB@PHABFPPO@GRAPHICS?2SKINS?2USA?2CPG?2HANDS?4BM@
CONST	SEGMENT
??_C@_0CB@PHABFPPO@GRAPHICS?2SKINS?2USA?2CPG?2HANDS?4BM@ DB 'GRAPHICS\SKI'
	DB	'NS\USA\CPG\HANDS.BMP', 00H			; `string'
CONST	ENDS
;	COMDAT ??_C@_0CA@OLDABBOB@GRAPHICS?2SKINS?2USA?2CPG?2NECK?4BMP@
CONST	SEGMENT
??_C@_0CA@OLDABBOB@GRAPHICS?2SKINS?2USA?2CPG?2NECK?4BMP@ DB 'GRAPHICS\SKI'
	DB	'NS\USA\CPG\NECK.BMP', 00H			; `string'
CONST	ENDS
;	COMDAT ??_C@_0CE@MGLNKHNG@GRAPHICS?2SKINS?2USA?2CPG?2LOW_FACE@
CONST	SEGMENT
??_C@_0CE@MGLNKHNG@GRAPHICS?2SKINS?2USA?2CPG?2LOW_FACE@ DB 'GRAPHICS\SKIN'
	DB	'S\USA\CPG\LOW_FACE.BMP', 00H		; `string'
CONST	ENDS
;	COMDAT ??_C@_0CD@CDDKOMH@GRAPHICS?2SKINS?2USA?2CPG?2HI_FACE?4@
CONST	SEGMENT
??_C@_0CD@CDDKOMH@GRAPHICS?2SKINS?2USA?2CPG?2HI_FACE?4@ DB 'GRAPHICS\SKIN'
	DB	'S\USA\CPG\HI_FACE.BMP', 00H			; `string'
CONST	ENDS
;	COMDAT ??_C@_0CD@HJBKPHK@GRAPHICS?2SKINS?2USA?2PILOT?2HANDS?4@
CONST	SEGMENT
??_C@_0CD@HJBKPHK@GRAPHICS?2SKINS?2USA?2PILOT?2HANDS?4@ DB 'GRAPHICS\SKIN'
	DB	'S\USA\PILOT\HANDS.BMP', 00H			; `string'
CONST	ENDS
;	COMDAT ??_C@_0CC@HEFDNBHB@GRAPHICS?2SKINS?2USA?2PILOT?2NECK?4B@
CONST	SEGMENT
??_C@_0CC@HEFDNBHB@GRAPHICS?2SKINS?2USA?2PILOT?2NECK?4B@ DB 'GRAPHICS\SKI'
	DB	'NS\USA\PILOT\NECK.BMP', 00H			; `string'
CONST	ENDS
;	COMDAT ??_C@_0CG@MEDCGGID@GRAPHICS?2SKINS?2USA?2PILOT?2LOW_FA@
CONST	SEGMENT
??_C@_0CG@MEDCGGID@GRAPHICS?2SKINS?2USA?2PILOT?2LOW_FA@ DB 'GRAPHICS\SKIN'
	DB	'S\USA\PILOT\LOW_FACE.BMP', 00H		; `string'
CONST	ENDS
;	COMDAT ??_C@_0CF@OAGBPBAE@GRAPHICS?2SKINS?2USA?2PILOT?2HI_FAC@
CONST	SEGMENT
??_C@_0CF@OAGBPBAE@GRAPHICS?2SKINS?2USA?2PILOT?2HI_FAC@ DB 'GRAPHICS\SKIN'
	DB	'S\USA\PILOT\HI_FACE.BMP', 00H		; `string'
CONST	ENDS
;	COMDAT ??_C@_0P@GNCPONOH@?$CFd?5?$CFd?5?$CFd?5?$CFd?5?$CFd@
CONST	SEGMENT
??_C@_0P@GNCPONOH@?$CFd?5?$CFd?5?$CFd?5?$CFd?5?$CFd@ DB '%d %d %d %d %d', 00H ; `string'
CONST	ENDS
;	COMDAT ??_C@_0BL@PNBJJOIP@?$CFf?5?$CFf?5?$CFf?5?$CFf?5?$CFf?5?$CFf?5?$CFf?5?$CFf?5?$CFf@
CONST	SEGMENT
??_C@_0BL@PNBJJOIP@?$CFf?5?$CFf?5?$CFf?5?$CFf?5?$CFf?5?$CFf?5?$CFf?5?$CFf?5?$CFf@ DB '%'
	DB	'f %f %f %f %f %f %f %f %f', 00H		; `string'
CONST	ENDS
;	COMDAT ??_C@_0EK@KCDEFANI@Incorrect?5number?5of?5frames?5in?5m@
CONST	SEGMENT
??_C@_0EK@KCDEFANI@Incorrect?5number?5of?5frames?5in?5m@ DB 'Incorrect nu'
	DB	'mber of frames in motion file %s (expected = %d, actual = %d)'
	DB	00H						; `string'
CONST	ENDS
;	COMDAT ??_C@_0CC@CHNKGIAM@?$CFs?5is?5not?5a?5Lightwave?5motion?5fi@
CONST	SEGMENT
??_C@_0CC@CHNKGIAM@?$CFs?5is?5not?5a?5Lightwave?5motion?5fi@ DB '%s is no'
	DB	't a Lightwave motion file', 00H		; `string'
CONST	ENDS
;	COMDAT ??_C@_04PNKHMHOI@LWMO@
CONST	SEGMENT
??_C@_04PNKHMHOI@LWMO@ DB 'LWMO', 00H			; `string'
PUBLIC	?get_crew_camera_index@@YGHW4CREW_ROLES@@@Z	; get_crew_camera_index
PUBLIC	?select_next_current_virtual_cockpit_camera@@YGXW4CREW_ROLES@@@Z ; select_next_current_virtual_cockpit_camera
PUBLIC	?get_current_virtual_cockpit_camera@@YGHW4CREW_ROLES@@@Z ; get_current_virtual_cockpit_camera
PUBLIC	?get_num_virtual_cockpit_cameras@@YGHW4CREW_ROLES@@@Z ; get_num_virtual_cockpit_cameras
PUBLIC	?read_motion_values@@YGXPBDHPAUMOTION_DATA@@@Z	; read_motion_values
PUBLIC	?interpolate_motion_values@@YGXMMPAUMOTION_DATA@@H0@Z ; interpolate_motion_values
PUBLIC	?initialise_common_virtual_cockpit_cameras@@YGXXZ ; initialise_common_virtual_cockpit_cameras
PUBLIC	?deinitialise_common_virtual_cockpit_cameras@@YGXXZ ; deinitialise_common_virtual_cockpit_cameras
PUBLIC	?get_crew_role@@YG?AW4CREW_ROLES@@XZ		; get_crew_role
PUBLIC	?initialise_common_crew_skins@@YGXXZ		; initialise_common_crew_skins
PUBLIC	?deinitialise_common_crew_skins@@YGXXZ		; deinitialise_common_crew_skins
?num_pilot_virtual_cockpit_cameras@@3HA DD 01H DUP (?)	; num_pilot_virtual_cockpit_cameras
?current_pilot_virtual_cockpit_camera@@3HA DD 01H DUP (?) ; current_pilot_virtual_cockpit_camera
?num_co_pilot_virtual_cockpit_cameras@@3HA DD 01H DUP (?) ; num_co_pilot_virtual_cockpit_cameras
?current_co_pilot_virtual_cockpit_camera@@3HA DD 01H DUP (?) ; current_co_pilot_virtual_cockpit_camera
?us_pilot_high_detail_face@@3PAUSCREEN@@A DD 01H DUP (?) ; us_pilot_high_detail_face
?us_pilot_low_detail_face@@3PAUSCREEN@@A DD 01H DUP (?)	; us_pilot_low_detail_face
?us_pilot_neck@@3PAUSCREEN@@A DD 01H DUP (?)		; us_pilot_neck
?us_pilot_hands@@3PAUSCREEN@@A DD 01H DUP (?)		; us_pilot_hands
?us_co_pilot_high_detail_face@@3PAUSCREEN@@A DD 01H DUP (?) ; us_co_pilot_high_detail_face
?us_co_pilot_low_detail_face@@3PAUSCREEN@@A DD 01H DUP (?) ; us_co_pilot_low_detail_face
?us_co_pilot_neck@@3PAUSCREEN@@A DD 01H DUP (?)		; us_co_pilot_neck
?us_co_pilot_hands@@3PAUSCREEN@@A DD 01H DUP (?)	; us_co_pilot_hands
?russian_pilot_high_detail_face@@3PAUSCREEN@@A DD 01H DUP (?) ; russian_pilot_high_detail_face
?russian_pilot_low_detail_face@@3PAUSCREEN@@A DD 01H DUP (?) ; russian_pilot_low_detail_face
?russian_pilot_neck@@3PAUSCREEN@@A DD 01H DUP (?)	; russian_pilot_neck
?russian_pilot_hands@@3PAUSCREEN@@A DD 01H DUP (?)	; russian_pilot_hands
?russian_co_pilot_high_detail_face@@3PAUSCREEN@@A DD 01H DUP (?) ; russian_co_pilot_high_detail_face
?russian_co_pilot_low_detail_face@@3PAUSCREEN@@A DD 01H DUP (?) ; russian_co_pilot_low_detail_face
?russian_co_pilot_neck@@3PAUSCREEN@@A DD 01H DUP (?)	; russian_co_pilot_neck
?russian_co_pilot_hands@@3PAUSCREEN@@A DD 01H DUP (?)	; russian_co_pilot_hands
_BSS	ENDS
END
