; Listing generated by Microsoft (R) Optimizing Compiler Version 19.16.27045.0 

	TITLE	c:\users\nhv90\projects\eech\aphavoc\source\gunships\dynamics\common\co_dyn.c
	.686P
	.XMM
	include listing.inc
	.model	flat

INCLUDELIB OLDNAMES

PUBLIC	?trim_button_held@@3HA				; trim_button_held
;	COMDAT ?desired_force@?LG@??update_common_attitude_dynamics@@YGXXZ@4MA
_BSS	SEGMENT
?desired_force@?LG@??update_common_attitude_dynamics@@YGXXZ@4MA DD 01H DUP (?) ; `update_common_attitude_dynamics'::`182'::desired_force
_BSS	ENDS
;	COMDAT ?force@?LG@??update_common_attitude_dynamics@@YGXXZ@4MA
_BSS	SEGMENT
?force@?LG@??update_common_attitude_dynamics@@YGXXZ@4MA DD 01H DUP (?) ; `update_common_attitude_dynamics'::`182'::force
_BSS	ENDS
;	COMDAT ?v@?FB@??update_common_attitude_dynamics@@YGXXZ@4MA
_BSS	SEGMENT
?v@?FB@??update_common_attitude_dynamics@@YGXXZ@4MA DD 01H DUP (?) ; `update_common_attitude_dynamics'::`81'::v
_BSS	ENDS
;	COMDAT ?torque@?FB@??update_common_attitude_dynamics@@YGXXZ@4MA
_BSS	SEGMENT
?torque@?FB@??update_common_attitude_dynamics@@YGXXZ@4MA DD 01H DUP (?) ; `update_common_attitude_dynamics'::`81'::torque
_BSS	ENDS
;	COMDAT ?relative_air_flow_angle@?FB@??update_common_attitude_dynamics@@YGXXZ@4MA
_BSS	SEGMENT
?relative_air_flow_angle@?FB@??update_common_attitude_dynamics@@YGXXZ@4MA DD 01H DUP (?) ; `update_common_attitude_dynamics'::`81'::relative_air_flow_angle
_BSS	ENDS
;	COMDAT ?time@?EI@??update_common_attitude_dynamics@@YGXXZ@4MA
_BSS	SEGMENT
?time@?EI@??update_common_attitude_dynamics@@YGXXZ@4MA DD 01H DUP (?) ; `update_common_attitude_dynamics'::`72'::time
?trim_button_held@@3HA DD 01H DUP (?)			; trim_button_held
_BSS	ENDS
;	COMDAT ?mass@?FB@??update_common_attitude_dynamics@@YGXXZ@4MA
CONST	SEGMENT
?mass@?FB@??update_common_attitude_dynamics@@YGXXZ@4MA DD 042200000r ; 40 ; `update_common_attitude_dynamics'::`81'::mass
CONST	ENDS
;	COMDAT ?res@?FB@??update_common_attitude_dynamics@@YGXXZ@4MA
CONST	SEGMENT
?res@?FB@??update_common_attitude_dynamics@@YGXXZ@4MA DD 040c00000r ; 6 ; `update_common_attitude_dynamics'::`81'::res
PUBLIC	?update_common_attitude_dynamics@@YGXXZ		; update_common_attitude_dynamics
PUBLIC	?initialise_common_dynamics@@YGXXZ		; initialise_common_dynamics
PUBLIC	?adjust_pedal_trim@@YGXPAUEVENT@@@Z		; adjust_pedal_trim
PUBLIC	?adjust_roll_trim@@YGXPAUEVENT@@@Z		; adjust_roll_trim
PUBLIC	?adjust_pitch_trim@@YGXPAUEVENT@@@Z		; adjust_pitch_trim
PUBLIC	?clear_trim_control@@YGXPAUEVENT@@@Z		; clear_trim_control
PUBLIC	?set_trim_control@@YGXPAUEVENT@@@Z		; set_trim_control
?right_g_e_force@@3MA DD 01H DUP (?)			; right_g_e_force
?left_g_e_force@@3MA DD 01H DUP (?)			; left_g_e_force
?back_g_e_force@@3MA DD 01H DUP (?)			; back_g_e_force
?front_g_e_force@@3MA DD 01H DUP (?)			; front_g_e_force
?this_reaction_force@@3MA DD 01H DUP (?)		; this_reaction_force
_BSS	ENDS
END
