; Listing generated by Microsoft (R) Optimizing Compiler Version 19.16.27045.0 

	TITLE	c:\users\nhv90\projects\eech\aphavoc\source\gunships\avionics\common\co_radar.c
	.686P
	.XMM
	include listing.inc
	.model	flat

INCLUDELIB OLDNAMES

PUBLIC	?draw_radar_terrain_los_markers@@3HA		; draw_radar_terrain_los_markers
PUBLIC	?draw_radar_sweep@@3HA				; draw_radar_sweep
PUBLIC	?air_radar@@3URADAR_PARAMS@@A			; air_radar
PUBLIC	?ground_radar@@3URADAR_PARAMS@@A		; ground_radar
PUBLIC	?radar_clutter_hatch_pattern@@3PAIA		; radar_clutter_hatch_pattern
PUBLIC	??_C@_0BN@KALIGLF@Unknown?5target?5priority?5type@ ; `string'
?draw_radar_terrain_los_markers@@3HA DD 01H DUP (?)	; draw_radar_terrain_los_markers
?draw_radar_sweep@@3HA DD 01H DUP (?)			; draw_radar_sweep
?air_radar@@3URADAR_PARAMS@@A DB 030H DUP (?)		; air_radar
?ground_radar@@3URADAR_PARAMS@@A DB 030H DUP (?)	; ground_radar
_BSS	ENDS
;	COMDAT ??_C@_0BN@KALIGLF@Unknown?5target?5priority?5type@
CONST	SEGMENT
??_C@_0BN@KALIGLF@Unknown?5target?5priority?5type@ DB 'Unknown target pri'
	DB	'ority type', 00H				; `string'
?radar_clutter_hatch_pattern@@3PAIA DD 088888888H	; radar_clutter_hatch_pattern
	DD	022222222H
	DD	088888888H
	DD	022222222H
	DD	088888888H
	DD	022222222H
	DD	088888888H
	DD	022222222H
	DD	088888888H
	DD	022222222H
	DD	088888888H
	DD	022222222H
	DD	088888888H
	DD	022222222H
	DD	088888888H
	DD	022222222H
	DD	088888888H
	DD	022222222H
	DD	088888888H
	DD	022222222H
	DD	088888888H
	DD	022222222H
	DD	088888888H
	DD	022222222H
	DD	088888888H
	DD	022222222H
	DD	088888888H
	DD	022222222H
	DD	088888888H
	DD	022222222H
	DD	088888888H
	DD	022222222H
PUBLIC	?deinitialise_common_radar@@YGXXZ		; deinitialise_common_radar
PUBLIC	?initialise_common_radar@@YGXXZ			; initialise_common_radar
PUBLIC	?check_bearing_within_cw_sweep_segment@@YGHMMM@Z ; check_bearing_within_cw_sweep_segment
PUBLIC	?get_los_clear@@YGHPAUENTITY@@PAUVEC3D@@1@Z	; get_los_clear
PUBLIC	?activate_common_ground_radar@@YGXXZ		; activate_common_ground_radar
PUBLIC	?activate_common_air_radar@@YGXXZ		; activate_common_air_radar
PUBLIC	?update_common_air_radar@@YGXXZ			; update_common_air_radar
PUBLIC	?toggle_ground_radar_active@@YGXXZ		; toggle_ground_radar_active
PUBLIC	?toggle_air_radar_active@@YGXXZ			; toggle_air_radar_active
PUBLIC	?update_common_ground_radar@@YGXH@Z		; update_common_ground_radar
PUBLIC	?set_ground_radar_is_active@@YGXH@Z		; set_ground_radar_is_active
PUBLIC	?set_air_radar_is_active@@YGXH@Z		; set_air_radar_is_active
PUBLIC	?deactivate_common_ground_radar@@YGXXZ		; deactivate_common_ground_radar
PUBLIC	?deactivate_common_air_radar@@YGXXZ		; deactivate_common_air_radar
PUBLIC	?limit_radar_sweep@@YGXPAURADAR_PARAMS@@@Z	; limit_radar_sweep
PUBLIC	?get_next_ground_radar_target@@YGXXZ		; get_next_ground_radar_target
PUBLIC	?get_previous_ground_radar_target@@YGXXZ	; get_previous_ground_radar_target
PUBLIC	?select_next_designated_ground_radar_target@@YGXXZ ; select_next_designated_ground_radar_target
PUBLIC	?get_next_air_radar_target@@YGXXZ		; get_next_air_radar_target
PUBLIC	?get_previous_air_radar_target@@YGXXZ		; get_previous_air_radar_target
PUBLIC	?select_next_designated_air_radar_target@@YGXXZ	; select_next_designated_air_radar_target
PUBLIC	?get_gunship_target_valid_for_ground_radar@@YGHPAUENTITY@@@Z ; get_gunship_target_valid_for_ground_radar
PUBLIC	?get_target_matches_ground_radar_declutter_criteria@@YGHPAUENTITY@@@Z ; get_target_matches_ground_radar_declutter_criteria
PUBLIC	?get_gunship_target_valid_for_air_radar@@YGHPAUENTITY@@@Z ; get_gunship_target_valid_for_air_radar
PUBLIC	?get_target_matches_air_radar_declutter_criteria@@YGHPAUENTITY@@W4ENTITY_SIDES@@@Z ; get_target_matches_air_radar_declutter_criteria
PUBLIC	?air_radar_is_active@@YGHXZ			; air_radar_is_active
PUBLIC	?ground_radar_is_active@@YGHXZ			; ground_radar_is_active
?ground_radar_on@@3HA DD 01H DUP (?)			; ground_radar_on
?air_radar_on@@3HA DD 01H DUP (?)			; air_radar_on
_BSS	ENDS
END
