; Listing generated by Microsoft (R) Optimizing Compiler Version 19.16.27045.0 

	TITLE	c:\users\nhv90\projects\eech\aphavoc\source\gunships\avionics\common\co_tsd.c
	.686P
	.XMM
	include listing.inc
	.model	flat

INCLUDELIB OLDNAMES

PUBLIC	??_C@_0BL@HBNIAJMP@Unknown?5TSD?1ASE?5range?5?$CF?42f@ ; `string'
;	COMDAT ??_C@_0BL@HBNIAJMP@Unknown?5TSD?1ASE?5range?5?$CF?42f@
CONST	SEGMENT
??_C@_0BL@HBNIAJMP@Unknown?5TSD?1ASE?5range?5?$CF?42f@ DB 'Unknown TSD/AS'
	DB	'E range %.2f', 00H				; `string'
PUBLIC	?cycle_tsd_map_palette@@YGXXZ			; cycle_tsd_map_palette
PUBLIC	?draw_tsd_map_towns@@YGXPAUVEC3D@@M@Z		; draw_tsd_map_towns
PUBLIC	?draw_tsd_map_grid@@YGXPAUVEC3D@@MUREAL_COLOUR@@@Z ; draw_tsd_map_grid
PUBLIC	?set_tsd_map_road_colour@@YGXUREAL_COLOUR@@@Z	; set_tsd_map_road_colour
PUBLIC	?set_tsd_map_river_colour@@YGXUREAL_COLOUR@@@Z	; set_tsd_map_river_colour
PUBLIC	?set_tsd_map_contour_colour@@YGXUREAL_COLOUR@@@Z ; set_tsd_map_contour_colour
PUBLIC	?get_aspect@@YGMMMMM@Z				; get_aspect
PUBLIC	?get_map_coords_from_world@@YGXPAUVEC3D@@M0PAM1@Z ; get_map_coords_from_world
PUBLIC	?Initialise_TSD_render_terrain@@YGXXZ		; Initialise_TSD_render_terrain
PUBLIC	?draw_tsd_terrain_map@@YGXPAUENV_2D@@MMMPAUVEC3D@@MH@Z ; draw_tsd_terrain_map
PUBLIC	?draw_tsd_contour_map@@YGXPAUENV_2D@@MMMPAUVEC3D@@MHH@Z ; draw_tsd_contour_map
?paper_colour@@3PAUREAL_COLOUR@@A DD 041H DUP (?)	; paper_colour
?terrain_colour@@3PAY0EB@UREAL_COLOUR@@A DD 0104H DUP (?) ; terrain_colour
?tsd_render_palette@@3HA DD 01H DUP (?)			; tsd_render_palette
?contour_spacing@@3HA DD 01H DUP (?)			; contour_spacing
?contour_samples@@3HA DD 01H DUP (?)			; contour_samples
?map_palette@@3PAUREAL_COLOUR@@A DD 01H DUP (?)		; map_palette
?num_contour_loops@@3HA DD 01H DUP (?)			; num_contour_loops
?num_contour_lines@@3HA DD 01H DUP (?)			; num_contour_lines
?map_river_colour@@3UREAL_COLOUR@@A DD 01H DUP (?)	; map_river_colour
?map_road_colour@@3UREAL_COLOUR@@A DD 01H DUP (?)	; map_road_colour
?map_contour_colour@@3UREAL_COLOUR@@A DD 01H DUP (?)	; map_contour_colour
_BSS	ENDS
END
