; Listing generated by Microsoft (R) Optimizing Compiler Version 19.16.27045.0 

	TITLE	c:\users\nhv90\projects\eech\aphavoc\source\gunships\cockpits\common\co_wiper.c
	.686P
	.XMM
	include listing.inc
	.model	flat

INCLUDELIB OLDNAMES

PUBLIC	??_C@_0BI@GHNGLMLL@Invalid?5wiper?5mode?5?$DN?5?$CFd@ ; `string'
PUBLIC	??_C@_0BK@GFBEMEAC@Invalid?5weather?5mode?5?$DN?5?$CFd@ ; `string'
PUBLIC	??_C@_0BC@PDLHLBFJ@WIPE_TYPE_INVALID@		; `string'
PUBLIC	?wiper_on@@3HA					; wiper_on
PUBLIC	?rain_mode@@3W4RAIN_MODES@@A			; rain_mode
PUBLIC	?wiper_mode@@3W4WIPER_MODES@@A			; wiper_mode
PUBLIC	?wiper_position@@3MA				; wiper_position
PUBLIC	?co_pilot_wipe_type@@3W4WIPE_TYPES@@A		; co_pilot_wipe_type
PUBLIC	?co_pilot_wiped_rain_texture_screen@@3PAUSCREEN@@A ; co_pilot_wiped_rain_texture_screen
PUBLIC	?co_pilot_wiper@@3HA				; co_pilot_wiper
PUBLIC	?pilot_wipe_type@@3W4WIPE_TYPES@@A		; pilot_wipe_type
PUBLIC	?pilot_wiped_rain_texture_screen@@3PAUSCREEN@@A	; pilot_wiped_rain_texture_screen
PUBLIC	?pilot_wiper@@3HA				; pilot_wiper
?wiper_on@@3HA DD 01H DUP (?)				; wiper_on
?rain_mode@@3W4RAIN_MODES@@A DD 01H DUP (?)		; rain_mode
?wiper_mode@@3W4WIPER_MODES@@A DD 01H DUP (?)		; wiper_mode
?wiper_position@@3MA DD 01H DUP (?)			; wiper_position
?co_pilot_wipe_type@@3W4WIPE_TYPES@@A DD 01H DUP (?)	; co_pilot_wipe_type
?co_pilot_wiped_rain_texture_screen@@3PAUSCREEN@@A DD 01H DUP (?) ; co_pilot_wiped_rain_texture_screen
?co_pilot_wiper@@3HA DD 01H DUP (?)			; co_pilot_wiper
?pilot_wipe_type@@3W4WIPE_TYPES@@A DD 01H DUP (?)	; pilot_wipe_type
?pilot_wiped_rain_texture_screen@@3PAUSCREEN@@A DD 01H DUP (?) ; pilot_wiped_rain_texture_screen
?pilot_wiper@@3HA DD 01H DUP (?)			; pilot_wiper
_BSS	ENDS
;	COMDAT ??_C@_0BC@PDLHLBFJ@WIPE_TYPE_INVALID@
CONST	SEGMENT
??_C@_0BC@PDLHLBFJ@WIPE_TYPE_INVALID@ DB 'WIPE_TYPE_INVALID', 00H ; `string'
CONST	ENDS
;	COMDAT ??_C@_0BK@GFBEMEAC@Invalid?5weather?5mode?5?$DN?5?$CFd@
CONST	SEGMENT
??_C@_0BK@GFBEMEAC@Invalid?5weather?5mode?5?$DN?5?$CFd@ DB 'Invalid weath'
	DB	'er mode = %d', 00H				; `string'
CONST	ENDS
;	COMDAT ??_C@_0BI@GHNGLMLL@Invalid?5wiper?5mode?5?$DN?5?$CFd@
CONST	SEGMENT
??_C@_0BI@GHNGLMLL@Invalid?5wiper?5mode?5?$DN?5?$CFd@ DB 'Invalid wiper m'
	DB	'ode = %d', 00H				; `string'
PUBLIC	?initialise_common_virtual_cockpit_wiper_and_rain_effect@@YGXXZ ; initialise_common_virtual_cockpit_wiper_and_rain_effect
PUBLIC	?deinitialise_common_virtual_cockpit_wiper_and_rain_effect@@YGXXZ ; deinitialise_common_virtual_cockpit_wiper_and_rain_effect
PUBLIC	?update_common_virtual_cockpit_wiper_and_rain_effect@@YGXXZ ; update_common_virtual_cockpit_wiper_and_rain_effect
PUBLIC	?toggle_wiper_on@@YGXXZ				; toggle_wiper_on
PUBLIC	?toggle_intermittent_wipe@@YGXXZ		; toggle_intermittent_wipe
?rain_texture_screen@@3PAUSCREEN@@A DD 01H DUP (?)	; rain_texture_screen
?composite_rain_texture_screen@@3PAUSCREEN@@A DD 01H DUP (?) ; composite_rain_texture_screen
?composite_pilot_wiped_rain_texture_screen@@3PAUSCREEN@@A DD 01H DUP (?) ; composite_pilot_wiped_rain_texture_screen
?composite_co_pilot_wiped_rain_texture_screen@@3PAUSCREEN@@A DD 01H DUP (?) ; composite_co_pilot_wiped_rain_texture_screen
?wipe_interval@@3MA DD 01H DUP (?)			; wipe_interval
?wipe_delay@@3MA DD 01H DUP (?)				; wipe_delay
?rain_timer@@3MA DD 01H DUP (?)				; rain_timer
?intermittent_wipe@@3HA DD 01H DUP (?)			; intermittent_wipe
?wiper_pos1@@3HA DD 01H DUP (?)				; wiper_pos1
?wiper_pos2@@3HA DD 01H DUP (?)				; wiper_pos2
?rain_fall_type@@3W4RAIN_FALL_TYPES@@A DD 01H DUP (?)	; rain_fall_type
?rain_textures_enabled@@3HA DD 01H DUP (?)		; rain_textures_enabled
_BSS	ENDS
END
