; Listing generated by Microsoft (R) Optimizing Compiler Version 19.16.27045.0 

	TITLE	c:\users\nhv90\projects\eech\aphavoc\source\ui_menu\credits\credits.c
	.686P
	.XMM
	include listing.inc
	.model	flat

INCLUDELIB OLDNAMES

PUBLIC	??_C@_0CA@ONIJELCJ@graphics?2ui?2cohokum?2credits?4psd@ ; `string'
PUBLIC	??_C@_07GDHHDJMO@Credits@			; `string'
PUBLIC	??_C@_0N@OIIGJLME@Credits?5Code@		; `string'
PUBLIC	??_C@_05NIOKAMLD@?$CFs?$DO?$DO?$DO@		; `string'
PUBLIC	??_C@_0BB@NBPPGJPH@Credits?5Graphics@		; `string'
PUBLIC	??_C@_05NJDNCFCK@?$DM?$DM?$DM?$CFs@		; `string'
PUBLIC	??_C@_0O@GLPMAEH@Credits?5Music@		; `string'
PUBLIC	?credits_screen_graphic@@3PAUTEXTURE_GRAPHIC@@A	; credits_screen_graphic
PUBLIC	?credits_screen@@3PAUUI_OBJECT@@A		; credits_screen
?credits_screen_graphic@@3PAUTEXTURE_GRAPHIC@@A DD 01H DUP (?) ; credits_screen_graphic
?credits_screen@@3PAUUI_OBJECT@@A DD 01H DUP (?)	; credits_screen
_BSS	ENDS
;	COMDAT ??_C@_0O@GLPMAEH@Credits?5Music@
CONST	SEGMENT
??_C@_0O@GLPMAEH@Credits?5Music@ DB 'Credits Music', 00H ; `string'
CONST	ENDS
;	COMDAT ??_C@_05NJDNCFCK@?$DM?$DM?$DM?$CFs@
CONST	SEGMENT
??_C@_05NJDNCFCK@?$DM?$DM?$DM?$CFs@ DB '<<<%s', 00H	; `string'
CONST	ENDS
;	COMDAT ??_C@_0BB@NBPPGJPH@Credits?5Graphics@
CONST	SEGMENT
??_C@_0BB@NBPPGJPH@Credits?5Graphics@ DB 'Credits Graphics', 00H ; `string'
CONST	ENDS
;	COMDAT ??_C@_05NIOKAMLD@?$CFs?$DO?$DO?$DO@
CONST	SEGMENT
??_C@_05NIOKAMLD@?$CFs?$DO?$DO?$DO@ DB '%s>>>', 00H	; `string'
CONST	ENDS
;	COMDAT ??_C@_0N@OIIGJLME@Credits?5Code@
CONST	SEGMENT
??_C@_0N@OIIGJLME@Credits?5Code@ DB 'Credits Code', 00H	; `string'
CONST	ENDS
;	COMDAT ??_C@_07GDHHDJMO@Credits@
CONST	SEGMENT
??_C@_07GDHHDJMO@Credits@ DB 'Credits', 00H		; `string'
CONST	ENDS
;	COMDAT ??_C@_0CA@ONIJELCJ@graphics?2ui?2cohokum?2credits?4psd@
CONST	SEGMENT
??_C@_0CA@ONIJELCJ@graphics?2ui?2cohokum?2credits?4psd@ DB 'graphics\ui\c'
	DB	'ohokum\credits.psd', 00H			; `string'
PUBLIC	?initialise_credits_screen@@YGXXZ		; initialise_credits_screen
PUBLIC	?notify_credits_screen@@YGXPAUUI_OBJECT@@PAX@Z	; notify_credits_screen
END
