; Listing generated by Microsoft (R) Optimizing Compiler Version 19.16.27045.0 

	TITLE	c:\users\nhv90\projects\eech\aphavoc\source\gunships\dynamics\common\cyclic.c
	.686P
	.XMM
	include listing.inc
	.model	flat

INCLUDELIB OLDNAMES

PUBLIC	??_C@_0BN@ONCBNIKB@CYCLIC?3?5code?5with?5delta?5time@ ; `string'
PUBLIC	?mouse_sensitivity@@3MA				; mouse_sensitivity
;	COMDAT ??_C@_0BN@ONCBNIKB@CYCLIC?3?5code?5with?5delta?5time@
CONST	SEGMENT
??_C@_0BN@ONCBNIKB@CYCLIC?3?5code?5with?5delta?5time@ DB 'CYCLIC: code wi'
	DB	'th delta time', 00H				; `string'
?mouse_sensitivity@@3MA DD 041c80000r		; 25	; mouse_sensitivity
PUBLIC	?initialise_cyclic@@YGXXZ			; initialise_cyclic
PUBLIC	?update_cyclic_pressure_inputs@@YGXXZ		; update_cyclic_pressure_inputs
PUBLIC	?cyclic_mouse_input@@YGXPAUEVENT@@@Z		; cyclic_mouse_input
PUBLIC	?damage_hydraulics@@YGXH@Z			; damage_hydraulics
PUBLIC	?damage_primary_hydralics_only@@YGXXZ		; damage_primary_hydralics_only
PUBLIC	?get_hydraulic_pressure@@YGMXZ			; get_hydraulic_pressure
PUBLIC	?cyclic_left@@YGXPAUEVENT@@@Z			; cyclic_left
PUBLIC	?cyclic_right@@YGXPAUEVENT@@@Z			; cyclic_right
PUBLIC	?cyclic_forward@@YGXPAUEVENT@@@Z		; cyclic_forward
PUBLIC	?cyclic_backward@@YGXPAUEVENT@@@Z		; cyclic_backward
?damaged_lock_x_pos@@3MA DD 01H DUP (?)			; damaged_lock_x_pos
?damaged_lock_y_pos@@3MA DD 01H DUP (?)			; damaged_lock_y_pos
?hydraulic_pressure@@3MA DD 01H DUP (?)			; hydraulic_pressure
?hydraulic_pressure_loss_rate@@3MA DD 01H DUP (?)	; hydraulic_pressure_loss_rate
_BSS	ENDS
END
