; Listing generated by Microsoft (R) Optimizing Compiler Version 19.16.27045.0 

	TITLE	c:\users\nhv90\projects\eech\modules\graphics\d3dfog.c
	.686P
	.XMM
	include listing.inc
	.model	flat

INCLUDELIB OLDNAMES

PUBLIC	?d3d_fog_intensity@@3KA				; d3d_fog_intensity
PUBLIC	?d3d_fog_end@@3MA				; d3d_fog_end
PUBLIC	?d3d_fog_start@@3MA				; d3d_fog_start
PUBLIC	?d3d_fog_density@@3MA				; d3d_fog_density
PUBLIC	?d3d_fog_colour@@3UREAL_COLOUR@@A		; d3d_fog_colour
PUBLIC	?d3d_fog_constant@@3MA				; d3d_fog_constant
PUBLIC	?d3d_fog_factor@@3MA				; d3d_fog_factor
?d3d_fog_intensity@@3KA DD 01H DUP (?)			; d3d_fog_intensity
?d3d_fog_end@@3MA DD 01H DUP (?)			; d3d_fog_end
?d3d_fog_start@@3MA DD 01H DUP (?)			; d3d_fog_start
?d3d_fog_density@@3MA DD 01H DUP (?)			; d3d_fog_density
?d3d_fog_colour@@3UREAL_COLOUR@@A DD 01H DUP (?)	; d3d_fog_colour
?d3d_fog_constant@@3MA DD 01H DUP (?)			; d3d_fog_constant
?d3d_fog_factor@@3MA DD 01H DUP (?)			; d3d_fog_factor
_BSS	ENDS
PUBLIC	?get_int_fog_distance_value@@YGHM@Z		; get_int_fog_distance_value
PUBLIC	?get_fog_distance_value@@YGMM@Z			; get_fog_distance_value
PUBLIC	?suspend_d3d_fog@@YGXXZ				; suspend_d3d_fog
PUBLIC	?reinstate_d3d_fog@@YGXXZ			; reinstate_d3d_fog
PUBLIC	?set_d3d_fog_face_intensity@@YGXH@Z		; set_d3d_fog_face_intensity
PUBLIC	?set_d3d_fog_renderstates@@YGXXZ		; set_d3d_fog_renderstates
PUBLIC	?set_d3d_fog_parameters@@YGXHUREAL_COLOUR@@MM@Z	; set_d3d_fog_parameters
?d3d_fog_enabled@@3HA DD 01H DUP (?)			; d3d_fog_enabled
?d3d_fog_distance@@3MA DD 01H DUP (?)			; d3d_fog_distance
?d3d_fog_distance_squared@@3NA DQ 01H DUP (?)		; d3d_fog_distance_squared
_BSS	ENDS
END
