; Listing generated by Microsoft (R) Optimizing Compiler Version 19.16.27045.0 

	TITLE	c:\users\nhv90\projects\eech\modules\graphics\d3dpoly.c
	.686P
	.XMM
	include listing.inc
	.model	flat

INCLUDELIB OLDNAMES

PUBLIC	?number_of_d3d_triangle_primitives_drawn@@3HA	; number_of_d3d_triangle_primitives_drawn
PUBLIC	?number_of_d3d_line_primitives_drawn@@3HA	; number_of_d3d_line_primitives_drawn
?number_of_d3d_triangle_primitives_drawn@@3HA DD 01H DUP (?) ; number_of_d3d_triangle_primitives_drawn
?number_of_d3d_line_primitives_drawn@@3HA DD 01H DUP (?) ; number_of_d3d_line_primitives_drawn
_BSS	ENDS
PUBLIC	?force_flush_line_buffer@@YGXPAUVERTEX_BUFFER_HEADER@@@Z ; force_flush_line_buffer
PUBLIC	?force_flush_triangle_buffer@@YGXPAUVERTEX_BUFFER_HEADER@@@Z ; force_flush_triangle_buffer
PUBLIC	?reset_primitives@@YGXXZ			; reset_primitives
PUBLIC	?draw_strip_primitive@@YGXHPAU_D3DTLVERTEX@@@Z	; draw_strip_primitive
PUBLIC	?set_d3d_texture_batching@@YGXH@Z		; set_d3d_texture_batching
PUBLIC	?add_triangle_fan_primitive_to_buffer@@YGXHHPAE@Z ; add_triangle_fan_primitive_to_buffer
PUBLIC	?draw_point_list_primitive@@YGXH@Z		; draw_point_list_primitive
PUBLIC	?finalise_primitives@@YGXXZ			; finalise_primitives
PUBLIC	?draw_fan_primitive@@YGXHPAU_D3DTLVERTEX@@@Z	; draw_fan_primitive
PUBLIC	?draw_line_primitive@@YGXPAU_D3DTLVERTEX@@@Z	; draw_line_primitive
PUBLIC	?flush_line_primitives@@YGXXZ			; flush_line_primitives
PUBLIC	?flush_triangle_primitives@@YGXXZ		; flush_triangle_primitives
END
