; Listing generated by Microsoft (R) Optimizing Compiler Version 19.16.27045.0 

	TITLE	c:\users\nhv90\projects\eech\aphavoc\source\eechini.c
	.686P
	.XMM
	include listing.inc
	.model	flat

INCLUDELIB OLDNAMES

PUBLIC	??_C@_02IKAHHCAI@?$CFi@				; `string'
PUBLIC	??_C@_05KJDOJDAE@?$CF3?41f@			; `string'
PUBLIC	??_C@_0M@JJJBFJKB@?$CFf?0?$CFf?0?$CFf?0?$CFf@	; `string'
PUBLIC	??_C@_0BE@OOKGJLHB@?$CF?43f?0?$CF?43f?0?$CF?43f?0?$CF?43f@ ; `string'
PUBLIC	??_C@_0CE@NHCLKNPG@?$CFd?0?$CFd?0?$CFd?0?$CFd?0?$CFd?0?$CFd?0?$CFd?0?$CFd?0?$CFd?0?$CFd?0?$CF@ ; `string'
PUBLIC	??_C@_02DPKJAMEF@?$CFd@				; `string'
PUBLIC	??_C@_01FHEEJDEE@A@				; `string'
PUBLIC	??_C@_01IHBHIGKO@?0@				; `string'
PUBLIC	??_C@_04HGGBINEM@?$CFs?$CFd@			; `string'
PUBLIC	??_C@_01ICJEACDI@?$DL@				; `string'
PUBLIC	??_C@_0M@MLCONGPP@?$CFd?0?$CFd?0?$CFd?0?$CFd@	; `string'
PUBLIC	??_C@_0N@JMLAMHEK@GWUT1140?4CSV@		; `string'
PUBLIC	??_C@_08NNEEACKF@?$CFu?0?$CFu?0?$CFu@		; `string'
PUBLIC	??_C@_09LBAPNFMM@?$CFi?0?$CFi?0?$CFi?$DL@	; `string'
PUBLIC	??_C@_0BI@ELOAKOAC@GRAPHICS?2UI?2COHOKUM?2?$CK?4?$CK@ ; `string'
PUBLIC	??_C@_01LFCBOECM@?4@				; `string'
PUBLIC	??_C@_02DJGKEECL@?4?4@				; `string'
PUBLIC	??_C@_05FBNMMBFH@ICONS@				; `string'
PUBLIC	??_C@_03IPIGFGOJ@KEY@				; `string'
PUBLIC	??_C@_03HMCGBKKA@MAP@				; `string'
PUBLIC	??_C@_0BG@EKJIBFD@?$FLCommandline?5options?$FN@	; `string'
PUBLIC	??_C@_0DH@LMHBBKLK@for?5more?5information?5see?5readme@ ; `string'
PUBLIC	??_C@_0FC@MIHEPBPG@for?5more?5information?5see?5http?3?1@ ; `string'
PUBLIC	??_C@_02IFGANFKF@25@				; `string'
PUBLIC	??_C@_0BB@OOIGCBMH@?$FLCommunications?$FN@	; `string'
PUBLIC	??_C@_0L@PCNFODNF@maxplayers@			; `string'
PUBLIC	??_C@_0DK@EBKJDJNO@maximum?5number?5of?5players?5in?5a?5@ ; `string'
PUBLIC	??_C@_03LAICKKNM@ipa@				; `string'
PUBLIC	??_C@_0L@MJNBCAKM@ip_address@			; `string'
PUBLIC	??_C@_0EL@NGDOIPFB@IP?5address?5?$CITCP?1IP?5address?$CJ?5to?5@ ; `string'
PUBLIC	??_C@_09HNMDMGCL@usemaster@			; `string'
PUBLIC	??_C@_0GA@NGABIKKG@Report?5game?5to?5internet?5masters@ ; `string'
PUBLIC	??_C@_03OHCBHMED@pss@				; `string'
PUBLIC	??_C@_0BH@EHMGMKM@primary_server_setting@	; `string'
PUBLIC	??_C@_0DJ@IKNCBEMG@primary?5masterserver?5internet?5a@ ; `string'
PUBLIC	??_C@_03PFJENDKN@sss@				; `string'
PUBLIC	??_C@_0BJ@HEDCLCJE@secondary_server_setting@	; `string'
PUBLIC	??_C@_0DN@FNPHGLOE@secondary?5masterserver?5internet@ ; `string'
PUBLIC	??_C@_04JNLLMLJJ@ccrs@				; `string'
PUBLIC	??_C@_0BO@HDANGG@comms_connection_receive_size@	; `string'
PUBLIC	??_C@_0EM@FNGHGPPM@connection?5receive?5size?0?5initia@ ; `string'
PUBLIC	??_C@_04GMPDCA@cdrs@				; `string'
PUBLIC	??_C@_0BH@CIGKHOPA@comms_data_record_size@	; `string'
PUBLIC	??_C@_0DC@JCBDKLCD@data?5record?5size?0?5similar?5to?5ab@ ; `string'
PUBLIC	??_C@_04MDDBJAJI@cpbs@				; `string'
PUBLIC	??_C@_0BH@NLHDEPGC@comms_pack_buffer_size@	; `string'
PUBLIC	??_C@_0DC@ODJAGFLP@pack?5buffer?5size?0?5similar?5to?5ab@ ; `string'
PUBLIC	??_C@_04MHLMOMCK@cpds@				; `string'
PUBLIC	??_C@_0BH@OHPAFBDG@comms_packet_data_size@	; `string'
PUBLIC	??_C@_0BN@EIIKLHKC@packet?5data?5size?5?$CIdef?5?$DN?5512?$CJ@ ; `string'
PUBLIC	??_C@_03LOKCIPJO@cgs@				; `string'
PUBLIC	??_C@_0CD@PEOOMMFB@command_line_comms_guaranteed_s@ ; `string'
PUBLIC	??_C@_0GB@FMBCILIL@force?5the?5comms?5to?5use?5DirectPl@ ; `string'
PUBLIC	??_C@_04GDKGHFBJ@crls@				; `string'
PUBLIC	??_C@_0BH@BEPJENHK@comms_resend_list_size@	; `string'
PUBLIC	??_C@_0GB@ECJIKGAG@packet?5history?5list?5size?0?5incre@ ; `string'
PUBLIC	??_C@_03GJBFOAJL@crl@				; `string'
PUBLIC	??_C@_0BG@EFJIAAIK@comms_rerequest_limit@	; `string'
PUBLIC	??_C@_0GC@EJJLMBEI@number?5of?5times?5a?5client?5can?5re@ ; `string'
PUBLIC	??_C@_03OIIKKMKM@cpt@				; `string'
PUBLIC	??_C@_0BD@FHPOEEEJ@comms_packet_timer@		; `string'
PUBLIC	??_C@_0FK@KMCOCINP@time?5delay?5for?5comms?5to?5wait?5fo@ ; `string'
PUBLIC	??_C@_04JHOENKIM@crto@				; `string'
PUBLIC	??_C@_0BF@DIDPCNC@comms_resend_timeout@		; `string'
PUBLIC	??_C@_0GD@KCGBABIA@time?5delay?5for?5comms?5to?5wait?5be@ ; `string'
PUBLIC	??_C@_03FIMELOPC@mur@				; `string'
PUBLIC	??_C@_0BA@LJCPAFBP@max_update_rate@		; `string'
PUBLIC	??_C@_0HC@LBGPFMGE@max?5update?5framerate?5for?5a?5serv@ ; `string'
PUBLIC	??_C@_03JKJCHFMB@cig@				; `string'
PUBLIC	??_C@_0CI@HFLPOKNM@command_line_comms_interpolate_@ ; `string'
PUBLIC	??_C@_0FB@OGMNKIJF@interpolate?5helicopter?5position@ ; `string'
PUBLIC	??_C@_03OJIEFEII@cvc@				; `string'
PUBLIC	??_C@_0CI@IGNJGFEB@command_line_comms_validate_con@ ; `string'
PUBLIC	??_C@_0GB@HHNBPBNI@removes?5dead?5player?5husks?5when?5@ ; `string'
PUBLIC	??_C@_04BGMAEBME@cptl@				; `string'
PUBLIC	??_C@_0BM@NALIGJHG@comms_packet_throttle_limit@	; `string'
PUBLIC	??_C@_0FH@MIIFAAPM@packet?5throttle?5limit?0?5governs?5@ ; `string'
PUBLIC	??_C@_03EGLFMPOK@cto@				; `string'
PUBLIC	??_C@_0O@MDPDKGLN@comms_timeout@		; `string'
PUBLIC	??_C@_0DK@LGLMIHLK@timeout?5time?5before?5removing?5de@ ; `string'
PUBLIC	??_C@_04GFLNAMJH@eufr@				; `string'
PUBLIC	??_C@_0BJ@NHPPKEEB@entity_update_frame_rate@	; `string'
PUBLIC	??_C@_0EG@CDFGLFFD@client?5server?5entity?5update?5fra@ ; `string'
PUBLIC	??_C@_03KFINIEDC@css@				; `string'
PUBLIC	??_C@_0BB@GNLEIJLE@comms_show_stats@		; `string'
PUBLIC	??_C@_0CN@OBPHLCGG@show?5comms?5stats?5?$CI0?5?$DN?5off?0?51?5?$DN?5@ ; `string'
PUBLIC	??_C@_04LMIFNHAN@cist@				; `string'
PUBLIC	??_C@_0CG@OGNIGMBA@command_line_comms_initial_slee@ ; `string'
PUBLIC	??_C@_0CF@JLAMIEIP@comms?5initial?5sleep?5time?5?$CIdef?5?$DN@ ; `string'
PUBLIC	??_C@_07EJDDFFME@servlog@			; `string'
PUBLIC	??_C@_0BE@KALGAMMO@server_log_filename@		; `string'
PUBLIC	??_C@_0BI@DFEBLLHJ@filename?5for?5server?5log@	; `string'
PUBLIC	??_C@_0BD@NOECCOAF@?$FLDedicated?5server?$FN@	; `string'
PUBLIC	??_C@_0FK@PNICFGF@for?5more?5information?5see?5http?3?1@ ; `string'
PUBLIC	??_C@_09BJOAODLF@dedicated@			; `string'
PUBLIC	??_C@_0CE@OIAINFCD@command_line_comms_dedicated_se@ ; `string'
PUBLIC	??_C@_0DC@MGLKACHL@dedicated?5server?5mode?5?$CI0?5?$DN?5off?0@ ; `string'
PUBLIC	??_C@_09FMLHLDDN@pauseserv@			; `string'
PUBLIC	??_C@_0N@OKJLAKDK@pause_server@			; `string'
PUBLIC	??_C@_0EB@PHLGELMO@pause?5server?5if?5no?5clients?5conn@ ; `string'
PUBLIC	??_C@_09FNPACPMG@game_type@			; `string'
PUBLIC	??_C@_0DB@ILMNBEPA@command_line_game_initialisatio@ ; `string'
PUBLIC	??_C@_0EM@DLECEAKP@available?5game?5types?5?$CI1?5?$DN?5Freef@ ; `string'
PUBLIC	??_C@_0N@EPIPLMLE@gunship_type@			; `string'
PUBLIC	??_C@_0DE@LLDIGGJ@command_line_game_initialisatio@ ; `string'
PUBLIC	??_C@_0EO@PAINFOLC@available?5gunship?5types?5?$CI0?5?$DN?5Ap@ ; `string'
PUBLIC	??_C@_04LNEJFJGI@path@				; `string'
PUBLIC	??_C@_0CM@GNKINAIL@command_line_game_initialisatio@ ; `string'
PUBLIC	??_C@_0CF@HKEFKFGB@path?5to?5map?1campaign?1skirmish?5f@ ; `string'
PUBLIC	??_C@_0BI@CNGOGFMH@?$FLGraphics?5and?5Textures?$FN@ ; `string'
PUBLIC	??_C@_04CCHMIAJE@cbar@				; `string'
PUBLIC	??_C@_0BP@CJIEPEGK@city_block_approximation_range@ ; `string'
PUBLIC	??_C@_0DL@PFBNDDJO@distance?5that?5city?5blocks?5resol@ ; `string'
PUBLIC	??_C@_02EIPGLLEK@fs@				; `string'
PUBLIC	??_C@_0M@FINCDFND@full_screen@			; `string'
PUBLIC	??_C@_0ED@OOMNAGMK@full?5screen?5mode?5?$CI0?5?$DN?5window?5mo@ ; `string'
PUBLIC	??_C@_03EGKEKDNL@mfr@				; `string'
PUBLIC	??_C@_0P@MFBEDKI@max_frame_rate@		; `string'
PUBLIC	??_C@_0DG@BDNELBLN@maximum?5visual?5frame?5rate?5?$CIn?5?$DN?5@ ; `string'
PUBLIC	??_C@_05IKEILDGM@32bit@				; `string'
PUBLIC	??_C@_0CN@CEDMCMII@32?9bit?5rendering?5?$CI0?5?$DN?5off?0?51?5?$DN?5@ ; `string'
PUBLIC	??_C@_03BJGEKABP@nrt@				; `string'
PUBLIC	??_C@_0HC@CEECNPNA@rendering?5to?5texture?5?$CI0?5?$DN?5enabl@ ; `string'
PUBLIC	??_C@_05IPNCFKA@notnl@				; `string'
PUBLIC	??_C@_0DM@MCAFODLO@GeForce?5?$CCTnL?$CC?5support?5?$CI0?5?$DN?5enab@ ; `string'
PUBLIC	??_C@_0BA@IPIOEDN@nodx9zbufferfix@		; `string'
PUBLIC	??_C@_0FI@BGOEMMEM@Disable?5the?5dx9?5zbuffer?5fix?5int@ ; `string'
PUBLIC	??_C@_07IFJLPCEC@3dreset@			; `string'
PUBLIC	??_C@_0DP@ELEHJHDO@reset?5screen?5resolution?5to?5640x@ ; `string'
PUBLIC	??_C@_04HIEPIEHK@dxtm@				; `string'
PUBLIC	??_C@_0BL@NFFNIIMF@directx_texture_management@	; `string'
PUBLIC	??_C@_0GN@EGBGFDBM@DirectX?5texture?5management?5?$CIsho@ ; `string'
PUBLIC	??_C@_02GAJDKOPE@cg@				; `string'
PUBLIC	??_C@_0P@GGKKAPAO@clean_graphics@		; `string'
PUBLIC	??_C@_0EI@NMIEJBDE@?$CIclean?5graphics?$CJ?5re?9installs?5gr@ ; `string'
PUBLIC	??_C@_07JKIHKJOO@palette@			; `string'
PUBLIC	??_C@_0EI@JGIMOBDC@use?5textures?4pal?5?$CIif?5videocard?5@ ; `string'
PUBLIC	??_C@_0M@DGDLBBPO@eofullrange@			; `string'
PUBLIC	??_C@_0EP@HCIMLKFJ@eo?5ranges?5near?5to?5max?5fog?5dista@ ; `string'
PUBLIC	??_C@_0BE@BNMNHEIC@render?9tree?9shadows@	; `string'
PUBLIC	??_C@_0L@PNPKMOCO@1?$DNyes?50?$DNno@		; `string'
PUBLIC	??_C@_09LPJKNJNN@trees?9fog@			; `string'
PUBLIC	??_C@_0HI@BJOEEENA@fog?5affects?5groups?5of?5trees?5?$CI0?5@ ; `string'
PUBLIC	??_C@_0O@DBJJJBCC@high_lod_hack@		; `string'
PUBLIC	??_C@_0HO@KAMBIONA@?$FLEXPERIMENTAL?$CB?$FN?5Enables?5highest@ ; `string'
PUBLIC	??_C@_05OOKDIIAP@dwash@				; `string'
PUBLIC	??_C@_08DJHIJCHO@downwash@			; `string'
PUBLIC	??_C@_0DC@PLFPDKHA@rotor?5downwash?5?$CIdust?$CJ?5?$CI0?5?$DN?5off?0@ ; `string'
PUBLIC	??_C@_0BD@JLENJPMD@restricted_nvg_fov@		; `string'
PUBLIC	??_C@_0DF@POANBNG@night?5vision?5restriction?5?$CI0?5?$DN?5o@ ; `string'
PUBLIC	??_C@_0BC@FNNPHLAH@russian_nvg_no_ir@		; `string'
PUBLIC	??_C@_0DN@BBFBNELA@russian?5night?5vision?5has?5no?5FLI@ ; `string'
PUBLIC	??_C@_09DLPPGEF@colourmfd@			; `string'
PUBLIC	??_C@_0EA@BIHNNHFN@MFDs?5will?5use?5colour?5when?5avail@ ; `string'
PUBLIC	??_C@_0L@FIBEFPLH@highreshud@			; `string'
PUBLIC	??_C@_0DA@CGMBIIBD@high?5resolution?5HUD?5?$CI0?5?$DN?5off?0?51@ ; `string'
PUBLIC	??_C@_09JMMFAHBG@tsdrender@			; `string'
PUBLIC	??_C@_0DF@NMMAIBEO@TSD?5render?5options?5?$CI0?5?9?54?$CJ?5?$CIdef@ ; `string'
PUBLIC	??_C@_0L@MGCIAICJ@tsdpalette@			; `string'
PUBLIC	??_C@_0CG@BGHLPEFI@TSD?5palette?5options?5?$CI0?5?9?52?$CJ?5?$CIde@ ; `string'
PUBLIC	??_C@_08CFKOENDF@tsdenemy@			; `string'
PUBLIC	??_C@_0EF@BHCGCODD@TSD?5showing?5red?5force?5blue?5forc@ ; `string'
PUBLIC	??_C@_09FIBOBHEI@tsddetail@			; `string'
PUBLIC	??_C@_0CP@IEHGGJPL@TSD?5in?5high?5detail?5?$CI0?5?$DN?5off?0?51?5@ ; `string'
PUBLIC	??_C@_0P@LPLKBOEF@texture_colour@		; `string'
PUBLIC	??_C@_0KF@GAFOLPPM@Use?5texture?5colours?5and?5noisema@ ; `string'
PUBLIC	??_C@_0BC@FEEDPBHL@texture_filtering@		; `string'
PUBLIC	??_C@_0GE@GJGHBOMK@?$FLEXPERIMENTAL?$CB?$FN?5texture?5blendin@ ; `string'
PUBLIC	??_C@_0L@GIGNMFLF@mipmapping@			; `string'
PUBLIC	??_C@_0GM@PDHJOGOE@mipmapped?5textures?5?$CIdds?5files?$CJ?4@ ; `string'
PUBLIC	??_C@_0O@IMHAMGEB@dynamic_water@		; `string'
PUBLIC	??_C@_0DD@BBGFBEOP@dynamic?5water?5textures?5?$CI0?5?$DN?5off@ ; `string'
PUBLIC	??_C@_0M@HKFCHHH@night_light@			; `string'
PUBLIC	??_C@_0FH@DGHCCJKI@night?5light?5darkness?5level?5?$CI0?40@ ; `string'
PUBLIC	??_C@_0BB@DAJAMMBD@persistent_smoke@		; `string'
PUBLIC	??_C@_0GG@DHHFKMAA@Burning?5targets?5emitting?5smoke?5@ ; `string'
PUBLIC	??_C@_0M@PGNJDKOJ@cloud_puffs@			; `string'
PUBLIC	??_C@_0EL@OEMMHLBN@Cloud?5puffs?4?5?$CI0?5?$DN?5off?0?51?5?$DN?5all?5@ ; `string'
PUBLIC	??_C@_0BE@IHGKNAKH@cloud_puffs_colours@		; `string'
PUBLIC	??_C@_0BI@GMLPBPJA@colours?5for?5cloud?5puffs@	; `string'
PUBLIC	??_C@_06EMIDKNJD@themes@			; `string'
PUBLIC	??_C@_0DM@FMOKODNC@comma?9separated?5list?5of?5directo@ ; `string'
PUBLIC	??_C@_0BE@BJNDGAAD@?$FLViews?5and?5Cameras?$FN@	; `string'
PUBLIC	??_C@_0GF@HNAKGJPN@minfov?5is?5linked?5to?5key?57?0?5maxf@ ; `string'
PUBLIC	??_C@_06KFKIGAKI@minfov@			; `string'
PUBLIC	??_C@_0BO@EAMCNBEK@general?5field?5of?5view?5minimum@ ; `string'
PUBLIC	??_C@_07OBIOBKKI@maxfov0@			; `string'
PUBLIC	??_C@_0CO@DHBBOFHJ@general?5field?5of?5view?5maximum?5f@ ; `string'
PUBLIC	??_C@_07PIJFCLOJ@maxfov1@			; `string'
PUBLIC	??_C@_0CM@KOPDCLCA@general?5field?5of?5view?5maximum?5f@ ; `string'
PUBLIC	??_C@_07NDLIHICK@maxfov2@			; `string'
PUBLIC	??_C@_0CP@CIDILCEB@general?5field?5of?5view?5maximum?5f@ ; `string'
PUBLIC	??_C@_07MKKDEJGL@maxfov3@			; `string'
PUBLIC	??_C@_0CO@GLMLKOMG@general?5field?5of?5view?5maximum?5f@ ; `string'
PUBLIC	??_C@_07IFOCNPKM@maxfov4@			; `string'
PUBLIC	??_C@_0CL@KAPPDPMK@general?5field?5of?5view?5maximum?5f@ ; `string'
PUBLIC	??_C@_07JMPJOOON@maxfov5@			; `string'
PUBLIC	??_C@_0CM@IEBBGLJJ@general?5field?5of?5view?5maximum?5f@ ; `string'
PUBLIC	??_C@_07LHNELNCO@maxfov6@			; `string'
PUBLIC	??_C@_0CM@IGNJLPJE@general?5field?5of?5view?5maximum?5f@ ; `string'
PUBLIC	??_C@_07KOMPIMGP@maxfov7@			; `string'
PUBLIC	??_C@_0CM@EADHLDBD@general?5field?5of?5view?5maximum?5f@ ; `string'
PUBLIC	??_C@_02CNFIOGBL@49@				; `string'
PUBLIC	??_C@_0BG@BJKCCONG@g?9force_head_movement@	; `string'
PUBLIC	??_C@_0HI@FIIAFHNG@amount?5of?5head?5movement?5caused?5@ ; `string'
PUBLIC	??_C@_0P@CPHJAEMD@comanche_pilot@		; `string'
PUBLIC	??_C@_0BI@BKLKGABK@wideview?5pilot?5position@	; `string'
PUBLIC	??_C@_0BC@HMNKLGHN@comanche_co?9pilot@		; `string'
PUBLIC	??_C@_0BL@BLNMHGDI@wideview?5co?9pilot?5position@ ; `string'
PUBLIC	??_C@_0M@ICDAHEBI@hokum_pilot@			; `string'
PUBLIC	??_C@_0P@NNDJOMMD@hokum_co?9pilot@		; `string'
PUBLIC	??_C@_0N@OACLLJEN@apache_pilot@			; `string'
PUBLIC	??_C@_0P@KPKBGG@apache_copilot@			; `string'
PUBLIC	??_C@_0M@COHCIPJL@havoc_pilot@			; `string'
PUBLIC	??_C@_0L@KACIBLFE@hind_pilot@			; `string'
PUBLIC	??_C@_0N@KDHHIKLJ@hind_copilot@			; `string'
PUBLIC	??_C@_0M@FJLJJLFA@viper_pilot@			; `string'
PUBLIC	??_C@_0O@CKKDDFAM@viper_copilot@		; `string'
PUBLIC	??_C@_0M@GNKJPBBI@kiowa_pilot@			; `string'
PUBLIC	??_C@_0O@LPGEEMFH@kiowa_copilot@		; `string'
PUBLIC	??_C@_0L@LHGBPDG@ka50_pilot@			; `string'
PUBLIC	??_C@_08HCFPJDBL@hud_code@			; `string'
PUBLIC	??_C@_0BI@MKCMCME@hud?5code?5for?54?5gunships@	; `string'
PUBLIC	??_C@_0O@IOCDHDNN@wobbly?9camera@		; `string'
PUBLIC	??_C@_0EL@EHCAAME@Make?5external?5cameras?5move?5wobb@ ; `string'
PUBLIC	??_C@_02NCPIBIBE@33@				; `string'
PUBLIC	??_C@_0L@LMGPJHLK@?$FLDynamics?$FN@		; `string'
PUBLIC	??_C@_0N@ONEDLOGH@flight_model@			; `string'
PUBLIC	??_C@_0GG@ELCEEDAC@0?5is?5default?5flight?5model?0?51?5is@ ; `string'
PUBLIC	??_C@_0O@BEPNKEPG@enginerealism@		; `string'
PUBLIC	??_C@_0EH@OODAOHGA@realistic?5engine?5workload?5simul@ ; `string'
PUBLIC	??_C@_0O@JPLMIFBN@enginestartup@		; `string'
PUBLIC	??_C@_0ED@FDFFABNL@manual?5engine?5start?5up?0?5off?5by?5@ ; `string'
PUBLIC	??_C@_04NLBIIEAD@drbs@				; `string'
PUBLIC	??_C@_0DE@MKEBGNNJ@command_line_dynamics_retreatin@ ; `string'
PUBLIC	??_C@_0FF@CMKPCCNB@retreating?5blade?5stall?0?5floatin@ ; `string'
PUBLIC	??_C@_03EEOPCCPJ@drv@				; `string'
PUBLIC	??_C@_0BG@BAOAGHIL@dynamics_rudder_value@	; `string'
PUBLIC	??_C@_0EH@FDELDAPB@rudder?5value?0?5scaling?5factor?5fo@ ; `string'
PUBLIC	??_C@_03EBGMKGGP@dra@				; `string'
PUBLIC	??_C@_0BN@IEKGLFC@dynamics_rudder_acceleration@	; `string'
PUBLIC	??_C@_0FD@HJCIKKMM@rudder?5acceleration?0?5scaling?5fa@ ; `string'
PUBLIC	??_C@_03DMBLFCCK@drd@				; `string'
PUBLIC	??_C@_0BE@OKOFONBC@dynamics_rotor_drag@		; `string'
PUBLIC	??_C@_0EO@NMEKFOPK@main?5rotor?5drag?0?5scaling?5factor@ ; `string'
PUBLIC	??_C@_04CBOGOCE@dmrl@				; `string'
PUBLIC	??_C@_0BJ@DMNACICO@dynamics_main_rotor_lift@	; `string'
PUBLIC	??_C@_0EH@EMJPICKD@main?5rotor?5lift?0?5scaling?5factor@ ; `string'
PUBLIC	??_C@_04OHNGPMDJ@dtrd@				; `string'
PUBLIC	??_C@_0BJ@LEBIGBGN@dynamics_tail_rotor_drag@	; `string'
PUBLIC	??_C@_0FK@JMNKPOGO@tail?5rotor?5drag?0?5scaling?5factor@ ; `string'
PUBLIC	??_C@_03DCAIADJC@dzd@				; `string'
PUBLIC	??_C@_0BK@KNJNEHOP@dynamics_cyclic_dead_zone@	; `string'
PUBLIC	??_C@_0ED@MAELCIIG@cyclic?5deadzone?5?$CIn?5?$DN?5?$CFdeadzone?0@ ; `string'
PUBLIC	??_C@_04MDAFLDMF@dyal@				; `string'
PUBLIC	??_C@_0BL@CFDKBCOJ@dynamics_yaw_altitude_loss@	; `string'
PUBLIC	??_C@_0CC@LNMOOEB@yaw?5altitude?5loss?5?$CIdefault?5?$DN?55?4@ ; `string'
PUBLIC	??_C@_0BJ@JOGKFDKA@debug_show_force_vectors@	; `string'
PUBLIC	??_C@_0DL@HIJJNOIG@show?5force?5vectors?5on?5own?5helic@ ; `string'
PUBLIC	??_C@_02DAMOKLOI@28@				; `string'
PUBLIC	??_C@_05DKDEOPFG@?$FLWUT?$FN@			; `string'
PUBLIC	??_C@_0EN@NCKODEOO@for?5more?5information?5see?5http?3?1@ ; `string'
PUBLIC	??_C@_03DBDKKOIP@wut@				; `string'
PUBLIC	??_C@_0CO@NKHBJGPE@Weapons?5and?5Unit?5Tweaking?5file?5@ ; `string'
PUBLIC	??_C@_0L@OKLGDMEI@?$FLGameplay?$FN@		; `string'
PUBLIC	??_C@_05JFHIPEPB@chaff@				; `string'
PUBLIC	??_C@_0FL@MMENOFOI@effectiveness?5of?5chaff?5?5?$CI0?40?5?9?5@ ; `string'
PUBLIC	??_C@_05DHJLON@flare@				; `string'
PUBLIC	??_C@_0FL@PPOAIANF@effectiveness?5of?5flares?5?$CI0?40?5?9?5@ ; `string'
PUBLIC	??_C@_05JNGEMOLJ@smoke@				; `string'
PUBLIC	??_C@_0FL@FHBNIBAL@effectiveness?5of?5smoke?5?5?$CI0?40?5?9?5@ ; `string'
PUBLIC	??_C@_03KJMBPJEB@fog@				; `string'
PUBLIC	??_C@_0EK@EHPEGEPN@sets?5reshroud?5time?5for?5?$CCfog?5of?5@ ; `string'
PUBLIC	??_C@_04ILLFDMJA@cpac@				; `string'
PUBLIC	??_C@_0BB@EEFHFEH@capture_aircraft@		; `string'
PUBLIC	??_C@_0FC@BEJPCIKE@Capture?5and?5utilize?5aircraft?5la@ ; `string'
PUBLIC	??_C@_03IOAPDMBA@uit@				; `string'
PUBLIC	??_C@_0BH@BJFMLMJJ@user_invulnerable_time@	; `string'
PUBLIC	??_C@_0EC@BCJIFNOL@User?5invulnerable?5time?5at?5missi@ ; `string'
PUBLIC	??_C@_03PFAFHDMN@faa@				; `string'
PUBLIC	??_C@_0CN@HMOAPFLJ@fly?5any?5aircraft?5?$CI0?5?$DN?5off?0?51?5?$DN?5@ ; `string'
PUBLIC	??_C@_08NDGBDFAD@radarinf@			; `string'
PUBLIC	??_C@_0BD@CDBNNICF@invisible_infantry@		; `string'
PUBLIC	??_C@_0EJ@EFKABEBC@infantry?5invisible?5and?5undetect@ ; `string'
PUBLIC	??_C@_06COJJPLMG@grstab@			; `string'
PUBLIC	??_C@_0BM@NIKGCAML@enable_ground_stabilisation@	; `string'
PUBLIC	??_C@_0DJ@OKFHJIAD@ground?5stabilisation?5of?5FLIR?5?$CI0@ ; `string'
PUBLIC	??_C@_0BD@PHMIIEGH@manual_laser?1radar@		; `string'
PUBLIC	??_C@_0BD@BLKAFEEM@manual_laser_radar@		; `string'
PUBLIC	??_C@_0DN@IGEAHAGL@operate?5radar?5and?5laser?5manuall@ ; `string'
PUBLIC	??_C@_0BL@FJNALLLC@targeting_system_auto_page@	; `string'
PUBLIC	??_C@_0EJ@GGKHAOLD@autoswitch?5MFD?5to?5according?5tar@ ; `string'
PUBLIC	??_C@_06MAIMNIOA@camcom@			; `string'
PUBLIC	??_C@_0CP@CDBFPP@Campaign?5Commander?5?$CI0?5?$DN?5off?0?51?5@ ; `string'
PUBLIC	??_C@_0BC@CMBAPDEC@campaign_map_mode@		; `string'
PUBLIC	??_C@_0FA@MGADLEHI@campaign?5map?5resolution?5?$CI1?5?$DN?5de@ ; `string'
PUBLIC	??_C@_0BF@KFMFEOPH@campaign_map_palette@	; `string'
PUBLIC	??_C@_0EA@CEHCNMNG@campaign?5map?5palette?5?5?5?5?$CI1?5?$DN?5de@ ; `string'
PUBLIC	??_C@_0BE@DOPBPDI@map_update_interval@		; `string'
PUBLIC	??_C@_0DC@MADJFCLC@enemy?5units?5update?5rate?5?$CIn?5?$DN?5se@ ; `string'
PUBLIC	??_C@_0BA@MOPPBOLF@tacview_logging@		; `string'
PUBLIC	??_C@_0KH@OCFKFNPN@generate?5log?5for?5tacview?5?$CI0?5?$DN?5o@ ; `string'
PUBLIC	??_C@_06BJLHBKBN@destgt@			; `string'
PUBLIC	??_C@_0BD@HKDDBFKE@designated_targets@		; `string'
PUBLIC	??_C@_0DD@OFMMBFPJ@designated?5target?5list?5?$CI0?5?$DN?5off@ ; `string'
PUBLIC	??_C@_0M@JPNCIOMB@cannontrack@			; `string'
PUBLIC	??_C@_0HD@BPKIDJAK@cannon?5tracking?5boresight?5?$CI0?5?$DN?5@ ; `string'
PUBLIC	??_C@_0BG@JCBELDHN@unpadlock_on_handover@	; `string'
PUBLIC	??_C@_0DB@NPNFEFCA@unpadlock?5on?5handover?5from?5HMS?5@ ; `string'
PUBLIC	??_C@_0BL@BLLFNBOC@pilot_as_periscope_default@	; `string'
PUBLIC	??_C@_0DJ@JJEACMLF@stay?5in?5pilot?5seat?5when?5switchi@ ; `string'
PUBLIC	??_C@_0CE@IKOHFPMG@autoreturn_to_pilot_after_peris@ ; `string'
PUBLIC	??_C@_0DL@KEOOCHBA@switch?5to?5pilot?5seat?5when?5deact@ ; `string'
PUBLIC	??_C@_0BC@DLNKPBFP@TSD_mouse_control@		; `string'
PUBLIC	??_C@_0FC@DCPHENLK@allows?5mouse?5control?5of?5TSD?5?$CIAp@ ; `string'
PUBLIC	??_C@_0BJ@CGJHOAFI@co_pilot_reports_targets@	; `string'
PUBLIC	??_C@_0DL@PLNPPPCO@Co?9pilot?5will?5report?5targets?5he@ ; `string'
PUBLIC	??_C@_0BI@KLJLJDMI@?$FLJoysticks?5and?5TrackIR?$FN@ ; `string'
PUBLIC	??_C@_06IBMACOOG@eopann@			; `string'
PUBLIC	??_C@_0BD@PKKDFEFF@pan_joystick_index@		; `string'
PUBLIC	??_C@_0CG@PGFLNKPJ@joystick?5number?5for?5EO?9camera?5p@ ; `string'
PUBLIC	??_C@_06DNLLGLP@eopanv@				; `string'
PUBLIC	??_C@_0BL@EFCCBIKB@pan_joystick_vertical_axis@	; `string'
PUBLIC	??_C@_0DF@NHPBMGBM@joystick?5DirectX?5axis?5for?5verti@ ; `string'
PUBLIC	??_C@_06NHJKIJGA@eopanh@			; `string'
PUBLIC	??_C@_0BN@COCCDGCP@pan_joystick_horizontal_axis@ ; `string'
PUBLIC	??_C@_0DH@INMMIKEC@joystick?5DirectX?5axis?5for?5horiz@ ; `string'
PUBLIC	??_C@_07BGMHIFHB@eozoomn@			; `string'
PUBLIC	??_C@_0BE@KNMDBJHI@zoom_joystick_index@		; `string'
PUBLIC	??_C@_0CG@LLFIBEBJ@joystick?5number?5for?5EO?9camera?5z@ ; `string'
PUBLIC	??_C@_08MLKODCOM@eozoomax@			; `string'
PUBLIC	??_C@_0BD@KLANKCGC@zoom_joystick_axis@		; `string'
PUBLIC	??_C@_0CM@HKHCGLOI@joystick?5DirectX?5axis?5for?5EO?9ca@ ; `string'
PUBLIC	??_C@_0P@FDFHNHOB@field_of_viewn@		; `string'
PUBLIC	??_C@_0DG@KMIKPFDP@joystick?5number?5for?5field?5of?5vi@ ; `string'
PUBLIC	??_C@_0BA@DLOEDBPK@field_of_viewax@		; `string'
PUBLIC	??_C@_0DM@MIPOMAI@joystick?5DirectX?5axis?5for?5field@ ; `string'
PUBLIC	??_C@_07JICKHOFH@cyclicn@			; `string'
PUBLIC	??_C@_0BG@BHAHFLBH@cyclic_joystick_index@	; `string'
PUBLIC	??_C@_0BL@IDANEPJP@Joystick?5number?5for?5cyclic@ ; `string'
PUBLIC	??_C@_07MOHANJNB@cyclich@			; `string'
PUBLIC	??_C@_0BH@POCOCCKO@cyclic_joystick_x_axis@	; `string'
PUBLIC	??_C@_0CM@NEIFGDG@Joystick?5DirectX?5axis?5for?5cycli@ ; `string'
PUBLIC	??_C@_07BKDBOGAO@cyclicv@			; `string'
PUBLIC	??_C@_0BH@FIFJCJBK@cyclic_joystick_y_axis@	; `string'
PUBLIC	??_C@_0CK@MHDEGCPA@Joystick?5DirectX?5axis?5for?5cycli@ ; `string'
PUBLIC	??_C@_0M@LELEGBDG@collectiven@			; `string'
PUBLIC	??_C@_0BK@JMMKAKLF@collective_joystick_index@	; `string'
PUBLIC	??_C@_0CA@GDBDCNCB@Joystick?5no?4?5for?5the?5collective@ ; `string'
PUBLIC	??_C@_0N@CDLEJFDL@collectiveax@			; `string'
PUBLIC	??_C@_0BJ@MMJAIAMM@collective_joystick_axis@	; `string'
PUBLIC	??_C@_0CJ@PKPHONOH@Joystick?5DirectX?5acis?5for?5the?5c@ ; `string'
PUBLIC	??_C@_07JFNMCIBA@ruddern@			; `string'
PUBLIC	??_C@_0BG@PKDIOIHJ@rudder_joystick_index@	; `string'
PUBLIC	??_C@_0BM@PPANBMO@Joystick?5no?4?5for?5the?5rudder@ ; `string'
PUBLIC	??_C@_08PBJIHIIP@rudderax@			; `string'
PUBLIC	??_C@_0BF@DIEJIGBG@rudder_joystick_axis@	; `string'
PUBLIC	??_C@_0CF@IFGNKENI@Joystick?5DirectX?5axis?5for?5the?5r@ ; `string'
PUBLIC	??_C@_08BIGNGNIE@joylookn@			; `string'
PUBLIC	??_C@_0BH@GODBHLDM@joylookn_joystick_axis@	; `string'
PUBLIC	??_C@_0CE@KPEBEKLI@joystick?5no?4?5used?5for?5joystick?5@ ; `string'
PUBLIC	??_C@_08EODHMKAC@joylookh@			; `string'
PUBLIC	??_C@_0BH@DNKABCNI@joylookh_joystick_axis@	; `string'
PUBLIC	??_C@_0DI@LPAPNLPI@joystick?5DirectX?5axis?5used?5for?5@ ; `string'
PUBLIC	??_C@_08JKHGPFNN@joylookv@			; `string'
PUBLIC	??_C@_0BH@PLAFNKON@joylookv_joystick_axis@	; `string'
PUBLIC	??_C@_0DG@KIMHBEKG@joystick?5DirectX?5axis?5used?5for?5@ ; `string'
PUBLIC	??_C@_09LFGAKGIF@joylookst@			; `string'
PUBLIC	??_C@_0N@BFCBPNEC@joylook_step@			; `string'
PUBLIC	??_C@_0DD@EPGLDAEM@joystick?5look?5step?5?$CI1?5?$DN?5min?0?510@ ; `string'
PUBLIC	??_C@_0BB@GBFNCJCJ@nonlinear?9cyclic@		; `string'
PUBLIC	??_C@_0FN@FMBMEKCK@use?5non?9linear?5control?5for?5cycl@ ; `string'
PUBLIC	??_C@_0BB@EPDMLJON@nonlinear?9pedals@		; `string'
PUBLIC	??_C@_0FN@JKNFEPJN@use?5non?9linear?5control?5for?5peda@ ; `string'
PUBLIC	??_C@_0BL@DBMOJCNN@nonlinear?9collective?9zone1@ ; `string'
PUBLIC	??_C@_0KH@IFEGBILA@non?9linear?5control?5value?5for?5th@ ; `string'
PUBLIC	??_C@_0BL@BKODMBBO@nonlinear?9collective?9zone2@ ; `string'
PUBLIC	??_C@_0KH@CJDCAKGJ@non?9linear?5control?5value?5for?5th@ ; `string'
PUBLIC	??_C@_0CJ@PDMOBHOO@nonlinear?9collective?9percentage@ ; `string'
PUBLIC	??_C@_0FN@GCICPGGK@collective?5percentage?5at?5zone1?4@ ; `string'
PUBLIC	??_C@_0O@MEIAALND@reverse_pedal@		; `string'
PUBLIC	??_C@_0FB@ILIOBNLB@reversed?5pedal?5input?5?$CI0?5?$DN?5off?1b@ ; `string'
PUBLIC	??_C@_03IIAIPNJP@msl@				; `string'
PUBLIC	??_C@_09CALKNOPP@mouselook@			; `string'
PUBLIC	??_C@_0GJ@HAAHGLIG@activates?5mouselook?5?$CIand?5TrackI@ ; `string'
PUBLIC	??_C@_04GECKKMBN@msls@				; `string'
PUBLIC	??_C@_0L@FJKAIGID@mousespeed@			; `string'
PUBLIC	??_C@_0GF@IMMIJIBB@mouselook?5speed?5?$CIwhen?5msl?$DN1?$CJ?5?$CIn@ ; `string'
PUBLIC	??_C@_08KOPKMAGD@TIR_6DOF@			; `string'
PUBLIC	??_C@_0DG@PBPFFILO@6?5DoF?5support?5for?5TrackIR?5?$CI0?5?$DN?5@ ; `string'
PUBLIC	??_C@_0BB@INCOIGLG@external_trackir@		; `string'
PUBLIC	??_C@_0FF@PLCJDGJM@?$CIonly?5when?5msl?$DN1?$CJ?5external?5came@ ; `string'
PUBLIC	??_C@_0BF@BBKHFDFA@external_trackir_dir@	; `string'
PUBLIC	??_C@_0BL@BLACHPBD@external_trackir_direction@	; `string'
PUBLIC	??_C@_0GC@KHJBJPCD@?$CIonly?5when?5external_trackir?$DN1?$CJ?5@ ; `string'
PUBLIC	??_C@_0BA@BMJFGALL@?$FLMiscellaneous?$FN@	; `string'
PUBLIC	??_C@_06EOIELIPE@filter@			; `string'
PUBLIC	??_C@_0P@FMFMDKKO@session_filter@		; `string'
PUBLIC	??_C@_0CO@JGECNKOJ@session?5filtering?5?$CI0?5?$DN?5off?0?51?5?$DN@ ; `string'
PUBLIC	??_C@_08CCMFCJIM@autosave@			; `string'
PUBLIC	??_C@_0CK@JIGPLLDG@autosave?5?$CIn?5?$DN?5minutes?0?50?5?$DN?5off?$CJ@ ; `string'
PUBLIC	??_C@_03DLKMOMFB@dfr@				; `string'
PUBLIC	??_C@_09PLDKGHKD@framerate@			; `string'
PUBLIC	??_C@_0EP@HNCLPBNM@display?5framerate?5?$CI0?5?$DN?5off?0?51?5?$DN@ ; `string'
PUBLIC	??_C@_04MABHPDAO@goto@				; `string'
PUBLIC	??_C@_0BE@LLNAGGBK@planner_goto_button@		; `string'
PUBLIC	??_C@_0EM@JKMNODII@?$CCGOTO?$CC?5?$CIteleport?$CJ?5functionality@ ; `string'
PUBLIC	??_C@_03MOGHNNL@vfm@				; `string'
PUBLIC	??_C@_0BE@IBBKLAGG@vector_flight_model@		; `string'
PUBLIC	??_C@_0FI@OEGPHJIL@vector?5flight?5model?5?$CIactivates?5@ ; `string'
PUBLIC	??_C@_03PODKENAC@psr@				; `string'
PUBLIC	??_C@_0BC@NAHHIMAJ@player_start_rank@		; `string'
PUBLIC	??_C@_0DD@DBNAJDKB@player?5start?5rank?5for?5new?5pilot@ ; `string'
PUBLIC	??_C@_03DIOJJFFH@mta@				; `string'
PUBLIC	??_C@_0BG@KOJHKFEE@max_time_acceleration@	; `string'
PUBLIC	??_C@_0DO@LIHKGJKF@maximum?5time?5acceleration?5?$CIn?5?$DN?5@ ; `string'
PUBLIC	??_C@_05DECPJPKH@nomcm@				; `string'
PUBLIC	??_C@_0DG@DKBOHFCG@no?5mission?5complete?5music?5?$CI0?5?$DN?5@ ; `string'
PUBLIC	??_C@_0BG@DIEIPIBP@disable_text_messages@	; `string'
PUBLIC	??_C@_0FO@JPMKHEOP@Disables?5the?5text?5messages?5disp@ ; `string'
PUBLIC	??_C@_02OFIBGMBD@41@				; `string'
PUBLIC	??_C@_09ONMJLPIH@MEMEXPORT@			; `string'
PUBLIC	??_C@_0EP@CIMGCJHA@export?5cockpit?5information?5to?5a@ ; `string'
PUBLIC	??_C@_0L@HMINCAOH@export_mfd@			; `string'
PUBLIC	??_C@_0ED@GDMNGOCN@enables?5MFD?5export?5on?5multimon?5@ ; `string'
PUBLIC	??_C@_0BD@JLMFEABM@export_mfd_adapter@		; `string'
PUBLIC	??_C@_0EN@POHDLBLJ@graphic?5adapter?5for?5MFD?5export?5@ ; `string'
PUBLIC	??_C@_0BI@ONKDEMLG@export_mfd_screen_width@	; `string'
PUBLIC	??_C@_0EC@OJOLOKOC@resolution?5of?5export?5screen?5?$CIn?5@ ; `string'
PUBLIC	??_C@_0BJ@DFNEBJJL@export_mfd_screen_height@	; `string'
PUBLIC	??_C@_0EA@LBOGFIHF@resolution?5of?5export?5screen?5?$CIn?5@ ; `string'
PUBLIC	??_C@_0BE@LGHDKBPA@export_mfd_left_pos@		; `string'
PUBLIC	??_C@_0CI@GKGKPOCO@left?5MFD?5position?5?5?5?$CIdef?5?$DN?50?00?0@ ; `string'
PUBLIC	??_C@_0BF@DJCCEPBO@export_mfd_right_pos@	; `string'
PUBLIC	??_C@_0CJ@PEIOPEKI@right?5MFD?5position?5?$CIdef?5?$DN?5384?00@ ; `string'
PUBLIC	??_C@_0BG@OFCOBNEE@export_mfd_single_pos@	; `string'
PUBLIC	??_C@_0EL@DPINPKDO@single?5MFD?5position?5?$CIHavoc?0?5Hin@ ; `string'
PUBLIC	??_C@_08NPKNDMMJ@?$FLSounds?$FN@		; `string'
PUBLIC	??_C@_02EGOFOKPC@ns@				; `string'
PUBLIC	??_C@_08NIOMBNPK@no_sound@			; `string'
PUBLIC	??_C@_0FG@DIJFKGIA@bypass?5soundcard?5?$CIuseful?5for?5tr@ ; `string'
PUBLIC	??_C@_0N@CFMGBAJM@sound_device@			; `string'
PUBLIC	??_C@_0BC@FOALJFMH@sound?5device?5name@		; `string'
PUBLIC	??_C@_0BE@DKDMBBGD@sound_device_speech@		; `string'
PUBLIC	??_C@_0BN@KGELPIKB@sound?5device?5name?5for?5speech@ ; `string'
PUBLIC	??_C@_07IDKNCEKK@hdwrbuf@			; `string'
PUBLIC	??_C@_0FM@NLJKGFLI@hardware?5buffers?5to?5use?5for?5sou@ ; `string'
PUBLIC	??_C@_0BC@GLKBOFLH@canopy_sounds_amp@		; `string'
PUBLIC	??_C@_0CD@JJMDHBID@canopy?5sounds?5amplifier?5control@ ; `string'
PUBLIC	??_C@_0BA@DGEOOCBO@ui_sounds_muted@		; `string'
PUBLIC	??_C@_0EL@PDHAHKNP@campaign?5UI?5mute?5?$CI0?5?$DN?5normal?5UI@ ; `string'
PUBLIC	??_C@_0BB@DGAHHIPF@?$FLRandom?5weather?$FN@	; `string'
PUBLIC	??_C@_08EGHIHOI@rw_rrmin@			; `string'
PUBLIC	??_C@_0CE@PCGLMNBI@Rain?5effect?5minimum?5radius?5?$CImet@ ; `string'
PUBLIC	??_C@_08BGOMGDIH@rw_rrmax@			; `string'
PUBLIC	??_C@_0CE@CJNEJOPP@Rain?5effect?5maximum?5radius?5?$CImet@ ; `string'
PUBLIC	??_C@_06NLOEDAI@rw_rsp@				; `string'
PUBLIC	??_C@_0CG@FJBLINAC@Rain?5effect?5speed?5?$CImeters?5per?5s@ ; `string'
PUBLIC	??_C@_08FEKKBGFL@rw_wrmin@			; `string'
PUBLIC	??_C@_0CE@GLIBPHKC@Wind?5effect?5minimum?5radius?5?$CImet@ ; `string'
PUBLIC	??_C@_08EGCBPCDE@rw_wrmax@			; `string'
PUBLIC	??_C@_0CE@LADOKEEF@Wind?5effect?5maximum?5radius?5?$CImet@ ; `string'
PUBLIC	??_C@_06DKGALDDK@rw_wsp@			; `string'
PUBLIC	??_C@_0CG@IBDNILGI@Wind?5effect?5speed?5?$CImeters?5per?5s@ ; `string'
PUBLIC	??_C@_0O@BLANADLO@?$FLend?5of?5file?$FN@	; `string'
PUBLIC	??_C@_09ELLNFDPM@directory@			; `string'
PUBLIC	??_C@_0DB@JNIAGIMK@command_line_game_initialisatio@ ; `string'
PUBLIC	??_C@_02OMOJBBMD@?10@				; `string'
PUBLIC	??_C@_08BABJIOEM@filename@			; `string'
PUBLIC	??_C@_0DA@PLIBFAOM@command_line_game_initialisatio@ ; `string'
PUBLIC	??_C@_03BDIFPLGB@3dw@				; `string'
PUBLIC	??_C@_03PHNPPMCB@640@				; `string'
PUBLIC	??_C@_03NONPPFPP@3dh@				; `string'
PUBLIC	??_C@_03FEMMMNMO@480@				; `string'
PUBLIC	??_C@_04DJADEAHL@3dce@				; `string'
PUBLIC	??_C@_01HIHLOKLC@1@				; `string'
PUBLIC	??_C@_03PHCINLLC@cbt@				; `string'
PUBLIC	??_C@_0BB@OCCKIOFG@force_resolution@		; `string'
PUBLIC	??_C@_02KLLMHECG@vn@				; `string'
PUBLIC	??_C@_0P@LNKEPANE@version_number@		; `string'
PUBLIC	??_C@_0BC@PJGHBECJ@aitool_grid_pitch@		; `string'
PUBLIC	??_C@_03MDAFIFFL@0?40@				; `string'
PUBLIC	??_C@_08FAPBLKNL@run_mode@			; `string'
PUBLIC	??_C@_01GBGANLPD@0@				; `string'
PUBLIC	??_C@_05POABADMF@cdrom@				; `string'
PUBLIC	??_C@_0N@HKBCAFGH@new_graphics@			; `string'
PUBLIC	??_C@_0BH@NONMHMBL@ai_use_route_generator@	; `string'
PUBLIC	??_C@_0BE@CKJCHJHD@no_convert_graphics@		; `string'
PUBLIC	??_C@_0N@BIEDLGOA@target_point@			; `string'
PUBLIC	??_C@_0BD@OPKIHNPE@no_pilot_rejection@		; `string'
PUBLIC	??_C@_09HBIOOCMA@cheats_on@			; `string'
PUBLIC	??_C@_0BH@COOBBPLA@dynamics_sonic_buildup@	; `string'
PUBLIC	??_C@_0BH@DNIPDDIB@object_level_of_detail@	; `string'
PUBLIC	??_C@_03HLLJOCDO@1?40@				; `string'
PUBLIC	??_C@_0M@JFMHBHNN@debug_input@			; `string'
PUBLIC	??_C@_0N@HEIEENKN@dump_session@			; `string'
PUBLIC	??_C@_0BA@CMMDEKMC@hardware_render@		; `string'
PUBLIC	??_C@_0N@IDDNELHK@high_res_mfd@			; `string'
PUBLIC	??_C@_0BD@NEOBFGPH@generate_srtm_data@		; `string'
PUBLIC	??_C@_0L@HEGFAFJO@3d_cockpit@			; `string'
PUBLIC	??_C@_03GOODKOKO@ini@				; `string'
PUBLIC	??_C@_08IPDEADOF@Comanche@			; `string'
PUBLIC	??_C@_05NIBKPJJC@Hokum@				; `string'
PUBLIC	??_C@_06FIECFAOH@Apache@			; `string'
PUBLIC	??_C@_05EKGLMDJJ@Havoc@				; `string'
PUBLIC	??_C@_04FEKIOLGK@Hind@				; `string'
PUBLIC	??_C@_05DIOCBCKJ@Viper@				; `string'
PUBLIC	??_C@_05PBJNHCKJ@Kiowa@				; `string'
PUBLIC	??_C@_05CAEOJMGF@Ka?950@			; `string'
PUBLIC	??_C@_0FG@NFCJOFEO@450?090?0375?$DL15?015?0100?$DL120?080?0100@ ; `string'
PUBLIC	??_C@_01FDFGLJHB@2@				; `string'
PUBLIC	??_C@_0EI@JKIMANF@220?0230?0255?$DL230?0230?0255?$DL235?0235@ ; `string'
PUBLIC	??_C@_08LJDEFECB@EECH?4INI@			; `string'
PUBLIC	??_C@_01NOFIACDB@w@				; `string'
PUBLIC	??_C@_05JPPLNOIE@?$CFs?$DN?$CFs@		; `string'
PUBLIC	??_C@_0M@OBFIPKEI@?$CFs?$CF?5?$CKc?$CD?5?$CFs?6@ ; `string'
PUBLIC	??_C@_03OFAPEBGM@?$CFs?6@			; `string'
PUBLIC	??_C@_05DFHAGHEP@?$CD?5?$CFs?6@			; `string'
EXTRN	__imp____stdio_common_vfprintf:PROC
EXTRN	__imp____stdio_common_vsprintf_s:PROC
EXTRN	__imp__isspace:PROC
EXTRN	__imp__fgets:PROC
EXTRN	__imp___time64:PROC
EXTRN	__imp___findclose:PROC
EXTRN	__imp___findnext64i32:PROC
EXTRN	__imp___findfirst64i32:PROC
EXTRN	__imp__isdigit:PROC
EXTRN	__imp__atof:PROC
EXTRN	__imp__atoi:PROC
;	COMDAT ??_C@_05DFHAGHEP@?$CD?5?$CFs?6@
CONST	SEGMENT
??_C@_05DFHAGHEP@?$CD?5?$CFs?6@ DB '# %s', 0aH, 00H	; `string'
CONST	ENDS
;	COMDAT ??_C@_03OFAPEBGM@?$CFs?6@
CONST	SEGMENT
??_C@_03OFAPEBGM@?$CFs?6@ DB '%s', 0aH, 00H		; `string'
CONST	ENDS
;	COMDAT ??_C@_0M@OBFIPKEI@?$CFs?$CF?5?$CKc?$CD?5?$CFs?6@
CONST	SEGMENT
??_C@_0M@OBFIPKEI@?$CFs?$CF?5?$CKc?$CD?5?$CFs?6@ DB '%s% *c# %s', 0aH, 00H ; `string'
CONST	ENDS
;	COMDAT ??_C@_05JPPLNOIE@?$CFs?$DN?$CFs@
CONST	SEGMENT
??_C@_05JPPLNOIE@?$CFs?$DN?$CFs@ DB '%s=%s', 00H	; `string'
CONST	ENDS
;	COMDAT ??_C@_01NOFIACDB@w@
CONST	SEGMENT
??_C@_01NOFIACDB@w@ DB 'w', 00H				; `string'
CONST	ENDS
;	COMDAT ??_C@_08LJDEFECB@EECH?4INI@
CONST	SEGMENT
??_C@_08LJDEFECB@EECH?4INI@ DB 'EECH.INI', 00H		; `string'
CONST	ENDS
;	COMDAT ??_C@_0EI@JKIMANF@220?0230?0255?$DL230?0230?0255?$DL235?0235@
CONST	SEGMENT
??_C@_0EI@JKIMANF@220?0230?0255?$DL230?0230?0255?$DL235?0235@ DB '220,230'
	DB	',255;230,230,255;235,235,255;245,245,255;250,250,255;255,255,'
	DB	'255', 00H					; `string'
CONST	ENDS
;	COMDAT ??_C@_01FDFGLJHB@2@
CONST	SEGMENT
??_C@_01FDFGLJHB@2@ DB '2', 00H				; `string'
CONST	ENDS
;	COMDAT ??_C@_0FG@NFCJOFEO@450?090?0375?$DL15?015?0100?$DL120?080?0100@
CONST	SEGMENT
??_C@_0FG@NFCJOFEO@450?090?0375?$DL15?015?0100?$DL120?080?0100@ DB '450,9'
	DB	'0,375;15,15,100;120,80,100;10,10,100;240,10,100;20,20,100;180'
	DB	',20,100;180,10,100;', 00H			; `string'
CONST	ENDS
;	COMDAT ??_C@_05CAEOJMGF@Ka?950@
CONST	SEGMENT
??_C@_05CAEOJMGF@Ka?950@ DB 'Ka-50', 00H		; `string'
CONST	ENDS
;	COMDAT ??_C@_05PBJNHCKJ@Kiowa@
CONST	SEGMENT
??_C@_05PBJNHCKJ@Kiowa@ DB 'Kiowa', 00H			; `string'
CONST	ENDS
;	COMDAT ??_C@_05DIOCBCKJ@Viper@
CONST	SEGMENT
??_C@_05DIOCBCKJ@Viper@ DB 'Viper', 00H			; `string'
CONST	ENDS
;	COMDAT ??_C@_04FEKIOLGK@Hind@
CONST	SEGMENT
??_C@_04FEKIOLGK@Hind@ DB 'Hind', 00H			; `string'
CONST	ENDS
;	COMDAT ??_C@_05EKGLMDJJ@Havoc@
CONST	SEGMENT
??_C@_05EKGLMDJJ@Havoc@ DB 'Havoc', 00H			; `string'
CONST	ENDS
;	COMDAT ??_C@_06FIECFAOH@Apache@
CONST	SEGMENT
??_C@_06FIECFAOH@Apache@ DB 'Apache', 00H		; `string'
CONST	ENDS
;	COMDAT ??_C@_05NIBKPJJC@Hokum@
CONST	SEGMENT
??_C@_05NIBKPJJC@Hokum@ DB 'Hokum', 00H			; `string'
CONST	ENDS
;	COMDAT ??_C@_08IPDEADOF@Comanche@
CONST	SEGMENT
??_C@_08IPDEADOF@Comanche@ DB 'Comanche', 00H		; `string'
CONST	ENDS
;	COMDAT ??_C@_03GOODKOKO@ini@
CONST	SEGMENT
??_C@_03GOODKOKO@ini@ DB 'ini', 00H			; `string'
CONST	ENDS
;	COMDAT ??_C@_0L@HEGFAFJO@3d_cockpit@
CONST	SEGMENT
??_C@_0L@HEGFAFJO@3d_cockpit@ DB '3d_cockpit', 00H	; `string'
CONST	ENDS
;	COMDAT ??_C@_0BD@NEOBFGPH@generate_srtm_data@
CONST	SEGMENT
??_C@_0BD@NEOBFGPH@generate_srtm_data@ DB 'generate_srtm_data', 00H ; `string'
CONST	ENDS
;	COMDAT ??_C@_0N@IDDNELHK@high_res_mfd@
CONST	SEGMENT
??_C@_0N@IDDNELHK@high_res_mfd@ DB 'high_res_mfd', 00H	; `string'
CONST	ENDS
;	COMDAT ??_C@_0BA@CMMDEKMC@hardware_render@
CONST	SEGMENT
??_C@_0BA@CMMDEKMC@hardware_render@ DB 'hardware_render', 00H ; `string'
CONST	ENDS
;	COMDAT ??_C@_0N@HEIEENKN@dump_session@
CONST	SEGMENT
??_C@_0N@HEIEENKN@dump_session@ DB 'dump_session', 00H	; `string'
CONST	ENDS
;	COMDAT ??_C@_0M@JFMHBHNN@debug_input@
CONST	SEGMENT
??_C@_0M@JFMHBHNN@debug_input@ DB 'debug_input', 00H	; `string'
CONST	ENDS
;	COMDAT ??_C@_03HLLJOCDO@1?40@
CONST	SEGMENT
??_C@_03HLLJOCDO@1?40@ DB '1.0', 00H			; `string'
CONST	ENDS
;	COMDAT ??_C@_0BH@DNIPDDIB@object_level_of_detail@
CONST	SEGMENT
??_C@_0BH@DNIPDDIB@object_level_of_detail@ DB 'object_level_of_detail', 00H ; `string'
CONST	ENDS
;	COMDAT ??_C@_0BH@COOBBPLA@dynamics_sonic_buildup@
CONST	SEGMENT
??_C@_0BH@COOBBPLA@dynamics_sonic_buildup@ DB 'dynamics_sonic_buildup', 00H ; `string'
CONST	ENDS
;	COMDAT ??_C@_09HBIOOCMA@cheats_on@
CONST	SEGMENT
??_C@_09HBIOOCMA@cheats_on@ DB 'cheats_on', 00H		; `string'
CONST	ENDS
;	COMDAT ??_C@_0BD@OPKIHNPE@no_pilot_rejection@
CONST	SEGMENT
??_C@_0BD@OPKIHNPE@no_pilot_rejection@ DB 'no_pilot_rejection', 00H ; `string'
CONST	ENDS
;	COMDAT ??_C@_0N@BIEDLGOA@target_point@
CONST	SEGMENT
??_C@_0N@BIEDLGOA@target_point@ DB 'target_point', 00H	; `string'
CONST	ENDS
;	COMDAT ??_C@_0BE@CKJCHJHD@no_convert_graphics@
CONST	SEGMENT
??_C@_0BE@CKJCHJHD@no_convert_graphics@ DB 'no_convert_graphics', 00H ; `string'
CONST	ENDS
;	COMDAT ??_C@_0BH@NONMHMBL@ai_use_route_generator@
CONST	SEGMENT
??_C@_0BH@NONMHMBL@ai_use_route_generator@ DB 'ai_use_route_generator', 00H ; `string'
CONST	ENDS
;	COMDAT ??_C@_0N@HKBCAFGH@new_graphics@
CONST	SEGMENT
??_C@_0N@HKBCAFGH@new_graphics@ DB 'new_graphics', 00H	; `string'
CONST	ENDS
;	COMDAT ??_C@_05POABADMF@cdrom@
CONST	SEGMENT
??_C@_05POABADMF@cdrom@ DB 'cdrom', 00H			; `string'
CONST	ENDS
;	COMDAT ??_C@_01GBGANLPD@0@
CONST	SEGMENT
??_C@_01GBGANLPD@0@ DB '0', 00H				; `string'
CONST	ENDS
;	COMDAT ??_C@_08FAPBLKNL@run_mode@
CONST	SEGMENT
??_C@_08FAPBLKNL@run_mode@ DB 'run_mode', 00H		; `string'
CONST	ENDS
;	COMDAT ??_C@_03MDAFIFFL@0?40@
CONST	SEGMENT
??_C@_03MDAFIFFL@0?40@ DB '0.0', 00H			; `string'
CONST	ENDS
;	COMDAT ??_C@_0BC@PJGHBECJ@aitool_grid_pitch@
CONST	SEGMENT
??_C@_0BC@PJGHBECJ@aitool_grid_pitch@ DB 'aitool_grid_pitch', 00H ; `string'
CONST	ENDS
;	COMDAT ??_C@_0P@LNKEPANE@version_number@
CONST	SEGMENT
??_C@_0P@LNKEPANE@version_number@ DB 'version_number', 00H ; `string'
CONST	ENDS
;	COMDAT ??_C@_02KLLMHECG@vn@
CONST	SEGMENT
??_C@_02KLLMHECG@vn@ DB 'vn', 00H			; `string'
CONST	ENDS
;	COMDAT ??_C@_0BB@OCCKIOFG@force_resolution@
CONST	SEGMENT
??_C@_0BB@OCCKIOFG@force_resolution@ DB 'force_resolution', 00H ; `string'
CONST	ENDS
;	COMDAT ??_C@_03PHCINLLC@cbt@
CONST	SEGMENT
??_C@_03PHCINLLC@cbt@ DB 'cbt', 00H			; `string'
CONST	ENDS
;	COMDAT ??_C@_01HIHLOKLC@1@
CONST	SEGMENT
??_C@_01HIHLOKLC@1@ DB '1', 00H				; `string'
CONST	ENDS
;	COMDAT ??_C@_04DJADEAHL@3dce@
CONST	SEGMENT
??_C@_04DJADEAHL@3dce@ DB '3dce', 00H			; `string'
CONST	ENDS
;	COMDAT ??_C@_03FEMMMNMO@480@
CONST	SEGMENT
??_C@_03FEMMMNMO@480@ DB '480', 00H			; `string'
CONST	ENDS
;	COMDAT ??_C@_03NONPPFPP@3dh@
CONST	SEGMENT
??_C@_03NONPPFPP@3dh@ DB '3dh', 00H			; `string'
CONST	ENDS
;	COMDAT ??_C@_03PHNPPMCB@640@
CONST	SEGMENT
??_C@_03PHNPPMCB@640@ DB '640', 00H			; `string'
CONST	ENDS
;	COMDAT ??_C@_03BDIFPLGB@3dw@
CONST	SEGMENT
??_C@_03BDIFPLGB@3dw@ DB '3dw', 00H			; `string'
CONST	ENDS
;	COMDAT ??_C@_0DA@PLIBFAOM@command_line_game_initialisatio@
CONST	SEGMENT
??_C@_0DA@PLIBFAOM@command_line_game_initialisatio@ DB 'command_line_game'
	DB	'_initialisation_phase_filename', 00H	; `string'
CONST	ENDS
;	COMDAT ??_C@_08BABJIOEM@filename@
CONST	SEGMENT
??_C@_08BABJIOEM@filename@ DB 'filename', 00H		; `string'
CONST	ENDS
;	COMDAT ??_C@_02OMOJBBMD@?10@
CONST	SEGMENT
??_C@_02OMOJBBMD@?10@ DB '/0', 00H			; `string'
CONST	ENDS
;	COMDAT ??_C@_0DB@JNIAGIMK@command_line_game_initialisatio@
CONST	SEGMENT
??_C@_0DB@JNIAGIMK@command_line_game_initialisatio@ DB 'command_line_game'
	DB	'_initialisation_phase_directory', 00H	; `string'
CONST	ENDS
;	COMDAT ??_C@_09ELLNFDPM@directory@
CONST	SEGMENT
??_C@_09ELLNFDPM@directory@ DB 'directory', 00H		; `string'
CONST	ENDS
;	COMDAT ??_C@_0O@BLANADLO@?$FLend?5of?5file?$FN@
CONST	SEGMENT
??_C@_0O@BLANADLO@?$FLend?5of?5file?$FN@ DB '[end of file]', 00H ; `string'
CONST	ENDS
;	COMDAT ??_C@_0CG@IBDNILGI@Wind?5effect?5speed?5?$CImeters?5per?5s@
CONST	SEGMENT
??_C@_0CG@IBDNILGI@Wind?5effect?5speed?5?$CImeters?5per?5s@ DB 'Wind effe'
	DB	'ct speed (meters per second)', 00H		; `string'
CONST	ENDS
;	COMDAT ??_C@_06DKGALDDK@rw_wsp@
CONST	SEGMENT
??_C@_06DKGALDDK@rw_wsp@ DB 'rw_wsp', 00H		; `string'
CONST	ENDS
;	COMDAT ??_C@_0CE@LADOKEEF@Wind?5effect?5maximum?5radius?5?$CImet@
CONST	SEGMENT
??_C@_0CE@LADOKEEF@Wind?5effect?5maximum?5radius?5?$CImet@ DB 'Wind effec'
	DB	't maximum radius (meters)', 00H		; `string'
CONST	ENDS
;	COMDAT ??_C@_08EGCBPCDE@rw_wrmax@
CONST	SEGMENT
??_C@_08EGCBPCDE@rw_wrmax@ DB 'rw_wrmax', 00H		; `string'
CONST	ENDS
;	COMDAT ??_C@_0CE@GLIBPHKC@Wind?5effect?5minimum?5radius?5?$CImet@
CONST	SEGMENT
??_C@_0CE@GLIBPHKC@Wind?5effect?5minimum?5radius?5?$CImet@ DB 'Wind effec'
	DB	't minimum radius (meters)', 00H		; `string'
CONST	ENDS
;	COMDAT ??_C@_08FEKKBGFL@rw_wrmin@
CONST	SEGMENT
??_C@_08FEKKBGFL@rw_wrmin@ DB 'rw_wrmin', 00H		; `string'
CONST	ENDS
;	COMDAT ??_C@_0CG@FJBLINAC@Rain?5effect?5speed?5?$CImeters?5per?5s@
CONST	SEGMENT
??_C@_0CG@FJBLINAC@Rain?5effect?5speed?5?$CImeters?5per?5s@ DB 'Rain effe'
	DB	'ct speed (meters per second)', 00H		; `string'
CONST	ENDS
;	COMDAT ??_C@_06NLOEDAI@rw_rsp@
CONST	SEGMENT
??_C@_06NLOEDAI@rw_rsp@ DB 'rw_rsp', 00H		; `string'
CONST	ENDS
;	COMDAT ??_C@_0CE@CJNEJOPP@Rain?5effect?5maximum?5radius?5?$CImet@
CONST	SEGMENT
??_C@_0CE@CJNEJOPP@Rain?5effect?5maximum?5radius?5?$CImet@ DB 'Rain effec'
	DB	't maximum radius (meters)', 00H		; `string'
CONST	ENDS
;	COMDAT ??_C@_08BGOMGDIH@rw_rrmax@
CONST	SEGMENT
??_C@_08BGOMGDIH@rw_rrmax@ DB 'rw_rrmax', 00H		; `string'
CONST	ENDS
;	COMDAT ??_C@_0CE@PCGLMNBI@Rain?5effect?5minimum?5radius?5?$CImet@
CONST	SEGMENT
??_C@_0CE@PCGLMNBI@Rain?5effect?5minimum?5radius?5?$CImet@ DB 'Rain effec'
	DB	't minimum radius (meters)', 00H		; `string'
CONST	ENDS
;	COMDAT ??_C@_08EGHIHOI@rw_rrmin@
CONST	SEGMENT
??_C@_08EGHIHOI@rw_rrmin@ DB 'rw_rrmin', 00H		; `string'
CONST	ENDS
;	COMDAT ??_C@_0BB@DGAHHIPF@?$FLRandom?5weather?$FN@
CONST	SEGMENT
??_C@_0BB@DGAHHIPF@?$FLRandom?5weather?$FN@ DB '[Random weather]', 00H ; `string'
CONST	ENDS
;	COMDAT ??_C@_0EL@PDHAHKNP@campaign?5UI?5mute?5?$CI0?5?$DN?5normal?5UI@
CONST	SEGMENT
??_C@_0EL@PDHAHKNP@campaign?5UI?5mute?5?$CI0?5?$DN?5normal?5UI@ DB 'campa'
	DB	'ign UI mute (0 = normal UI sounds, 1 = UI sounds muted) (defa'
	DB	'ult = 0)', 00H				; `string'
CONST	ENDS
;	COMDAT ??_C@_0BA@DGEOOCBO@ui_sounds_muted@
CONST	SEGMENT
??_C@_0BA@DGEOOCBO@ui_sounds_muted@ DB 'ui_sounds_muted', 00H ; `string'
CONST	ENDS
;	COMDAT ??_C@_0CD@JJMDHBID@canopy?5sounds?5amplifier?5control@
CONST	SEGMENT
??_C@_0CD@JJMDHBID@canopy?5sounds?5amplifier?5control@ DB 'canopy sounds '
	DB	'amplifier controller', 00H			; `string'
CONST	ENDS
;	COMDAT ??_C@_0BC@GLKBOFLH@canopy_sounds_amp@
CONST	SEGMENT
??_C@_0BC@GLKBOFLH@canopy_sounds_amp@ DB 'canopy_sounds_amp', 00H ; `string'
CONST	ENDS
;	COMDAT ??_C@_0FM@NLJKGFLI@hardware?5buffers?5to?5use?5for?5sou@
CONST	SEGMENT
??_C@_0FM@NLJKGFLI@hardware?5buffers?5to?5use?5for?5sou@ DB 'hardware buf'
	DB	'fers to use for sound (0 = software only, n = number of hard '
	DB	'buffers) (def = 0)', 00H			; `string'
CONST	ENDS
;	COMDAT ??_C@_07IDKNCEKK@hdwrbuf@
CONST	SEGMENT
??_C@_07IDKNCEKK@hdwrbuf@ DB 'hdwrbuf', 00H		; `string'
CONST	ENDS
;	COMDAT ??_C@_0BN@KGELPIKB@sound?5device?5name?5for?5speech@
CONST	SEGMENT
??_C@_0BN@KGELPIKB@sound?5device?5name?5for?5speech@ DB 'sound device nam'
	DB	'e for speech', 00H				; `string'
CONST	ENDS
;	COMDAT ??_C@_0BE@DKDMBBGD@sound_device_speech@
CONST	SEGMENT
??_C@_0BE@DKDMBBGD@sound_device_speech@ DB 'sound_device_speech', 00H ; `string'
CONST	ENDS
;	COMDAT ??_C@_0BC@FOALJFMH@sound?5device?5name@
CONST	SEGMENT
??_C@_0BC@FOALJFMH@sound?5device?5name@ DB 'sound device name', 00H ; `string'
CONST	ENDS
;	COMDAT ??_C@_0N@CFMGBAJM@sound_device@
CONST	SEGMENT
??_C@_0N@CFMGBAJM@sound_device@ DB 'sound_device', 00H	; `string'
CONST	ENDS
;	COMDAT ??_C@_0FG@DIJFKGIA@bypass?5soundcard?5?$CIuseful?5for?5tr@
CONST	SEGMENT
??_C@_0FG@DIJFKGIA@bypass?5soundcard?5?$CIuseful?5for?5tr@ DB 'bypass sou'
	DB	'ndcard (useful for tracking hardware conflicts) (0 = off, 1 ='
	DB	' on) (def = 0)', 00H			; `string'
CONST	ENDS
;	COMDAT ??_C@_08NIOMBNPK@no_sound@
CONST	SEGMENT
??_C@_08NIOMBNPK@no_sound@ DB 'no_sound', 00H		; `string'
CONST	ENDS
;	COMDAT ??_C@_02EGOFOKPC@ns@
CONST	SEGMENT
??_C@_02EGOFOKPC@ns@ DB 'ns', 00H			; `string'
CONST	ENDS
;	COMDAT ??_C@_08NPKNDMMJ@?$FLSounds?$FN@
CONST	SEGMENT
??_C@_08NPKNDMMJ@?$FLSounds?$FN@ DB '[Sounds]', 00H	; `string'
CONST	ENDS
;	COMDAT ??_C@_0EL@DPINPKDO@single?5MFD?5position?5?$CIHavoc?0?5Hin@
CONST	SEGMENT
??_C@_0EL@DPINPKDO@single?5MFD?5position?5?$CIHavoc?0?5Hin@ DB 'single MF'
	DB	'D position (Havoc, Hind and Black Shark only) (def = 0,0,256,'
	DB	'256)', 00H					; `string'
CONST	ENDS
;	COMDAT ??_C@_0BG@OFCOBNEE@export_mfd_single_pos@
CONST	SEGMENT
??_C@_0BG@OFCOBNEE@export_mfd_single_pos@ DB 'export_mfd_single_pos', 00H ; `string'
CONST	ENDS
;	COMDAT ??_C@_0CJ@PEIOPEKI@right?5MFD?5position?5?$CIdef?5?$DN?5384?00@
CONST	SEGMENT
??_C@_0CJ@PEIOPEKI@right?5MFD?5position?5?$CIdef?5?$DN?5384?00@ DB 'right'
	DB	' MFD position (def = 384,0,640,256)', 00H	; `string'
CONST	ENDS
;	COMDAT ??_C@_0BF@DJCCEPBO@export_mfd_right_pos@
CONST	SEGMENT
??_C@_0BF@DJCCEPBO@export_mfd_right_pos@ DB 'export_mfd_right_pos', 00H ; `string'
CONST	ENDS
;	COMDAT ??_C@_0CI@GKGKPOCO@left?5MFD?5position?5?5?5?$CIdef?5?$DN?50?00?0@
CONST	SEGMENT
??_C@_0CI@GKGKPOCO@left?5MFD?5position?5?5?5?$CIdef?5?$DN?50?00?0@ DB 'le'
	DB	'ft MFD position   (def = 0,0,256,256)', 00H	; `string'
CONST	ENDS
;	COMDAT ??_C@_0BE@LGHDKBPA@export_mfd_left_pos@
CONST	SEGMENT
??_C@_0BE@LGHDKBPA@export_mfd_left_pos@ DB 'export_mfd_left_pos', 00H ; `string'
CONST	ENDS
;	COMDAT ??_C@_0EA@LBOGFIHF@resolution?5of?5export?5screen?5?$CIn?5@
CONST	SEGMENT
??_C@_0EA@LBOGFIHF@resolution?5of?5export?5screen?5?$CIn?5@ DB 'resolutio'
	DB	'n of export screen (n = pixels vertically) (def = 400)', 00H ; `string'
CONST	ENDS
;	COMDAT ??_C@_0BJ@DFNEBJJL@export_mfd_screen_height@
CONST	SEGMENT
??_C@_0BJ@DFNEBJJL@export_mfd_screen_height@ DB 'export_mfd_screen_height'
	DB	00H						; `string'
CONST	ENDS
;	COMDAT ??_C@_0EC@OJOLOKOC@resolution?5of?5export?5screen?5?$CIn?5@
CONST	SEGMENT
??_C@_0EC@OJOLOKOC@resolution?5of?5export?5screen?5?$CIn?5@ DB 'resolutio'
	DB	'n of export screen (n = pixels horizontally) (def = 640)', 00H ; `string'
CONST	ENDS
;	COMDAT ??_C@_0BI@ONKDEMLG@export_mfd_screen_width@
CONST	SEGMENT
??_C@_0BI@ONKDEMLG@export_mfd_screen_width@ DB 'export_mfd_screen_width', 00H ; `string'
CONST	ENDS
;	COMDAT ??_C@_0EN@POHDLBLJ@graphic?5adapter?5for?5MFD?5export?5@
CONST	SEGMENT
??_C@_0EN@POHDLBLJ@graphic?5adapter?5for?5MFD?5export?5@ DB 'graphic adap'
	DB	'ter for MFD export screen (0 = first, 1 = second, ...) (def ='
	DB	' 0)', 00H					; `string'
CONST	ENDS
;	COMDAT ??_C@_0BD@JLMFEABM@export_mfd_adapter@
CONST	SEGMENT
??_C@_0BD@JLMFEABM@export_mfd_adapter@ DB 'export_mfd_adapter', 00H ; `string'
CONST	ENDS
;	COMDAT ??_C@_0ED@GDMNGOCN@enables?5MFD?5export?5on?5multimon?5@
CONST	SEGMENT
??_C@_0ED@GDMNGOCN@enables?5MFD?5export?5on?5multimon?5@ DB 'enables MFD '
	DB	'export on multimon systems (0 = off, 1 = on) (def = 0)', 00H ; `string'
CONST	ENDS
;	COMDAT ??_C@_0L@HMINCAOH@export_mfd@
CONST	SEGMENT
??_C@_0L@HMINCAOH@export_mfd@ DB 'export_mfd', 00H	; `string'
CONST	ENDS
;	COMDAT ??_C@_0EP@CIMGCJHA@export?5cockpit?5information?5to?5a@
CONST	SEGMENT
??_C@_0EP@CIMGCJHA@export?5cockpit?5information?5to?5a@ DB 'export cockpi'
	DB	't information to a shared memory area (0 = off, 1 = on) (def '
	DB	'= 0)', 00H					; `string'
CONST	ENDS
;	COMDAT ??_C@_09ONMJLPIH@MEMEXPORT@
CONST	SEGMENT
??_C@_09ONMJLPIH@MEMEXPORT@ DB 'MEMEXPORT', 00H		; `string'
CONST	ENDS
;	COMDAT ??_C@_02OFIBGMBD@41@
CONST	SEGMENT
??_C@_02OFIBGMBD@41@ DB '41', 00H			; `string'
CONST	ENDS
;	COMDAT ??_C@_0FO@JPMKHEOP@Disables?5the?5text?5messages?5disp@
CONST	SEGMENT
??_C@_0FO@JPMKHEOP@Disables?5the?5text?5messages?5disp@ DB 'Disables the '
	DB	'text messages displayed at top of screen (messages can still '
	DB	'be heard) (def = 0)', 00H			; `string'
CONST	ENDS
;	COMDAT ??_C@_0BG@DIEIPIBP@disable_text_messages@
CONST	SEGMENT
??_C@_0BG@DIEIPIBP@disable_text_messages@ DB 'disable_text_messages', 00H ; `string'
CONST	ENDS
;	COMDAT ??_C@_0DG@DKBOHFCG@no?5mission?5complete?5music?5?$CI0?5?$DN?5@
CONST	SEGMENT
??_C@_0DG@DKBOHFCG@no?5mission?5complete?5music?5?$CI0?5?$DN?5@ DB 'no mi'
	DB	'ssion complete music (0 = off, 1 = on) (def = 0)', 00H ; `string'
CONST	ENDS
;	COMDAT ??_C@_05DECPJPKH@nomcm@
CONST	SEGMENT
??_C@_05DECPJPKH@nomcm@ DB 'nomcm', 00H			; `string'
CONST	ENDS
;	COMDAT ??_C@_0DO@LIHKGJKF@maximum?5time?5acceleration?5?$CIn?5?$DN?5@
CONST	SEGMENT
??_C@_0DO@LIHKGJKF@maximum?5time?5acceleration?5?$CIn?5?$DN?5@ DB 'maximu'
	DB	'm time acceleration (n = time multiplier) (default = 4)', 00H ; `string'
CONST	ENDS
;	COMDAT ??_C@_0BG@KOJHKFEE@max_time_acceleration@
CONST	SEGMENT
??_C@_0BG@KOJHKFEE@max_time_acceleration@ DB 'max_time_acceleration', 00H ; `string'
CONST	ENDS
;	COMDAT ??_C@_03DIOJJFFH@mta@
CONST	SEGMENT
??_C@_03DIOJJFFH@mta@ DB 'mta', 00H			; `string'
CONST	ENDS
;	COMDAT ??_C@_0DD@DBNAJDKB@player?5start?5rank?5for?5new?5pilot@
CONST	SEGMENT
??_C@_0DD@DBNAJDKB@player?5start?5rank?5for?5new?5pilot@ DB 'player start'
	DB	' rank for new pilots (1 - 5) (def = 1)', 00H ; `string'
CONST	ENDS
;	COMDAT ??_C@_0BC@NAHHIMAJ@player_start_rank@
CONST	SEGMENT
??_C@_0BC@NAHHIMAJ@player_start_rank@ DB 'player_start_rank', 00H ; `string'
CONST	ENDS
;	COMDAT ??_C@_03PODKENAC@psr@
CONST	SEGMENT
??_C@_03PODKENAC@psr@ DB 'psr', 00H			; `string'
CONST	ENDS
;	COMDAT ??_C@_0FI@OEGPHJIL@vector?5flight?5model?5?$CIactivates?5@
CONST	SEGMENT
??_C@_0FI@OEGPHJIL@vector?5flight?5model?5?$CIactivates?5@ DB 'vector fli'
	DB	'ght model (activates viewer or "UFO" flight mode) (0 = off, 1'
	DB	' = on) (def = 0)', 00H			; `string'
CONST	ENDS
;	COMDAT ??_C@_0BE@IBBKLAGG@vector_flight_model@
CONST	SEGMENT
??_C@_0BE@IBBKLAGG@vector_flight_model@ DB 'vector_flight_model', 00H ; `string'
CONST	ENDS
;	COMDAT ??_C@_03MOGHNNL@vfm@
CONST	SEGMENT
??_C@_03MOGHNNL@vfm@ DB 'vfm', 00H			; `string'
CONST	ENDS
;	COMDAT ??_C@_0EM@JKMNODII@?$CCGOTO?$CC?5?$CIteleport?$CJ?5functionality@
CONST	SEGMENT
??_C@_0EM@JKMNODII@?$CCGOTO?$CC?5?$CIteleport?$CJ?5functionality@ DB '"GO'
	DB	'TO" (teleport) functionality on campaign map (0 = off, 1 = on'
	DB	') (def = 0)', 00H				; `string'
CONST	ENDS
;	COMDAT ??_C@_0BE@LLNAGGBK@planner_goto_button@
CONST	SEGMENT
??_C@_0BE@LLNAGGBK@planner_goto_button@ DB 'planner_goto_button', 00H ; `string'
CONST	ENDS
;	COMDAT ??_C@_04MABHPDAO@goto@
CONST	SEGMENT
??_C@_04MABHPDAO@goto@ DB 'goto', 00H			; `string'
CONST	ENDS
;	COMDAT ??_C@_0EP@HNCLPBNM@display?5framerate?5?$CI0?5?$DN?5off?0?51?5?$DN@
CONST	SEGMENT
??_C@_0EP@HNCLPBNM@display?5framerate?5?$CI0?5?$DN?5off?0?51?5?$DN@ DB 'd'
	DB	'isplay framerate (0 = off, 1 = on, 2 = log to file "framerate'
	DB	'.txt") (def = 0)', 00H			; `string'
CONST	ENDS
;	COMDAT ??_C@_09PLDKGHKD@framerate@
CONST	SEGMENT
??_C@_09PLDKGHKD@framerate@ DB 'framerate', 00H		; `string'
CONST	ENDS
;	COMDAT ??_C@_03DLKMOMFB@dfr@
CONST	SEGMENT
??_C@_03DLKMOMFB@dfr@ DB 'dfr', 00H			; `string'
CONST	ENDS
;	COMDAT ??_C@_0CK@JIGPLLDG@autosave?5?$CIn?5?$DN?5minutes?0?50?5?$DN?5off?$CJ@
CONST	SEGMENT
??_C@_0CK@JIGPLLDG@autosave?5?$CIn?5?$DN?5minutes?0?50?5?$DN?5off?$CJ@ DB 'a'
	DB	'utosave (n = minutes, 0 = off) (def = 0)', 00H ; `string'
CONST	ENDS
;	COMDAT ??_C@_08CCMFCJIM@autosave@
CONST	SEGMENT
??_C@_08CCMFCJIM@autosave@ DB 'autosave', 00H		; `string'
CONST	ENDS
;	COMDAT ??_C@_0CO@JGECNKOJ@session?5filtering?5?$CI0?5?$DN?5off?0?51?5?$DN@
CONST	SEGMENT
??_C@_0CO@JGECNKOJ@session?5filtering?5?$CI0?5?$DN?5off?0?51?5?$DN@ DB 's'
	DB	'ession filtering (0 = off, 1 = on) (def = 1)', 00H ; `string'
CONST	ENDS
;	COMDAT ??_C@_0P@FMFMDKKO@session_filter@
CONST	SEGMENT
??_C@_0P@FMFMDKKO@session_filter@ DB 'session_filter', 00H ; `string'
CONST	ENDS
;	COMDAT ??_C@_06EOIELIPE@filter@
CONST	SEGMENT
??_C@_06EOIELIPE@filter@ DB 'filter', 00H		; `string'
CONST	ENDS
;	COMDAT ??_C@_0BA@BMJFGALL@?$FLMiscellaneous?$FN@
CONST	SEGMENT
??_C@_0BA@BMJFGALL@?$FLMiscellaneous?$FN@ DB '[Miscellaneous]', 00H ; `string'
CONST	ENDS
;	COMDAT ??_C@_0GC@KHJBJPCD@?$CIonly?5when?5external_trackir?$DN1?$CJ?5@
CONST	SEGMENT
??_C@_0GC@KHJBJPCD@?$CIonly?5when?5external_trackir?$DN1?$CJ?5@ DB '(only'
	DB	' when external_trackir=1) invert external cameras view direct'
	DB	'ion (0 = off, 1 = on) (def = 0)', 00H	; `string'
CONST	ENDS
;	COMDAT ??_C@_0BL@BLACHPBD@external_trackir_direction@
CONST	SEGMENT
??_C@_0BL@BLACHPBD@external_trackir_direction@ DB 'external_trackir_direc'
	DB	'tion', 00H					; `string'
CONST	ENDS
;	COMDAT ??_C@_0BF@BBKHFDFA@external_trackir_dir@
CONST	SEGMENT
??_C@_0BF@BBKHFDFA@external_trackir_dir@ DB 'external_trackir_dir', 00H ; `string'
CONST	ENDS
;	COMDAT ??_C@_0FF@PLCJDGJM@?$CIonly?5when?5msl?$DN1?$CJ?5external?5came@
CONST	SEGMENT
??_C@_0FF@PLCJDGJM@?$CIonly?5when?5msl?$DN1?$CJ?5external?5came@ DB '(onl'
	DB	'y when msl=1) external cameras controlled by TrackIR (0 = off'
	DB	', 1 = on) (def = 0)', 00H			; `string'
CONST	ENDS
;	COMDAT ??_C@_0BB@INCOIGLG@external_trackir@
CONST	SEGMENT
??_C@_0BB@INCOIGLG@external_trackir@ DB 'external_trackir', 00H ; `string'
CONST	ENDS
;	COMDAT ??_C@_0DG@PBPFFILO@6?5DoF?5support?5for?5TrackIR?5?$CI0?5?$DN?5@
CONST	SEGMENT
??_C@_0DG@PBPFFILO@6?5DoF?5support?5for?5TrackIR?5?$CI0?5?$DN?5@ DB '6 Do'
	DB	'F support for TrackIR (0 = off, 1 = on) (def = 0)', 00H ; `string'
CONST	ENDS
;	COMDAT ??_C@_08KOPKMAGD@TIR_6DOF@
CONST	SEGMENT
??_C@_08KOPKMAGD@TIR_6DOF@ DB 'TIR_6DOF', 00H		; `string'
CONST	ENDS
;	COMDAT ??_C@_0GF@IMMIJIBB@mouselook?5speed?5?$CIwhen?5msl?$DN1?$CJ?5?$CIn@
CONST	SEGMENT
??_C@_0GF@IMMIJIBB@mouselook?5speed?5?$CIwhen?5msl?$DN1?$CJ?5?$CIn@ DB 'm'
	DB	'ouselook speed (when msl=1) (n > 0) (def = 15), POV speed (wh'
	DB	'en msl=0) (n > 0, max = 20) (def = 13)', 00H ; `string'
CONST	ENDS
;	COMDAT ??_C@_0L@FJKAIGID@mousespeed@
CONST	SEGMENT
??_C@_0L@FJKAIGID@mousespeed@ DB 'mousespeed', 00H	; `string'
CONST	ENDS
;	COMDAT ??_C@_04GECKKMBN@msls@
CONST	SEGMENT
??_C@_04GECKKMBN@msls@ DB 'msls', 00H			; `string'
CONST	ENDS
;	COMDAT ??_C@_0GJ@HAAHGLIG@activates?5mouselook?5?$CIand?5TrackI@
CONST	SEGMENT
??_C@_0GJ@HAAHGLIG@activates?5mouselook?5?$CIand?5TrackI@ DB 'activates m'
	DB	'ouselook (and TrackIR when present) (0 = off, 1 = internal, 2'
	DB	' = external, 3 = both) (def = 0)', 00H	; `string'
CONST	ENDS
;	COMDAT ??_C@_09CALKNOPP@mouselook@
CONST	SEGMENT
??_C@_09CALKNOPP@mouselook@ DB 'mouselook', 00H		; `string'
CONST	ENDS
;	COMDAT ??_C@_03IIAIPNJP@msl@
CONST	SEGMENT
??_C@_03IIAIPNJP@msl@ DB 'msl', 00H			; `string'
CONST	ENDS
;	COMDAT ??_C@_0FB@ILIOBNLB@reversed?5pedal?5input?5?$CI0?5?$DN?5off?1b@
CONST	SEGMENT
??_C@_0FB@ILIOBNLB@reversed?5pedal?5input?5?$CI0?5?$DN?5off?1b@ DB 'rever'
	DB	'sed pedal input (0 = off/blue force/USA, 1 = on/red force/Rus'
	DB	'sia) (def = 0)', 00H			; `string'
CONST	ENDS
;	COMDAT ??_C@_0O@MEIAALND@reverse_pedal@
CONST	SEGMENT
??_C@_0O@MEIAALND@reverse_pedal@ DB 'reverse_pedal', 00H ; `string'
CONST	ENDS
;	COMDAT ??_C@_0FN@GCICPGGK@collective?5percentage?5at?5zone1?4@
CONST	SEGMENT
??_C@_0FN@GCICPGGK@collective?5percentage?5at?5zone1?4@ DB 'collective pe'
	DB	'rcentage at zone1. Valid values are in range from 1.0 to 99.0'
	DB	', default is 60.0.', 00H			; `string'
CONST	ENDS
;	COMDAT ??_C@_0CJ@PDMOBHOO@nonlinear?9collective?9percentage@
CONST	SEGMENT
??_C@_0CJ@PDMOBHOO@nonlinear?9collective?9percentage@ DB 'nonlinear-colle'
	DB	'ctive-percentage-at-zone1', 00H		; `string'
CONST	ENDS
;	COMDAT ??_C@_0KH@CJDCAKGJ@non?9linear?5control?5value?5for?5th@
CONST	SEGMENT
??_C@_0KH@CJDCAKGJ@non?9linear?5control?5value?5for?5th@ DB 'non-linear c'
	DB	'ontrol value for throttle (n = % throttle position joystick t'
	DB	'o represents 100% collective) (10% = 0.1) (0.0 = off (linear '
	DB	'control), 1.2 = max) (def = 0.7)', 00H	; `string'
CONST	ENDS
;	COMDAT ??_C@_0BL@BKODMBBO@nonlinear?9collective?9zone2@
CONST	SEGMENT
??_C@_0BL@BKODMBBO@nonlinear?9collective?9zone2@ DB 'nonlinear-collective'
	DB	'-zone2', 00H				; `string'
CONST	ENDS
;	COMDAT ??_C@_0KH@IFEGBILA@non?9linear?5control?5value?5for?5th@
CONST	SEGMENT
??_C@_0KH@IFEGBILA@non?9linear?5control?5value?5for?5th@ DB 'non-linear c'
	DB	'ontrol value for throttle (n = % throttle position joystick t'
	DB	'o represents  60% collective) (10% = 0.1) (0.0 = off (linear '
	DB	'control), 1.0 = max) (def = 0.3)', 00H	; `string'
CONST	ENDS
;	COMDAT ??_C@_0BL@DBMOJCNN@nonlinear?9collective?9zone1@
CONST	SEGMENT
??_C@_0BL@DBMOJCNN@nonlinear?9collective?9zone1@ DB 'nonlinear-collective'
	DB	'-zone1', 00H				; `string'
CONST	ENDS
;	COMDAT ??_C@_0FN@JKNFEPJN@use?5non?9linear?5control?5for?5peda@
CONST	SEGMENT
??_C@_0FN@JKNFEPJN@use?5non?9linear?5control?5for?5peda@ DB 'use non-line'
	DB	'ar control for pedals (less sensitive around center) (0 = off'
	DB	', 1 = on) (def = 1)', 00H			; `string'
CONST	ENDS
;	COMDAT ??_C@_0BB@EPDMLJON@nonlinear?9pedals@
CONST	SEGMENT
??_C@_0BB@EPDMLJON@nonlinear?9pedals@ DB 'nonlinear-pedals', 00H ; `string'
CONST	ENDS
;	COMDAT ??_C@_0FN@FMBMEKCK@use?5non?9linear?5control?5for?5cycl@
CONST	SEGMENT
??_C@_0FN@FMBMEKCK@use?5non?9linear?5control?5for?5cycl@ DB 'use non-line'
	DB	'ar control for cyclic (less sensitive around center) (0 = off'
	DB	', 1 = on) (def = 1)', 00H			; `string'
CONST	ENDS
;	COMDAT ??_C@_0BB@GBFNCJCJ@nonlinear?9cyclic@
CONST	SEGMENT
??_C@_0BB@GBFNCJCJ@nonlinear?9cyclic@ DB 'nonlinear-cyclic', 00H ; `string'
CONST	ENDS
;	COMDAT ??_C@_0DD@EPGLDAEM@joystick?5look?5step?5?$CI1?5?$DN?5min?0?510@
CONST	SEGMENT
??_C@_0DD@EPGLDAEM@joystick?5look?5step?5?$CI1?5?$DN?5min?0?510@ DB 'joys'
	DB	'tick look step (1 = min, 100 = max) (def = 30)', 00H ; `string'
CONST	ENDS
;	COMDAT ??_C@_0N@BFCBPNEC@joylook_step@
CONST	SEGMENT
??_C@_0N@BFCBPNEC@joylook_step@ DB 'joylook_step', 00H	; `string'
CONST	ENDS
;	COMDAT ??_C@_09LFGAKGIF@joylookst@
CONST	SEGMENT
??_C@_09LFGAKGIF@joylookst@ DB 'joylookst', 00H		; `string'
CONST	ENDS
;	COMDAT ??_C@_0DG@KIMHBEKG@joystick?5DirectX?5axis?5used?5for?5@
CONST	SEGMENT
??_C@_0DG@KIMHBEKG@joystick?5DirectX?5axis?5used?5for?5@ DB 'joystick Dir'
	DB	'ectX axis used for vertical joystick look', 00H ; `string'
CONST	ENDS
;	COMDAT ??_C@_0BH@PLAFNKON@joylookv_joystick_axis@
CONST	SEGMENT
??_C@_0BH@PLAFNKON@joylookv_joystick_axis@ DB 'joylookv_joystick_axis', 00H ; `string'
CONST	ENDS
;	COMDAT ??_C@_08JKHGPFNN@joylookv@
CONST	SEGMENT
??_C@_08JKHGPFNN@joylookv@ DB 'joylookv', 00H		; `string'
CONST	ENDS
;	COMDAT ??_C@_0DI@LPAPNLPI@joystick?5DirectX?5axis?5used?5for?5@
CONST	SEGMENT
??_C@_0DI@LPAPNLPI@joystick?5DirectX?5axis?5used?5for?5@ DB 'joystick Dir'
	DB	'ectX axis used for horizontal joystick look', 00H ; `string'
CONST	ENDS
;	COMDAT ??_C@_0BH@DNKABCNI@joylookh_joystick_axis@
CONST	SEGMENT
??_C@_0BH@DNKABCNI@joylookh_joystick_axis@ DB 'joylookh_joystick_axis', 00H ; `string'
CONST	ENDS
;	COMDAT ??_C@_08EODHMKAC@joylookh@
CONST	SEGMENT
??_C@_08EODHMKAC@joylookh@ DB 'joylookh', 00H		; `string'
CONST	ENDS
;	COMDAT ??_C@_0CE@KPEBEKLI@joystick?5no?4?5used?5for?5joystick?5@
CONST	SEGMENT
??_C@_0CE@KPEBEKLI@joystick?5no?4?5used?5for?5joystick?5@ DB 'joystick no'
	DB	'. used for joystick look', 00H		; `string'
CONST	ENDS
;	COMDAT ??_C@_0BH@GODBHLDM@joylookn_joystick_axis@
CONST	SEGMENT
??_C@_0BH@GODBHLDM@joylookn_joystick_axis@ DB 'joylookn_joystick_axis', 00H ; `string'
CONST	ENDS
;	COMDAT ??_C@_08BIGNGNIE@joylookn@
CONST	SEGMENT
??_C@_08BIGNGNIE@joylookn@ DB 'joylookn', 00H		; `string'
CONST	ENDS
;	COMDAT ??_C@_0CF@IFGNKENI@Joystick?5DirectX?5axis?5for?5the?5r@
CONST	SEGMENT
??_C@_0CF@IFGNKENI@Joystick?5DirectX?5axis?5for?5the?5r@ DB 'Joystick Dir'
	DB	'ectX axis for the rudder', 00H		; `string'
CONST	ENDS
;	COMDAT ??_C@_0BF@DIEJIGBG@rudder_joystick_axis@
CONST	SEGMENT
??_C@_0BF@DIEJIGBG@rudder_joystick_axis@ DB 'rudder_joystick_axis', 00H ; `string'
CONST	ENDS
;	COMDAT ??_C@_08PBJIHIIP@rudderax@
CONST	SEGMENT
??_C@_08PBJIHIIP@rudderax@ DB 'rudderax', 00H		; `string'
CONST	ENDS
;	COMDAT ??_C@_0BM@PPANBMO@Joystick?5no?4?5for?5the?5rudder@
CONST	SEGMENT
??_C@_0BM@PPANBMO@Joystick?5no?4?5for?5the?5rudder@ DB 'Joystick no. for '
	DB	'the rudder', 00H				; `string'
CONST	ENDS
;	COMDAT ??_C@_0BG@PKDIOIHJ@rudder_joystick_index@
CONST	SEGMENT
??_C@_0BG@PKDIOIHJ@rudder_joystick_index@ DB 'rudder_joystick_index', 00H ; `string'
CONST	ENDS
;	COMDAT ??_C@_07JFNMCIBA@ruddern@
CONST	SEGMENT
??_C@_07JFNMCIBA@ruddern@ DB 'ruddern', 00H		; `string'
CONST	ENDS
;	COMDAT ??_C@_0CJ@PKPHONOH@Joystick?5DirectX?5acis?5for?5the?5c@
CONST	SEGMENT
??_C@_0CJ@PKPHONOH@Joystick?5DirectX?5acis?5for?5the?5c@ DB 'Joystick Dir'
	DB	'ectX acis for the collective', 00H		; `string'
CONST	ENDS
;	COMDAT ??_C@_0BJ@MMJAIAMM@collective_joystick_axis@
CONST	SEGMENT
??_C@_0BJ@MMJAIAMM@collective_joystick_axis@ DB 'collective_joystick_axis'
	DB	00H						; `string'
CONST	ENDS
;	COMDAT ??_C@_0N@CDLEJFDL@collectiveax@
CONST	SEGMENT
??_C@_0N@CDLEJFDL@collectiveax@ DB 'collectiveax', 00H	; `string'
CONST	ENDS
;	COMDAT ??_C@_0CA@GDBDCNCB@Joystick?5no?4?5for?5the?5collective@
CONST	SEGMENT
??_C@_0CA@GDBDCNCB@Joystick?5no?4?5for?5the?5collective@ DB 'Joystick no.'
	DB	' for the collective', 00H			; `string'
CONST	ENDS
;	COMDAT ??_C@_0BK@JMMKAKLF@collective_joystick_index@
CONST	SEGMENT
??_C@_0BK@JMMKAKLF@collective_joystick_index@ DB 'collective_joystick_ind'
	DB	'ex', 00H					; `string'
CONST	ENDS
;	COMDAT ??_C@_0M@LELEGBDG@collectiven@
CONST	SEGMENT
??_C@_0M@LELEGBDG@collectiven@ DB 'collectiven', 00H	; `string'
CONST	ENDS
;	COMDAT ??_C@_0CK@MHDEGCPA@Joystick?5DirectX?5axis?5for?5cycli@
CONST	SEGMENT
??_C@_0CK@MHDEGCPA@Joystick?5DirectX?5axis?5for?5cycli@ DB 'Joystick Dire'
	DB	'ctX axis for cyclic vertical', 00H		; `string'
CONST	ENDS
;	COMDAT ??_C@_0BH@FIFJCJBK@cyclic_joystick_y_axis@
CONST	SEGMENT
??_C@_0BH@FIFJCJBK@cyclic_joystick_y_axis@ DB 'cyclic_joystick_y_axis', 00H ; `string'
CONST	ENDS
;	COMDAT ??_C@_07BKDBOGAO@cyclicv@
CONST	SEGMENT
??_C@_07BKDBOGAO@cyclicv@ DB 'cyclicv', 00H		; `string'
CONST	ENDS
;	COMDAT ??_C@_0CM@NEIFGDG@Joystick?5DirectX?5axis?5for?5cycli@
CONST	SEGMENT
??_C@_0CM@NEIFGDG@Joystick?5DirectX?5axis?5for?5cycli@ DB 'Joystick Direc'
	DB	'tX axis for cyclic horizontal', 00H		; `string'
CONST	ENDS
;	COMDAT ??_C@_0BH@POCOCCKO@cyclic_joystick_x_axis@
CONST	SEGMENT
??_C@_0BH@POCOCCKO@cyclic_joystick_x_axis@ DB 'cyclic_joystick_x_axis', 00H ; `string'
CONST	ENDS
;	COMDAT ??_C@_07MOHANJNB@cyclich@
CONST	SEGMENT
??_C@_07MOHANJNB@cyclich@ DB 'cyclich', 00H		; `string'
CONST	ENDS
;	COMDAT ??_C@_0BL@IDANEPJP@Joystick?5number?5for?5cyclic@
CONST	SEGMENT
??_C@_0BL@IDANEPJP@Joystick?5number?5for?5cyclic@ DB 'Joystick number for'
	DB	' cyclic', 00H				; `string'
CONST	ENDS
;	COMDAT ??_C@_0BG@BHAHFLBH@cyclic_joystick_index@
CONST	SEGMENT
??_C@_0BG@BHAHFLBH@cyclic_joystick_index@ DB 'cyclic_joystick_index', 00H ; `string'
CONST	ENDS
;	COMDAT ??_C@_07JICKHOFH@cyclicn@
CONST	SEGMENT
??_C@_07JICKHOFH@cyclicn@ DB 'cyclicn', 00H		; `string'
CONST	ENDS
;	COMDAT ??_C@_0DM@MIPOMAI@joystick?5DirectX?5axis?5for?5field@
CONST	SEGMENT
??_C@_0DM@MIPOMAI@joystick?5DirectX?5axis?5for?5field@ DB 'joystick Direc'
	DB	'tX axis for field of view (zoom) of main view', 00H ; `string'
CONST	ENDS
;	COMDAT ??_C@_0BA@DLOEDBPK@field_of_viewax@
CONST	SEGMENT
??_C@_0BA@DLOEDBPK@field_of_viewax@ DB 'field_of_viewax', 00H ; `string'
CONST	ENDS
;	COMDAT ??_C@_0DG@KMIKPFDP@joystick?5number?5for?5field?5of?5vi@
CONST	SEGMENT
??_C@_0DG@KMIKPFDP@joystick?5number?5for?5field?5of?5vi@ DB 'joystick num'
	DB	'ber for field of view (zoom) of main view', 00H ; `string'
CONST	ENDS
;	COMDAT ??_C@_0P@FDFHNHOB@field_of_viewn@
CONST	SEGMENT
??_C@_0P@FDFHNHOB@field_of_viewn@ DB 'field_of_viewn', 00H ; `string'
CONST	ENDS
;	COMDAT ??_C@_0CM@HKHCGLOI@joystick?5DirectX?5axis?5for?5EO?9ca@
CONST	SEGMENT
??_C@_0CM@HKHCGLOI@joystick?5DirectX?5axis?5for?5EO?9ca@ DB 'joystick Dir'
	DB	'ectX axis for EO-camera zooming', 00H	; `string'
CONST	ENDS
;	COMDAT ??_C@_0BD@KLANKCGC@zoom_joystick_axis@
CONST	SEGMENT
??_C@_0BD@KLANKCGC@zoom_joystick_axis@ DB 'zoom_joystick_axis', 00H ; `string'
CONST	ENDS
;	COMDAT ??_C@_08MLKODCOM@eozoomax@
CONST	SEGMENT
??_C@_08MLKODCOM@eozoomax@ DB 'eozoomax', 00H		; `string'
CONST	ENDS
;	COMDAT ??_C@_0CG@LLFIBEBJ@joystick?5number?5for?5EO?9camera?5z@
CONST	SEGMENT
??_C@_0CG@LLFIBEBJ@joystick?5number?5for?5EO?9camera?5z@ DB 'joystick num'
	DB	'ber for EO-camera zooming', 00H		; `string'
CONST	ENDS
;	COMDAT ??_C@_0BE@KNMDBJHI@zoom_joystick_index@
CONST	SEGMENT
??_C@_0BE@KNMDBJHI@zoom_joystick_index@ DB 'zoom_joystick_index', 00H ; `string'
CONST	ENDS
;	COMDAT ??_C@_07BGMHIFHB@eozoomn@
CONST	SEGMENT
??_C@_07BGMHIFHB@eozoomn@ DB 'eozoomn', 00H		; `string'
CONST	ENDS
;	COMDAT ??_C@_0DH@INMMIKEC@joystick?5DirectX?5axis?5for?5horiz@
CONST	SEGMENT
??_C@_0DH@INMMIKEC@joystick?5DirectX?5axis?5for?5horiz@ DB 'joystick Dire'
	DB	'ctX axis for horizontal EO-camera panning', 00H ; `string'
CONST	ENDS
;	COMDAT ??_C@_0BN@COCCDGCP@pan_joystick_horizontal_axis@
CONST	SEGMENT
??_C@_0BN@COCCDGCP@pan_joystick_horizontal_axis@ DB 'pan_joystick_horizon'
	DB	'tal_axis', 00H				; `string'
CONST	ENDS
;	COMDAT ??_C@_06NHJKIJGA@eopanh@
CONST	SEGMENT
??_C@_06NHJKIJGA@eopanh@ DB 'eopanh', 00H		; `string'
CONST	ENDS
;	COMDAT ??_C@_0DF@NHPBMGBM@joystick?5DirectX?5axis?5for?5verti@
CONST	SEGMENT
??_C@_0DF@NHPBMGBM@joystick?5DirectX?5axis?5for?5verti@ DB 'joystick Dire'
	DB	'ctX axis for vertical EO-camera panning', 00H ; `string'
CONST	ENDS
;	COMDAT ??_C@_0BL@EFCCBIKB@pan_joystick_vertical_axis@
CONST	SEGMENT
??_C@_0BL@EFCCBIKB@pan_joystick_vertical_axis@ DB 'pan_joystick_vertical_'
	DB	'axis', 00H					; `string'
CONST	ENDS
;	COMDAT ??_C@_06DNLLGLP@eopanv@
CONST	SEGMENT
??_C@_06DNLLGLP@eopanv@ DB 'eopanv', 00H		; `string'
CONST	ENDS
;	COMDAT ??_C@_0CG@PGFLNKPJ@joystick?5number?5for?5EO?9camera?5p@
CONST	SEGMENT
??_C@_0CG@PGFLNKPJ@joystick?5number?5for?5EO?9camera?5p@ DB 'joystick num'
	DB	'ber for EO-camera panning', 00H		; `string'
CONST	ENDS
;	COMDAT ??_C@_0BD@PKKDFEFF@pan_joystick_index@
CONST	SEGMENT
??_C@_0BD@PKKDFEFF@pan_joystick_index@ DB 'pan_joystick_index', 00H ; `string'
CONST	ENDS
;	COMDAT ??_C@_06IBMACOOG@eopann@
CONST	SEGMENT
??_C@_06IBMACOOG@eopann@ DB 'eopann', 00H		; `string'
CONST	ENDS
;	COMDAT ??_C@_0BI@KLJLJDMI@?$FLJoysticks?5and?5TrackIR?$FN@
CONST	SEGMENT
??_C@_0BI@KLJLJDMI@?$FLJoysticks?5and?5TrackIR?$FN@ DB '[Joysticks and Tr'
	DB	'ackIR]', 00H				; `string'
CONST	ENDS
;	COMDAT ??_C@_0DL@PLNPPPCO@Co?9pilot?5will?5report?5targets?5he@
CONST	SEGMENT
??_C@_0DL@PLNPPPCO@Co?9pilot?5will?5report?5targets?5he@ DB 'Co-pilot wil'
	DB	'l report targets he finds, and add them to TSD', 00H ; `string'
CONST	ENDS
;	COMDAT ??_C@_0BJ@CGJHOAFI@co_pilot_reports_targets@
CONST	SEGMENT
??_C@_0BJ@CGJHOAFI@co_pilot_reports_targets@ DB 'co_pilot_reports_targets'
	DB	00H						; `string'
CONST	ENDS
;	COMDAT ??_C@_0FC@DCPHENLK@allows?5mouse?5control?5of?5TSD?5?$CIAp@
CONST	SEGMENT
??_C@_0FC@DCPHENLK@allows?5mouse?5control?5of?5TSD?5?$CIAp@ DB 'allows mo'
	DB	'use control of TSD (Apache only) for selecting targets and cr'
	DB	'eating PFZs', 00H				; `string'
CONST	ENDS
;	COMDAT ??_C@_0BC@DLNKPBFP@TSD_mouse_control@
CONST	SEGMENT
??_C@_0BC@DLNKPBFP@TSD_mouse_control@ DB 'TSD_mouse_control', 00H ; `string'
CONST	ENDS
;	COMDAT ??_C@_0DL@KEOOCHBA@switch?5to?5pilot?5seat?5when?5deact@
CONST	SEGMENT
??_C@_0DL@KEOOCHBA@switch?5to?5pilot?5seat?5when?5deact@ DB 'switch to pi'
	DB	'lot seat when deactivating periscope = 0 (off)', 00H ; `string'
CONST	ENDS
;	COMDAT ??_C@_0CE@IKOHFPMG@autoreturn_to_pilot_after_peris@
CONST	SEGMENT
??_C@_0CE@IKOHFPMG@autoreturn_to_pilot_after_peris@ DB 'autoreturn_to_pil'
	DB	'ot_after_periscope', 00H			; `string'
CONST	ENDS
;	COMDAT ??_C@_0DJ@JJEACMLF@stay?5in?5pilot?5seat?5when?5switchi@
CONST	SEGMENT
??_C@_0DJ@JJEACMLF@stay?5in?5pilot?5seat?5when?5switchi@ DB 'stay in pilo'
	DB	't seat when switching to periscope = 0 (off)', 00H ; `string'
CONST	ENDS
;	COMDAT ??_C@_0BL@BLLFNBOC@pilot_as_periscope_default@
CONST	SEGMENT
??_C@_0BL@BLLFNBOC@pilot_as_periscope_default@ DB 'pilot_as_periscope_def'
	DB	'ault', 00H					; `string'
CONST	ENDS
;	COMDAT ??_C@_0DB@NPNFEFCA@unpadlock?5on?5handover?5from?5HMS?5@
CONST	SEGMENT
??_C@_0DB@NPNFEFCA@unpadlock?5on?5handover?5from?5HMS?5@ DB 'unpadlock on'
	DB	' handover from HMS to TADS = 0 (off)', 00H	; `string'
CONST	ENDS
;	COMDAT ??_C@_0BG@JCBELDHN@unpadlock_on_handover@
CONST	SEGMENT
??_C@_0BG@JCBELDHN@unpadlock_on_handover@ DB 'unpadlock_on_handover', 00H ; `string'
CONST	ENDS
;	COMDAT ??_C@_0HD@BPKIDJAK@cannon?5tracking?5boresight?5?$CI0?5?$DN?5@
CONST	SEGMENT
??_C@_0HD@BPKIDJAK@cannon?5tracking?5boresight?5?$CI0?5?$DN?5@ DB 'cannon'
	DB	' tracking boresight (0 = no tracking, 1 = track if no acquire'
	DB	', 2 = always track IHADSS/HIDSS/HMS) (def = 1) ', 00H ; `string'
CONST	ENDS
;	COMDAT ??_C@_0M@JPNCIOMB@cannontrack@
CONST	SEGMENT
??_C@_0M@JPNCIOMB@cannontrack@ DB 'cannontrack', 00H	; `string'
CONST	ENDS
;	COMDAT ??_C@_0DD@OFMMBFPJ@designated?5target?5list?5?$CI0?5?$DN?5off@
CONST	SEGMENT
??_C@_0DD@OFMMBFPJ@designated?5target?5list?5?$CI0?5?$DN?5off@ DB 'design'
	DB	'ated target list (0 = off, 1 = on) (def = 0)', 00H ; `string'
CONST	ENDS
;	COMDAT ??_C@_0BD@HKDDBFKE@designated_targets@
CONST	SEGMENT
??_C@_0BD@HKDDBFKE@designated_targets@ DB 'designated_targets', 00H ; `string'
CONST	ENDS
;	COMDAT ??_C@_06BJLHBKBN@destgt@
CONST	SEGMENT
??_C@_06BJLHBKBN@destgt@ DB 'destgt', 00H		; `string'
CONST	ENDS
;	COMDAT ??_C@_0KH@OCFKFNPN@generate?5log?5for?5tacview?5?$CI0?5?$DN?5o@
CONST	SEGMENT
??_C@_0KH@OCFKFNPN@generate?5log?5for?5tacview?5?$CI0?5?$DN?5o@ DB 'gener'
	DB	'ate log for tacview (0 = off, 1 = generate log for mission wi'
	DB	'th fog of war, 2 = generate log for mission, all units visibl'
	DB	'e, 3 = generate log for entire campaing', 00H ; `string'
CONST	ENDS
;	COMDAT ??_C@_0BA@MOPPBOLF@tacview_logging@
CONST	SEGMENT
??_C@_0BA@MOPPBOLF@tacview_logging@ DB 'tacview_logging', 00H ; `string'
CONST	ENDS
;	COMDAT ??_C@_0DC@MADJFCLC@enemy?5units?5update?5rate?5?$CIn?5?$DN?5se@
CONST	SEGMENT
??_C@_0DC@MADJFCLC@enemy?5units?5update?5rate?5?$CIn?5?$DN?5se@ DB 'enemy'
	DB	' units update rate (n = seconds) (def = 120)', 00H ; `string'
CONST	ENDS
;	COMDAT ??_C@_0BE@DOPBPDI@map_update_interval@
CONST	SEGMENT
??_C@_0BE@DOPBPDI@map_update_interval@ DB 'map_update_interval', 00H ; `string'
CONST	ENDS
;	COMDAT ??_C@_0EA@CEHCNMNG@campaign?5map?5palette?5?5?5?5?$CI1?5?$DN?5de@
CONST	SEGMENT
??_C@_0EA@CEHCNMNG@campaign?5map?5palette?5?5?5?5?$CI1?5?$DN?5de@ DB 'cam'
	DB	'paign map palette    (1 = default shades, 2 = like paper map', 00H ; `string'
CONST	ENDS
;	COMDAT ??_C@_0BF@KFMFEOPH@campaign_map_palette@
CONST	SEGMENT
??_C@_0BF@KFMFEOPH@campaign_map_palette@ DB 'campaign_map_palette', 00H ; `string'
CONST	ENDS
;	COMDAT ??_C@_0FA@MGADLEHI@campaign?5map?5resolution?5?$CI1?5?$DN?5de@
CONST	SEGMENT
??_C@_0FA@MGADLEHI@campaign?5map?5resolution?5?$CI1?5?$DN?5de@ DB 'campai'
	DB	'gn map resolution (1 = default resolution, 2 = high resolutio'
	DB	'n) (def = 1)', 00H				; `string'
CONST	ENDS
;	COMDAT ??_C@_0BC@CMBAPDEC@campaign_map_mode@
CONST	SEGMENT
??_C@_0BC@CMBAPDEC@campaign_map_mode@ DB 'campaign_map_mode', 00H ; `string'
CONST	ENDS
;	COMDAT ??_C@_0CP@CDBFPP@Campaign?5Commander?5?$CI0?5?$DN?5off?0?51?5@
CONST	SEGMENT
??_C@_0CP@CDBFPP@Campaign?5Commander?5?$CI0?5?$DN?5off?0?51?5@ DB 'Campai'
	DB	'gn Commander (0 = off, 1 = on) (def = 0)', 00H ; `string'
CONST	ENDS
;	COMDAT ??_C@_06MAIMNIOA@camcom@
CONST	SEGMENT
??_C@_06MAIMNIOA@camcom@ DB 'camcom', 00H		; `string'
CONST	ENDS
;	COMDAT ??_C@_0EJ@GGKHAOLD@autoswitch?5MFD?5to?5according?5tar@
CONST	SEGMENT
??_C@_0EJ@GGKHAOLD@autoswitch?5MFD?5to?5according?5tar@ DB 'autoswitch MF'
	DB	'D to according targeting system (0 = off, 1 = on) (def = 1)', 00H ; `string'
CONST	ENDS
;	COMDAT ??_C@_0BL@FJNALLLC@targeting_system_auto_page@
CONST	SEGMENT
??_C@_0BL@FJNALLLC@targeting_system_auto_page@ DB 'targeting_system_auto_'
	DB	'page', 00H					; `string'
CONST	ENDS
;	COMDAT ??_C@_0DN@IGEAHAGL@operate?5radar?5and?5laser?5manuall@
CONST	SEGMENT
??_C@_0DN@IGEAHAGL@operate?5radar?5and?5laser?5manuall@ DB 'operate radar'
	DB	' and laser manually (0 = off, 1 = on) (def = 0)', 00H ; `string'
CONST	ENDS
;	COMDAT ??_C@_0BD@BLKAFEEM@manual_laser_radar@
CONST	SEGMENT
??_C@_0BD@BLKAFEEM@manual_laser_radar@ DB 'manual_laser_radar', 00H ; `string'
CONST	ENDS
;	COMDAT ??_C@_0BD@PHMIIEGH@manual_laser?1radar@
CONST	SEGMENT
??_C@_0BD@PHMIIEGH@manual_laser?1radar@ DB 'manual_laser/radar', 00H ; `string'
CONST	ENDS
;	COMDAT ??_C@_0DJ@OKFHJIAD@ground?5stabilisation?5of?5FLIR?5?$CI0@
CONST	SEGMENT
??_C@_0DJ@OKFHJIAD@ground?5stabilisation?5of?5FLIR?5?$CI0@ DB 'ground sta'
	DB	'bilisation of FLIR (0 = off, 1 = on) (def = 1)', 00H ; `string'
CONST	ENDS
;	COMDAT ??_C@_0BM@NIKGCAML@enable_ground_stabilisation@
CONST	SEGMENT
??_C@_0BM@NIKGCAML@enable_ground_stabilisation@ DB 'enable_ground_stabili'
	DB	'sation', 00H				; `string'
CONST	ENDS
;	COMDAT ??_C@_06COJJPLMG@grstab@
CONST	SEGMENT
??_C@_06COJJPLMG@grstab@ DB 'grstab', 00H		; `string'
CONST	ENDS
;	COMDAT ??_C@_0EJ@EFKABEBC@infantry?5invisible?5and?5undetect@
CONST	SEGMENT
??_C@_0EJ@EFKABEBC@infantry?5invisible?5and?5undetect@ DB 'infantry invis'
	DB	'ible and undetectable by radar (0 = off, 1 = on) (def = 1)', 00H ; `string'
CONST	ENDS
;	COMDAT ??_C@_0BD@CDBNNICF@invisible_infantry@
CONST	SEGMENT
??_C@_0BD@CDBNNICF@invisible_infantry@ DB 'invisible_infantry', 00H ; `string'
CONST	ENDS
;	COMDAT ??_C@_08NDGBDFAD@radarinf@
CONST	SEGMENT
??_C@_08NDGBDFAD@radarinf@ DB 'radarinf', 00H		; `string'
CONST	ENDS
;	COMDAT ??_C@_0CN@HMOAPFLJ@fly?5any?5aircraft?5?$CI0?5?$DN?5off?0?51?5?$DN?5@
CONST	SEGMENT
??_C@_0CN@HMOAPFLJ@fly?5any?5aircraft?5?$CI0?5?$DN?5off?0?51?5?$DN?5@ DB 'f'
	DB	'ly any aircraft (0 = off, 1 = on) (def = 1)', 00H ; `string'
CONST	ENDS
;	COMDAT ??_C@_03PFAFHDMN@faa@
CONST	SEGMENT
??_C@_03PFAFHDMN@faa@ DB 'faa', 00H			; `string'
CONST	ENDS
;	COMDAT ??_C@_0EC@BCJIFNOL@User?5invulnerable?5time?5at?5missi@
CONST	SEGMENT
??_C@_0EC@BCJIFNOL@User?5invulnerable?5time?5at?5missi@ DB 'User invulner'
	DB	'able time at mission start (n = seconds) (def = 5.0)', 00H ; `string'
CONST	ENDS
;	COMDAT ??_C@_0BH@BJFMLMJJ@user_invulnerable_time@
CONST	SEGMENT
??_C@_0BH@BJFMLMJJ@user_invulnerable_time@ DB 'user_invulnerable_time', 00H ; `string'
CONST	ENDS
;	COMDAT ??_C@_03IOAPDMBA@uit@
CONST	SEGMENT
??_C@_03IOAPDMBA@uit@ DB 'uit', 00H			; `string'
CONST	ENDS
;	COMDAT ??_C@_0FC@BEJPCIKE@Capture?5and?5utilize?5aircraft?5la@
CONST	SEGMENT
??_C@_0FC@BEJPCIKE@Capture?5and?5utilize?5aircraft?5la@ DB 'Capture and u'
	DB	'tilize aircraft landed at captured bases (0 = off, 1 = on) (d'
	DB	'ef = 1)', 00H				; `string'
CONST	ENDS
;	COMDAT ??_C@_0BB@EEFHFEH@capture_aircraft@
CONST	SEGMENT
??_C@_0BB@EEFHFEH@capture_aircraft@ DB 'capture_aircraft', 00H ; `string'
CONST	ENDS
;	COMDAT ??_C@_04ILLFDMJA@cpac@
CONST	SEGMENT
??_C@_04ILLFDMJA@cpac@ DB 'cpac', 00H			; `string'
CONST	ENDS
;	COMDAT ??_C@_0EK@EHPEGEPN@sets?5reshroud?5time?5for?5?$CCfog?5of?5@
CONST	SEGMENT
??_C@_0EK@EHPEGEPN@sets?5reshroud?5time?5for?5?$CCfog?5of?5@ DB 'sets res'
	DB	'hroud time for "fog of war" (n = seconds) (def = 14400 (4 hou'
	DB	'rs))', 00H					; `string'
CONST	ENDS
;	COMDAT ??_C@_03KJMBPJEB@fog@
CONST	SEGMENT
??_C@_03KJMBPJEB@fog@ DB 'fog', 00H			; `string'
CONST	ENDS
;	COMDAT ??_C@_0FL@FHBNIBAL@effectiveness?5of?5smoke?5?5?$CI0?40?5?9?5@
CONST	SEGMENT
??_C@_0FL@FHBNIBAL@effectiveness?5of?5smoke?5?5?$CI0?40?5?9?5@ DB 'effect'
	DB	'iveness of smoke  (0.0 - 1.0) (0.0 = ineffective, 1.0 = fully'
	DB	' effective) (def = 1.0)', 00H		; `string'
CONST	ENDS
;	COMDAT ??_C@_05JNGEMOLJ@smoke@
CONST	SEGMENT
??_C@_05JNGEMOLJ@smoke@ DB 'smoke', 00H			; `string'
CONST	ENDS
;	COMDAT ??_C@_0FL@PPOAIANF@effectiveness?5of?5flares?5?$CI0?40?5?9?5@
CONST	SEGMENT
??_C@_0FL@PPOAIANF@effectiveness?5of?5flares?5?$CI0?40?5?9?5@ DB 'effecti'
	DB	'veness of flares (0.0 - 1.0) (0.0 = ineffective, 1.0 = fully '
	DB	'effective) (def = 1.0)', 00H		; `string'
CONST	ENDS
;	COMDAT ??_C@_05DHJLON@flare@
CONST	SEGMENT
??_C@_05DHJLON@flare@ DB 'flare', 00H			; `string'
CONST	ENDS
;	COMDAT ??_C@_0FL@MMENOFOI@effectiveness?5of?5chaff?5?5?$CI0?40?5?9?5@
CONST	SEGMENT
??_C@_0FL@MMENOFOI@effectiveness?5of?5chaff?5?5?$CI0?40?5?9?5@ DB 'effect'
	DB	'iveness of chaff  (0.0 - 1.0) (0.0 = ineffective, 1.0 = fully'
	DB	' effective) (def = 1.0)', 00H		; `string'
CONST	ENDS
;	COMDAT ??_C@_05JFHIPEPB@chaff@
CONST	SEGMENT
??_C@_05JFHIPEPB@chaff@ DB 'chaff', 00H			; `string'
CONST	ENDS
;	COMDAT ??_C@_0L@OKLGDMEI@?$FLGameplay?$FN@
CONST	SEGMENT
??_C@_0L@OKLGDMEI@?$FLGameplay?$FN@ DB '[Gameplay]', 00H ; `string'
CONST	ENDS
;	COMDAT ??_C@_0CO@NKHBJGPE@Weapons?5and?5Unit?5Tweaking?5file?5@
CONST	SEGMENT
??_C@_0CO@NKHBJGPE@Weapons?5and?5Unit?5Tweaking?5file?5@ DB 'Weapons and '
	DB	'Unit Tweaking file (n = filename)', 00H	; `string'
CONST	ENDS
;	COMDAT ??_C@_03DBDKKOIP@wut@
CONST	SEGMENT
??_C@_03DBDKKOIP@wut@ DB 'wut', 00H			; `string'
CONST	ENDS
;	COMDAT ??_C@_0EN@NCKODEOO@for?5more?5information?5see?5http?3?1@
CONST	SEGMENT
??_C@_0EN@NCKODEOO@for?5more?5information?5see?5http?3?1@ DB 'for more in'
	DB	'formation see http://www.eechcentral.com/wiki/index.php?title'
	DB	'=WUT', 00H					; `string'
CONST	ENDS
;	COMDAT ??_C@_05DKDEOPFG@?$FLWUT?$FN@
CONST	SEGMENT
??_C@_05DKDEOPFG@?$FLWUT?$FN@ DB '[WUT]', 00H		; `string'
CONST	ENDS
;	COMDAT ??_C@_02DAMOKLOI@28@
CONST	SEGMENT
??_C@_02DAMOKLOI@28@ DB '28', 00H			; `string'
CONST	ENDS
;	COMDAT ??_C@_0DL@HIJJNOIG@show?5force?5vectors?5on?5own?5helic@
CONST	SEGMENT
??_C@_0DL@HIJJNOIG@show?5force?5vectors?5on?5own?5helic@ DB 'show force v'
	DB	'ectors on own helicopter for debuging purposes', 00H ; `string'
CONST	ENDS
;	COMDAT ??_C@_0BJ@JOGKFDKA@debug_show_force_vectors@
CONST	SEGMENT
??_C@_0BJ@JOGKFDKA@debug_show_force_vectors@ DB 'debug_show_force_vectors'
	DB	00H						; `string'
CONST	ENDS
;	COMDAT ??_C@_0CC@LNMOOEB@yaw?5altitude?5loss?5?$CIdefault?5?$DN?55?4@
CONST	SEGMENT
??_C@_0CC@LNMOOEB@yaw?5altitude?5loss?5?$CIdefault?5?$DN?55?4@ DB 'yaw al'
	DB	'titude loss (default = 5.0)', 00H		; `string'
CONST	ENDS
;	COMDAT ??_C@_0BL@CFDKBCOJ@dynamics_yaw_altitude_loss@
CONST	SEGMENT
??_C@_0BL@CFDKBCOJ@dynamics_yaw_altitude_loss@ DB 'dynamics_yaw_altitude_'
	DB	'loss', 00H					; `string'
CONST	ENDS
;	COMDAT ??_C@_04MDAFLDMF@dyal@
CONST	SEGMENT
??_C@_04MDAFLDMF@dyal@ DB 'dyal', 00H			; `string'
CONST	ENDS
;	COMDAT ??_C@_0ED@MAELCIIG@cyclic?5deadzone?5?$CIn?5?$DN?5?$CFdeadzone?0@
CONST	SEGMENT
??_C@_0ED@MAELCIIG@cyclic?5deadzone?5?$CIn?5?$DN?5?$CFdeadzone?0@ DB 'cyc'
	DB	'lic deadzone (n = %deadzone, 0.0 = no deadzone) (default = 0.'
	DB	'0)', 00H					; `string'
CONST	ENDS
;	COMDAT ??_C@_0BK@KNJNEHOP@dynamics_cyclic_dead_zone@
CONST	SEGMENT
??_C@_0BK@KNJNEHOP@dynamics_cyclic_dead_zone@ DB 'dynamics_cyclic_dead_zo'
	DB	'ne', 00H					; `string'
CONST	ENDS
;	COMDAT ??_C@_03DCAIADJC@dzd@
CONST	SEGMENT
??_C@_03DCAIADJC@dzd@ DB 'dzd', 00H			; `string'
CONST	ENDS
;	COMDAT ??_C@_0FK@JMNKPOGO@tail?5rotor?5drag?0?5scaling?5factor@
CONST	SEGMENT
??_C@_0FK@JMNKPOGO@tail?5rotor?5drag?0?5scaling?5factor@ DB 'tail rotor d'
	DB	'rag, scaling factor for drag caused by tail in forward flight'
	DB	' (default = 1.0)', 00H			; `string'
CONST	ENDS
;	COMDAT ??_C@_0BJ@LEBIGBGN@dynamics_tail_rotor_drag@
CONST	SEGMENT
??_C@_0BJ@LEBIGBGN@dynamics_tail_rotor_drag@ DB 'dynamics_tail_rotor_drag'
	DB	00H						; `string'
CONST	ENDS
;	COMDAT ??_C@_04OHNGPMDJ@dtrd@
CONST	SEGMENT
??_C@_04OHNGPMDJ@dtrd@ DB 'dtrd', 00H			; `string'
CONST	ENDS
;	COMDAT ??_C@_0EH@EMJPICKD@main?5rotor?5lift?0?5scaling?5factor@
CONST	SEGMENT
??_C@_0EH@EMJPICKD@main?5rotor?5lift?0?5scaling?5factor@ DB 'main rotor l'
	DB	'ift, scaling factor for lift of main rotor (default = 1.0)', 00H ; `string'
CONST	ENDS
;	COMDAT ??_C@_0BJ@DMNACICO@dynamics_main_rotor_lift@
CONST	SEGMENT
??_C@_0BJ@DMNACICO@dynamics_main_rotor_lift@ DB 'dynamics_main_rotor_lift'
	DB	00H						; `string'
CONST	ENDS
;	COMDAT ??_C@_04CBOGOCE@dmrl@
CONST	SEGMENT
??_C@_04CBOGOCE@dmrl@ DB 'dmrl', 00H			; `string'
CONST	ENDS
;	COMDAT ??_C@_0EO@NMEKFOPK@main?5rotor?5drag?0?5scaling?5factor@
CONST	SEGMENT
??_C@_0EO@NMEKFOPK@main?5rotor?5drag?0?5scaling?5factor@ DB 'main rotor d'
	DB	'rag, scaling factor for drag caused by main rotor (default = '
	DB	'1.0)', 00H					; `string'
CONST	ENDS
;	COMDAT ??_C@_0BE@OKOFONBC@dynamics_rotor_drag@
CONST	SEGMENT
??_C@_0BE@OKOFONBC@dynamics_rotor_drag@ DB 'dynamics_rotor_drag', 00H ; `string'
CONST	ENDS
;	COMDAT ??_C@_03DMBLFCCK@drd@
CONST	SEGMENT
??_C@_03DMBLFCCK@drd@ DB 'drd', 00H			; `string'
CONST	ENDS
;	COMDAT ??_C@_0FD@HJCIKKMM@rudder?5acceleration?0?5scaling?5fa@
CONST	SEGMENT
??_C@_0FD@HJCIKKMM@rudder?5acceleration?0?5scaling?5fa@ DB 'rudder accele'
	DB	'ration, scaling factor for tail rotation acceleration (defaul'
	DB	't = 0.8)', 00H				; `string'
CONST	ENDS
;	COMDAT ??_C@_0BN@IEKGLFC@dynamics_rudder_acceleration@
CONST	SEGMENT
??_C@_0BN@IEKGLFC@dynamics_rudder_acceleration@ DB 'dynamics_rudder_accel'
	DB	'eration', 00H				; `string'
CONST	ENDS
;	COMDAT ??_C@_03EBGMKGGP@dra@
CONST	SEGMENT
??_C@_03EBGMKGGP@dra@ DB 'dra', 00H			; `string'
CONST	ENDS
;	COMDAT ??_C@_0EH@FDELDAPB@rudder?5value?0?5scaling?5factor?5fo@
CONST	SEGMENT
??_C@_0EH@FDELDAPB@rudder?5value?0?5scaling?5factor?5fo@ DB 'rudder value'
	DB	', scaling factor for drag on tail rotation (default = 1.0)', 00H ; `string'
CONST	ENDS
;	COMDAT ??_C@_0BG@BAOAGHIL@dynamics_rudder_value@
CONST	SEGMENT
??_C@_0BG@BAOAGHIL@dynamics_rudder_value@ DB 'dynamics_rudder_value', 00H ; `string'
CONST	ENDS
;	COMDAT ??_C@_03EEOPCCPJ@drv@
CONST	SEGMENT
??_C@_03EEOPCCPJ@drv@ DB 'drv', 00H			; `string'
CONST	ENDS
;	COMDAT ??_C@_0FF@CMKPCCNB@retreating?5blade?5stall?0?5floatin@
CONST	SEGMENT
??_C@_0FF@CMKPCCNB@retreating?5blade?5stall?0?5floatin@ DB 'retreating bl'
	DB	'ade stall, floating point scaling factor for RBS effect (defa'
	DB	'ult = 1.0)', 00H				; `string'
CONST	ENDS
;	COMDAT ??_C@_0DE@MKEBGNNJ@command_line_dynamics_retreatin@
CONST	SEGMENT
??_C@_0DE@MKEBGNNJ@command_line_dynamics_retreatin@ DB 'command_line_dyna'
	DB	'mics_retreating_blade_stall_effect', 00H	; `string'
CONST	ENDS
;	COMDAT ??_C@_04NLBIIEAD@drbs@
CONST	SEGMENT
??_C@_04NLBIIEAD@drbs@ DB 'drbs', 00H			; `string'
CONST	ENDS
;	COMDAT ??_C@_0ED@FDFFABNL@manual?5engine?5start?5up?0?5off?5by?5@
CONST	SEGMENT
??_C@_0ED@FDFFABNL@manual?5engine?5start?5up?0?5off?5by?5@ DB 'manual eng'
	DB	'ine start up, off by default (0 = off, 1 = on) (def = 0)', 00H ; `string'
CONST	ENDS
;	COMDAT ??_C@_0O@JPLMIFBN@enginestartup@
CONST	SEGMENT
??_C@_0O@JPLMIFBN@enginestartup@ DB 'enginestartup', 00H ; `string'
CONST	ENDS
;	COMDAT ??_C@_0EH@OODAOHGA@realistic?5engine?5workload?5simul@
CONST	SEGMENT
??_C@_0EH@OODAOHGA@realistic?5engine?5workload?5simul@ DB 'realistic engi'
	DB	'ne workload simulation model (0 = off, 1 = on) (def = 1)', 00H ; `string'
CONST	ENDS
;	COMDAT ??_C@_0O@BEPNKEPG@enginerealism@
CONST	SEGMENT
??_C@_0O@BEPNKEPG@enginerealism@ DB 'enginerealism', 00H ; `string'
CONST	ENDS
;	COMDAT ??_C@_0GG@ELCEEDAC@0?5is?5default?5flight?5model?0?51?5is@
CONST	SEGMENT
??_C@_0GG@ELCEEDAC@0?5is?5default?5flight?5model?0?51?5is@ DB '0 is defau'
	DB	'lt flight model, 1 is werewolf''s flight model, 2 is arneh''s'
	DB	' model with suspension (def = 2)', 00H	; `string'
CONST	ENDS
;	COMDAT ??_C@_0N@ONEDLOGH@flight_model@
CONST	SEGMENT
??_C@_0N@ONEDLOGH@flight_model@ DB 'flight_model', 00H	; `string'
CONST	ENDS
;	COMDAT ??_C@_0L@LMGPJHLK@?$FLDynamics?$FN@
CONST	SEGMENT
??_C@_0L@LMGPJHLK@?$FLDynamics?$FN@ DB '[Dynamics]', 00H ; `string'
CONST	ENDS
;	COMDAT ??_C@_02NCPIBIBE@33@
CONST	SEGMENT
??_C@_02NCPIBIBE@33@ DB '33', 00H			; `string'
CONST	ENDS
;	COMDAT ??_C@_0EL@EHCAAME@Make?5external?5cameras?5move?5wobb@
CONST	SEGMENT
??_C@_0EL@EHCAAME@Make?5external?5cameras?5move?5wobb@ DB 'Make external '
	DB	'cameras move wobbly and smoother (0 = off, 1 = on) (def = 1)', 00H ; `string'
CONST	ENDS
;	COMDAT ??_C@_0O@IOCDHDNN@wobbly?9camera@
CONST	SEGMENT
??_C@_0O@IOCDHDNN@wobbly?9camera@ DB 'wobbly-camera', 00H ; `string'
CONST	ENDS
;	COMDAT ??_C@_0BI@MKCMCME@hud?5code?5for?54?5gunships@
CONST	SEGMENT
??_C@_0BI@MKCMCME@hud?5code?5for?54?5gunships@ DB 'hud code for 4 gunship'
	DB	's', 00H					; `string'
CONST	ENDS
;	COMDAT ??_C@_08HCFPJDBL@hud_code@
CONST	SEGMENT
??_C@_08HCFPJDBL@hud_code@ DB 'hud_code', 00H		; `string'
CONST	ENDS
;	COMDAT ??_C@_0L@LHGBPDG@ka50_pilot@
CONST	SEGMENT
??_C@_0L@LHGBPDG@ka50_pilot@ DB 'ka50_pilot', 00H	; `string'
CONST	ENDS
;	COMDAT ??_C@_0O@LPGEEMFH@kiowa_copilot@
CONST	SEGMENT
??_C@_0O@LPGEEMFH@kiowa_copilot@ DB 'kiowa_copilot', 00H ; `string'
CONST	ENDS
;	COMDAT ??_C@_0M@GNKJPBBI@kiowa_pilot@
CONST	SEGMENT
??_C@_0M@GNKJPBBI@kiowa_pilot@ DB 'kiowa_pilot', 00H	; `string'
CONST	ENDS
;	COMDAT ??_C@_0O@CKKDDFAM@viper_copilot@
CONST	SEGMENT
??_C@_0O@CKKDDFAM@viper_copilot@ DB 'viper_copilot', 00H ; `string'
CONST	ENDS
;	COMDAT ??_C@_0M@FJLJJLFA@viper_pilot@
CONST	SEGMENT
??_C@_0M@FJLJJLFA@viper_pilot@ DB 'viper_pilot', 00H	; `string'
CONST	ENDS
;	COMDAT ??_C@_0N@KDHHIKLJ@hind_copilot@
CONST	SEGMENT
??_C@_0N@KDHHIKLJ@hind_copilot@ DB 'hind_copilot', 00H	; `string'
CONST	ENDS
;	COMDAT ??_C@_0L@KACIBLFE@hind_pilot@
CONST	SEGMENT
??_C@_0L@KACIBLFE@hind_pilot@ DB 'hind_pilot', 00H	; `string'
CONST	ENDS
;	COMDAT ??_C@_0M@COHCIPJL@havoc_pilot@
CONST	SEGMENT
??_C@_0M@COHCIPJL@havoc_pilot@ DB 'havoc_pilot', 00H	; `string'
CONST	ENDS
;	COMDAT ??_C@_0P@KPKBGG@apache_copilot@
CONST	SEGMENT
??_C@_0P@KPKBGG@apache_copilot@ DB 'apache_copilot', 00H ; `string'
CONST	ENDS
;	COMDAT ??_C@_0N@OACLLJEN@apache_pilot@
CONST	SEGMENT
??_C@_0N@OACLLJEN@apache_pilot@ DB 'apache_pilot', 00H	; `string'
CONST	ENDS
;	COMDAT ??_C@_0P@NNDJOMMD@hokum_co?9pilot@
CONST	SEGMENT
??_C@_0P@NNDJOMMD@hokum_co?9pilot@ DB 'hokum_co-pilot', 00H ; `string'
CONST	ENDS
;	COMDAT ??_C@_0M@ICDAHEBI@hokum_pilot@
CONST	SEGMENT
??_C@_0M@ICDAHEBI@hokum_pilot@ DB 'hokum_pilot', 00H	; `string'
CONST	ENDS
;	COMDAT ??_C@_0BL@BLNMHGDI@wideview?5co?9pilot?5position@
CONST	SEGMENT
??_C@_0BL@BLNMHGDI@wideview?5co?9pilot?5position@ DB 'wideview co-pilot p'
	DB	'osition', 00H				; `string'
CONST	ENDS
;	COMDAT ??_C@_0BC@HMNKLGHN@comanche_co?9pilot@
CONST	SEGMENT
??_C@_0BC@HMNKLGHN@comanche_co?9pilot@ DB 'comanche_co-pilot', 00H ; `string'
CONST	ENDS
;	COMDAT ??_C@_0BI@BKLKGABK@wideview?5pilot?5position@
CONST	SEGMENT
??_C@_0BI@BKLKGABK@wideview?5pilot?5position@ DB 'wideview pilot position'
	DB	00H						; `string'
CONST	ENDS
;	COMDAT ??_C@_0P@CPHJAEMD@comanche_pilot@
CONST	SEGMENT
??_C@_0P@CPHJAEMD@comanche_pilot@ DB 'comanche_pilot', 00H ; `string'
CONST	ENDS
;	COMDAT ??_C@_0HI@FIIAFHNG@amount?5of?5head?5movement?5caused?5@
CONST	SEGMENT
??_C@_0HI@FIIAFHNG@amount?5of?5head?5movement?5caused?5@ DB 'amount of he'
	DB	'ad movement caused by gravitational force (wideview only) (n '
	DB	'= Gs, 1.0 = normal, 0.0 = off) (default = 0.0)', 00H ; `string'
CONST	ENDS
;	COMDAT ??_C@_0BG@BJKCCONG@g?9force_head_movement@
CONST	SEGMENT
??_C@_0BG@BJKCCONG@g?9force_head_movement@ DB 'g-force_head_movement', 00H ; `string'
CONST	ENDS
;	COMDAT ??_C@_02CNFIOGBL@49@
CONST	SEGMENT
??_C@_02CNFIOGBL@49@ DB '49', 00H			; `string'
CONST	ENDS
;	COMDAT ??_C@_0CM@EADHLDBD@general?5field?5of?5view?5maximum?5f@
CONST	SEGMENT
??_C@_0CM@EADHLDBD@general?5field?5of?5view?5maximum?5f@ DB 'general fiel'
	DB	'd of view maximum for Ka-50 pit', 00H	; `string'
CONST	ENDS
;	COMDAT ??_C@_07KOMPIMGP@maxfov7@
CONST	SEGMENT
??_C@_07KOMPIMGP@maxfov7@ DB 'maxfov7', 00H		; `string'
CONST	ENDS
;	COMDAT ??_C@_0CM@IGNJLPJE@general?5field?5of?5view?5maximum?5f@
CONST	SEGMENT
??_C@_0CM@IGNJLPJE@general?5field?5of?5view?5maximum?5f@ DB 'general fiel'
	DB	'd of view maximum for Viper pit', 00H	; `string'
CONST	ENDS
;	COMDAT ??_C@_07LHNELNCO@maxfov6@
CONST	SEGMENT
??_C@_07LHNELNCO@maxfov6@ DB 'maxfov6', 00H		; `string'
CONST	ENDS
;	COMDAT ??_C@_0CM@IEBBGLJJ@general?5field?5of?5view?5maximum?5f@
CONST	SEGMENT
??_C@_0CM@IEBBGLJJ@general?5field?5of?5view?5maximum?5f@ DB 'general fiel'
	DB	'd of view maximum for Kiowa pit', 00H	; `string'
CONST	ENDS
;	COMDAT ??_C@_07JMPJOOON@maxfov5@
CONST	SEGMENT
??_C@_07JMPJOOON@maxfov5@ DB 'maxfov5', 00H		; `string'
CONST	ENDS
;	COMDAT ??_C@_0CL@KAPPDPMK@general?5field?5of?5view?5maximum?5f@
CONST	SEGMENT
??_C@_0CL@KAPPDPMK@general?5field?5of?5view?5maximum?5f@ DB 'general fiel'
	DB	'd of view maximum for Hind pit', 00H	; `string'
CONST	ENDS
;	COMDAT ??_C@_07IFOCNPKM@maxfov4@
CONST	SEGMENT
??_C@_07IFOCNPKM@maxfov4@ DB 'maxfov4', 00H		; `string'
CONST	ENDS
;	COMDAT ??_C@_0CO@GLMLKOMG@general?5field?5of?5view?5maximum?5f@
CONST	SEGMENT
??_C@_0CO@GLMLKOMG@general?5field?5of?5view?5maximum?5f@ DB 'general fiel'
	DB	'd of view maximum for Hokum-B pit', 00H	; `string'
CONST	ENDS
;	COMDAT ??_C@_07MKKDEJGL@maxfov3@
CONST	SEGMENT
??_C@_07MKKDEJGL@maxfov3@ DB 'maxfov3', 00H		; `string'
CONST	ENDS
;	COMDAT ??_C@_0CP@CIDILCEB@general?5field?5of?5view?5maximum?5f@
CONST	SEGMENT
??_C@_0CP@CIDILCEB@general?5field?5of?5view?5maximum?5f@ DB 'general fiel'
	DB	'd of view maximum for Comanche pit', 00H	; `string'
CONST	ENDS
;	COMDAT ??_C@_07NDLIHICK@maxfov2@
CONST	SEGMENT
??_C@_07NDLIHICK@maxfov2@ DB 'maxfov2', 00H		; `string'
CONST	ENDS
;	COMDAT ??_C@_0CM@KOPDCLCA@general?5field?5of?5view?5maximum?5f@
CONST	SEGMENT
??_C@_0CM@KOPDCLCA@general?5field?5of?5view?5maximum?5f@ DB 'general fiel'
	DB	'd of view maximum for Havoc pit', 00H	; `string'
CONST	ENDS
;	COMDAT ??_C@_07PIJFCLOJ@maxfov1@
CONST	SEGMENT
??_C@_07PIJFCLOJ@maxfov1@ DB 'maxfov1', 00H		; `string'
CONST	ENDS
;	COMDAT ??_C@_0CO@DHBBOFHJ@general?5field?5of?5view?5maximum?5f@
CONST	SEGMENT
??_C@_0CO@DHBBOFHJ@general?5field?5of?5view?5maximum?5f@ DB 'general fiel'
	DB	'd of view maximum for Apache pits', 00H	; `string'
CONST	ENDS
;	COMDAT ??_C@_07OBIOBKKI@maxfov0@
CONST	SEGMENT
??_C@_07OBIOBKKI@maxfov0@ DB 'maxfov0', 00H		; `string'
CONST	ENDS
;	COMDAT ??_C@_0BO@EAMCNBEK@general?5field?5of?5view?5minimum@
CONST	SEGMENT
??_C@_0BO@EAMCNBEK@general?5field?5of?5view?5minimum@ DB 'general field o'
	DB	'f view minimum', 00H			; `string'
CONST	ENDS
;	COMDAT ??_C@_06KFKIGAKI@minfov@
CONST	SEGMENT
??_C@_06KFKIGAKI@minfov@ DB 'minfov', 00H		; `string'
CONST	ENDS
;	COMDAT ??_C@_0GF@HNAKGJPN@minfov?5is?5linked?5to?5key?57?0?5maxf@
CONST	SEGMENT
??_C@_0GF@HNAKGJPN@minfov?5is?5linked?5to?5key?57?0?5maxf@ DB 'minfov is '
	DB	'linked to key 7, maxfov is linked to key 9, normal fov is lin'
	DB	'ked to key 8, normal fov = 60', 00H		; `string'
CONST	ENDS
;	COMDAT ??_C@_0BE@BJNDGAAD@?$FLViews?5and?5Cameras?$FN@
CONST	SEGMENT
??_C@_0BE@BJNDGAAD@?$FLViews?5and?5Cameras?$FN@ DB '[Views and Cameras]', 00H ; `string'
CONST	ENDS
;	COMDAT ??_C@_0DM@FMOKODNC@comma?9separated?5list?5of?5directo@
CONST	SEGMENT
??_C@_0DM@FMOKODNC@comma?9separated?5list?5of?5directo@ DB 'comma-separat'
	DB	'ed list of directories for alternate psd files', 00H ; `string'
CONST	ENDS
;	COMDAT ??_C@_06EMIDKNJD@themes@
CONST	SEGMENT
??_C@_06EMIDKNJD@themes@ DB 'themes', 00H		; `string'
CONST	ENDS
;	COMDAT ??_C@_0BI@GMLPBPJA@colours?5for?5cloud?5puffs@
CONST	SEGMENT
??_C@_0BI@GMLPBPJA@colours?5for?5cloud?5puffs@ DB 'colours for cloud puff'
	DB	's', 00H					; `string'
CONST	ENDS
;	COMDAT ??_C@_0BE@IHGKNAKH@cloud_puffs_colours@
CONST	SEGMENT
??_C@_0BE@IHGKNAKH@cloud_puffs_colours@ DB 'cloud_puffs_colours', 00H ; `string'
CONST	ENDS
;	COMDAT ??_C@_0EL@OEMMHLBN@Cloud?5puffs?4?5?$CI0?5?$DN?5off?0?51?5?$DN?5all?5@
CONST	SEGMENT
??_C@_0EL@OEMMHLBN@Cloud?5puffs?4?5?$CI0?5?$DN?5off?0?51?5?$DN?5all?5@ DB 'C'
	DB	'loud puffs. (0 = off, 1 = all maps except desert, 2 = all map'
	DB	's) (def = 1)', 00H				; `string'
CONST	ENDS
;	COMDAT ??_C@_0M@PGNJDKOJ@cloud_puffs@
CONST	SEGMENT
??_C@_0M@PGNJDKOJ@cloud_puffs@ DB 'cloud_puffs', 00H	; `string'
CONST	ENDS
;	COMDAT ??_C@_0GG@DHHFKMAA@Burning?5targets?5emitting?5smoke?5@
CONST	SEGMENT
??_C@_0GG@DHHFKMAA@Burning?5targets?5emitting?5smoke?5@ DB 'Burning targe'
	DB	'ts emitting smoke for a long time. [Warning!] CPU intensive. '
	DB	'(0 = off, 1 = on) (def = 1)', 00H		; `string'
CONST	ENDS
;	COMDAT ??_C@_0BB@DAJAMMBD@persistent_smoke@
CONST	SEGMENT
??_C@_0BB@DAJAMMBD@persistent_smoke@ DB 'persistent_smoke', 00H ; `string'
CONST	ENDS
;	COMDAT ??_C@_0FH@DGHCCJKI@night?5light?5darkness?5level?5?$CI0?40@
CONST	SEGMENT
??_C@_0FH@DGHCCJKI@night?5light?5darkness?5level?5?$CI0?40@ DB 'night lig'
	DB	'ht darkness level (0.0 - 1.0) (0.0 = fully dark, 1.0 = less d'
	DB	'ark) (def = 1.0)', 00H			; `string'
CONST	ENDS
;	COMDAT ??_C@_0M@HKFCHHH@night_light@
CONST	SEGMENT
??_C@_0M@HKFCHHH@night_light@ DB 'night_light', 00H	; `string'
CONST	ENDS
;	COMDAT ??_C@_0DD@BBGFBEOP@dynamic?5water?5textures?5?$CI0?5?$DN?5off@
CONST	SEGMENT
??_C@_0DD@BBGFBEOP@dynamic?5water?5textures?5?$CI0?5?$DN?5off@ DB 'dynami'
	DB	'c water textures (0 = off, 1 = on) (def = 0)', 00H ; `string'
CONST	ENDS
;	COMDAT ??_C@_0O@IMHAMGEB@dynamic_water@
CONST	SEGMENT
??_C@_0O@IMHAMGEB@dynamic_water@ DB 'dynamic_water', 00H ; `string'
CONST	ENDS
;	COMDAT ??_C@_0GM@PDHJOGOE@mipmapped?5textures?5?$CIdds?5files?$CJ?4@
CONST	SEGMENT
??_C@_0GM@PDHJOGOE@mipmapped?5textures?5?$CIdds?5files?$CJ?4@ DB 'mipmapp'
	DB	'ed textures (dds files). [WARNING!] Use only with correct tex'
	DB	'ture packs. (0 = off, 1 = on) (def = 0)', 00H ; `string'
CONST	ENDS
;	COMDAT ??_C@_0L@GIGNMFLF@mipmapping@
CONST	SEGMENT
??_C@_0L@GIGNMFLF@mipmapping@ DB 'mipmapping', 00H	; `string'
CONST	ENDS
;	COMDAT ??_C@_0GE@GJGHBOMK@?$FLEXPERIMENTAL?$CB?$FN?5texture?5blendin@
CONST	SEGMENT
??_C@_0GE@GJGHBOMK@?$FLEXPERIMENTAL?$CB?$FN?5texture?5blendin@ DB '[EXPER'
	DB	'IMENTAL!] texture blending (reacts to anisotropic filter sett'
	DB	'ing) (0 = off, 1 = on) (def = 0)', 00H	; `string'
CONST	ENDS
;	COMDAT ??_C@_0BC@FEEDPBHL@texture_filtering@
CONST	SEGMENT
??_C@_0BC@FEEDPBHL@texture_filtering@ DB 'texture_filtering', 00H ; `string'
CONST	ENDS
;	COMDAT ??_C@_0KF@GAFOLPPM@Use?5texture?5colours?5and?5noisema@
CONST	SEGMENT
??_C@_0KF@GAFOLPPM@Use?5texture?5colours?5and?5noisema@ DB 'Use texture c'
	DB	'olours and noisemaps directly. [WARNING!] Use only with corre'
	DB	'ct texture packs. (0 = off, 1 = on, 2 = also use noisemap for'
	DB	' higher resolution) (def = 0)', 00H		; `string'
CONST	ENDS
;	COMDAT ??_C@_0P@LPLKBOEF@texture_colour@
CONST	SEGMENT
??_C@_0P@LPLKBOEF@texture_colour@ DB 'texture_colour', 00H ; `string'
CONST	ENDS
;	COMDAT ??_C@_0CP@IEHGGJPL@TSD?5in?5high?5detail?5?$CI0?5?$DN?5off?0?51?5@
CONST	SEGMENT
??_C@_0CP@IEHGGJPL@TSD?5in?5high?5detail?5?$CI0?5?$DN?5off?0?51?5@ DB 'TS'
	DB	'D in high detail (0 = off, 1 = on) (def = 0)', 00H ; `string'
CONST	ENDS
;	COMDAT ??_C@_09FIBOBHEI@tsddetail@
CONST	SEGMENT
??_C@_09FIBOBHEI@tsddetail@ DB 'tsddetail', 00H		; `string'
CONST	ENDS
;	COMDAT ??_C@_0EF@BHCGCODD@TSD?5showing?5red?5force?5blue?5forc@
CONST	SEGMENT
??_C@_0EF@BHCGCODD@TSD?5showing?5red?5force?5blue?5forc@ DB 'TSD showing '
	DB	'red force blue force colours (0 = off, 1 = on) (def = 1)', 00H ; `string'
CONST	ENDS
;	COMDAT ??_C@_08CFKOENDF@tsdenemy@
CONST	SEGMENT
??_C@_08CFKOENDF@tsdenemy@ DB 'tsdenemy', 00H		; `string'
CONST	ENDS
;	COMDAT ??_C@_0CG@BGHLPEFI@TSD?5palette?5options?5?$CI0?5?9?52?$CJ?5?$CIde@
CONST	SEGMENT
??_C@_0CG@BGHLPEFI@TSD?5palette?5options?5?$CI0?5?9?52?$CJ?5?$CIde@ DB 'T'
	DB	'SD palette options (0 - 2) (def = 0)', 00H	; `string'
CONST	ENDS
;	COMDAT ??_C@_0L@MGCIAICJ@tsdpalette@
CONST	SEGMENT
??_C@_0L@MGCIAICJ@tsdpalette@ DB 'tsdpalette', 00H	; `string'
CONST	ENDS
;	COMDAT ??_C@_0DF@NMMAIBEO@TSD?5render?5options?5?$CI0?5?9?54?$CJ?5?$CIdef@
CONST	SEGMENT
??_C@_0DF@NMMAIBEO@TSD?5render?5options?5?$CI0?5?9?54?$CJ?5?$CIdef@ DB 'T'
	DB	'SD render options (0 - 4) (def = 0 (contours only))', 00H ; `string'
CONST	ENDS
;	COMDAT ??_C@_09JMMFAHBG@tsdrender@
CONST	SEGMENT
??_C@_09JMMFAHBG@tsdrender@ DB 'tsdrender', 00H		; `string'
CONST	ENDS
;	COMDAT ??_C@_0DA@CGMBIIBD@high?5resolution?5HUD?5?$CI0?5?$DN?5off?0?51@
CONST	SEGMENT
??_C@_0DA@CGMBIIBD@high?5resolution?5HUD?5?$CI0?5?$DN?5off?0?51@ DB 'high'
	DB	' resolution HUD (0 = off, 1 = on) (def = 1)', 00H ; `string'
CONST	ENDS
;	COMDAT ??_C@_0L@FIBEFPLH@highreshud@
CONST	SEGMENT
??_C@_0L@FIBEFPLH@highreshud@ DB 'highreshud', 00H	; `string'
CONST	ENDS
;	COMDAT ??_C@_0EA@BIHNNHFN@MFDs?5will?5use?5colour?5when?5avail@
CONST	SEGMENT
??_C@_0EA@BIHNNHFN@MFDs?5will?5use?5colour?5when?5avail@ DB 'MFDs will us'
	DB	'e colour when available (0 = off, 1 = on) (def = 1)', 00H ; `string'
CONST	ENDS
;	COMDAT ??_C@_09DLPPGEF@colourmfd@
CONST	SEGMENT
??_C@_09DLPPGEF@colourmfd@ DB 'colourmfd', 00H		; `string'
CONST	ENDS
;	COMDAT ??_C@_0DN@BBFBNELA@russian?5night?5vision?5has?5no?5FLI@
CONST	SEGMENT
??_C@_0DN@BBFBNELA@russian?5night?5vision?5has?5no?5FLI@ DB 'russian nigh'
	DB	't vision has no FLIR (0 = off, 1 = on) (def = 0)', 00H ; `string'
CONST	ENDS
;	COMDAT ??_C@_0BC@FNNPHLAH@russian_nvg_no_ir@
CONST	SEGMENT
??_C@_0BC@FNNPHLAH@russian_nvg_no_ir@ DB 'russian_nvg_no_ir', 00H ; `string'
CONST	ENDS
;	COMDAT ??_C@_0DF@POANBNG@night?5vision?5restriction?5?$CI0?5?$DN?5o@
CONST	SEGMENT
??_C@_0DF@POANBNG@night?5vision?5restriction?5?$CI0?5?$DN?5o@ DB 'night v'
	DB	'ision restriction (0 = off, 1 = on) (def = 1)', 00H ; `string'
CONST	ENDS
;	COMDAT ??_C@_0BD@JLENJPMD@restricted_nvg_fov@
CONST	SEGMENT
??_C@_0BD@JLENJPMD@restricted_nvg_fov@ DB 'restricted_nvg_fov', 00H ; `string'
CONST	ENDS
;	COMDAT ??_C@_0DC@PLFPDKHA@rotor?5downwash?5?$CIdust?$CJ?5?$CI0?5?$DN?5off?0@
CONST	SEGMENT
??_C@_0DC@PLFPDKHA@rotor?5downwash?5?$CIdust?$CJ?5?$CI0?5?$DN?5off?0@ DB 'r'
	DB	'otor downwash (dust) (0 = off, 1 = on) (def = 1)', 00H ; `string'
CONST	ENDS
;	COMDAT ??_C@_08DJHIJCHO@downwash@
CONST	SEGMENT
??_C@_08DJHIJCHO@downwash@ DB 'downwash', 00H		; `string'
CONST	ENDS
;	COMDAT ??_C@_05OOKDIIAP@dwash@
CONST	SEGMENT
??_C@_05OOKDIIAP@dwash@ DB 'dwash', 00H			; `string'
CONST	ENDS
;	COMDAT ??_C@_0HO@KAMBIONA@?$FLEXPERIMENTAL?$CB?$FN?5Enables?5highest@
CONST	SEGMENT
??_C@_0HO@KAMBIONA@?$FLEXPERIMENTAL?$CB?$FN?5Enables?5highest@ DB '[EXPER'
	DB	'IMENTAL!] Enables highest level-of-detail models at far dista'
	DB	'nces. Nice for higher FOVs, bad for FPS (esp. near cities)', 00H ; `string'
CONST	ENDS
;	COMDAT ??_C@_0O@DBJJJBCC@high_lod_hack@
CONST	SEGMENT
??_C@_0O@DBJJJBCC@high_lod_hack@ DB 'high_lod_hack', 00H ; `string'
CONST	ENDS
;	COMDAT ??_C@_0HI@BJOEEENA@fog?5affects?5groups?5of?5trees?5?$CI0?5@
CONST	SEGMENT
??_C@_0HI@BJOEEENA@fog?5affects?5groups?5of?5trees?5?$CI0?5@ DB 'fog affe'
	DB	'cts groups of trees (0 = off, 1 = on, 2 = auto off if fps les'
	DB	's then 20, auto on if fps more then 30 ) (def = 2)', 00H ; `string'
CONST	ENDS
;	COMDAT ??_C@_09LPJKNJNN@trees?9fog@
CONST	SEGMENT
??_C@_09LPJKNJNN@trees?9fog@ DB 'trees-fog', 00H	; `string'
CONST	ENDS
;	COMDAT ??_C@_0L@PNPKMOCO@1?$DNyes?50?$DNno@
CONST	SEGMENT
??_C@_0L@PNPKMOCO@1?$DNyes?50?$DNno@ DB '1=yes 0=no', 00H ; `string'
CONST	ENDS
;	COMDAT ??_C@_0BE@BNMNHEIC@render?9tree?9shadows@
CONST	SEGMENT
??_C@_0BE@BNMNHEIC@render?9tree?9shadows@ DB 'render-tree-shadows', 00H ; `string'
CONST	ENDS
;	COMDAT ??_C@_0EP@HCIMLKFJ@eo?5ranges?5near?5to?5max?5fog?5dista@
CONST	SEGMENT
??_C@_0EP@HCIMLKFJ@eo?5ranges?5near?5to?5max?5fog?5dista@ DB 'eo ranges n'
	DB	'ear to max fog distance (and objects are drawn up to it) 1=ye'
	DB	's 0=no', 00H				; `string'
CONST	ENDS
;	COMDAT ??_C@_0M@DGDLBBPO@eofullrange@
CONST	SEGMENT
??_C@_0M@DGDLBBPO@eofullrange@ DB 'eofullrange', 00H	; `string'
CONST	ENDS
;	COMDAT ??_C@_0EI@JGIMOBDC@use?5textures?4pal?5?$CIif?5videocard?5@
CONST	SEGMENT
??_C@_0EI@JGIMOBDC@use?5textures?4pal?5?$CIif?5videocard?5@ DB 'use textu'
	DB	'res.pal (if videocard supports it) (0 = off, 1 = on) (def = 0'
	DB	')', 00H					; `string'
CONST	ENDS
;	COMDAT ??_C@_07JKIHKJOO@palette@
CONST	SEGMENT
??_C@_07JKIHKJOO@palette@ DB 'palette', 00H		; `string'
CONST	ENDS
;	COMDAT ??_C@_0EI@NMIEJBDE@?$CIclean?5graphics?$CJ?5re?9installs?5gr@
CONST	SEGMENT
??_C@_0EI@NMIEJBDE@?$CIclean?5graphics?$CJ?5re?9installs?5gr@ DB '(clean '
	DB	'graphics) re-installs graphics files (0 = off, 1 = on) (def ='
	DB	' 0)', 00H					; `string'
CONST	ENDS
;	COMDAT ??_C@_0P@GGKKAPAO@clean_graphics@
CONST	SEGMENT
??_C@_0P@GGKKAPAO@clean_graphics@ DB 'clean_graphics', 00H ; `string'
CONST	ENDS
;	COMDAT ??_C@_02GAJDKOPE@cg@
CONST	SEGMENT
??_C@_02GAJDKOPE@cg@ DB 'cg', 00H			; `string'
CONST	ENDS
;	COMDAT ??_C@_0GN@EGBGFDBM@DirectX?5texture?5management?5?$CIsho@
CONST	SEGMENT
??_C@_0GN@EGBGFDBM@DirectX?5texture?5management?5?$CIsho@ DB 'DirectX tex'
	DB	'ture management (should fix "unable to allocate hardware slot'
	DB	'" error) (0 = off, 1 = on) (def = 0)', 00H	; `string'
CONST	ENDS
;	COMDAT ??_C@_0BL@NFFNIIMF@directx_texture_management@
CONST	SEGMENT
??_C@_0BL@NFFNIIMF@directx_texture_management@ DB 'directx_texture_manage'
	DB	'ment', 00H					; `string'
CONST	ENDS
;	COMDAT ??_C@_04HIEPIEHK@dxtm@
CONST	SEGMENT
??_C@_04HIEPIEHK@dxtm@ DB 'dxtm', 00H			; `string'
CONST	ENDS
;	COMDAT ??_C@_0DP@ELEHJHDO@reset?5screen?5resolution?5to?5640x@
CONST	SEGMENT
??_C@_0DP@ELEHJHDO@reset?5screen?5resolution?5to?5640x@ DB 'reset screen '
	DB	'resolution to 640x480 (0 = off, 1 = on) (def = 0)', 00H ; `string'
CONST	ENDS
;	COMDAT ??_C@_07IFJLPCEC@3dreset@
CONST	SEGMENT
??_C@_07IFJLPCEC@3dreset@ DB '3dreset', 00H		; `string'
CONST	ENDS
;	COMDAT ??_C@_0FI@BGOEMMEM@Disable?5the?5dx9?5zbuffer?5fix?5int@
CONST	SEGMENT
??_C@_0FI@BGOEMMEM@Disable?5the?5dx9?5zbuffer?5fix?5int@ DB 'Disable the '
	DB	'dx9 zbuffer fix introduced in 1.11.1.  In case it causes grap'
	DB	'hical problems', 00H			; `string'
CONST	ENDS
;	COMDAT ??_C@_0BA@IPIOEDN@nodx9zbufferfix@
CONST	SEGMENT
??_C@_0BA@IPIOEDN@nodx9zbufferfix@ DB 'nodx9zbufferfix', 00H ; `string'
CONST	ENDS
;	COMDAT ??_C@_0DM@MCAFODLO@GeForce?5?$CCTnL?$CC?5support?5?$CI0?5?$DN?5enab@
CONST	SEGMENT
??_C@_0DM@MCAFODLO@GeForce?5?$CCTnL?$CC?5support?5?$CI0?5?$DN?5enab@ DB 'G'
	DB	'eForce "TnL" support (0 = enabled, 1 = disabled) (def = 0)', 00H ; `string'
CONST	ENDS
;	COMDAT ??_C@_05IPNCFKA@notnl@
CONST	SEGMENT
??_C@_05IPNCFKA@notnl@ DB 'notnl', 00H			; `string'
CONST	ENDS
;	COMDAT ??_C@_0HC@CEECNPNA@rendering?5to?5texture?5?$CI0?5?$DN?5enabl@
CONST	SEGMENT
??_C@_0HC@CEECNPNA@rendering?5to?5texture?5?$CI0?5?$DN?5enabl@ DB 'render'
	DB	'ing to texture (0 = enabled, 1 = disabled) (def = 0) (disable'
	DB	' in case of visual problems with MFDs or TADS)', 00H ; `string'
CONST	ENDS
;	COMDAT ??_C@_03BJGEKABP@nrt@
CONST	SEGMENT
??_C@_03BJGEKABP@nrt@ DB 'nrt', 00H			; `string'
CONST	ENDS
;	COMDAT ??_C@_0CN@CEDMCMII@32?9bit?5rendering?5?$CI0?5?$DN?5off?0?51?5?$DN?5@
CONST	SEGMENT
??_C@_0CN@CEDMCMII@32?9bit?5rendering?5?$CI0?5?$DN?5off?0?51?5?$DN?5@ DB '3'
	DB	'2-bit rendering (0 = off, 1 = on) (def = 1)', 00H ; `string'
CONST	ENDS
;	COMDAT ??_C@_05IKEILDGM@32bit@
CONST	SEGMENT
??_C@_05IKEILDGM@32bit@ DB '32bit', 00H			; `string'
CONST	ENDS
;	COMDAT ??_C@_0DG@BDNELBLN@maximum?5visual?5frame?5rate?5?$CIn?5?$DN?5@
CONST	SEGMENT
??_C@_0DG@BDNELBLN@maximum?5visual?5frame?5rate?5?$CIn?5?$DN?5@ DB 'maxim'
	DB	'um visual frame rate (n = frame rate) (def = 30)', 00H ; `string'
CONST	ENDS
;	COMDAT ??_C@_0P@MFBEDKI@max_frame_rate@
CONST	SEGMENT
??_C@_0P@MFBEDKI@max_frame_rate@ DB 'max_frame_rate', 00H ; `string'
CONST	ENDS
;	COMDAT ??_C@_03EGKEKDNL@mfr@
CONST	SEGMENT
??_C@_03EGKEKDNL@mfr@ DB 'mfr', 00H			; `string'
CONST	ENDS
;	COMDAT ??_C@_0ED@OOMNAGMK@full?5screen?5mode?5?$CI0?5?$DN?5window?5mo@
CONST	SEGMENT
??_C@_0ED@OOMNAGMK@full?5screen?5mode?5?$CI0?5?$DN?5window?5mo@ DB 'full '
	DB	'screen mode (0 = window mode, 1 = full screen mode) (def = 1)'
	DB	00H						; `string'
CONST	ENDS
;	COMDAT ??_C@_0M@FINCDFND@full_screen@
CONST	SEGMENT
??_C@_0M@FINCDFND@full_screen@ DB 'full_screen', 00H	; `string'
CONST	ENDS
;	COMDAT ??_C@_02EIPGLLEK@fs@
CONST	SEGMENT
??_C@_02EIPGLLEK@fs@ DB 'fs', 00H			; `string'
CONST	ENDS
;	COMDAT ??_C@_0DL@PFBNDDJO@distance?5that?5city?5blocks?5resol@
CONST	SEGMENT
??_C@_0DL@PFBNDDJO@distance?5that?5city?5blocks?5resol@ DB 'distance that'
	DB	' city blocks resolve (n = meters) (def = 500)', 00H ; `string'
CONST	ENDS
;	COMDAT ??_C@_0BP@CJIEPEGK@city_block_approximation_range@
CONST	SEGMENT
??_C@_0BP@CJIEPEGK@city_block_approximation_range@ DB 'city_block_approxi'
	DB	'mation_range', 00H				; `string'
CONST	ENDS
;	COMDAT ??_C@_04CCHMIAJE@cbar@
CONST	SEGMENT
??_C@_04CCHMIAJE@cbar@ DB 'cbar', 00H			; `string'
CONST	ENDS
;	COMDAT ??_C@_0BI@CNGOGFMH@?$FLGraphics?5and?5Textures?$FN@
CONST	SEGMENT
??_C@_0BI@CNGOGFMH@?$FLGraphics?5and?5Textures?$FN@ DB '[Graphics and Tex'
	DB	'tures]', 00H				; `string'
CONST	ENDS
;	COMDAT ??_C@_0CF@HKEFKFGB@path?5to?5map?1campaign?1skirmish?5f@
CONST	SEGMENT
??_C@_0CF@HKEFKFGB@path?5to?5map?1campaign?1skirmish?5f@ DB 'path to map/'
	DB	'campaign/skirmish folder', 00H		; `string'
CONST	ENDS
;	COMDAT ??_C@_0CM@GNKINAIL@command_line_game_initialisatio@
CONST	SEGMENT
??_C@_0CM@GNKINAIL@command_line_game_initialisatio@ DB 'command_line_game'
	DB	'_initialisation_phase_path', 00H		; `string'
CONST	ENDS
;	COMDAT ??_C@_04LNEJFJGI@path@
CONST	SEGMENT
??_C@_04LNEJFJGI@path@ DB 'path', 00H			; `string'
CONST	ENDS
;	COMDAT ??_C@_0EO@PAINFOLC@available?5gunship?5types?5?$CI0?5?$DN?5Ap@
CONST	SEGMENT
??_C@_0EO@PAINFOLC@available?5gunship?5types?5?$CI0?5?$DN?5Ap@ DB 'availa'
	DB	'ble gunship types (0 = Apache, 1 = Havoc, 2 = Comanche, 3 = H'
	DB	'okum, ...)', 00H				; `string'
CONST	ENDS
;	COMDAT ??_C@_0DE@LLDIGGJ@command_line_game_initialisatio@
CONST	SEGMENT
??_C@_0DE@LLDIGGJ@command_line_game_initialisatio@ DB 'command_line_game_'
	DB	'initialisation_phase_gunship_type', 00H	; `string'
CONST	ENDS
;	COMDAT ??_C@_0N@EPIPLMLE@gunship_type@
CONST	SEGMENT
??_C@_0N@EPIPLMLE@gunship_type@ DB 'gunship_type', 00H	; `string'
CONST	ENDS
;	COMDAT ??_C@_0EM@DLECEAKP@available?5game?5types?5?$CI1?5?$DN?5Freef@
CONST	SEGMENT
??_C@_0EM@DLECEAKP@available?5game?5types?5?$CI1?5?$DN?5Freef@ DB 'availa'
	DB	'ble game types (1 = Freeflight, 2 = Campaign, 3 = Skirmish) ('
	DB	'def = 0)', 00H				; `string'
CONST	ENDS
;	COMDAT ??_C@_0DB@ILMNBEPA@command_line_game_initialisatio@
CONST	SEGMENT
??_C@_0DB@ILMNBEPA@command_line_game_initialisatio@ DB 'command_line_game'
	DB	'_initialisation_phase_game_type', 00H	; `string'
CONST	ENDS
;	COMDAT ??_C@_09FNPACPMG@game_type@
CONST	SEGMENT
??_C@_09FNPACPMG@game_type@ DB 'game_type', 00H		; `string'
CONST	ENDS
;	COMDAT ??_C@_0EB@PHLGELMO@pause?5server?5if?5no?5clients?5conn@
CONST	SEGMENT
??_C@_0EB@PHLGELMO@pause?5server?5if?5no?5clients?5conn@ DB 'pause server'
	DB	' if no clients connected (0 = off, 1 = on) (def = 0)', 00H ; `string'
CONST	ENDS
;	COMDAT ??_C@_0N@OKJLAKDK@pause_server@
CONST	SEGMENT
??_C@_0N@OKJLAKDK@pause_server@ DB 'pause_server', 00H	; `string'
CONST	ENDS
;	COMDAT ??_C@_09FMLHLDDN@pauseserv@
CONST	SEGMENT
??_C@_09FMLHLDDN@pauseserv@ DB 'pauseserv', 00H		; `string'
CONST	ENDS
;	COMDAT ??_C@_0DC@MGLKACHL@dedicated?5server?5mode?5?$CI0?5?$DN?5off?0@
CONST	SEGMENT
??_C@_0DC@MGLKACHL@dedicated?5server?5mode?5?$CI0?5?$DN?5off?0@ DB 'dedic'
	DB	'ated server mode (0 = off, 1 = on) (def = 0)', 00H ; `string'
CONST	ENDS
;	COMDAT ??_C@_0CE@OIAINFCD@command_line_comms_dedicated_se@
CONST	SEGMENT
??_C@_0CE@OIAINFCD@command_line_comms_dedicated_se@ DB 'command_line_comm'
	DB	's_dedicated_server', 00H			; `string'
CONST	ENDS
;	COMDAT ??_C@_09BJOAODLF@dedicated@
CONST	SEGMENT
??_C@_09BJOAODLF@dedicated@ DB 'dedicated', 00H		; `string'
CONST	ENDS
;	COMDAT ??_C@_0FK@PNICFGF@for?5more?5information?5see?5http?3?1@
CONST	SEGMENT
??_C@_0FK@PNICFGF@for?5more?5information?5see?5http?3?1@ DB 'for more inf'
	DB	'ormation see http://www.eechcentral.com/wiki/index.php?title='
	DB	'Dedicated_server', 00H			; `string'
CONST	ENDS
;	COMDAT ??_C@_0BD@NOECCOAF@?$FLDedicated?5server?$FN@
CONST	SEGMENT
??_C@_0BD@NOECCOAF@?$FLDedicated?5server?$FN@ DB '[Dedicated server]', 00H ; `string'
CONST	ENDS
;	COMDAT ??_C@_0BI@DFEBLLHJ@filename?5for?5server?5log@
CONST	SEGMENT
??_C@_0BI@DFEBLLHJ@filename?5for?5server?5log@ DB 'filename for server lo'
	DB	'g', 00H					; `string'
CONST	ENDS
;	COMDAT ??_C@_0BE@KALGAMMO@server_log_filename@
CONST	SEGMENT
??_C@_0BE@KALGAMMO@server_log_filename@ DB 'server_log_filename', 00H ; `string'
CONST	ENDS
;	COMDAT ??_C@_07EJDDFFME@servlog@
CONST	SEGMENT
??_C@_07EJDDFFME@servlog@ DB 'servlog', 00H		; `string'
CONST	ENDS
;	COMDAT ??_C@_0CF@JLAMIEIP@comms?5initial?5sleep?5time?5?$CIdef?5?$DN@
CONST	SEGMENT
??_C@_0CF@JLAMIEIP@comms?5initial?5sleep?5time?5?$CIdef?5?$DN@ DB 'comms '
	DB	'initial sleep time (def = 500)', 00H	; `string'
CONST	ENDS
;	COMDAT ??_C@_0CG@OGNIGMBA@command_line_comms_initial_slee@
CONST	SEGMENT
??_C@_0CG@OGNIGMBA@command_line_comms_initial_slee@ DB 'command_line_comm'
	DB	's_initial_sleep_time', 00H			; `string'
CONST	ENDS
;	COMDAT ??_C@_04LMIFNHAN@cist@
CONST	SEGMENT
??_C@_04LMIFNHAN@cist@ DB 'cist', 00H			; `string'
CONST	ENDS
;	COMDAT ??_C@_0CN@OBPHLCGG@show?5comms?5stats?5?$CI0?5?$DN?5off?0?51?5?$DN?5@
CONST	SEGMENT
??_C@_0CN@OBPHLCGG@show?5comms?5stats?5?$CI0?5?$DN?5off?0?51?5?$DN?5@ DB 's'
	DB	'how comms stats (0 = off, 1 = on) (def = 0)', 00H ; `string'
CONST	ENDS
;	COMDAT ??_C@_0BB@GNLEIJLE@comms_show_stats@
CONST	SEGMENT
??_C@_0BB@GNLEIJLE@comms_show_stats@ DB 'comms_show_stats', 00H ; `string'
CONST	ENDS
;	COMDAT ??_C@_03KFINIEDC@css@
CONST	SEGMENT
??_C@_03KFINIEDC@css@ DB 'css', 00H			; `string'
CONST	ENDS
;	COMDAT ??_C@_0EG@CDFGLFFD@client?5server?5entity?5update?5fra@
CONST	SEGMENT
??_C@_0EG@CDFGLFFD@client?5server?5entity?5update?5fra@ DB 'client server'
	DB	' entity update framerate, number of iterations (def = 2)', 00H ; `string'
CONST	ENDS
;	COMDAT ??_C@_0BJ@NHPPKEEB@entity_update_frame_rate@
CONST	SEGMENT
??_C@_0BJ@NHPPKEEB@entity_update_frame_rate@ DB 'entity_update_frame_rate'
	DB	00H						; `string'
CONST	ENDS
;	COMDAT ??_C@_04GFLNAMJH@eufr@
CONST	SEGMENT
??_C@_04GFLNAMJH@eufr@ DB 'eufr', 00H			; `string'
CONST	ENDS
;	COMDAT ??_C@_0DK@LGLMIHLK@timeout?5time?5before?5removing?5de@
CONST	SEGMENT
??_C@_0DK@LGLMIHLK@timeout?5time?5before?5removing?5de@ DB 'timeout time '
	DB	'before removing dead player husks (def = 15)', 00H ; `string'
CONST	ENDS
;	COMDAT ??_C@_0O@MDPDKGLN@comms_timeout@
CONST	SEGMENT
??_C@_0O@MDPDKGLN@comms_timeout@ DB 'comms_timeout', 00H ; `string'
CONST	ENDS
;	COMDAT ??_C@_03EGLFMPOK@cto@
CONST	SEGMENT
??_C@_03EGLFMPOK@cto@ DB 'cto', 00H			; `string'
CONST	ENDS
;	COMDAT ??_C@_0FH@MIIFAAPM@packet?5throttle?5limit?0?5governs?5@
CONST	SEGMENT
??_C@_0FH@MIIFAAPM@packet?5throttle?5limit?0?5governs?5@ DB 'packet throt'
	DB	'tle limit, governs the flow rate of packets (mainly for modem'
	DB	's) (def = 10)', 00H				; `string'
CONST	ENDS
;	COMDAT ??_C@_0BM@NALIGJHG@comms_packet_throttle_limit@
CONST	SEGMENT
??_C@_0BM@NALIGJHG@comms_packet_throttle_limit@ DB 'comms_packet_throttle'
	DB	'_limit', 00H				; `string'
CONST	ENDS
;	COMDAT ??_C@_04BGMAEBME@cptl@
CONST	SEGMENT
??_C@_04BGMAEBME@cptl@ DB 'cptl', 00H			; `string'
CONST	ENDS
;	COMDAT ??_C@_0GB@HHNBPBNI@removes?5dead?5player?5husks?5when?5@
CONST	SEGMENT
??_C@_0GB@HHNBPBNI@removes?5dead?5player?5husks?5when?5@ DB 'removes dead'
	DB	' player husks when client crashes to validate connection (0 ='
	DB	' off, 1 = on) (def = 1)', 00H		; `string'
CONST	ENDS
;	COMDAT ??_C@_0CI@IGNJGFEB@command_line_comms_validate_con@
CONST	SEGMENT
??_C@_0CI@IGNJGFEB@command_line_comms_validate_con@ DB 'command_line_comm'
	DB	's_validate_connections', 00H		; `string'
CONST	ENDS
;	COMDAT ??_C@_03OJIEFEII@cvc@
CONST	SEGMENT
??_C@_03OJIEFEII@cvc@ DB 'cvc', 00H			; `string'
CONST	ENDS
;	COMDAT ??_C@_0FB@OGMNKIJF@interpolate?5helicopter?5position@
CONST	SEGMENT
??_C@_0FB@OGMNKIJF@interpolate?5helicopter?5position@ DB 'interpolate hel'
	DB	'icopter position for smoother visuals (0 = off, 1 = on) (def '
	DB	'= 1)', 00H					; `string'
CONST	ENDS
;	COMDAT ??_C@_0CI@HFLPOKNM@command_line_comms_interpolate_@
CONST	SEGMENT
??_C@_0CI@HFLPOKNM@command_line_comms_interpolate_@ DB 'command_line_comm'
	DB	's_interpolate_gunships', 00H		; `string'
CONST	ENDS
;	COMDAT ??_C@_03JKJCHFMB@cig@
CONST	SEGMENT
??_C@_03JKJCHFMB@cig@ DB 'cig', 00H			; `string'
CONST	ENDS
;	COMDAT ??_C@_0HC@LBGPFMGE@max?5update?5framerate?5for?5a?5serv@
CONST	SEGMENT
??_C@_0HC@LBGPFMGE@max?5update?5framerate?5for?5a?5serv@ DB 'max update f'
	DB	'ramerate for a server (not available for client) (n = frames/'
	DB	'second) (TCP/IP = 5, IPX = 15) (def = 5)', 00H ; `string'
CONST	ENDS
;	COMDAT ??_C@_0BA@LJCPAFBP@max_update_rate@
CONST	SEGMENT
??_C@_0BA@LJCPAFBP@max_update_rate@ DB 'max_update_rate', 00H ; `string'
CONST	ENDS
;	COMDAT ??_C@_03FIMELOPC@mur@
CONST	SEGMENT
??_C@_03FIMELOPC@mur@ DB 'mur', 00H			; `string'
CONST	ENDS
;	COMDAT ??_C@_0GD@KCGBABIA@time?5delay?5for?5comms?5to?5wait?5be@
CONST	SEGMENT
??_C@_0GD@KCGBABIA@time?5delay?5for?5comms?5to?5wait?5be@ DB 'time delay '
	DB	'for comms to wait before assuming re-requested packets was lo'
	DB	'st (n = seconds) (def = 2)', 00H		; `string'
CONST	ENDS
;	COMDAT ??_C@_0BF@DIDPCNC@comms_resend_timeout@
CONST	SEGMENT
??_C@_0BF@DIDPCNC@comms_resend_timeout@ DB 'comms_resend_timeout', 00H ; `string'
CONST	ENDS
;	COMDAT ??_C@_04JHOENKIM@crto@
CONST	SEGMENT
??_C@_04JHOENKIM@crto@ DB 'crto', 00H			; `string'
CONST	ENDS
;	COMDAT ??_C@_0FK@KMCOCINP@time?5delay?5for?5comms?5to?5wait?5fo@
CONST	SEGMENT
??_C@_0FK@KMCOCINP@time?5delay?5for?5comms?5to?5wait?5fo@ DB 'time delay '
	DB	'for comms to wait for a packet before re-requesting it (n = s'
	DB	'econds) (def = 5)', 00H			; `string'
CONST	ENDS
;	COMDAT ??_C@_0BD@FHPOEEEJ@comms_packet_timer@
CONST	SEGMENT
??_C@_0BD@FHPOEEEJ@comms_packet_timer@ DB 'comms_packet_timer', 00H ; `string'
CONST	ENDS
;	COMDAT ??_C@_03OIIKKMKM@cpt@
CONST	SEGMENT
??_C@_03OIIKKMKM@cpt@ DB 'cpt', 00H			; `string'
CONST	ENDS
;	COMDAT ??_C@_0GC@EJJLMBEI@number?5of?5times?5a?5client?5can?5re@
CONST	SEGMENT
??_C@_0GC@EJJLMBEI@number?5of?5times?5a?5client?5can?5re@ DB 'number of t'
	DB	'imes a client can re-request the same packet, increase for po'
	DB	'or connections (def = 10)', 00H		; `string'
CONST	ENDS
;	COMDAT ??_C@_0BG@EFJIAAIK@comms_rerequest_limit@
CONST	SEGMENT
??_C@_0BG@EFJIAAIK@comms_rerequest_limit@ DB 'comms_rerequest_limit', 00H ; `string'
CONST	ENDS
;	COMDAT ??_C@_03GJBFOAJL@crl@
CONST	SEGMENT
??_C@_03GJBFOAJL@crl@ DB 'crl', 00H			; `string'
CONST	ENDS
;	COMDAT ??_C@_0GB@ECJIKGAG@packet?5history?5list?5size?0?5incre@
CONST	SEGMENT
??_C@_0GB@ECJIKGAG@packet?5history?5list?5size?0?5incre@ DB 'packet histo'
	DB	'ry list size, increase if client keeps getting kicked out by '
	DB	'server (default = 1000)', 00H		; `string'
CONST	ENDS
;	COMDAT ??_C@_0BH@BEPJENHK@comms_resend_list_size@
CONST	SEGMENT
??_C@_0BH@BEPJENHK@comms_resend_list_size@ DB 'comms_resend_list_size', 00H ; `string'
CONST	ENDS
;	COMDAT ??_C@_04GDKGHFBJ@crls@
CONST	SEGMENT
??_C@_04GDKGHFBJ@crls@ DB 'crls', 00H			; `string'
CONST	ENDS
;	COMDAT ??_C@_0GB@FMBCILIL@force?5the?5comms?5to?5use?5DirectPl@
CONST	SEGMENT
??_C@_0GB@FMBCILIL@force?5the?5comms?5to?5use?5DirectPl@ DB 'force the co'
	DB	'mms to use DirectPlay guaranteed send instead of its own (0 ='
	DB	' off, 1 = on) (def = 1)', 00H		; `string'
CONST	ENDS
;	COMDAT ??_C@_0CD@PEOOMMFB@command_line_comms_guaranteed_s@
CONST	SEGMENT
??_C@_0CD@PEOOMMFB@command_line_comms_guaranteed_s@ DB 'command_line_comm'
	DB	's_guaranteed_send', 00H			; `string'
CONST	ENDS
;	COMDAT ??_C@_03LOKCIPJO@cgs@
CONST	SEGMENT
??_C@_03LOKCIPJO@cgs@ DB 'cgs', 00H			; `string'
CONST	ENDS
;	COMDAT ??_C@_0BN@EIIKLHKC@packet?5data?5size?5?$CIdef?5?$DN?5512?$CJ@
CONST	SEGMENT
??_C@_0BN@EIIKLHKC@packet?5data?5size?5?$CIdef?5?$DN?5512?$CJ@ DB 'packet'
	DB	' data size (def = 512)', 00H		; `string'
CONST	ENDS
;	COMDAT ??_C@_0BH@OHPAFBDG@comms_packet_data_size@
CONST	SEGMENT
??_C@_0BH@OHPAFBDG@comms_packet_data_size@ DB 'comms_packet_data_size', 00H ; `string'
CONST	ENDS
;	COMDAT ??_C@_04MHLMOMCK@cpds@
CONST	SEGMENT
??_C@_04MHLMOMCK@cpds@ DB 'cpds', 00H			; `string'
CONST	ENDS
;	COMDAT ??_C@_0DC@ODJAGFLP@pack?5buffer?5size?0?5similar?5to?5ab@
CONST	SEGMENT
??_C@_0DC@ODJAGFLP@pack?5buffer?5size?0?5similar?5to?5ab@ DB 'pack buffer'
	DB	' size, similar to above (def = 215040)', 00H ; `string'
CONST	ENDS
;	COMDAT ??_C@_0BH@NLHDEPGC@comms_pack_buffer_size@
CONST	SEGMENT
??_C@_0BH@NLHDEPGC@comms_pack_buffer_size@ DB 'comms_pack_buffer_size', 00H ; `string'
CONST	ENDS
;	COMDAT ??_C@_04MDDBJAJI@cpbs@
CONST	SEGMENT
??_C@_04MDDBJAJI@cpbs@ DB 'cpbs', 00H			; `string'
CONST	ENDS
;	COMDAT ??_C@_0DC@JCBDKLCD@data?5record?5size?0?5similar?5to?5ab@
CONST	SEGMENT
??_C@_0DC@JCBDKLCD@data?5record?5size?0?5similar?5to?5ab@ DB 'data record'
	DB	' size, similar to above (def = 215040)', 00H ; `string'
CONST	ENDS
;	COMDAT ??_C@_0BH@CIGKHOPA@comms_data_record_size@
CONST	SEGMENT
??_C@_0BH@CIGKHOPA@comms_data_record_size@ DB 'comms_data_record_size', 00H ; `string'
CONST	ENDS
;	COMDAT ??_C@_04GMPDCA@cdrs@
CONST	SEGMENT
??_C@_04GMPDCA@cdrs@ DB 'cdrs', 00H			; `string'
CONST	ENDS
;	COMDAT ??_C@_0EM@FNGHGPPM@connection?5receive?5size?0?5initia@
CONST	SEGMENT
??_C@_0EM@FNGHGPPM@connection?5receive?5size?0?5initia@ DB 'connection re'
	DB	'ceive size, initial guess of campaign data size (def = 215040'
	DB	')', 00H					; `string'
CONST	ENDS
;	COMDAT ??_C@_0BO@HDANGG@comms_connection_receive_size@
CONST	SEGMENT
??_C@_0BO@HDANGG@comms_connection_receive_size@ DB 'comms_connection_rece'
	DB	'ive_size', 00H				; `string'
CONST	ENDS
;	COMDAT ??_C@_04JNLLMLJJ@ccrs@
CONST	SEGMENT
??_C@_04JNLLMLJJ@ccrs@ DB 'ccrs', 00H			; `string'
CONST	ENDS
;	COMDAT ??_C@_0DN@FNPHGLOE@secondary?5masterserver?5internet@
CONST	SEGMENT
??_C@_0DN@FNPHGLOE@secondary?5masterserver?5internet@ DB 'secondary maste'
	DB	'rserver internet address (def = eech.dhs.org)', 00H ; `string'
CONST	ENDS
;	COMDAT ??_C@_0BJ@HEDCLCJE@secondary_server_setting@
CONST	SEGMENT
??_C@_0BJ@HEDCLCJE@secondary_server_setting@ DB 'secondary_server_setting'
	DB	00H						; `string'
CONST	ENDS
;	COMDAT ??_C@_03PFJENDKN@sss@
CONST	SEGMENT
??_C@_03PFJENDKN@sss@ DB 'sss', 00H			; `string'
CONST	ENDS
;	COMDAT ??_C@_0DJ@IKNCBEMG@primary?5masterserver?5internet?5a@
CONST	SEGMENT
??_C@_0DJ@IKNCBEMG@primary?5masterserver?5internet?5a@ DB 'primary master'
	DB	'server internet address (def = hoxdna.org)', 00H ; `string'
CONST	ENDS
;	COMDAT ??_C@_0BH@EHMGMKM@primary_server_setting@
CONST	SEGMENT
??_C@_0BH@EHMGMKM@primary_server_setting@ DB 'primary_server_setting', 00H ; `string'
CONST	ENDS
;	COMDAT ??_C@_03OHCBHMED@pss@
CONST	SEGMENT
??_C@_03OHCBHMED@pss@ DB 'pss', 00H			; `string'
CONST	ENDS
;	COMDAT ??_C@_0GA@NGABIKKG@Report?5game?5to?5internet?5masters@
CONST	SEGMENT
??_C@_0GA@NGABIKKG@Report?5game?5to?5internet?5masters@ DB 'Report game t'
	DB	'o internet masterserver (0 = off/private game, 1 = on) (def ='
	DB	' 0) (recommended = 1)', 00H			; `string'
CONST	ENDS
;	COMDAT ??_C@_09HNMDMGCL@usemaster@
CONST	SEGMENT
??_C@_09HNMDMGCL@usemaster@ DB 'usemaster', 00H		; `string'
CONST	ENDS
;	COMDAT ??_C@_0EL@NGDOIPFB@IP?5address?5?$CITCP?1IP?5address?$CJ?5to?5@
CONST	SEGMENT
??_C@_0EL@NGDOIPFB@IP?5address?5?$CITCP?1IP?5address?$CJ?5to?5@ DB 'IP ad'
	DB	'dress (TCP/IP address) to connect to. A host can leave out th'
	DB	'e value.', 00H				; `string'
CONST	ENDS
;	COMDAT ??_C@_0L@MJNBCAKM@ip_address@
CONST	SEGMENT
??_C@_0L@MJNBCAKM@ip_address@ DB 'ip_address', 00H	; `string'
CONST	ENDS
;	COMDAT ??_C@_03LAICKKNM@ipa@
CONST	SEGMENT
??_C@_03LAICKKNM@ipa@ DB 'ipa', 00H			; `string'
CONST	ENDS
;	COMDAT ??_C@_0DK@EBKJDJNO@maximum?5number?5of?5players?5in?5a?5@
CONST	SEGMENT
??_C@_0DK@EBKJDJNO@maximum?5number?5of?5players?5in?5a?5@ DB 'maximum num'
	DB	'ber of players in a multiplayer game (def = 4)', 00H ; `string'
CONST	ENDS
;	COMDAT ??_C@_0L@PCNFODNF@maxplayers@
CONST	SEGMENT
??_C@_0L@PCNFODNF@maxplayers@ DB 'maxplayers', 00H	; `string'
CONST	ENDS
;	COMDAT ??_C@_0BB@OOIGCBMH@?$FLCommunications?$FN@
CONST	SEGMENT
??_C@_0BB@OOIGCBMH@?$FLCommunications?$FN@ DB '[Communications]', 00H ; `string'
CONST	ENDS
;	COMDAT ??_C@_02IFGANFKF@25@
CONST	SEGMENT
??_C@_02IFGANFKF@25@ DB '25', 00H			; `string'
CONST	ENDS
;	COMDAT ??_C@_0FC@MIHEPBPG@for?5more?5information?5see?5http?3?1@
CONST	SEGMENT
??_C@_0FC@MIHEPBPG@for?5more?5information?5see?5http?3?1@ DB 'for more in'
	DB	'formation see http://www.eechcentral.com/wiki/index.php?title'
	DB	'=Eech.ini', 00H				; `string'
CONST	ENDS
;	COMDAT ??_C@_0DH@LMHBBKLK@for?5more?5information?5see?5readme@
CONST	SEGMENT
??_C@_0DH@LMHBBKLK@for?5more?5information?5see?5readme@ DB 'for more info'
	DB	'rmation see readme file in game directory', 00H ; `string'
CONST	ENDS
;	COMDAT ??_C@_0BG@EKJIBFD@?$FLCommandline?5options?$FN@
CONST	SEGMENT
??_C@_0BG@EKJIBFD@?$FLCommandline?5options?$FN@ DB '[Commandline options]'
	DB	00H						; `string'
CONST	ENDS
;	COMDAT ??_C@_03HMCGBKKA@MAP@
CONST	SEGMENT
??_C@_03HMCGBKKA@MAP@ DB 'MAP', 00H			; `string'
CONST	ENDS
;	COMDAT ??_C@_03IPIGFGOJ@KEY@
CONST	SEGMENT
??_C@_03IPIGFGOJ@KEY@ DB 'KEY', 00H			; `string'
CONST	ENDS
;	COMDAT ??_C@_05FBNMMBFH@ICONS@
CONST	SEGMENT
??_C@_05FBNMMBFH@ICONS@ DB 'ICONS', 00H			; `string'
CONST	ENDS
;	COMDAT ??_C@_02DJGKEECL@?4?4@
CONST	SEGMENT
??_C@_02DJGKEECL@?4?4@ DB '..', 00H			; `string'
CONST	ENDS
;	COMDAT ??_C@_01LFCBOECM@?4@
CONST	SEGMENT
??_C@_01LFCBOECM@?4@ DB '.', 00H			; `string'
CONST	ENDS
;	COMDAT ??_C@_0BI@ELOAKOAC@GRAPHICS?2UI?2COHOKUM?2?$CK?4?$CK@
CONST	SEGMENT
??_C@_0BI@ELOAKOAC@GRAPHICS?2UI?2COHOKUM?2?$CK?4?$CK@ DB 'GRAPHICS\UI\COH'
	DB	'OKUM\*.*', 00H				; `string'
CONST	ENDS
;	COMDAT ??_C@_09LBAPNFMM@?$CFi?0?$CFi?0?$CFi?$DL@
CONST	SEGMENT
??_C@_09LBAPNFMM@?$CFi?0?$CFi?0?$CFi?$DL@ DB '%i,%i,%i;', 00H ; `string'
CONST	ENDS
;	COMDAT ??_C@_08NNEEACKF@?$CFu?0?$CFu?0?$CFu@
CONST	SEGMENT
??_C@_08NNEEACKF@?$CFu?0?$CFu?0?$CFu@ DB '%u,%u,%u', 00H ; `string'
CONST	ENDS
;	COMDAT ??_C@_0N@JMLAMHEK@GWUT1140?4CSV@
CONST	SEGMENT
??_C@_0N@JMLAMHEK@GWUT1140?4CSV@ DB 'GWUT1140.CSV', 00H	; `string'
CONST	ENDS
;	COMDAT ??_C@_0M@MLCONGPP@?$CFd?0?$CFd?0?$CFd?0?$CFd@
CONST	SEGMENT
??_C@_0M@MLCONGPP@?$CFd?0?$CFd?0?$CFd?0?$CFd@ DB '%d,%d,%d,%d', 00H ; `string'
CONST	ENDS
;	COMDAT ??_C@_01ICJEACDI@?$DL@
CONST	SEGMENT
??_C@_01ICJEACDI@?$DL@ DB ';', 00H			; `string'
CONST	ENDS
;	COMDAT ??_C@_04HGGBINEM@?$CFs?$CFd@
CONST	SEGMENT
??_C@_04HGGBINEM@?$CFs?$CFd@ DB '%s%d', 00H		; `string'
CONST	ENDS
;	COMDAT ??_C@_01IHBHIGKO@?0@
CONST	SEGMENT
??_C@_01IHBHIGKO@?0@ DB ',', 00H			; `string'
CONST	ENDS
;	COMDAT ??_C@_01FHEEJDEE@A@
CONST	SEGMENT
??_C@_01FHEEJDEE@A@ DB 'A', 00H				; `string'
CONST	ENDS
;	COMDAT ??_C@_02DPKJAMEF@?$CFd@
CONST	SEGMENT
??_C@_02DPKJAMEF@?$CFd@ DB '%d', 00H			; `string'
CONST	ENDS
;	COMDAT ??_C@_0CE@NHCLKNPG@?$CFd?0?$CFd?0?$CFd?0?$CFd?0?$CFd?0?$CFd?0?$CFd?0?$CFd?0?$CFd?0?$CFd?0?$CF@
CONST	SEGMENT
??_C@_0CE@NHCLKNPG@?$CFd?0?$CFd?0?$CFd?0?$CFd?0?$CFd?0?$CFd?0?$CFd?0?$CFd?0?$CFd?0?$CFd?0?$CF@ DB '%'
	DB	'd,%d,%d,%d,%d,%d,%d,%d,%d,%d,%d,%d', 00H	; `string'
CONST	ENDS
;	COMDAT ??_C@_0BE@OOKGJLHB@?$CF?43f?0?$CF?43f?0?$CF?43f?0?$CF?43f@
CONST	SEGMENT
??_C@_0BE@OOKGJLHB@?$CF?43f?0?$CF?43f?0?$CF?43f?0?$CF?43f@ DB '%.3f,%.3f,'
	DB	'%.3f,%.3f', 00H				; `string'
CONST	ENDS
;	COMDAT ??_C@_0M@JJJBFJKB@?$CFf?0?$CFf?0?$CFf?0?$CFf@
CONST	SEGMENT
??_C@_0M@JJJBFJKB@?$CFf?0?$CFf?0?$CFf?0?$CFf@ DB '%f,%f,%f,%f', 00H ; `string'
CONST	ENDS
;	COMDAT ??_C@_05KJDOJDAE@?$CF3?41f@
CONST	SEGMENT
??_C@_05KJDOJDAE@?$CF3?41f@ DB '%3.1f', 00H		; `string'
CONST	ENDS
;	COMDAT ??_C@_02IKAHHCAI@?$CFi@
CONST	SEGMENT
??_C@_02IKAHHCAI@?$CFi@ DB '%i', 00H			; `string'
	ORG $+2
?options@@3QBUconfig_option@@B DD 00H			; options
	DD	00H
	DD	FLAT:??_C@_0BG@EKJIBFD@?$FLCommandline?5options?$FN@
	DD	00H
	DD	00H
	DD	00H
	DD	00H
	DD	00H
	DD	00H
	DD	00H
	DD	00H
	DD	FLAT:??_C@_0DH@LMHBBKLK@for?5more?5information?5see?5readme@
	DD	00H
	DD	00H
	DD	00H
	DD	00H
	DD	00H
	DD	00H
	DD	00H
	DD	00H
	DD	FLAT:??_C@_0FC@MIHEPBPG@for?5more?5information?5see?5http?3?1@
	DD	00H
	DD	00H
	DD	00H
	DD	00H
	DD	00H
	DD	00H
	DD	00H
	DD	00H
	DD	FLAT:??_C@_00CNPNBAHC@@
	DD	00H
	DD	00H
	DD	00H
	DD	00H
	DD	00H
	DD	00H
	DD	00H
	DD	FLAT:??_C@_02IFGANFKF@25@
	DD	FLAT:??_C@_0BB@OOIGCBMH@?$FLCommunications?$FN@
	DD	00H
	DD	00H
	DD	00H
	DD	00H
	DD	00H
	DD	00H
	DD	FLAT:??_C@_0L@PCNFODNF@maxplayers@
	DD	FLAT:??_C@_00CNPNBAHC@@
	DD	FLAT:??_C@_0DK@EBKJDJNO@maximum?5number?5of?5players?5in?5a?5@
	DD	FLAT:?command_line_maxplayers@@3HA
	DD	00H
	DD	00H
	DD	00H
	DD	FLAT:?set_int@@YGXPBUconfig_option@@PBD@Z
	DD	FLAT:?get_int@@YGXPBUconfig_option@@PAD@Z
	DD	FLAT:??_C@_03LAICKKNM@ipa@
	DD	FLAT:??_C@_0L@MJNBCAKM@ip_address@
	DD	FLAT:??_C@_0EL@NGDOIPFB@IP?5address?5?$CITCP?1IP?5address?$CJ?5to?5@
	DD	00H
	DD	00H
	DD	FLAT:?command_line_ip_address@@3PADA
	DD	080H
	DD	FLAT:?set_ip_address@@YGXPBUconfig_option@@PBD@Z
	DD	FLAT:?get_string@@YGXPBUconfig_option@@PAD@Z
	DD	FLAT:??_C@_09HNMDMGCL@usemaster@
	DD	FLAT:??_C@_00CNPNBAHC@@
	DD	FLAT:??_C@_0GA@NGABIKKG@Report?5game?5to?5internet?5masters@
	DD	FLAT:?command_line_report_to_masterserver@@3HA
	DD	00H
	DD	00H
	DD	00H
	DD	FLAT:?set_int@@YGXPBUconfig_option@@PBD@Z
	DD	FLAT:?get_int@@YGXPBUconfig_option@@PAD@Z
	DD	FLAT:??_C@_03OHCBHMED@pss@
	DD	FLAT:??_C@_0BH@EHMGMKM@primary_server_setting@
	DD	FLAT:??_C@_0DJ@IKNCBEMG@primary?5masterserver?5internet?5a@
	DD	00H
	DD	00H
	DD	FLAT:?command_line_primary_server_setting@@3PADA
	DD	080H
	DD	FLAT:?set_string@@YGXPBUconfig_option@@PBD@Z
	DD	FLAT:?get_string@@YGXPBUconfig_option@@PAD@Z
	DD	FLAT:??_C@_03PFJENDKN@sss@
	DD	FLAT:??_C@_0BJ@HEDCLCJE@secondary_server_setting@
	DD	FLAT:??_C@_0DN@FNPHGLOE@secondary?5masterserver?5internet@
	DD	00H
	DD	00H
	DD	FLAT:?command_line_secondary_server_setting@@3PADA
	DD	080H
	DD	FLAT:?set_string@@YGXPBUconfig_option@@PBD@Z
	DD	FLAT:?get_string@@YGXPBUconfig_option@@PAD@Z
	DD	FLAT:??_C@_04JNLLMLJJ@ccrs@
	DD	FLAT:??_C@_0BO@HDANGG@comms_connection_receive_size@
	DD	FLAT:??_C@_0EM@FNGHGPPM@connection?5receive?5size?0?5initia@
	DD	FLAT:?command_line_comms_connection_receive_size@@3HA
	DD	00H
	DD	00H
	DD	00H
	DD	FLAT:?set_int@@YGXPBUconfig_option@@PBD@Z
	DD	FLAT:?get_int@@YGXPBUconfig_option@@PAD@Z
	DD	FLAT:??_C@_04GMPDCA@cdrs@
	DD	FLAT:??_C@_0BH@CIGKHOPA@comms_data_record_size@
	DD	FLAT:??_C@_0DC@JCBDKLCD@data?5record?5size?0?5similar?5to?5ab@
	DD	FLAT:?command_line_comms_data_record_size@@3HA
	DD	00H
	DD	00H
	DD	00H
	DD	FLAT:?set_int@@YGXPBUconfig_option@@PBD@Z
	DD	FLAT:?get_int@@YGXPBUconfig_option@@PAD@Z
	DD	FLAT:??_C@_04MDDBJAJI@cpbs@
	DD	FLAT:??_C@_0BH@NLHDEPGC@comms_pack_buffer_size@
	DD	FLAT:??_C@_0DC@ODJAGFLP@pack?5buffer?5size?0?5similar?5to?5ab@
	DD	FLAT:?command_line_comms_pack_buffer_size@@3HA
	DD	00H
	DD	00H
	DD	00H
	DD	FLAT:?set_int@@YGXPBUconfig_option@@PBD@Z
	DD	FLAT:?get_int@@YGXPBUconfig_option@@PAD@Z
	DD	FLAT:??_C@_04MHLMOMCK@cpds@
	DD	FLAT:??_C@_0BH@OHPAFBDG@comms_packet_data_size@
	DD	FLAT:??_C@_0BN@EIIKLHKC@packet?5data?5size?5?$CIdef?5?$DN?5512?$CJ@
	DD	FLAT:?command_line_comms_packet_data_size@@3HA
	DD	00H
	DD	00H
	DD	00H
	DD	FLAT:?set_int@@YGXPBUconfig_option@@PBD@Z
	DD	FLAT:?get_int@@YGXPBUconfig_option@@PAD@Z
	DD	FLAT:??_C@_03LOKCIPJO@cgs@
	DD	FLAT:??_C@_0CD@PEOOMMFB@command_line_comms_guaranteed_s@
	DD	FLAT:??_C@_0GB@FMBCILIL@force?5the?5comms?5to?5use?5DirectPl@
	DD	FLAT:?command_line_comms_guaranteed_send@@3HA
	DD	00H
	DD	00H
	DD	00H
	DD	FLAT:?set_guarsend@@YGXPBUconfig_option@@PBD@Z
	DD	FLAT:?get_int@@YGXPBUconfig_option@@PAD@Z
	DD	FLAT:??_C@_04GDKGHFBJ@crls@
	DD	FLAT:??_C@_0BH@BEPJENHK@comms_resend_list_size@
	DD	FLAT:??_C@_0GB@ECJIKGAG@packet?5history?5list?5size?0?5incre@
	DD	FLAT:?command_line_comms_resend_list_size@@3HA
	DD	00H
	DD	00H
	DD	00H
	DD	FLAT:?set_int@@YGXPBUconfig_option@@PBD@Z
	DD	FLAT:?get_int@@YGXPBUconfig_option@@PAD@Z
	DD	FLAT:??_C@_03GJBFOAJL@crl@
	DD	FLAT:??_C@_0BG@EFJIAAIK@comms_rerequest_limit@
	DD	FLAT:??_C@_0GC@EJJLMBEI@number?5of?5times?5a?5client?5can?5re@
	DD	FLAT:?command_line_comms_packet_rerequest_limit@@3HA
	DD	00H
	DD	00H
	DD	00H
	DD	FLAT:?set_int@@YGXPBUconfig_option@@PBD@Z
	DD	FLAT:?get_int@@YGXPBUconfig_option@@PAD@Z
	DD	FLAT:??_C@_03OIIKKMKM@cpt@
	DD	FLAT:??_C@_0BD@FHPOEEEJ@comms_packet_timer@
	DD	FLAT:??_C@_0FK@KMCOCINP@time?5delay?5for?5comms?5to?5wait?5fo@
	DD	00H
	DD	FLAT:?command_line_comms_packet_resend_timer@@3MA
	DD	00H
	DD	00H
	DD	FLAT:?set_float@@YGXPBUconfig_option@@PBD@Z
	DD	FLAT:?get_float@@YGXPBUconfig_option@@PAD@Z
	DD	FLAT:??_C@_04JHOENKIM@crto@
	DD	FLAT:??_C@_0BF@DIDPCNC@comms_resend_timeout@
	DD	FLAT:??_C@_0GD@KCGBABIA@time?5delay?5for?5comms?5to?5wait?5be@
	DD	00H
	DD	FLAT:?command_line_comms_resend_timeout@@3MA
	DD	00H
	DD	00H
	DD	FLAT:?set_float@@YGXPBUconfig_option@@PBD@Z
	DD	FLAT:?get_float@@YGXPBUconfig_option@@PAD@Z
	DD	FLAT:??_C@_03FIMELOPC@mur@
	DD	FLAT:??_C@_0BA@LJCPAFBP@max_update_rate@
	DD	FLAT:??_C@_0HC@LBGPFMGE@max?5update?5framerate?5for?5a?5serv@
	DD	FLAT:?command_line_max_game_update_rate@@3HA
	DD	00H
	DD	00H
	DD	00H
	DD	FLAT:?set_int@@YGXPBUconfig_option@@PBD@Z
	DD	FLAT:?get_int@@YGXPBUconfig_option@@PAD@Z
	DD	FLAT:??_C@_03JKJCHFMB@cig@
	DD	FLAT:??_C@_0CI@HFLPOKNM@command_line_comms_interpolate_@
	DD	FLAT:??_C@_0FB@OGMNKIJF@interpolate?5helicopter?5position@
	DD	FLAT:?command_line_comms_interpolate_gunships@@3HA
	DD	00H
	DD	00H
	DD	00H
	DD	FLAT:?set_int@@YGXPBUconfig_option@@PBD@Z
	DD	FLAT:?get_int@@YGXPBUconfig_option@@PAD@Z
	DD	FLAT:??_C@_03OJIEFEII@cvc@
	DD	FLAT:??_C@_0CI@IGNJGFEB@command_line_comms_validate_con@
	DD	FLAT:??_C@_0GB@HHNBPBNI@removes?5dead?5player?5husks?5when?5@
	DD	FLAT:?command_line_comms_validate_connections@@3HA
	DD	00H
	DD	00H
	DD	00H
	DD	FLAT:?set_int@@YGXPBUconfig_option@@PBD@Z
	DD	FLAT:?get_int@@YGXPBUconfig_option@@PAD@Z
	DD	FLAT:??_C@_04BGMAEBME@cptl@
	DD	FLAT:??_C@_0BM@NALIGJHG@comms_packet_throttle_limit@
	DD	FLAT:??_C@_0FH@MIIFAAPM@packet?5throttle?5limit?0?5governs?5@
	DD	FLAT:?command_line_comms_packet_throttle_limit@@3HA
	DD	00H
	DD	00H
	DD	00H
	DD	FLAT:?set_int@@YGXPBUconfig_option@@PBD@Z
	DD	FLAT:?get_int@@YGXPBUconfig_option@@PAD@Z
	DD	FLAT:??_C@_03EGLFMPOK@cto@
	DD	FLAT:??_C@_0O@MDPDKGLN@comms_timeout@
	DD	FLAT:??_C@_0DK@LGLMIHLK@timeout?5time?5before?5removing?5de@
	DD	FLAT:?command_line_comms_timeout@@3HA
	DD	00H
	DD	00H
	DD	00H
	DD	FLAT:?set_int@@YGXPBUconfig_option@@PBD@Z
	DD	FLAT:?get_int@@YGXPBUconfig_option@@PAD@Z
	DD	FLAT:??_C@_04GFLNAMJH@eufr@
	DD	FLAT:??_C@_0BJ@NHPPKEEB@entity_update_frame_rate@
	DD	FLAT:??_C@_0EG@CDFGLFFD@client?5server?5entity?5update?5fra@
	DD	FLAT:?command_line_entity_update_frame_rate@@3HA
	DD	00H
	DD	00H
	DD	00H
	DD	FLAT:?set_int@@YGXPBUconfig_option@@PBD@Z
	DD	FLAT:?get_int@@YGXPBUconfig_option@@PAD@Z
	DD	FLAT:??_C@_03KFINIEDC@css@
	DD	FLAT:??_C@_0BB@GNLEIJLE@comms_show_stats@
	DD	FLAT:??_C@_0CN@OBPHLCGG@show?5comms?5stats?5?$CI0?5?$DN?5off?0?51?5?$DN?5@
	DD	FLAT:?command_line_comms_show_stats@@3HA
	DD	00H
	DD	00H
	DD	00H
	DD	FLAT:?set_int@@YGXPBUconfig_option@@PBD@Z
	DD	FLAT:?get_int@@YGXPBUconfig_option@@PAD@Z
	DD	FLAT:??_C@_04LMIFNHAN@cist@
	DD	FLAT:??_C@_0CG@OGNIGMBA@command_line_comms_initial_slee@
	DD	FLAT:??_C@_0CF@JLAMIEIP@comms?5initial?5sleep?5time?5?$CIdef?5?$DN@
	DD	FLAT:?command_line_comms_initial_sleep_time@@3HA
	DD	00H
	DD	00H
	DD	00H
	DD	FLAT:?set_int@@YGXPBUconfig_option@@PBD@Z
	DD	FLAT:?get_int@@YGXPBUconfig_option@@PAD@Z
	DD	FLAT:??_C@_07EJDDFFME@servlog@
	DD	FLAT:??_C@_0BE@KALGAMMO@server_log_filename@
	DD	FLAT:??_C@_0BI@DFEBLLHJ@filename?5for?5server?5log@
	DD	00H
	DD	00H
	DD	FLAT:?command_line_server_log_filename@@3PADA
	DD	080H
	DD	FLAT:?set_string@@YGXPBUconfig_option@@PBD@Z
	DD	FLAT:?get_string@@YGXPBUconfig_option@@PAD@Z
	DD	00H
	DD	00H
	DD	FLAT:??_C@_00CNPNBAHC@@
	DD	00H
	DD	00H
	DD	00H
	DD	00H
	DD	00H
	DD	00H
	DD	00H
	DD	00H
	DD	FLAT:??_C@_0BD@NOECCOAF@?$FLDedicated?5server?$FN@
	DD	00H
	DD	00H
	DD	00H
	DD	00H
	DD	00H
	DD	00H
	DD	00H
	DD	00H
	DD	FLAT:??_C@_0FK@PNICFGF@for?5more?5information?5see?5http?3?1@
	DD	00H
	DD	00H
	DD	00H
	DD	00H
	DD	00H
	DD	00H
	DD	FLAT:??_C@_09BJOAODLF@dedicated@
	DD	FLAT:??_C@_0CE@OIAINFCD@command_line_comms_dedicated_se@
	DD	FLAT:??_C@_0DC@MGLKACHL@dedicated?5server?5mode?5?$CI0?5?$DN?5off?0@
	DD	FLAT:?command_line_comms_dedicated_server@@3HA
	DD	00H
	DD	00H
	DD	00H
	DD	FLAT:?set_int@@YGXPBUconfig_option@@PBD@Z
	DD	FLAT:?get_int@@YGXPBUconfig_option@@PAD@Z
	DD	FLAT:??_C@_09FMLHLDDN@pauseserv@
	DD	FLAT:??_C@_0N@OKJLAKDK@pause_server@
	DD	FLAT:??_C@_0EB@PHLGELMO@pause?5server?5if?5no?5clients?5conn@
	DD	FLAT:?command_line_pause_server@@3HA
	DD	00H
	DD	00H
	DD	00H
	DD	FLAT:?set_int@@YGXPBUconfig_option@@PBD@Z
	DD	FLAT:?get_int@@YGXPBUconfig_option@@PAD@Z
	DD	FLAT:??_C@_09FNPACPMG@game_type@
	DD	FLAT:??_C@_0DB@ILMNBEPA@command_line_game_initialisatio@
	DD	FLAT:??_C@_0EM@DLECEAKP@available?5game?5types?5?$CI1?5?$DN?5Freef@
	DD	FLAT:?command_line_game_initialisation_phase_game_type@@3HA
	DD	00H
	DD	00H
	DD	00H
	DD	FLAT:?set_int@@YGXPBUconfig_option@@PBD@Z
	DD	FLAT:?get_int@@YGXPBUconfig_option@@PAD@Z
	DD	FLAT:??_C@_0N@EPIPLMLE@gunship_type@
	DD	FLAT:??_C@_0DE@LLDIGGJ@command_line_game_initialisatio@
	DD	FLAT:??_C@_0EO@PAINFOLC@available?5gunship?5types?5?$CI0?5?$DN?5Ap@
	DD	FLAT:?command_line_game_initialisation_phase_gunship_type@@3HA
	DD	00H
	DD	00H
	DD	00H
	DD	FLAT:?set_int@@YGXPBUconfig_option@@PBD@Z
	DD	FLAT:?get_int@@YGXPBUconfig_option@@PAD@Z
	DD	FLAT:??_C@_04LNEJFJGI@path@
	DD	FLAT:??_C@_0CM@GNKINAIL@command_line_game_initialisatio@
	DD	FLAT:??_C@_0CF@HKEFKFGB@path?5to?5map?1campaign?1skirmish?5f@
	DD	00H
	DD	00H
	DD	FLAT:?command_line_game_initialisation_phase_path@@3PADA
	DD	080H
	DD	FLAT:?set_string@@YGXPBUconfig_option@@PBD@Z
	DD	FLAT:?get_string@@YGXPBUconfig_option@@PAD@Z
	DD	00H
	DD	00H
	DD	FLAT:??_C@_00CNPNBAHC@@
	DD	00H
	DD	00H
	DD	00H
	DD	00H
	DD	00H
	DD	00H
	DD	00H
	DD	00H
	DD	FLAT:??_C@_0BI@CNGOGFMH@?$FLGraphics?5and?5Textures?$FN@
	DD	00H
	DD	00H
	DD	00H
	DD	00H
	DD	00H
	DD	00H
	DD	FLAT:??_C@_04CCHMIAJE@cbar@
	DD	FLAT:??_C@_0BP@CJIEPEGK@city_block_approximation_range@
	DD	FLAT:??_C@_0DL@PFBNDDJO@distance?5that?5city?5blocks?5resol@
	DD	00H
	DD	FLAT:?command_line_city_block_approximation_range@@3MA
	DD	00H
	DD	00H
	DD	FLAT:?set_float@@YGXPBUconfig_option@@PBD@Z
	DD	FLAT:?get_float@@YGXPBUconfig_option@@PAD@Z
	DD	FLAT:??_C@_02EIPGLLEK@fs@
	DD	FLAT:??_C@_0M@FINCDFND@full_screen@
	DD	FLAT:??_C@_0ED@OOMNAGMK@full?5screen?5mode?5?$CI0?5?$DN?5window?5mo@
	DD	FLAT:?command_line_full_screen@@3HA
	DD	00H
	DD	00H
	DD	00H
	DD	FLAT:?set_int@@YGXPBUconfig_option@@PBD@Z
	DD	FLAT:?get_int@@YGXPBUconfig_option@@PAD@Z
	DD	FLAT:??_C@_03EGKEKDNL@mfr@
	DD	FLAT:??_C@_0P@MFBEDKI@max_frame_rate@
	DD	FLAT:??_C@_0DG@BDNELBLN@maximum?5visual?5frame?5rate?5?$CIn?5?$DN?5@
	DD	FLAT:?command_line_max_frame_rate@@3HA
	DD	00H
	DD	00H
	DD	00H
	DD	FLAT:?set_int@@YGXPBUconfig_option@@PBD@Z
	DD	FLAT:?get_int@@YGXPBUconfig_option@@PAD@Z
	DD	FLAT:??_C@_05IKEILDGM@32bit@
	DD	FLAT:??_C@_00CNPNBAHC@@
	DD	FLAT:??_C@_0CN@CEDMCMII@32?9bit?5rendering?5?$CI0?5?$DN?5off?0?51?5?$DN?5@
	DD	00H
	DD	00H
	DD	00H
	DD	00H
	DD	FLAT:?set_32bit@@YGXPBUconfig_option@@PBD@Z
	DD	FLAT:?get_32bit@@YGXPBUconfig_option@@PAD@Z
	DD	FLAT:??_C@_03BJGEKABP@nrt@
	DD	FLAT:??_C@_00CNPNBAHC@@
	DD	FLAT:??_C@_0HC@CEECNPNA@rendering?5to?5texture?5?$CI0?5?$DN?5enabl@
	DD	FLAT:?command_line_no_render_to_texture@@3HA
	DD	00H
	DD	00H
	DD	00H
	DD	FLAT:?set_int@@YGXPBUconfig_option@@PBD@Z
	DD	FLAT:?get_int@@YGXPBUconfig_option@@PAD@Z
	DD	FLAT:??_C@_05IPNCFKA@notnl@
	DD	FLAT:??_C@_00CNPNBAHC@@
	DD	FLAT:??_C@_0DM@MCAFODLO@GeForce?5?$CCTnL?$CC?5support?5?$CI0?5?$DN?5enab@
	DD	FLAT:?command_line_no_hardware_tnl@@3HA
	DD	00H
	DD	00H
	DD	00H
	DD	FLAT:?set_int@@YGXPBUconfig_option@@PBD@Z
	DD	FLAT:?get_int@@YGXPBUconfig_option@@PAD@Z
	DD	FLAT:??_C@_0BA@IPIOEDN@nodx9zbufferfix@
	DD	FLAT:??_C@_00CNPNBAHC@@
	DD	FLAT:??_C@_0FI@BGOEMMEM@Disable?5the?5dx9?5zbuffer?5fix?5int@
	DD	FLAT:?command_line_no_dx9zbuffer_fix@@3HA
	DD	00H
	DD	00H
	DD	00H
	DD	FLAT:?set_int@@YGXPBUconfig_option@@PBD@Z
	DD	FLAT:?get_int@@YGXPBUconfig_option@@PAD@Z
	DD	FLAT:??_C@_07IFJLPCEC@3dreset@
	DD	FLAT:??_C@_00CNPNBAHC@@
	DD	FLAT:??_C@_0DP@ELEHJHDO@reset?5screen?5resolution?5to?5640x@
	DD	00H
	DD	00H
	DD	00H
	DD	00H
	DD	FLAT:?set_3dreset@@YGXPBUconfig_option@@PBD@Z
	DD	FLAT:?get_zero@@YGXPBUconfig_option@@PAD@Z
	DD	FLAT:??_C@_04HIEPIEHK@dxtm@
	DD	FLAT:??_C@_0BL@NFFNIIMF@directx_texture_management@
	DD	FLAT:??_C@_0GN@EGBGFDBM@DirectX?5texture?5management?5?$CIsho@
	DD	FLAT:?command_line_d3d_use_texture_management@@3HA
	DD	00H
	DD	00H
	DD	00H
	DD	FLAT:?set_int@@YGXPBUconfig_option@@PBD@Z
	DD	FLAT:?get_int@@YGXPBUconfig_option@@PAD@Z
	DD	FLAT:??_C@_02GAJDKOPE@cg@
	DD	FLAT:??_C@_0P@GGKKAPAO@clean_graphics@
	DD	FLAT:??_C@_0EI@NMIEJBDE@?$CIclean?5graphics?$CJ?5re?9installs?5gr@
	DD	FLAT:?command_line_clean_graphics@@3HA
	DD	00H
	DD	00H
	DD	00H
	DD	FLAT:?set_int@@YGXPBUconfig_option@@PBD@Z
	DD	FLAT:?get_zero@@YGXPBUconfig_option@@PAD@Z
	DD	FLAT:??_C@_07JKIHKJOO@palette@
	DD	FLAT:??_C@_00CNPNBAHC@@
	DD	FLAT:??_C@_0EI@JGIMOBDC@use?5textures?4pal?5?$CIif?5videocard?5@
	DD	FLAT:?d3d_allow_paletted_textures@@3HA
	DD	00H
	DD	00H
	DD	00H
	DD	FLAT:?set_int@@YGXPBUconfig_option@@PBD@Z
	DD	FLAT:?get_int@@YGXPBUconfig_option@@PAD@Z
	DD	FLAT:??_C@_0M@DGDLBBPO@eofullrange@
	DD	FLAT:??_C@_00CNPNBAHC@@
	DD	FLAT:??_C@_0EP@HCIMLKFJ@eo?5ranges?5near?5to?5max?5fog?5dista@
	DD	FLAT:?command_line_eo_full_range@@3HA
	DD	00H
	DD	00H
	DD	00H
	DD	FLAT:?set_int@@YGXPBUconfig_option@@PBD@Z
	DD	FLAT:?get_int@@YGXPBUconfig_option@@PAD@Z
	DD	FLAT:??_C@_0BE@BNMNHEIC@render?9tree?9shadows@
	DD	FLAT:??_C@_00CNPNBAHC@@
	DD	FLAT:??_C@_0L@PNPKMOCO@1?$DNyes?50?$DNno@
	DD	FLAT:?command_line_render_tree_shadows@@3HA
	DD	00H
	DD	00H
	DD	00H
	DD	FLAT:?set_int@@YGXPBUconfig_option@@PBD@Z
	DD	FLAT:?get_int@@YGXPBUconfig_option@@PAD@Z
	DD	FLAT:??_C@_09LPJKNJNN@trees?9fog@
	DD	FLAT:??_C@_00CNPNBAHC@@
	DD	FLAT:??_C@_0HI@BJOEEENA@fog?5affects?5groups?5of?5trees?5?$CI0?5@
	DD	FLAT:?command_line_trees_fog@@3HA
	DD	00H
	DD	00H
	DD	00H
	DD	FLAT:?set_int@@YGXPBUconfig_option@@PBD@Z
	DD	FLAT:?get_int@@YGXPBUconfig_option@@PAD@Z
	DD	00H
	DD	00H
	DD	FLAT:??_C@_00CNPNBAHC@@
	DD	00H
	DD	00H
	DD	00H
	DD	00H
	DD	00H
	DD	00H
	DD	FLAT:??_C@_0O@DBJJJBCC@high_lod_hack@
	DD	FLAT:??_C@_00CNPNBAHC@@
	DD	FLAT:??_C@_0HO@KAMBIONA@?$FLEXPERIMENTAL?$CB?$FN?5Enables?5highest@
	DD	FLAT:?command_line_high_lod_hack@@3HA
	DD	00H
	DD	00H
	DD	00H
	DD	FLAT:?set_int@@YGXPBUconfig_option@@PBD@Z
	DD	FLAT:?get_int@@YGXPBUconfig_option@@PAD@Z
	DD	FLAT:??_C@_05OOKDIIAP@dwash@
	DD	FLAT:??_C@_08DJHIJCHO@downwash@
	DD	FLAT:??_C@_0DC@PLFPDKHA@rotor?5downwash?5?$CIdust?$CJ?5?$CI0?5?$DN?5off?0@
	DD	FLAT:?command_line_downwash@@3HA
	DD	00H
	DD	00H
	DD	00H
	DD	FLAT:?set_int@@YGXPBUconfig_option@@PBD@Z
	DD	FLAT:?get_int@@YGXPBUconfig_option@@PAD@Z
	DD	FLAT:??_C@_0BD@JLENJPMD@restricted_nvg_fov@
	DD	FLAT:??_C@_00CNPNBAHC@@
	DD	FLAT:??_C@_0DF@POANBNG@night?5vision?5restriction?5?$CI0?5?$DN?5o@
	DD	FLAT:?command_line_restricted_nvg_fov@@3HA
	DD	00H
	DD	00H
	DD	00H
	DD	FLAT:?set_int@@YGXPBUconfig_option@@PBD@Z
	DD	FLAT:?get_int@@YGXPBUconfig_option@@PAD@Z
	DD	FLAT:??_C@_0BC@FNNPHLAH@russian_nvg_no_ir@
	DD	FLAT:??_C@_00CNPNBAHC@@
	DD	FLAT:??_C@_0DN@BBFBNELA@russian?5night?5vision?5has?5no?5FLI@
	DD	FLAT:?command_line_russian_nvg_no_ir@@3HA
	DD	00H
	DD	00H
	DD	00H
	DD	FLAT:?set_int@@YGXPBUconfig_option@@PBD@Z
	DD	FLAT:?get_int@@YGXPBUconfig_option@@PAD@Z
	DD	FLAT:??_C@_09DLPPGEF@colourmfd@
	DD	FLAT:??_C@_00CNPNBAHC@@
	DD	FLAT:??_C@_0EA@BIHNNHFN@MFDs?5will?5use?5colour?5when?5avail@
	DD	FLAT:?command_line_colour_mfd@@3HA
	DD	00H
	DD	00H
	DD	00H
	DD	FLAT:?set_int@@YGXPBUconfig_option@@PBD@Z
	DD	FLAT:?get_int@@YGXPBUconfig_option@@PAD@Z
	DD	FLAT:??_C@_0L@FIBEFPLH@highreshud@
	DD	FLAT:??_C@_00CNPNBAHC@@
	DD	FLAT:??_C@_0DA@CGMBIIBD@high?5resolution?5HUD?5?$CI0?5?$DN?5off?0?51@
	DD	FLAT:?command_line_high_res_hud@@3HA
	DD	00H
	DD	00H
	DD	00H
	DD	FLAT:?set_int@@YGXPBUconfig_option@@PBD@Z
	DD	FLAT:?get_int@@YGXPBUconfig_option@@PAD@Z
	DD	FLAT:??_C@_09JMMFAHBG@tsdrender@
	DD	FLAT:??_C@_00CNPNBAHC@@
	DD	FLAT:??_C@_0DF@NMMAIBEO@TSD?5render?5options?5?$CI0?5?9?54?$CJ?5?$CIdef@
	DD	FLAT:?command_line_tsd_render_mode@@3HA
	DD	00H
	DD	00H
	DD	00H
	DD	FLAT:?set_int@@YGXPBUconfig_option@@PBD@Z
	DD	FLAT:?get_int@@YGXPBUconfig_option@@PAD@Z
	DD	FLAT:??_C@_0L@MGCIAICJ@tsdpalette@
	DD	FLAT:??_C@_00CNPNBAHC@@
	DD	FLAT:??_C@_0CG@BGHLPEFI@TSD?5palette?5options?5?$CI0?5?9?52?$CJ?5?$CIde@
	DD	FLAT:?command_line_tsd_palette@@3HA
	DD	00H
	DD	00H
	DD	00H
	DD	FLAT:?set_int@@YGXPBUconfig_option@@PBD@Z
	DD	FLAT:?get_int@@YGXPBUconfig_option@@PAD@Z
	DD	FLAT:??_C@_08CFKOENDF@tsdenemy@
	DD	FLAT:??_C@_00CNPNBAHC@@
	DD	FLAT:??_C@_0EF@BHCGCODD@TSD?5showing?5red?5force?5blue?5forc@
	DD	FLAT:?command_line_tsd_enemy_colours@@3HA
	DD	00H
	DD	00H
	DD	00H
	DD	FLAT:?set_int@@YGXPBUconfig_option@@PBD@Z
	DD	FLAT:?get_int@@YGXPBUconfig_option@@PAD@Z
	DD	FLAT:??_C@_09FIBOBHEI@tsddetail@
	DD	FLAT:??_C@_00CNPNBAHC@@
	DD	FLAT:??_C@_0CP@IEHGGJPL@TSD?5in?5high?5detail?5?$CI0?5?$DN?5off?0?51?5@
	DD	FLAT:?global_tsd_detail@@3HA
	DD	00H
	DD	00H
	DD	00H
	DD	FLAT:?set_int@@YGXPBUconfig_option@@PBD@Z
	DD	FLAT:?get_int@@YGXPBUconfig_option@@PAD@Z
	DD	FLAT:??_C@_0P@LPLKBOEF@texture_colour@
	DD	FLAT:??_C@_00CNPNBAHC@@
	DD	FLAT:??_C@_0KF@GAFOLPPM@Use?5texture?5colours?5and?5noisema@
	DD	FLAT:?command_line_texture_colour@@3HA
	DD	00H
	DD	00H
	DD	00H
	DD	FLAT:?set_int@@YGXPBUconfig_option@@PBD@Z
	DD	FLAT:?get_int@@YGXPBUconfig_option@@PAD@Z
	DD	FLAT:??_C@_0BC@FEEDPBHL@texture_filtering@
	DD	FLAT:??_C@_00CNPNBAHC@@
	DD	FLAT:??_C@_0GE@GJGHBOMK@?$FLEXPERIMENTAL?$CB?$FN?5texture?5blendin@
	DD	FLAT:?global_anisotropic@@3HA
	DD	00H
	DD	00H
	DD	00H
	DD	FLAT:?set_int@@YGXPBUconfig_option@@PBD@Z
	DD	FLAT:?get_int@@YGXPBUconfig_option@@PAD@Z
	DD	FLAT:??_C@_0L@GIGNMFLF@mipmapping@
	DD	FLAT:??_C@_00CNPNBAHC@@
	DD	FLAT:??_C@_0GM@PDHJOGOE@mipmapped?5textures?5?$CIdds?5files?$CJ?4@
	DD	FLAT:?global_mipmapping@@3HA
	DD	00H
	DD	00H
	DD	00H
	DD	FLAT:?set_int@@YGXPBUconfig_option@@PBD@Z
	DD	FLAT:?get_int@@YGXPBUconfig_option@@PAD@Z
	DD	FLAT:??_C@_0O@IMHAMGEB@dynamic_water@
	DD	FLAT:??_C@_00CNPNBAHC@@
	DD	FLAT:??_C@_0DD@BBGFBEOP@dynamic?5water?5textures?5?$CI0?5?$DN?5off@
	DD	FLAT:?global_dynamic_water@@3HA
	DD	00H
	DD	00H
	DD	00H
	DD	FLAT:?set_int@@YGXPBUconfig_option@@PBD@Z
	DD	FLAT:?get_int@@YGXPBUconfig_option@@PAD@Z
	DD	FLAT:??_C@_0M@HKFCHHH@night_light@
	DD	FLAT:??_C@_00CNPNBAHC@@
	DD	FLAT:??_C@_0FH@DGHCCJKI@night?5light?5darkness?5level?5?$CI0?40@
	DD	00H
	DD	FLAT:?global_night_light_level@@3MA
	DD	00H
	DD	00H
	DD	FLAT:?set_float@@YGXPBUconfig_option@@PBD@Z
	DD	FLAT:?get_float@@YGXPBUconfig_option@@PAD@Z
	DD	FLAT:??_C@_0BB@DAJAMMBD@persistent_smoke@
	DD	FLAT:??_C@_00CNPNBAHC@@
	DD	FLAT:??_C@_0GG@DHHFKMAA@Burning?5targets?5emitting?5smoke?5@
	DD	FLAT:?command_line_persistent_smoke@@3HA
	DD	00H
	DD	00H
	DD	00H
	DD	FLAT:?set_int@@YGXPBUconfig_option@@PBD@Z
	DD	FLAT:?get_int@@YGXPBUconfig_option@@PAD@Z
	DD	FLAT:??_C@_0M@PGNJDKOJ@cloud_puffs@
	DD	FLAT:??_C@_00CNPNBAHC@@
	DD	FLAT:??_C@_0EL@OEMMHLBN@Cloud?5puffs?4?5?$CI0?5?$DN?5off?0?51?5?$DN?5all?5@
	DD	FLAT:?command_line_cloud_puffs@@3HA
	DD	00H
	DD	00H
	DD	00H
	DD	FLAT:?set_int@@YGXPBUconfig_option@@PBD@Z
	DD	FLAT:?get_int@@YGXPBUconfig_option@@PAD@Z
	DD	FLAT:??_C@_0BE@IHGKNAKH@cloud_puffs_colours@
	DD	FLAT:??_C@_00CNPNBAHC@@
	DD	FLAT:??_C@_0BI@GMLPBPJA@colours?5for?5cloud?5puffs@
	DD	00H
	DD	00H
	DD	00H
	DD	00H
	DD	FLAT:?set_cloud_puffs_colours@@YGXPBUconfig_option@@PBD@Z
	DD	FLAT:?get_cloud_puffs_colours@@YGXPBUconfig_option@@PAD@Z
	DD	FLAT:??_C@_06EMIDKNJD@themes@
	DD	FLAT:??_C@_00CNPNBAHC@@
	DD	FLAT:??_C@_0DM@FMOKODNC@comma?9separated?5list?5of?5directo@
	DD	00H
	DD	00H
	DD	FLAT:?command_line_themes@@3PADA
	DD	080H
	DD	FLAT:?set_themes@@YGXPBUconfig_option@@PBD@Z
	DD	FLAT:?get_string@@YGXPBUconfig_option@@PAD@Z
	DD	00H
	DD	00H
	DD	FLAT:??_C@_00CNPNBAHC@@
	DD	00H
	DD	00H
	DD	00H
	DD	00H
	DD	00H
	DD	00H
	DD	00H
	DD	00H
	DD	FLAT:??_C@_0BE@BJNDGAAD@?$FLViews?5and?5Cameras?$FN@
	DD	00H
	DD	00H
	DD	00H
	DD	00H
	DD	00H
	DD	00H
	DD	00H
	DD	00H
	DD	FLAT:??_C@_0GF@HNAKGJPN@minfov?5is?5linked?5to?5key?57?0?5maxf@
	DD	00H
	DD	00H
	DD	00H
	DD	00H
	DD	00H
	DD	00H
	DD	FLAT:??_C@_06KFKIGAKI@minfov@
	DD	FLAT:??_C@_00CNPNBAHC@@
	DD	FLAT:??_C@_0BO@EAMCNBEK@general?5field?5of?5view?5minimum@
	DD	FLAT:?command_line_min_fov@@3HA
	DD	00H
	DD	00H
	DD	00H
	DD	FLAT:?set_int@@YGXPBUconfig_option@@PBD@Z
	DD	FLAT:?get_int@@YGXPBUconfig_option@@PAD@Z
	DD	FLAT:??_C@_07OBIOBKKI@maxfov0@
	DD	FLAT:??_C@_00CNPNBAHC@@
	DD	FLAT:??_C@_0CO@DHBBOFHJ@general?5field?5of?5view?5maximum?5f@
	DD	FLAT:?command_line_max_fov0@@3HA
	DD	00H
	DD	00H
	DD	00H
	DD	FLAT:?set_int@@YGXPBUconfig_option@@PBD@Z
	DD	FLAT:?get_int@@YGXPBUconfig_option@@PAD@Z
	DD	FLAT:??_C@_07PIJFCLOJ@maxfov1@
	DD	FLAT:??_C@_00CNPNBAHC@@
	DD	FLAT:??_C@_0CM@KOPDCLCA@general?5field?5of?5view?5maximum?5f@
	DD	FLAT:?command_line_max_fov1@@3HA
	DD	00H
	DD	00H
	DD	00H
	DD	FLAT:?set_int@@YGXPBUconfig_option@@PBD@Z
	DD	FLAT:?get_int@@YGXPBUconfig_option@@PAD@Z
	DD	FLAT:??_C@_07NDLIHICK@maxfov2@
	DD	FLAT:??_C@_00CNPNBAHC@@
	DD	FLAT:??_C@_0CP@CIDILCEB@general?5field?5of?5view?5maximum?5f@
	DD	FLAT:?command_line_max_fov2@@3HA
	DD	00H
	DD	00H
	DD	00H
	DD	FLAT:?set_int@@YGXPBUconfig_option@@PBD@Z
	DD	FLAT:?get_int@@YGXPBUconfig_option@@PAD@Z
	DD	FLAT:??_C@_07MKKDEJGL@maxfov3@
	DD	FLAT:??_C@_00CNPNBAHC@@
	DD	FLAT:??_C@_0CO@GLMLKOMG@general?5field?5of?5view?5maximum?5f@
	DD	FLAT:?command_line_max_fov3@@3HA
	DD	00H
	DD	00H
	DD	00H
	DD	FLAT:?set_int@@YGXPBUconfig_option@@PBD@Z
	DD	FLAT:?get_int@@YGXPBUconfig_option@@PAD@Z
	DD	FLAT:??_C@_07IFOCNPKM@maxfov4@
	DD	FLAT:??_C@_00CNPNBAHC@@
	DD	FLAT:??_C@_0CL@KAPPDPMK@general?5field?5of?5view?5maximum?5f@
	DD	FLAT:?command_line_max_fov4@@3HA
	DD	00H
	DD	00H
	DD	00H
	DD	FLAT:?set_int@@YGXPBUconfig_option@@PBD@Z
	DD	FLAT:?get_int@@YGXPBUconfig_option@@PAD@Z
	DD	FLAT:??_C@_07JMPJOOON@maxfov5@
	DD	FLAT:??_C@_00CNPNBAHC@@
	DD	FLAT:??_C@_0CM@IEBBGLJJ@general?5field?5of?5view?5maximum?5f@
	DD	FLAT:?command_line_max_fov5@@3HA
	DD	00H
	DD	00H
	DD	00H
	DD	FLAT:?set_int@@YGXPBUconfig_option@@PBD@Z
	DD	FLAT:?get_int@@YGXPBUconfig_option@@PAD@Z
	DD	FLAT:??_C@_07LHNELNCO@maxfov6@
	DD	FLAT:??_C@_00CNPNBAHC@@
	DD	FLAT:??_C@_0CM@IGNJLPJE@general?5field?5of?5view?5maximum?5f@
	DD	FLAT:?command_line_max_fov6@@3HA
	DD	00H
	DD	00H
	DD	00H
	DD	FLAT:?set_int@@YGXPBUconfig_option@@PBD@Z
	DD	FLAT:?get_int@@YGXPBUconfig_option@@PAD@Z
	DD	FLAT:??_C@_07KOMPIMGP@maxfov7@
	DD	FLAT:??_C@_00CNPNBAHC@@
	DD	FLAT:??_C@_0CM@EADHLDBD@general?5field?5of?5view?5maximum?5f@
	DD	FLAT:?command_line_max_fov7@@3HA
	DD	00H
	DD	00H
	DD	00H
	DD	FLAT:?set_int@@YGXPBUconfig_option@@PBD@Z
	DD	FLAT:?get_int@@YGXPBUconfig_option@@PAD@Z
	DD	00H
	DD	FLAT:??_C@_02CNFIOGBL@49@
	DD	FLAT:??_C@_00CNPNBAHC@@
	DD	00H
	DD	00H
	DD	00H
	DD	00H
	DD	00H
	DD	00H
	DD	FLAT:??_C@_0BG@BJKCCONG@g?9force_head_movement@
	DD	FLAT:??_C@_00CNPNBAHC@@
	DD	FLAT:??_C@_0HI@FIIAFHNG@amount?5of?5head?5movement?5caused?5@
	DD	00H
	DD	FLAT:?command_line_g_force_head_movment_modifier@@3MA
	DD	00H
	DD	00H
	DD	FLAT:?set_float@@YGXPBUconfig_option@@PBD@Z
	DD	FLAT:?get_float@@YGXPBUconfig_option@@PAD@Z
	DD	FLAT:??_C@_0P@CPHJAEMD@comanche_pilot@
	DD	FLAT:??_C@_00CNPNBAHC@@
	DD	FLAT:??_C@_0BI@BKLKGABK@wideview?5pilot?5position@
	DD	00H
	DD	00H
	DD	00H
	DD	00H
	DD	FLAT:?set_position@@YGXPBUconfig_option@@PBD@Z
	DD	FLAT:?get_position@@YGXPBUconfig_option@@PAD@Z
	DD	FLAT:??_C@_0BC@HMNKLGHN@comanche_co?9pilot@
	DD	FLAT:??_C@_00CNPNBAHC@@
	DD	FLAT:??_C@_0BL@BLNMHGDI@wideview?5co?9pilot?5position@
	DD	00H
	DD	00H
	DD	00H
	DD	01H
	DD	FLAT:?set_position@@YGXPBUconfig_option@@PBD@Z
	DD	FLAT:?get_position@@YGXPBUconfig_option@@PAD@Z
	DD	FLAT:??_C@_0M@ICDAHEBI@hokum_pilot@
	DD	FLAT:??_C@_00CNPNBAHC@@
	DD	FLAT:??_C@_0BI@BKLKGABK@wideview?5pilot?5position@
	DD	00H
	DD	00H
	DD	00H
	DD	02H
	DD	FLAT:?set_position@@YGXPBUconfig_option@@PBD@Z
	DD	FLAT:?get_position@@YGXPBUconfig_option@@PAD@Z
	DD	FLAT:??_C@_0P@NNDJOMMD@hokum_co?9pilot@
	DD	FLAT:??_C@_00CNPNBAHC@@
	DD	FLAT:??_C@_0BL@BLNMHGDI@wideview?5co?9pilot?5position@
	DD	00H
	DD	00H
	DD	00H
	DD	03H
	DD	FLAT:?set_position@@YGXPBUconfig_option@@PBD@Z
	DD	FLAT:?get_position@@YGXPBUconfig_option@@PAD@Z
	DD	FLAT:??_C@_0N@OACLLJEN@apache_pilot@
	DD	FLAT:??_C@_00CNPNBAHC@@
	DD	FLAT:??_C@_0BI@BKLKGABK@wideview?5pilot?5position@
	DD	00H
	DD	00H
	DD	00H
	DD	04H
	DD	FLAT:?set_position@@YGXPBUconfig_option@@PBD@Z
	DD	FLAT:?get_position@@YGXPBUconfig_option@@PAD@Z
	DD	FLAT:??_C@_0P@KPKBGG@apache_copilot@
	DD	FLAT:??_C@_00CNPNBAHC@@
	DD	FLAT:??_C@_0BL@BLNMHGDI@wideview?5co?9pilot?5position@
	DD	00H
	DD	00H
	DD	00H
	DD	05H
	DD	FLAT:?set_position@@YGXPBUconfig_option@@PBD@Z
	DD	FLAT:?get_position@@YGXPBUconfig_option@@PAD@Z
	DD	FLAT:??_C@_0M@COHCIPJL@havoc_pilot@
	DD	FLAT:??_C@_00CNPNBAHC@@
	DD	FLAT:??_C@_0BI@BKLKGABK@wideview?5pilot?5position@
	DD	00H
	DD	00H
	DD	00H
	DD	06H
	DD	FLAT:?set_position@@YGXPBUconfig_option@@PBD@Z
	DD	FLAT:?get_position@@YGXPBUconfig_option@@PAD@Z
	DD	FLAT:??_C@_0L@KACIBLFE@hind_pilot@
	DD	FLAT:??_C@_00CNPNBAHC@@
	DD	FLAT:??_C@_0BI@BKLKGABK@wideview?5pilot?5position@
	DD	00H
	DD	00H
	DD	00H
	DD	07H
	DD	FLAT:?set_position@@YGXPBUconfig_option@@PBD@Z
	DD	FLAT:?get_position@@YGXPBUconfig_option@@PAD@Z
	DD	FLAT:??_C@_0N@KDHHIKLJ@hind_copilot@
	DD	FLAT:??_C@_00CNPNBAHC@@
	DD	FLAT:??_C@_0BL@BLNMHGDI@wideview?5co?9pilot?5position@
	DD	00H
	DD	00H
	DD	00H
	DD	08H
	DD	FLAT:?set_position@@YGXPBUconfig_option@@PBD@Z
	DD	FLAT:?get_position@@YGXPBUconfig_option@@PAD@Z
	DD	FLAT:??_C@_0M@FJLJJLFA@viper_pilot@
	DD	FLAT:??_C@_00CNPNBAHC@@
	DD	FLAT:??_C@_0BI@BKLKGABK@wideview?5pilot?5position@
	DD	00H
	DD	00H
	DD	00H
	DD	09H
	DD	FLAT:?set_position@@YGXPBUconfig_option@@PBD@Z
	DD	FLAT:?get_position@@YGXPBUconfig_option@@PAD@Z
	DD	FLAT:??_C@_0O@CKKDDFAM@viper_copilot@
	DD	FLAT:??_C@_00CNPNBAHC@@
	DD	FLAT:??_C@_0BL@BLNMHGDI@wideview?5co?9pilot?5position@
	DD	00H
	DD	00H
	DD	00H
	DD	0aH
	DD	FLAT:?set_position@@YGXPBUconfig_option@@PBD@Z
	DD	FLAT:?get_position@@YGXPBUconfig_option@@PAD@Z
	DD	FLAT:??_C@_0M@GNKJPBBI@kiowa_pilot@
	DD	FLAT:??_C@_00CNPNBAHC@@
	DD	FLAT:??_C@_0BI@BKLKGABK@wideview?5pilot?5position@
	DD	00H
	DD	00H
	DD	00H
	DD	0bH
	DD	FLAT:?set_position@@YGXPBUconfig_option@@PBD@Z
	DD	FLAT:?get_position@@YGXPBUconfig_option@@PAD@Z
	DD	FLAT:??_C@_0O@LPGEEMFH@kiowa_copilot@
	DD	FLAT:??_C@_00CNPNBAHC@@
	DD	FLAT:??_C@_0BL@BLNMHGDI@wideview?5co?9pilot?5position@
	DD	00H
	DD	00H
	DD	00H
	DD	0cH
	DD	FLAT:?set_position@@YGXPBUconfig_option@@PBD@Z
	DD	FLAT:?get_position@@YGXPBUconfig_option@@PAD@Z
	DD	FLAT:??_C@_0L@LHGBPDG@ka50_pilot@
	DD	FLAT:??_C@_00CNPNBAHC@@
	DD	FLAT:??_C@_0BI@BKLKGABK@wideview?5pilot?5position@
	DD	00H
	DD	00H
	DD	00H
	DD	0dH
	DD	FLAT:?set_position@@YGXPBUconfig_option@@PBD@Z
	DD	FLAT:?get_position@@YGXPBUconfig_option@@PAD@Z
	DD	FLAT:??_C@_08HCFPJDBL@hud_code@
	DD	FLAT:??_C@_00CNPNBAHC@@
	DD	FLAT:??_C@_0BI@MKCMCME@hud?5code?5for?54?5gunships@
	DD	00H
	DD	00H
	DD	00H
	DD	00H
	DD	FLAT:?set_hud_code@@YGXPBUconfig_option@@PBD@Z
	DD	FLAT:?get_hud_code@@YGXPBUconfig_option@@PAD@Z
	DD	FLAT:??_C@_0O@IOCDHDNN@wobbly?9camera@
	DD	FLAT:??_C@_00CNPNBAHC@@
	DD	FLAT:??_C@_0EL@EHCAAME@Make?5external?5cameras?5move?5wobb@
	DD	FLAT:?command_line_wobbly_camera@@3HA
	DD	00H
	DD	00H
	DD	00H
	DD	FLAT:?set_int@@YGXPBUconfig_option@@PBD@Z
	DD	FLAT:?get_int@@YGXPBUconfig_option@@PAD@Z
	DD	00H
	DD	00H
	DD	FLAT:??_C@_00CNPNBAHC@@
	DD	00H
	DD	00H
	DD	00H
	DD	00H
	DD	00H
	DD	00H
	DD	00H
	DD	FLAT:??_C@_02NCPIBIBE@33@
	DD	FLAT:??_C@_0L@LMGPJHLK@?$FLDynamics?$FN@
	DD	00H
	DD	00H
	DD	00H
	DD	00H
	DD	00H
	DD	00H
	DD	FLAT:??_C@_0N@ONEDLOGH@flight_model@
	DD	FLAT:??_C@_00CNPNBAHC@@
	DD	FLAT:??_C@_0GG@ELCEEDAC@0?5is?5default?5flight?5model?0?51?5is@
	DD	FLAT:?command_line_dynamics_flight_model@@3HA
	DD	00H
	DD	00H
	DD	00H
	DD	FLAT:?set_int@@YGXPBUconfig_option@@PBD@Z
	DD	FLAT:?get_int@@YGXPBUconfig_option@@PAD@Z
	DD	FLAT:??_C@_0O@BEPNKEPG@enginerealism@
	DD	FLAT:??_C@_00CNPNBAHC@@
	DD	FLAT:??_C@_0EH@OODAOHGA@realistic?5engine?5workload?5simul@
	DD	FLAT:?command_line_dynamics_advanced_engine_model@@3HA
	DD	00H
	DD	00H
	DD	00H
	DD	FLAT:?set_int@@YGXPBUconfig_option@@PBD@Z
	DD	FLAT:?get_int@@YGXPBUconfig_option@@PAD@Z
	DD	FLAT:??_C@_0O@JPLMIFBN@enginestartup@
	DD	FLAT:??_C@_00CNPNBAHC@@
	DD	FLAT:??_C@_0ED@FDFFABNL@manual?5engine?5start?5up?0?5off?5by?5@
	DD	FLAT:?command_line_dynamics_engine_startup@@3HA
	DD	00H
	DD	00H
	DD	00H
	DD	FLAT:?set_int@@YGXPBUconfig_option@@PBD@Z
	DD	FLAT:?get_int@@YGXPBUconfig_option@@PAD@Z
	DD	FLAT:??_C@_04NLBIIEAD@drbs@
	DD	FLAT:??_C@_0DE@MKEBGNNJ@command_line_dynamics_retreatin@
	DD	FLAT:??_C@_0FF@CMKPCCNB@retreating?5blade?5stall?0?5floatin@
	DD	00H
	DD	FLAT:?command_line_dynamics_retreating_blade_stall_effect@@3MA
	DD	00H
	DD	00H
	DD	FLAT:?set_float@@YGXPBUconfig_option@@PBD@Z
	DD	FLAT:?get_float@@YGXPBUconfig_option@@PAD@Z
	DD	FLAT:??_C@_03EEOPCCPJ@drv@
	DD	FLAT:??_C@_0BG@BAOAGHIL@dynamics_rudder_value@
	DD	FLAT:??_C@_0EH@FDELDAPB@rudder?5value?0?5scaling?5factor?5fo@
	DD	00H
	DD	FLAT:?command_line_dynamics_rudder_value@@3MA
	DD	00H
	DD	00H
	DD	FLAT:?set_float@@YGXPBUconfig_option@@PBD@Z
	DD	FLAT:?get_float@@YGXPBUconfig_option@@PAD@Z
	DD	FLAT:??_C@_03EBGMKGGP@dra@
	DD	FLAT:??_C@_0BN@IEKGLFC@dynamics_rudder_acceleration@
	DD	FLAT:??_C@_0FD@HJCIKKMM@rudder?5acceleration?0?5scaling?5fa@
	DD	00H
	DD	FLAT:?command_line_dynamics_rudder_acceleration@@3MA
	DD	00H
	DD	00H
	DD	FLAT:?set_float@@YGXPBUconfig_option@@PBD@Z
	DD	FLAT:?get_float@@YGXPBUconfig_option@@PAD@Z
	DD	FLAT:??_C@_03DMBLFCCK@drd@
	DD	FLAT:??_C@_0BE@OKOFONBC@dynamics_rotor_drag@
	DD	FLAT:??_C@_0EO@NMEKFOPK@main?5rotor?5drag?0?5scaling?5factor@
	DD	00H
	DD	FLAT:?command_line_dynamics_main_rotor_drag@@3MA
	DD	00H
	DD	00H
	DD	FLAT:?set_float@@YGXPBUconfig_option@@PBD@Z
	DD	FLAT:?get_float@@YGXPBUconfig_option@@PAD@Z
	DD	FLAT:??_C@_04CBOGOCE@dmrl@
	DD	FLAT:??_C@_0BJ@DMNACICO@dynamics_main_rotor_lift@
	DD	FLAT:??_C@_0EH@EMJPICKD@main?5rotor?5lift?0?5scaling?5factor@
	DD	00H
	DD	FLAT:?command_line_dynamics_main_rotor_lift@@3MA
	DD	00H
	DD	00H
	DD	FLAT:?set_float@@YGXPBUconfig_option@@PBD@Z
	DD	FLAT:?get_float@@YGXPBUconfig_option@@PAD@Z
	DD	FLAT:??_C@_04OHNGPMDJ@dtrd@
	DD	FLAT:??_C@_0BJ@LEBIGBGN@dynamics_tail_rotor_drag@
	DD	FLAT:??_C@_0FK@JMNKPOGO@tail?5rotor?5drag?0?5scaling?5factor@
	DD	00H
	DD	FLAT:?command_line_dynamics_tail_rotor_drag@@3MA
	DD	00H
	DD	00H
	DD	FLAT:?set_float@@YGXPBUconfig_option@@PBD@Z
	DD	FLAT:?get_float@@YGXPBUconfig_option@@PAD@Z
	DD	FLAT:??_C@_03DCAIADJC@dzd@
	DD	FLAT:??_C@_0BK@KNJNEHOP@dynamics_cyclic_dead_zone@
	DD	FLAT:??_C@_0ED@MAELCIIG@cyclic?5deadzone?5?$CIn?5?$DN?5?$CFdeadzone?0@
	DD	00H
	DD	FLAT:?command_line_dynamics_cyclic_dead_zone@@3MA
	DD	00H
	DD	00H
	DD	FLAT:?set_float@@YGXPBUconfig_option@@PBD@Z
	DD	FLAT:?get_float@@YGXPBUconfig_option@@PAD@Z
	DD	FLAT:??_C@_04MDAFLDMF@dyal@
	DD	FLAT:??_C@_0BL@CFDKBCOJ@dynamics_yaw_altitude_loss@
	DD	FLAT:??_C@_0CC@LNMOOEB@yaw?5altitude?5loss?5?$CIdefault?5?$DN?55?4@
	DD	00H
	DD	FLAT:?command_line_dynamics_yaw_altitude_loss@@3MA
	DD	00H
	DD	00H
	DD	FLAT:?set_float@@YGXPBUconfig_option@@PBD@Z
	DD	FLAT:?get_float@@YGXPBUconfig_option@@PAD@Z
	DD	FLAT:??_C@_0BJ@JOGKFDKA@debug_show_force_vectors@
	DD	FLAT:??_C@_00CNPNBAHC@@
	DD	FLAT:??_C@_0DL@HIJJNOIG@show?5force?5vectors?5on?5own?5helic@
	DD	00H
	DD	00H
	DD	00H
	DD	00H
	DD	FLAT:?set_force_vectors@@YGXPBUconfig_option@@PBD@Z
	DD	FLAT:?get_force_vectors@@YGXPBUconfig_option@@PAD@Z
	DD	00H
	DD	00H
	DD	FLAT:??_C@_00CNPNBAHC@@
	DD	00H
	DD	00H
	DD	00H
	DD	00H
	DD	00H
	DD	00H
	DD	00H
	DD	FLAT:??_C@_02DAMOKLOI@28@
	DD	FLAT:??_C@_05DKDEOPFG@?$FLWUT?$FN@
	DD	00H
	DD	00H
	DD	00H
	DD	00H
	DD	00H
	DD	00H
	DD	00H
	DD	00H
	DD	FLAT:??_C@_0EN@NCKODEOO@for?5more?5information?5see?5http?3?1@
	DD	00H
	DD	00H
	DD	00H
	DD	00H
	DD	00H
	DD	00H
	DD	FLAT:??_C@_03DBDKKOIP@wut@
	DD	FLAT:??_C@_00CNPNBAHC@@
	DD	FLAT:??_C@_0CO@NKHBJGPE@Weapons?5and?5Unit?5Tweaking?5file?5@
	DD	00H
	DD	00H
	DD	FLAT:?WUT_filename@@3PADA
	DD	080H
	DD	FLAT:?set_wut@@YGXPBUconfig_option@@PBD@Z
	DD	FLAT:?get_string@@YGXPBUconfig_option@@PAD@Z
	DD	00H
	DD	00H
	DD	FLAT:??_C@_00CNPNBAHC@@
	DD	00H
	DD	00H
	DD	00H
	DD	00H
	DD	00H
	DD	00H
	DD	00H
	DD	FLAT:??_C@_02IFGANFKF@25@
	DD	FLAT:??_C@_0L@OKLGDMEI@?$FLGameplay?$FN@
	DD	00H
	DD	00H
	DD	00H
	DD	00H
	DD	00H
	DD	00H
	DD	FLAT:??_C@_05JFHIPEPB@chaff@
	DD	FLAT:??_C@_00CNPNBAHC@@
	DD	FLAT:??_C@_0FL@MMENOFOI@effectiveness?5of?5chaff?5?5?$CI0?40?5?9?5@
	DD	00H
	DD	FLAT:?command_line_chaff_effectiveness@@3MA
	DD	00H
	DD	00H
	DD	FLAT:?set_float@@YGXPBUconfig_option@@PBD@Z
	DD	FLAT:?get_float@@YGXPBUconfig_option@@PAD@Z
	DD	FLAT:??_C@_05DHJLON@flare@
	DD	FLAT:??_C@_00CNPNBAHC@@
	DD	FLAT:??_C@_0FL@PPOAIANF@effectiveness?5of?5flares?5?$CI0?40?5?9?5@
	DD	00H
	DD	FLAT:?command_line_flare_effectiveness@@3MA
	DD	00H
	DD	00H
	DD	FLAT:?set_float@@YGXPBUconfig_option@@PBD@Z
	DD	FLAT:?get_float@@YGXPBUconfig_option@@PAD@Z
	DD	FLAT:??_C@_05JNGEMOLJ@smoke@
	DD	FLAT:??_C@_00CNPNBAHC@@
	DD	FLAT:??_C@_0FL@FHBNIBAL@effectiveness?5of?5smoke?5?5?$CI0?40?5?9?5@
	DD	00H
	DD	FLAT:?command_line_smoke_effectiveness@@3MA
	DD	00H
	DD	00H
	DD	FLAT:?set_float@@YGXPBUconfig_option@@PBD@Z
	DD	FLAT:?get_float@@YGXPBUconfig_option@@PAD@Z
	DD	FLAT:??_C@_03KJMBPJEB@fog@
	DD	FLAT:??_C@_00CNPNBAHC@@
	DD	FLAT:??_C@_0EK@EHPEGEPN@sets?5reshroud?5time?5for?5?$CCfog?5of?5@
	DD	00H
	DD	FLAT:?command_line_fog_of_war_maximum_value@@3MA
	DD	00H
	DD	00H
	DD	FLAT:?set_float@@YGXPBUconfig_option@@PBD@Z
	DD	FLAT:?get_float@@YGXPBUconfig_option@@PAD@Z
	DD	FLAT:??_C@_04ILLFDMJA@cpac@
	DD	FLAT:??_C@_0BB@EEFHFEH@capture_aircraft@
	DD	FLAT:??_C@_0FC@BEJPCIKE@Capture?5and?5utilize?5aircraft?5la@
	DD	FLAT:?command_line_capture_aircraft@@3HA
	DD	00H
	DD	00H
	DD	00H
	DD	FLAT:?set_int@@YGXPBUconfig_option@@PBD@Z
	DD	FLAT:?get_int@@YGXPBUconfig_option@@PAD@Z
	DD	FLAT:??_C@_03IOAPDMBA@uit@
	DD	FLAT:??_C@_0BH@BJFMLMJJ@user_invulnerable_time@
	DD	FLAT:??_C@_0EC@BCJIFNOL@User?5invulnerable?5time?5at?5missi@
	DD	00H
	DD	FLAT:?command_line_user_invulnerable_time@@3MA
	DD	00H
	DD	00H
	DD	FLAT:?set_float@@YGXPBUconfig_option@@PBD@Z
	DD	FLAT:?get_float@@YGXPBUconfig_option@@PAD@Z
	DD	00H
	DD	FLAT:??_C@_02NCPIBIBE@33@
	DD	FLAT:??_C@_00CNPNBAHC@@
	DD	00H
	DD	00H
	DD	00H
	DD	00H
	DD	00H
	DD	00H
	DD	FLAT:??_C@_03PFAFHDMN@faa@
	DD	FLAT:??_C@_00CNPNBAHC@@
	DD	FLAT:??_C@_0CN@HMOAPFLJ@fly?5any?5aircraft?5?$CI0?5?$DN?5off?0?51?5?$DN?5@
	DD	FLAT:?command_line_fly_any_airplane@@3HA
	DD	00H
	DD	00H
	DD	00H
	DD	FLAT:?set_faa@@YGXPBUconfig_option@@PBD@Z
	DD	FLAT:?get_int@@YGXPBUconfig_option@@PAD@Z
	DD	FLAT:??_C@_08NDGBDFAD@radarinf@
	DD	FLAT:??_C@_0BD@CDBNNICF@invisible_infantry@
	DD	FLAT:??_C@_0EJ@EFKABEBC@infantry?5invisible?5and?5undetect@
	DD	FLAT:?command_line_ground_radar_ignores_infantry@@3HA
	DD	00H
	DD	00H
	DD	00H
	DD	FLAT:?set_int@@YGXPBUconfig_option@@PBD@Z
	DD	FLAT:?get_int@@YGXPBUconfig_option@@PAD@Z
	DD	FLAT:??_C@_06COJJPLMG@grstab@
	DD	FLAT:??_C@_0BM@NIKGCAML@enable_ground_stabilisation@
	DD	FLAT:??_C@_0DJ@OKFHJIAD@ground?5stabilisation?5of?5FLIR?5?$CI0@
	DD	FLAT:?command_line_ground_stabilisation_available@@3HA
	DD	00H
	DD	00H
	DD	00H
	DD	FLAT:?set_int@@YGXPBUconfig_option@@PBD@Z
	DD	FLAT:?get_int@@YGXPBUconfig_option@@PAD@Z
	DD	FLAT:??_C@_0BD@PHMIIEGH@manual_laser?1radar@
	DD	FLAT:??_C@_0BD@BLKAFEEM@manual_laser_radar@
	DD	FLAT:??_C@_0DN@IGEAHAGL@operate?5radar?5and?5laser?5manuall@
	DD	FLAT:?command_line_manual_laser_radar@@3HA
	DD	00H
	DD	00H
	DD	00H
	DD	FLAT:?set_int@@YGXPBUconfig_option@@PBD@Z
	DD	FLAT:?get_int@@YGXPBUconfig_option@@PAD@Z
	DD	FLAT:??_C@_0BL@FJNALLLC@targeting_system_auto_page@
	DD	FLAT:??_C@_00CNPNBAHC@@
	DD	FLAT:??_C@_0EJ@GGKHAOLD@autoswitch?5MFD?5to?5according?5tar@
	DD	FLAT:?command_line_targeting_system_auto_page@@3HA
	DD	00H
	DD	00H
	DD	00H
	DD	FLAT:?set_int@@YGXPBUconfig_option@@PBD@Z
	DD	FLAT:?get_int@@YGXPBUconfig_option@@PAD@Z
	DD	FLAT:??_C@_06MAIMNIOA@camcom@
	DD	FLAT:??_C@_00CNPNBAHC@@
	DD	FLAT:??_C@_0CP@CDBFPP@Campaign?5Commander?5?$CI0?5?$DN?5off?0?51?5@
	DD	FLAT:?command_line_camcom@@3HA
	DD	00H
	DD	00H
	DD	00H
	DD	FLAT:?set_int@@YGXPBUconfig_option@@PBD@Z
	DD	FLAT:?get_int@@YGXPBUconfig_option@@PAD@Z
	DD	FLAT:??_C@_0BC@CMBAPDEC@campaign_map_mode@
	DD	FLAT:??_C@_00CNPNBAHC@@
	DD	FLAT:??_C@_0FA@MGADLEHI@campaign?5map?5resolution?5?$CI1?5?$DN?5de@
	DD	FLAT:?command_line_campaign_map@@3HA
	DD	00H
	DD	00H
	DD	00H
	DD	FLAT:?set_int@@YGXPBUconfig_option@@PBD@Z
	DD	FLAT:?get_int@@YGXPBUconfig_option@@PAD@Z
	DD	FLAT:??_C@_0BF@KFMFEOPH@campaign_map_palette@
	DD	FLAT:??_C@_00CNPNBAHC@@
	DD	FLAT:??_C@_0EA@CEHCNMNG@campaign?5map?5palette?5?5?5?5?$CI1?5?$DN?5de@
	DD	FLAT:?command_line_campaign_map_palette@@3HA
	DD	00H
	DD	00H
	DD	00H
	DD	FLAT:?set_int@@YGXPBUconfig_option@@PBD@Z
	DD	FLAT:?get_int@@YGXPBUconfig_option@@PAD@Z
	DD	FLAT:??_C@_0BE@DOPBPDI@map_update_interval@
	DD	FLAT:??_C@_00CNPNBAHC@@
	DD	FLAT:??_C@_0DC@MADJFCLC@enemy?5units?5update?5rate?5?$CIn?5?$DN?5se@
	DD	FLAT:?command_line_campaign_map_update_interval@@3HA
	DD	00H
	DD	00H
	DD	00H
	DD	FLAT:?set_int@@YGXPBUconfig_option@@PBD@Z
	DD	FLAT:?get_int@@YGXPBUconfig_option@@PAD@Z
	DD	FLAT:??_C@_0BA@MOPPBOLF@tacview_logging@
	DD	FLAT:??_C@_00CNPNBAHC@@
	DD	FLAT:??_C@_0KH@OCFKFNPN@generate?5log?5for?5tacview?5?$CI0?5?$DN?5o@
	DD	FLAT:?command_line_tacview_logging@@3HA
	DD	00H
	DD	00H
	DD	00H
	DD	FLAT:?set_int@@YGXPBUconfig_option@@PBD@Z
	DD	FLAT:?get_int@@YGXPBUconfig_option@@PAD@Z
	DD	FLAT:??_C@_06BJLHBKBN@destgt@
	DD	FLAT:??_C@_0BD@HKDDBFKE@designated_targets@
	DD	FLAT:??_C@_0DD@OFMMBFPJ@designated?5target?5list?5?$CI0?5?$DN?5off@
	DD	FLAT:?command_line_designated_targets@@3HA
	DD	00H
	DD	00H
	DD	00H
	DD	FLAT:?set_int@@YGXPBUconfig_option@@PBD@Z
	DD	FLAT:?get_int@@YGXPBUconfig_option@@PAD@Z
	DD	FLAT:??_C@_0M@JPNCIOMB@cannontrack@
	DD	FLAT:??_C@_00CNPNBAHC@@
	DD	FLAT:??_C@_0HD@BPKIDJAK@cannon?5tracking?5boresight?5?$CI0?5?$DN?5@
	DD	FLAT:?command_line_cannontrack@@3HA
	DD	00H
	DD	00H
	DD	00H
	DD	FLAT:?set_int@@YGXPBUconfig_option@@PBD@Z
	DD	FLAT:?get_int@@YGXPBUconfig_option@@PAD@Z
	DD	FLAT:??_C@_0BG@JCBELDHN@unpadlock_on_handover@
	DD	FLAT:??_C@_00CNPNBAHC@@
	DD	FLAT:??_C@_0DB@NPNFEFCA@unpadlock?5on?5handover?5from?5HMS?5@
	DD	FLAT:?command_line_unpadlock_on_handover@@3HA
	DD	00H
	DD	00H
	DD	00H
	DD	FLAT:?set_int@@YGXPBUconfig_option@@PBD@Z
	DD	FLAT:?get_int@@YGXPBUconfig_option@@PAD@Z
	DD	FLAT:??_C@_0BL@BLLFNBOC@pilot_as_periscope_default@
	DD	FLAT:??_C@_00CNPNBAHC@@
	DD	FLAT:??_C@_0DJ@JJEACMLF@stay?5in?5pilot?5seat?5when?5switchi@
	DD	FLAT:?command_line_pilot_as_periscope_default@@3HA
	DD	00H
	DD	00H
	DD	00H
	DD	FLAT:?set_int@@YGXPBUconfig_option@@PBD@Z
	DD	FLAT:?get_int@@YGXPBUconfig_option@@PAD@Z
	DD	FLAT:??_C@_0CE@IKOHFPMG@autoreturn_to_pilot_after_peris@
	DD	FLAT:??_C@_00CNPNBAHC@@
	DD	FLAT:??_C@_0DL@KEOOCHBA@switch?5to?5pilot?5seat?5when?5deact@
	DD	FLAT:?command_line_autoreturn_to_pilot_after_periscope@@3HA
	DD	00H
	DD	00H
	DD	00H
	DD	FLAT:?set_int@@YGXPBUconfig_option@@PBD@Z
	DD	FLAT:?get_int@@YGXPBUconfig_option@@PAD@Z
	DD	FLAT:??_C@_0BC@DLNKPBFP@TSD_mouse_control@
	DD	FLAT:??_C@_00CNPNBAHC@@
	DD	FLAT:??_C@_0FC@DCPHENLK@allows?5mouse?5control?5of?5TSD?5?$CIAp@
	DD	FLAT:?command_line_mouse_tsd_target_select@@3HA
	DD	00H
	DD	00H
	DD	00H
	DD	FLAT:?set_int@@YGXPBUconfig_option@@PBD@Z
	DD	FLAT:?get_int@@YGXPBUconfig_option@@PAD@Z
	DD	FLAT:??_C@_0BJ@CGJHOAFI@co_pilot_reports_targets@
	DD	FLAT:??_C@_00CNPNBAHC@@
	DD	FLAT:??_C@_0DL@PLNPPPCO@Co?9pilot?5will?5report?5targets?5he@
	DD	FLAT:?global_co_pilot_scans_for_targets@@3HA
	DD	00H
	DD	00H
	DD	00H
	DD	FLAT:?set_int@@YGXPBUconfig_option@@PBD@Z
	DD	FLAT:?get_int@@YGXPBUconfig_option@@PAD@Z
	DD	00H
	DD	00H
	DD	FLAT:??_C@_00CNPNBAHC@@
	DD	00H
	DD	00H
	DD	00H
	DD	00H
	DD	00H
	DD	00H
	DD	00H
	DD	FLAT:??_C@_02IFGANFKF@25@
	DD	FLAT:??_C@_0BI@KLJLJDMI@?$FLJoysticks?5and?5TrackIR?$FN@
	DD	00H
	DD	00H
	DD	00H
	DD	00H
	DD	00H
	DD	00H
	DD	FLAT:??_C@_06IBMACOOG@eopann@
	DD	FLAT:??_C@_0BD@PKKDFEFF@pan_joystick_index@
	DD	FLAT:??_C@_0CG@PGFLNKPJ@joystick?5number?5for?5EO?9camera?5p@
	DD	FLAT:?command_line_eo_pan_joystick_index@@3HA
	DD	00H
	DD	00H
	DD	00H
	DD	FLAT:?set_int@@YGXPBUconfig_option@@PBD@Z
	DD	FLAT:?get_int@@YGXPBUconfig_option@@PAD@Z
	DD	FLAT:??_C@_06DNLLGLP@eopanv@
	DD	FLAT:??_C@_0BL@EFCCBIKB@pan_joystick_vertical_axis@
	DD	FLAT:??_C@_0DF@NHPBMGBM@joystick?5DirectX?5axis?5for?5verti@
	DD	FLAT:?command_line_eo_pan_vertical_joystick_axis@@3HA
	DD	00H
	DD	00H
	DD	00H
	DD	FLAT:?set_axis@@YGXPBUconfig_option@@PBD@Z
	DD	FLAT:?get_axis@@YGXPBUconfig_option@@PAD@Z
	DD	FLAT:??_C@_06NHJKIJGA@eopanh@
	DD	FLAT:??_C@_0BN@COCCDGCP@pan_joystick_horizontal_axis@
	DD	FLAT:??_C@_0DH@INMMIKEC@joystick?5DirectX?5axis?5for?5horiz@
	DD	FLAT:?command_line_eo_pan_horizontal_joystick_axis@@3HA
	DD	00H
	DD	00H
	DD	00H
	DD	FLAT:?set_axis@@YGXPBUconfig_option@@PBD@Z
	DD	FLAT:?get_axis@@YGXPBUconfig_option@@PAD@Z
	DD	FLAT:??_C@_07BGMHIFHB@eozoomn@
	DD	FLAT:??_C@_0BE@KNMDBJHI@zoom_joystick_index@
	DD	FLAT:??_C@_0CG@LLFIBEBJ@joystick?5number?5for?5EO?9camera?5z@
	DD	FLAT:?command_line_eo_zoom_joystick_index@@3HA
	DD	00H
	DD	00H
	DD	00H
	DD	FLAT:?set_int@@YGXPBUconfig_option@@PBD@Z
	DD	FLAT:?get_int@@YGXPBUconfig_option@@PAD@Z
	DD	FLAT:??_C@_08MLKODCOM@eozoomax@
	DD	FLAT:??_C@_0BD@KLANKCGC@zoom_joystick_axis@
	DD	FLAT:??_C@_0CM@HKHCGLOI@joystick?5DirectX?5axis?5for?5EO?9ca@
	DD	FLAT:?command_line_eo_zoom_joystick_axis@@3HA
	DD	00H
	DD	00H
	DD	00H
	DD	FLAT:?set_axis@@YGXPBUconfig_option@@PBD@Z
	DD	FLAT:?get_axis@@YGXPBUconfig_option@@PAD@Z
	DD	FLAT:??_C@_0P@FDFHNHOB@field_of_viewn@
	DD	FLAT:??_C@_00CNPNBAHC@@
	DD	FLAT:??_C@_0DG@KMIKPFDP@joystick?5number?5for?5field?5of?5vi@
	DD	FLAT:?command_line_field_of_view_joystick_index@@3HA
	DD	00H
	DD	00H
	DD	00H
	DD	FLAT:?set_int@@YGXPBUconfig_option@@PBD@Z
	DD	FLAT:?get_int@@YGXPBUconfig_option@@PAD@Z
	DD	FLAT:??_C@_0BA@DLOEDBPK@field_of_viewax@
	DD	FLAT:??_C@_00CNPNBAHC@@
	DD	FLAT:??_C@_0DM@MIPOMAI@joystick?5DirectX?5axis?5for?5field@
	DD	FLAT:?command_line_field_of_view_joystick_axis@@3HA
	DD	00H
	DD	00H
	DD	00H
	DD	FLAT:?set_axis@@YGXPBUconfig_option@@PBD@Z
	DD	FLAT:?get_axis@@YGXPBUconfig_option@@PAD@Z
	DD	FLAT:??_C@_07JICKHOFH@cyclicn@
	DD	FLAT:??_C@_0BG@BHAHFLBH@cyclic_joystick_index@
	DD	FLAT:??_C@_0BL@IDANEPJP@Joystick?5number?5for?5cyclic@
	DD	FLAT:?command_line_cyclic_joystick_index@@3HA
	DD	00H
	DD	00H
	DD	00H
	DD	FLAT:?set_int@@YGXPBUconfig_option@@PBD@Z
	DD	FLAT:?get_int@@YGXPBUconfig_option@@PAD@Z
	DD	FLAT:??_C@_07MOHANJNB@cyclich@
	DD	FLAT:??_C@_0BH@POCOCCKO@cyclic_joystick_x_axis@
	DD	FLAT:??_C@_0CM@NEIFGDG@Joystick?5DirectX?5axis?5for?5cycli@
	DD	FLAT:?command_line_cyclic_joystick_x_axis@@3HA
	DD	00H
	DD	00H
	DD	00H
	DD	FLAT:?set_axis@@YGXPBUconfig_option@@PBD@Z
	DD	FLAT:?get_axis@@YGXPBUconfig_option@@PAD@Z
	DD	FLAT:??_C@_07BKDBOGAO@cyclicv@
	DD	FLAT:??_C@_0BH@FIFJCJBK@cyclic_joystick_y_axis@
	DD	FLAT:??_C@_0CK@MHDEGCPA@Joystick?5DirectX?5axis?5for?5cycli@
	DD	FLAT:?command_line_cyclic_joystick_y_axis@@3HA
	DD	00H
	DD	00H
	DD	00H
	DD	FLAT:?set_axis@@YGXPBUconfig_option@@PBD@Z
	DD	FLAT:?get_axis@@YGXPBUconfig_option@@PAD@Z
	DD	FLAT:??_C@_0M@LELEGBDG@collectiven@
	DD	FLAT:??_C@_0BK@JMMKAKLF@collective_joystick_index@
	DD	FLAT:??_C@_0CA@GDBDCNCB@Joystick?5no?4?5for?5the?5collective@
	DD	FLAT:?command_line_collective_joystick_index@@3HA
	DD	00H
	DD	00H
	DD	00H
	DD	FLAT:?set_int@@YGXPBUconfig_option@@PBD@Z
	DD	FLAT:?get_int@@YGXPBUconfig_option@@PAD@Z
	DD	FLAT:??_C@_0N@CDLEJFDL@collectiveax@
	DD	FLAT:??_C@_0BJ@MMJAIAMM@collective_joystick_axis@
	DD	FLAT:??_C@_0CJ@PKPHONOH@Joystick?5DirectX?5acis?5for?5the?5c@
	DD	FLAT:?command_line_collective_joystick_axis@@3HA
	DD	00H
	DD	00H
	DD	00H
	DD	FLAT:?set_axis@@YGXPBUconfig_option@@PBD@Z
	DD	FLAT:?get_axis@@YGXPBUconfig_option@@PAD@Z
	DD	FLAT:??_C@_07JFNMCIBA@ruddern@
	DD	FLAT:??_C@_0BG@PKDIOIHJ@rudder_joystick_index@
	DD	FLAT:??_C@_0BM@PPANBMO@Joystick?5no?4?5for?5the?5rudder@
	DD	FLAT:?command_line_rudder_joystick_index@@3HA
	DD	00H
	DD	00H
	DD	00H
	DD	FLAT:?set_int@@YGXPBUconfig_option@@PBD@Z
	DD	FLAT:?get_int@@YGXPBUconfig_option@@PAD@Z
	DD	FLAT:??_C@_08PBJIHIIP@rudderax@
	DD	FLAT:??_C@_0BF@DIEJIGBG@rudder_joystick_axis@
	DD	FLAT:??_C@_0CF@IFGNKENI@Joystick?5DirectX?5axis?5for?5the?5r@
	DD	FLAT:?command_line_rudder_joystick_axis@@3HA
	DD	00H
	DD	00H
	DD	00H
	DD	FLAT:?set_axis@@YGXPBUconfig_option@@PBD@Z
	DD	FLAT:?get_axis@@YGXPBUconfig_option@@PAD@Z
	DD	FLAT:??_C@_08BIGNGNIE@joylookn@
	DD	FLAT:??_C@_0BH@GODBHLDM@joylookn_joystick_axis@
	DD	FLAT:??_C@_0CE@KPEBEKLI@joystick?5no?4?5used?5for?5joystick?5@
	DD	FLAT:?command_line_joylook_joystick_index@@3HA
	DD	00H
	DD	00H
	DD	00H
	DD	FLAT:?set_int@@YGXPBUconfig_option@@PBD@Z
	DD	FLAT:?get_int@@YGXPBUconfig_option@@PAD@Z
	DD	FLAT:??_C@_08EODHMKAC@joylookh@
	DD	FLAT:??_C@_0BH@DNKABCNI@joylookh_joystick_axis@
	DD	FLAT:??_C@_0DI@LPAPNLPI@joystick?5DirectX?5axis?5used?5for?5@
	DD	FLAT:?command_line_joylookh_joystick_axis@@3HA
	DD	00H
	DD	00H
	DD	00H
	DD	FLAT:?set_axis@@YGXPBUconfig_option@@PBD@Z
	DD	FLAT:?get_axis@@YGXPBUconfig_option@@PAD@Z
	DD	FLAT:??_C@_08JKHGPFNN@joylookv@
	DD	FLAT:??_C@_0BH@PLAFNKON@joylookv_joystick_axis@
	DD	FLAT:??_C@_0DG@KIMHBEKG@joystick?5DirectX?5axis?5used?5for?5@
	DD	FLAT:?command_line_joylookv_joystick_axis@@3HA
	DD	00H
	DD	00H
	DD	00H
	DD	FLAT:?set_axis@@YGXPBUconfig_option@@PBD@Z
	DD	FLAT:?get_axis@@YGXPBUconfig_option@@PAD@Z
	DD	FLAT:??_C@_09LFGAKGIF@joylookst@
	DD	FLAT:??_C@_0N@BFCBPNEC@joylook_step@
	DD	FLAT:??_C@_0DD@EPGLDAEM@joystick?5look?5step?5?$CI1?5?$DN?5min?0?510@
	DD	FLAT:?command_line_joylook_step@@3HA
	DD	00H
	DD	00H
	DD	00H
	DD	FLAT:?set_int@@YGXPBUconfig_option@@PBD@Z
	DD	FLAT:?get_int@@YGXPBUconfig_option@@PAD@Z
	DD	FLAT:??_C@_0BB@GBFNCJCJ@nonlinear?9cyclic@
	DD	FLAT:??_C@_00CNPNBAHC@@
	DD	FLAT:??_C@_0FN@FMBMEKCK@use?5non?9linear?5control?5for?5cycl@
	DD	FLAT:?command_line_nonlinear_pedals@@3HA
	DD	00H
	DD	00H
	DD	00H
	DD	FLAT:?set_int@@YGXPBUconfig_option@@PBD@Z
	DD	FLAT:?get_int@@YGXPBUconfig_option@@PAD@Z
	DD	FLAT:??_C@_0BB@EPDMLJON@nonlinear?9pedals@
	DD	FLAT:??_C@_00CNPNBAHC@@
	DD	FLAT:??_C@_0FN@JKNFEPJN@use?5non?9linear?5control?5for?5peda@
	DD	FLAT:?command_line_nonlinear_cyclic@@3HA
	DD	00H
	DD	00H
	DD	00H
	DD	FLAT:?set_int@@YGXPBUconfig_option@@PBD@Z
	DD	FLAT:?get_int@@YGXPBUconfig_option@@PAD@Z
	DD	FLAT:??_C@_0BL@DBMOJCNN@nonlinear?9collective?9zone1@
	DD	FLAT:??_C@_00CNPNBAHC@@
	DD	FLAT:??_C@_0KH@IFEGBILA@non?9linear?5control?5value?5for?5th@
	DD	00H
	DD	FLAT:?command_line_collective_zone_1_limit@@3MA
	DD	00H
	DD	00H
	DD	FLAT:?set_float@@YGXPBUconfig_option@@PBD@Z
	DD	FLAT:?get_float@@YGXPBUconfig_option@@PAD@Z
	DD	FLAT:??_C@_0BL@BKODMBBO@nonlinear?9collective?9zone2@
	DD	FLAT:??_C@_00CNPNBAHC@@
	DD	FLAT:??_C@_0KH@CJDCAKGJ@non?9linear?5control?5value?5for?5th@
	DD	00H
	DD	FLAT:?command_line_collective_zone_2_limit@@3MA
	DD	00H
	DD	00H
	DD	FLAT:?set_float@@YGXPBUconfig_option@@PBD@Z
	DD	FLAT:?get_float@@YGXPBUconfig_option@@PAD@Z
	DD	FLAT:??_C@_0CJ@PDMOBHOO@nonlinear?9collective?9percentage@
	DD	FLAT:??_C@_00CNPNBAHC@@
	DD	FLAT:??_C@_0FN@GCICPGGK@collective?5percentage?5at?5zone1?4@
	DD	00H
	DD	FLAT:?command_line_collective_percentage_at_zone1@@3MA
	DD	00H
	DD	00H
	DD	FLAT:?set_float@@YGXPBUconfig_option@@PBD@Z
	DD	FLAT:?get_float@@YGXPBUconfig_option@@PAD@Z
	DD	FLAT:??_C@_0O@MEIAALND@reverse_pedal@
	DD	FLAT:??_C@_00CNPNBAHC@@
	DD	FLAT:??_C@_0FB@ILIOBNLB@reversed?5pedal?5input?5?$CI0?5?$DN?5off?1b@
	DD	FLAT:?command_line_reverse_pedal@@3HA
	DD	00H
	DD	00H
	DD	00H
	DD	FLAT:?set_int@@YGXPBUconfig_option@@PBD@Z
	DD	FLAT:?get_int@@YGXPBUconfig_option@@PAD@Z
	DD	FLAT:??_C@_03IIAIPNJP@msl@
	DD	FLAT:??_C@_09CALKNOPP@mouselook@
	DD	FLAT:??_C@_0GJ@HAAHGLIG@activates?5mouselook?5?$CIand?5TrackI@
	DD	FLAT:?command_line_mouse_look@@3HA
	DD	00H
	DD	00H
	DD	00H
	DD	FLAT:?set_int@@YGXPBUconfig_option@@PBD@Z
	DD	FLAT:?get_int@@YGXPBUconfig_option@@PAD@Z
	DD	FLAT:??_C@_04GECKKMBN@msls@
	DD	FLAT:??_C@_0L@FJKAIGID@mousespeed@
	DD	FLAT:??_C@_0GF@IMMIJIBB@mouselook?5speed?5?$CIwhen?5msl?$DN1?$CJ?5?$CIn@
	DD	FLAT:?command_line_mouse_look_speed@@3HA
	DD	00H
	DD	00H
	DD	00H
	DD	FLAT:?set_int@@YGXPBUconfig_option@@PBD@Z
	DD	FLAT:?get_int@@YGXPBUconfig_option@@PAD@Z
	DD	FLAT:??_C@_08KOPKMAGD@TIR_6DOF@
	DD	FLAT:??_C@_00CNPNBAHC@@
	DD	FLAT:??_C@_0DG@PBPFFILO@6?5DoF?5support?5for?5TrackIR?5?$CI0?5?$DN?5@
	DD	FLAT:?command_line_TIR_6DOF@@3HA
	DD	00H
	DD	00H
	DD	00H
	DD	FLAT:?set_int@@YGXPBUconfig_option@@PBD@Z
	DD	FLAT:?get_int@@YGXPBUconfig_option@@PAD@Z
	DD	FLAT:??_C@_0BB@INCOIGLG@external_trackir@
	DD	FLAT:??_C@_00CNPNBAHC@@
	DD	FLAT:??_C@_0FF@PLCJDGJM@?$CIonly?5when?5msl?$DN1?$CJ?5external?5came@
	DD	FLAT:?command_line_external_trackir@@3HA
	DD	00H
	DD	00H
	DD	00H
	DD	FLAT:?set_int@@YGXPBUconfig_option@@PBD@Z
	DD	FLAT:?get_int@@YGXPBUconfig_option@@PAD@Z
	DD	FLAT:??_C@_0BF@BBKHFDFA@external_trackir_dir@
	DD	FLAT:??_C@_0BL@BLACHPBD@external_trackir_direction@
	DD	FLAT:??_C@_0GC@KHJBJPCD@?$CIonly?5when?5external_trackir?$DN1?$CJ?5@
	DD	FLAT:?command_line_external_trackir_direction@@3HA
	DD	00H
	DD	00H
	DD	00H
	DD	FLAT:?set_int@@YGXPBUconfig_option@@PBD@Z
	DD	FLAT:?get_int@@YGXPBUconfig_option@@PAD@Z
	DD	00H
	DD	00H
	DD	FLAT:??_C@_00CNPNBAHC@@
	DD	00H
	DD	00H
	DD	00H
	DD	00H
	DD	00H
	DD	00H
	DD	00H
	DD	00H
	DD	FLAT:??_C@_0BA@BMJFGALL@?$FLMiscellaneous?$FN@
	DD	00H
	DD	00H
	DD	00H
	DD	00H
	DD	00H
	DD	00H
	DD	FLAT:??_C@_06EOIELIPE@filter@
	DD	FLAT:??_C@_0P@FMFMDKKO@session_filter@
	DD	FLAT:??_C@_0CO@JGECNKOJ@session?5filtering?5?$CI0?5?$DN?5off?0?51?5?$DN@
	DD	FLAT:?command_line_session_filter@@3HA
	DD	00H
	DD	00H
	DD	00H
	DD	FLAT:?set_int@@YGXPBUconfig_option@@PBD@Z
	DD	FLAT:?get_int@@YGXPBUconfig_option@@PAD@Z
	DD	FLAT:??_C@_08CCMFCJIM@autosave@
	DD	FLAT:??_C@_00CNPNBAHC@@
	DD	FLAT:??_C@_0CK@JIGPLLDG@autosave?5?$CIn?5?$DN?5minutes?0?50?5?$DN?5off?$CJ@
	DD	00H
	DD	00H
	DD	00H
	DD	00H
	DD	FLAT:?set_autosave@@YGXPBUconfig_option@@PBD@Z
	DD	FLAT:?get_autosave@@YGXPBUconfig_option@@PAD@Z
	DD	FLAT:??_C@_03DLKMOMFB@dfr@
	DD	FLAT:??_C@_09PLDKGHKD@framerate@
	DD	FLAT:??_C@_0EP@HNCLPBNM@display?5framerate?5?$CI0?5?$DN?5off?0?51?5?$DN@
	DD	FLAT:?command_line_framerate@@3HA
	DD	00H
	DD	00H
	DD	00H
	DD	FLAT:?set_int@@YGXPBUconfig_option@@PBD@Z
	DD	FLAT:?get_int@@YGXPBUconfig_option@@PAD@Z
	DD	FLAT:??_C@_04MABHPDAO@goto@
	DD	FLAT:??_C@_0BE@LLNAGGBK@planner_goto_button@
	DD	FLAT:??_C@_0EM@JKMNODII@?$CCGOTO?$CC?5?$CIteleport?$CJ?5functionality@
	DD	FLAT:?command_line_planner_goto_button@@3HA
	DD	00H
	DD	00H
	DD	00H
	DD	FLAT:?set_int@@YGXPBUconfig_option@@PBD@Z
	DD	FLAT:?get_int@@YGXPBUconfig_option@@PAD@Z
	DD	FLAT:??_C@_03MOGHNNL@vfm@
	DD	FLAT:??_C@_0BE@IBBKLAGG@vector_flight_model@
	DD	FLAT:??_C@_0FI@OEGPHJIL@vector?5flight?5model?5?$CIactivates?5@
	DD	FLAT:?command_line_vector_flight_model@@3HA
	DD	00H
	DD	00H
	DD	00H
	DD	FLAT:?set_int@@YGXPBUconfig_option@@PBD@Z
	DD	FLAT:?get_int@@YGXPBUconfig_option@@PAD@Z
	DD	FLAT:??_C@_03PODKENAC@psr@
	DD	FLAT:??_C@_0BC@NAHHIMAJ@player_start_rank@
	DD	FLAT:??_C@_0DD@DBNAJDKB@player?5start?5rank?5for?5new?5pilot@
	DD	FLAT:?command_line_player_start_rank@@3HA
	DD	00H
	DD	00H
	DD	00H
	DD	FLAT:?set_int@@YGXPBUconfig_option@@PBD@Z
	DD	FLAT:?get_int@@YGXPBUconfig_option@@PAD@Z
	DD	FLAT:??_C@_03DIOJJFFH@mta@
	DD	FLAT:??_C@_0BG@KOJHKFEE@max_time_acceleration@
	DD	FLAT:??_C@_0DO@LIHKGJKF@maximum?5time?5acceleration?5?$CIn?5?$DN?5@
	DD	FLAT:?command_line_max_time_acceleration@@3HA
	DD	00H
	DD	00H
	DD	00H
	DD	FLAT:?set_int@@YGXPBUconfig_option@@PBD@Z
	DD	FLAT:?get_int@@YGXPBUconfig_option@@PAD@Z
	DD	FLAT:??_C@_05DECPJPKH@nomcm@
	DD	FLAT:??_C@_00CNPNBAHC@@
	DD	FLAT:??_C@_0DG@DKBOHFCG@no?5mission?5complete?5music?5?$CI0?5?$DN?5@
	DD	FLAT:?command_line_no_mission_complete_music@@3HA
	DD	00H
	DD	00H
	DD	00H
	DD	FLAT:?set_int@@YGXPBUconfig_option@@PBD@Z
	DD	FLAT:?get_int@@YGXPBUconfig_option@@PAD@Z
	DD	FLAT:??_C@_0BG@DIEIPIBP@disable_text_messages@
	DD	FLAT:??_C@_00CNPNBAHC@@
	DD	FLAT:??_C@_0FO@JPMKHEOP@Disables?5the?5text?5messages?5disp@
	DD	FLAT:?command_line_disable_message_text@@3HA
	DD	00H
	DD	00H
	DD	00H
	DD	FLAT:?set_int@@YGXPBUconfig_option@@PBD@Z
	DD	FLAT:?get_int@@YGXPBUconfig_option@@PAD@Z
	DD	00H
	DD	FLAT:??_C@_02OFIBGMBD@41@
	DD	FLAT:??_C@_00CNPNBAHC@@
	DD	00H
	DD	00H
	DD	00H
	DD	00H
	DD	00H
	DD	00H
	DD	FLAT:??_C@_09ONMJLPIH@MEMEXPORT@
	DD	FLAT:??_C@_00CNPNBAHC@@
	DD	FLAT:??_C@_0EP@CIMGCJHA@export?5cockpit?5information?5to?5a@
	DD	FLAT:?command_line_shared_mem_export@@3HA
	DD	00H
	DD	00H
	DD	00H
	DD	FLAT:?set_int@@YGXPBUconfig_option@@PBD@Z
	DD	FLAT:?get_int@@YGXPBUconfig_option@@PAD@Z
	DD	FLAT:??_C@_0L@HMINCAOH@export_mfd@
	DD	FLAT:??_C@_00CNPNBAHC@@
	DD	FLAT:??_C@_0ED@GDMNGOCN@enables?5MFD?5export?5on?5multimon?5@
	DD	FLAT:?command_line_export_mfd@@3HA
	DD	00H
	DD	00H
	DD	00H
	DD	FLAT:?set_int@@YGXPBUconfig_option@@PBD@Z
	DD	FLAT:?get_int@@YGXPBUconfig_option@@PAD@Z
	DD	FLAT:??_C@_0BD@JLMFEABM@export_mfd_adapter@
	DD	FLAT:??_C@_00CNPNBAHC@@
	DD	FLAT:??_C@_0EN@POHDLBLJ@graphic?5adapter?5for?5MFD?5export?5@
	DD	FLAT:?command_line_export_mfd_adapter@@3HA
	DD	00H
	DD	00H
	DD	00H
	DD	FLAT:?set_int@@YGXPBUconfig_option@@PBD@Z
	DD	FLAT:?get_int@@YGXPBUconfig_option@@PAD@Z
	DD	FLAT:??_C@_0BI@ONKDEMLG@export_mfd_screen_width@
	DD	FLAT:??_C@_00CNPNBAHC@@
	DD	FLAT:??_C@_0EC@OJOLOKOC@resolution?5of?5export?5screen?5?$CIn?5@
	DD	FLAT:?command_line_export_mfd_screen_width@@3HA
	DD	00H
	DD	00H
	DD	00H
	DD	FLAT:?set_int@@YGXPBUconfig_option@@PBD@Z
	DD	FLAT:?get_int@@YGXPBUconfig_option@@PAD@Z
	DD	FLAT:??_C@_0BJ@DFNEBJJL@export_mfd_screen_height@
	DD	FLAT:??_C@_00CNPNBAHC@@
	DD	FLAT:??_C@_0EA@LBOGFIHF@resolution?5of?5export?5screen?5?$CIn?5@
	DD	FLAT:?command_line_export_mfd_screen_height@@3HA
	DD	00H
	DD	00H
	DD	00H
	DD	FLAT:?set_int@@YGXPBUconfig_option@@PBD@Z
	DD	FLAT:?get_int@@YGXPBUconfig_option@@PAD@Z
	DD	FLAT:??_C@_0BE@LGHDKBPA@export_mfd_left_pos@
	DD	FLAT:??_C@_00CNPNBAHC@@
	DD	FLAT:??_C@_0CI@GKGKPOCO@left?5MFD?5position?5?5?5?$CIdef?5?$DN?50?00?0@
	DD	FLAT:?command_line_export_mfd_left_pos@@3PAHA
	DD	00H
	DD	00H
	DD	00H
	DD	FLAT:?set_mfd_pos@@YGXPBUconfig_option@@PBD@Z
	DD	FLAT:?get_mfd_pos@@YGXPBUconfig_option@@PAD@Z
	DD	FLAT:??_C@_0BF@DJCCEPBO@export_mfd_right_pos@
	DD	FLAT:??_C@_00CNPNBAHC@@
	DD	FLAT:??_C@_0CJ@PEIOPEKI@right?5MFD?5position?5?$CIdef?5?$DN?5384?00@
	DD	FLAT:?command_line_export_mfd_right_pos@@3PAHA
	DD	00H
	DD	00H
	DD	00H
	DD	FLAT:?set_mfd_pos@@YGXPBUconfig_option@@PBD@Z
	DD	FLAT:?get_mfd_pos@@YGXPBUconfig_option@@PAD@Z
	DD	FLAT:??_C@_0BG@OFCOBNEE@export_mfd_single_pos@
	DD	FLAT:??_C@_00CNPNBAHC@@
	DD	FLAT:??_C@_0EL@DPINPKDO@single?5MFD?5position?5?$CIHavoc?0?5Hin@
	DD	FLAT:?command_line_export_mfd_single_pos@@3PAHA
	DD	00H
	DD	00H
	DD	00H
	DD	FLAT:?set_mfd_pos@@YGXPBUconfig_option@@PBD@Z
	DD	FLAT:?get_mfd_pos@@YGXPBUconfig_option@@PAD@Z
	DD	00H
	DD	00H
	DD	FLAT:??_C@_00CNPNBAHC@@
	DD	00H
	DD	00H
	DD	00H
	DD	00H
	DD	00H
	DD	00H
	DD	00H
	DD	FLAT:??_C@_02NCPIBIBE@33@
	DD	FLAT:??_C@_08NPKNDMMJ@?$FLSounds?$FN@
	DD	00H
	DD	00H
	DD	00H
	DD	00H
	DD	00H
	DD	00H
	DD	FLAT:??_C@_02EGOFOKPC@ns@
	DD	FLAT:??_C@_08NIOMBNPK@no_sound@
	DD	FLAT:??_C@_0FG@DIJFKGIA@bypass?5soundcard?5?$CIuseful?5for?5tr@
	DD	FLAT:?command_line_no_sound@@3HA
	DD	00H
	DD	00H
	DD	00H
	DD	FLAT:?set_int@@YGXPBUconfig_option@@PBD@Z
	DD	FLAT:?get_int@@YGXPBUconfig_option@@PAD@Z
	DD	FLAT:??_C@_0N@CFMGBAJM@sound_device@
	DD	FLAT:??_C@_00CNPNBAHC@@
	DD	FLAT:??_C@_0BC@FOALJFMH@sound?5device?5name@
	DD	00H
	DD	00H
	DD	FLAT:?command_line_sound_device@@3PADA
	DD	080H
	DD	FLAT:?set_sound_device@@YGXPBUconfig_option@@PBD@Z
	DD	FLAT:?get_sound_device@@YGXPBUconfig_option@@PAD@Z
	DD	FLAT:??_C@_0BE@DKDMBBGD@sound_device_speech@
	DD	FLAT:??_C@_00CNPNBAHC@@
	DD	FLAT:??_C@_0BN@KGELPIKB@sound?5device?5name?5for?5speech@
	DD	00H
	DD	00H
	DD	FLAT:?command_line_sound_device_speech@@3PADA
	DD	080H
	DD	FLAT:?set_sound_device@@YGXPBUconfig_option@@PBD@Z
	DD	FLAT:?get_sound_device@@YGXPBUconfig_option@@PAD@Z
	DD	FLAT:??_C@_07IDKNCEKK@hdwrbuf@
	DD	FLAT:??_C@_00CNPNBAHC@@
	DD	FLAT:??_C@_0FM@NLJKGFLI@hardware?5buffers?5to?5use?5for?5sou@
	DD	FLAT:?command_line_sound_hdwrbuf@@3HA
	DD	00H
	DD	00H
	DD	00H
	DD	FLAT:?set_int@@YGXPBUconfig_option@@PBD@Z
	DD	FLAT:?get_int@@YGXPBUconfig_option@@PAD@Z
	DD	FLAT:??_C@_0BC@GLKBOFLH@canopy_sounds_amp@
	DD	FLAT:??_C@_00CNPNBAHC@@
	DD	FLAT:??_C@_0CD@JJMDHBID@canopy?5sounds?5amplifier?5control@
	DD	00H
	DD	00H
	DD	00H
	DD	00H
	DD	FLAT:?set_canopy_amp@@YGXPBUconfig_option@@PBD@Z
	DD	FLAT:?get_canopy_amp@@YGXPBUconfig_option@@PAD@Z
	DD	FLAT:??_C@_0BA@DGEOOCBO@ui_sounds_muted@
	DD	FLAT:??_C@_00CNPNBAHC@@
	DD	FLAT:??_C@_0EL@PDHAHKNP@campaign?5UI?5mute?5?$CI0?5?$DN?5normal?5UI@
	DD	FLAT:?command_line_ui_sounds_muted@@3HA
	DD	00H
	DD	00H
	DD	00H
	DD	FLAT:?set_int@@YGXPBUconfig_option@@PBD@Z
	DD	FLAT:?get_int@@YGXPBUconfig_option@@PAD@Z
	DD	00H
	DD	00H
	DD	FLAT:??_C@_00CNPNBAHC@@
	DD	00H
	DD	00H
	DD	00H
	DD	00H
	DD	00H
	DD	00H
	DD	00H
	DD	FLAT:??_C@_02IFGANFKF@25@
	DD	FLAT:??_C@_0BB@DGAHHIPF@?$FLRandom?5weather?$FN@
	DD	00H
	DD	00H
	DD	00H
	DD	00H
	DD	00H
	DD	00H
	DD	FLAT:??_C@_08EGHIHOI@rw_rrmin@
	DD	FLAT:??_C@_00CNPNBAHC@@
	DD	FLAT:??_C@_0CE@PCGLMNBI@Rain?5effect?5minimum?5radius?5?$CImet@
	DD	00H
	DD	FLAT:?weather_rain_radius_min@@3MA
	DD	00H
	DD	00H
	DD	FLAT:?set_float@@YGXPBUconfig_option@@PBD@Z
	DD	FLAT:?get_float@@YGXPBUconfig_option@@PAD@Z
	DD	FLAT:??_C@_08BGOMGDIH@rw_rrmax@
	DD	FLAT:??_C@_00CNPNBAHC@@
	DD	FLAT:??_C@_0CE@CJNEJOPP@Rain?5effect?5maximum?5radius?5?$CImet@
	DD	00H
	DD	FLAT:?weather_rain_radius_max@@3MA
	DD	00H
	DD	00H
	DD	FLAT:?set_float@@YGXPBUconfig_option@@PBD@Z
	DD	FLAT:?get_float@@YGXPBUconfig_option@@PAD@Z
	DD	FLAT:??_C@_06NLOEDAI@rw_rsp@
	DD	FLAT:??_C@_00CNPNBAHC@@
	DD	FLAT:??_C@_0CG@FJBLINAC@Rain?5effect?5speed?5?$CImeters?5per?5s@
	DD	00H
	DD	FLAT:?weather_rain_speed@@3MA
	DD	00H
	DD	00H
	DD	FLAT:?set_float@@YGXPBUconfig_option@@PBD@Z
	DD	FLAT:?get_float@@YGXPBUconfig_option@@PAD@Z
	DD	FLAT:??_C@_08FEKKBGFL@rw_wrmin@
	DD	FLAT:??_C@_00CNPNBAHC@@
	DD	FLAT:??_C@_0CE@GLIBPHKC@Wind?5effect?5minimum?5radius?5?$CImet@
	DD	00H
	DD	FLAT:?weather_wind_radius_min@@3MA
	DD	00H
	DD	00H
	DD	FLAT:?set_float@@YGXPBUconfig_option@@PBD@Z
	DD	FLAT:?get_float@@YGXPBUconfig_option@@PAD@Z
	DD	FLAT:??_C@_08EGCBPCDE@rw_wrmax@
	DD	FLAT:??_C@_00CNPNBAHC@@
	DD	FLAT:??_C@_0CE@LADOKEEF@Wind?5effect?5maximum?5radius?5?$CImet@
	DD	00H
	DD	FLAT:?weather_wind_radius_max@@3MA
	DD	00H
	DD	00H
	DD	FLAT:?set_float@@YGXPBUconfig_option@@PBD@Z
	DD	FLAT:?get_float@@YGXPBUconfig_option@@PAD@Z
	DD	FLAT:??_C@_06DKGALDDK@rw_wsp@
	DD	FLAT:??_C@_00CNPNBAHC@@
	DD	FLAT:??_C@_0CG@IBDNILGI@Wind?5effect?5speed?5?$CImeters?5per?5s@
	DD	00H
	DD	FLAT:?weather_wind_speed@@3MA
	DD	00H
	DD	00H
	DD	FLAT:?set_float@@YGXPBUconfig_option@@PBD@Z
	DD	FLAT:?get_float@@YGXPBUconfig_option@@PAD@Z
	DD	00H
	DD	00H
	DD	FLAT:??_C@_00CNPNBAHC@@
	DD	00H
	DD	00H
	DD	00H
	DD	00H
	DD	00H
	DD	00H
	DD	00H
	DD	00H
	DD	FLAT:??_C@_0O@BLANADLO@?$FLend?5of?5file?$FN@
	DD	00H
	DD	00H
	DD	00H
	DD	00H
	DD	00H
	DD	00H
	DD	FLAT:??_C@_09ELLNFDPM@directory@
	DD	FLAT:??_C@_0DB@JNIAGIMK@command_line_game_initialisatio@
	DD	FLAT:??_C@_02OMOJBBMD@?10@
	DD	00H
	DD	00H
	DD	FLAT:?command_line_game_initialisation_phase_directory@@3PADA
	DD	080H
	DD	FLAT:?set_cstring@@YGXPBUconfig_option@@PBD@Z
	DD	00H
	DD	FLAT:??_C@_08BABJIOEM@filename@
	DD	FLAT:??_C@_0DA@PLIBFAOM@command_line_game_initialisatio@
	DD	FLAT:??_C@_02OMOJBBMD@?10@
	DD	00H
	DD	00H
	DD	FLAT:?command_line_game_initialisation_phase_filename@@3PADA
	DD	080H
	DD	FLAT:?set_cstring@@YGXPBUconfig_option@@PBD@Z
	DD	00H
	DD	FLAT:??_C@_03BDIFPLGB@3dw@
	DD	00H
	DD	FLAT:??_C@_03PHNPPMCB@640@
	DD	FLAT:?command_line_3d_visual_screen_width@@3HA
	DD	00H
	DD	00H
	DD	00H
	DD	FLAT:?set_3dw@@YGXPBUconfig_option@@PBD@Z
	DD	00H
	DD	FLAT:??_C@_03NONPPFPP@3dh@
	DD	00H
	DD	FLAT:??_C@_03FEMMMNMO@480@
	DD	FLAT:?command_line_3d_visual_screen_height@@3HA
	DD	00H
	DD	00H
	DD	00H
	DD	FLAT:?set_3dh@@YGXPBUconfig_option@@PBD@Z
	DD	00H
	DD	FLAT:??_C@_04DJADEAHL@3dce@
	DD	00H
	DD	FLAT:??_C@_01HIHLOKLC@1@
	DD	FLAT:?command_line_3d_visual_clear_edges@@3HA
	DD	00H
	DD	00H
	DD	00H
	DD	FLAT:?set_cint@@YGXPBUconfig_option@@PBD@Z
	DD	00H
	DD	FLAT:??_C@_03PHCINLLC@cbt@
	DD	00H
	DD	FLAT:??_C@_01HIHLOKLC@1@
	DD	FLAT:?command_line_cpu_blit_textures@@3HA
	DD	00H
	DD	00H
	DD	00H
	DD	FLAT:?set_cint@@YGXPBUconfig_option@@PBD@Z
	DD	00H
	DD	FLAT:??_C@_0BB@OCCKIOFG@force_resolution@
	DD	00H
	DD	FLAT:??_C@_01HIHLOKLC@1@
	DD	FLAT:?command_line_force_resolution@@3HA
	DD	00H
	DD	00H
	DD	00H
	DD	FLAT:?set_cint@@YGXPBUconfig_option@@PBD@Z
	DD	00H
	DD	FLAT:??_C@_02KLLMHECG@vn@
	DD	FLAT:??_C@_0P@LNKEPANE@version_number@
	DD	FLAT:??_C@_00CNPNBAHC@@
	DD	FLAT:?command_line_version_number@@3HA
	DD	00H
	DD	00H
	DD	00H
	DD	FLAT:?set_version_number@@YGXPBUconfig_option@@PBD@Z
	DD	00H
	DD	FLAT:??_C@_0BC@PJGHBECJ@aitool_grid_pitch@
	DD	00H
	DD	FLAT:??_C@_03MDAFIFFL@0?40@
	DD	00H
	DD	FLAT:?command_line_aitool_grid_pitch@@3MA
	DD	00H
	DD	00H
	DD	FLAT:?set_cfloat@@YGXPBUconfig_option@@PBD@Z
	DD	00H
	DD	FLAT:??_C@_08FAPBLKNL@run_mode@
	DD	00H
	DD	FLAT:??_C@_01GBGANLPD@0@
	DD	FLAT:?command_line_run_mode@@3HA
	DD	00H
	DD	00H
	DD	00H
	DD	FLAT:?set_cint@@YGXPBUconfig_option@@PBD@Z
	DD	00H
	DD	FLAT:??_C@_05POABADMF@cdrom@
	DD	00H
	DD	FLAT:??_C@_01POHCFINO@Z@
	DD	FLAT:?command_line_cdrom_drive_letter@@3HA
	DD	00H
	DD	00H
	DD	00H
	DD	FLAT:?set_cdrom@@YGXPBUconfig_option@@PBD@Z
	DD	00H
	DD	FLAT:??_C@_0N@HKBCAFGH@new_graphics@
	DD	00H
	DD	FLAT:??_C@_01HIHLOKLC@1@
	DD	FLAT:?command_line_new_graphics@@3HA
	DD	00H
	DD	00H
	DD	00H
	DD	FLAT:?set_cint@@YGXPBUconfig_option@@PBD@Z
	DD	00H
	DD	FLAT:??_C@_0BH@NONMHMBL@ai_use_route_generator@
	DD	00H
	DD	FLAT:??_C@_01HIHLOKLC@1@
	DD	FLAT:?command_line_ai_use_route_generator@@3HA
	DD	00H
	DD	00H
	DD	00H
	DD	FLAT:?set_cint@@YGXPBUconfig_option@@PBD@Z
	DD	00H
	DD	FLAT:??_C@_0BE@CKJCHJHD@no_convert_graphics@
	DD	00H
	DD	FLAT:??_C@_01HIHLOKLC@1@
	DD	FLAT:?command_line_no_graphics_conversion@@3HA
	DD	00H
	DD	00H
	DD	00H
	DD	FLAT:?set_cint@@YGXPBUconfig_option@@PBD@Z
	DD	00H
	DD	FLAT:??_C@_0N@BIEDLGOA@target_point@
	DD	00H
	DD	FLAT:??_C@_01HIHLOKLC@1@
	DD	FLAT:?command_line_target_point_check@@3HA
	DD	00H
	DD	00H
	DD	00H
	DD	FLAT:?set_cint@@YGXPBUconfig_option@@PBD@Z
	DD	00H
	DD	FLAT:??_C@_0BD@OPKIHNPE@no_pilot_rejection@
	DD	00H
	DD	FLAT:??_C@_01GBGANLPD@0@
	DD	FLAT:?command_line_no_pilot_rejection@@3HA
	DD	00H
	DD	00H
	DD	00H
	DD	FLAT:?set_cint@@YGXPBUconfig_option@@PBD@Z
	DD	00H
	DD	FLAT:??_C@_09HBIOOCMA@cheats_on@
	DD	00H
	DD	FLAT:??_C@_01GBGANLPD@0@
	DD	FLAT:?command_line_cheats_on@@3HA
	DD	00H
	DD	00H
	DD	00H
	DD	FLAT:?set_cint@@YGXPBUconfig_option@@PBD@Z
	DD	00H
	DD	FLAT:??_C@_0BH@COOBBPLA@dynamics_sonic_buildup@
	DD	00H
	DD	FLAT:??_C@_01HIHLOKLC@1@
	DD	FLAT:?command_line_dynamics_sonic_buildup@@3HA
	DD	00H
	DD	00H
	DD	00H
	DD	FLAT:?set_cint@@YGXPBUconfig_option@@PBD@Z
	DD	00H
	DD	FLAT:??_C@_0BH@DNIPDDIB@object_level_of_detail@
	DD	00H
	DD	FLAT:??_C@_03HLLJOCDO@1?40@
	DD	00H
	DD	FLAT:?command_line_object_lod_factor@@3MA
	DD	00H
	DD	00H
	DD	FLAT:?set_cfloat@@YGXPBUconfig_option@@PBD@Z
	DD	00H
	DD	FLAT:??_C@_0M@JFMHBHNN@debug_input@
	DD	00H
	DD	FLAT:??_C@_01HIHLOKLC@1@
	DD	FLAT:?command_line_debug_input@@3HA
	DD	00H
	DD	00H
	DD	00H
	DD	FLAT:?set_cint@@YGXPBUconfig_option@@PBD@Z
	DD	00H
	DD	FLAT:??_C@_0N@HEIEENKN@dump_session@
	DD	00H
	DD	FLAT:??_C@_01HIHLOKLC@1@
	DD	FLAT:?command_line_dump_session@@3HA
	DD	00H
	DD	00H
	DD	00H
	DD	FLAT:?set_cint@@YGXPBUconfig_option@@PBD@Z
	DD	00H
	DD	FLAT:??_C@_0BA@CMMDEKMC@hardware_render@
	DD	00H
	DD	FLAT:??_C@_01HIHLOKLC@1@
	DD	FLAT:?command_line_hardware_render@@3HA
	DD	00H
	DD	00H
	DD	00H
	DD	FLAT:?set_cint@@YGXPBUconfig_option@@PBD@Z
	DD	00H
	DD	FLAT:??_C@_0N@IDDNELHK@high_res_mfd@
	DD	00H
	DD	FLAT:??_C@_01HIHLOKLC@1@
	DD	FLAT:?command_line_high_res_mfd@@3HA
	DD	00H
	DD	00H
	DD	00H
	DD	FLAT:?set_cint@@YGXPBUconfig_option@@PBD@Z
	DD	00H
	DD	FLAT:??_C@_0BD@NEOBFGPH@generate_srtm_data@
	DD	00H
	DD	FLAT:??_C@_01GBGANLPD@0@
	DD	FLAT:?command_line_tacview_generate_srtm_height_data@@3HA
	DD	00H
	DD	00H
	DD	00H
	DD	FLAT:?set_cint@@YGXPBUconfig_option@@PBD@Z
	DD	00H
	DD	FLAT:??_C@_0L@HEGFAFJO@3d_cockpit@
	DD	00H
	DD	FLAT:??_C@_01GBGANLPD@0@
	DD	FLAT:?command_line_3d_cockpit@@3HA
	DD	00H
	DD	00H
	DD	00H
	DD	FLAT:?set_cint@@YGXPBUconfig_option@@PBD@Z
	DD	00H
	DD	FLAT:??_C@_03GOODKOKO@ini@
	DD	00H
	DD	FLAT:??_C@_01HIHLOKLC@1@
	DD	FLAT:?command_line_dump_ini@@3HA
	DD	00H
	DD	00H
	DD	00H
	DD	FLAT:?set_cint@@YGXPBUconfig_option@@PBD@Z
	DD	00H
PUBLIC	?strchr@@YAPADQADH@Z				; strchr
PUBLIC	_sprintf_s
PUBLIC	__vsprintf_s_l
PUBLIC	_fprintf
PUBLIC	__vfprintf_l
PUBLIC	?dump_ini_file@@YGXXZ				; dump_ini_file
PUBLIC	?process_ini_file@@YGXXZ			; process_ini_file
PUBLIC	?initialize_options@@YGXXZ			; initialize_options
PUBLIC	?parse_option@@YGHPBD0@Z			; parse_option
END
