; Listing generated by Microsoft (R) Optimizing Compiler Version 19.16.27045.0 

	TITLE	c:\users\nhv90\projects\eech\aphavoc\source\entity\system\en_debug\en_dbmsg.c
	.686P
	.XMM
	include listing.inc
	.model	flat

INCLUDELIB OLDNAMES

PUBLIC	??_C@_09BEMFOLKF@MESSAGE?3?5@			; `string'
PUBLIC	??_C@_0BE@LIFJKPML@To?5?$CFs?5?$CIindex?5?$DN?5?$CFd?$CJ?5@ ; `string'
PUBLIC	??_C@_0BH@NOOHDCPO@From?5?$CFs?5?$CIindex?5?$DN?5?$CFd?$CJ?3?5@ ; `string'
PUBLIC	??_C@_0BB@FINKNFAN@From?5ANONYMOUS?3?5@		; `string'
PUBLIC	??_C@_0BE@CBADKBKB@adjust?5land?5urgency@	; `string'
PUBLIC	??_C@_0L@NKLOMKMM@child?5move@			; `string'
PUBLIC	??_C@_0BM@NOKFCFHD@collision?5?$CIdistance?5?$DN?5?$CF?43f?$CJ@ ; `string'
PUBLIC	??_C@_0N@GDLHOFJC@decoy?5active@		; `string'
PUBLIC	??_C@_0O@OKJDPIKB@decoy?5expired@		; `string'
PUBLIC	??_C@_0BF@DALPNJMP@group?5return?5to?5base@	; `string'
PUBLIC	??_C@_0BA@KJFAOCGM@group?5taken?5off@		; `string'
PUBLIC	??_C@_0BF@DCEJJOGC@landing?5site?5request@	; `string'
PUBLIC	??_C@_0BA@HPFNPFJI@link?5child?5?$CI?$CFs?$CJ@	; `string'
PUBLIC	??_C@_0BI@NKAHFIDL@link?5parent?5?$CIlist?5?$DN?5?$CFs?$CJ@ ; `string'
PUBLIC	??_C@_0BD@MGNOKFIK@lock?5landing?5route@	; `string'
PUBLIC	??_C@_0BC@KFLEJCKG@lock?5landing?5site@		; `string'
PUBLIC	??_C@_0BD@LAHEPNMB@lock?5takeoff?5route@	; `string'
PUBLIC	??_C@_0M@LNHGCCPI@prototype?51@			; `string'
PUBLIC	??_C@_0M@JGFLHBDL@prototype?52@			; `string'
PUBLIC	??_C@_0M@IPEAEAHK@prototype?53@			; `string'
PUBLIC	??_C@_0M@MAABNGLN@prototype?54@			; `string'
PUBLIC	??_C@_0BF@BMFFDNDK@reserve?5landing?5site@	; `string'
PUBLIC	??_C@_0BH@OOOAKBBM@set?5camera?5action?5?$CI?$CFs?$CJ@ ; `string'
PUBLIC	??_C@_0CA@IAFOHOMG@set?5camera?5action?5?$CIaction?5?$DN?5?$CFd?$CJ@ ; `string'
PUBLIC	??_C@_0BE@KLDAPBCE@set?5entity?5position@	; `string'
PUBLIC	??_C@_0O@EFEEODKA@task?5assigned@		; `string'
PUBLIC	??_C@_0BD@LFMBFLFO@task?5objective?5met@	; `string'
PUBLIC	??_C@_0BG@OMJFNPLK@task?5objective?5failed@	; `string'
PUBLIC	??_C@_0BA@ELAPOEJK@task?5terminated@		; `string'
PUBLIC	??_C@_0BJ@CHLKBFNJ@unlink?5child?5?$CIlist?5?$DN?5?$CFs?$CJ@ ; `string'
PUBLIC	??_C@_0BK@LGCNLKLO@unlink?5parent?5?$CIlist?5?$DN?5?$CFs?$CJ@ ; `string'
PUBLIC	??_C@_0BF@MOMAOPPE@unlock?5landing?5route@	; `string'
PUBLIC	??_C@_0BE@NGMDMBOL@unlock?5landing?5site@	; `string'
PUBLIC	??_C@_0BF@LIGKLHLP@unlock?5takeoff?5route@	; `string'
PUBLIC	??_C@_0BH@DLOAMJNC@unreserve?5landing?5site@	; `string'
PUBLIC	??_C@_0BI@BLAIMPNH@waypoint?5attack?5reached@	; `string'
PUBLIC	??_C@_0BK@PPJGFLGK@waypoint?5drop?9off?5reached@ ; `string'
PUBLIC	??_C@_0BF@BHIKLEGI@waypoint?5end?5reached@	; `string'
PUBLIC	??_C@_0BG@NFDFPAJL@waypoint?5land?5reached@	; `string'
PUBLIC	??_C@_0BI@KFCMJPI@waypoint?5landed?5reached@	; `string'
PUBLIC	??_C@_0BG@NDMPNNNH@waypoint?5loop?5reached@	; `string'
PUBLIC	??_C@_0BM@IHFHOJGP@waypoint?5navigation?5reached@ ; `string'
PUBLIC	??_C@_0CG@CFGKCNBN@waypoint?5sub_route?5navigation?5r@ ; `string'
PUBLIC	??_C@_0BJ@FLNNAJJH@waypoint?5pick?9up?5reached@	; `string'
PUBLIC	??_C@_0BB@HAJMBCO@waypoint?5reached@		; `string'
PUBLIC	??_C@_0BL@JMJEKPIB@waypoint?5taken?9off?5reached@ ; `string'
PUBLIC	??_C@_0BG@IIIMAABE@waypoint?5taxi?5reached@	; `string'
PUBLIC	??_C@_0BM@OPMNNLPI@Invalid?5entity?5message?5?$DN?5?$CFd@ ; `string'
;	COMDAT ??_C@_0BM@OPMNNLPI@Invalid?5entity?5message?5?$DN?5?$CFd@
CONST	SEGMENT
??_C@_0BM@OPMNNLPI@Invalid?5entity?5message?5?$DN?5?$CFd@ DB 'Invalid ent'
	DB	'ity message = %d', 00H			; `string'
CONST	ENDS
;	COMDAT ??_C@_0BG@IIIMAABE@waypoint?5taxi?5reached@
CONST	SEGMENT
??_C@_0BG@IIIMAABE@waypoint?5taxi?5reached@ DB 'waypoint taxi reached', 00H ; `string'
CONST	ENDS
;	COMDAT ??_C@_0BL@JMJEKPIB@waypoint?5taken?9off?5reached@
CONST	SEGMENT
??_C@_0BL@JMJEKPIB@waypoint?5taken?9off?5reached@ DB 'waypoint taken-off '
	DB	'reached', 00H				; `string'
CONST	ENDS
;	COMDAT ??_C@_0BB@HAJMBCO@waypoint?5reached@
CONST	SEGMENT
??_C@_0BB@HAJMBCO@waypoint?5reached@ DB 'waypoint reached', 00H ; `string'
CONST	ENDS
;	COMDAT ??_C@_0BJ@FLNNAJJH@waypoint?5pick?9up?5reached@
CONST	SEGMENT
??_C@_0BJ@FLNNAJJH@waypoint?5pick?9up?5reached@ DB 'waypoint pick-up reac'
	DB	'hed', 00H					; `string'
CONST	ENDS
;	COMDAT ??_C@_0CG@CFGKCNBN@waypoint?5sub_route?5navigation?5r@
CONST	SEGMENT
??_C@_0CG@CFGKCNBN@waypoint?5sub_route?5navigation?5r@ DB 'waypoint sub_r'
	DB	'oute navigation reached', 00H		; `string'
CONST	ENDS
;	COMDAT ??_C@_0BM@IHFHOJGP@waypoint?5navigation?5reached@
CONST	SEGMENT
??_C@_0BM@IHFHOJGP@waypoint?5navigation?5reached@ DB 'waypoint navigation'
	DB	' reached', 00H				; `string'
CONST	ENDS
;	COMDAT ??_C@_0BG@NDMPNNNH@waypoint?5loop?5reached@
CONST	SEGMENT
??_C@_0BG@NDMPNNNH@waypoint?5loop?5reached@ DB 'waypoint loop reached', 00H ; `string'
CONST	ENDS
;	COMDAT ??_C@_0BI@KFCMJPI@waypoint?5landed?5reached@
CONST	SEGMENT
??_C@_0BI@KFCMJPI@waypoint?5landed?5reached@ DB 'waypoint landed reached', 00H ; `string'
CONST	ENDS
;	COMDAT ??_C@_0BG@NFDFPAJL@waypoint?5land?5reached@
CONST	SEGMENT
??_C@_0BG@NFDFPAJL@waypoint?5land?5reached@ DB 'waypoint land reached', 00H ; `string'
CONST	ENDS
;	COMDAT ??_C@_0BF@BHIKLEGI@waypoint?5end?5reached@
CONST	SEGMENT
??_C@_0BF@BHIKLEGI@waypoint?5end?5reached@ DB 'waypoint end reached', 00H ; `string'
CONST	ENDS
;	COMDAT ??_C@_0BK@PPJGFLGK@waypoint?5drop?9off?5reached@
CONST	SEGMENT
??_C@_0BK@PPJGFLGK@waypoint?5drop?9off?5reached@ DB 'waypoint drop-off re'
	DB	'ached', 00H					; `string'
CONST	ENDS
;	COMDAT ??_C@_0BI@BLAIMPNH@waypoint?5attack?5reached@
CONST	SEGMENT
??_C@_0BI@BLAIMPNH@waypoint?5attack?5reached@ DB 'waypoint attack reached'
	DB	00H						; `string'
CONST	ENDS
;	COMDAT ??_C@_0BH@DLOAMJNC@unreserve?5landing?5site@
CONST	SEGMENT
??_C@_0BH@DLOAMJNC@unreserve?5landing?5site@ DB 'unreserve landing site', 00H ; `string'
CONST	ENDS
;	COMDAT ??_C@_0BF@LIGKLHLP@unlock?5takeoff?5route@
CONST	SEGMENT
??_C@_0BF@LIGKLHLP@unlock?5takeoff?5route@ DB 'unlock takeoff route', 00H ; `string'
CONST	ENDS
;	COMDAT ??_C@_0BE@NGMDMBOL@unlock?5landing?5site@
CONST	SEGMENT
??_C@_0BE@NGMDMBOL@unlock?5landing?5site@ DB 'unlock landing site', 00H ; `string'
CONST	ENDS
;	COMDAT ??_C@_0BF@MOMAOPPE@unlock?5landing?5route@
CONST	SEGMENT
??_C@_0BF@MOMAOPPE@unlock?5landing?5route@ DB 'unlock landing route', 00H ; `string'
CONST	ENDS
;	COMDAT ??_C@_0BK@LGCNLKLO@unlink?5parent?5?$CIlist?5?$DN?5?$CFs?$CJ@
CONST	SEGMENT
??_C@_0BK@LGCNLKLO@unlink?5parent?5?$CIlist?5?$DN?5?$CFs?$CJ@ DB 'unlink '
	DB	'parent (list = %s)', 00H			; `string'
CONST	ENDS
;	COMDAT ??_C@_0BJ@CHLKBFNJ@unlink?5child?5?$CIlist?5?$DN?5?$CFs?$CJ@
CONST	SEGMENT
??_C@_0BJ@CHLKBFNJ@unlink?5child?5?$CIlist?5?$DN?5?$CFs?$CJ@ DB 'unlink c'
	DB	'hild (list = %s)', 00H			; `string'
CONST	ENDS
;	COMDAT ??_C@_0BA@ELAPOEJK@task?5terminated@
CONST	SEGMENT
??_C@_0BA@ELAPOEJK@task?5terminated@ DB 'task terminated', 00H ; `string'
CONST	ENDS
;	COMDAT ??_C@_0BG@OMJFNPLK@task?5objective?5failed@
CONST	SEGMENT
??_C@_0BG@OMJFNPLK@task?5objective?5failed@ DB 'task objective failed', 00H ; `string'
CONST	ENDS
;	COMDAT ??_C@_0BD@LFMBFLFO@task?5objective?5met@
CONST	SEGMENT
??_C@_0BD@LFMBFLFO@task?5objective?5met@ DB 'task objective met', 00H ; `string'
CONST	ENDS
;	COMDAT ??_C@_0O@EFEEODKA@task?5assigned@
CONST	SEGMENT
??_C@_0O@EFEEODKA@task?5assigned@ DB 'task assigned', 00H ; `string'
CONST	ENDS
;	COMDAT ??_C@_0BE@KLDAPBCE@set?5entity?5position@
CONST	SEGMENT
??_C@_0BE@KLDAPBCE@set?5entity?5position@ DB 'set entity position', 00H ; `string'
CONST	ENDS
;	COMDAT ??_C@_0CA@IAFOHOMG@set?5camera?5action?5?$CIaction?5?$DN?5?$CFd?$CJ@
CONST	SEGMENT
??_C@_0CA@IAFOHOMG@set?5camera?5action?5?$CIaction?5?$DN?5?$CFd?$CJ@ DB 's'
	DB	'et camera action (action = %d)', 00H	; `string'
CONST	ENDS
;	COMDAT ??_C@_0BH@OOOAKBBM@set?5camera?5action?5?$CI?$CFs?$CJ@
CONST	SEGMENT
??_C@_0BH@OOOAKBBM@set?5camera?5action?5?$CI?$CFs?$CJ@ DB 'set camera act'
	DB	'ion (%s)', 00H				; `string'
CONST	ENDS
;	COMDAT ??_C@_0BF@BMFFDNDK@reserve?5landing?5site@
CONST	SEGMENT
??_C@_0BF@BMFFDNDK@reserve?5landing?5site@ DB 'reserve landing site', 00H ; `string'
CONST	ENDS
;	COMDAT ??_C@_0M@MAABNGLN@prototype?54@
CONST	SEGMENT
??_C@_0M@MAABNGLN@prototype?54@ DB 'prototype 4', 00H	; `string'
CONST	ENDS
;	COMDAT ??_C@_0M@IPEAEAHK@prototype?53@
CONST	SEGMENT
??_C@_0M@IPEAEAHK@prototype?53@ DB 'prototype 3', 00H	; `string'
CONST	ENDS
;	COMDAT ??_C@_0M@JGFLHBDL@prototype?52@
CONST	SEGMENT
??_C@_0M@JGFLHBDL@prototype?52@ DB 'prototype 2', 00H	; `string'
CONST	ENDS
;	COMDAT ??_C@_0M@LNHGCCPI@prototype?51@
CONST	SEGMENT
??_C@_0M@LNHGCCPI@prototype?51@ DB 'prototype 1', 00H	; `string'
CONST	ENDS
;	COMDAT ??_C@_0BD@LAHEPNMB@lock?5takeoff?5route@
CONST	SEGMENT
??_C@_0BD@LAHEPNMB@lock?5takeoff?5route@ DB 'lock takeoff route', 00H ; `string'
CONST	ENDS
;	COMDAT ??_C@_0BC@KFLEJCKG@lock?5landing?5site@
CONST	SEGMENT
??_C@_0BC@KFLEJCKG@lock?5landing?5site@ DB 'lock landing site', 00H ; `string'
CONST	ENDS
;	COMDAT ??_C@_0BD@MGNOKFIK@lock?5landing?5route@
CONST	SEGMENT
??_C@_0BD@MGNOKFIK@lock?5landing?5route@ DB 'lock landing route', 00H ; `string'
CONST	ENDS
;	COMDAT ??_C@_0BI@NKAHFIDL@link?5parent?5?$CIlist?5?$DN?5?$CFs?$CJ@
CONST	SEGMENT
??_C@_0BI@NKAHFIDL@link?5parent?5?$CIlist?5?$DN?5?$CFs?$CJ@ DB 'link pare'
	DB	'nt (list = %s)', 00H			; `string'
CONST	ENDS
;	COMDAT ??_C@_0BA@HPFNPFJI@link?5child?5?$CI?$CFs?$CJ@
CONST	SEGMENT
??_C@_0BA@HPFNPFJI@link?5child?5?$CI?$CFs?$CJ@ DB 'link child (%s)', 00H ; `string'
CONST	ENDS
;	COMDAT ??_C@_0BF@DCEJJOGC@landing?5site?5request@
CONST	SEGMENT
??_C@_0BF@DCEJJOGC@landing?5site?5request@ DB 'landing site request', 00H ; `string'
CONST	ENDS
;	COMDAT ??_C@_0BA@KJFAOCGM@group?5taken?5off@
CONST	SEGMENT
??_C@_0BA@KJFAOCGM@group?5taken?5off@ DB 'group taken off', 00H ; `string'
CONST	ENDS
;	COMDAT ??_C@_0BF@DALPNJMP@group?5return?5to?5base@
CONST	SEGMENT
??_C@_0BF@DALPNJMP@group?5return?5to?5base@ DB 'group return to base', 00H ; `string'
CONST	ENDS
;	COMDAT ??_C@_0O@OKJDPIKB@decoy?5expired@
CONST	SEGMENT
??_C@_0O@OKJDPIKB@decoy?5expired@ DB 'decoy expired', 00H ; `string'
CONST	ENDS
;	COMDAT ??_C@_0N@GDLHOFJC@decoy?5active@
CONST	SEGMENT
??_C@_0N@GDLHOFJC@decoy?5active@ DB 'decoy active', 00H	; `string'
CONST	ENDS
;	COMDAT ??_C@_0BM@NOKFCFHD@collision?5?$CIdistance?5?$DN?5?$CF?43f?$CJ@
CONST	SEGMENT
??_C@_0BM@NOKFCFHD@collision?5?$CIdistance?5?$DN?5?$CF?43f?$CJ@ DB 'colli'
	DB	'sion (distance = %.3f)', 00H		; `string'
CONST	ENDS
;	COMDAT ??_C@_0L@NKLOMKMM@child?5move@
CONST	SEGMENT
??_C@_0L@NKLOMKMM@child?5move@ DB 'child move', 00H	; `string'
CONST	ENDS
;	COMDAT ??_C@_0BE@CBADKBKB@adjust?5land?5urgency@
CONST	SEGMENT
??_C@_0BE@CBADKBKB@adjust?5land?5urgency@ DB 'adjust land urgency', 00H ; `string'
CONST	ENDS
;	COMDAT ??_C@_0BB@FINKNFAN@From?5ANONYMOUS?3?5@
CONST	SEGMENT
??_C@_0BB@FINKNFAN@From?5ANONYMOUS?3?5@ DB 'From ANONYMOUS: ', 00H ; `string'
CONST	ENDS
;	COMDAT ??_C@_0BH@NOOHDCPO@From?5?$CFs?5?$CIindex?5?$DN?5?$CFd?$CJ?3?5@
CONST	SEGMENT
??_C@_0BH@NOOHDCPO@From?5?$CFs?5?$CIindex?5?$DN?5?$CFd?$CJ?3?5@ DB 'From '
	DB	'%s (index = %d): ', 00H			; `string'
CONST	ENDS
;	COMDAT ??_C@_0BE@LIFJKPML@To?5?$CFs?5?$CIindex?5?$DN?5?$CFd?$CJ?5@
CONST	SEGMENT
??_C@_0BE@LIFJKPML@To?5?$CFs?5?$CIindex?5?$DN?5?$CFd?$CJ?5@ DB 'To %s (in'
	DB	'dex = %d) ', 00H				; `string'
CONST	ENDS
;	COMDAT ??_C@_09BEMFOLKF@MESSAGE?3?5@
CONST	SEGMENT
??_C@_09BEMFOLKF@MESSAGE?3?5@ DB 'MESSAGE: ', 00H	; `string'
END
