; Listing generated by Microsoft (R) Optimizing Compiler Version 19.16.27045.0 

	TITLE	c:\users\nhv90\projects\eech\aphavoc\source\entity\system\en_funcs\en_dstry.c
	.686P
	.XMM
	include listing.inc
	.model	flat

INCLUDELIB OLDNAMES

PUBLIC	?fn_destroy_client_server_entity@@3PAY01P6GXPAUENTITY@@@ZA ; fn_destroy_client_server_entity
PUBLIC	??_C@_0CN@JNNHFOGN@default_kill_entity?5invoked?3?5?$CFs@ ; `string'
PUBLIC	?fn_kill_client_server_entity@@3PAY01P6GXPAUENTITY@@@ZA ; fn_kill_client_server_entity
PUBLIC	?fn_destroy_client_server_entity_family@@3PAY01P6GXPAUENTITY@@@ZA ; fn_destroy_client_server_entity_family
PUBLIC	?fn_destroy_local_entity_family@@3PAP6GXPAUENTITY@@@ZA ; fn_destroy_local_entity_family
PUBLIC	?fn_destroy_local_entity@@3PAP6GXPAUENTITY@@@ZA	; fn_destroy_local_entity
PUBLIC	?fn_kill_local_entity@@3PAP6GXPAUENTITY@@@ZA	; fn_kill_local_entity
?fn_destroy_client_server_entity@@3PAY01P6GXPAUENTITY@@@ZA DD 04cH DUP (?) ; fn_destroy_client_server_entity
?fn_kill_client_server_entity@@3PAY01P6GXPAUENTITY@@@ZA DD 04cH DUP (?) ; fn_kill_client_server_entity
?fn_destroy_client_server_entity_family@@3PAY01P6GXPAUENTITY@@@ZA DD 04cH DUP (?) ; fn_destroy_client_server_entity_family
?fn_destroy_local_entity_family@@3PAP6GXPAUENTITY@@@ZA DD 026H DUP (?) ; fn_destroy_local_entity_family
?fn_destroy_local_entity@@3PAP6GXPAUENTITY@@@ZA DD 026H DUP (?) ; fn_destroy_local_entity
?fn_kill_local_entity@@3PAP6GXPAUENTITY@@@ZA DD 026H DUP (?) ; fn_kill_local_entity
_BSS	ENDS
;	COMDAT ??_C@_0CN@JNNHFOGN@default_kill_entity?5invoked?3?5?$CFs@
CONST	SEGMENT
??_C@_0CN@JNNHFOGN@default_kill_entity?5invoked?3?5?$CFs@ DB 'default_kil'
	DB	'l_entity invoked: %s (index = %d)', 00H	; `string'
PUBLIC	?destroy_local_only_entities@@YGXXZ		; destroy_local_only_entities
PUBLIC	?destroy_local_entities@@YGXXZ			; destroy_local_entities
PUBLIC	?initialise_entity_destroy_default_functions@@YGXXZ ; initialise_entity_destroy_default_functions
PUBLIC	?destroy_local_entity_children@@YGXPAUENTITY@@W4LIST_TYPES@@@Z ; destroy_local_entity_children
PUBLIC	?destroy_client_server_entity_children@@YGXPAUENTITY@@W4LIST_TYPES@@@Z ; destroy_client_server_entity_children
PUBLIC	?destroy_local_entity@@YGXPAUENTITY@@@Z		; destroy_local_entity
END
