; Listing generated by Microsoft (R) Optimizing Compiler Version 19.16.27045.0 

	TITLE	c:\users\nhv90\projects\eech\aphavoc\source\entity\system\en_funcs\en_int.c
	.686P
	.XMM
	include listing.inc
	.model	flat

INCLUDELIB OLDNAMES

PUBLIC	?fn_set_local_entity_int_value@@3PAY0BBH@P6GXPAUENTITY@@W4INT_TYPES@@H@ZA ; fn_set_local_entity_int_value
PUBLIC	?fn_get_local_entity_int_value@@3PAY0BBH@P6GHPAUENTITY@@W4INT_TYPES@@@ZA ; fn_get_local_entity_int_value
PUBLIC	?fn_set_client_server_entity_int_value@@3PAY1BBH@1P6GXPAUENTITY@@W4INT_TYPES@@H@ZA ; fn_set_client_server_entity_int_value
PUBLIC	??_C@_0BC@FBCPGLAJ@INT_TYPE_ADDITIVE@		; `string'
PUBLIC	??_C@_0BN@NCIIBGC@INT_TYPE_AIR_ATTACK_STRENGTH@	; `string'
PUBLIC	??_C@_0CH@OMINJOND@INT_TYPE_AIR_TO_AIR_WEAPON_CONF@ ; `string'
PUBLIC	??_C@_0CL@NPCLNPIJ@INT_TYPE_AIR_TO_SURFACE_WEAPON_@ ; `string'
PUBLIC	??_C@_0BL@JHLABGDH@INT_TYPE_AIRBORNE_AIRCRAFT@	; `string'
PUBLIC	??_C@_0BI@GEPGDCHA@INT_TYPE_AIRCRAFT_GROUP@	; `string'
PUBLIC	??_C@_0BM@NJAJECAE@INT_TYPE_ALIGN_WITH_TERRAIN@	; `string'
PUBLIC	??_C@_0P@IIKLCPBA@INT_TYPE_ALIVE@		; `string'
PUBLIC	??_C@_0BK@MODAFBGC@INT_TYPE_ANIMATED_TEXTURE@	; `string'
PUBLIC	??_C@_0CH@NDELLEIG@INT_TYPE_APPROXIMATION_OBJECT_3@ ; `string'
PUBLIC	??_C@_0BI@GAOFLLOB@INT_TYPE_ASSESS_LANDING@	; `string'
PUBLIC	??_C@_0BN@CCIPKPKJ@INT_TYPE_AUTO_ASSIGN_GUNSHIP@ ; `string'
PUBLIC	??_C@_0BE@LFBGOJEL@INT_TYPE_AUTO_PILOT@		; `string'
PUBLIC	??_C@_0BI@OBLHFIPI@INT_TYPE_AWARDED_MEDALS@	; `string'
PUBLIC	??_C@_0BL@NLBPJBEH@INT_TYPE_AWARDED_PROMOTION@	; `string'
PUBLIC	??_C@_0BN@ECIBNGJD@INT_TYPE_BRIDGE_SEGMENT_TYPE@ ; `string'
PUBLIC	??_C@_0BF@HOFBNFDG@INT_TYPE_CAMERA_MODE@	; `string'
PUBLIC	??_C@_0CB@CJPMMFPO@INT_TYPE_CAMPAIGN_CRITERIA_COUN@ ; `string'
PUBLIC	??_C@_0CC@POKENIGE@INT_TYPE_CAMPAIGN_CRITERIA_RESU@ ; `string'
PUBLIC	??_C@_0CA@LIHKLGF@INT_TYPE_CAMPAIGN_CRITERIA_TYPE@ ; `string'
PUBLIC	??_C@_0CB@KLGMJPCD@INT_TYPE_CAMPAIGN_CRITERIA_VALU@ ; `string'
PUBLIC	??_C@_0BI@JABJLDKO@INT_TYPE_CAMPAIGN_MEDAL@	; `string'
PUBLIC	??_C@_0CI@IHPPDALN@INT_TYPE_CAMPAIGN_REQUIRES_APAC@ ; `string'
PUBLIC	??_C@_0BI@FIIBDKKN@INT_TYPE_CHEATS_ENABLED@	; `string'
PUBLIC	??_C@_0BP@MJIOIIIA@INT_TYPE_CHECK_WAYPOINT_ACTION@ ; `string'
PUBLIC	??_C@_0BF@ECFPKCBA@INT_TYPE_CHILD_COUNT@	; `string'
PUBLIC	??_C@_0BO@ENCJOKKN@INT_TYPE_COLLISION_TEST_FIXED@ ; `string'
PUBLIC	??_C@_0BP@JPOPJLDL@INT_TYPE_COLLISION_TEST_MOBILE@ ; `string'
PUBLIC	??_C@_0BA@HNGONDAP@INT_TYPE_COLOUR@		; `string'
PUBLIC	??_C@_0BG@GIKPJECO@INT_TYPE_COLOUR_ALPHA@	; `string'
PUBLIC	??_C@_0BF@IHDJGBKC@INT_TYPE_COLOUR_BLUE@	; `string'
PUBLIC	??_C@_0BG@IJKBHGOB@INT_TYPE_COLOUR_GREEN@	; `string'
PUBLIC	??_C@_0BE@DLGFIKIO@INT_TYPE_COLOUR_RED@		; `string'
PUBLIC	??_C@_0P@NJOAMNDE@INT_TYPE_COUNT@		; `string'
PUBLIC	??_C@_0BI@KBCIEDKF@INT_TYPE_CPG_IDENTIFIED@	; `string'
PUBLIC	??_C@_0BD@ILNAFFIO@INT_TYPE_CREW_ROLE@		; `string'
PUBLIC	??_C@_0BH@LFMLFNEC@INT_TYPE_CRITICAL_TASK@	; `string'
PUBLIC	??_C@_0BG@POHBDPLD@INT_TYPE_DAMAGE_LEVEL@	; `string'
PUBLIC	??_C@_0N@DODKCJNG@INT_TYPE_DAY@			; `string'
PUBLIC	??_C@_0BK@NBDOLEEL@INT_TYPE_DAY_SEGMENT_TYPE@	; `string'
PUBLIC	??_C@_0BP@PIHBDMNK@INT_TYPE_DELAY_TASK_ASSIGNMENT@ ; `string'
PUBLIC	??_C@_0BK@MGMOOMEE@INT_TYPE_DEFAULT_3D_SHAPE@	; `string'
PUBLIC	??_C@_0BO@KBDBEDOD@INT_TYPE_DEFAULT_ENGAGE_ENEMY@ ; `string'
PUBLIC	??_C@_0CB@DJKEODKM@INT_TYPE_DEFAULT_GROUP_LIST_TYP@ ; `string'
PUBLIC	??_C@_0CE@CEKICBPJ@INT_TYPE_DEFAULT_WEAPON_CONFIG_@ ; `string'
PUBLIC	??_C@_0BN@BEFINDGL@INT_TYPE_DEFAULT_WEAPON_TYPE@ ; `string'
PUBLIC	??_C@_0BM@BCBCJDBO@INT_TYPE_DESTROYED_3D_SHAPE@	; `string'
PUBLIC	??_C@_0BK@IGFCPJKL@INT_TYPE_DIFFICULTY_LEVEL@	; `string'
PUBLIC	??_C@_0BF@HDJJJHMI@INT_TYPE_DIVISION_ID@	; `string'
PUBLIC	??_C@_0BB@NDKKLBDK@INT_TYPE_EJECTED@		; `string'
PUBLIC	??_C@_0BC@FIBFGAKK@INT_TYPE_END_NODE@		; `string'
PUBLIC	??_C@_0BG@JIAJAOMH@INT_TYPE_ENGAGE_ENEMY@	; `string'
PUBLIC	??_C@_0BJ@DGJACMFM@INT_TYPE_ENTITY_SUB_TYPE@	; `string'
PUBLIC	??_C@_0BE@JFJEDPCH@INT_TYPE_EVADE_FIRE@		; `string'
PUBLIC	??_C@_0BJ@MIOMLECC@INT_TYPE_EXPLOSIVE_POWER@	; `string'
PUBLIC	??_C@_0BL@DLPBAJFP@INT_TYPE_EXPLOSIVE_QUALITY@	; `string'
PUBLIC	??_C@_0BI@LBNAPDDA@INT_TYPE_EXPOSURE_LEVEL@	; `string'
PUBLIC	??_C@_0BK@LLMKCGHK@INT_TYPE_FOLLOW_FORMATION@	; `string'
PUBLIC	??_C@_0P@EPPLNEHN@INT_TYPE_FORCE@		; `string'
PUBLIC	??_C@_0BI@HPEGCDIE@INT_TYPE_FORCE_ATTITUDE@	; `string'
PUBLIC	??_C@_0BN@NIFELFAJ@INT_TYPE_FORCE_INFO_CATAGORY@ ; `string'
PUBLIC	??_C@_0BM@DNKBMCOH@INT_TYPE_FORCE_SECTOR_COUNT@	; `string'
PUBLIC	??_C@_0BM@MBJAMKLP@INT_TYPE_FORMATION_POSITION@	; `string'
PUBLIC	??_C@_0BN@MKIJDAEA@INT_TYPE_FORMATION_POSITIONS@ ; `string'
PUBLIC	??_C@_0BM@LHPJEMBI@INT_TYPE_FREE_LANDING_SITES@	; `string'
PUBLIC	??_C@_0BD@JNIHAJIN@INT_TYPE_FRONTLINE@		; `string'
PUBLIC	??_C@_0BO@DNAEDGCL@INT_TYPE_GROUND_RADAR_CLUTTER@ ; `string'
PUBLIC	??_C@_0BK@MFMDMGAD@INT_TYPE_GROUP_AMALGAMATE@	; `string'
PUBLIC	??_C@_0BI@IPFGFFBM@INT_TYPE_GROUP_CALLSIGN@	; `string'
PUBLIC	??_C@_0BI@FDANFNOO@INT_TYPE_GROUP_CATEGORY@	; `string'
PUBLIC	??_C@_0CB@MJLOFLFO@INT_TYPE_GROUP_DEFAULT_FORMATIO@ ; `string'
PUBLIC	??_C@_0BJ@KMKKLNEN@INT_TYPE_GROUP_FORMATION@	; `string'
PUBLIC	??_C@_0BG@MBCGCHOJ@INT_TYPE_GROUP_LEADER@	; `string'
PUBLIC	??_C@_0BJ@GLDFIEHP@INT_TYPE_GROUP_LIST_TYPE@	; `string'
PUBLIC	??_C@_0BJ@NHGLEIH@INT_TYPE_GROUP_MEMBER_ID@	; `string'
PUBLIC	??_C@_0BN@NHICOJIA@INT_TYPE_GROUP_MEMBER_NUMBER@ ; `string'
PUBLIC	??_C@_0BM@NKALAGLG@INT_TYPE_GROUP_MEMBER_STATE@	; `string'
PUBLIC	??_C@_0BE@MDDGMONN@INT_TYPE_GROUP_MODE@		; `string'
PUBLIC	??_C@_0BN@MAGCAEEO@INT_TYPE_GUIDE_CRITERIA_TYPE@ ; `string'
PUBLIC	??_C@_0BN@HMAJBIBI@INT_TYPE_GUIDE_POSITION_TYPE@ ; `string'
PUBLIC	??_C@_0CB@FMPDOHMI@INT_TYPE_GUNSHIP_RADAR_LOS_CLEA@ ; `string'
PUBLIC	??_C@_0BG@MDMMBMNO@INT_TYPE_GUNSHIP_TYPE@	; `string'
PUBLIC	??_C@_0BP@KHGNMCLJ@INT_TYPE_HAND_OFF_TARGET_COUNT@ ; `string'
PUBLIC	??_C@_0CA@MCCAMKLF@INT_TYPE_HARD_DAMAGE_CAPABILITY@ ; `string'
PUBLIC	??_C@_0CB@MBIBKCAB@INT_TYPE_HELICOPTER_DAMAGE_FLAG@ ; `string'
PUBLIC	??_C@_0CB@GOBKFGMA@INT_TYPE_HELICOPTER_DAMAGE_LEVE@ ; `string'
PUBLIC	??_C@_0BO@GNAHNBMP@INT_TYPE_HIDDEN_BY_FOG_OF_WAR@ ; `string'
PUBLIC	??_C@_0BL@BENAEKCM@INT_TYPE_IDENTIFY_AIRCRAFT@	; `string'
PUBLIC	??_C@_0CA@COCHHNDA@INT_TYPE_IDENTIFY_ANTI_AIRCRAFT@ ; `string'
PUBLIC	??_C@_0BI@OHGDOJCA@INT_TYPE_IDENTIFY_CARGO@	; `string'
PUBLIC	??_C@_0BI@IBDNOJD@INT_TYPE_IDENTIFY_FIXED@	; `string'
PUBLIC	??_C@_0BN@NCFPMDAN@INT_TYPE_IDENTIFY_FIXED_WING@ ; `string'
PUBLIC	??_C@_0BN@NBFEGIAF@INT_TYPE_IDENTIFY_HELICOPTER@ ; `string'
PUBLIC	??_C@_0BJ@FOMLLMKE@INT_TYPE_IDENTIFY_MOBILE@	; `string'
PUBLIC	??_C@_0BJ@KJCEJOJN@INT_TYPE_IDENTIFY_ROUTED@	; `string'
PUBLIC	??_C@_0BP@OILKCKHP@INT_TYPE_IDENTIFY_SHIP_VEHICLE@ ; `string'
PUBLIC	??_C@_0BK@CPGDGNIB@INT_TYPE_IDENTIFY_VEHICLE@	; `string'
PUBLIC	??_C@_0BL@MMHNGEMJ@INT_TYPE_IDENTIFY_WAYPOINT@	; `string'
PUBLIC	??_C@_0BJ@LHPNFJBF@INT_TYPE_IDENTIFY_WEAPON@	; `string'
PUBLIC	??_C@_0BD@OHAGEOLD@INT_TYPE_ID_NUMBER@		; `string'
PUBLIC	??_C@_0CG@NHKODKBL@INT_TYPE_ID_NUMBER_SIGNIFICANT_@ ; `string'
PUBLIC	??_C@_0BH@BKDHCIBB@INT_TYPE_INFINITE_FUEL@	; `string'
PUBLIC	??_C@_0BM@LBAOPFDM@INT_TYPE_INFINITE_GENERATOR@	; `string'
PUBLIC	??_C@_0BK@DJKPLBCA@INT_TYPE_INFINITE_WEAPONS@	; `string'
PUBLIC	??_C@_0BN@KGAHCFBH@INT_TYPE_INFRA_RED_JAMMER_ON@ ; `string'
PUBLIC	??_C@_0BO@NEMECMDA@INT_TYPE_INITIAL_DAMAGE_LEVEL@ ; `string'
PUBLIC	??_C@_0BH@GDNDIMIL@INT_TYPE_INSIDE_HANGAR@	; `string'
PUBLIC	??_C@_0CG@ENEDAOJ@INT_TYPE_INVULNERABLE_FROM_COLL@ ; `string'
PUBLIC	??_C@_0CD@ELKJJPHG@INT_TYPE_INVULNERABLE_FROM_WEAP@ ; `string'
PUBLIC	??_C@_0BA@LKIPNGJ@INT_TYPE_IN_USE@		; `string'
PUBLIC	??_C@_0BH@BFODCGJO@INT_TYPE_KEYSITE_COUNT@	; `string'
PUBLIC	??_C@_0BE@PMMAGDGF@INT_TYPE_KEYSITE_ID@		; `string'
PUBLIC	??_C@_0BO@FODANLMN@INT_TYPE_KEYSITE_USABLE_STATE@ ; `string'
PUBLIC	??_C@_0BK@NFJFFAPC@INT_TYPE_KILL_NEXT_UPDATE@	; `string'
PUBLIC	??_C@_0P@NLCHOAEF@INT_TYPE_KILLS@		; `string'
PUBLIC	??_C@_0BA@BMFDAAFA@INT_TYPE_LANDED@		; `string'
PUBLIC	??_C@_0BF@HCGDOACJ@INT_TYPE_LANDED_LOCK@	; `string'
PUBLIC	??_C@_0BL@GAIJPMMN@INT_TYPE_LANDED_ON_CARRIER@	; `string'
PUBLIC	??_C@_0BG@PEKPLENC@INT_TYPE_LANDING_LOCK@	; `string'
PUBLIC	??_C@_0BH@LBKICFHE@INT_TYPE_LANDING_TYPES@	; `string'
PUBLIC	??_C@_0BC@DHAKFMNG@INT_TYPE_LASER_ON@		; `string'
PUBLIC	??_C@_0BA@CECGGLOD@INT_TYPE_LENGTH@		; `string'
PUBLIC	??_C@_0BD@GBPBNAIL@INT_TYPE_LIGHTS_ON@		; `string'
PUBLIC	??_C@_0BM@NLINKOFB@INT_TYPE_LOCAL_EFFECT_COUNT@	; `string'
PUBLIC	??_C@_0BK@EBFHCJIG@INT_TYPE_LOCAL_ONLY_GROUP@	; `string'
PUBLIC	??_C@_0BN@MGMMDOL@INT_TYPE_LOCAL_WEATHER_MODEL@	; `string'
PUBLIC	??_C@_0BO@GAOHPEKE@INT_TYPE_LOCK_ON_AFTER_LAUNCH@ ; `string'
PUBLIC	??_C@_0BA@HGGENJKD@INT_TYPE_LOSSES@		; `string'
PUBLIC	??_C@_0BH@JKBILNPO@INT_TYPE_LOS_TO_TARGET@	; `string'
PUBLIC	??_C@_0BM@BHDBGKLH@INT_TYPE_MAIN_ROTOR_DAMAGED@	; `string'
PUBLIC	??_C@_0BC@LOCLDNEB@INT_TYPE_MAP_ICON@		; `string'
PUBLIC	??_C@_0BO@ELNOBGDH@INT_TYPE_MAXIMUM_MEMBER_COUNT@ ; `string'
PUBLIC	??_C@_0BI@LCHJNFIL@INT_TYPE_MAXIMUM_VOLUME@	; `string'
PUBLIC	??_C@_0CA@BGBCLAML@INT_TYPE_MAX_WEAPON_CONFIG_TYPE@ ; `string'
PUBLIC	??_C@_0BG@OOEANHLB@INT_TYPE_MEMBER_COUNT@	; `string'
PUBLIC	??_C@_0BL@EBJOLAME@INT_TYPE_MESSAGE_TEXT_TYPE@	; `string'
PUBLIC	??_C@_0BN@PEMKFENG@INT_TYPE_META_EXPLOSION_TYPE@ ; `string'
PUBLIC	??_C@_0BO@IFJFMIC@INT_TYPE_META_SMOKE_LIST_TYPE@ ; `string'
PUBLIC	??_C@_0BM@NAFCMKDO@INT_TYPE_MINIMUM_IDLE_COUNT@	; `string'
PUBLIC	??_C@_0BO@FIJLPAJM@INT_TYPE_MINIMUM_MEMBER_COUNT@ ; `string'
PUBLIC	??_C@_0CA@BCIIIBOB@INT_TYPE_MIN_WEAPON_CONFIG_TYPE@ ; `string'
PUBLIC	??_C@_0CH@HANHHPFM@INT_TYPE_MOBILE_FOLLOW_WAYPOINT@ ; `string'
PUBLIC	??_C@_0BH@MHBHHPPM@INT_TYPE_MOBILE_MOVING@	; `string'
PUBLIC	??_C@_0BE@BPCNBHMB@INT_TYPE_MOVED_TYPE@		; `string'
PUBLIC	??_C@_0BH@GCAHFCLC@INT_TYPE_MOVEMENT_TYPE@	; `string'
PUBLIC	??_C@_0BL@HMPHIOIH@INT_TYPE_MULTIPLAYER_GROUP@	; `string'
PUBLIC	??_C@_0BJ@KOFFCOGA@INT_TYPE_OBJECT_3D_SHAPE@	; `string'
PUBLIC	??_C@_0CG@CLGHGPGM@INT_TYPE_OBJECT_DRAWN_ONCE_THIS@ ; `string'
PUBLIC	??_C@_0BG@FAKIGPED@INT_TYPE_OBJECT_INDEX@	; `string'
PUBLIC	??_C@_0BI@PKLBMGLE@INT_TYPE_OBJECT_SCALING@	; `string'
PUBLIC	??_C@_0BO@LOFFCOHL@INT_TYPE_OFFENSIVE_CAPABILITY@ ; `string'
PUBLIC	??_C@_0BL@HLDJFNKL@INT_TYPE_OPERATIONAL_STATE@	; `string'
PUBLIC	??_C@_0BI@DGPBGLEA@INT_TYPE_PARTICLE_COUNT@	; `string'
PUBLIC	??_C@_0BJ@BEALBFMH@INT_TYPE_PERFORM_DEBRIEF@	; `string'
PUBLIC	??_C@_0BE@CKHHIPIH@INT_TYPE_PILOT_RANK@		; `string'
PUBLIC	??_C@_0BK@LLCODJKA@INT_TYPE_PLANNER_MOVEABLE@	; `string'
PUBLIC	??_C@_0BA@DMAIEIHA@INT_TYPE_PLAYER@		; `string'
PUBLIC	??_C@_0BN@LEFBMCCN@INT_TYPE_PLAYER_CONTROLLABLE@ ; `string'
PUBLIC	??_C@_0BF@LEAGFCAM@INT_TYPE_PLAYER_TASK@	; `string'
PUBLIC	??_C@_0BG@KIDIGGAJ@INT_TYPE_POINTS_VALUE@	; `string'
PUBLIC	??_C@_0BH@MPDIHIOP@INT_TYPE_POSITION_HOLD@	; `string'
PUBLIC	??_C@_0BH@BDHNGBHK@INT_TYPE_POSITION_TYPE@	; `string'
PUBLIC	??_C@_0CG@FAHNHPAI@INT_TYPE_POTENTIAL_CAMPAIGN_OBJ@ ; `string'
PUBLIC	??_C@_0BG@HPPOMDFJ@INT_TYPE_PRIMARY_TASK@	; `string'
PUBLIC	??_C@_0BF@CFGBPJEF@INT_TYPE_PROTOTYPE_1@	; `string'
PUBLIC	??_C@_0BF@OEMKKIG@INT_TYPE_PROTOTYPE_2@		; `string'
PUBLIC	??_C@_0BF@BHFHJLMH@INT_TYPE_PROTOTYPE_3@	; `string'
PUBLIC	??_C@_0BF@FIBGANAA@INT_TYPE_PROTOTYPE_4@	; `string'
PUBLIC	??_C@_0BJ@KELAGFKD@INT_TYPE_RADAR_JAMMER_ON@	; `string'
PUBLIC	??_C@_0BC@GKOACFGD@INT_TYPE_RADAR_ON@		; `string'
PUBLIC	??_C@_0BM@KMBACLON@INT_TYPE_RADIO_MESSAGE_TYPE@	; `string'
PUBLIC	??_C@_0BN@EIKIADLB@INT_TYPE_RADIO_MESSAGE_VALUE@ ; `string'
PUBLIC	??_C@_0BC@HOBCKNGF@INT_TYPE_REARMING@		; `string'
PUBLIC	??_C@_0CB@LPNKCFCO@INT_TYPE_REGEN_CREATION_SUB_TYP@ ; `string'
PUBLIC	??_C@_0BM@HONHDLKK@INT_TYPE_REGISTRY_LIST_TYPE@	; `string'
PUBLIC	??_C@_0CA@DKDODGJG@INT_TYPE_RESERVED_LANDING_SITES@ ; `string'
PUBLIC	??_C@_0BJ@DOIIHGJG@INT_TYPE_RESUPPLY_SOURCE@	; `string'
PUBLIC	??_C@_0BB@EFKGCEPB@INT_TYPE_ROTATED@		; `string'
PUBLIC	??_C@_0BJ@CGKCDBD@INT_TYPE_ROUTE_CHECK_SUM@	; `string'
PUBLIC	??_C@_0BG@ICFJCFNO@INT_TYPE_ROUTE_LENGTH@	; `string'
PUBLIC	??_C@_0BE@EJMFKNME@INT_TYPE_ROUTE_NODE@		; `string'
PUBLIC	??_C@_0BN@DBEDMPNJ@INT_TYPE_RULES_OF_ENGAGEMENT@ ; `string'
PUBLIC	??_C@_0CC@KJFMAFNO@INT_TYPE_SCOUT_WEAPON_CONFIG_TY@ ; `string'
PUBLIC	??_C@_0BF@CMNBPJFP@INT_TYPE_SECTOR_SIDE@	; `string'
PUBLIC	??_C@_0BJ@POFHNFDG@INT_TYPE_SELECTED_WEAPON@	; `string'
PUBLIC	??_C@_0CG@BEDKFHGL@INT_TYPE_SELECTED_WEAPON_SYSTEM@ ; `string'
PUBLIC	??_C@_0BK@LCLJDIGI@INT_TYPE_SESSION_COMPLETE@	; `string'
PUBLIC	??_C@_0O@OBAKKFNG@INT_TYPE_SIDE@		; `string'
PUBLIC	??_C@_0BJ@NIOPFIIO@INT_TYPE_SKIP_NIGHT_TIME@	; `string'
PUBLIC	??_C@_0BE@FEMGMFJN@INT_TYPE_SMOKE_TYPE@		; `string'
PUBLIC	??_C@_0CA@MHGHPHBA@INT_TYPE_SOFT_DAMAGE_CAPABILITY@ ; `string'
PUBLIC	??_C@_0BD@FMOJPDJC@INT_TYPE_SOLO_TASK@		; `string'
PUBLIC	??_C@_0BH@HAHMDHJI@INT_TYPE_SOUND_CHANNEL@	; `string'
PUBLIC	??_C@_0BM@KOOIBMJM@INT_TYPE_SOUND_EFFECT_INDEX@	; `string'
PUBLIC	??_C@_0BO@MIDMJDKC@INT_TYPE_SOUND_EFFECT_LOOPING@ ; `string'
PUBLIC	??_C@_0BO@KHJLDGNN@INT_TYPE_SOUND_EFFECT_PANNING@ ; `string'
PUBLIC	??_C@_0BL@PLDBKJL@INT_TYPE_SOUND_EFFECT_RATE@	; `string'
PUBLIC	??_C@_0CF@GAAIIILL@INT_TYPE_SOUND_EFFECT_SEQUENCE_@ ; `string'
PUBLIC	??_C@_0BK@KPCEFEMC@INT_TYPE_SOUND_LIST_VALID@	; `string'
PUBLIC	??_C@_0BI@EELPKHI@INT_TYPE_SOUND_LOCALITY@	; `string'
PUBLIC	??_C@_0BJ@BJHLBOAO@INT_TYPE_SPEECH_CATEGORY@	; `string'
PUBLIC	??_C@_0BG@CGNKNDKD@INT_TYPE_SPEECH_INDEX@	; `string'
PUBLIC	??_C@_0BE@KBOPIFJL@INT_TYPE_START_NODE@		; `string'
PUBLIC	??_C@_0BC@PGLKDAOO@INT_TYPE_STRATEGY@		; `string'
PUBLIC	??_C@_0BI@LHAGPIME@INT_TYPE_STRATEGY_LEVEL@	; `string'
PUBLIC	??_C@_0BK@KLEDDEGK@INT_TYPE_SUB_OBJECT_DEPTH@	; `string'
PUBLIC	??_C@_0BJ@MDPIKGDI@INT_TYPE_SUB_OBJECT_TYPE@	; `string'
PUBLIC	??_C@_0BM@JMGMKHEI@INT_TYPE_SUB_WAYPOINT_COUNT@	; `string'
PUBLIC	??_C@_0BK@KBKJDPDE@INT_TYPE_SUPPRESS_AI_FIRE@	; `string'
PUBLIC	??_C@_0BJ@MHJGDBHA@INT_TYPE_TACVIEW_LOGGING@	; `string'
PUBLIC	??_C@_0BM@FNJAOJAD@INT_TYPE_TAIL_ROTOR_DAMAGED@	; `string'
PUBLIC	??_C@_0BG@ICLGGPJC@INT_TYPE_TAKEOFF_LOCK@	; `string'
PUBLIC	??_C@_0BO@OKIFHMKG@INT_TYPE_TARGET_PRIORITY_TYPE@ ; `string'
PUBLIC	??_C@_0BM@BKFKGOCK@INT_TYPE_TARGET_SYMBOL_TYPE@	; `string'
PUBLIC	??_C@_0BF@LOLHFOOB@INT_TYPE_TARGET_TYPE@	; `string'
PUBLIC	??_C@_0BN@FDEIHKCG@INT_TYPE_TARGET_WEATHER_MODE@ ; `string'
PUBLIC	??_C@_0BH@GDNLGBE@INT_TYPE_TASK_CATEGORY@	; `string'
PUBLIC	??_C@_0BI@DJMMJL@INT_TYPE_TASK_COMPLETED@	; `string'
PUBLIC	??_C@_0BJ@MICPFPFI@INT_TYPE_TASK_DIFFICULTY@	; `string'
PUBLIC	??_C@_0BJ@EJPJAEJG@INT_TYPE_TASK_GENERATION@	; `string'
PUBLIC	??_C@_0BB@FKFIAAFH@INT_TYPE_TASK_ID@		; `string'
PUBLIC	??_C@_0BF@LJFLGKMB@INT_TYPE_TASK_LEADER@	; `string'
PUBLIC	??_C@_0CF@HNLOGCJL@INT_TYPE_TASK_OBJECTIVE_PREVIEW@ ; `string'
PUBLIC	??_C@_0CG@NFLCCPFK@INT_TYPE_TASK_PASS_PERCENTAGE_P@ ; `string'
PUBLIC	??_C@_0CG@EKMIMMPA@INT_TYPE_TASK_PASS_PERCENTAGE_S@ ; `string'
PUBLIC	??_C@_0BL@NKKEKGAL@INT_TYPE_TASK_ROUTE_SEARCH@	; `string'
PUBLIC	??_C@_0BE@DNGPBFLB@INT_TYPE_TASK_SCORE@		; `string'
PUBLIC	??_C@_0BE@LPNFFKC@INT_TYPE_TASK_STATE@		; `string'
PUBLIC	??_C@_0BL@DFGNEELF@INT_TYPE_TASK_TARGET_CLASS@	; `string'
PUBLIC	??_C@_0BM@OGIAIKDA@INT_TYPE_TASK_TARGET_SOURCE@	; `string'
PUBLIC	??_C@_0BK@JOPFNPMJ@INT_TYPE_TASK_TARGET_TYPE@	; `string'
PUBLIC	??_C@_0BJ@IOHIIMIB@INT_TYPE_TASK_TERMINATED@	; `string'
PUBLIC	??_C@_0BN@BLLJPHAP@INT_TYPE_TERRAIN_FOLLOW_MODE@ ; `string'
PUBLIC	??_C@_0BF@GPEGEGBI@INT_TYPE_THREAT_TYPE@	; `string'
PUBLIC	??_C@_0P@IHNBDNKA@INT_TYPE_TIMER@		; `string'
PUBLIC	??_C@_0BN@PJLONLEL@INT_TYPE_TOTAL_LANDING_SITES@ ; `string'
PUBLIC	??_C@_0BN@BJHKEEAB@INT_TYPE_TRACK_ENTITY_ON_MAP@ ; `string'
PUBLIC	??_C@_0BD@ODHJPJPA@INT_TYPE_UNIQUE_ID@		; `string'
PUBLIC	??_C@_0BB@NNCDMDFE@INT_TYPE_UPDATED@		; `string'
PUBLIC	??_C@_0P@FHFHPMLM@INT_TYPE_VALID@		; `string'
PUBLIC	??_C@_0BN@IMLDJLL@INT_TYPE_VALID_GUIDE_MEMBERS@	; `string'
PUBLIC	??_C@_0BM@GPOJGDAB@INT_TYPE_VALID_SOUND_EFFECT@	; `string'
PUBLIC	??_C@_0P@FLHAJHOJ@INT_TYPE_VALUE@		; `string'
PUBLIC	??_C@_0BH@FHCPAIJO@INT_TYPE_VEHICLE_GROUP@	; `string'
PUBLIC	??_C@_0CD@GBNOANDF@INT_TYPE_VERBOSE_OPERATIONAL_ST@ ; `string'
PUBLIC	??_C@_0BI@FJKJDOBA@INT_TYPE_VERSION_NUMBER@	; `string'
PUBLIC	??_C@_0BH@PKJJLPME@INT_TYPE_VIEW_CATEGORY@	; `string'
PUBLIC	??_C@_0BD@ILMMGEHJ@INT_TYPE_VIEW_TYPE@		; `string'
PUBLIC	??_C@_0BC@PDJAIAGK@INT_TYPE_VIEWABLE@		; `string'
PUBLIC	??_C@_0BJ@PKOAOCIL@INT_TYPE_VIEWABLE_WEAPON@	; `string'
PUBLIC	??_C@_0BG@BHOBIACF@INT_TYPE_VISIBLE_TASK@	; `string'
PUBLIC	??_C@_0BL@PKLLCDAJ@INT_TYPE_WAIT_FOR_END_TASK@	; `string'
PUBLIC	??_C@_0CB@CBIBNOPD@INT_TYPE_WARHEAD_EFFECTIVE_CLAS@ ; `string'
PUBLIC	??_C@_0BI@CIEPKDDP@INT_TYPE_WAYPOINT_COUNT@	; `string'
PUBLIC	??_C@_0BM@IBIOGNNM@INT_TYPE_WAYPOINT_FORMATION@	; `string'
PUBLIC	??_C@_0BN@KHAAKDGO@INT_TYPE_WAYPOINT_GUIDE_TYPE@ ; `string'
PUBLIC	??_C@_0BN@EHGAFEPK@INT_TYPE_WAYPOINT_NEXT_INDEX@ ; `string'
PUBLIC	??_C@_0BN@EPLJBMCO@INT_TYPE_WAYPOINT_THIS_INDEX@ ; `string'
PUBLIC	??_C@_0CJ@DECJLDLA@INT_TYPE_WEAPON_AND_TARGET_VECT@ ; `string'
PUBLIC	??_C@_0BL@FHKGNNGH@INT_TYPE_WEAPON_BURST_SIZE@	; `string'
PUBLIC	??_C@_0BO@PJKJDOBC@INT_TYPE_WEAPON_CAMERA_PRIMED@ ; `string'
PUBLIC	??_C@_0BM@GNDPEHA@INT_TYPE_WEAPON_CONFIG_TYPE@	; `string'
PUBLIC	??_C@_0BL@IGGLILAD@INT_TYPE_WEAPON_DECOY_TYPE@	; `string'
PUBLIC	??_C@_0BO@KDICCLDC@INT_TYPE_WEAPON_GUIDANCE_TYPE@ ; `string'
PUBLIC	??_C@_0BK@JGACFNFA@INT_TYPE_WEAPON_KILL_CODE@	; `string'
PUBLIC	??_C@_0BO@MFKHJBFH@INT_TYPE_WEAPON_MISSILE_PHASE@ ; `string'
PUBLIC	??_C@_0BK@FJPNAPGC@INT_TYPE_WEAPON_ON_GROUND@	; `string'
PUBLIC	??_C@_0CA@LHELNGPN@INT_TYPE_WEAPON_PACKAGE_DAMAGED@ ; `string'
PUBLIC	??_C@_0CG@OGOAEOLM@INT_TYPE_WEAPON_PACKAGE_HEADING@ ; `string'
PUBLIC	??_C@_0BP@KPLOKDCC@INT_TYPE_WEAPON_PACKAGE_NUMBER@ ; `string'
PUBLIC	??_C@_0CB@IPKKAGMM@INT_TYPE_WEAPON_SMOKE_TRAIL_TYP@ ; `string'
PUBLIC	??_C@_0BN@MHLLFOIF@INT_TYPE_WEAPON_SYSTEM_READY@ ; `string'
PUBLIC	??_C@_0BN@EKJHEIKB@INT_TYPE_WEAPON_WARHEAD_TYPE@ ; `string'
PUBLIC	??_C@_0BG@IABFHPOF@INT_TYPE_WEAPONS_HOLD@	; `string'
PUBLIC	??_C@_0BM@KDOCPLMH@INT_TYPE_WEATHER_INCREASING@	; `string'
PUBLIC	??_C@_0BG@MJGKEKDN@INT_TYPE_WEATHER_MODE@	; `string'
PUBLIC	??_C@_0BJ@LEHOEFFL@INT_TYPE_WIND_INCREASING@	; `string'
PUBLIC	??_C@_0BC@MDOBAINM@INT_TYPE_X_SECTOR@		; `string'
PUBLIC	??_C@_0BC@ONBHCAFK@INT_TYPE_Z_SECTOR@		; `string'
PUBLIC	??_C@_0DJ@FLGDIBMJ@Overloaded?5entity?5function?5invo@ ; `string'
PUBLIC	??_C@_0FF@HEPOOFIJ@Invalid?5int?5type?5?$CIentity?5type?5?$DN@ ; `string'
PUBLIC	??_C@_0BG@MNKDADNM@debug?9save?9errors?4txt@	; `string'
PUBLIC	??_C@_0CF@PGFJOLHH@Could?5not?5open?5debug?5errors?5fil@ ; `string'
PUBLIC	??_C@_0EA@KHKPDKCJ@Overflow?5?$CFs?5type?3?5?$CFs?0?5width?5?$CFd?0@ ; `string'
PUBLIC	??_C@_0L@OHDHOIOE@signed?5int@			; `string'
PUBLIC	??_C@_0N@OFHMGPAL@unsigned?5int@		; `string'
PUBLIC	??_C@_0BL@MGJHPCK@Invalid?5int?5pack?5type?5?$DN?5?$CFd@ ; `string'
PUBLIC	?fn_set_local_entity_raw_int_value@@3PAY0BBH@P6GXPAUENTITY@@W4INT_TYPES@@H@ZA ; fn_set_local_entity_raw_int_value
PUBLIC	?debug_fatal_invalid_int_type_message@@3PBDB	; debug_fatal_invalid_int_type_message
PUBLIC	?int_type_database@@3PAUINT_TYPE_DATA@@A	; int_type_database
EXTRN	__imp__strerror:PROC
?fn_set_local_entity_int_value@@3PAY0BBH@P6GXPAUENTITY@@W4INT_TYPES@@H@ZA DD 0296aH DUP (?) ; fn_set_local_entity_int_value
?fn_get_local_entity_int_value@@3PAY0BBH@P6GHPAUENTITY@@W4INT_TYPES@@@ZA DD 0296aH DUP (?) ; fn_get_local_entity_int_value
?fn_set_client_server_entity_int_value@@3PAY1BBH@1P6GXPAUENTITY@@W4INT_TYPES@@H@ZA DD 052d4H DUP (?) ; fn_set_client_server_entity_int_value
?fn_set_local_entity_raw_int_value@@3PAY0BBH@P6GXPAUENTITY@@W4INT_TYPES@@H@ZA DD 0296aH DUP (?) ; fn_set_local_entity_raw_int_value
_BSS	ENDS
;	COMDAT ??_C@_0BL@MGJHPCK@Invalid?5int?5pack?5type?5?$DN?5?$CFd@
CONST	SEGMENT
??_C@_0BL@MGJHPCK@Invalid?5int?5pack?5type?5?$DN?5?$CFd@ DB 'Invalid int '
	DB	'pack type = %d', 00H			; `string'
CONST	ENDS
;	COMDAT ??_C@_0N@OFHMGPAL@unsigned?5int@
CONST	SEGMENT
??_C@_0N@OFHMGPAL@unsigned?5int@ DB 'unsigned int', 00H	; `string'
CONST	ENDS
;	COMDAT ??_C@_0L@OHDHOIOE@signed?5int@
CONST	SEGMENT
??_C@_0L@OHDHOIOE@signed?5int@ DB 'signed int', 00H	; `string'
CONST	ENDS
;	COMDAT ??_C@_0EA@KHKPDKCJ@Overflow?5?$CFs?5type?3?5?$CFs?0?5width?5?$CFd?0@
CONST	SEGMENT
??_C@_0EA@KHKPDKCJ@Overflow?5?$CFs?5type?3?5?$CFs?0?5width?5?$CFd?0@ DB 'O'
	DB	'verflow %s type: %s, width %d, int value: %d, float value: %f'
	DB	0aH, 00H					; `string'
CONST	ENDS
;	COMDAT ??_C@_0CF@PGFJOLHH@Could?5not?5open?5debug?5errors?5fil@
CONST	SEGMENT
??_C@_0CF@PGFJOLHH@Could?5not?5open?5debug?5errors?5fil@ DB 'Could not op'
	DB	'en debug errors file: %s', 00H		; `string'
CONST	ENDS
;	COMDAT ??_C@_0BG@MNKDADNM@debug?9save?9errors?4txt@
CONST	SEGMENT
??_C@_0BG@MNKDADNM@debug?9save?9errors?4txt@ DB 'debug-save-errors.txt', 00H ; `string'
CONST	ENDS
;	COMDAT ??_C@_0FF@HEPOOFIJ@Invalid?5int?5type?5?$CIentity?5type?5?$DN@
CONST	SEGMENT
??_C@_0FF@HEPOOFIJ@Invalid?5int?5type?5?$CIentity?5type?5?$DN@ DB 'Invali'
	DB	'd int type (entity type = %s, index = %d, int type = %s, file'
	DB	' = %s, line = %d)', 00H			; `string'
CONST	ENDS
;	COMDAT ??_C@_0DJ@FLGDIBMJ@Overloaded?5entity?5function?5invo@
CONST	SEGMENT
??_C@_0DJ@FLGDIBMJ@Overloaded?5entity?5function?5invo@ DB 'Overloaded ent'
	DB	'ity function invoked with invalid int type', 00H ; `string'
CONST	ENDS
;	COMDAT ??_C@_0BC@ONBHCAFK@INT_TYPE_Z_SECTOR@
CONST	SEGMENT
??_C@_0BC@ONBHCAFK@INT_TYPE_Z_SECTOR@ DB 'INT_TYPE_Z_SECTOR', 00H ; `string'
CONST	ENDS
;	COMDAT ??_C@_0BC@MDOBAINM@INT_TYPE_X_SECTOR@
CONST	SEGMENT
??_C@_0BC@MDOBAINM@INT_TYPE_X_SECTOR@ DB 'INT_TYPE_X_SECTOR', 00H ; `string'
CONST	ENDS
;	COMDAT ??_C@_0BJ@LEHOEFFL@INT_TYPE_WIND_INCREASING@
CONST	SEGMENT
??_C@_0BJ@LEHOEFFL@INT_TYPE_WIND_INCREASING@ DB 'INT_TYPE_WIND_INCREASING'
	DB	00H						; `string'
CONST	ENDS
;	COMDAT ??_C@_0BG@MJGKEKDN@INT_TYPE_WEATHER_MODE@
CONST	SEGMENT
??_C@_0BG@MJGKEKDN@INT_TYPE_WEATHER_MODE@ DB 'INT_TYPE_WEATHER_MODE', 00H ; `string'
CONST	ENDS
;	COMDAT ??_C@_0BM@KDOCPLMH@INT_TYPE_WEATHER_INCREASING@
CONST	SEGMENT
??_C@_0BM@KDOCPLMH@INT_TYPE_WEATHER_INCREASING@ DB 'INT_TYPE_WEATHER_INCR'
	DB	'EASING', 00H				; `string'
CONST	ENDS
;	COMDAT ??_C@_0BG@IABFHPOF@INT_TYPE_WEAPONS_HOLD@
CONST	SEGMENT
??_C@_0BG@IABFHPOF@INT_TYPE_WEAPONS_HOLD@ DB 'INT_TYPE_WEAPONS_HOLD', 00H ; `string'
CONST	ENDS
;	COMDAT ??_C@_0BN@EKJHEIKB@INT_TYPE_WEAPON_WARHEAD_TYPE@
CONST	SEGMENT
??_C@_0BN@EKJHEIKB@INT_TYPE_WEAPON_WARHEAD_TYPE@ DB 'INT_TYPE_WEAPON_WARH'
	DB	'EAD_TYPE', 00H				; `string'
CONST	ENDS
;	COMDAT ??_C@_0BN@MHLLFOIF@INT_TYPE_WEAPON_SYSTEM_READY@
CONST	SEGMENT
??_C@_0BN@MHLLFOIF@INT_TYPE_WEAPON_SYSTEM_READY@ DB 'INT_TYPE_WEAPON_SYST'
	DB	'EM_READY', 00H				; `string'
CONST	ENDS
;	COMDAT ??_C@_0CB@IPKKAGMM@INT_TYPE_WEAPON_SMOKE_TRAIL_TYP@
CONST	SEGMENT
??_C@_0CB@IPKKAGMM@INT_TYPE_WEAPON_SMOKE_TRAIL_TYP@ DB 'INT_TYPE_WEAPON_S'
	DB	'MOKE_TRAIL_TYPE', 00H			; `string'
CONST	ENDS
;	COMDAT ??_C@_0BP@KPLOKDCC@INT_TYPE_WEAPON_PACKAGE_NUMBER@
CONST	SEGMENT
??_C@_0BP@KPLOKDCC@INT_TYPE_WEAPON_PACKAGE_NUMBER@ DB 'INT_TYPE_WEAPON_PA'
	DB	'CKAGE_NUMBER', 00H				; `string'
CONST	ENDS
;	COMDAT ??_C@_0CG@OGOAEOLM@INT_TYPE_WEAPON_PACKAGE_HEADING@
CONST	SEGMENT
??_C@_0CG@OGOAEOLM@INT_TYPE_WEAPON_PACKAGE_HEADING@ DB 'INT_TYPE_WEAPON_P'
	DB	'ACKAGE_HEADING_DEPTH', 00H			; `string'
CONST	ENDS
;	COMDAT ??_C@_0CA@LHELNGPN@INT_TYPE_WEAPON_PACKAGE_DAMAGED@
CONST	SEGMENT
??_C@_0CA@LHELNGPN@INT_TYPE_WEAPON_PACKAGE_DAMAGED@ DB 'INT_TYPE_WEAPON_P'
	DB	'ACKAGE_DAMAGED', 00H			; `string'
CONST	ENDS
;	COMDAT ??_C@_0BK@FJPNAPGC@INT_TYPE_WEAPON_ON_GROUND@
CONST	SEGMENT
??_C@_0BK@FJPNAPGC@INT_TYPE_WEAPON_ON_GROUND@ DB 'INT_TYPE_WEAPON_ON_GROU'
	DB	'ND', 00H					; `string'
CONST	ENDS
;	COMDAT ??_C@_0BO@MFKHJBFH@INT_TYPE_WEAPON_MISSILE_PHASE@
CONST	SEGMENT
??_C@_0BO@MFKHJBFH@INT_TYPE_WEAPON_MISSILE_PHASE@ DB 'INT_TYPE_WEAPON_MIS'
	DB	'SILE_PHASE', 00H				; `string'
CONST	ENDS
;	COMDAT ??_C@_0BK@JGACFNFA@INT_TYPE_WEAPON_KILL_CODE@
CONST	SEGMENT
??_C@_0BK@JGACFNFA@INT_TYPE_WEAPON_KILL_CODE@ DB 'INT_TYPE_WEAPON_KILL_CO'
	DB	'DE', 00H					; `string'
CONST	ENDS
;	COMDAT ??_C@_0BO@KDICCLDC@INT_TYPE_WEAPON_GUIDANCE_TYPE@
CONST	SEGMENT
??_C@_0BO@KDICCLDC@INT_TYPE_WEAPON_GUIDANCE_TYPE@ DB 'INT_TYPE_WEAPON_GUI'
	DB	'DANCE_TYPE', 00H				; `string'
CONST	ENDS
;	COMDAT ??_C@_0BL@IGGLILAD@INT_TYPE_WEAPON_DECOY_TYPE@
CONST	SEGMENT
??_C@_0BL@IGGLILAD@INT_TYPE_WEAPON_DECOY_TYPE@ DB 'INT_TYPE_WEAPON_DECOY_'
	DB	'TYPE', 00H					; `string'
CONST	ENDS
;	COMDAT ??_C@_0BM@GNDPEHA@INT_TYPE_WEAPON_CONFIG_TYPE@
CONST	SEGMENT
??_C@_0BM@GNDPEHA@INT_TYPE_WEAPON_CONFIG_TYPE@ DB 'INT_TYPE_WEAPON_CONFIG'
	DB	'_TYPE', 00H					; `string'
CONST	ENDS
;	COMDAT ??_C@_0BO@PJKJDOBC@INT_TYPE_WEAPON_CAMERA_PRIMED@
CONST	SEGMENT
??_C@_0BO@PJKJDOBC@INT_TYPE_WEAPON_CAMERA_PRIMED@ DB 'INT_TYPE_WEAPON_CAM'
	DB	'ERA_PRIMED', 00H				; `string'
CONST	ENDS
;	COMDAT ??_C@_0BL@FHKGNNGH@INT_TYPE_WEAPON_BURST_SIZE@
CONST	SEGMENT
??_C@_0BL@FHKGNNGH@INT_TYPE_WEAPON_BURST_SIZE@ DB 'INT_TYPE_WEAPON_BURST_'
	DB	'SIZE', 00H					; `string'
CONST	ENDS
;	COMDAT ??_C@_0CJ@DECJLDLA@INT_TYPE_WEAPON_AND_TARGET_VECT@
CONST	SEGMENT
??_C@_0CJ@DECJLDLA@INT_TYPE_WEAPON_AND_TARGET_VECT@ DB 'INT_TYPE_WEAPON_A'
	DB	'ND_TARGET_VECTORS_VALID', 00H		; `string'
CONST	ENDS
;	COMDAT ??_C@_0BN@EPLJBMCO@INT_TYPE_WAYPOINT_THIS_INDEX@
CONST	SEGMENT
??_C@_0BN@EPLJBMCO@INT_TYPE_WAYPOINT_THIS_INDEX@ DB 'INT_TYPE_WAYPOINT_TH'
	DB	'IS_INDEX', 00H				; `string'
CONST	ENDS
;	COMDAT ??_C@_0BN@EHGAFEPK@INT_TYPE_WAYPOINT_NEXT_INDEX@
CONST	SEGMENT
??_C@_0BN@EHGAFEPK@INT_TYPE_WAYPOINT_NEXT_INDEX@ DB 'INT_TYPE_WAYPOINT_NE'
	DB	'XT_INDEX', 00H				; `string'
CONST	ENDS
;	COMDAT ??_C@_0BN@KHAAKDGO@INT_TYPE_WAYPOINT_GUIDE_TYPE@
CONST	SEGMENT
??_C@_0BN@KHAAKDGO@INT_TYPE_WAYPOINT_GUIDE_TYPE@ DB 'INT_TYPE_WAYPOINT_GU'
	DB	'IDE_TYPE', 00H				; `string'
CONST	ENDS
;	COMDAT ??_C@_0BM@IBIOGNNM@INT_TYPE_WAYPOINT_FORMATION@
CONST	SEGMENT
??_C@_0BM@IBIOGNNM@INT_TYPE_WAYPOINT_FORMATION@ DB 'INT_TYPE_WAYPOINT_FOR'
	DB	'MATION', 00H				; `string'
CONST	ENDS
;	COMDAT ??_C@_0BI@CIEPKDDP@INT_TYPE_WAYPOINT_COUNT@
CONST	SEGMENT
??_C@_0BI@CIEPKDDP@INT_TYPE_WAYPOINT_COUNT@ DB 'INT_TYPE_WAYPOINT_COUNT', 00H ; `string'
CONST	ENDS
;	COMDAT ??_C@_0CB@CBIBNOPD@INT_TYPE_WARHEAD_EFFECTIVE_CLAS@
CONST	SEGMENT
??_C@_0CB@CBIBNOPD@INT_TYPE_WARHEAD_EFFECTIVE_CLAS@ DB 'INT_TYPE_WARHEAD_'
	DB	'EFFECTIVE_CLASS', 00H			; `string'
CONST	ENDS
;	COMDAT ??_C@_0BL@PKLLCDAJ@INT_TYPE_WAIT_FOR_END_TASK@
CONST	SEGMENT
??_C@_0BL@PKLLCDAJ@INT_TYPE_WAIT_FOR_END_TASK@ DB 'INT_TYPE_WAIT_FOR_END_'
	DB	'TASK', 00H					; `string'
CONST	ENDS
;	COMDAT ??_C@_0BG@BHOBIACF@INT_TYPE_VISIBLE_TASK@
CONST	SEGMENT
??_C@_0BG@BHOBIACF@INT_TYPE_VISIBLE_TASK@ DB 'INT_TYPE_VISIBLE_TASK', 00H ; `string'
CONST	ENDS
;	COMDAT ??_C@_0BJ@PKOAOCIL@INT_TYPE_VIEWABLE_WEAPON@
CONST	SEGMENT
??_C@_0BJ@PKOAOCIL@INT_TYPE_VIEWABLE_WEAPON@ DB 'INT_TYPE_VIEWABLE_WEAPON'
	DB	00H						; `string'
CONST	ENDS
;	COMDAT ??_C@_0BC@PDJAIAGK@INT_TYPE_VIEWABLE@
CONST	SEGMENT
??_C@_0BC@PDJAIAGK@INT_TYPE_VIEWABLE@ DB 'INT_TYPE_VIEWABLE', 00H ; `string'
CONST	ENDS
;	COMDAT ??_C@_0BD@ILMMGEHJ@INT_TYPE_VIEW_TYPE@
CONST	SEGMENT
??_C@_0BD@ILMMGEHJ@INT_TYPE_VIEW_TYPE@ DB 'INT_TYPE_VIEW_TYPE', 00H ; `string'
CONST	ENDS
;	COMDAT ??_C@_0BH@PKJJLPME@INT_TYPE_VIEW_CATEGORY@
CONST	SEGMENT
??_C@_0BH@PKJJLPME@INT_TYPE_VIEW_CATEGORY@ DB 'INT_TYPE_VIEW_CATEGORY', 00H ; `string'
CONST	ENDS
;	COMDAT ??_C@_0BI@FJKJDOBA@INT_TYPE_VERSION_NUMBER@
CONST	SEGMENT
??_C@_0BI@FJKJDOBA@INT_TYPE_VERSION_NUMBER@ DB 'INT_TYPE_VERSION_NUMBER', 00H ; `string'
CONST	ENDS
;	COMDAT ??_C@_0CD@GBNOANDF@INT_TYPE_VERBOSE_OPERATIONAL_ST@
CONST	SEGMENT
??_C@_0CD@GBNOANDF@INT_TYPE_VERBOSE_OPERATIONAL_ST@ DB 'INT_TYPE_VERBOSE_'
	DB	'OPERATIONAL_STATE', 00H			; `string'
CONST	ENDS
;	COMDAT ??_C@_0BH@FHCPAIJO@INT_TYPE_VEHICLE_GROUP@
CONST	SEGMENT
??_C@_0BH@FHCPAIJO@INT_TYPE_VEHICLE_GROUP@ DB 'INT_TYPE_VEHICLE_GROUP', 00H ; `string'
CONST	ENDS
;	COMDAT ??_C@_0P@FLHAJHOJ@INT_TYPE_VALUE@
CONST	SEGMENT
??_C@_0P@FLHAJHOJ@INT_TYPE_VALUE@ DB 'INT_TYPE_VALUE', 00H ; `string'
CONST	ENDS
;	COMDAT ??_C@_0BM@GPOJGDAB@INT_TYPE_VALID_SOUND_EFFECT@
CONST	SEGMENT
??_C@_0BM@GPOJGDAB@INT_TYPE_VALID_SOUND_EFFECT@ DB 'INT_TYPE_VALID_SOUND_'
	DB	'EFFECT', 00H				; `string'
CONST	ENDS
;	COMDAT ??_C@_0BN@IMLDJLL@INT_TYPE_VALID_GUIDE_MEMBERS@
CONST	SEGMENT
??_C@_0BN@IMLDJLL@INT_TYPE_VALID_GUIDE_MEMBERS@ DB 'INT_TYPE_VALID_GUIDE_'
	DB	'MEMBERS', 00H				; `string'
CONST	ENDS
;	COMDAT ??_C@_0P@FHFHPMLM@INT_TYPE_VALID@
CONST	SEGMENT
??_C@_0P@FHFHPMLM@INT_TYPE_VALID@ DB 'INT_TYPE_VALID', 00H ; `string'
CONST	ENDS
;	COMDAT ??_C@_0BB@NNCDMDFE@INT_TYPE_UPDATED@
CONST	SEGMENT
??_C@_0BB@NNCDMDFE@INT_TYPE_UPDATED@ DB 'INT_TYPE_UPDATED', 00H ; `string'
CONST	ENDS
;	COMDAT ??_C@_0BD@ODHJPJPA@INT_TYPE_UNIQUE_ID@
CONST	SEGMENT
??_C@_0BD@ODHJPJPA@INT_TYPE_UNIQUE_ID@ DB 'INT_TYPE_UNIQUE_ID', 00H ; `string'
CONST	ENDS
;	COMDAT ??_C@_0BN@BJHKEEAB@INT_TYPE_TRACK_ENTITY_ON_MAP@
CONST	SEGMENT
??_C@_0BN@BJHKEEAB@INT_TYPE_TRACK_ENTITY_ON_MAP@ DB 'INT_TYPE_TRACK_ENTIT'
	DB	'Y_ON_MAP', 00H				; `string'
CONST	ENDS
;	COMDAT ??_C@_0BN@PJLONLEL@INT_TYPE_TOTAL_LANDING_SITES@
CONST	SEGMENT
??_C@_0BN@PJLONLEL@INT_TYPE_TOTAL_LANDING_SITES@ DB 'INT_TYPE_TOTAL_LANDI'
	DB	'NG_SITES', 00H				; `string'
CONST	ENDS
;	COMDAT ??_C@_0P@IHNBDNKA@INT_TYPE_TIMER@
CONST	SEGMENT
??_C@_0P@IHNBDNKA@INT_TYPE_TIMER@ DB 'INT_TYPE_TIMER', 00H ; `string'
CONST	ENDS
;	COMDAT ??_C@_0BF@GPEGEGBI@INT_TYPE_THREAT_TYPE@
CONST	SEGMENT
??_C@_0BF@GPEGEGBI@INT_TYPE_THREAT_TYPE@ DB 'INT_TYPE_THREAT_TYPE', 00H ; `string'
CONST	ENDS
;	COMDAT ??_C@_0BN@BLLJPHAP@INT_TYPE_TERRAIN_FOLLOW_MODE@
CONST	SEGMENT
??_C@_0BN@BLLJPHAP@INT_TYPE_TERRAIN_FOLLOW_MODE@ DB 'INT_TYPE_TERRAIN_FOL'
	DB	'LOW_MODE', 00H				; `string'
CONST	ENDS
;	COMDAT ??_C@_0BJ@IOHIIMIB@INT_TYPE_TASK_TERMINATED@
CONST	SEGMENT
??_C@_0BJ@IOHIIMIB@INT_TYPE_TASK_TERMINATED@ DB 'INT_TYPE_TASK_TERMINATED'
	DB	00H						; `string'
CONST	ENDS
;	COMDAT ??_C@_0BK@JOPFNPMJ@INT_TYPE_TASK_TARGET_TYPE@
CONST	SEGMENT
??_C@_0BK@JOPFNPMJ@INT_TYPE_TASK_TARGET_TYPE@ DB 'INT_TYPE_TASK_TARGET_TY'
	DB	'PE', 00H					; `string'
CONST	ENDS
;	COMDAT ??_C@_0BM@OGIAIKDA@INT_TYPE_TASK_TARGET_SOURCE@
CONST	SEGMENT
??_C@_0BM@OGIAIKDA@INT_TYPE_TASK_TARGET_SOURCE@ DB 'INT_TYPE_TASK_TARGET_'
	DB	'SOURCE', 00H				; `string'
CONST	ENDS
;	COMDAT ??_C@_0BL@DFGNEELF@INT_TYPE_TASK_TARGET_CLASS@
CONST	SEGMENT
??_C@_0BL@DFGNEELF@INT_TYPE_TASK_TARGET_CLASS@ DB 'INT_TYPE_TASK_TARGET_C'
	DB	'LASS', 00H					; `string'
CONST	ENDS
;	COMDAT ??_C@_0BE@LPNFFKC@INT_TYPE_TASK_STATE@
CONST	SEGMENT
??_C@_0BE@LPNFFKC@INT_TYPE_TASK_STATE@ DB 'INT_TYPE_TASK_STATE', 00H ; `string'
CONST	ENDS
;	COMDAT ??_C@_0BE@DNGPBFLB@INT_TYPE_TASK_SCORE@
CONST	SEGMENT
??_C@_0BE@DNGPBFLB@INT_TYPE_TASK_SCORE@ DB 'INT_TYPE_TASK_SCORE', 00H ; `string'
CONST	ENDS
;	COMDAT ??_C@_0BL@NKKEKGAL@INT_TYPE_TASK_ROUTE_SEARCH@
CONST	SEGMENT
??_C@_0BL@NKKEKGAL@INT_TYPE_TASK_ROUTE_SEARCH@ DB 'INT_TYPE_TASK_ROUTE_SE'
	DB	'ARCH', 00H					; `string'
CONST	ENDS
;	COMDAT ??_C@_0CG@EKMIMMPA@INT_TYPE_TASK_PASS_PERCENTAGE_S@
CONST	SEGMENT
??_C@_0CG@EKMIMMPA@INT_TYPE_TASK_PASS_PERCENTAGE_S@ DB 'INT_TYPE_TASK_PAS'
	DB	'S_PERCENTAGE_SUCCESS', 00H			; `string'
CONST	ENDS
;	COMDAT ??_C@_0CG@NFLCCPFK@INT_TYPE_TASK_PASS_PERCENTAGE_P@
CONST	SEGMENT
??_C@_0CG@NFLCCPFK@INT_TYPE_TASK_PASS_PERCENTAGE_P@ DB 'INT_TYPE_TASK_PAS'
	DB	'S_PERCENTAGE_PARTIAL', 00H			; `string'
CONST	ENDS
;	COMDAT ??_C@_0CF@HNLOGCJL@INT_TYPE_TASK_OBJECTIVE_PREVIEW@
CONST	SEGMENT
??_C@_0CF@HNLOGCJL@INT_TYPE_TASK_OBJECTIVE_PREVIEW@ DB 'INT_TYPE_TASK_OBJ'
	DB	'ECTIVE_PREVIEW_TYPE', 00H			; `string'
CONST	ENDS
;	COMDAT ??_C@_0BF@LJFLGKMB@INT_TYPE_TASK_LEADER@
CONST	SEGMENT
??_C@_0BF@LJFLGKMB@INT_TYPE_TASK_LEADER@ DB 'INT_TYPE_TASK_LEADER', 00H ; `string'
CONST	ENDS
;	COMDAT ??_C@_0BB@FKFIAAFH@INT_TYPE_TASK_ID@
CONST	SEGMENT
??_C@_0BB@FKFIAAFH@INT_TYPE_TASK_ID@ DB 'INT_TYPE_TASK_ID', 00H ; `string'
CONST	ENDS
;	COMDAT ??_C@_0BJ@EJPJAEJG@INT_TYPE_TASK_GENERATION@
CONST	SEGMENT
??_C@_0BJ@EJPJAEJG@INT_TYPE_TASK_GENERATION@ DB 'INT_TYPE_TASK_GENERATION'
	DB	00H						; `string'
CONST	ENDS
;	COMDAT ??_C@_0BJ@MICPFPFI@INT_TYPE_TASK_DIFFICULTY@
CONST	SEGMENT
??_C@_0BJ@MICPFPFI@INT_TYPE_TASK_DIFFICULTY@ DB 'INT_TYPE_TASK_DIFFICULTY'
	DB	00H						; `string'
CONST	ENDS
;	COMDAT ??_C@_0BI@DJMMJL@INT_TYPE_TASK_COMPLETED@
CONST	SEGMENT
??_C@_0BI@DJMMJL@INT_TYPE_TASK_COMPLETED@ DB 'INT_TYPE_TASK_COMPLETED', 00H ; `string'
CONST	ENDS
;	COMDAT ??_C@_0BH@GDNLGBE@INT_TYPE_TASK_CATEGORY@
CONST	SEGMENT
??_C@_0BH@GDNLGBE@INT_TYPE_TASK_CATEGORY@ DB 'INT_TYPE_TASK_CATEGORY', 00H ; `string'
CONST	ENDS
;	COMDAT ??_C@_0BN@FDEIHKCG@INT_TYPE_TARGET_WEATHER_MODE@
CONST	SEGMENT
??_C@_0BN@FDEIHKCG@INT_TYPE_TARGET_WEATHER_MODE@ DB 'INT_TYPE_TARGET_WEAT'
	DB	'HER_MODE', 00H				; `string'
CONST	ENDS
;	COMDAT ??_C@_0BF@LOLHFOOB@INT_TYPE_TARGET_TYPE@
CONST	SEGMENT
??_C@_0BF@LOLHFOOB@INT_TYPE_TARGET_TYPE@ DB 'INT_TYPE_TARGET_TYPE', 00H ; `string'
CONST	ENDS
;	COMDAT ??_C@_0BM@BKFKGOCK@INT_TYPE_TARGET_SYMBOL_TYPE@
CONST	SEGMENT
??_C@_0BM@BKFKGOCK@INT_TYPE_TARGET_SYMBOL_TYPE@ DB 'INT_TYPE_TARGET_SYMBO'
	DB	'L_TYPE', 00H				; `string'
CONST	ENDS
;	COMDAT ??_C@_0BO@OKIFHMKG@INT_TYPE_TARGET_PRIORITY_TYPE@
CONST	SEGMENT
??_C@_0BO@OKIFHMKG@INT_TYPE_TARGET_PRIORITY_TYPE@ DB 'INT_TYPE_TARGET_PRI'
	DB	'ORITY_TYPE', 00H				; `string'
CONST	ENDS
;	COMDAT ??_C@_0BG@ICLGGPJC@INT_TYPE_TAKEOFF_LOCK@
CONST	SEGMENT
??_C@_0BG@ICLGGPJC@INT_TYPE_TAKEOFF_LOCK@ DB 'INT_TYPE_TAKEOFF_LOCK', 00H ; `string'
CONST	ENDS
;	COMDAT ??_C@_0BM@FNJAOJAD@INT_TYPE_TAIL_ROTOR_DAMAGED@
CONST	SEGMENT
??_C@_0BM@FNJAOJAD@INT_TYPE_TAIL_ROTOR_DAMAGED@ DB 'INT_TYPE_TAIL_ROTOR_D'
	DB	'AMAGED', 00H				; `string'
CONST	ENDS
;	COMDAT ??_C@_0BJ@MHJGDBHA@INT_TYPE_TACVIEW_LOGGING@
CONST	SEGMENT
??_C@_0BJ@MHJGDBHA@INT_TYPE_TACVIEW_LOGGING@ DB 'INT_TYPE_TACVIEW_LOGGING'
	DB	00H						; `string'
CONST	ENDS
;	COMDAT ??_C@_0BK@KBKJDPDE@INT_TYPE_SUPPRESS_AI_FIRE@
CONST	SEGMENT
??_C@_0BK@KBKJDPDE@INT_TYPE_SUPPRESS_AI_FIRE@ DB 'INT_TYPE_SUPPRESS_AI_FI'
	DB	'RE', 00H					; `string'
CONST	ENDS
;	COMDAT ??_C@_0BM@JMGMKHEI@INT_TYPE_SUB_WAYPOINT_COUNT@
CONST	SEGMENT
??_C@_0BM@JMGMKHEI@INT_TYPE_SUB_WAYPOINT_COUNT@ DB 'INT_TYPE_SUB_WAYPOINT'
	DB	'_COUNT', 00H				; `string'
CONST	ENDS
;	COMDAT ??_C@_0BJ@MDPIKGDI@INT_TYPE_SUB_OBJECT_TYPE@
CONST	SEGMENT
??_C@_0BJ@MDPIKGDI@INT_TYPE_SUB_OBJECT_TYPE@ DB 'INT_TYPE_SUB_OBJECT_TYPE'
	DB	00H						; `string'
CONST	ENDS
;	COMDAT ??_C@_0BK@KLEDDEGK@INT_TYPE_SUB_OBJECT_DEPTH@
CONST	SEGMENT
??_C@_0BK@KLEDDEGK@INT_TYPE_SUB_OBJECT_DEPTH@ DB 'INT_TYPE_SUB_OBJECT_DEP'
	DB	'TH', 00H					; `string'
CONST	ENDS
;	COMDAT ??_C@_0BI@LHAGPIME@INT_TYPE_STRATEGY_LEVEL@
CONST	SEGMENT
??_C@_0BI@LHAGPIME@INT_TYPE_STRATEGY_LEVEL@ DB 'INT_TYPE_STRATEGY_LEVEL', 00H ; `string'
CONST	ENDS
;	COMDAT ??_C@_0BC@PGLKDAOO@INT_TYPE_STRATEGY@
CONST	SEGMENT
??_C@_0BC@PGLKDAOO@INT_TYPE_STRATEGY@ DB 'INT_TYPE_STRATEGY', 00H ; `string'
CONST	ENDS
;	COMDAT ??_C@_0BE@KBOPIFJL@INT_TYPE_START_NODE@
CONST	SEGMENT
??_C@_0BE@KBOPIFJL@INT_TYPE_START_NODE@ DB 'INT_TYPE_START_NODE', 00H ; `string'
CONST	ENDS
;	COMDAT ??_C@_0BG@CGNKNDKD@INT_TYPE_SPEECH_INDEX@
CONST	SEGMENT
??_C@_0BG@CGNKNDKD@INT_TYPE_SPEECH_INDEX@ DB 'INT_TYPE_SPEECH_INDEX', 00H ; `string'
CONST	ENDS
;	COMDAT ??_C@_0BJ@BJHLBOAO@INT_TYPE_SPEECH_CATEGORY@
CONST	SEGMENT
??_C@_0BJ@BJHLBOAO@INT_TYPE_SPEECH_CATEGORY@ DB 'INT_TYPE_SPEECH_CATEGORY'
	DB	00H						; `string'
CONST	ENDS
;	COMDAT ??_C@_0BI@EELPKHI@INT_TYPE_SOUND_LOCALITY@
CONST	SEGMENT
??_C@_0BI@EELPKHI@INT_TYPE_SOUND_LOCALITY@ DB 'INT_TYPE_SOUND_LOCALITY', 00H ; `string'
CONST	ENDS
;	COMDAT ??_C@_0BK@KPCEFEMC@INT_TYPE_SOUND_LIST_VALID@
CONST	SEGMENT
??_C@_0BK@KPCEFEMC@INT_TYPE_SOUND_LIST_VALID@ DB 'INT_TYPE_SOUND_LIST_VAL'
	DB	'ID', 00H					; `string'
CONST	ENDS
;	COMDAT ??_C@_0CF@GAAIIILL@INT_TYPE_SOUND_EFFECT_SEQUENCE_@
CONST	SEGMENT
??_C@_0CF@GAAIIILL@INT_TYPE_SOUND_EFFECT_SEQUENCE_@ DB 'INT_TYPE_SOUND_EF'
	DB	'FECT_SEQUENCE_COUNT', 00H			; `string'
CONST	ENDS
;	COMDAT ??_C@_0BL@PLDBKJL@INT_TYPE_SOUND_EFFECT_RATE@
CONST	SEGMENT
??_C@_0BL@PLDBKJL@INT_TYPE_SOUND_EFFECT_RATE@ DB 'INT_TYPE_SOUND_EFFECT_R'
	DB	'ATE', 00H					; `string'
CONST	ENDS
;	COMDAT ??_C@_0BO@KHJLDGNN@INT_TYPE_SOUND_EFFECT_PANNING@
CONST	SEGMENT
??_C@_0BO@KHJLDGNN@INT_TYPE_SOUND_EFFECT_PANNING@ DB 'INT_TYPE_SOUND_EFFE'
	DB	'CT_PANNING', 00H				; `string'
CONST	ENDS
;	COMDAT ??_C@_0BO@MIDMJDKC@INT_TYPE_SOUND_EFFECT_LOOPING@
CONST	SEGMENT
??_C@_0BO@MIDMJDKC@INT_TYPE_SOUND_EFFECT_LOOPING@ DB 'INT_TYPE_SOUND_EFFE'
	DB	'CT_LOOPING', 00H				; `string'
CONST	ENDS
;	COMDAT ??_C@_0BM@KOOIBMJM@INT_TYPE_SOUND_EFFECT_INDEX@
CONST	SEGMENT
??_C@_0BM@KOOIBMJM@INT_TYPE_SOUND_EFFECT_INDEX@ DB 'INT_TYPE_SOUND_EFFECT'
	DB	'_INDEX', 00H				; `string'
CONST	ENDS
;	COMDAT ??_C@_0BH@HAHMDHJI@INT_TYPE_SOUND_CHANNEL@
CONST	SEGMENT
??_C@_0BH@HAHMDHJI@INT_TYPE_SOUND_CHANNEL@ DB 'INT_TYPE_SOUND_CHANNEL', 00H ; `string'
CONST	ENDS
;	COMDAT ??_C@_0BD@FMOJPDJC@INT_TYPE_SOLO_TASK@
CONST	SEGMENT
??_C@_0BD@FMOJPDJC@INT_TYPE_SOLO_TASK@ DB 'INT_TYPE_SOLO_TASK', 00H ; `string'
CONST	ENDS
;	COMDAT ??_C@_0CA@MHGHPHBA@INT_TYPE_SOFT_DAMAGE_CAPABILITY@
CONST	SEGMENT
??_C@_0CA@MHGHPHBA@INT_TYPE_SOFT_DAMAGE_CAPABILITY@ DB 'INT_TYPE_SOFT_DAM'
	DB	'AGE_CAPABILITY', 00H			; `string'
CONST	ENDS
;	COMDAT ??_C@_0BE@FEMGMFJN@INT_TYPE_SMOKE_TYPE@
CONST	SEGMENT
??_C@_0BE@FEMGMFJN@INT_TYPE_SMOKE_TYPE@ DB 'INT_TYPE_SMOKE_TYPE', 00H ; `string'
CONST	ENDS
;	COMDAT ??_C@_0BJ@NIOPFIIO@INT_TYPE_SKIP_NIGHT_TIME@
CONST	SEGMENT
??_C@_0BJ@NIOPFIIO@INT_TYPE_SKIP_NIGHT_TIME@ DB 'INT_TYPE_SKIP_NIGHT_TIME'
	DB	00H						; `string'
CONST	ENDS
;	COMDAT ??_C@_0O@OBAKKFNG@INT_TYPE_SIDE@
CONST	SEGMENT
??_C@_0O@OBAKKFNG@INT_TYPE_SIDE@ DB 'INT_TYPE_SIDE', 00H ; `string'
CONST	ENDS
;	COMDAT ??_C@_0BK@LCLJDIGI@INT_TYPE_SESSION_COMPLETE@
CONST	SEGMENT
??_C@_0BK@LCLJDIGI@INT_TYPE_SESSION_COMPLETE@ DB 'INT_TYPE_SESSION_COMPLE'
	DB	'TE', 00H					; `string'
CONST	ENDS
;	COMDAT ??_C@_0CG@BEDKFHGL@INT_TYPE_SELECTED_WEAPON_SYSTEM@
CONST	SEGMENT
??_C@_0CG@BEDKFHGL@INT_TYPE_SELECTED_WEAPON_SYSTEM@ DB 'INT_TYPE_SELECTED'
	DB	'_WEAPON_SYSTEM_READY', 00H			; `string'
CONST	ENDS
;	COMDAT ??_C@_0BJ@POFHNFDG@INT_TYPE_SELECTED_WEAPON@
CONST	SEGMENT
??_C@_0BJ@POFHNFDG@INT_TYPE_SELECTED_WEAPON@ DB 'INT_TYPE_SELECTED_WEAPON'
	DB	00H						; `string'
CONST	ENDS
;	COMDAT ??_C@_0BF@CMNBPJFP@INT_TYPE_SECTOR_SIDE@
CONST	SEGMENT
??_C@_0BF@CMNBPJFP@INT_TYPE_SECTOR_SIDE@ DB 'INT_TYPE_SECTOR_SIDE', 00H ; `string'
CONST	ENDS
;	COMDAT ??_C@_0CC@KJFMAFNO@INT_TYPE_SCOUT_WEAPON_CONFIG_TY@
CONST	SEGMENT
??_C@_0CC@KJFMAFNO@INT_TYPE_SCOUT_WEAPON_CONFIG_TY@ DB 'INT_TYPE_SCOUT_WE'
	DB	'APON_CONFIG_TYPE', 00H			; `string'
CONST	ENDS
;	COMDAT ??_C@_0BN@DBEDMPNJ@INT_TYPE_RULES_OF_ENGAGEMENT@
CONST	SEGMENT
??_C@_0BN@DBEDMPNJ@INT_TYPE_RULES_OF_ENGAGEMENT@ DB 'INT_TYPE_RULES_OF_EN'
	DB	'GAGEMENT', 00H				; `string'
CONST	ENDS
;	COMDAT ??_C@_0BE@EJMFKNME@INT_TYPE_ROUTE_NODE@
CONST	SEGMENT
??_C@_0BE@EJMFKNME@INT_TYPE_ROUTE_NODE@ DB 'INT_TYPE_ROUTE_NODE', 00H ; `string'
CONST	ENDS
;	COMDAT ??_C@_0BG@ICFJCFNO@INT_TYPE_ROUTE_LENGTH@
CONST	SEGMENT
??_C@_0BG@ICFJCFNO@INT_TYPE_ROUTE_LENGTH@ DB 'INT_TYPE_ROUTE_LENGTH', 00H ; `string'
CONST	ENDS
;	COMDAT ??_C@_0BJ@CGKCDBD@INT_TYPE_ROUTE_CHECK_SUM@
CONST	SEGMENT
??_C@_0BJ@CGKCDBD@INT_TYPE_ROUTE_CHECK_SUM@ DB 'INT_TYPE_ROUTE_CHECK_SUM', 00H ; `string'
CONST	ENDS
;	COMDAT ??_C@_0BB@EFKGCEPB@INT_TYPE_ROTATED@
CONST	SEGMENT
??_C@_0BB@EFKGCEPB@INT_TYPE_ROTATED@ DB 'INT_TYPE_ROTATED', 00H ; `string'
CONST	ENDS
;	COMDAT ??_C@_0BJ@DOIIHGJG@INT_TYPE_RESUPPLY_SOURCE@
CONST	SEGMENT
??_C@_0BJ@DOIIHGJG@INT_TYPE_RESUPPLY_SOURCE@ DB 'INT_TYPE_RESUPPLY_SOURCE'
	DB	00H						; `string'
CONST	ENDS
;	COMDAT ??_C@_0CA@DKDODGJG@INT_TYPE_RESERVED_LANDING_SITES@
CONST	SEGMENT
??_C@_0CA@DKDODGJG@INT_TYPE_RESERVED_LANDING_SITES@ DB 'INT_TYPE_RESERVED'
	DB	'_LANDING_SITES', 00H			; `string'
CONST	ENDS
;	COMDAT ??_C@_0BM@HONHDLKK@INT_TYPE_REGISTRY_LIST_TYPE@
CONST	SEGMENT
??_C@_0BM@HONHDLKK@INT_TYPE_REGISTRY_LIST_TYPE@ DB 'INT_TYPE_REGISTRY_LIS'
	DB	'T_TYPE', 00H				; `string'
CONST	ENDS
;	COMDAT ??_C@_0CB@LPNKCFCO@INT_TYPE_REGEN_CREATION_SUB_TYP@
CONST	SEGMENT
??_C@_0CB@LPNKCFCO@INT_TYPE_REGEN_CREATION_SUB_TYP@ DB 'INT_TYPE_REGEN_CR'
	DB	'EATION_SUB_TYPE', 00H			; `string'
CONST	ENDS
;	COMDAT ??_C@_0BC@HOBCKNGF@INT_TYPE_REARMING@
CONST	SEGMENT
??_C@_0BC@HOBCKNGF@INT_TYPE_REARMING@ DB 'INT_TYPE_REARMING', 00H ; `string'
CONST	ENDS
;	COMDAT ??_C@_0BN@EIKIADLB@INT_TYPE_RADIO_MESSAGE_VALUE@
CONST	SEGMENT
??_C@_0BN@EIKIADLB@INT_TYPE_RADIO_MESSAGE_VALUE@ DB 'INT_TYPE_RADIO_MESSA'
	DB	'GE_VALUE', 00H				; `string'
CONST	ENDS
;	COMDAT ??_C@_0BM@KMBACLON@INT_TYPE_RADIO_MESSAGE_TYPE@
CONST	SEGMENT
??_C@_0BM@KMBACLON@INT_TYPE_RADIO_MESSAGE_TYPE@ DB 'INT_TYPE_RADIO_MESSAG'
	DB	'E_TYPE', 00H				; `string'
CONST	ENDS
;	COMDAT ??_C@_0BC@GKOACFGD@INT_TYPE_RADAR_ON@
CONST	SEGMENT
??_C@_0BC@GKOACFGD@INT_TYPE_RADAR_ON@ DB 'INT_TYPE_RADAR_ON', 00H ; `string'
CONST	ENDS
;	COMDAT ??_C@_0BJ@KELAGFKD@INT_TYPE_RADAR_JAMMER_ON@
CONST	SEGMENT
??_C@_0BJ@KELAGFKD@INT_TYPE_RADAR_JAMMER_ON@ DB 'INT_TYPE_RADAR_JAMMER_ON'
	DB	00H						; `string'
CONST	ENDS
;	COMDAT ??_C@_0BF@FIBGANAA@INT_TYPE_PROTOTYPE_4@
CONST	SEGMENT
??_C@_0BF@FIBGANAA@INT_TYPE_PROTOTYPE_4@ DB 'INT_TYPE_PROTOTYPE_4', 00H ; `string'
CONST	ENDS
;	COMDAT ??_C@_0BF@BHFHJLMH@INT_TYPE_PROTOTYPE_3@
CONST	SEGMENT
??_C@_0BF@BHFHJLMH@INT_TYPE_PROTOTYPE_3@ DB 'INT_TYPE_PROTOTYPE_3', 00H ; `string'
CONST	ENDS
;	COMDAT ??_C@_0BF@OEMKKIG@INT_TYPE_PROTOTYPE_2@
CONST	SEGMENT
??_C@_0BF@OEMKKIG@INT_TYPE_PROTOTYPE_2@ DB 'INT_TYPE_PROTOTYPE_2', 00H ; `string'
CONST	ENDS
;	COMDAT ??_C@_0BF@CFGBPJEF@INT_TYPE_PROTOTYPE_1@
CONST	SEGMENT
??_C@_0BF@CFGBPJEF@INT_TYPE_PROTOTYPE_1@ DB 'INT_TYPE_PROTOTYPE_1', 00H ; `string'
CONST	ENDS
;	COMDAT ??_C@_0BG@HPPOMDFJ@INT_TYPE_PRIMARY_TASK@
CONST	SEGMENT
??_C@_0BG@HPPOMDFJ@INT_TYPE_PRIMARY_TASK@ DB 'INT_TYPE_PRIMARY_TASK', 00H ; `string'
CONST	ENDS
;	COMDAT ??_C@_0CG@FAHNHPAI@INT_TYPE_POTENTIAL_CAMPAIGN_OBJ@
CONST	SEGMENT
??_C@_0CG@FAHNHPAI@INT_TYPE_POTENTIAL_CAMPAIGN_OBJ@ DB 'INT_TYPE_POTENTIA'
	DB	'L_CAMPAIGN_OBJECTIVE', 00H			; `string'
CONST	ENDS
;	COMDAT ??_C@_0BH@BDHNGBHK@INT_TYPE_POSITION_TYPE@
CONST	SEGMENT
??_C@_0BH@BDHNGBHK@INT_TYPE_POSITION_TYPE@ DB 'INT_TYPE_POSITION_TYPE', 00H ; `string'
CONST	ENDS
;	COMDAT ??_C@_0BH@MPDIHIOP@INT_TYPE_POSITION_HOLD@
CONST	SEGMENT
??_C@_0BH@MPDIHIOP@INT_TYPE_POSITION_HOLD@ DB 'INT_TYPE_POSITION_HOLD', 00H ; `string'
CONST	ENDS
;	COMDAT ??_C@_0BG@KIDIGGAJ@INT_TYPE_POINTS_VALUE@
CONST	SEGMENT
??_C@_0BG@KIDIGGAJ@INT_TYPE_POINTS_VALUE@ DB 'INT_TYPE_POINTS_VALUE', 00H ; `string'
CONST	ENDS
;	COMDAT ??_C@_0BF@LEAGFCAM@INT_TYPE_PLAYER_TASK@
CONST	SEGMENT
??_C@_0BF@LEAGFCAM@INT_TYPE_PLAYER_TASK@ DB 'INT_TYPE_PLAYER_TASK', 00H ; `string'
CONST	ENDS
;	COMDAT ??_C@_0BN@LEFBMCCN@INT_TYPE_PLAYER_CONTROLLABLE@
CONST	SEGMENT
??_C@_0BN@LEFBMCCN@INT_TYPE_PLAYER_CONTROLLABLE@ DB 'INT_TYPE_PLAYER_CONT'
	DB	'ROLLABLE', 00H				; `string'
CONST	ENDS
;	COMDAT ??_C@_0BA@DMAIEIHA@INT_TYPE_PLAYER@
CONST	SEGMENT
??_C@_0BA@DMAIEIHA@INT_TYPE_PLAYER@ DB 'INT_TYPE_PLAYER', 00H ; `string'
CONST	ENDS
;	COMDAT ??_C@_0BK@LLCODJKA@INT_TYPE_PLANNER_MOVEABLE@
CONST	SEGMENT
??_C@_0BK@LLCODJKA@INT_TYPE_PLANNER_MOVEABLE@ DB 'INT_TYPE_PLANNER_MOVEAB'
	DB	'LE', 00H					; `string'
CONST	ENDS
;	COMDAT ??_C@_0BE@CKHHIPIH@INT_TYPE_PILOT_RANK@
CONST	SEGMENT
??_C@_0BE@CKHHIPIH@INT_TYPE_PILOT_RANK@ DB 'INT_TYPE_PILOT_RANK', 00H ; `string'
CONST	ENDS
;	COMDAT ??_C@_0BJ@BEALBFMH@INT_TYPE_PERFORM_DEBRIEF@
CONST	SEGMENT
??_C@_0BJ@BEALBFMH@INT_TYPE_PERFORM_DEBRIEF@ DB 'INT_TYPE_PERFORM_DEBRIEF'
	DB	00H						; `string'
CONST	ENDS
;	COMDAT ??_C@_0BI@DGPBGLEA@INT_TYPE_PARTICLE_COUNT@
CONST	SEGMENT
??_C@_0BI@DGPBGLEA@INT_TYPE_PARTICLE_COUNT@ DB 'INT_TYPE_PARTICLE_COUNT', 00H ; `string'
CONST	ENDS
;	COMDAT ??_C@_0BL@HLDJFNKL@INT_TYPE_OPERATIONAL_STATE@
CONST	SEGMENT
??_C@_0BL@HLDJFNKL@INT_TYPE_OPERATIONAL_STATE@ DB 'INT_TYPE_OPERATIONAL_S'
	DB	'TATE', 00H					; `string'
CONST	ENDS
;	COMDAT ??_C@_0BO@LOFFCOHL@INT_TYPE_OFFENSIVE_CAPABILITY@
CONST	SEGMENT
??_C@_0BO@LOFFCOHL@INT_TYPE_OFFENSIVE_CAPABILITY@ DB 'INT_TYPE_OFFENSIVE_'
	DB	'CAPABILITY', 00H				; `string'
CONST	ENDS
;	COMDAT ??_C@_0BI@PKLBMGLE@INT_TYPE_OBJECT_SCALING@
CONST	SEGMENT
??_C@_0BI@PKLBMGLE@INT_TYPE_OBJECT_SCALING@ DB 'INT_TYPE_OBJECT_SCALING', 00H ; `string'
CONST	ENDS
;	COMDAT ??_C@_0BG@FAKIGPED@INT_TYPE_OBJECT_INDEX@
CONST	SEGMENT
??_C@_0BG@FAKIGPED@INT_TYPE_OBJECT_INDEX@ DB 'INT_TYPE_OBJECT_INDEX', 00H ; `string'
CONST	ENDS
;	COMDAT ??_C@_0CG@CLGHGPGM@INT_TYPE_OBJECT_DRAWN_ONCE_THIS@
CONST	SEGMENT
??_C@_0CG@CLGHGPGM@INT_TYPE_OBJECT_DRAWN_ONCE_THIS@ DB 'INT_TYPE_OBJECT_D'
	DB	'RAWN_ONCE_THIS_FRAME', 00H			; `string'
CONST	ENDS
;	COMDAT ??_C@_0BJ@KOFFCOGA@INT_TYPE_OBJECT_3D_SHAPE@
CONST	SEGMENT
??_C@_0BJ@KOFFCOGA@INT_TYPE_OBJECT_3D_SHAPE@ DB 'INT_TYPE_OBJECT_3D_SHAPE'
	DB	00H						; `string'
CONST	ENDS
;	COMDAT ??_C@_0BL@HMPHIOIH@INT_TYPE_MULTIPLAYER_GROUP@
CONST	SEGMENT
??_C@_0BL@HMPHIOIH@INT_TYPE_MULTIPLAYER_GROUP@ DB 'INT_TYPE_MULTIPLAYER_G'
	DB	'ROUP', 00H					; `string'
CONST	ENDS
;	COMDAT ??_C@_0BH@GCAHFCLC@INT_TYPE_MOVEMENT_TYPE@
CONST	SEGMENT
??_C@_0BH@GCAHFCLC@INT_TYPE_MOVEMENT_TYPE@ DB 'INT_TYPE_MOVEMENT_TYPE', 00H ; `string'
CONST	ENDS
;	COMDAT ??_C@_0BE@BPCNBHMB@INT_TYPE_MOVED_TYPE@
CONST	SEGMENT
??_C@_0BE@BPCNBHMB@INT_TYPE_MOVED_TYPE@ DB 'INT_TYPE_MOVED_TYPE', 00H ; `string'
CONST	ENDS
;	COMDAT ??_C@_0BH@MHBHHPPM@INT_TYPE_MOBILE_MOVING@
CONST	SEGMENT
??_C@_0BH@MHBHHPPM@INT_TYPE_MOBILE_MOVING@ DB 'INT_TYPE_MOBILE_MOVING', 00H ; `string'
CONST	ENDS
;	COMDAT ??_C@_0CH@HANHHPFM@INT_TYPE_MOBILE_FOLLOW_WAYPOINT@
CONST	SEGMENT
??_C@_0CH@HANHHPFM@INT_TYPE_MOBILE_FOLLOW_WAYPOINT@ DB 'INT_TYPE_MOBILE_F'
	DB	'OLLOW_WAYPOINT_OFFSET', 00H			; `string'
CONST	ENDS
;	COMDAT ??_C@_0CA@BCIIIBOB@INT_TYPE_MIN_WEAPON_CONFIG_TYPE@
CONST	SEGMENT
??_C@_0CA@BCIIIBOB@INT_TYPE_MIN_WEAPON_CONFIG_TYPE@ DB 'INT_TYPE_MIN_WEAP'
	DB	'ON_CONFIG_TYPE', 00H			; `string'
CONST	ENDS
;	COMDAT ??_C@_0BO@FIJLPAJM@INT_TYPE_MINIMUM_MEMBER_COUNT@
CONST	SEGMENT
??_C@_0BO@FIJLPAJM@INT_TYPE_MINIMUM_MEMBER_COUNT@ DB 'INT_TYPE_MINIMUM_ME'
	DB	'MBER_COUNT', 00H				; `string'
CONST	ENDS
;	COMDAT ??_C@_0BM@NAFCMKDO@INT_TYPE_MINIMUM_IDLE_COUNT@
CONST	SEGMENT
??_C@_0BM@NAFCMKDO@INT_TYPE_MINIMUM_IDLE_COUNT@ DB 'INT_TYPE_MINIMUM_IDLE'
	DB	'_COUNT', 00H				; `string'
CONST	ENDS
;	COMDAT ??_C@_0BO@IFJFMIC@INT_TYPE_META_SMOKE_LIST_TYPE@
CONST	SEGMENT
??_C@_0BO@IFJFMIC@INT_TYPE_META_SMOKE_LIST_TYPE@ DB 'INT_TYPE_META_SMOKE_'
	DB	'LIST_TYPE', 00H				; `string'
CONST	ENDS
;	COMDAT ??_C@_0BN@PEMKFENG@INT_TYPE_META_EXPLOSION_TYPE@
CONST	SEGMENT
??_C@_0BN@PEMKFENG@INT_TYPE_META_EXPLOSION_TYPE@ DB 'INT_TYPE_META_EXPLOS'
	DB	'ION_TYPE', 00H				; `string'
CONST	ENDS
;	COMDAT ??_C@_0BL@EBJOLAME@INT_TYPE_MESSAGE_TEXT_TYPE@
CONST	SEGMENT
??_C@_0BL@EBJOLAME@INT_TYPE_MESSAGE_TEXT_TYPE@ DB 'INT_TYPE_MESSAGE_TEXT_'
	DB	'TYPE', 00H					; `string'
CONST	ENDS
;	COMDAT ??_C@_0BG@OOEANHLB@INT_TYPE_MEMBER_COUNT@
CONST	SEGMENT
??_C@_0BG@OOEANHLB@INT_TYPE_MEMBER_COUNT@ DB 'INT_TYPE_MEMBER_COUNT', 00H ; `string'
CONST	ENDS
;	COMDAT ??_C@_0CA@BGBCLAML@INT_TYPE_MAX_WEAPON_CONFIG_TYPE@
CONST	SEGMENT
??_C@_0CA@BGBCLAML@INT_TYPE_MAX_WEAPON_CONFIG_TYPE@ DB 'INT_TYPE_MAX_WEAP'
	DB	'ON_CONFIG_TYPE', 00H			; `string'
CONST	ENDS
;	COMDAT ??_C@_0BI@LCHJNFIL@INT_TYPE_MAXIMUM_VOLUME@
CONST	SEGMENT
??_C@_0BI@LCHJNFIL@INT_TYPE_MAXIMUM_VOLUME@ DB 'INT_TYPE_MAXIMUM_VOLUME', 00H ; `string'
CONST	ENDS
;	COMDAT ??_C@_0BO@ELNOBGDH@INT_TYPE_MAXIMUM_MEMBER_COUNT@
CONST	SEGMENT
??_C@_0BO@ELNOBGDH@INT_TYPE_MAXIMUM_MEMBER_COUNT@ DB 'INT_TYPE_MAXIMUM_ME'
	DB	'MBER_COUNT', 00H				; `string'
CONST	ENDS
;	COMDAT ??_C@_0BC@LOCLDNEB@INT_TYPE_MAP_ICON@
CONST	SEGMENT
??_C@_0BC@LOCLDNEB@INT_TYPE_MAP_ICON@ DB 'INT_TYPE_MAP_ICON', 00H ; `string'
CONST	ENDS
;	COMDAT ??_C@_0BM@BHDBGKLH@INT_TYPE_MAIN_ROTOR_DAMAGED@
CONST	SEGMENT
??_C@_0BM@BHDBGKLH@INT_TYPE_MAIN_ROTOR_DAMAGED@ DB 'INT_TYPE_MAIN_ROTOR_D'
	DB	'AMAGED', 00H				; `string'
CONST	ENDS
;	COMDAT ??_C@_0BH@JKBILNPO@INT_TYPE_LOS_TO_TARGET@
CONST	SEGMENT
??_C@_0BH@JKBILNPO@INT_TYPE_LOS_TO_TARGET@ DB 'INT_TYPE_LOS_TO_TARGET', 00H ; `string'
CONST	ENDS
;	COMDAT ??_C@_0BA@HGGENJKD@INT_TYPE_LOSSES@
CONST	SEGMENT
??_C@_0BA@HGGENJKD@INT_TYPE_LOSSES@ DB 'INT_TYPE_LOSSES', 00H ; `string'
CONST	ENDS
;	COMDAT ??_C@_0BO@GAOHPEKE@INT_TYPE_LOCK_ON_AFTER_LAUNCH@
CONST	SEGMENT
??_C@_0BO@GAOHPEKE@INT_TYPE_LOCK_ON_AFTER_LAUNCH@ DB 'INT_TYPE_LOCK_ON_AF'
	DB	'TER_LAUNCH', 00H				; `string'
CONST	ENDS
;	COMDAT ??_C@_0BN@MGMMDOL@INT_TYPE_LOCAL_WEATHER_MODEL@
CONST	SEGMENT
??_C@_0BN@MGMMDOL@INT_TYPE_LOCAL_WEATHER_MODEL@ DB 'INT_TYPE_LOCAL_WEATHE'
	DB	'R_MODEL', 00H				; `string'
CONST	ENDS
;	COMDAT ??_C@_0BK@EBFHCJIG@INT_TYPE_LOCAL_ONLY_GROUP@
CONST	SEGMENT
??_C@_0BK@EBFHCJIG@INT_TYPE_LOCAL_ONLY_GROUP@ DB 'INT_TYPE_LOCAL_ONLY_GRO'
	DB	'UP', 00H					; `string'
CONST	ENDS
;	COMDAT ??_C@_0BM@NLINKOFB@INT_TYPE_LOCAL_EFFECT_COUNT@
CONST	SEGMENT
??_C@_0BM@NLINKOFB@INT_TYPE_LOCAL_EFFECT_COUNT@ DB 'INT_TYPE_LOCAL_EFFECT'
	DB	'_COUNT', 00H				; `string'
CONST	ENDS
;	COMDAT ??_C@_0BD@GBPBNAIL@INT_TYPE_LIGHTS_ON@
CONST	SEGMENT
??_C@_0BD@GBPBNAIL@INT_TYPE_LIGHTS_ON@ DB 'INT_TYPE_LIGHTS_ON', 00H ; `string'
CONST	ENDS
;	COMDAT ??_C@_0BA@CECGGLOD@INT_TYPE_LENGTH@
CONST	SEGMENT
??_C@_0BA@CECGGLOD@INT_TYPE_LENGTH@ DB 'INT_TYPE_LENGTH', 00H ; `string'
CONST	ENDS
;	COMDAT ??_C@_0BC@DHAKFMNG@INT_TYPE_LASER_ON@
CONST	SEGMENT
??_C@_0BC@DHAKFMNG@INT_TYPE_LASER_ON@ DB 'INT_TYPE_LASER_ON', 00H ; `string'
CONST	ENDS
;	COMDAT ??_C@_0BH@LBKICFHE@INT_TYPE_LANDING_TYPES@
CONST	SEGMENT
??_C@_0BH@LBKICFHE@INT_TYPE_LANDING_TYPES@ DB 'INT_TYPE_LANDING_TYPES', 00H ; `string'
CONST	ENDS
;	COMDAT ??_C@_0BG@PEKPLENC@INT_TYPE_LANDING_LOCK@
CONST	SEGMENT
??_C@_0BG@PEKPLENC@INT_TYPE_LANDING_LOCK@ DB 'INT_TYPE_LANDING_LOCK', 00H ; `string'
CONST	ENDS
;	COMDAT ??_C@_0BL@GAIJPMMN@INT_TYPE_LANDED_ON_CARRIER@
CONST	SEGMENT
??_C@_0BL@GAIJPMMN@INT_TYPE_LANDED_ON_CARRIER@ DB 'INT_TYPE_LANDED_ON_CAR'
	DB	'RIER', 00H					; `string'
CONST	ENDS
;	COMDAT ??_C@_0BF@HCGDOACJ@INT_TYPE_LANDED_LOCK@
CONST	SEGMENT
??_C@_0BF@HCGDOACJ@INT_TYPE_LANDED_LOCK@ DB 'INT_TYPE_LANDED_LOCK', 00H ; `string'
CONST	ENDS
;	COMDAT ??_C@_0BA@BMFDAAFA@INT_TYPE_LANDED@
CONST	SEGMENT
??_C@_0BA@BMFDAAFA@INT_TYPE_LANDED@ DB 'INT_TYPE_LANDED', 00H ; `string'
CONST	ENDS
;	COMDAT ??_C@_0P@NLCHOAEF@INT_TYPE_KILLS@
CONST	SEGMENT
??_C@_0P@NLCHOAEF@INT_TYPE_KILLS@ DB 'INT_TYPE_KILLS', 00H ; `string'
CONST	ENDS
;	COMDAT ??_C@_0BK@NFJFFAPC@INT_TYPE_KILL_NEXT_UPDATE@
CONST	SEGMENT
??_C@_0BK@NFJFFAPC@INT_TYPE_KILL_NEXT_UPDATE@ DB 'INT_TYPE_KILL_NEXT_UPDA'
	DB	'TE', 00H					; `string'
CONST	ENDS
;	COMDAT ??_C@_0BO@FODANLMN@INT_TYPE_KEYSITE_USABLE_STATE@
CONST	SEGMENT
??_C@_0BO@FODANLMN@INT_TYPE_KEYSITE_USABLE_STATE@ DB 'INT_TYPE_KEYSITE_US'
	DB	'ABLE_STATE', 00H				; `string'
CONST	ENDS
;	COMDAT ??_C@_0BE@PMMAGDGF@INT_TYPE_KEYSITE_ID@
CONST	SEGMENT
??_C@_0BE@PMMAGDGF@INT_TYPE_KEYSITE_ID@ DB 'INT_TYPE_KEYSITE_ID', 00H ; `string'
CONST	ENDS
;	COMDAT ??_C@_0BH@BFODCGJO@INT_TYPE_KEYSITE_COUNT@
CONST	SEGMENT
??_C@_0BH@BFODCGJO@INT_TYPE_KEYSITE_COUNT@ DB 'INT_TYPE_KEYSITE_COUNT', 00H ; `string'
CONST	ENDS
;	COMDAT ??_C@_0BA@LKIPNGJ@INT_TYPE_IN_USE@
CONST	SEGMENT
??_C@_0BA@LKIPNGJ@INT_TYPE_IN_USE@ DB 'INT_TYPE_IN_USE', 00H ; `string'
CONST	ENDS
;	COMDAT ??_C@_0CD@ELKJJPHG@INT_TYPE_INVULNERABLE_FROM_WEAP@
CONST	SEGMENT
??_C@_0CD@ELKJJPHG@INT_TYPE_INVULNERABLE_FROM_WEAP@ DB 'INT_TYPE_INVULNER'
	DB	'ABLE_FROM_WEAPONS', 00H			; `string'
CONST	ENDS
;	COMDAT ??_C@_0CG@ENEDAOJ@INT_TYPE_INVULNERABLE_FROM_COLL@
CONST	SEGMENT
??_C@_0CG@ENEDAOJ@INT_TYPE_INVULNERABLE_FROM_COLL@ DB 'INT_TYPE_INVULNERA'
	DB	'BLE_FROM_COLLISIONS', 00H			; `string'
CONST	ENDS
;	COMDAT ??_C@_0BH@GDNDIMIL@INT_TYPE_INSIDE_HANGAR@
CONST	SEGMENT
??_C@_0BH@GDNDIMIL@INT_TYPE_INSIDE_HANGAR@ DB 'INT_TYPE_INSIDE_HANGAR', 00H ; `string'
CONST	ENDS
;	COMDAT ??_C@_0BO@NEMECMDA@INT_TYPE_INITIAL_DAMAGE_LEVEL@
CONST	SEGMENT
??_C@_0BO@NEMECMDA@INT_TYPE_INITIAL_DAMAGE_LEVEL@ DB 'INT_TYPE_INITIAL_DA'
	DB	'MAGE_LEVEL', 00H				; `string'
CONST	ENDS
;	COMDAT ??_C@_0BN@KGAHCFBH@INT_TYPE_INFRA_RED_JAMMER_ON@
CONST	SEGMENT
??_C@_0BN@KGAHCFBH@INT_TYPE_INFRA_RED_JAMMER_ON@ DB 'INT_TYPE_INFRA_RED_J'
	DB	'AMMER_ON', 00H				; `string'
CONST	ENDS
;	COMDAT ??_C@_0BK@DJKPLBCA@INT_TYPE_INFINITE_WEAPONS@
CONST	SEGMENT
??_C@_0BK@DJKPLBCA@INT_TYPE_INFINITE_WEAPONS@ DB 'INT_TYPE_INFINITE_WEAPO'
	DB	'NS', 00H					; `string'
CONST	ENDS
;	COMDAT ??_C@_0BM@LBAOPFDM@INT_TYPE_INFINITE_GENERATOR@
CONST	SEGMENT
??_C@_0BM@LBAOPFDM@INT_TYPE_INFINITE_GENERATOR@ DB 'INT_TYPE_INFINITE_GEN'
	DB	'ERATOR', 00H				; `string'
CONST	ENDS
;	COMDAT ??_C@_0BH@BKDHCIBB@INT_TYPE_INFINITE_FUEL@
CONST	SEGMENT
??_C@_0BH@BKDHCIBB@INT_TYPE_INFINITE_FUEL@ DB 'INT_TYPE_INFINITE_FUEL', 00H ; `string'
CONST	ENDS
;	COMDAT ??_C@_0CG@NHKODKBL@INT_TYPE_ID_NUMBER_SIGNIFICANT_@
CONST	SEGMENT
??_C@_0CG@NHKODKBL@INT_TYPE_ID_NUMBER_SIGNIFICANT_@ DB 'INT_TYPE_ID_NUMBE'
	DB	'R_SIGNIFICANT_DIGITS', 00H			; `string'
CONST	ENDS
;	COMDAT ??_C@_0BD@OHAGEOLD@INT_TYPE_ID_NUMBER@
CONST	SEGMENT
??_C@_0BD@OHAGEOLD@INT_TYPE_ID_NUMBER@ DB 'INT_TYPE_ID_NUMBER', 00H ; `string'
CONST	ENDS
;	COMDAT ??_C@_0BJ@LHPNFJBF@INT_TYPE_IDENTIFY_WEAPON@
CONST	SEGMENT
??_C@_0BJ@LHPNFJBF@INT_TYPE_IDENTIFY_WEAPON@ DB 'INT_TYPE_IDENTIFY_WEAPON'
	DB	00H						; `string'
CONST	ENDS
;	COMDAT ??_C@_0BL@MMHNGEMJ@INT_TYPE_IDENTIFY_WAYPOINT@
CONST	SEGMENT
??_C@_0BL@MMHNGEMJ@INT_TYPE_IDENTIFY_WAYPOINT@ DB 'INT_TYPE_IDENTIFY_WAYP'
	DB	'OINT', 00H					; `string'
CONST	ENDS
;	COMDAT ??_C@_0BK@CPGDGNIB@INT_TYPE_IDENTIFY_VEHICLE@
CONST	SEGMENT
??_C@_0BK@CPGDGNIB@INT_TYPE_IDENTIFY_VEHICLE@ DB 'INT_TYPE_IDENTIFY_VEHIC'
	DB	'LE', 00H					; `string'
CONST	ENDS
;	COMDAT ??_C@_0BP@OILKCKHP@INT_TYPE_IDENTIFY_SHIP_VEHICLE@
CONST	SEGMENT
??_C@_0BP@OILKCKHP@INT_TYPE_IDENTIFY_SHIP_VEHICLE@ DB 'INT_TYPE_IDENTIFY_'
	DB	'SHIP_VEHICLE', 00H				; `string'
CONST	ENDS
;	COMDAT ??_C@_0BJ@KJCEJOJN@INT_TYPE_IDENTIFY_ROUTED@
CONST	SEGMENT
??_C@_0BJ@KJCEJOJN@INT_TYPE_IDENTIFY_ROUTED@ DB 'INT_TYPE_IDENTIFY_ROUTED'
	DB	00H						; `string'
CONST	ENDS
;	COMDAT ??_C@_0BJ@FOMLLMKE@INT_TYPE_IDENTIFY_MOBILE@
CONST	SEGMENT
??_C@_0BJ@FOMLLMKE@INT_TYPE_IDENTIFY_MOBILE@ DB 'INT_TYPE_IDENTIFY_MOBILE'
	DB	00H						; `string'
CONST	ENDS
;	COMDAT ??_C@_0BN@NBFEGIAF@INT_TYPE_IDENTIFY_HELICOPTER@
CONST	SEGMENT
??_C@_0BN@NBFEGIAF@INT_TYPE_IDENTIFY_HELICOPTER@ DB 'INT_TYPE_IDENTIFY_HE'
	DB	'LICOPTER', 00H				; `string'
CONST	ENDS
;	COMDAT ??_C@_0BN@NCFPMDAN@INT_TYPE_IDENTIFY_FIXED_WING@
CONST	SEGMENT
??_C@_0BN@NCFPMDAN@INT_TYPE_IDENTIFY_FIXED_WING@ DB 'INT_TYPE_IDENTIFY_FI'
	DB	'XED_WING', 00H				; `string'
CONST	ENDS
;	COMDAT ??_C@_0BI@IBDNOJD@INT_TYPE_IDENTIFY_FIXED@
CONST	SEGMENT
??_C@_0BI@IBDNOJD@INT_TYPE_IDENTIFY_FIXED@ DB 'INT_TYPE_IDENTIFY_FIXED', 00H ; `string'
CONST	ENDS
;	COMDAT ??_C@_0BI@OHGDOJCA@INT_TYPE_IDENTIFY_CARGO@
CONST	SEGMENT
??_C@_0BI@OHGDOJCA@INT_TYPE_IDENTIFY_CARGO@ DB 'INT_TYPE_IDENTIFY_CARGO', 00H ; `string'
CONST	ENDS
;	COMDAT ??_C@_0CA@COCHHNDA@INT_TYPE_IDENTIFY_ANTI_AIRCRAFT@
CONST	SEGMENT
??_C@_0CA@COCHHNDA@INT_TYPE_IDENTIFY_ANTI_AIRCRAFT@ DB 'INT_TYPE_IDENTIFY'
	DB	'_ANTI_AIRCRAFT', 00H			; `string'
CONST	ENDS
;	COMDAT ??_C@_0BL@BENAEKCM@INT_TYPE_IDENTIFY_AIRCRAFT@
CONST	SEGMENT
??_C@_0BL@BENAEKCM@INT_TYPE_IDENTIFY_AIRCRAFT@ DB 'INT_TYPE_IDENTIFY_AIRC'
	DB	'RAFT', 00H					; `string'
CONST	ENDS
;	COMDAT ??_C@_0BO@GNAHNBMP@INT_TYPE_HIDDEN_BY_FOG_OF_WAR@
CONST	SEGMENT
??_C@_0BO@GNAHNBMP@INT_TYPE_HIDDEN_BY_FOG_OF_WAR@ DB 'INT_TYPE_HIDDEN_BY_'
	DB	'FOG_OF_WAR', 00H				; `string'
CONST	ENDS
;	COMDAT ??_C@_0CB@GOBKFGMA@INT_TYPE_HELICOPTER_DAMAGE_LEVE@
CONST	SEGMENT
??_C@_0CB@GOBKFGMA@INT_TYPE_HELICOPTER_DAMAGE_LEVE@ DB 'INT_TYPE_HELICOPT'
	DB	'ER_DAMAGE_LEVEL', 00H			; `string'
CONST	ENDS
;	COMDAT ??_C@_0CB@MBIBKCAB@INT_TYPE_HELICOPTER_DAMAGE_FLAG@
CONST	SEGMENT
??_C@_0CB@MBIBKCAB@INT_TYPE_HELICOPTER_DAMAGE_FLAG@ DB 'INT_TYPE_HELICOPT'
	DB	'ER_DAMAGE_FLAGS', 00H			; `string'
CONST	ENDS
;	COMDAT ??_C@_0CA@MCCAMKLF@INT_TYPE_HARD_DAMAGE_CAPABILITY@
CONST	SEGMENT
??_C@_0CA@MCCAMKLF@INT_TYPE_HARD_DAMAGE_CAPABILITY@ DB 'INT_TYPE_HARD_DAM'
	DB	'AGE_CAPABILITY', 00H			; `string'
CONST	ENDS
;	COMDAT ??_C@_0BP@KHGNMCLJ@INT_TYPE_HAND_OFF_TARGET_COUNT@
CONST	SEGMENT
??_C@_0BP@KHGNMCLJ@INT_TYPE_HAND_OFF_TARGET_COUNT@ DB 'INT_TYPE_HAND_OFF_'
	DB	'TARGET_COUNT', 00H				; `string'
CONST	ENDS
;	COMDAT ??_C@_0BG@MDMMBMNO@INT_TYPE_GUNSHIP_TYPE@
CONST	SEGMENT
??_C@_0BG@MDMMBMNO@INT_TYPE_GUNSHIP_TYPE@ DB 'INT_TYPE_GUNSHIP_TYPE', 00H ; `string'
CONST	ENDS
;	COMDAT ??_C@_0CB@FMPDOHMI@INT_TYPE_GUNSHIP_RADAR_LOS_CLEA@
CONST	SEGMENT
??_C@_0CB@FMPDOHMI@INT_TYPE_GUNSHIP_RADAR_LOS_CLEA@ DB 'INT_TYPE_GUNSHIP_'
	DB	'RADAR_LOS_CLEAR', 00H			; `string'
CONST	ENDS
;	COMDAT ??_C@_0BN@HMAJBIBI@INT_TYPE_GUIDE_POSITION_TYPE@
CONST	SEGMENT
??_C@_0BN@HMAJBIBI@INT_TYPE_GUIDE_POSITION_TYPE@ DB 'INT_TYPE_GUIDE_POSIT'
	DB	'ION_TYPE', 00H				; `string'
CONST	ENDS
;	COMDAT ??_C@_0BN@MAGCAEEO@INT_TYPE_GUIDE_CRITERIA_TYPE@
CONST	SEGMENT
??_C@_0BN@MAGCAEEO@INT_TYPE_GUIDE_CRITERIA_TYPE@ DB 'INT_TYPE_GUIDE_CRITE'
	DB	'RIA_TYPE', 00H				; `string'
CONST	ENDS
;	COMDAT ??_C@_0BE@MDDGMONN@INT_TYPE_GROUP_MODE@
CONST	SEGMENT
??_C@_0BE@MDDGMONN@INT_TYPE_GROUP_MODE@ DB 'INT_TYPE_GROUP_MODE', 00H ; `string'
CONST	ENDS
;	COMDAT ??_C@_0BM@NKALAGLG@INT_TYPE_GROUP_MEMBER_STATE@
CONST	SEGMENT
??_C@_0BM@NKALAGLG@INT_TYPE_GROUP_MEMBER_STATE@ DB 'INT_TYPE_GROUP_MEMBER'
	DB	'_STATE', 00H				; `string'
CONST	ENDS
;	COMDAT ??_C@_0BN@NHICOJIA@INT_TYPE_GROUP_MEMBER_NUMBER@
CONST	SEGMENT
??_C@_0BN@NHICOJIA@INT_TYPE_GROUP_MEMBER_NUMBER@ DB 'INT_TYPE_GROUP_MEMBE'
	DB	'R_NUMBER', 00H				; `string'
CONST	ENDS
;	COMDAT ??_C@_0BJ@NHGLEIH@INT_TYPE_GROUP_MEMBER_ID@
CONST	SEGMENT
??_C@_0BJ@NHGLEIH@INT_TYPE_GROUP_MEMBER_ID@ DB 'INT_TYPE_GROUP_MEMBER_ID', 00H ; `string'
CONST	ENDS
;	COMDAT ??_C@_0BJ@GLDFIEHP@INT_TYPE_GROUP_LIST_TYPE@
CONST	SEGMENT
??_C@_0BJ@GLDFIEHP@INT_TYPE_GROUP_LIST_TYPE@ DB 'INT_TYPE_GROUP_LIST_TYPE'
	DB	00H						; `string'
CONST	ENDS
;	COMDAT ??_C@_0BG@MBCGCHOJ@INT_TYPE_GROUP_LEADER@
CONST	SEGMENT
??_C@_0BG@MBCGCHOJ@INT_TYPE_GROUP_LEADER@ DB 'INT_TYPE_GROUP_LEADER', 00H ; `string'
CONST	ENDS
;	COMDAT ??_C@_0BJ@KMKKLNEN@INT_TYPE_GROUP_FORMATION@
CONST	SEGMENT
??_C@_0BJ@KMKKLNEN@INT_TYPE_GROUP_FORMATION@ DB 'INT_TYPE_GROUP_FORMATION'
	DB	00H						; `string'
CONST	ENDS
;	COMDAT ??_C@_0CB@MJLOFLFO@INT_TYPE_GROUP_DEFAULT_FORMATIO@
CONST	SEGMENT
??_C@_0CB@MJLOFLFO@INT_TYPE_GROUP_DEFAULT_FORMATIO@ DB 'INT_TYPE_GROUP_DE'
	DB	'FAULT_FORMATION', 00H			; `string'
CONST	ENDS
;	COMDAT ??_C@_0BI@FDANFNOO@INT_TYPE_GROUP_CATEGORY@
CONST	SEGMENT
??_C@_0BI@FDANFNOO@INT_TYPE_GROUP_CATEGORY@ DB 'INT_TYPE_GROUP_CATEGORY', 00H ; `string'
CONST	ENDS
;	COMDAT ??_C@_0BI@IPFGFFBM@INT_TYPE_GROUP_CALLSIGN@
CONST	SEGMENT
??_C@_0BI@IPFGFFBM@INT_TYPE_GROUP_CALLSIGN@ DB 'INT_TYPE_GROUP_CALLSIGN', 00H ; `string'
CONST	ENDS
;	COMDAT ??_C@_0BK@MFMDMGAD@INT_TYPE_GROUP_AMALGAMATE@
CONST	SEGMENT
??_C@_0BK@MFMDMGAD@INT_TYPE_GROUP_AMALGAMATE@ DB 'INT_TYPE_GROUP_AMALGAMA'
	DB	'TE', 00H					; `string'
CONST	ENDS
;	COMDAT ??_C@_0BO@DNAEDGCL@INT_TYPE_GROUND_RADAR_CLUTTER@
CONST	SEGMENT
??_C@_0BO@DNAEDGCL@INT_TYPE_GROUND_RADAR_CLUTTER@ DB 'INT_TYPE_GROUND_RAD'
	DB	'AR_CLUTTER', 00H				; `string'
CONST	ENDS
;	COMDAT ??_C@_0BD@JNIHAJIN@INT_TYPE_FRONTLINE@
CONST	SEGMENT
??_C@_0BD@JNIHAJIN@INT_TYPE_FRONTLINE@ DB 'INT_TYPE_FRONTLINE', 00H ; `string'
CONST	ENDS
;	COMDAT ??_C@_0BM@LHPJEMBI@INT_TYPE_FREE_LANDING_SITES@
CONST	SEGMENT
??_C@_0BM@LHPJEMBI@INT_TYPE_FREE_LANDING_SITES@ DB 'INT_TYPE_FREE_LANDING'
	DB	'_SITES', 00H				; `string'
CONST	ENDS
;	COMDAT ??_C@_0BN@MKIJDAEA@INT_TYPE_FORMATION_POSITIONS@
CONST	SEGMENT
??_C@_0BN@MKIJDAEA@INT_TYPE_FORMATION_POSITIONS@ DB 'INT_TYPE_FORMATION_P'
	DB	'OSITIONS', 00H				; `string'
CONST	ENDS
;	COMDAT ??_C@_0BM@MBJAMKLP@INT_TYPE_FORMATION_POSITION@
CONST	SEGMENT
??_C@_0BM@MBJAMKLP@INT_TYPE_FORMATION_POSITION@ DB 'INT_TYPE_FORMATION_PO'
	DB	'SITION', 00H				; `string'
CONST	ENDS
;	COMDAT ??_C@_0BM@DNKBMCOH@INT_TYPE_FORCE_SECTOR_COUNT@
CONST	SEGMENT
??_C@_0BM@DNKBMCOH@INT_TYPE_FORCE_SECTOR_COUNT@ DB 'INT_TYPE_FORCE_SECTOR'
	DB	'_COUNT', 00H				; `string'
CONST	ENDS
;	COMDAT ??_C@_0BN@NIFELFAJ@INT_TYPE_FORCE_INFO_CATAGORY@
CONST	SEGMENT
??_C@_0BN@NIFELFAJ@INT_TYPE_FORCE_INFO_CATAGORY@ DB 'INT_TYPE_FORCE_INFO_'
	DB	'CATAGORY', 00H				; `string'
CONST	ENDS
;	COMDAT ??_C@_0BI@HPEGCDIE@INT_TYPE_FORCE_ATTITUDE@
CONST	SEGMENT
??_C@_0BI@HPEGCDIE@INT_TYPE_FORCE_ATTITUDE@ DB 'INT_TYPE_FORCE_ATTITUDE', 00H ; `string'
CONST	ENDS
;	COMDAT ??_C@_0P@EPPLNEHN@INT_TYPE_FORCE@
CONST	SEGMENT
??_C@_0P@EPPLNEHN@INT_TYPE_FORCE@ DB 'INT_TYPE_FORCE', 00H ; `string'
CONST	ENDS
;	COMDAT ??_C@_0BK@LLMKCGHK@INT_TYPE_FOLLOW_FORMATION@
CONST	SEGMENT
??_C@_0BK@LLMKCGHK@INT_TYPE_FOLLOW_FORMATION@ DB 'INT_TYPE_FOLLOW_FORMATI'
	DB	'ON', 00H					; `string'
CONST	ENDS
;	COMDAT ??_C@_0BI@LBNAPDDA@INT_TYPE_EXPOSURE_LEVEL@
CONST	SEGMENT
??_C@_0BI@LBNAPDDA@INT_TYPE_EXPOSURE_LEVEL@ DB 'INT_TYPE_EXPOSURE_LEVEL', 00H ; `string'
CONST	ENDS
;	COMDAT ??_C@_0BL@DLPBAJFP@INT_TYPE_EXPLOSIVE_QUALITY@
CONST	SEGMENT
??_C@_0BL@DLPBAJFP@INT_TYPE_EXPLOSIVE_QUALITY@ DB 'INT_TYPE_EXPLOSIVE_QUA'
	DB	'LITY', 00H					; `string'
CONST	ENDS
;	COMDAT ??_C@_0BJ@MIOMLECC@INT_TYPE_EXPLOSIVE_POWER@
CONST	SEGMENT
??_C@_0BJ@MIOMLECC@INT_TYPE_EXPLOSIVE_POWER@ DB 'INT_TYPE_EXPLOSIVE_POWER'
	DB	00H						; `string'
CONST	ENDS
;	COMDAT ??_C@_0BE@JFJEDPCH@INT_TYPE_EVADE_FIRE@
CONST	SEGMENT
??_C@_0BE@JFJEDPCH@INT_TYPE_EVADE_FIRE@ DB 'INT_TYPE_EVADE_FIRE', 00H ; `string'
CONST	ENDS
;	COMDAT ??_C@_0BJ@DGJACMFM@INT_TYPE_ENTITY_SUB_TYPE@
CONST	SEGMENT
??_C@_0BJ@DGJACMFM@INT_TYPE_ENTITY_SUB_TYPE@ DB 'INT_TYPE_ENTITY_SUB_TYPE'
	DB	00H						; `string'
CONST	ENDS
;	COMDAT ??_C@_0BG@JIAJAOMH@INT_TYPE_ENGAGE_ENEMY@
CONST	SEGMENT
??_C@_0BG@JIAJAOMH@INT_TYPE_ENGAGE_ENEMY@ DB 'INT_TYPE_ENGAGE_ENEMY', 00H ; `string'
CONST	ENDS
;	COMDAT ??_C@_0BC@FIBFGAKK@INT_TYPE_END_NODE@
CONST	SEGMENT
??_C@_0BC@FIBFGAKK@INT_TYPE_END_NODE@ DB 'INT_TYPE_END_NODE', 00H ; `string'
CONST	ENDS
;	COMDAT ??_C@_0BB@NDKKLBDK@INT_TYPE_EJECTED@
CONST	SEGMENT
??_C@_0BB@NDKKLBDK@INT_TYPE_EJECTED@ DB 'INT_TYPE_EJECTED', 00H ; `string'
CONST	ENDS
;	COMDAT ??_C@_0BF@HDJJJHMI@INT_TYPE_DIVISION_ID@
CONST	SEGMENT
??_C@_0BF@HDJJJHMI@INT_TYPE_DIVISION_ID@ DB 'INT_TYPE_DIVISION_ID', 00H ; `string'
CONST	ENDS
;	COMDAT ??_C@_0BK@IGFCPJKL@INT_TYPE_DIFFICULTY_LEVEL@
CONST	SEGMENT
??_C@_0BK@IGFCPJKL@INT_TYPE_DIFFICULTY_LEVEL@ DB 'INT_TYPE_DIFFICULTY_LEV'
	DB	'EL', 00H					; `string'
CONST	ENDS
;	COMDAT ??_C@_0BM@BCBCJDBO@INT_TYPE_DESTROYED_3D_SHAPE@
CONST	SEGMENT
??_C@_0BM@BCBCJDBO@INT_TYPE_DESTROYED_3D_SHAPE@ DB 'INT_TYPE_DESTROYED_3D'
	DB	'_SHAPE', 00H				; `string'
CONST	ENDS
;	COMDAT ??_C@_0BN@BEFINDGL@INT_TYPE_DEFAULT_WEAPON_TYPE@
CONST	SEGMENT
??_C@_0BN@BEFINDGL@INT_TYPE_DEFAULT_WEAPON_TYPE@ DB 'INT_TYPE_DEFAULT_WEA'
	DB	'PON_TYPE', 00H				; `string'
CONST	ENDS
;	COMDAT ??_C@_0CE@CEKICBPJ@INT_TYPE_DEFAULT_WEAPON_CONFIG_@
CONST	SEGMENT
??_C@_0CE@CEKICBPJ@INT_TYPE_DEFAULT_WEAPON_CONFIG_@ DB 'INT_TYPE_DEFAULT_'
	DB	'WEAPON_CONFIG_TYPE', 00H			; `string'
CONST	ENDS
;	COMDAT ??_C@_0CB@DJKEODKM@INT_TYPE_DEFAULT_GROUP_LIST_TYP@
CONST	SEGMENT
??_C@_0CB@DJKEODKM@INT_TYPE_DEFAULT_GROUP_LIST_TYP@ DB 'INT_TYPE_DEFAULT_'
	DB	'GROUP_LIST_TYPE', 00H			; `string'
CONST	ENDS
;	COMDAT ??_C@_0BO@KBDBEDOD@INT_TYPE_DEFAULT_ENGAGE_ENEMY@
CONST	SEGMENT
??_C@_0BO@KBDBEDOD@INT_TYPE_DEFAULT_ENGAGE_ENEMY@ DB 'INT_TYPE_DEFAULT_EN'
	DB	'GAGE_ENEMY', 00H				; `string'
CONST	ENDS
;	COMDAT ??_C@_0BK@MGMOOMEE@INT_TYPE_DEFAULT_3D_SHAPE@
CONST	SEGMENT
??_C@_0BK@MGMOOMEE@INT_TYPE_DEFAULT_3D_SHAPE@ DB 'INT_TYPE_DEFAULT_3D_SHA'
	DB	'PE', 00H					; `string'
CONST	ENDS
;	COMDAT ??_C@_0BP@PIHBDMNK@INT_TYPE_DELAY_TASK_ASSIGNMENT@
CONST	SEGMENT
??_C@_0BP@PIHBDMNK@INT_TYPE_DELAY_TASK_ASSIGNMENT@ DB 'INT_TYPE_DELAY_TAS'
	DB	'K_ASSIGNMENT', 00H				; `string'
CONST	ENDS
;	COMDAT ??_C@_0BK@NBDOLEEL@INT_TYPE_DAY_SEGMENT_TYPE@
CONST	SEGMENT
??_C@_0BK@NBDOLEEL@INT_TYPE_DAY_SEGMENT_TYPE@ DB 'INT_TYPE_DAY_SEGMENT_TY'
	DB	'PE', 00H					; `string'
CONST	ENDS
;	COMDAT ??_C@_0N@DODKCJNG@INT_TYPE_DAY@
CONST	SEGMENT
??_C@_0N@DODKCJNG@INT_TYPE_DAY@ DB 'INT_TYPE_DAY', 00H	; `string'
CONST	ENDS
;	COMDAT ??_C@_0BG@POHBDPLD@INT_TYPE_DAMAGE_LEVEL@
CONST	SEGMENT
??_C@_0BG@POHBDPLD@INT_TYPE_DAMAGE_LEVEL@ DB 'INT_TYPE_DAMAGE_LEVEL', 00H ; `string'
CONST	ENDS
;	COMDAT ??_C@_0BH@LFMLFNEC@INT_TYPE_CRITICAL_TASK@
CONST	SEGMENT
??_C@_0BH@LFMLFNEC@INT_TYPE_CRITICAL_TASK@ DB 'INT_TYPE_CRITICAL_TASK', 00H ; `string'
CONST	ENDS
;	COMDAT ??_C@_0BD@ILNAFFIO@INT_TYPE_CREW_ROLE@
CONST	SEGMENT
??_C@_0BD@ILNAFFIO@INT_TYPE_CREW_ROLE@ DB 'INT_TYPE_CREW_ROLE', 00H ; `string'
CONST	ENDS
;	COMDAT ??_C@_0BI@KBCIEDKF@INT_TYPE_CPG_IDENTIFIED@
CONST	SEGMENT
??_C@_0BI@KBCIEDKF@INT_TYPE_CPG_IDENTIFIED@ DB 'INT_TYPE_CPG_IDENTIFIED', 00H ; `string'
CONST	ENDS
;	COMDAT ??_C@_0P@NJOAMNDE@INT_TYPE_COUNT@
CONST	SEGMENT
??_C@_0P@NJOAMNDE@INT_TYPE_COUNT@ DB 'INT_TYPE_COUNT', 00H ; `string'
CONST	ENDS
;	COMDAT ??_C@_0BE@DLGFIKIO@INT_TYPE_COLOUR_RED@
CONST	SEGMENT
??_C@_0BE@DLGFIKIO@INT_TYPE_COLOUR_RED@ DB 'INT_TYPE_COLOUR_RED', 00H ; `string'
CONST	ENDS
;	COMDAT ??_C@_0BG@IJKBHGOB@INT_TYPE_COLOUR_GREEN@
CONST	SEGMENT
??_C@_0BG@IJKBHGOB@INT_TYPE_COLOUR_GREEN@ DB 'INT_TYPE_COLOUR_GREEN', 00H ; `string'
CONST	ENDS
;	COMDAT ??_C@_0BF@IHDJGBKC@INT_TYPE_COLOUR_BLUE@
CONST	SEGMENT
??_C@_0BF@IHDJGBKC@INT_TYPE_COLOUR_BLUE@ DB 'INT_TYPE_COLOUR_BLUE', 00H ; `string'
CONST	ENDS
;	COMDAT ??_C@_0BG@GIKPJECO@INT_TYPE_COLOUR_ALPHA@
CONST	SEGMENT
??_C@_0BG@GIKPJECO@INT_TYPE_COLOUR_ALPHA@ DB 'INT_TYPE_COLOUR_ALPHA', 00H ; `string'
CONST	ENDS
;	COMDAT ??_C@_0BA@HNGONDAP@INT_TYPE_COLOUR@
CONST	SEGMENT
??_C@_0BA@HNGONDAP@INT_TYPE_COLOUR@ DB 'INT_TYPE_COLOUR', 00H ; `string'
CONST	ENDS
;	COMDAT ??_C@_0BP@JPOPJLDL@INT_TYPE_COLLISION_TEST_MOBILE@
CONST	SEGMENT
??_C@_0BP@JPOPJLDL@INT_TYPE_COLLISION_TEST_MOBILE@ DB 'INT_TYPE_COLLISION'
	DB	'_TEST_MOBILE', 00H				; `string'
CONST	ENDS
;	COMDAT ??_C@_0BO@ENCJOKKN@INT_TYPE_COLLISION_TEST_FIXED@
CONST	SEGMENT
??_C@_0BO@ENCJOKKN@INT_TYPE_COLLISION_TEST_FIXED@ DB 'INT_TYPE_COLLISION_'
	DB	'TEST_FIXED', 00H				; `string'
CONST	ENDS
;	COMDAT ??_C@_0BF@ECFPKCBA@INT_TYPE_CHILD_COUNT@
CONST	SEGMENT
??_C@_0BF@ECFPKCBA@INT_TYPE_CHILD_COUNT@ DB 'INT_TYPE_CHILD_COUNT', 00H ; `string'
CONST	ENDS
;	COMDAT ??_C@_0BP@MJIOIIIA@INT_TYPE_CHECK_WAYPOINT_ACTION@
CONST	SEGMENT
??_C@_0BP@MJIOIIIA@INT_TYPE_CHECK_WAYPOINT_ACTION@ DB 'INT_TYPE_CHECK_WAY'
	DB	'POINT_ACTION', 00H				; `string'
CONST	ENDS
;	COMDAT ??_C@_0BI@FIIBDKKN@INT_TYPE_CHEATS_ENABLED@
CONST	SEGMENT
??_C@_0BI@FIIBDKKN@INT_TYPE_CHEATS_ENABLED@ DB 'INT_TYPE_CHEATS_ENABLED', 00H ; `string'
CONST	ENDS
;	COMDAT ??_C@_0CI@IHPPDALN@INT_TYPE_CAMPAIGN_REQUIRES_APAC@
CONST	SEGMENT
??_C@_0CI@IHPPDALN@INT_TYPE_CAMPAIGN_REQUIRES_APAC@ DB 'INT_TYPE_CAMPAIGN'
	DB	'_REQUIRES_APACHE_HAVOC', 00H		; `string'
CONST	ENDS
;	COMDAT ??_C@_0BI@JABJLDKO@INT_TYPE_CAMPAIGN_MEDAL@
CONST	SEGMENT
??_C@_0BI@JABJLDKO@INT_TYPE_CAMPAIGN_MEDAL@ DB 'INT_TYPE_CAMPAIGN_MEDAL', 00H ; `string'
CONST	ENDS
;	COMDAT ??_C@_0CB@KLGMJPCD@INT_TYPE_CAMPAIGN_CRITERIA_VALU@
CONST	SEGMENT
??_C@_0CB@KLGMJPCD@INT_TYPE_CAMPAIGN_CRITERIA_VALU@ DB 'INT_TYPE_CAMPAIGN'
	DB	'_CRITERIA_VALUE', 00H			; `string'
CONST	ENDS
;	COMDAT ??_C@_0CA@LIHKLGF@INT_TYPE_CAMPAIGN_CRITERIA_TYPE@
CONST	SEGMENT
??_C@_0CA@LIHKLGF@INT_TYPE_CAMPAIGN_CRITERIA_TYPE@ DB 'INT_TYPE_CAMPAIGN_'
	DB	'CRITERIA_TYPE', 00H				; `string'
CONST	ENDS
;	COMDAT ??_C@_0CC@POKENIGE@INT_TYPE_CAMPAIGN_CRITERIA_RESU@
CONST	SEGMENT
??_C@_0CC@POKENIGE@INT_TYPE_CAMPAIGN_CRITERIA_RESU@ DB 'INT_TYPE_CAMPAIGN'
	DB	'_CRITERIA_RESULT', 00H			; `string'
CONST	ENDS
;	COMDAT ??_C@_0CB@CJPMMFPO@INT_TYPE_CAMPAIGN_CRITERIA_COUN@
CONST	SEGMENT
??_C@_0CB@CJPMMFPO@INT_TYPE_CAMPAIGN_CRITERIA_COUN@ DB 'INT_TYPE_CAMPAIGN'
	DB	'_CRITERIA_COUNT', 00H			; `string'
CONST	ENDS
;	COMDAT ??_C@_0BF@HOFBNFDG@INT_TYPE_CAMERA_MODE@
CONST	SEGMENT
??_C@_0BF@HOFBNFDG@INT_TYPE_CAMERA_MODE@ DB 'INT_TYPE_CAMERA_MODE', 00H ; `string'
CONST	ENDS
;	COMDAT ??_C@_0BN@ECIBNGJD@INT_TYPE_BRIDGE_SEGMENT_TYPE@
CONST	SEGMENT
??_C@_0BN@ECIBNGJD@INT_TYPE_BRIDGE_SEGMENT_TYPE@ DB 'INT_TYPE_BRIDGE_SEGM'
	DB	'ENT_TYPE', 00H				; `string'
CONST	ENDS
;	COMDAT ??_C@_0BL@NLBPJBEH@INT_TYPE_AWARDED_PROMOTION@
CONST	SEGMENT
??_C@_0BL@NLBPJBEH@INT_TYPE_AWARDED_PROMOTION@ DB 'INT_TYPE_AWARDED_PROMO'
	DB	'TION', 00H					; `string'
CONST	ENDS
;	COMDAT ??_C@_0BI@OBLHFIPI@INT_TYPE_AWARDED_MEDALS@
CONST	SEGMENT
??_C@_0BI@OBLHFIPI@INT_TYPE_AWARDED_MEDALS@ DB 'INT_TYPE_AWARDED_MEDALS', 00H ; `string'
CONST	ENDS
;	COMDAT ??_C@_0BE@LFBGOJEL@INT_TYPE_AUTO_PILOT@
CONST	SEGMENT
??_C@_0BE@LFBGOJEL@INT_TYPE_AUTO_PILOT@ DB 'INT_TYPE_AUTO_PILOT', 00H ; `string'
CONST	ENDS
;	COMDAT ??_C@_0BN@CCIPKPKJ@INT_TYPE_AUTO_ASSIGN_GUNSHIP@
CONST	SEGMENT
??_C@_0BN@CCIPKPKJ@INT_TYPE_AUTO_ASSIGN_GUNSHIP@ DB 'INT_TYPE_AUTO_ASSIGN'
	DB	'_GUNSHIP', 00H				; `string'
CONST	ENDS
;	COMDAT ??_C@_0BI@GAOFLLOB@INT_TYPE_ASSESS_LANDING@
CONST	SEGMENT
??_C@_0BI@GAOFLLOB@INT_TYPE_ASSESS_LANDING@ DB 'INT_TYPE_ASSESS_LANDING', 00H ; `string'
CONST	ENDS
;	COMDAT ??_C@_0CH@NDELLEIG@INT_TYPE_APPROXIMATION_OBJECT_3@
CONST	SEGMENT
??_C@_0CH@NDELLEIG@INT_TYPE_APPROXIMATION_OBJECT_3@ DB 'INT_TYPE_APPROXIM'
	DB	'ATION_OBJECT_3D_SHAPE', 00H			; `string'
CONST	ENDS
;	COMDAT ??_C@_0BK@MODAFBGC@INT_TYPE_ANIMATED_TEXTURE@
CONST	SEGMENT
??_C@_0BK@MODAFBGC@INT_TYPE_ANIMATED_TEXTURE@ DB 'INT_TYPE_ANIMATED_TEXTU'
	DB	'RE', 00H					; `string'
CONST	ENDS
;	COMDAT ??_C@_0P@IIKLCPBA@INT_TYPE_ALIVE@
CONST	SEGMENT
??_C@_0P@IIKLCPBA@INT_TYPE_ALIVE@ DB 'INT_TYPE_ALIVE', 00H ; `string'
CONST	ENDS
;	COMDAT ??_C@_0BM@NJAJECAE@INT_TYPE_ALIGN_WITH_TERRAIN@
CONST	SEGMENT
??_C@_0BM@NJAJECAE@INT_TYPE_ALIGN_WITH_TERRAIN@ DB 'INT_TYPE_ALIGN_WITH_T'
	DB	'ERRAIN', 00H				; `string'
CONST	ENDS
;	COMDAT ??_C@_0BI@GEPGDCHA@INT_TYPE_AIRCRAFT_GROUP@
CONST	SEGMENT
??_C@_0BI@GEPGDCHA@INT_TYPE_AIRCRAFT_GROUP@ DB 'INT_TYPE_AIRCRAFT_GROUP', 00H ; `string'
CONST	ENDS
;	COMDAT ??_C@_0BL@JHLABGDH@INT_TYPE_AIRBORNE_AIRCRAFT@
CONST	SEGMENT
??_C@_0BL@JHLABGDH@INT_TYPE_AIRBORNE_AIRCRAFT@ DB 'INT_TYPE_AIRBORNE_AIRC'
	DB	'RAFT', 00H					; `string'
CONST	ENDS
;	COMDAT ??_C@_0CL@NPCLNPIJ@INT_TYPE_AIR_TO_SURFACE_WEAPON_@
CONST	SEGMENT
??_C@_0CL@NPCLNPIJ@INT_TYPE_AIR_TO_SURFACE_WEAPON_@ DB 'INT_TYPE_AIR_TO_S'
	DB	'URFACE_WEAPON_CONFIG_TYPE', 00H		; `string'
CONST	ENDS
;	COMDAT ??_C@_0CH@OMINJOND@INT_TYPE_AIR_TO_AIR_WEAPON_CONF@
CONST	SEGMENT
??_C@_0CH@OMINJOND@INT_TYPE_AIR_TO_AIR_WEAPON_CONF@ DB 'INT_TYPE_AIR_TO_A'
	DB	'IR_WEAPON_CONFIG_TYPE', 00H			; `string'
CONST	ENDS
;	COMDAT ??_C@_0BN@NCIIBGC@INT_TYPE_AIR_ATTACK_STRENGTH@
CONST	SEGMENT
??_C@_0BN@NCIIBGC@INT_TYPE_AIR_ATTACK_STRENGTH@ DB 'INT_TYPE_AIR_ATTACK_S'
	DB	'TRENGTH', 00H				; `string'
CONST	ENDS
;	COMDAT ??_C@_0BC@FBCPGLAJ@INT_TYPE_ADDITIVE@
CONST	SEGMENT
??_C@_0BC@FBCPGLAJ@INT_TYPE_ADDITIVE@ DB 'INT_TYPE_ADDITIVE', 00H ; `string'
?debug_fatal_invalid_int_type_message@@3PBDB DD FLAT:??_C@_0FF@HEPOOFIJ@Invalid?5int?5type?5?$CIentity?5type?5?$DN@ ; debug_fatal_invalid_int_type_message
?int_type_database@@3PAUINT_TYPE_DATA@@A DD FLAT:??_C@_0BC@FBCPGLAJ@INT_TYPE_ADDITIVE@ ; int_type_database
	DD	01H
	DD	01H
	DD	00H
	DD	00H
	DD	FLAT:??_C@_0BN@NCIIBGC@INT_TYPE_AIR_ATTACK_STRENGTH@
	DD	01H
	DD	020H
	DD	00H
	DD	00H
	DD	FLAT:??_C@_0CH@OMINJOND@INT_TYPE_AIR_TO_AIR_WEAPON_CONF@
	DD	01H
	DD	0aH
	DD	00H
	DD	00H
	DD	FLAT:??_C@_0CL@NPCLNPIJ@INT_TYPE_AIR_TO_SURFACE_WEAPON_@
	DD	01H
	DD	0aH
	DD	00H
	DD	00H
	DD	FLAT:??_C@_0BL@JHLABGDH@INT_TYPE_AIRBORNE_AIRCRAFT@
	DD	01H
	DD	01H
	DD	00H
	DD	00H
	DD	FLAT:??_C@_0BI@GEPGDCHA@INT_TYPE_AIRCRAFT_GROUP@
	DD	01H
	DD	020H
	DD	00H
	DD	00H
	DD	FLAT:??_C@_0BM@NJAJECAE@INT_TYPE_ALIGN_WITH_TERRAIN@
	DD	01H
	DD	01H
	DD	00H
	DD	00H
	DD	FLAT:??_C@_0P@IIKLCPBA@INT_TYPE_ALIVE@
	DD	01H
	DD	01H
	DD	00H
	DD	00H
	DD	FLAT:??_C@_0BK@MODAFBGC@INT_TYPE_ANIMATED_TEXTURE@
	DD	01H
	DD	08H
	DD	00H
	DD	00H
	DD	FLAT:??_C@_0CH@NDELLEIG@INT_TYPE_APPROXIMATION_OBJECT_3@
	DD	01H
	DD	0cH
	DD	00H
	DD	00H
	DD	FLAT:??_C@_0BI@GAOFLLOB@INT_TYPE_ASSESS_LANDING@
	DD	01H
	DD	01H
	DD	00H
	DD	00H
	DD	FLAT:??_C@_0BN@CCIPKPKJ@INT_TYPE_AUTO_ASSIGN_GUNSHIP@
	DD	01H
	DD	01H
	DD	00H
	DD	00H
	DD	FLAT:??_C@_0BE@LFBGOJEL@INT_TYPE_AUTO_PILOT@
	DD	01H
	DD	01H
	DD	00H
	DD	00H
	DD	FLAT:??_C@_0BI@OBLHFIPI@INT_TYPE_AWARDED_MEDALS@
	DD	01H
	DD	010H
	DD	00H
	DD	00H
	DD	FLAT:??_C@_0BL@NLBPJBEH@INT_TYPE_AWARDED_PROMOTION@
	DD	01H
	DD	010H
	DD	00H
	DD	00H
	DD	FLAT:??_C@_0BN@ECIBNGJD@INT_TYPE_BRIDGE_SEGMENT_TYPE@
	DD	01H
	DD	020H
	DD	00H
	DD	00H
	DD	FLAT:??_C@_0BF@HOFBNFDG@INT_TYPE_CAMERA_MODE@
	DD	01H
	DD	020H
	DD	00H
	DD	00H
	DD	FLAT:??_C@_0CB@CJPMMFPO@INT_TYPE_CAMPAIGN_CRITERIA_COUN@
	DD	01H
	DD	08H
	DD	00H
	DD	00H
	DD	FLAT:??_C@_0CC@POKENIGE@INT_TYPE_CAMPAIGN_CRITERIA_RESU@
	DD	01H
	DD	08H
	DD	00H
	DD	00H
	DD	FLAT:??_C@_0CA@LIHKLGF@INT_TYPE_CAMPAIGN_CRITERIA_TYPE@
	DD	01H
	DD	08H
	DD	00H
	DD	00H
	DD	FLAT:??_C@_0CB@KLGMJPCD@INT_TYPE_CAMPAIGN_CRITERIA_VALU@
	DD	01H
	DD	010H
	DD	00H
	DD	00H
	DD	FLAT:??_C@_0BI@JABJLDKO@INT_TYPE_CAMPAIGN_MEDAL@
	DD	01H
	DD	010H
	DD	00H
	DD	00H
	DD	FLAT:??_C@_0CI@IHPPDALN@INT_TYPE_CAMPAIGN_REQUIRES_APAC@
	DD	01H
	DD	01H
	DD	00H
	DD	00H
	DD	FLAT:??_C@_0BI@FIIBDKKN@INT_TYPE_CHEATS_ENABLED@
	DD	01H
	DD	01H
	DD	00H
	DD	00H
	DD	FLAT:??_C@_0BP@MJIOIIIA@INT_TYPE_CHECK_WAYPOINT_ACTION@
	DD	01H
	DD	01H
	DD	00H
	DD	00H
	DD	FLAT:??_C@_0BF@ECFPKCBA@INT_TYPE_CHILD_COUNT@
	DD	01H
	DD	010H
	DD	00H
	DD	00H
	DD	FLAT:??_C@_0BO@ENCJOKKN@INT_TYPE_COLLISION_TEST_FIXED@
	DD	01H
	DD	020H
	DD	00H
	DD	00H
	DD	FLAT:??_C@_0BP@JPOPJLDL@INT_TYPE_COLLISION_TEST_MOBILE@
	DD	01H
	DD	020H
	DD	00H
	DD	00H
	DD	FLAT:??_C@_0BA@HNGONDAP@INT_TYPE_COLOUR@
	DD	01H
	DD	04H
	DD	00H
	DD	00H
	DD	FLAT:??_C@_0BG@GIKPJECO@INT_TYPE_COLOUR_ALPHA@
	DD	01H
	DD	08H
	DD	00H
	DD	00H
	DD	FLAT:??_C@_0BF@IHDJGBKC@INT_TYPE_COLOUR_BLUE@
	DD	01H
	DD	08H
	DD	00H
	DD	00H
	DD	FLAT:??_C@_0BG@IJKBHGOB@INT_TYPE_COLOUR_GREEN@
	DD	01H
	DD	08H
	DD	00H
	DD	00H
	DD	FLAT:??_C@_0BE@DLGFIKIO@INT_TYPE_COLOUR_RED@
	DD	01H
	DD	08H
	DD	00H
	DD	00H
	DD	FLAT:??_C@_0P@NJOAMNDE@INT_TYPE_COUNT@
	DD	01H
	DD	020H
	DD	00H
	DD	00H
	DD	FLAT:??_C@_0BI@KBCIEDKF@INT_TYPE_CPG_IDENTIFIED@
	DD	01H
	DD	01H
	DD	00H
	DD	00H
	DD	FLAT:??_C@_0BD@ILNAFFIO@INT_TYPE_CREW_ROLE@
	DD	01H
	DD	01H
	DD	00H
	DD	00H
	DD	FLAT:??_C@_0BH@LFMLFNEC@INT_TYPE_CRITICAL_TASK@
	DD	01H
	DD	01H
	DD	00H
	DD	00H
	DD	FLAT:??_C@_0BG@POHBDPLD@INT_TYPE_DAMAGE_LEVEL@
	DD	01H
	DD	020H
	DD	00H
	DD	00H
	DD	FLAT:??_C@_0N@DODKCJNG@INT_TYPE_DAY@
	DD	01H
	DD	010H
	DD	00H
	DD	00H
	DD	FLAT:??_C@_0BK@NBDOLEEL@INT_TYPE_DAY_SEGMENT_TYPE@
	DD	01H
	DD	03H
	DD	00H
	DD	00H
	DD	FLAT:??_C@_0BP@PIHBDMNK@INT_TYPE_DELAY_TASK_ASSIGNMENT@
	DD	01H
	DD	01H
	DD	00H
	DD	00H
	DD	FLAT:??_C@_0BK@MGMOOMEE@INT_TYPE_DEFAULT_3D_SHAPE@
	DD	01H
	DD	020H
	DD	00H
	DD	00H
	DD	FLAT:??_C@_0BO@KBDBEDOD@INT_TYPE_DEFAULT_ENGAGE_ENEMY@
	DD	01H
	DD	01H
	DD	00H
	DD	00H
	DD	FLAT:??_C@_0CB@DJKEODKM@INT_TYPE_DEFAULT_GROUP_LIST_TYP@
	DD	01H
	DD	020H
	DD	00H
	DD	00H
	DD	FLAT:??_C@_0CE@CEKICBPJ@INT_TYPE_DEFAULT_WEAPON_CONFIG_@
	DD	01H
	DD	0aH
	DD	00H
	DD	00H
	DD	FLAT:??_C@_0BN@BEFINDGL@INT_TYPE_DEFAULT_WEAPON_TYPE@
	DD	01H
	DD	020H
	DD	00H
	DD	00H
	DD	FLAT:??_C@_0BM@BCBCJDBO@INT_TYPE_DESTROYED_3D_SHAPE@
	DD	01H
	DD	020H
	DD	00H
	DD	00H
	DD	FLAT:??_C@_0BK@IGFCPJKL@INT_TYPE_DIFFICULTY_LEVEL@
	DD	01H
	DD	02H
	DD	00H
	DD	00H
	DD	FLAT:??_C@_0BF@HDJJJHMI@INT_TYPE_DIVISION_ID@
	DD	01H
	DD	0cH
	DD	00H
	DD	00H
	DD	FLAT:??_C@_0BB@NDKKLBDK@INT_TYPE_EJECTED@
	DD	01H
	DD	01H
	DD	00H
	DD	01H
	DD	FLAT:??_C@_0BC@FIBFGAKK@INT_TYPE_END_NODE@
	DD	01H
	DD	020H
	DD	00H
	DD	00H
	DD	FLAT:??_C@_0BG@JIAJAOMH@INT_TYPE_ENGAGE_ENEMY@
	DD	01H
	DD	01H
	DD	00H
	DD	00H
	DD	FLAT:??_C@_0BJ@DGJACMFM@INT_TYPE_ENTITY_SUB_TYPE@
	DD	01H
	DD	0aH
	DD	00H
	DD	00H
	DD	FLAT:??_C@_0BE@JFJEDPCH@INT_TYPE_EVADE_FIRE@
	DD	01H
	DD	020H
	DD	00H
	DD	00H
	DD	FLAT:??_C@_0BJ@MIOMLECC@INT_TYPE_EXPLOSIVE_POWER@
	DD	01H
	DD	04H
	DD	00H
	DD	00H
	DD	FLAT:??_C@_0BL@DLPBAJFP@INT_TYPE_EXPLOSIVE_QUALITY@
	DD	01H
	DD	04H
	DD	00H
	DD	00H
	DD	FLAT:??_C@_0BI@LBNAPDDA@INT_TYPE_EXPOSURE_LEVEL@
	DD	01H
	DD	08H
	DD	00H
	DD	00H
	DD	FLAT:??_C@_0BK@LLMKCGHK@INT_TYPE_FOLLOW_FORMATION@
	DD	01H
	DD	020H
	DD	00H
	DD	00H
	DD	FLAT:??_C@_0P@EPPLNEHN@INT_TYPE_FORCE@
	DD	00H
	DD	020H
	DD	00H
	DD	00H
	DD	FLAT:??_C@_0BI@HPEGCDIE@INT_TYPE_FORCE_ATTITUDE@
	DD	00H
	DD	08H
	DD	00H
	DD	00H
	DD	FLAT:??_C@_0BN@NIFELFAJ@INT_TYPE_FORCE_INFO_CATAGORY@
	DD	01H
	DD	05H
	DD	00H
	DD	00H
	DD	FLAT:??_C@_0BM@DNKBMCOH@INT_TYPE_FORCE_SECTOR_COUNT@
	DD	01H
	DD	010H
	DD	00H
	DD	00H
	DD	FLAT:??_C@_0BM@MBJAMKLP@INT_TYPE_FORMATION_POSITION@
	DD	01H
	DD	020H
	DD	00H
	DD	00H
	DD	FLAT:??_C@_0BN@MKIJDAEA@INT_TYPE_FORMATION_POSITIONS@
	DD	01H
	DD	020H
	DD	00H
	DD	00H
	DD	FLAT:??_C@_0BM@LHPJEMBI@INT_TYPE_FREE_LANDING_SITES@
	DD	01H
	DD	020H
	DD	00H
	DD	00H
	DD	FLAT:??_C@_0BD@JNIHAJIN@INT_TYPE_FRONTLINE@
	DD	01H
	DD	02H
	DD	00H
	DD	00H
	DD	FLAT:??_C@_0BO@DNAEDGCL@INT_TYPE_GROUND_RADAR_CLUTTER@
	DD	01H
	DD	020H
	DD	00H
	DD	00H
	DD	FLAT:??_C@_0BK@MFMDMGAD@INT_TYPE_GROUP_AMALGAMATE@
	DD	01H
	DD	020H
	DD	00H
	DD	00H
	DD	FLAT:??_C@_0BI@IPFGFFBM@INT_TYPE_GROUP_CALLSIGN@
	DD	01H
	DD	08H
	DD	00H
	DD	00H
	DD	FLAT:??_C@_0BI@FDANFNOO@INT_TYPE_GROUP_CATEGORY@
	DD	01H
	DD	020H
	DD	00H
	DD	00H
	DD	FLAT:??_C@_0CB@MJLOFLFO@INT_TYPE_GROUP_DEFAULT_FORMATIO@
	DD	01H
	DD	010H
	DD	00H
	DD	00H
	DD	FLAT:??_C@_0BJ@KMKKLNEN@INT_TYPE_GROUP_FORMATION@
	DD	01H
	DD	010H
	DD	00H
	DD	00H
	DD	FLAT:??_C@_0BG@MBCGCHOJ@INT_TYPE_GROUP_LEADER@
	DD	01H
	DD	01H
	DD	00H
	DD	00H
	DD	FLAT:??_C@_0BJ@GLDFIEHP@INT_TYPE_GROUP_LIST_TYPE@
	DD	01H
	DD	06H
	DD	00H
	DD	00H
	DD	FLAT:??_C@_0BJ@NHGLEIH@INT_TYPE_GROUP_MEMBER_ID@
	DD	01H
	DD	020H
	DD	00H
	DD	00H
	DD	FLAT:??_C@_0BN@NHICOJIA@INT_TYPE_GROUP_MEMBER_NUMBER@
	DD	01H
	DD	05H
	DD	00H
	DD	00H
	DD	FLAT:??_C@_0BM@NKALAGLG@INT_TYPE_GROUP_MEMBER_STATE@
	DD	01H
	DD	020H
	DD	00H
	DD	00H
	DD	FLAT:??_C@_0BE@MDDGMONN@INT_TYPE_GROUP_MODE@
	DD	01H
	DD	02H
	DD	00H
	DD	00H
	DD	FLAT:??_C@_0BN@MAGCAEEO@INT_TYPE_GUIDE_CRITERIA_TYPE@
	DD	01H
	DD	03H
	DD	00H
	DD	00H
	DD	FLAT:??_C@_0BN@HMAJBIBI@INT_TYPE_GUIDE_POSITION_TYPE@
	DD	01H
	DD	03H
	DD	00H
	DD	00H
	DD	FLAT:??_C@_0CB@FMPDOHMI@INT_TYPE_GUNSHIP_RADAR_LOS_CLEA@
	DD	01H
	DD	01H
	DD	00H
	DD	00H
	DD	FLAT:??_C@_0BG@MDMMBMNO@INT_TYPE_GUNSHIP_TYPE@
	DD	01H
	DD	05H
	DD	00H
	DD	00H
	DD	FLAT:??_C@_0BP@KHGNMCLJ@INT_TYPE_HAND_OFF_TARGET_COUNT@
	DD	01H
	DD	08H
	DD	00H
	DD	00H
	DD	FLAT:??_C@_0CA@MCCAMKLF@INT_TYPE_HARD_DAMAGE_CAPABILITY@
	DD	01H
	DD	020H
	DD	00H
	DD	00H
	DD	FLAT:??_C@_0CB@MBIBKCAB@INT_TYPE_HELICOPTER_DAMAGE_FLAG@
	DD	01H
	DD	020H
	DD	00H
	DD	00H
	DD	FLAT:??_C@_0CB@GOBKFGMA@INT_TYPE_HELICOPTER_DAMAGE_LEVE@
	DD	01H
	DD	02H
	DD	00H
	DD	00H
	DD	FLAT:??_C@_0BO@GNAHNBMP@INT_TYPE_HIDDEN_BY_FOG_OF_WAR@
	DD	01H
	DD	01H
	DD	00H
	DD	00H
	DD	FLAT:??_C@_0BL@BENAEKCM@INT_TYPE_IDENTIFY_AIRCRAFT@
	DD	01H
	DD	01H
	DD	00H
	DD	00H
	DD	FLAT:??_C@_0CA@COCHHNDA@INT_TYPE_IDENTIFY_ANTI_AIRCRAFT@
	DD	01H
	DD	01H
	DD	00H
	DD	00H
	DD	FLAT:??_C@_0BI@OHGDOJCA@INT_TYPE_IDENTIFY_CARGO@
	DD	01H
	DD	01H
	DD	00H
	DD	00H
	DD	FLAT:??_C@_0BI@IBDNOJD@INT_TYPE_IDENTIFY_FIXED@
	DD	01H
	DD	01H
	DD	00H
	DD	00H
	DD	FLAT:??_C@_0BN@NCFPMDAN@INT_TYPE_IDENTIFY_FIXED_WING@
	DD	01H
	DD	01H
	DD	00H
	DD	00H
	DD	FLAT:??_C@_0BN@NBFEGIAF@INT_TYPE_IDENTIFY_HELICOPTER@
	DD	01H
	DD	01H
	DD	00H
	DD	00H
	DD	FLAT:??_C@_0BJ@FOMLLMKE@INT_TYPE_IDENTIFY_MOBILE@
	DD	01H
	DD	01H
	DD	00H
	DD	00H
	DD	FLAT:??_C@_0BJ@KJCEJOJN@INT_TYPE_IDENTIFY_ROUTED@
	DD	01H
	DD	01H
	DD	00H
	DD	00H
	DD	FLAT:??_C@_0BP@OILKCKHP@INT_TYPE_IDENTIFY_SHIP_VEHICLE@
	DD	01H
	DD	01H
	DD	00H
	DD	00H
	DD	FLAT:??_C@_0BK@CPGDGNIB@INT_TYPE_IDENTIFY_VEHICLE@
	DD	01H
	DD	01H
	DD	00H
	DD	00H
	DD	FLAT:??_C@_0BL@MMHNGEMJ@INT_TYPE_IDENTIFY_WAYPOINT@
	DD	01H
	DD	01H
	DD	00H
	DD	00H
	DD	FLAT:??_C@_0BJ@LHPNFJBF@INT_TYPE_IDENTIFY_WEAPON@
	DD	01H
	DD	01H
	DD	00H
	DD	00H
	DD	FLAT:??_C@_0BD@OHAGEOLD@INT_TYPE_ID_NUMBER@
	DD	01H
	DD	020H
	DD	00H
	DD	00H
	DD	FLAT:??_C@_0CG@NHKODKBL@INT_TYPE_ID_NUMBER_SIGNIFICANT_@
	DD	01H
	DD	020H
	DD	00H
	DD	00H
	DD	FLAT:??_C@_0BH@BKDHCIBB@INT_TYPE_INFINITE_FUEL@
	DD	01H
	DD	01H
	DD	00H
	DD	00H
	DD	FLAT:??_C@_0BM@LBAOPFDM@INT_TYPE_INFINITE_GENERATOR@
	DD	01H
	DD	01H
	DD	00H
	DD	00H
	DD	FLAT:??_C@_0BK@DJKPLBCA@INT_TYPE_INFINITE_WEAPONS@
	DD	01H
	DD	01H
	DD	00H
	DD	00H
	DD	FLAT:??_C@_0BN@KGAHCFBH@INT_TYPE_INFRA_RED_JAMMER_ON@
	DD	01H
	DD	01H
	DD	00H
	DD	00H
	DD	FLAT:??_C@_0BO@NEMECMDA@INT_TYPE_INITIAL_DAMAGE_LEVEL@
	DD	01H
	DD	020H
	DD	00H
	DD	00H
	DD	FLAT:??_C@_0BH@GDNDIMIL@INT_TYPE_INSIDE_HANGAR@
	DD	01H
	DD	01H
	DD	00H
	DD	00H
	DD	FLAT:??_C@_0CG@ENEDAOJ@INT_TYPE_INVULNERABLE_FROM_COLL@
	DD	01H
	DD	01H
	DD	00H
	DD	00H
	DD	FLAT:??_C@_0CD@ELKJJPHG@INT_TYPE_INVULNERABLE_FROM_WEAP@
	DD	01H
	DD	01H
	DD	00H
	DD	00H
	DD	FLAT:??_C@_0BA@LKIPNGJ@INT_TYPE_IN_USE@
	DD	01H
	DD	01H
	DD	00H
	DD	00H
	DD	FLAT:??_C@_0BH@BFODCGJO@INT_TYPE_KEYSITE_COUNT@
	DD	01H
	DD	08H
	DD	00H
	DD	00H
	DD	FLAT:??_C@_0BE@PMMAGDGF@INT_TYPE_KEYSITE_ID@
	DD	01H
	DD	08H
	DD	00H
	DD	00H
	DD	FLAT:??_C@_0BO@FODANLMN@INT_TYPE_KEYSITE_USABLE_STATE@
	DD	01H
	DD	03H
	DD	00H
	DD	00H
	DD	FLAT:??_C@_0BK@NFJFFAPC@INT_TYPE_KILL_NEXT_UPDATE@
	DD	01H
	DD	02H
	DD	00H
	DD	00H
	DD	FLAT:??_C@_0P@NLCHOAEF@INT_TYPE_KILLS@
	DD	00H
	DD	0cH
	DD	00H
	DD	00H
	DD	FLAT:??_C@_0BA@BMFDAAFA@INT_TYPE_LANDED@
	DD	01H
	DD	01H
	DD	00H
	DD	00H
	DD	FLAT:??_C@_0BF@HCGDOACJ@INT_TYPE_LANDED_LOCK@
	DD	01H
	DD	020H
	DD	00H
	DD	00H
	DD	FLAT:??_C@_0BL@GAIJPMMN@INT_TYPE_LANDED_ON_CARRIER@
	DD	01H
	DD	01H
	DD	00H
	DD	00H
	DD	FLAT:??_C@_0BG@PEKPLENC@INT_TYPE_LANDING_LOCK@
	DD	01H
	DD	020H
	DD	00H
	DD	00H
	DD	FLAT:??_C@_0BH@LBKICFHE@INT_TYPE_LANDING_TYPES@
	DD	01H
	DD	04H
	DD	00H
	DD	00H
	DD	FLAT:??_C@_0BC@DHAKFMNG@INT_TYPE_LASER_ON@
	DD	01H
	DD	01H
	DD	00H
	DD	00H
	DD	FLAT:??_C@_0BA@CECGGLOD@INT_TYPE_LENGTH@
	DD	01H
	DD	010H
	DD	00H
	DD	00H
	DD	FLAT:??_C@_0BD@GBPBNAIL@INT_TYPE_LIGHTS_ON@
	DD	01H
	DD	01H
	DD	00H
	DD	00H
	DD	FLAT:??_C@_0BM@NLINKOFB@INT_TYPE_LOCAL_EFFECT_COUNT@
	DD	01H
	DD	04H
	DD	00H
	DD	00H
	DD	FLAT:??_C@_0BK@EBFHCJIG@INT_TYPE_LOCAL_ONLY_GROUP@
	DD	01H
	DD	01H
	DD	00H
	DD	00H
	DD	FLAT:??_C@_0BN@MGMMDOL@INT_TYPE_LOCAL_WEATHER_MODEL@
	DD	01H
	DD	01H
	DD	00H
	DD	00H
	DD	FLAT:??_C@_0BO@GAOHPEKE@INT_TYPE_LOCK_ON_AFTER_LAUNCH@
	DD	01H
	DD	01H
	DD	00H
	DD	00H
	DD	FLAT:??_C@_0BA@HGGENJKD@INT_TYPE_LOSSES@
	DD	01H
	DD	0aH
	DD	00H
	DD	00H
	DD	FLAT:??_C@_0BH@JKBILNPO@INT_TYPE_LOS_TO_TARGET@
	DD	01H
	DD	01H
	DD	00H
	DD	00H
	DD	FLAT:??_C@_0BM@BHDBGKLH@INT_TYPE_MAIN_ROTOR_DAMAGED@
	DD	01H
	DD	01H
	DD	00H
	DD	00H
	DD	FLAT:??_C@_0BC@LOCLDNEB@INT_TYPE_MAP_ICON@
	DD	01H
	DD	020H
	DD	00H
	DD	00H
	DD	FLAT:??_C@_0BO@ELNOBGDH@INT_TYPE_MAXIMUM_MEMBER_COUNT@
	DD	01H
	DD	020H
	DD	00H
	DD	00H
	DD	FLAT:??_C@_0BI@LCHJNFIL@INT_TYPE_MAXIMUM_VOLUME@
	DD	01H
	DD	020H
	DD	00H
	DD	00H
	DD	FLAT:??_C@_0CA@BGBCLAML@INT_TYPE_MAX_WEAPON_CONFIG_TYPE@
	DD	01H
	DD	0aH
	DD	00H
	DD	00H
	DD	FLAT:??_C@_0BG@OOEANHLB@INT_TYPE_MEMBER_COUNT@
	DD	01H
	DD	06H
	DD	00H
	DD	00H
	DD	FLAT:??_C@_0BL@EBJOLAME@INT_TYPE_MESSAGE_TEXT_TYPE@
	DD	01H
	DD	04H
	DD	00H
	DD	00H
	DD	FLAT:??_C@_0BN@PEMKFENG@INT_TYPE_META_EXPLOSION_TYPE@
	DD	01H
	DD	06H
	DD	00H
	DD	00H
	DD	FLAT:??_C@_0BO@IFJFMIC@INT_TYPE_META_SMOKE_LIST_TYPE@
	DD	01H
	DD	06H
	DD	00H
	DD	00H
	DD	FLAT:??_C@_0BM@NAFCMKDO@INT_TYPE_MINIMUM_IDLE_COUNT@
	DD	01H
	DD	020H
	DD	00H
	DD	00H
	DD	FLAT:??_C@_0BO@FIJLPAJM@INT_TYPE_MINIMUM_MEMBER_COUNT@
	DD	01H
	DD	020H
	DD	00H
	DD	00H
	DD	FLAT:??_C@_0CA@BCIIIBOB@INT_TYPE_MIN_WEAPON_CONFIG_TYPE@
	DD	01H
	DD	0aH
	DD	00H
	DD	00H
	DD	FLAT:??_C@_0CH@HANHHPFM@INT_TYPE_MOBILE_FOLLOW_WAYPOINT@
	DD	01H
	DD	020H
	DD	00H
	DD	00H
	DD	FLAT:??_C@_0BH@MHBHHPPM@INT_TYPE_MOBILE_MOVING@
	DD	01H
	DD	01H
	DD	00H
	DD	00H
	DD	FLAT:??_C@_0BE@BPCNBHMB@INT_TYPE_MOVED_TYPE@
	DD	00H
	DD	01H
	DD	00H
	DD	00H
	DD	FLAT:??_C@_0BH@GCAHFCLC@INT_TYPE_MOVEMENT_TYPE@
	DD	00H
	DD	03H
	DD	00H
	DD	00H
	DD	FLAT:??_C@_0BL@HMPHIOIH@INT_TYPE_MULTIPLAYER_GROUP@
	DD	01H
	DD	01H
	DD	00H
	DD	00H
	DD	FLAT:??_C@_0BJ@KOFFCOGA@INT_TYPE_OBJECT_3D_SHAPE@
	DD	01H
	DD	0cH
	DD	00H
	DD	00H
	DD	FLAT:??_C@_0CG@CLGHGPGM@INT_TYPE_OBJECT_DRAWN_ONCE_THIS@
	DD	01H
	DD	01H
	DD	00H
	DD	00H
	DD	FLAT:??_C@_0BG@FAKIGPED@INT_TYPE_OBJECT_INDEX@
	DD	00H
	DD	0cH
	DD	00H
	DD	00H
	DD	FLAT:??_C@_0BI@PKLBMGLE@INT_TYPE_OBJECT_SCALING@
	DD	00H
	DD	020H
	DD	00H
	DD	00H
	DD	FLAT:??_C@_0BO@LOFFCOHL@INT_TYPE_OFFENSIVE_CAPABILITY@
	DD	01H
	DD	01H
	DD	00H
	DD	00H
	DD	FLAT:??_C@_0BL@HLDJFNKL@INT_TYPE_OPERATIONAL_STATE@
	DD	01H
	DD	05H
	DD	00H
	DD	00H
	DD	FLAT:??_C@_0BI@DGPBGLEA@INT_TYPE_PARTICLE_COUNT@
	DD	01H
	DD	06H
	DD	00H
	DD	00H
	DD	FLAT:??_C@_0BJ@BEALBFMH@INT_TYPE_PERFORM_DEBRIEF@
	DD	01H
	DD	01H
	DD	00H
	DD	00H
	DD	FLAT:??_C@_0BE@CKHHIPIH@INT_TYPE_PILOT_RANK@
	DD	01H
	DD	03H
	DD	00H
	DD	00H
	DD	FLAT:??_C@_0BK@LLCODJKA@INT_TYPE_PLANNER_MOVEABLE@
	DD	01H
	DD	01H
	DD	00H
	DD	00H
	DD	FLAT:??_C@_0BA@DMAIEIHA@INT_TYPE_PLAYER@
	DD	01H
	DD	020H
	DD	00H
	DD	00H
	DD	FLAT:??_C@_0BN@LEFBMCCN@INT_TYPE_PLAYER_CONTROLLABLE@
	DD	01H
	DD	02H
	DD	00H
	DD	00H
	DD	FLAT:??_C@_0BF@LEAGFCAM@INT_TYPE_PLAYER_TASK@
	DD	01H
	DD	01H
	DD	00H
	DD	00H
	DD	FLAT:??_C@_0BG@KIDIGGAJ@INT_TYPE_POINTS_VALUE@
	DD	01H
	DD	020H
	DD	00H
	DD	00H
	DD	FLAT:??_C@_0BH@MPDIHIOP@INT_TYPE_POSITION_HOLD@
	DD	01H
	DD	01H
	DD	00H
	DD	00H
	DD	FLAT:??_C@_0BH@BDHNGBHK@INT_TYPE_POSITION_TYPE@
	DD	01H
	DD	02H
	DD	00H
	DD	00H
	DD	FLAT:??_C@_0CG@FAHNHPAI@INT_TYPE_POTENTIAL_CAMPAIGN_OBJ@
	DD	01H
	DD	01H
	DD	00H
	DD	00H
	DD	FLAT:??_C@_0BG@HPPOMDFJ@INT_TYPE_PRIMARY_TASK@
	DD	01H
	DD	020H
	DD	00H
	DD	00H
	DD	FLAT:??_C@_0BF@CFGBPJEF@INT_TYPE_PROTOTYPE_1@
	DD	01H
	DD	020H
	DD	00H
	DD	00H
	DD	FLAT:??_C@_0BF@OEMKKIG@INT_TYPE_PROTOTYPE_2@
	DD	01H
	DD	020H
	DD	00H
	DD	00H
	DD	FLAT:??_C@_0BF@BHFHJLMH@INT_TYPE_PROTOTYPE_3@
	DD	01H
	DD	020H
	DD	00H
	DD	00H
	DD	FLAT:??_C@_0BF@FIBGANAA@INT_TYPE_PROTOTYPE_4@
	DD	01H
	DD	020H
	DD	00H
	DD	00H
	DD	FLAT:??_C@_0BJ@KELAGFKD@INT_TYPE_RADAR_JAMMER_ON@
	DD	01H
	DD	01H
	DD	00H
	DD	00H
	DD	FLAT:??_C@_0BC@GKOACFGD@INT_TYPE_RADAR_ON@
	DD	01H
	DD	01H
	DD	00H
	DD	00H
	DD	FLAT:??_C@_0BM@KMBACLON@INT_TYPE_RADIO_MESSAGE_TYPE@
	DD	01H
	DD	08H
	DD	00H
	DD	00H
	DD	FLAT:??_C@_0BN@EIKIADLB@INT_TYPE_RADIO_MESSAGE_VALUE@
	DD	01H
	DD	020H
	DD	00H
	DD	00H
	DD	FLAT:??_C@_0BC@HOBCKNGF@INT_TYPE_REARMING@
	DD	01H
	DD	01H
	DD	00H
	DD	00H
	DD	FLAT:??_C@_0CB@LPNKCFCO@INT_TYPE_REGEN_CREATION_SUB_TYP@
	DD	01H
	DD	0aH
	DD	00H
	DD	00H
	DD	FLAT:??_C@_0BM@HONHDLKK@INT_TYPE_REGISTRY_LIST_TYPE@
	DD	01H
	DD	020H
	DD	00H
	DD	00H
	DD	FLAT:??_C@_0CA@DKDODGJG@INT_TYPE_RESERVED_LANDING_SITES@
	DD	01H
	DD	020H
	DD	00H
	DD	00H
	DD	FLAT:??_C@_0BJ@DOIIHGJG@INT_TYPE_RESUPPLY_SOURCE@
	DD	01H
	DD	03H
	DD	00H
	DD	00H
	DD	FLAT:??_C@_0BB@EFKGCEPB@INT_TYPE_ROTATED@
	DD	00H
	DD	01H
	DD	00H
	DD	00H
	DD	FLAT:??_C@_0BJ@CGKCDBD@INT_TYPE_ROUTE_CHECK_SUM@
	DD	01H
	DD	08H
	DD	00H
	DD	00H
	DD	FLAT:??_C@_0BG@ICFJCFNO@INT_TYPE_ROUTE_LENGTH@
	DD	01H
	DD	010H
	DD	00H
	DD	00H
	DD	FLAT:??_C@_0BE@EJMFKNME@INT_TYPE_ROUTE_NODE@
	DD	01H
	DD	0aH
	DD	00H
	DD	00H
	DD	FLAT:??_C@_0BN@DBEDMPNJ@INT_TYPE_RULES_OF_ENGAGEMENT@
	DD	01H
	DD	02H
	DD	00H
	DD	00H
	DD	FLAT:??_C@_0CC@KJFMAFNO@INT_TYPE_SCOUT_WEAPON_CONFIG_TY@
	DD	01H
	DD	020H
	DD	00H
	DD	00H
	DD	FLAT:??_C@_0BF@CMNBPJFP@INT_TYPE_SECTOR_SIDE@
	DD	01H
	DD	020H
	DD	00H
	DD	00H
	DD	FLAT:??_C@_0BJ@POFHNFDG@INT_TYPE_SELECTED_WEAPON@
	DD	01H
	DD	07H
	DD	00H
	DD	01H
	DD	FLAT:??_C@_0CG@BEDKFHGL@INT_TYPE_SELECTED_WEAPON_SYSTEM@
	DD	01H
	DD	01H
	DD	00H
	DD	00H
	DD	FLAT:??_C@_0BK@LCLJDIGI@INT_TYPE_SESSION_COMPLETE@
	DD	01H
	DD	02H
	DD	00H
	DD	00H
	DD	FLAT:??_C@_0O@OBAKKFNG@INT_TYPE_SIDE@
	DD	01H
	DD	02H
	DD	00H
	DD	00H
	DD	FLAT:??_C@_0BJ@NIOPFIIO@INT_TYPE_SKIP_NIGHT_TIME@
	DD	01H
	DD	01H
	DD	00H
	DD	00H
	DD	FLAT:??_C@_0BE@FEMGMFJN@INT_TYPE_SMOKE_TYPE@
	DD	01H
	DD	06H
	DD	00H
	DD	00H
	DD	FLAT:??_C@_0CA@MHGHPHBA@INT_TYPE_SOFT_DAMAGE_CAPABILITY@
	DD	01H
	DD	020H
	DD	00H
	DD	00H
	DD	FLAT:??_C@_0BD@FMOJPDJC@INT_TYPE_SOLO_TASK@
	DD	01H
	DD	020H
	DD	00H
	DD	00H
	DD	FLAT:??_C@_0BH@HAHMDHJI@INT_TYPE_SOUND_CHANNEL@
	DD	01H
	DD	04H
	DD	00H
	DD	00H
	DD	FLAT:??_C@_0BM@KOOIBMJM@INT_TYPE_SOUND_EFFECT_INDEX@
	DD	01H
	DD	010H
	DD	00H
	DD	00H
	DD	FLAT:??_C@_0BO@MIDMJDKC@INT_TYPE_SOUND_EFFECT_LOOPING@
	DD	01H
	DD	01H
	DD	00H
	DD	00H
	DD	FLAT:??_C@_0BO@KHJLDGNN@INT_TYPE_SOUND_EFFECT_PANNING@
	DD	01H
	DD	01H
	DD	00H
	DD	00H
	DD	FLAT:??_C@_0BL@PLDBKJL@INT_TYPE_SOUND_EFFECT_RATE@
	DD	00H
	DD	010H
	DD	00H
	DD	00H
	DD	FLAT:??_C@_0CF@GAAIIILL@INT_TYPE_SOUND_EFFECT_SEQUENCE_@
	DD	01H
	DD	04H
	DD	00H
	DD	00H
	DD	FLAT:??_C@_0BK@KPCEFEMC@INT_TYPE_SOUND_LIST_VALID@
	DD	01H
	DD	020H
	DD	00H
	DD	00H
	DD	FLAT:??_C@_0BI@EELPKHI@INT_TYPE_SOUND_LOCALITY@
	DD	01H
	DD	02H
	DD	00H
	DD	00H
	DD	FLAT:??_C@_0BJ@BJHLBOAO@INT_TYPE_SPEECH_CATEGORY@
	DD	01H
	DD	05H
	DD	00H
	DD	00H
	DD	FLAT:??_C@_0BG@CGNKNDKD@INT_TYPE_SPEECH_INDEX@
	DD	01H
	DD	08H
	DD	00H
	DD	00H
	DD	FLAT:??_C@_0BE@KBOPIFJL@INT_TYPE_START_NODE@
	DD	01H
	DD	020H
	DD	00H
	DD	00H
	DD	FLAT:??_C@_0BC@PGLKDAOO@INT_TYPE_STRATEGY@
	DD	00H
	DD	020H
	DD	00H
	DD	00H
	DD	FLAT:??_C@_0BI@LHAGPIME@INT_TYPE_STRATEGY_LEVEL@
	DD	00H
	DD	020H
	DD	00H
	DD	00H
	DD	FLAT:??_C@_0BK@KLEDDEGK@INT_TYPE_SUB_OBJECT_DEPTH@
	DD	01H
	DD	020H
	DD	00H
	DD	00H
	DD	FLAT:??_C@_0BJ@MDPIKGDI@INT_TYPE_SUB_OBJECT_TYPE@
	DD	01H
	DD	020H
	DD	00H
	DD	00H
	DD	FLAT:??_C@_0BM@JMGMKHEI@INT_TYPE_SUB_WAYPOINT_COUNT@
	DD	01H
	DD	0aH
	DD	00H
	DD	00H
	DD	FLAT:??_C@_0BK@KBKJDPDE@INT_TYPE_SUPPRESS_AI_FIRE@
	DD	01H
	DD	01H
	DD	00H
	DD	00H
	DD	FLAT:??_C@_0BJ@MHJGDBHA@INT_TYPE_TACVIEW_LOGGING@
	DD	00H
	DD	01H
	DD	00H
	DD	00H
	DD	FLAT:??_C@_0BM@FNJAOJAD@INT_TYPE_TAIL_ROTOR_DAMAGED@
	DD	01H
	DD	01H
	DD	00H
	DD	00H
	DD	FLAT:??_C@_0BG@ICLGGPJC@INT_TYPE_TAKEOFF_LOCK@
	DD	01H
	DD	020H
	DD	00H
	DD	00H
	DD	FLAT:??_C@_0BO@OKIFHMKG@INT_TYPE_TARGET_PRIORITY_TYPE@
	DD	01H
	DD	020H
	DD	00H
	DD	00H
	DD	FLAT:??_C@_0BM@BKFKGOCK@INT_TYPE_TARGET_SYMBOL_TYPE@
	DD	01H
	DD	020H
	DD	00H
	DD	00H
	DD	FLAT:??_C@_0BF@LOLHFOOB@INT_TYPE_TARGET_TYPE@
	DD	01H
	DD	020H
	DD	00H
	DD	00H
	DD	FLAT:??_C@_0BN@FDEIHKCG@INT_TYPE_TARGET_WEATHER_MODE@
	DD	01H
	DD	03H
	DD	00H
	DD	00H
	DD	FLAT:??_C@_0BH@GDNLGBE@INT_TYPE_TASK_CATEGORY@
	DD	01H
	DD	020H
	DD	00H
	DD	00H
	DD	FLAT:??_C@_0BI@DJMMJL@INT_TYPE_TASK_COMPLETED@
	DD	01H
	DD	03H
	DD	00H
	DD	00H
	DD	FLAT:??_C@_0BJ@MICPFPFI@INT_TYPE_TASK_DIFFICULTY@
	DD	01H
	DD	04H
	DD	00H
	DD	00H
	DD	FLAT:??_C@_0BJ@EJPJAEJG@INT_TYPE_TASK_GENERATION@
	DD	01H
	DD	020H
	DD	00H
	DD	00H
	DD	FLAT:??_C@_0BB@FKFIAAFH@INT_TYPE_TASK_ID@
	DD	01H
	DD	0cH
	DD	00H
	DD	00H
	DD	FLAT:??_C@_0BF@LJFLGKMB@INT_TYPE_TASK_LEADER@
	DD	01H
	DD	01H
	DD	00H
	DD	00H
	DD	FLAT:??_C@_0CF@HNLOGCJL@INT_TYPE_TASK_OBJECTIVE_PREVIEW@
	DD	01H
	DD	020H
	DD	00H
	DD	00H
	DD	FLAT:??_C@_0CG@NFLCCPFK@INT_TYPE_TASK_PASS_PERCENTAGE_P@
	DD	01H
	DD	020H
	DD	00H
	DD	00H
	DD	FLAT:??_C@_0CG@EKMIMMPA@INT_TYPE_TASK_PASS_PERCENTAGE_S@
	DD	01H
	DD	020H
	DD	00H
	DD	00H
	DD	FLAT:??_C@_0BL@NKKEKGAL@INT_TYPE_TASK_ROUTE_SEARCH@
	DD	01H
	DD	01H
	DD	00H
	DD	00H
	DD	FLAT:??_C@_0BE@DNGPBFLB@INT_TYPE_TASK_SCORE@
	DD	01H
	DD	010H
	DD	00H
	DD	00H
	DD	FLAT:??_C@_0BE@LPNFFKC@INT_TYPE_TASK_STATE@
	DD	01H
	DD	02H
	DD	00H
	DD	00H
	DD	FLAT:??_C@_0BL@DFGNEELF@INT_TYPE_TASK_TARGET_CLASS@
	DD	01H
	DD	02H
	DD	00H
	DD	00H
	DD	FLAT:??_C@_0BM@OGIAIKDA@INT_TYPE_TASK_TARGET_SOURCE@
	DD	01H
	DD	04H
	DD	00H
	DD	00H
	DD	FLAT:??_C@_0BK@JOPFNPMJ@INT_TYPE_TASK_TARGET_TYPE@
	DD	01H
	DD	020H
	DD	00H
	DD	00H
	DD	FLAT:??_C@_0BJ@IOHIIMIB@INT_TYPE_TASK_TERMINATED@
	DD	01H
	DD	04H
	DD	00H
	DD	00H
	DD	FLAT:??_C@_0BN@BLLJPHAP@INT_TYPE_TERRAIN_FOLLOW_MODE@
	DD	01H
	DD	020H
	DD	00H
	DD	00H
	DD	FLAT:??_C@_0BF@GPEGEGBI@INT_TYPE_THREAT_TYPE@
	DD	01H
	DD	020H
	DD	00H
	DD	00H
	DD	FLAT:??_C@_0P@IHNBDNKA@INT_TYPE_TIMER@
	DD	01H
	DD	020H
	DD	00H
	DD	00H
	DD	FLAT:??_C@_0BN@PJLONLEL@INT_TYPE_TOTAL_LANDING_SITES@
	DD	01H
	DD	020H
	DD	00H
	DD	00H
	DD	FLAT:??_C@_0BN@BJHKEEAB@INT_TYPE_TRACK_ENTITY_ON_MAP@
	DD	01H
	DD	020H
	DD	00H
	DD	00H
	DD	FLAT:??_C@_0BD@ODHJPJPA@INT_TYPE_UNIQUE_ID@
	DD	00H
	DD	020H
	DD	00H
	DD	00H
	DD	FLAT:??_C@_0BB@NNCDMDFE@INT_TYPE_UPDATED@
	DD	01H
	DD	020H
	DD	00H
	DD	00H
	DD	FLAT:??_C@_0P@FHFHPMLM@INT_TYPE_VALID@
	DD	01H
	DD	01H
	DD	00H
	DD	00H
	DD	FLAT:??_C@_0BN@IMLDJLL@INT_TYPE_VALID_GUIDE_MEMBERS@
	DD	01H
	DD	020H
	DD	00H
	DD	00H
	DD	FLAT:??_C@_0BM@GPOJGDAB@INT_TYPE_VALID_SOUND_EFFECT@
	DD	01H
	DD	01H
	DD	00H
	DD	00H
	DD	FLAT:??_C@_0P@FLHAJHOJ@INT_TYPE_VALUE@
	DD	00H
	DD	020H
	DD	00H
	DD	00H
	DD	FLAT:??_C@_0BH@FHCPAIJO@INT_TYPE_VEHICLE_GROUP@
	DD	01H
	DD	020H
	DD	00H
	DD	00H
	DD	FLAT:??_C@_0CD@GBNOANDF@INT_TYPE_VERBOSE_OPERATIONAL_ST@
	DD	01H
	DD	06H
	DD	00H
	DD	00H
	DD	FLAT:??_C@_0BI@FJKJDOBA@INT_TYPE_VERSION_NUMBER@
	DD	01H
	DD	010H
	DD	00H
	DD	00H
	DD	FLAT:??_C@_0BH@PKJJLPME@INT_TYPE_VIEW_CATEGORY@
	DD	01H
	DD	020H
	DD	00H
	DD	00H
	DD	FLAT:??_C@_0BD@ILMMGEHJ@INT_TYPE_VIEW_TYPE@
	DD	01H
	DD	020H
	DD	00H
	DD	00H
	DD	FLAT:??_C@_0BC@PDJAIAGK@INT_TYPE_VIEWABLE@
	DD	01H
	DD	020H
	DD	00H
	DD	00H
	DD	FLAT:??_C@_0BJ@PKOAOCIL@INT_TYPE_VIEWABLE_WEAPON@
	DD	01H
	DD	020H
	DD	00H
	DD	00H
	DD	FLAT:??_C@_0BG@BHOBIACF@INT_TYPE_VISIBLE_TASK@
	DD	01H
	DD	020H
	DD	00H
	DD	00H
	DD	FLAT:??_C@_0BL@PKLLCDAJ@INT_TYPE_WAIT_FOR_END_TASK@
	DD	01H
	DD	020H
	DD	00H
	DD	00H
	DD	FLAT:??_C@_0CB@CBIBNOPD@INT_TYPE_WARHEAD_EFFECTIVE_CLAS@
	DD	01H
	DD	020H
	DD	00H
	DD	00H
	DD	FLAT:??_C@_0BI@CIEPKDDP@INT_TYPE_WAYPOINT_COUNT@
	DD	01H
	DD	08H
	DD	00H
	DD	00H
	DD	FLAT:??_C@_0BM@IBIOGNNM@INT_TYPE_WAYPOINT_FORMATION@
	DD	01H
	DD	010H
	DD	00H
	DD	00H
	DD	FLAT:??_C@_0BN@KHAAKDGO@INT_TYPE_WAYPOINT_GUIDE_TYPE@
	DD	01H
	DD	020H
	DD	00H
	DD	00H
	DD	FLAT:??_C@_0BN@EHGAFEPK@INT_TYPE_WAYPOINT_NEXT_INDEX@
	DD	01H
	DD	0aH
	DD	00H
	DD	00H
	DD	FLAT:??_C@_0BN@EPLJBMCO@INT_TYPE_WAYPOINT_THIS_INDEX@
	DD	01H
	DD	0aH
	DD	00H
	DD	00H
	DD	FLAT:??_C@_0CJ@DECJLDLA@INT_TYPE_WEAPON_AND_TARGET_VECT@
	DD	01H
	DD	01H
	DD	00H
	DD	00H
	DD	FLAT:??_C@_0BL@FHKGNNGH@INT_TYPE_WEAPON_BURST_SIZE@
	DD	01H
	DD	0cH
	DD	00H
	DD	00H
	DD	FLAT:??_C@_0BO@PJKJDOBC@INT_TYPE_WEAPON_CAMERA_PRIMED@
	DD	01H
	DD	020H
	DD	00H
	DD	00H
	DD	FLAT:??_C@_0BM@GNDPEHA@INT_TYPE_WEAPON_CONFIG_TYPE@
	DD	01H
	DD	0aH
	DD	00H
	DD	00H
	DD	FLAT:??_C@_0BL@IGGLILAD@INT_TYPE_WEAPON_DECOY_TYPE@
	DD	01H
	DD	020H
	DD	00H
	DD	00H
	DD	FLAT:??_C@_0BO@KDICCLDC@INT_TYPE_WEAPON_GUIDANCE_TYPE@
	DD	01H
	DD	020H
	DD	00H
	DD	00H
	DD	FLAT:??_C@_0BK@JGACFNFA@INT_TYPE_WEAPON_KILL_CODE@
	DD	01H
	DD	03H
	DD	00H
	DD	00H
	DD	FLAT:??_C@_0BO@MFKHJBFH@INT_TYPE_WEAPON_MISSILE_PHASE@
	DD	01H
	DD	03H
	DD	00H
	DD	00H
	DD	FLAT:??_C@_0BK@FJPNAPGC@INT_TYPE_WEAPON_ON_GROUND@
	DD	01H
	DD	01H
	DD	00H
	DD	00H
	DD	FLAT:??_C@_0CA@LHELNGPN@INT_TYPE_WEAPON_PACKAGE_DAMAGED@
	DD	01H
	DD	01H
	DD	00H
	DD	00H
	DD	FLAT:??_C@_0CG@OGOAEOLM@INT_TYPE_WEAPON_PACKAGE_HEADING@
	DD	01H
	DD	05H
	DD	00H
	DD	00H
	DD	FLAT:??_C@_0BP@KPLOKDCC@INT_TYPE_WEAPON_PACKAGE_NUMBER@
	DD	01H
	DD	0cH
	DD	00H
	DD	00H
	DD	FLAT:??_C@_0CB@IPKKAGMM@INT_TYPE_WEAPON_SMOKE_TRAIL_TYP@
	DD	01H
	DD	020H
	DD	00H
	DD	00H
	DD	FLAT:??_C@_0BN@MHLLFOIF@INT_TYPE_WEAPON_SYSTEM_READY@
	DD	01H
	DD	01H
	DD	00H
	DD	00H
	DD	FLAT:??_C@_0BN@EKJHEIKB@INT_TYPE_WEAPON_WARHEAD_TYPE@
	DD	01H
	DD	020H
	DD	00H
	DD	00H
	DD	FLAT:??_C@_0BG@IABFHPOF@INT_TYPE_WEAPONS_HOLD@
	DD	01H
	DD	01H
	DD	00H
	DD	00H
	DD	FLAT:??_C@_0BM@KDOCPLMH@INT_TYPE_WEATHER_INCREASING@
	DD	01H
	DD	01H
	DD	00H
	DD	00H
	DD	FLAT:??_C@_0BG@MJGKEKDN@INT_TYPE_WEATHER_MODE@
	DD	01H
	DD	03H
	DD	00H
	DD	00H
	DD	FLAT:??_C@_0BJ@LEHOEFFL@INT_TYPE_WIND_INCREASING@
	DD	01H
	DD	01H
	DD	00H
	DD	00H
	DD	FLAT:??_C@_0BC@MDOBAINM@INT_TYPE_X_SECTOR@
	DD	00H
	DD	08H
	DD	00H
	DD	00H
	DD	FLAT:??_C@_0BC@ONBHCAFK@INT_TYPE_Z_SECTOR@
	DD	00H
	DD	08H
	DD	00H
	DD	00H
PUBLIC	?debug_check_pack_types@@YGXXZ			; debug_check_pack_types
PUBLIC	?initialise_entity_int_value_default_functions@@YGXXZ ; initialise_entity_int_value_default_functions
PUBLIC	?debug_log_pack_overflow@@YGXPBD0IHM@Z		; debug_log_pack_overflow
PUBLIC	?pack_int_type@@YGXW4INT_TYPES@@@Z		; pack_int_type
PUBLIC	?unpack_int_type@@YG?AW4INT_TYPES@@XZ		; unpack_int_type
PUBLIC	?pack_int_value@@YGXPAUENTITY@@W4INT_TYPES@@H@Z	; pack_int_value
PUBLIC	?unpack_int_value@@YGHPAUENTITY@@W4INT_TYPES@@@Z ; unpack_int_value
?debug_pack_file@@3PAU_iobuf@@A DD 01H DUP (?)		; debug_pack_file
_BSS	ENDS
END
