; Listing generated by Microsoft (R) Optimizing Compiler Version 19.16.27045.0 

	TITLE	c:\users\nhv90\projects\eech\aphavoc\source\entity\system\en_funcs\en_ptr.c
	.686P
	.XMM
	include listing.inc
	.model	flat

INCLUDELIB OLDNAMES

PUBLIC	?fn_set_local_entity_ptr_value@@3PAY0BE@P6GXPAUENTITY@@W4PTR_TYPES@@PAX@ZA ; fn_set_local_entity_ptr_value
PUBLIC	?fn_get_local_entity_ptr_value@@3PAY0BE@P6GPAXPAUENTITY@@W4PTR_TYPES@@@ZA ; fn_get_local_entity_ptr_value
PUBLIC	??_C@_0BO@BFAJPHMO@PTR_TYPE_EXTERNAL_VIEW_ENTITY@ ; `string'
PUBLIC	??_C@_0BG@MIELKIFK@PTR_TYPE_GROUP_LEADER@	; `string'
PUBLIC	??_C@_0BM@BDIDGFNE@PTR_TYPE_INSTANCE_3D_OBJECT@	; `string'
PUBLIC	??_C@_0BJ@MHIFNGLO@PTR_TYPE_POSITION_ENTITY@	; `string'
PUBLIC	??_C@_0BF@POKCGBEJ@PTR_TYPE_PROTOTYPE_1@	; `string'
PUBLIC	??_C@_0BF@NFIPDCIK@PTR_TYPE_PROTOTYPE_2@	; `string'
PUBLIC	??_C@_0BF@MMJEADML@PTR_TYPE_PROTOTYPE_3@	; `string'
PUBLIC	??_C@_0BF@IDNFJFAM@PTR_TYPE_PROTOTYPE_4@	; `string'
PUBLIC	??_C@_0BI@GKMOHNAJ@PTR_TYPE_RETURN_KEYSITE@	; `string'
PUBLIC	??_C@_0BK@OFJAFCNL@PTR_TYPE_ROUTE_DEPENDENTS@	; `string'
PUBLIC	??_C@_0BP@GPNBDICI@PTR_TYPE_ROUTE_FORMATION_TYPES@ ; `string'
PUBLIC	??_C@_0BE@DBJEHHOO@PTR_TYPE_ROUTE_NODE@		; `string'
PUBLIC	??_C@_0BO@DNEENCCK@PTR_TYPE_ROUTE_WAYPOINT_TYPES@ ; `string'
PUBLIC	??_C@_0O@BFBFKMC@PTR_TYPE_SUCC@			; `string'
PUBLIC	??_C@_0BL@PHOPIKCO@PTR_TYPE_SOUND_EFFECT_DATA@	; `string'
PUBLIC	??_C@_0BF@GCJIPCMN@PTR_TYPE_TASK_LEADER@	; `string'
PUBLIC	??_C@_0BI@GPFILEFI@PTR_TYPE_TASK_OBJECTIVE@	; `string'
PUBLIC	??_C@_0BN@OECNGFEO@PTR_TYPE_TERRAIN_FACE_NORMAL@ ; `string'
PUBLIC	??_C@_0BG@KIOCNDCC@PTR_TYPE_TERRAIN_INFO@	; `string'
PUBLIC	??_C@_0CF@MAIHDDIK@PTR_TYPE_WEAPON_PACKAGE_STATUS_@ ; `string'
PUBLIC	??_C@_0DJ@NFKLGNDK@Overloaded?5entity?5function?5invo@ ; `string'
PUBLIC	??_C@_0FF@LFHICJLA@Invalid?5ptr?5type?5?$CIentity?5type?5?$DN@ ; `string'
PUBLIC	?debug_fatal_invalid_ptr_type_message@@3PBDB	; debug_fatal_invalid_ptr_type_message
PUBLIC	?ptr_type_database@@3PAUPTR_TYPE_DATA@@A	; ptr_type_database
?fn_set_local_entity_ptr_value@@3PAY0BE@P6GXPAUENTITY@@W4PTR_TYPES@@PAX@ZA DD 02f8H DUP (?) ; fn_set_local_entity_ptr_value
?fn_get_local_entity_ptr_value@@3PAY0BE@P6GPAXPAUENTITY@@W4PTR_TYPES@@@ZA DD 02f8H DUP (?) ; fn_get_local_entity_ptr_value
_BSS	ENDS
;	COMDAT ??_C@_0FF@LFHICJLA@Invalid?5ptr?5type?5?$CIentity?5type?5?$DN@
CONST	SEGMENT
??_C@_0FF@LFHICJLA@Invalid?5ptr?5type?5?$CIentity?5type?5?$DN@ DB 'Invali'
	DB	'd ptr type (entity type = %s, index = %d, ptr type = %s, file'
	DB	' = %s, line = %d)', 00H			; `string'
CONST	ENDS
;	COMDAT ??_C@_0DJ@NFKLGNDK@Overloaded?5entity?5function?5invo@
CONST	SEGMENT
??_C@_0DJ@NFKLGNDK@Overloaded?5entity?5function?5invo@ DB 'Overloaded ent'
	DB	'ity function invoked with invalid ptr type', 00H ; `string'
CONST	ENDS
;	COMDAT ??_C@_0CF@MAIHDDIK@PTR_TYPE_WEAPON_PACKAGE_STATUS_@
CONST	SEGMENT
??_C@_0CF@MAIHDDIK@PTR_TYPE_WEAPON_PACKAGE_STATUS_@ DB 'PTR_TYPE_WEAPON_P'
	DB	'ACKAGE_STATUS_ARRAY', 00H			; `string'
CONST	ENDS
;	COMDAT ??_C@_0BG@KIOCNDCC@PTR_TYPE_TERRAIN_INFO@
CONST	SEGMENT
??_C@_0BG@KIOCNDCC@PTR_TYPE_TERRAIN_INFO@ DB 'PTR_TYPE_TERRAIN_INFO', 00H ; `string'
CONST	ENDS
;	COMDAT ??_C@_0BN@OECNGFEO@PTR_TYPE_TERRAIN_FACE_NORMAL@
CONST	SEGMENT
??_C@_0BN@OECNGFEO@PTR_TYPE_TERRAIN_FACE_NORMAL@ DB 'PTR_TYPE_TERRAIN_FAC'
	DB	'E_NORMAL', 00H				; `string'
CONST	ENDS
;	COMDAT ??_C@_0BI@GPFILEFI@PTR_TYPE_TASK_OBJECTIVE@
CONST	SEGMENT
??_C@_0BI@GPFILEFI@PTR_TYPE_TASK_OBJECTIVE@ DB 'PTR_TYPE_TASK_OBJECTIVE', 00H ; `string'
CONST	ENDS
;	COMDAT ??_C@_0BF@GCJIPCMN@PTR_TYPE_TASK_LEADER@
CONST	SEGMENT
??_C@_0BF@GCJIPCMN@PTR_TYPE_TASK_LEADER@ DB 'PTR_TYPE_TASK_LEADER', 00H ; `string'
CONST	ENDS
;	COMDAT ??_C@_0BL@PHOPIKCO@PTR_TYPE_SOUND_EFFECT_DATA@
CONST	SEGMENT
??_C@_0BL@PHOPIKCO@PTR_TYPE_SOUND_EFFECT_DATA@ DB 'PTR_TYPE_SOUND_EFFECT_'
	DB	'DATA', 00H					; `string'
CONST	ENDS
;	COMDAT ??_C@_0O@BFBFKMC@PTR_TYPE_SUCC@
CONST	SEGMENT
??_C@_0O@BFBFKMC@PTR_TYPE_SUCC@ DB 'PTR_TYPE_SUCC', 00H	; `string'
CONST	ENDS
;	COMDAT ??_C@_0BO@DNEENCCK@PTR_TYPE_ROUTE_WAYPOINT_TYPES@
CONST	SEGMENT
??_C@_0BO@DNEENCCK@PTR_TYPE_ROUTE_WAYPOINT_TYPES@ DB 'PTR_TYPE_ROUTE_WAYP'
	DB	'OINT_TYPES', 00H				; `string'
CONST	ENDS
;	COMDAT ??_C@_0BE@DBJEHHOO@PTR_TYPE_ROUTE_NODE@
CONST	SEGMENT
??_C@_0BE@DBJEHHOO@PTR_TYPE_ROUTE_NODE@ DB 'PTR_TYPE_ROUTE_NODE', 00H ; `string'
CONST	ENDS
;	COMDAT ??_C@_0BP@GPNBDICI@PTR_TYPE_ROUTE_FORMATION_TYPES@
CONST	SEGMENT
??_C@_0BP@GPNBDICI@PTR_TYPE_ROUTE_FORMATION_TYPES@ DB 'PTR_TYPE_ROUTE_FOR'
	DB	'MATION_TYPES', 00H				; `string'
CONST	ENDS
;	COMDAT ??_C@_0BK@OFJAFCNL@PTR_TYPE_ROUTE_DEPENDENTS@
CONST	SEGMENT
??_C@_0BK@OFJAFCNL@PTR_TYPE_ROUTE_DEPENDENTS@ DB 'PTR_TYPE_ROUTE_DEPENDEN'
	DB	'TS', 00H					; `string'
CONST	ENDS
;	COMDAT ??_C@_0BI@GKMOHNAJ@PTR_TYPE_RETURN_KEYSITE@
CONST	SEGMENT
??_C@_0BI@GKMOHNAJ@PTR_TYPE_RETURN_KEYSITE@ DB 'PTR_TYPE_RETURN_KEYSITE', 00H ; `string'
CONST	ENDS
;	COMDAT ??_C@_0BF@IDNFJFAM@PTR_TYPE_PROTOTYPE_4@
CONST	SEGMENT
??_C@_0BF@IDNFJFAM@PTR_TYPE_PROTOTYPE_4@ DB 'PTR_TYPE_PROTOTYPE_4', 00H ; `string'
CONST	ENDS
;	COMDAT ??_C@_0BF@MMJEADML@PTR_TYPE_PROTOTYPE_3@
CONST	SEGMENT
??_C@_0BF@MMJEADML@PTR_TYPE_PROTOTYPE_3@ DB 'PTR_TYPE_PROTOTYPE_3', 00H ; `string'
CONST	ENDS
;	COMDAT ??_C@_0BF@NFIPDCIK@PTR_TYPE_PROTOTYPE_2@
CONST	SEGMENT
??_C@_0BF@NFIPDCIK@PTR_TYPE_PROTOTYPE_2@ DB 'PTR_TYPE_PROTOTYPE_2', 00H ; `string'
CONST	ENDS
;	COMDAT ??_C@_0BF@POKCGBEJ@PTR_TYPE_PROTOTYPE_1@
CONST	SEGMENT
??_C@_0BF@POKCGBEJ@PTR_TYPE_PROTOTYPE_1@ DB 'PTR_TYPE_PROTOTYPE_1', 00H ; `string'
CONST	ENDS
;	COMDAT ??_C@_0BJ@MHIFNGLO@PTR_TYPE_POSITION_ENTITY@
CONST	SEGMENT
??_C@_0BJ@MHIFNGLO@PTR_TYPE_POSITION_ENTITY@ DB 'PTR_TYPE_POSITION_ENTITY'
	DB	00H						; `string'
CONST	ENDS
;	COMDAT ??_C@_0BM@BDIDGFNE@PTR_TYPE_INSTANCE_3D_OBJECT@
CONST	SEGMENT
??_C@_0BM@BDIDGFNE@PTR_TYPE_INSTANCE_3D_OBJECT@ DB 'PTR_TYPE_INSTANCE_3D_'
	DB	'OBJECT', 00H				; `string'
CONST	ENDS
;	COMDAT ??_C@_0BG@MIELKIFK@PTR_TYPE_GROUP_LEADER@
CONST	SEGMENT
??_C@_0BG@MIELKIFK@PTR_TYPE_GROUP_LEADER@ DB 'PTR_TYPE_GROUP_LEADER', 00H ; `string'
CONST	ENDS
;	COMDAT ??_C@_0BO@BFAJPHMO@PTR_TYPE_EXTERNAL_VIEW_ENTITY@
CONST	SEGMENT
??_C@_0BO@BFAJPHMO@PTR_TYPE_EXTERNAL_VIEW_ENTITY@ DB 'PTR_TYPE_EXTERNAL_V'
	DB	'IEW_ENTITY', 00H				; `string'
?debug_fatal_invalid_ptr_type_message@@3PBDB DD FLAT:??_C@_0FF@LFHICJLA@Invalid?5ptr?5type?5?$CIentity?5type?5?$DN@ ; debug_fatal_invalid_ptr_type_message
?ptr_type_database@@3PAUPTR_TYPE_DATA@@A DD FLAT:??_C@_0BO@BFAJPHMO@PTR_TYPE_EXTERNAL_VIEW_ENTITY@ ; ptr_type_database
	DD	FLAT:??_C@_0BG@MIELKIFK@PTR_TYPE_GROUP_LEADER@
	DD	FLAT:??_C@_0BM@BDIDGFNE@PTR_TYPE_INSTANCE_3D_OBJECT@
	DD	FLAT:??_C@_0BJ@MHIFNGLO@PTR_TYPE_POSITION_ENTITY@
	DD	FLAT:??_C@_0BF@POKCGBEJ@PTR_TYPE_PROTOTYPE_1@
	DD	FLAT:??_C@_0BF@NFIPDCIK@PTR_TYPE_PROTOTYPE_2@
	DD	FLAT:??_C@_0BF@MMJEADML@PTR_TYPE_PROTOTYPE_3@
	DD	FLAT:??_C@_0BF@IDNFJFAM@PTR_TYPE_PROTOTYPE_4@
	DD	FLAT:??_C@_0BI@GKMOHNAJ@PTR_TYPE_RETURN_KEYSITE@
	DD	FLAT:??_C@_0BK@OFJAFCNL@PTR_TYPE_ROUTE_DEPENDENTS@
	DD	FLAT:??_C@_0BP@GPNBDICI@PTR_TYPE_ROUTE_FORMATION_TYPES@
	DD	FLAT:??_C@_0BE@DBJEHHOO@PTR_TYPE_ROUTE_NODE@
	DD	FLAT:??_C@_0BO@DNEENCCK@PTR_TYPE_ROUTE_WAYPOINT_TYPES@
	DD	FLAT:??_C@_0O@BFBFKMC@PTR_TYPE_SUCC@
	DD	FLAT:??_C@_0BL@PHOPIKCO@PTR_TYPE_SOUND_EFFECT_DATA@
	DD	FLAT:??_C@_0BF@GCJIPCMN@PTR_TYPE_TASK_LEADER@
	DD	FLAT:??_C@_0BI@GPFILEFI@PTR_TYPE_TASK_OBJECTIVE@
	DD	FLAT:??_C@_0BN@OECNGFEO@PTR_TYPE_TERRAIN_FACE_NORMAL@
	DD	FLAT:??_C@_0BG@KIOCNDCC@PTR_TYPE_TERRAIN_INFO@
	DD	FLAT:??_C@_0CF@MAIHDDIK@PTR_TYPE_WEAPON_PACKAGE_STATUS_@
PUBLIC	?initialise_entity_ptr_value_default_functions@@YGXXZ ; initialise_entity_ptr_value_default_functions
END
