; Listing generated by Microsoft (R) Optimizing Compiler Version 19.16.27045.0 

	TITLE	c:\users\nhv90\projects\eech\aphavoc\source\entity\system\en_types\en_state.c
	.686P
	.XMM
	include listing.inc
	.model	flat

INCLUDELIB OLDNAMES

PUBLIC	?keysite_usable_state_names@@3PAPBDA		; keysite_usable_state_names
PUBLIC	??_C@_0BK@CPNMDNNC@OPERATIONAL_STATE_UNKNOWN@	; `string'
PUBLIC	??_C@_06DMEAMMGD@Asleep@			; `string'
PUBLIC	??_C@_04NANCPOOO@Dead@				; `string'
PUBLIC	??_C@_05ONDHFL@Dying@				; `string'
PUBLIC	??_C@_0BA@FMKCMOMF@Landing?9holding@		; `string'
PUBLIC	??_C@_0L@MNEOFJCD@Navigating@			; `string'
PUBLIC	??_C@_07HNJBHKDP@Stopped@			; `string'
PUBLIC	??_C@_0BA@CKJPPHGH@Takeoff?9holding@		; `string'
PUBLIC	??_C@_07DLPIKDKI@Taxiing@			; `string'
PUBLIC	??_C@_07OFINCGEG@Waiting@			; `string'
PUBLIC	??_C@_0BM@EOFKOJMB@NUM_OPERATIONAL_STATE_TYPES@	; `string'
PUBLIC	??_C@_0L@OBAIKEPJ@Air?5patrol@			; `string'
PUBLIC	??_C@_0BD@OOECBEI@Approaching?5target@		; `string'
PUBLIC	??_C@_0BF@LAEJEMJA@Approaching?5waypoint@	; `string'
PUBLIC	??_C@_0BL@LCIBBKE@Awaiting?5landing?5clearance@	; `string'
PUBLIC	??_C@_0BL@MIBMDBPK@Awaiting?5takeoff?5clearance@ ; `string'
PUBLIC	??_C@_0BA@FAHBJCML@Engaging?5target@		; `string'
PUBLIC	??_C@_08MNDEGFJK@En?5route@			; `string'
PUBLIC	??_C@_0BD@JEIBBIPK@En?5route?5to?5target@	; `string'
PUBLIC	??_C@_0M@KBKBBDCD@Manoeuvring@			; `string'
PUBLIC	??_C@_0BB@LCFKOAGN@Performing?5Recon@		; `string'
PUBLIC	??_C@_0BA@DFIJANGF@Performing?5Task@		; `string'
PUBLIC	??_C@_0BG@HDKCHCKK@Preparing?5for?5takeoff@	; `string'
PUBLIC	??_C@_08PJALNHNK@Rearming@			; `string'
PUBLIC	??_C@_09DFJEPEMB@Refueling@			; `string'
PUBLIC	??_C@_09LEMDJNCI@Repairing@			; `string'
PUBLIC	??_C@_0BB@KJOJLEEI@Returing?5to?5base@		; `string'
PUBLIC	??_C@_0BF@DIKHNING@Searching?5for?5target@	; `string'
PUBLIC	??_C@_08CGPIGOBK@Take?5off@			; `string'
PUBLIC	??_C@_0BP@IJNMBNEL@NUM_VERBOSE_OPERATIONAL_STATES@ ; `string'
PUBLIC	??_C@_0L@MAJLDPJE@Taking?5Off@			; `string'
PUBLIC	??_C@_09ILMACJJO@Attacking@			; `string'
PUBLIC	??_C@_09GPBJKDNE@Returning@			; `string'
PUBLIC	??_C@_0BN@MMCHEJPA@NUM_GROUP_MEMBER_STATE_TYPES@ ; `string'
PUBLIC	??_C@_0BC@OMPFNKJK@Fully?5Operational@		; `string'
PUBLIC	??_C@_0O@BIEJMOCK@Out?5Of?5Action@		; `string'
PUBLIC	??_C@_0BP@NAIJIBNA@NUM_KEYSITE_USABLE_STATE_TYPES@ ; `string'
PUBLIC	?group_member_state_names@@3PAPBDA		; group_member_state_names
PUBLIC	?operational_state_names@@3PAPBDA		; operational_state_names
;	COMDAT ??_C@_0BP@NAIJIBNA@NUM_KEYSITE_USABLE_STATE_TYPES@
CONST	SEGMENT
??_C@_0BP@NAIJIBNA@NUM_KEYSITE_USABLE_STATE_TYPES@ DB 'NUM_KEYSITE_USABLE'
	DB	'_STATE_TYPES', 00H				; `string'
CONST	ENDS
;	COMDAT ??_C@_0O@BIEJMOCK@Out?5Of?5Action@
CONST	SEGMENT
??_C@_0O@BIEJMOCK@Out?5Of?5Action@ DB 'Out Of Action', 00H ; `string'
CONST	ENDS
;	COMDAT ??_C@_0BC@OMPFNKJK@Fully?5Operational@
CONST	SEGMENT
??_C@_0BC@OMPFNKJK@Fully?5Operational@ DB 'Fully Operational', 00H ; `string'
CONST	ENDS
;	COMDAT ??_C@_0BN@MMCHEJPA@NUM_GROUP_MEMBER_STATE_TYPES@
CONST	SEGMENT
??_C@_0BN@MMCHEJPA@NUM_GROUP_MEMBER_STATE_TYPES@ DB 'NUM_GROUP_MEMBER_STA'
	DB	'TE_TYPES', 00H				; `string'
CONST	ENDS
;	COMDAT ??_C@_09GPBJKDNE@Returning@
CONST	SEGMENT
??_C@_09GPBJKDNE@Returning@ DB 'Returning', 00H		; `string'
CONST	ENDS
;	COMDAT ??_C@_09ILMACJJO@Attacking@
CONST	SEGMENT
??_C@_09ILMACJJO@Attacking@ DB 'Attacking', 00H		; `string'
CONST	ENDS
;	COMDAT ??_C@_0L@MAJLDPJE@Taking?5Off@
CONST	SEGMENT
??_C@_0L@MAJLDPJE@Taking?5Off@ DB 'Taking Off', 00H	; `string'
CONST	ENDS
;	COMDAT ??_C@_0BP@IJNMBNEL@NUM_VERBOSE_OPERATIONAL_STATES@
CONST	SEGMENT
??_C@_0BP@IJNMBNEL@NUM_VERBOSE_OPERATIONAL_STATES@ DB 'NUM_VERBOSE_OPERAT'
	DB	'IONAL_STATES', 00H				; `string'
CONST	ENDS
;	COMDAT ??_C@_08CGPIGOBK@Take?5off@
CONST	SEGMENT
??_C@_08CGPIGOBK@Take?5off@ DB 'Take off', 00H		; `string'
CONST	ENDS
;	COMDAT ??_C@_0BF@DIKHNING@Searching?5for?5target@
CONST	SEGMENT
??_C@_0BF@DIKHNING@Searching?5for?5target@ DB 'Searching for target', 00H ; `string'
CONST	ENDS
;	COMDAT ??_C@_0BB@KJOJLEEI@Returing?5to?5base@
CONST	SEGMENT
??_C@_0BB@KJOJLEEI@Returing?5to?5base@ DB 'Returing to base', 00H ; `string'
CONST	ENDS
;	COMDAT ??_C@_09LEMDJNCI@Repairing@
CONST	SEGMENT
??_C@_09LEMDJNCI@Repairing@ DB 'Repairing', 00H		; `string'
CONST	ENDS
;	COMDAT ??_C@_09DFJEPEMB@Refueling@
CONST	SEGMENT
??_C@_09DFJEPEMB@Refueling@ DB 'Refueling', 00H		; `string'
CONST	ENDS
;	COMDAT ??_C@_08PJALNHNK@Rearming@
CONST	SEGMENT
??_C@_08PJALNHNK@Rearming@ DB 'Rearming', 00H		; `string'
CONST	ENDS
;	COMDAT ??_C@_0BG@HDKCHCKK@Preparing?5for?5takeoff@
CONST	SEGMENT
??_C@_0BG@HDKCHCKK@Preparing?5for?5takeoff@ DB 'Preparing for takeoff', 00H ; `string'
CONST	ENDS
;	COMDAT ??_C@_0BA@DFIJANGF@Performing?5Task@
CONST	SEGMENT
??_C@_0BA@DFIJANGF@Performing?5Task@ DB 'Performing Task', 00H ; `string'
CONST	ENDS
;	COMDAT ??_C@_0BB@LCFKOAGN@Performing?5Recon@
CONST	SEGMENT
??_C@_0BB@LCFKOAGN@Performing?5Recon@ DB 'Performing Recon', 00H ; `string'
CONST	ENDS
;	COMDAT ??_C@_0M@KBKBBDCD@Manoeuvring@
CONST	SEGMENT
??_C@_0M@KBKBBDCD@Manoeuvring@ DB 'Manoeuvring', 00H	; `string'
CONST	ENDS
;	COMDAT ??_C@_0BD@JEIBBIPK@En?5route?5to?5target@
CONST	SEGMENT
??_C@_0BD@JEIBBIPK@En?5route?5to?5target@ DB 'En route to target', 00H ; `string'
CONST	ENDS
;	COMDAT ??_C@_08MNDEGFJK@En?5route@
CONST	SEGMENT
??_C@_08MNDEGFJK@En?5route@ DB 'En route', 00H		; `string'
CONST	ENDS
;	COMDAT ??_C@_0BA@FAHBJCML@Engaging?5target@
CONST	SEGMENT
??_C@_0BA@FAHBJCML@Engaging?5target@ DB 'Engaging target', 00H ; `string'
CONST	ENDS
;	COMDAT ??_C@_0BL@MIBMDBPK@Awaiting?5takeoff?5clearance@
CONST	SEGMENT
??_C@_0BL@MIBMDBPK@Awaiting?5takeoff?5clearance@ DB 'Awaiting takeoff cle'
	DB	'arance', 00H				; `string'
CONST	ENDS
;	COMDAT ??_C@_0BL@LCIBBKE@Awaiting?5landing?5clearance@
CONST	SEGMENT
??_C@_0BL@LCIBBKE@Awaiting?5landing?5clearance@ DB 'Awaiting landing clea'
	DB	'rance', 00H					; `string'
CONST	ENDS
;	COMDAT ??_C@_0BF@LAEJEMJA@Approaching?5waypoint@
CONST	SEGMENT
??_C@_0BF@LAEJEMJA@Approaching?5waypoint@ DB 'Approaching waypoint', 00H ; `string'
CONST	ENDS
;	COMDAT ??_C@_0BD@OOECBEI@Approaching?5target@
CONST	SEGMENT
??_C@_0BD@OOECBEI@Approaching?5target@ DB 'Approaching target', 00H ; `string'
CONST	ENDS
;	COMDAT ??_C@_0L@OBAIKEPJ@Air?5patrol@
CONST	SEGMENT
??_C@_0L@OBAIKEPJ@Air?5patrol@ DB 'Air patrol', 00H	; `string'
CONST	ENDS
;	COMDAT ??_C@_0BM@EOFKOJMB@NUM_OPERATIONAL_STATE_TYPES@
CONST	SEGMENT
??_C@_0BM@EOFKOJMB@NUM_OPERATIONAL_STATE_TYPES@ DB 'NUM_OPERATIONAL_STATE'
	DB	'_TYPES', 00H				; `string'
CONST	ENDS
;	COMDAT ??_C@_07OFINCGEG@Waiting@
CONST	SEGMENT
??_C@_07OFINCGEG@Waiting@ DB 'Waiting', 00H		; `string'
CONST	ENDS
;	COMDAT ??_C@_07DLPIKDKI@Taxiing@
CONST	SEGMENT
??_C@_07DLPIKDKI@Taxiing@ DB 'Taxiing', 00H		; `string'
CONST	ENDS
;	COMDAT ??_C@_0BA@CKJPPHGH@Takeoff?9holding@
CONST	SEGMENT
??_C@_0BA@CKJPPHGH@Takeoff?9holding@ DB 'Takeoff-holding', 00H ; `string'
CONST	ENDS
;	COMDAT ??_C@_07HNJBHKDP@Stopped@
CONST	SEGMENT
??_C@_07HNJBHKDP@Stopped@ DB 'Stopped', 00H		; `string'
CONST	ENDS
;	COMDAT ??_C@_0L@MNEOFJCD@Navigating@
CONST	SEGMENT
??_C@_0L@MNEOFJCD@Navigating@ DB 'Navigating', 00H	; `string'
CONST	ENDS
;	COMDAT ??_C@_0BA@FMKCMOMF@Landing?9holding@
CONST	SEGMENT
??_C@_0BA@FMKCMOMF@Landing?9holding@ DB 'Landing-holding', 00H ; `string'
CONST	ENDS
;	COMDAT ??_C@_05ONDHFL@Dying@
CONST	SEGMENT
??_C@_05ONDHFL@Dying@ DB 'Dying', 00H			; `string'
CONST	ENDS
;	COMDAT ??_C@_04NANCPOOO@Dead@
CONST	SEGMENT
??_C@_04NANCPOOO@Dead@ DB 'Dead', 00H			; `string'
CONST	ENDS
;	COMDAT ??_C@_06DMEAMMGD@Asleep@
CONST	SEGMENT
??_C@_06DMEAMMGD@Asleep@ DB 'Asleep', 00H		; `string'
CONST	ENDS
;	COMDAT ??_C@_0BK@CPNMDNNC@OPERATIONAL_STATE_UNKNOWN@
CONST	SEGMENT
??_C@_0BK@CPNMDNNC@OPERATIONAL_STATE_UNKNOWN@ DB 'OPERATIONAL_STATE_UNKNO'
	DB	'WN', 00H					; `string'
?keysite_usable_state_names@@3PAPBDA DD FLAT:??_C@_0BC@OMPFNKJK@Fully?5Operational@ ; keysite_usable_state_names
	DD	FLAT:??_C@_0O@BIEJMOCK@Out?5Of?5Action@
	DD	FLAT:??_C@_09LEMDJNCI@Repairing@
	DD	FLAT:??_C@_0BP@NAIJIBNA@NUM_KEYSITE_USABLE_STATE_TYPES@
?group_member_state_names@@3PAPBDA DD FLAT:??_C@_04IBDNPPCI@Idle@ ; group_member_state_names
	DD	FLAT:??_C@_07OFINCGEG@Waiting@
	DD	FLAT:??_C@_0L@MAJLDPJE@Taking?5Off@
	DD	FLAT:??_C@_0L@MNEOFJCD@Navigating@
	DD	FLAT:??_C@_09ILMACJJO@Attacking@
	DD	FLAT:??_C@_09GPBJKDNE@Returning@
	DD	FLAT:??_C@_07LJLJKMAB@Landing@
	DD	FLAT:??_C@_0BN@MMCHEJPA@NUM_GROUP_MEMBER_STATE_TYPES@
?operational_state_names@@3PAPBDA DD FLAT:??_C@_0BK@CPNMDNNC@OPERATIONAL_STATE_UNKNOWN@ ; operational_state_names
	DD	FLAT:??_C@_06DMEAMMGD@Asleep@
	DD	FLAT:??_C@_04NANCPOOO@Dead@
	DD	FLAT:??_C@_05ONDHFL@Dying@
	DD	FLAT:??_C@_06PPFLONGD@Landed@
	DD	FLAT:??_C@_07LJLJKMAB@Landing@
	DD	FLAT:??_C@_0BA@FMKCMOMF@Landing?9holding@
	DD	FLAT:??_C@_0L@MNEOFJCD@Navigating@
	DD	FLAT:??_C@_07HNJBHKDP@Stopped@
	DD	FLAT:??_C@_07EJCJABLJ@Takeoff@
	DD	FLAT:??_C@_0BA@CKJPPHGH@Takeoff?9holding@
	DD	FLAT:??_C@_07DLPIKDKI@Taxiing@
	DD	FLAT:??_C@_07OFINCGEG@Waiting@
	DD	FLAT:??_C@_0BM@EOFKOJMB@NUM_OPERATIONAL_STATE_TYPES@
END
