; Listing generated by Microsoft (R) Optimizing Compiler Version 19.16.27045.0 

	TITLE	c:\users\nhv90\projects\eech\aphavoc\source\entity\system\en_funcs\en_vec3d.c
	.686P
	.XMM
	include listing.inc
	.model	flat

INCLUDELIB OLDNAMES

PUBLIC	?fn_get_local_entity_vec3d@@3PAY0BI@P6GXPAUENTITY@@W4VEC3D_TYPES@@PAUVEC3D@@@ZA ; fn_get_local_entity_vec3d
PUBLIC	?fn_get_local_entity_vec3d_ptr@@3PAY0BI@P6GPAUVEC3D@@PAUENTITY@@W4VEC3D_TYPES@@@ZA ; fn_get_local_entity_vec3d_ptr
PUBLIC	?fn_set_client_server_entity_vec3d@@3PAY1BI@1P6GXPAUENTITY@@W4VEC3D_TYPES@@PAUVEC3D@@@ZA ; fn_set_client_server_entity_vec3d
PUBLIC	?fn_set_local_entity_vec3d@@3PAY0BI@P6GXPAUENTITY@@W4VEC3D_TYPES@@PAUVEC3D@@@ZA ; fn_set_local_entity_vec3d
PUBLIC	??_C@_0BM@PLCAJLAE@VEC3D_TYPE_BOUNDING_BOX_MAX@	; `string'
PUBLIC	??_C@_0BM@OJKLHPGL@VEC3D_TYPE_BOUNDING_BOX_MIN@	; `string'
PUBLIC	??_C@_0BK@MJEBONHM@VEC3D_TYPE_COVER_POSITION@	; `string'
PUBLIC	??_C@_0BN@DDDICIEF@VEC3D_TYPE_EO_TRACKING_POINT@ ; `string'
PUBLIC	??_C@_0BK@HIKHIACA@VEC3D_TYPE_GUIDE_POSITION@	; `string'
PUBLIC	??_C@_0BM@NIDMIKHM@VEC3D_TYPE_INITIAL_VELOCITY@	; `string'
PUBLIC	??_C@_0BJ@NHEALBGO@VEC3D_TYPE_MOTION_VECTOR@	; `string'
PUBLIC	??_C@_0BK@HNNLDDDF@VEC3D_TYPE_OBJECT_SCALING@	; `string'
PUBLIC	??_C@_0BE@CNHNPHNN@VEC3D_TYPE_POSITION@		; `string'
PUBLIC	??_C@_0BN@MKGOFPFI@VEC3D_TYPE_RELATIVE_POSITION@ ; `string'
PUBLIC	??_C@_0BK@PNOIBLAA@VEC3D_TYPE_START_POSITION@	; `string'
PUBLIC	??_C@_0BJ@NLPCNDG@VEC3D_TYPE_STOP_POSITION@	; `string'
PUBLIC	??_C@_0BJ@OCNPGBIG@VEC3D_TYPE_WAIT_POSITION@	; `string'
PUBLIC	??_C@_0CD@BFEJAMIA@VEC3D_TYPE_WEAPON_TO_TARGET_VEC@ ; `string'
PUBLIC	??_C@_0BJ@BIJKFBBN@VEC3D_TYPE_WEAPON_VECTOR@	; `string'
PUBLIC	??_C@_0BM@FLCOOIHH@VEC3D_TYPE_WEATHER_POSITION@	; `string'
PUBLIC	??_C@_0BM@DJALABJK@VEC3D_TYPE_WEATHER_VELOCITY@	; `string'
PUBLIC	??_C@_0CB@LNOCEDC@VEC3D_TYPE_WIND_DIRECTION_VECTO@ ; `string'
PUBLIC	??_C@_0CA@JOHGEHEB@VEC3D_TYPE_WIND_EFFECT_POSITION@ ; `string'
PUBLIC	??_C@_0CA@PMFDKOKM@VEC3D_TYPE_WIND_EFFECT_VELOCITY@ ; `string'
PUBLIC	??_C@_0O@HLHMFBHD@VEC3D_TYPE_XV@		; `string'
PUBLIC	??_C@_0BP@EHJGMKGN@VEC3D_TYPE_LAST_KNOWN_POSITION@ ; `string'
PUBLIC	??_C@_0DL@JAJHCKPM@Overloaded?5entity?5function?5invo@ ; `string'
PUBLIC	??_C@_0FJ@EKDGCKFI@Invalid?5vec3d?5type?5?$CIentity?5type@ ; `string'
PUBLIC	??_C@_0BN@GEKGHNNI@Invalid?5vec3d?5pack?5type?5?$DN?5?$CFd@ ; `string'
PUBLIC	?debug_fatal_invalid_vec3d_type_message@@3PBDB	; debug_fatal_invalid_vec3d_type_message
PUBLIC	?vec3d_type_database@@3PAUVEC3D_TYPE_DATA@@A	; vec3d_type_database
PUBLIC	?fn_set_local_entity_raw_vec3d@@3PAY0BI@P6GXPAUENTITY@@W4VEC3D_TYPES@@PAUVEC3D@@@ZA ; fn_set_local_entity_raw_vec3d
?fn_get_local_entity_vec3d@@3PAY0BI@P6GXPAUENTITY@@W4VEC3D_TYPES@@PAUVEC3D@@@ZA DD 0390H DUP (?) ; fn_get_local_entity_vec3d
?fn_get_local_entity_vec3d_ptr@@3PAY0BI@P6GPAUVEC3D@@PAUENTITY@@W4VEC3D_TYPES@@@ZA DD 0390H DUP (?) ; fn_get_local_entity_vec3d_ptr
?fn_set_client_server_entity_vec3d@@3PAY1BI@1P6GXPAUENTITY@@W4VEC3D_TYPES@@PAUVEC3D@@@ZA DD 0720H DUP (?) ; fn_set_client_server_entity_vec3d
?fn_set_local_entity_vec3d@@3PAY0BI@P6GXPAUENTITY@@W4VEC3D_TYPES@@PAUVEC3D@@@ZA DD 0390H DUP (?) ; fn_set_local_entity_vec3d
?fn_set_local_entity_raw_vec3d@@3PAY0BI@P6GXPAUENTITY@@W4VEC3D_TYPES@@PAUVEC3D@@@ZA DD 0390H DUP (?) ; fn_set_local_entity_raw_vec3d
_BSS	ENDS
;	COMDAT ??_C@_0BN@GEKGHNNI@Invalid?5vec3d?5pack?5type?5?$DN?5?$CFd@
CONST	SEGMENT
??_C@_0BN@GEKGHNNI@Invalid?5vec3d?5pack?5type?5?$DN?5?$CFd@ DB 'Invalid v'
	DB	'ec3d pack type = %d', 00H			; `string'
CONST	ENDS
;	COMDAT ??_C@_0FJ@EKDGCKFI@Invalid?5vec3d?5type?5?$CIentity?5type@
CONST	SEGMENT
??_C@_0FJ@EKDGCKFI@Invalid?5vec3d?5type?5?$CIentity?5type@ DB 'Invalid ve'
	DB	'c3d type (entity type = %s, index = %d, vec3d type = %s, file'
	DB	' = %s, line = %d)', 00H			; `string'
CONST	ENDS
;	COMDAT ??_C@_0DL@JAJHCKPM@Overloaded?5entity?5function?5invo@
CONST	SEGMENT
??_C@_0DL@JAJHCKPM@Overloaded?5entity?5function?5invo@ DB 'Overloaded ent'
	DB	'ity function invoked with invalid vec3d type', 00H ; `string'
CONST	ENDS
;	COMDAT ??_C@_0BP@EHJGMKGN@VEC3D_TYPE_LAST_KNOWN_POSITION@
CONST	SEGMENT
??_C@_0BP@EHJGMKGN@VEC3D_TYPE_LAST_KNOWN_POSITION@ DB 'VEC3D_TYPE_LAST_KN'
	DB	'OWN_POSITION', 00H				; `string'
CONST	ENDS
;	COMDAT ??_C@_0O@HLHMFBHD@VEC3D_TYPE_XV@
CONST	SEGMENT
??_C@_0O@HLHMFBHD@VEC3D_TYPE_XV@ DB 'VEC3D_TYPE_XV', 00H ; `string'
CONST	ENDS
;	COMDAT ??_C@_0CA@PMFDKOKM@VEC3D_TYPE_WIND_EFFECT_VELOCITY@
CONST	SEGMENT
??_C@_0CA@PMFDKOKM@VEC3D_TYPE_WIND_EFFECT_VELOCITY@ DB 'VEC3D_TYPE_WIND_E'
	DB	'FFECT_VELOCITY', 00H			; `string'
CONST	ENDS
;	COMDAT ??_C@_0CA@JOHGEHEB@VEC3D_TYPE_WIND_EFFECT_POSITION@
CONST	SEGMENT
??_C@_0CA@JOHGEHEB@VEC3D_TYPE_WIND_EFFECT_POSITION@ DB 'VEC3D_TYPE_WIND_E'
	DB	'FFECT_POSITION', 00H			; `string'
CONST	ENDS
;	COMDAT ??_C@_0CB@LNOCEDC@VEC3D_TYPE_WIND_DIRECTION_VECTO@
CONST	SEGMENT
??_C@_0CB@LNOCEDC@VEC3D_TYPE_WIND_DIRECTION_VECTO@ DB 'VEC3D_TYPE_WIND_DI'
	DB	'RECTION_VECTOR', 00H			; `string'
CONST	ENDS
;	COMDAT ??_C@_0BM@DJALABJK@VEC3D_TYPE_WEATHER_VELOCITY@
CONST	SEGMENT
??_C@_0BM@DJALABJK@VEC3D_TYPE_WEATHER_VELOCITY@ DB 'VEC3D_TYPE_WEATHER_VE'
	DB	'LOCITY', 00H				; `string'
CONST	ENDS
;	COMDAT ??_C@_0BM@FLCOOIHH@VEC3D_TYPE_WEATHER_POSITION@
CONST	SEGMENT
??_C@_0BM@FLCOOIHH@VEC3D_TYPE_WEATHER_POSITION@ DB 'VEC3D_TYPE_WEATHER_PO'
	DB	'SITION', 00H				; `string'
CONST	ENDS
;	COMDAT ??_C@_0BJ@BIJKFBBN@VEC3D_TYPE_WEAPON_VECTOR@
CONST	SEGMENT
??_C@_0BJ@BIJKFBBN@VEC3D_TYPE_WEAPON_VECTOR@ DB 'VEC3D_TYPE_WEAPON_VECTOR'
	DB	00H						; `string'
CONST	ENDS
;	COMDAT ??_C@_0CD@BFEJAMIA@VEC3D_TYPE_WEAPON_TO_TARGET_VEC@
CONST	SEGMENT
??_C@_0CD@BFEJAMIA@VEC3D_TYPE_WEAPON_TO_TARGET_VEC@ DB 'VEC3D_TYPE_WEAPON'
	DB	'_TO_TARGET_VECTOR', 00H			; `string'
CONST	ENDS
;	COMDAT ??_C@_0BJ@OCNPGBIG@VEC3D_TYPE_WAIT_POSITION@
CONST	SEGMENT
??_C@_0BJ@OCNPGBIG@VEC3D_TYPE_WAIT_POSITION@ DB 'VEC3D_TYPE_WAIT_POSITION'
	DB	00H						; `string'
CONST	ENDS
;	COMDAT ??_C@_0BJ@NLPCNDG@VEC3D_TYPE_STOP_POSITION@
CONST	SEGMENT
??_C@_0BJ@NLPCNDG@VEC3D_TYPE_STOP_POSITION@ DB 'VEC3D_TYPE_STOP_POSITION', 00H ; `string'
CONST	ENDS
;	COMDAT ??_C@_0BK@PNOIBLAA@VEC3D_TYPE_START_POSITION@
CONST	SEGMENT
??_C@_0BK@PNOIBLAA@VEC3D_TYPE_START_POSITION@ DB 'VEC3D_TYPE_START_POSITI'
	DB	'ON', 00H					; `string'
CONST	ENDS
;	COMDAT ??_C@_0BN@MKGOFPFI@VEC3D_TYPE_RELATIVE_POSITION@
CONST	SEGMENT
??_C@_0BN@MKGOFPFI@VEC3D_TYPE_RELATIVE_POSITION@ DB 'VEC3D_TYPE_RELATIVE_'
	DB	'POSITION', 00H				; `string'
CONST	ENDS
;	COMDAT ??_C@_0BE@CNHNPHNN@VEC3D_TYPE_POSITION@
CONST	SEGMENT
??_C@_0BE@CNHNPHNN@VEC3D_TYPE_POSITION@ DB 'VEC3D_TYPE_POSITION', 00H ; `string'
CONST	ENDS
;	COMDAT ??_C@_0BK@HNNLDDDF@VEC3D_TYPE_OBJECT_SCALING@
CONST	SEGMENT
??_C@_0BK@HNNLDDDF@VEC3D_TYPE_OBJECT_SCALING@ DB 'VEC3D_TYPE_OBJECT_SCALI'
	DB	'NG', 00H					; `string'
CONST	ENDS
;	COMDAT ??_C@_0BJ@NHEALBGO@VEC3D_TYPE_MOTION_VECTOR@
CONST	SEGMENT
??_C@_0BJ@NHEALBGO@VEC3D_TYPE_MOTION_VECTOR@ DB 'VEC3D_TYPE_MOTION_VECTOR'
	DB	00H						; `string'
CONST	ENDS
;	COMDAT ??_C@_0BM@NIDMIKHM@VEC3D_TYPE_INITIAL_VELOCITY@
CONST	SEGMENT
??_C@_0BM@NIDMIKHM@VEC3D_TYPE_INITIAL_VELOCITY@ DB 'VEC3D_TYPE_INITIAL_VE'
	DB	'LOCITY', 00H				; `string'
CONST	ENDS
;	COMDAT ??_C@_0BK@HIKHIACA@VEC3D_TYPE_GUIDE_POSITION@
CONST	SEGMENT
??_C@_0BK@HIKHIACA@VEC3D_TYPE_GUIDE_POSITION@ DB 'VEC3D_TYPE_GUIDE_POSITI'
	DB	'ON', 00H					; `string'
CONST	ENDS
;	COMDAT ??_C@_0BN@DDDICIEF@VEC3D_TYPE_EO_TRACKING_POINT@
CONST	SEGMENT
??_C@_0BN@DDDICIEF@VEC3D_TYPE_EO_TRACKING_POINT@ DB 'VEC3D_TYPE_EO_TRACKI'
	DB	'NG_POINT', 00H				; `string'
CONST	ENDS
;	COMDAT ??_C@_0BK@MJEBONHM@VEC3D_TYPE_COVER_POSITION@
CONST	SEGMENT
??_C@_0BK@MJEBONHM@VEC3D_TYPE_COVER_POSITION@ DB 'VEC3D_TYPE_COVER_POSITI'
	DB	'ON', 00H					; `string'
CONST	ENDS
;	COMDAT ??_C@_0BM@OJKLHPGL@VEC3D_TYPE_BOUNDING_BOX_MIN@
CONST	SEGMENT
??_C@_0BM@OJKLHPGL@VEC3D_TYPE_BOUNDING_BOX_MIN@ DB 'VEC3D_TYPE_BOUNDING_B'
	DB	'OX_MIN', 00H				; `string'
CONST	ENDS
;	COMDAT ??_C@_0BM@PLCAJLAE@VEC3D_TYPE_BOUNDING_BOX_MAX@
CONST	SEGMENT
??_C@_0BM@PLCAJLAE@VEC3D_TYPE_BOUNDING_BOX_MAX@ DB 'VEC3D_TYPE_BOUNDING_B'
	DB	'OX_MAX', 00H				; `string'
?debug_fatal_invalid_vec3d_type_message@@3PBDB DD FLAT:??_C@_0FJ@EKDGCKFI@Invalid?5vec3d?5type?5?$CIentity?5type@ ; debug_fatal_invalid_vec3d_type_message
?vec3d_type_database@@3PAUVEC3D_TYPE_DATA@@A DD FLAT:??_C@_0BM@PLCAJLAE@VEC3D_TYPE_BOUNDING_BOX_MAX@ ; vec3d_type_database
	DD	00H
	DD	00H
	DD	FLAT:??_C@_0BM@OJKLHPGL@VEC3D_TYPE_BOUNDING_BOX_MIN@
	DD	00H
	DD	00H
	DD	FLAT:??_C@_0BK@MJEBONHM@VEC3D_TYPE_COVER_POSITION@
	DD	02H
	DD	00H
	DD	FLAT:??_C@_0BN@DDDICIEF@VEC3D_TYPE_EO_TRACKING_POINT@
	DD	02H
	DD	00H
	DD	FLAT:??_C@_0BK@HIKHIACA@VEC3D_TYPE_GUIDE_POSITION@
	DD	00H
	DD	00H
	DD	FLAT:??_C@_0BM@NIDMIKHM@VEC3D_TYPE_INITIAL_VELOCITY@
	DD	04H
	DD	00H
	DD	FLAT:??_C@_0BJ@NHEALBGO@VEC3D_TYPE_MOTION_VECTOR@
	DD	05H
	DD	00H
	DD	FLAT:??_C@_0BK@HNNLDDDF@VEC3D_TYPE_OBJECT_SCALING@
	DD	00H
	DD	00H
	DD	FLAT:??_C@_0BE@CNHNPHNN@VEC3D_TYPE_POSITION@
	DD	02H
	DD	00H
	DD	FLAT:??_C@_0BN@MKGOFPFI@VEC3D_TYPE_RELATIVE_POSITION@
	DD	03H
	DD	00H
	DD	FLAT:??_C@_0BK@PNOIBLAA@VEC3D_TYPE_START_POSITION@
	DD	02H
	DD	00H
	DD	FLAT:??_C@_0BJ@NLPCNDG@VEC3D_TYPE_STOP_POSITION@
	DD	02H
	DD	00H
	DD	FLAT:??_C@_0BJ@OCNPGBIG@VEC3D_TYPE_WAIT_POSITION@
	DD	02H
	DD	00H
	DD	FLAT:??_C@_0CD@BFEJAMIA@VEC3D_TYPE_WEAPON_TO_TARGET_VEC@
	DD	01H
	DD	00H
	DD	FLAT:??_C@_0BJ@BIJKFBBN@VEC3D_TYPE_WEAPON_VECTOR@
	DD	01H
	DD	00H
	DD	FLAT:??_C@_0BM@FLCOOIHH@VEC3D_TYPE_WEATHER_POSITION@
	DD	02H
	DD	00H
	DD	FLAT:??_C@_0BM@DJALABJK@VEC3D_TYPE_WEATHER_VELOCITY@
	DD	05H
	DD	00H
	DD	FLAT:??_C@_0CB@LNOCEDC@VEC3D_TYPE_WIND_DIRECTION_VECTO@
	DD	01H
	DD	00H
	DD	FLAT:??_C@_0CA@JOHGEHEB@VEC3D_TYPE_WIND_EFFECT_POSITION@
	DD	02H
	DD	00H
	DD	FLAT:??_C@_0CA@PMFDKOKM@VEC3D_TYPE_WIND_EFFECT_VELOCITY@
	DD	05H
	DD	00H
	DD	FLAT:??_C@_0O@HLHMFBHD@VEC3D_TYPE_XV@
	DD	00H
	DD	00H
	DD	FLAT:??_C@_0BP@EHJGMKGN@VEC3D_TYPE_LAST_KNOWN_POSITION@
	DD	00H
	DD	00H
	ORG $+24
PUBLIC	?initialise_entity_vec3d_default_functions@@YGXXZ ; initialise_entity_vec3d_default_functions
PUBLIC	?pack_vec3d_type@@YGXW4VEC3D_TYPES@@@Z		; pack_vec3d_type
PUBLIC	?unpack_vec3d_type@@YG?AW4VEC3D_TYPES@@XZ	; unpack_vec3d_type
PUBLIC	?pack_vec3d@@YGXPAUENTITY@@W4VEC3D_TYPES@@PAUVEC3D@@@Z ; pack_vec3d
PUBLIC	?unpack_vec3d@@YGXPAUENTITY@@W4VEC3D_TYPES@@PAUVEC3D@@@Z ; unpack_vec3d
PUBLIC	?get_local_entity_vec3d_magnitude@@YGMPAUENTITY@@W4VEC3D_TYPES@@@Z ; get_local_entity_vec3d_magnitude
END
