; Listing generated by Microsoft (R) Optimizing Compiler Version 19.16.27045.0 

	TITLE	c:\users\nhv90\projects\eech\modules\system\event.c
	.686P
	.XMM
	include listing.inc
	.model	flat

INCLUDELIB OLDNAMES

PUBLIC	?button_state_names@@3PAPBDA			; button_state_names
PUBLIC	?modifier_type_names@@3PAPBDA			; modifier_type_names
PUBLIC	??_C@_08CFJHCGDA@STATE_UP@			; `string'
PUBLIC	??_C@_0O@KNPKLENJ@STATE_INVALID@		; `string'
PUBLIC	??_C@_0N@JHAHKMNA@STATE_EITHER@			; `string'
PUBLIC	??_C@_0L@FPLIDFNM@STATE_DOWN@			; `string'
PUBLIC	??_C@_0BE@HAHJJNNA@MODIFIER_LEFT_SHIFT@		; `string'
PUBLIC	??_C@_0O@MGFOBHKO@MODIFIER_NONE@		; `string'
PUBLIC	??_C@_0BC@JIANOMDN@MODIFIER_LEFT_ALT@		; `string'
PUBLIC	??_C@_0BG@LDNODEEI@MODIFIER_LEFT_CONTROL@	; `string'
PUBLIC	??_C@_0BH@OCFGGMME@MODIFIER_RIGHT_CONTROL@	; `string'
PUBLIC	??_C@_0BF@JLALIPOF@MODIFIER_RIGHT_SHIFT@	; `string'
PUBLIC	??_C@_0BL@KEGEHLHG@MODIFIER_MOUSE_LEFT_BUTTON@	; `string'
PUBLIC	??_C@_0BD@GAOIJOPD@MODIFIER_RIGHT_ALT@		; `string'
PUBLIC	??_C@_0BD@PACEKJAN@NUM_MODIFIER_TYPES@		; `string'
PUBLIC	??_C@_0BM@OKNLPKNP@MODIFIER_MOUSE_RIGHT_BUTTON@	; `string'
PUBLIC	??_C@_0DB@FKKAHHAC@EVENT?3?5Error?5in?5process_events?0@ ; `string'
PUBLIC	?registered_events@@3PAY08UREGISTERED_EVENT_TYPE@@A ; registered_events
PUBLIC	?current_modifier_states@@3HA			; current_modifier_states
EXTRN	__imp__ReleaseMutex@4:PROC
EXTRN	__imp__WaitForSingleObject@8:PROC
EXTRN	__imp__CreateMutexA@12:PROC
?registered_events@@3PAY08UREGISTERED_EVENT_TYPE@@A DQ 0a8cH DUP (?) ; registered_events
?current_modifier_states@@3HA DD 01H DUP (?)		; current_modifier_states
_BSS	ENDS
;	COMDAT ??_C@_0DB@FKKAHHAC@EVENT?3?5Error?5in?5process_events?0@
CONST	SEGMENT
??_C@_0DB@FKKAHHAC@EVENT?3?5Error?5in?5process_events?0@ DB 'EVENT: Error'
	DB	' in process_events, unknown event %d', 00H	; `string'
CONST	ENDS
;	COMDAT ??_C@_0BM@OKNLPKNP@MODIFIER_MOUSE_RIGHT_BUTTON@
CONST	SEGMENT
??_C@_0BM@OKNLPKNP@MODIFIER_MOUSE_RIGHT_BUTTON@ DB 'MODIFIER_MOUSE_RIGHT_'
	DB	'BUTTON', 00H				; `string'
CONST	ENDS
;	COMDAT ??_C@_0BD@PACEKJAN@NUM_MODIFIER_TYPES@
CONST	SEGMENT
??_C@_0BD@PACEKJAN@NUM_MODIFIER_TYPES@ DB 'NUM_MODIFIER_TYPES', 00H ; `string'
CONST	ENDS
;	COMDAT ??_C@_0BD@GAOIJOPD@MODIFIER_RIGHT_ALT@
CONST	SEGMENT
??_C@_0BD@GAOIJOPD@MODIFIER_RIGHT_ALT@ DB 'MODIFIER_RIGHT_ALT', 00H ; `string'
CONST	ENDS
;	COMDAT ??_C@_0BL@KEGEHLHG@MODIFIER_MOUSE_LEFT_BUTTON@
CONST	SEGMENT
??_C@_0BL@KEGEHLHG@MODIFIER_MOUSE_LEFT_BUTTON@ DB 'MODIFIER_MOUSE_LEFT_BU'
	DB	'TTON', 00H					; `string'
CONST	ENDS
;	COMDAT ??_C@_0BF@JLALIPOF@MODIFIER_RIGHT_SHIFT@
CONST	SEGMENT
??_C@_0BF@JLALIPOF@MODIFIER_RIGHT_SHIFT@ DB 'MODIFIER_RIGHT_SHIFT', 00H ; `string'
CONST	ENDS
;	COMDAT ??_C@_0BH@OCFGGMME@MODIFIER_RIGHT_CONTROL@
CONST	SEGMENT
??_C@_0BH@OCFGGMME@MODIFIER_RIGHT_CONTROL@ DB 'MODIFIER_RIGHT_CONTROL', 00H ; `string'
CONST	ENDS
;	COMDAT ??_C@_0BG@LDNODEEI@MODIFIER_LEFT_CONTROL@
CONST	SEGMENT
??_C@_0BG@LDNODEEI@MODIFIER_LEFT_CONTROL@ DB 'MODIFIER_LEFT_CONTROL', 00H ; `string'
CONST	ENDS
;	COMDAT ??_C@_0BC@JIANOMDN@MODIFIER_LEFT_ALT@
CONST	SEGMENT
??_C@_0BC@JIANOMDN@MODIFIER_LEFT_ALT@ DB 'MODIFIER_LEFT_ALT', 00H ; `string'
CONST	ENDS
;	COMDAT ??_C@_0O@MGFOBHKO@MODIFIER_NONE@
CONST	SEGMENT
??_C@_0O@MGFOBHKO@MODIFIER_NONE@ DB 'MODIFIER_NONE', 00H ; `string'
CONST	ENDS
;	COMDAT ??_C@_0BE@HAHJJNNA@MODIFIER_LEFT_SHIFT@
CONST	SEGMENT
??_C@_0BE@HAHJJNNA@MODIFIER_LEFT_SHIFT@ DB 'MODIFIER_LEFT_SHIFT', 00H ; `string'
CONST	ENDS
;	COMDAT ??_C@_0L@FPLIDFNM@STATE_DOWN@
CONST	SEGMENT
??_C@_0L@FPLIDFNM@STATE_DOWN@ DB 'STATE_DOWN', 00H	; `string'
CONST	ENDS
;	COMDAT ??_C@_0N@JHAHKMNA@STATE_EITHER@
CONST	SEGMENT
??_C@_0N@JHAHKMNA@STATE_EITHER@ DB 'STATE_EITHER', 00H	; `string'
CONST	ENDS
;	COMDAT ??_C@_0O@KNPKLENJ@STATE_INVALID@
CONST	SEGMENT
??_C@_0O@KNPKLENJ@STATE_INVALID@ DB 'STATE_INVALID', 00H ; `string'
CONST	ENDS
;	COMDAT ??_C@_08CFJHCGDA@STATE_UP@
CONST	SEGMENT
??_C@_08CFJHCGDA@STATE_UP@ DB 'STATE_UP', 00H		; `string'
?button_state_names@@3PAPBDA DD FLAT:??_C@_0O@KNPKLENJ@STATE_INVALID@ ; button_state_names
	DD	FLAT:??_C@_08CFJHCGDA@STATE_UP@
	DD	FLAT:??_C@_0L@FPLIDFNM@STATE_DOWN@
	DD	FLAT:??_C@_0N@JHAHKMNA@STATE_EITHER@
?modifier_type_names@@3PAPBDA DD FLAT:??_C@_0O@MGFOBHKO@MODIFIER_NONE@ ; modifier_type_names
	DD	FLAT:??_C@_0BE@HAHJJNNA@MODIFIER_LEFT_SHIFT@
	DD	FLAT:??_C@_0BG@LDNODEEI@MODIFIER_LEFT_CONTROL@
	DD	FLAT:??_C@_0BC@JIANOMDN@MODIFIER_LEFT_ALT@
	DD	FLAT:??_C@_0BF@JLALIPOF@MODIFIER_RIGHT_SHIFT@
	DD	FLAT:??_C@_0BH@OCFGGMME@MODIFIER_RIGHT_CONTROL@
	DD	FLAT:??_C@_0BD@GAOIJOPD@MODIFIER_RIGHT_ALT@
	DD	FLAT:??_C@_0BL@KEGEHLHG@MODIFIER_MOUSE_LEFT_BUTTON@
	DD	FLAT:??_C@_0BM@OKNLPKNP@MODIFIER_MOUSE_RIGHT_BUTTON@
	DD	FLAT:??_C@_0BD@PACEKJAN@NUM_MODIFIER_TYPES@
PUBLIC	?get_event@@YGHPAUEVENT@@@Z			; get_event
PUBLIC	?create_mouse_move_event@@YGXHHH@Z		; create_mouse_move_event
PUBLIC	?create_mouse_button_event@@YGXW4DEVICE_EVENTS@@W4BUTTON_STATES@@@Z ; create_mouse_button_event
PUBLIC	?create_key_event@@YGXHW4KEY_STATES@@@Z		; create_key_event
PUBLIC	?create_joystick_event@@YGXHHW4BUTTON_STATES@@@Z ; create_joystick_event
PUBLIC	?reset_event_key@@YGXH@Z			; reset_event_key
PUBLIC	?reset_events@@YGXXZ				; reset_events
PUBLIC	?clear_events@@YGXXZ				; clear_events
PUBLIC	?initialise_event_system@@YGHXZ			; initialise_event_system
PUBLIC	?process_events@@YGXXZ				; process_events
PUBLIC	?set_event@@YGXHHHP6GXPAUEVENT@@@Z@Z		; set_event
?event_output@@3HA DD 01H DUP (?)			; event_output
?mutex@@3PAXA DD 01H DUP (?)				; mutex
?event_list@@3PAUEVENT@@A DB 01400H DUP (?)		; event_list
?event_input@@3HA DD 01H DUP (?)			; event_input
?event_list_size@@3HA DD 01H DUP (?)			; event_list_size
_BSS	ENDS
END
