; Listing generated by Microsoft (R) Optimizing Compiler Version 19.16.27045.0 

	TITLE	c:\users\nhv90\projects\eech\aphavoc\source\ai\faction\faction.c
	.686P
	.XMM
	include listing.inc
	.model	flat

INCLUDELIB OLDNAMES

PUBLIC	??_C@_08EFGGCJLD@?$CFs?2?$CFs?2?$CFs@		; `string'
PUBLIC	??_C@_0EB@JEOGKGCM@c?3?2users?2nhv90?2projects?2eech?2ap@ ; `string'
PUBLIC	??_C@_0CJ@DMBLBJBK@get_comms_model?5?$CI?$CJ?5?$DN?$DN?5COMMS_MOD@ ; `string'
PUBLIC	??_C@_0BC@PODNONFH@ASSERT?5?$CFs?5?$CI?$CFs?3?$CFd?$CJ@ ; `string'
PUBLIC	??_C@_0EJ@HDHAFCHD@FACTION?3?5Placing?5too?5many?5aircr@ ; `string'
PUBLIC	??_C@_0CN@HPLJIAFL@FACTION?5?3?5Invalid?5mobile?5create@ ; `string'
PUBLIC	?frontline_forces_data@@3PAUFRONTLINE_FORCES_PLACEMENT_DATA@@A ; frontline_forces_data
EXTRN	__imp____std_terminate:PROC
EXTRN	__imp____CxxFrameHandler3:PROC
?frontline_forces_data@@3PAUFRONTLINE_FORCES_PLACEMENT_DATA@@A DD 01H DUP (?) ; frontline_forces_data
_BSS	ENDS
;	COMDAT ??_C@_0CN@HPLJIAFL@FACTION?5?3?5Invalid?5mobile?5create@
CONST	SEGMENT
??_C@_0CN@HPLJIAFL@FACTION?5?3?5Invalid?5mobile?5create@ DB 'FACTION : In'
	DB	'valid mobile created ( type %s )', 00H	; `string'
CONST	ENDS
;	COMDAT ??_C@_0EJ@HDHAFCHD@FACTION?3?5Placing?5too?5many?5aircr@
CONST	SEGMENT
??_C@_0EJ@HDHAFCHD@FACTION?3?5Placing?5too?5many?5aircr@ DB 'FACTION: Pla'
	DB	'cing too many aircraft (group %s, (%d)) at %s (%d) - posn %d', 00H ; `string'
CONST	ENDS
;	COMDAT ??_C@_0BC@PODNONFH@ASSERT?5?$CFs?5?$CI?$CFs?3?$CFd?$CJ@
CONST	SEGMENT
??_C@_0BC@PODNONFH@ASSERT?5?$CFs?5?$CI?$CFs?3?$CFd?$CJ@ DB 'ASSERT %s (%s'
	DB	':%d)', 00H					; `string'
CONST	ENDS
;	COMDAT ??_C@_0CJ@DMBLBJBK@get_comms_model?5?$CI?$CJ?5?$DN?$DN?5COMMS_MOD@
CONST	SEGMENT
??_C@_0CJ@DMBLBJBK@get_comms_model?5?$CI?$CJ?5?$DN?$DN?5COMMS_MOD@ DB 'ge'
	DB	't_comms_model () == COMMS_MODEL_SERVER', 00H ; `string'
CONST	ENDS
;	COMDAT ??_C@_0EB@JEOGKGCM@c?3?2users?2nhv90?2projects?2eech?2ap@
CONST	SEGMENT
??_C@_0EB@JEOGKGCM@c?3?2users?2nhv90?2projects?2eech?2ap@ DB 'c:\users\nh'
	DB	'v90\projects\eech\aphavoc\source\ai\faction\faction.c', 00H ; `string'
CONST	ENDS
;	COMDAT ??_C@_08EFGGCJLD@?$CFs?2?$CFs?2?$CFs@
CONST	SEGMENT
??_C@_08EFGGCJLD@?$CFs?2?$CFs?2?$CFs@ DB '%s\%s\%s', 00H ; `string'
PUBLIC	?asin@@YGMM@Z					; asin
PUBLIC	_asinf
PUBLIC	?atan2@@YGMMM@Z					; atan2
PUBLIC	_atan2f
PUBLIC	??$min@H@std@@YGABHABH0@Z			; std::min<int>
PUBLIC	??$max@M@std@@YGABMABM0@Z			; std::max<float>
PUBLIC	??$min@M@std@@YGABMABM0@Z			; std::min<float>
PUBLIC	?place_frontline_forces@@YGXPAUENTITY@@H@Z	; place_frontline_forces
PUBLIC	?create_faction_members@@YGPAUENTITY@@PAU1@HW4FORMATION_COMPONENT_TYPES@@HW4ENTITY_SIDES@@PAUVEC3D@@HH@Z ; create_faction_members
PUBLIC	?create_landing_faction_members@@YGPAUENTITY@@PAU1@HHH0PAUVEC3D@@@Z ; create_landing_faction_members
PUBLIC	?create_landed_faction_group@@YGPAUENTITY@@PAU1@HW4FORMATION_COMPONENT_TYPES@@@Z ; create_landed_faction_group
PUBLIC	?create_landed_faction_members@@YGPAUENTITY@@PAU1@HHH@Z ; create_landed_faction_members
PUBLIC	?create_faction@@YGXW4ENTITY_SIDES@@H@Z		; create_faction
PUBLIC	?destroy_campaign@@YGXXZ			; destroy_campaign
PUBLIC	?create_campaign@@YGXPAUSESSION_LIST_DATA_TYPE@@@Z ; create_campaign
END
