; Listing generated by Microsoft (R) Optimizing Compiler Version 19.16.27045.0 

	TITLE	c:\users\nhv90\projects\eech\aphavoc\source\entity\special\force\fc_pack.c
	.686P
	.XMM
	include listing.inc
	.model	flat

INCLUDELIB OLDNAMES

PUBLIC	??_C@_0EL@OEOBAGCF@c?3?2users?2nhv90?2projects?2eech?2ap@ ; `string'
PUBLIC	??_C@_0DD@BCDABIBG@get_free_entity?5?$CIget_local_enti@ ; `string'
;	COMDAT ??_C@_0DD@BCDABIBG@get_free_entity?5?$CIget_local_enti@
CONST	SEGMENT
??_C@_0DD@BCDABIBG@get_free_entity?5?$CIget_local_enti@ DB 'get_free_enti'
	DB	'ty (get_local_entity_safe_index (en))', 00H	; `string'
CONST	ENDS
;	COMDAT ??_C@_0EL@OEOBAGCF@c?3?2users?2nhv90?2projects?2eech?2ap@
CONST	SEGMENT
??_C@_0EL@OEOBAGCF@c?3?2users?2nhv90?2projects?2eech?2ap@ DB 'c:\users\nh'
	DB	'v90\projects\eech\aphavoc\source\entity\special\force\fc_pack'
	DB	'.c', 00H					; `string'
PUBLIC	?unpack_local_force_data@@YGXPAUENTITY@@W4PACK_MODES@@@Z ; unpack_local_force_data
PUBLIC	?pack_local_force_data@@YGXPAUENTITY@@W4PACK_MODES@@@Z ; pack_local_force_data
PUBLIC	?overload_force_pack_functions@@YGXXZ		; overload_force_pack_functions
END
