; Listing generated by Microsoft (R) Optimizing Compiler Version 19.16.27045.0 

	TITLE	c:\users\nhv90\projects\eech\modules\misc\file_tag.c
	.686P
	.XMM
	include listing.inc
	.model	flat

INCLUDELIB OLDNAMES

PUBLIC	??_C@_06ONCDKIFA@UNUSED@			; `string'
PUBLIC	??_C@_09KPJDKKFA@CALCULATE@			; `string'
PUBLIC	??_C@_08LEMDHBFI@BIND_KEY@			; `string'
PUBLIC	??_C@_0N@INGKCNDE@CREATE_EVENT@			; `string'
PUBLIC	??_C@_04CAGKGBIO@CALL@				; `string'
PUBLIC	??_C@_0BA@JPPDAMLG@CREATE_VARIABLE@		; `string'
PUBLIC	??_C@_0P@HMAJBNMI@CREATE_TRIGGER@		; `string'
PUBLIC	??_C@_04JLPIBDPH@ELSE@				; `string'
PUBLIC	??_C@_0N@DDHEIJBI@ECHO_MESSAGE@			; `string'
PUBLIC	??_C@_09OKCDOHJA@END_EVENT@			; `string'
PUBLIC	??_C@_03JMGAKCCH@END@				; `string'
PUBLIC	??_C@_05KOOCGPHN@EVENT@				; `string'
PUBLIC	??_C@_05DLHFLCAN@ENDIF@				; `string'
PUBLIC	??_C@_05GGMHDFKJ@FLOAT@				; `string'
PUBLIC	??_C@_08GPLFLAGL@FILENAME@			; `string'
PUBLIC	??_C@_03JMHEAPMO@INT@				; `string'
PUBLIC	??_C@_02NJNGHICB@IF@				; `string'
PUBLIC	??_C@_0N@MBODJNIN@KEY_MODIFIER@			; `string'
PUBLIC	??_C@_08EJGAFIOK@KEY_CODE@			; `string'
PUBLIC	??_C@_03KHPPBABN@LET@				; `string'
PUBLIC	??_C@_09PDEEENAD@KEY_STATE@			; `string'
PUBLIC	??_C@_0N@LEBBCGFP@SET_VARIABLE@			; `string'
PUBLIC	??_C@_04HBHDLLBA@PATH@				; `string'
PUBLIC	??_C@_05MHMCHENB@VALUE@				; `string'
PUBLIC	??_C@_04KDPJLEDB@TYPE@				; `string'
PUBLIC	??_C@_05CFKHKNMI@WHILE@				; `string'
PUBLIC	??_C@_08MBJEJMEP@VARIABLE@			; `string'
PUBLIC	??_C@_06OAGNEJGA@?$CF?402f?5@			; `string'
PUBLIC	??_C@_05FAOIHALK@?6?3?$CFs?5@			; `string'
PUBLIC	??_C@_03IKGEINEE@?$CFs?5@			; `string'
PUBLIC	??_C@_04NMPCIDEG@?$CFs?$AA?5@			; `string'
PUBLIC	??_C@_0BK@FEMOLBP@FILE_TAG?3?5tag?5too?5long?5?$CFs@ ; `string'
PUBLIC	??_C@_05GOPCNELJ@?6?1?1?$CFs@			; `string'
PUBLIC	??_C@_0CA@DJAFFCDM@FILE_TAG?3?5get?5next?5int?5too?5long@ ; `string'
PUBLIC	??_C@_0BN@PFLFCENI@FILE_TAG?3?5check?5tag?5too?5long@ ; `string'
PUBLIC	??_C@_0BO@CMOENNCH@FILE_TAG?3?5unrecognised?5tag?5?$CFs@ ; `string'
PUBLIC	??_C@_0CB@NBIBODM@FILE_TAG?3?5get?5next?5enum?5too?5lon@ ; `string'
PUBLIC	??_C@_0BO@BOMADOCJ@FILE_TAG?3?5unknown?5operator?5?$CFc@ ; `string'
PUBLIC	?system_tag_strings@@3PAPBDA			; system_tag_strings
PUBLIC	?file_tag_variables@@3PAUFILE_TAG_VARIABLE_TYPE@@A ; file_tag_variables
?file_tag_variables@@3PAUFILE_TAG_VARIABLE_TYPE@@A DD 01H DUP (?) ; file_tag_variables
_BSS	ENDS
;	COMDAT ??_C@_0BO@BOMADOCJ@FILE_TAG?3?5unknown?5operator?5?$CFc@
CONST	SEGMENT
??_C@_0BO@BOMADOCJ@FILE_TAG?3?5unknown?5operator?5?$CFc@ DB 'FILE_TAG: un'
	DB	'known operator %c', 00H			; `string'
CONST	ENDS
;	COMDAT ??_C@_0CB@NBIBODM@FILE_TAG?3?5get?5next?5enum?5too?5lon@
CONST	SEGMENT
??_C@_0CB@NBIBODM@FILE_TAG?3?5get?5next?5enum?5too?5lon@ DB 'FILE_TAG: ge'
	DB	't next enum too long', 00H			; `string'
CONST	ENDS
;	COMDAT ??_C@_0BO@CMOENNCH@FILE_TAG?3?5unrecognised?5tag?5?$CFs@
CONST	SEGMENT
??_C@_0BO@CMOENNCH@FILE_TAG?3?5unrecognised?5tag?5?$CFs@ DB 'FILE_TAG: un'
	DB	'recognised tag %s', 00H			; `string'
CONST	ENDS
;	COMDAT ??_C@_0BN@PFLFCENI@FILE_TAG?3?5check?5tag?5too?5long@
CONST	SEGMENT
??_C@_0BN@PFLFCENI@FILE_TAG?3?5check?5tag?5too?5long@ DB 'FILE_TAG: check'
	DB	' tag too long', 00H				; `string'
CONST	ENDS
;	COMDAT ??_C@_0CA@DJAFFCDM@FILE_TAG?3?5get?5next?5int?5too?5long@
CONST	SEGMENT
??_C@_0CA@DJAFFCDM@FILE_TAG?3?5get?5next?5int?5too?5long@ DB 'FILE_TAG: g'
	DB	'et next int too long', 00H			; `string'
CONST	ENDS
;	COMDAT ??_C@_05GOPCNELJ@?6?1?1?$CFs@
CONST	SEGMENT
??_C@_05GOPCNELJ@?6?1?1?$CFs@ DB 0aH, '//%s', 00H	; `string'
CONST	ENDS
;	COMDAT ??_C@_0BK@FEMOLBP@FILE_TAG?3?5tag?5too?5long?5?$CFs@
CONST	SEGMENT
??_C@_0BK@FEMOLBP@FILE_TAG?3?5tag?5too?5long?5?$CFs@ DB 'FILE_TAG: tag to'
	DB	'o long %s', 00H				; `string'
CONST	ENDS
;	COMDAT ??_C@_04NMPCIDEG@?$CFs?$AA?5@
CONST	SEGMENT
??_C@_04NMPCIDEG@?$CFs?$AA?5@ DB '%s', 00H, ' ', 00H	; `string'
CONST	ENDS
;	COMDAT ??_C@_03IKGEINEE@?$CFs?5@
CONST	SEGMENT
??_C@_03IKGEINEE@?$CFs?5@ DB '%s ', 00H			; `string'
CONST	ENDS
;	COMDAT ??_C@_05FAOIHALK@?6?3?$CFs?5@
CONST	SEGMENT
??_C@_05FAOIHALK@?6?3?$CFs?5@ DB 0aH, ':%s ', 00H	; `string'
CONST	ENDS
;	COMDAT ??_C@_06OAGNEJGA@?$CF?402f?5@
CONST	SEGMENT
??_C@_06OAGNEJGA@?$CF?402f?5@ DB '%.02f ', 00H		; `string'
CONST	ENDS
;	COMDAT ??_C@_08MBJEJMEP@VARIABLE@
CONST	SEGMENT
??_C@_08MBJEJMEP@VARIABLE@ DB 'VARIABLE', 00H		; `string'
CONST	ENDS
;	COMDAT ??_C@_05CFKHKNMI@WHILE@
CONST	SEGMENT
??_C@_05CFKHKNMI@WHILE@ DB 'WHILE', 00H			; `string'
CONST	ENDS
;	COMDAT ??_C@_04KDPJLEDB@TYPE@
CONST	SEGMENT
??_C@_04KDPJLEDB@TYPE@ DB 'TYPE', 00H			; `string'
CONST	ENDS
;	COMDAT ??_C@_05MHMCHENB@VALUE@
CONST	SEGMENT
??_C@_05MHMCHENB@VALUE@ DB 'VALUE', 00H			; `string'
CONST	ENDS
;	COMDAT ??_C@_04HBHDLLBA@PATH@
CONST	SEGMENT
??_C@_04HBHDLLBA@PATH@ DB 'PATH', 00H			; `string'
CONST	ENDS
;	COMDAT ??_C@_0N@LEBBCGFP@SET_VARIABLE@
CONST	SEGMENT
??_C@_0N@LEBBCGFP@SET_VARIABLE@ DB 'SET_VARIABLE', 00H	; `string'
CONST	ENDS
;	COMDAT ??_C@_09PDEEENAD@KEY_STATE@
CONST	SEGMENT
??_C@_09PDEEENAD@KEY_STATE@ DB 'KEY_STATE', 00H		; `string'
CONST	ENDS
;	COMDAT ??_C@_03KHPPBABN@LET@
CONST	SEGMENT
??_C@_03KHPPBABN@LET@ DB 'LET', 00H			; `string'
CONST	ENDS
;	COMDAT ??_C@_08EJGAFIOK@KEY_CODE@
CONST	SEGMENT
??_C@_08EJGAFIOK@KEY_CODE@ DB 'KEY_CODE', 00H		; `string'
CONST	ENDS
;	COMDAT ??_C@_0N@MBODJNIN@KEY_MODIFIER@
CONST	SEGMENT
??_C@_0N@MBODJNIN@KEY_MODIFIER@ DB 'KEY_MODIFIER', 00H	; `string'
CONST	ENDS
;	COMDAT ??_C@_02NJNGHICB@IF@
CONST	SEGMENT
??_C@_02NJNGHICB@IF@ DB 'IF', 00H			; `string'
CONST	ENDS
;	COMDAT ??_C@_03JMHEAPMO@INT@
CONST	SEGMENT
??_C@_03JMHEAPMO@INT@ DB 'INT', 00H			; `string'
CONST	ENDS
;	COMDAT ??_C@_08GPLFLAGL@FILENAME@
CONST	SEGMENT
??_C@_08GPLFLAGL@FILENAME@ DB 'FILENAME', 00H		; `string'
CONST	ENDS
;	COMDAT ??_C@_05GGMHDFKJ@FLOAT@
CONST	SEGMENT
??_C@_05GGMHDFKJ@FLOAT@ DB 'FLOAT', 00H			; `string'
CONST	ENDS
;	COMDAT ??_C@_05DLHFLCAN@ENDIF@
CONST	SEGMENT
??_C@_05DLHFLCAN@ENDIF@ DB 'ENDIF', 00H			; `string'
CONST	ENDS
;	COMDAT ??_C@_05KOOCGPHN@EVENT@
CONST	SEGMENT
??_C@_05KOOCGPHN@EVENT@ DB 'EVENT', 00H			; `string'
CONST	ENDS
;	COMDAT ??_C@_03JMGAKCCH@END@
CONST	SEGMENT
??_C@_03JMGAKCCH@END@ DB 'END', 00H			; `string'
CONST	ENDS
;	COMDAT ??_C@_09OKCDOHJA@END_EVENT@
CONST	SEGMENT
??_C@_09OKCDOHJA@END_EVENT@ DB 'END_EVENT', 00H		; `string'
CONST	ENDS
;	COMDAT ??_C@_0N@DDHEIJBI@ECHO_MESSAGE@
CONST	SEGMENT
??_C@_0N@DDHEIJBI@ECHO_MESSAGE@ DB 'ECHO_MESSAGE', 00H	; `string'
CONST	ENDS
;	COMDAT ??_C@_04JLPIBDPH@ELSE@
CONST	SEGMENT
??_C@_04JLPIBDPH@ELSE@ DB 'ELSE', 00H			; `string'
CONST	ENDS
;	COMDAT ??_C@_0P@HMAJBNMI@CREATE_TRIGGER@
CONST	SEGMENT
??_C@_0P@HMAJBNMI@CREATE_TRIGGER@ DB 'CREATE_TRIGGER', 00H ; `string'
CONST	ENDS
;	COMDAT ??_C@_0BA@JPPDAMLG@CREATE_VARIABLE@
CONST	SEGMENT
??_C@_0BA@JPPDAMLG@CREATE_VARIABLE@ DB 'CREATE_VARIABLE', 00H ; `string'
CONST	ENDS
;	COMDAT ??_C@_04CAGKGBIO@CALL@
CONST	SEGMENT
??_C@_04CAGKGBIO@CALL@ DB 'CALL', 00H			; `string'
CONST	ENDS
;	COMDAT ??_C@_0N@INGKCNDE@CREATE_EVENT@
CONST	SEGMENT
??_C@_0N@INGKCNDE@CREATE_EVENT@ DB 'CREATE_EVENT', 00H	; `string'
CONST	ENDS
;	COMDAT ??_C@_08LEMDHBFI@BIND_KEY@
CONST	SEGMENT
??_C@_08LEMDHBFI@BIND_KEY@ DB 'BIND_KEY', 00H		; `string'
CONST	ENDS
;	COMDAT ??_C@_09KPJDKKFA@CALCULATE@
CONST	SEGMENT
??_C@_09KPJDKKFA@CALCULATE@ DB 'CALCULATE', 00H		; `string'
CONST	ENDS
;	COMDAT ??_C@_06ONCDKIFA@UNUSED@
CONST	SEGMENT
??_C@_06ONCDKIFA@UNUSED@ DB 'UNUSED', 00H		; `string'
?system_tag_strings@@3PAPBDA DD FLAT:??_C@_06ONCDKIFA@UNUSED@ ; system_tag_strings
	DD	FLAT:??_C@_07DNODLGKM@INVALID@
	DD	FLAT:??_C@_08LEMDHBFI@BIND_KEY@
	DD	FLAT:??_C@_09KPJDKKFA@CALCULATE@
	DD	FLAT:??_C@_04CAGKGBIO@CALL@
	DD	FLAT:??_C@_0N@INGKCNDE@CREATE_EVENT@
	DD	FLAT:??_C@_0P@HMAJBNMI@CREATE_TRIGGER@
	DD	FLAT:??_C@_0BA@JPPDAMLG@CREATE_VARIABLE@
	DD	FLAT:??_C@_0N@DDHEIJBI@ECHO_MESSAGE@
	DD	FLAT:??_C@_04JLPIBDPH@ELSE@
	DD	FLAT:??_C@_03JMGAKCCH@END@
	DD	FLAT:??_C@_09OKCDOHJA@END_EVENT@
	DD	FLAT:??_C@_05DLHFLCAN@ENDIF@
	DD	FLAT:??_C@_09GBGGCFCF@END_WHILE@
	DD	FLAT:??_C@_05KOOCGPHN@EVENT@
	DD	FLAT:??_C@_08GPLFLAGL@FILENAME@
	DD	FLAT:??_C@_05GGMHDFKJ@FLOAT@
	DD	FLAT:??_C@_02NJNGHICB@IF@
	DD	FLAT:??_C@_03JMHEAPMO@INT@
	DD	FLAT:??_C@_08EJGAFIOK@KEY_CODE@
	DD	FLAT:??_C@_0N@MBODJNIN@KEY_MODIFIER@
	DD	FLAT:??_C@_09PDEEENAD@KEY_STATE@
	DD	FLAT:??_C@_03KHPPBABN@LET@
	DD	FLAT:??_C@_04HBHDLLBA@PATH@
	DD	FLAT:??_C@_0N@LEBBCGFP@SET_VARIABLE@
	DD	FLAT:??_C@_05JLPDBANI@START@
	DD	FLAT:??_C@_04KDPJLEDB@TYPE@
	DD	FLAT:??_C@_05MHMCHENB@VALUE@
	DD	FLAT:??_C@_08MBJEJMEP@VARIABLE@
	DD	FLAT:??_C@_05CFKHKNMI@WHILE@
	DD	FLAT:??_C@_07NFANNNEC@UNKNOWN@
PUBLIC	?set_file_comment@@YGXPAU_iobuf@@PBD@Z		; set_file_comment
PUBLIC	?set_file_tag@@YGXPAU_iobuf@@QAPBDH@Z		; set_file_tag
PUBLIC	?set_file_new_line@@YGXPAU_iobuf@@H@Z		; set_file_new_line
PUBLIC	?set_file_string@@YGXPAU_iobuf@@PBD@Z		; set_file_string
PUBLIC	?set_file_int@@YGXPAU_iobuf@@H@Z		; set_file_int
PUBLIC	?set_file_enum@@YGXPAU_iobuf@@QAPBDH@Z		; set_file_enum
PUBLIC	?initialise_file_tag_system@@YGXXZ		; initialise_file_tag_system
PUBLIC	?deinitialise_file_tag_system@@YGXXZ		; deinitialise_file_tag_system
PUBLIC	?get_next_file_word@@YGHPAU_iobuf@@PADH@Z	; get_next_file_word
PUBLIC	?if_file_tag_operator@@YGHHPBDH@Z		; if_file_tag_operator
PUBLIC	?get_next_file_int@@YGHPAU_iobuf@@@Z		; get_next_file_int
PUBLIC	?unregister_file_tag_variable@@YGXPBD@Z		; unregister_file_tag_variable
PUBLIC	?register_file_tag_variable@@YGXPBDPAH@Z	; register_file_tag_variable
PUBLIC	?get_variable_id@@YGHPBD@Z			; get_variable_id
PUBLIC	?get_operator_id@@YGHPBD@Z			; get_operator_id
PUBLIC	?get_file_tag_variable@@YGPAHPBD@Z		; get_file_tag_variable
PUBLIC	?get_variable_name@@YGPBDH@Z			; get_variable_name
PUBLIC	?get_operator_name@@YGDH@Z			; get_operator_name
PUBLIC	?if_file_tag_variable@@YGHPBD0H@Z		; if_file_tag_variable
PUBLIC	?check_next_file_tag@@YGHPAU_iobuf@@QAPBDH@Z	; check_next_file_tag
PUBLIC	?get_next_file_paragraph@@YGHPAU_iobuf@@PADH@Z	; get_next_file_paragraph
PUBLIC	?get_next_file_tag@@YGHPAU_iobuf@@QAPBDH@Z	; get_next_file_tag
PUBLIC	?get_next_file_string@@YGHPAU_iobuf@@PADH@Z	; get_next_file_string
PUBLIC	?get_next_file_enum@@YGHPAU_iobuf@@QAPBDH@Z	; get_next_file_enum
PUBLIC	?get_next_file_float@@YGMPAU_iobuf@@@Z		; get_next_file_float
END
