; Listing generated by Microsoft (R) Optimizing Compiler Version 19.16.27045.0 

	TITLE	c:\users\nhv90\projects\eech\aphavoc\source\entity\mobile\aircraft\fixwing\fixwing.c
	.686P
	.XMM
	include listing.inc
	.model	flat

INCLUDELIB OLDNAMES

PUBLIC	??_C@_0DO@OICIPHLD@FIXWING?3?5Attach?5meta?5smoke?5list@ ; `string'
PUBLIC	??_C@_0DM@KDGOFLGB@FIXWING?3?5Pack?5meta?5smoke?5lists?5@ ; `string'
PUBLIC	??_C@_0DO@JBNJBBCN@FIXWING?3?5Unpack?5meta?5smoke?5list@ ; `string'
;	COMDAT ??_C@_0DO@JBNJBBCN@FIXWING?3?5Unpack?5meta?5smoke?5list@
CONST	SEGMENT
??_C@_0DO@JBNJBBCN@FIXWING?3?5Unpack?5meta?5smoke?5list@ DB 'FIXWING: Unp'
	DB	'ack meta smoke lists - too many attachment points', 00H ; `string'
CONST	ENDS
;	COMDAT ??_C@_0DM@KDGOFLGB@FIXWING?3?5Pack?5meta?5smoke?5lists?5@
CONST	SEGMENT
??_C@_0DM@KDGOFLGB@FIXWING?3?5Pack?5meta?5smoke?5lists?5@ DB 'FIXWING: Pa'
	DB	'ck meta smoke lists - too many attachment points', 00H ; `string'
CONST	ENDS
;	COMDAT ??_C@_0DO@OICIPHLD@FIXWING?3?5Attach?5meta?5smoke?5list@
CONST	SEGMENT
??_C@_0DO@OICIPHLD@FIXWING?3?5Attach?5meta?5smoke?5list@ DB 'FIXWING: Att'
	DB	'ach meta smoke lists - too many attachment points', 00H ; `string'
PUBLIC	?update_fixed_wing_crate_dropping@@YGXPAUENTITY@@@Z ; update_fixed_wing_crate_dropping
PUBLIC	?unpack_fixed_wing_meta_smoke_lists@@YGXPAUENTITY@@W4PACK_MODES@@@Z ; unpack_fixed_wing_meta_smoke_lists
PUBLIC	?pack_fixed_wing_meta_smoke_lists@@YGXPAUENTITY@@W4PACK_MODES@@@Z ; pack_fixed_wing_meta_smoke_lists
PUBLIC	?attach_fixed_wing_meta_smoke_lists@@YGXPAUENTITY@@@Z ; attach_fixed_wing_meta_smoke_lists
PUBLIC	?assess_fixed_wing_damage_level@@YGXPAUENTITY@@HH@Z ; assess_fixed_wing_damage_level
?attached_meta_smoke_list_table@@3PAUATTACHED_META_SMOKE_LIST_TABLE@@A DD 0aH ; attached_meta_smoke_list_table
	DD	047H
	DD	0ffffffffH
	DD	0bH
	DD	047H
	DD	0ffffffffH
	DD	0cH
	DD	047H
	DD	0ffffffffH
	DD	0ffffffffH
	DD	0ffffffffH
	DD	0ffffffffH
END
