; Listing generated by Microsoft (R) Optimizing Compiler Version 19.16.27045.0 

	TITLE	c:\users\nhv90\projects\eech\aphavoc\source\flight.c
	.686P
	.XMM
	include listing.inc
	.model	flat

INCLUDELIB OLDNAMES

PUBLIC	??_C@_0O@DIELNMDN@flight_events@		; `string'
PUBLIC	??_C@_0M@BBENDDKM@Demo?5events@			; `string'
PUBLIC	??_C@_0BM@ECNBPGHF@FLIGHT?3?5unknown?5gametype?5?$CFd@ ; `string'
PUBLIC	??_C@_08FNGJBHKL@AUTOSAVE@			; `string'
PUBLIC	??_C@_0O@ENDLFPAB@flight?5events@		; `string'
PUBLIC	?pages_clear@@3HA				; pages_clear
PUBLIC	?in_flight_game_mode@@3W4IN_FLIGHT_GAME_MODES@@A ; in_flight_game_mode
?pages_clear@@3HA DD 01H DUP (?)			; pages_clear
?in_flight_game_mode@@3W4IN_FLIGHT_GAME_MODES@@A DD 01H DUP (?) ; in_flight_game_mode
_BSS	ENDS
;	COMDAT ??_C@_0O@ENDLFPAB@flight?5events@
CONST	SEGMENT
??_C@_0O@ENDLFPAB@flight?5events@ DB 'flight events', 00H ; `string'
CONST	ENDS
;	COMDAT ??_C@_08FNGJBHKL@AUTOSAVE@
CONST	SEGMENT
??_C@_08FNGJBHKL@AUTOSAVE@ DB 'AUTOSAVE', 00H		; `string'
CONST	ENDS
;	COMDAT ??_C@_0BM@ECNBPGHF@FLIGHT?3?5unknown?5gametype?5?$CFd@
CONST	SEGMENT
??_C@_0BM@ECNBPGHF@FLIGHT?3?5unknown?5gametype?5?$CFd@ DB 'FLIGHT: unknow'
	DB	'n gametype %d', 00H				; `string'
CONST	ENDS
;	COMDAT ??_C@_0M@BBENDDKM@Demo?5events@
CONST	SEGMENT
??_C@_0M@BBENDDKM@Demo?5events@ DB 'Demo events', 00H	; `string'
CONST	ENDS
;	COMDAT ??_C@_0O@DIELNMDN@flight_events@
CONST	SEGMENT
??_C@_0O@DIELNMDN@flight_events@ DB 'flight_events', 00H ; `string'
PUBLIC	?set_in_flight_game_mode@@YGXH@Z		; set_in_flight_game_mode
PUBLIC	?set_raw_in_flight_game_mode@@YGXH@Z		; set_raw_in_flight_game_mode
PUBLIC	?flight@@YGXXZ					; flight
PUBLIC	?toggle_in_flight_game_modes@@YGXPAUEVENT@@@Z	; toggle_in_flight_game_modes
END
