; Listing generated by Microsoft (R) Optimizing Compiler Version 19.16.27045.0 

	TITLE	c:\users\nhv90\projects\eech\aphavoc\source\misc\gameexit.c
	.686P
	.XMM
	include listing.inc
	.model	flat

INCLUDELIB OLDNAMES

PUBLIC	?display_exit_message_flag@@3HA			; display_exit_message_flag
PUBLIC	??_C@_0BE@ENIDHPDC@Quit?5Mission?$DP?5?$CIY?1N?$CJ@ ; `string'
PUBLIC	??_C@_0BF@FGHELIK@Exit?5Campaign?$DP?5?$CIY?1N?$CJ@ ; `string'
PUBLIC	??_C@_0BN@ODGJOFED@Exit?5Dynamic?5Missions?$DP?5?$CIY?1N?$CJ@ ; `string'
PUBLIC	??_C@_0CC@CANKGBAK@Exit?5Comanche?5Versus?5Hokum?$DP?5?$CIY?1@ ; `string'
PUBLIC	??_C@_0M@KPNEPHAO@Press?5Space@			; `string'
PUBLIC	??_C@_07OOIBODHN@KICKOUT@			; `string'
PUBLIC	??_C@_0BB@HJOGCLOO@Exit?5Demo?$DP?5?$CIY?1N?$CJ@ ; `string'
PUBLIC	??_C@_0BB@EPMPJGAH@Exit?5Game?5Events@		; `string'
PUBLIC	??_C@_0BF@DAPHDBNO@Pilot?5Ejected?5Events@	; `string'
PUBLIC	??_C@_0BP@CGAEEKCH@GAMEEXIT?3?5Illegal?5exit?5type?5?$CFd@ ; `string'
PUBLIC	?game_exit_text@@3PAPBDA			; game_exit_text
PUBLIC	?exit_flight_loop_flag@@3HA			; exit_flight_loop_flag
PUBLIC	?game_exit_type@@3W4GAME_EXIT_TYPES@@A		; game_exit_type
?display_exit_message_flag@@3HA DD 01H DUP (?)		; display_exit_message_flag
?exit_flight_loop_flag@@3HA DD 01H DUP (?)		; exit_flight_loop_flag
?game_exit_type@@3W4GAME_EXIT_TYPES@@A DD 01H DUP (?)	; game_exit_type
_BSS	ENDS
;	COMDAT ??_C@_0BP@CGAEEKCH@GAMEEXIT?3?5Illegal?5exit?5type?5?$CFd@
CONST	SEGMENT
??_C@_0BP@CGAEEKCH@GAMEEXIT?3?5Illegal?5exit?5type?5?$CFd@ DB 'GAMEEXIT: '
	DB	'Illegal exit type %d', 00H			; `string'
CONST	ENDS
;	COMDAT ??_C@_0BF@DAPHDBNO@Pilot?5Ejected?5Events@
CONST	SEGMENT
??_C@_0BF@DAPHDBNO@Pilot?5Ejected?5Events@ DB 'Pilot Ejected Events', 00H ; `string'
CONST	ENDS
;	COMDAT ??_C@_0BB@EPMPJGAH@Exit?5Game?5Events@
CONST	SEGMENT
??_C@_0BB@EPMPJGAH@Exit?5Game?5Events@ DB 'Exit Game Events', 00H ; `string'
CONST	ENDS
;	COMDAT ??_C@_0BB@HJOGCLOO@Exit?5Demo?$DP?5?$CIY?1N?$CJ@
CONST	SEGMENT
??_C@_0BB@HJOGCLOO@Exit?5Demo?$DP?5?$CIY?1N?$CJ@ DB 'Exit Demo? (Y/N)', 00H ; `string'
CONST	ENDS
;	COMDAT ??_C@_07OOIBODHN@KICKOUT@
CONST	SEGMENT
??_C@_07OOIBODHN@KICKOUT@ DB 'KICKOUT', 00H		; `string'
CONST	ENDS
;	COMDAT ??_C@_0M@KPNEPHAO@Press?5Space@
CONST	SEGMENT
??_C@_0M@KPNEPHAO@Press?5Space@ DB 'Press Space', 00H	; `string'
CONST	ENDS
;	COMDAT ??_C@_0CC@CANKGBAK@Exit?5Comanche?5Versus?5Hokum?$DP?5?$CIY?1@
CONST	SEGMENT
??_C@_0CC@CANKGBAK@Exit?5Comanche?5Versus?5Hokum?$DP?5?$CIY?1@ DB 'Exit C'
	DB	'omanche Versus Hokum? (Y/N)', 00H		; `string'
CONST	ENDS
;	COMDAT ??_C@_0BN@ODGJOFED@Exit?5Dynamic?5Missions?$DP?5?$CIY?1N?$CJ@
CONST	SEGMENT
??_C@_0BN@ODGJOFED@Exit?5Dynamic?5Missions?$DP?5?$CIY?1N?$CJ@ DB 'Exit Dy'
	DB	'namic Missions? (Y/N)', 00H			; `string'
CONST	ENDS
;	COMDAT ??_C@_0BF@FGHELIK@Exit?5Campaign?$DP?5?$CIY?1N?$CJ@
CONST	SEGMENT
??_C@_0BF@FGHELIK@Exit?5Campaign?$DP?5?$CIY?1N?$CJ@ DB 'Exit Campaign? (Y'
	DB	'/N)', 00H					; `string'
CONST	ENDS
;	COMDAT ??_C@_0BE@ENIDHPDC@Quit?5Mission?$DP?5?$CIY?1N?$CJ@
CONST	SEGMENT
??_C@_0BE@ENIDHPDC@Quit?5Mission?$DP?5?$CIY?1N?$CJ@ DB 'Quit Mission? (Y/'
	DB	'N)', 00H					; `string'
?game_exit_text@@3PAPBDA DD FLAT:??_C@_07DNODLGKM@INVALID@ ; game_exit_text
	DD	FLAT:??_C@_0BE@ENIDHPDC@Quit?5Mission?$DP?5?$CIY?1N?$CJ@
	DD	FLAT:??_C@_0BF@FGHELIK@Exit?5Campaign?$DP?5?$CIY?1N?$CJ@
	DD	FLAT:??_C@_0BN@ODGJOFED@Exit?5Dynamic?5Missions?$DP?5?$CIY?1N?$CJ@
	DD	FLAT:??_C@_0CC@CANKGBAK@Exit?5Comanche?5Versus?5Hokum?$DP?5?$CIY?1@
	DD	FLAT:??_C@_0M@KPNEPHAO@Press?5Space@
	DD	FLAT:??_C@_07OOIBODHN@KICKOUT@
	DD	FLAT:??_C@_0BB@HJOGCLOO@Exit?5Demo?$DP?5?$CIY?1N?$CJ@
	DD	FLAT:??_C@_0BE@ENIDHPDC@Quit?5Mission?$DP?5?$CIY?1N?$CJ@
	DD	FLAT:??_C@_00CNPNBAHC@@
	DD	FLAT:??_C@_0M@KPNEPHAO@Press?5Space@
PUBLIC	?set_display_exit_message@@YGXH@Z		; set_display_exit_message
PUBLIC	?display_exit_message@@YGXXZ			; display_exit_message
PUBLIC	?exit_apache_havoc@@YGXPAUEVENT@@@Z		; exit_apache_havoc
PUBLIC	?exit_game_function@@YGXPAUEVENT@@@Z		; exit_game_function
PUBLIC	?exit_game@@YGXPAUEVENT@@@Z			; exit_game
PUBLIC	?start_game_exit@@YGXW4GAME_EXIT_TYPES@@H@Z	; start_game_exit
END
