; Listing generated by Microsoft (R) Optimizing Compiler Version 19.16.27045.0 

	TITLE	c:\users\nhv90\projects\eech\aphavoc\source\ui_menu\gametype\gmty_sc.c
	.686P
	.XMM
	include listing.inc
	.model	flat

INCLUDELIB OLDNAMES

PUBLIC	?game_type_screen@@3PAUUI_OBJECT@@A		; game_type_screen
PUBLIC	??_C@_09IGDCKAH@UI_COMBAT@			; `string'
PUBLIC	??_C@_08FHHBCJKK@Campaign@			; `string'
PUBLIC	??_C@_08FLHDLDCA@Skirmish@			; `string'
PUBLIC	??_C@_04DKDMNOEB@Demo@				; `string'
PUBLIC	??_C@_09EIGHGGEH@UI_CANCEL@			; `string'
PUBLIC	??_C@_0BP@LILAKEF@graphics?2ui?2cohokum?2combat?4psd@ ; `string'
PUBLIC	?game_type_screen_graphic@@3PAUTEXTURE_GRAPHIC@@A ; game_type_screen_graphic
PUBLIC	?skirmish_button@@3PAUUI_OBJECT@@A		; skirmish_button
PUBLIC	?campaign_button@@3PAUUI_OBJECT@@A		; campaign_button
PUBLIC	?game_type_selection_buttons@@3PAUUI_OBJECT@@A	; game_type_selection_buttons
?game_type_screen@@3PAUUI_OBJECT@@A DD 01H DUP (?)	; game_type_screen
?game_type_screen_graphic@@3PAUTEXTURE_GRAPHIC@@A DD 01H DUP (?) ; game_type_screen_graphic
?skirmish_button@@3PAUUI_OBJECT@@A DD 01H DUP (?)	; skirmish_button
?campaign_button@@3PAUUI_OBJECT@@A DD 01H DUP (?)	; campaign_button
?game_type_selection_buttons@@3PAUUI_OBJECT@@A DD 01H DUP (?) ; game_type_selection_buttons
_BSS	ENDS
;	COMDAT ??_C@_0BP@LILAKEF@graphics?2ui?2cohokum?2combat?4psd@
CONST	SEGMENT
??_C@_0BP@LILAKEF@graphics?2ui?2cohokum?2combat?4psd@ DB 'graphics\ui\coh'
	DB	'okum\combat.psd', 00H			; `string'
CONST	ENDS
;	COMDAT ??_C@_09EIGHGGEH@UI_CANCEL@
CONST	SEGMENT
??_C@_09EIGHGGEH@UI_CANCEL@ DB 'UI_CANCEL', 00H		; `string'
CONST	ENDS
;	COMDAT ??_C@_04DKDMNOEB@Demo@
CONST	SEGMENT
??_C@_04DKDMNOEB@Demo@ DB 'Demo', 00H			; `string'
CONST	ENDS
;	COMDAT ??_C@_08FLHDLDCA@Skirmish@
CONST	SEGMENT
??_C@_08FLHDLDCA@Skirmish@ DB 'Skirmish', 00H		; `string'
CONST	ENDS
;	COMDAT ??_C@_08FHHBCJKK@Campaign@
CONST	SEGMENT
??_C@_08FHHBCJKK@Campaign@ DB 'Campaign', 00H		; `string'
CONST	ENDS
;	COMDAT ??_C@_09IGDCKAH@UI_COMBAT@
CONST	SEGMENT
??_C@_09IGDCKAH@UI_COMBAT@ DB 'UI_COMBAT', 00H		; `string'
PUBLIC	?game_type_hilight_selection@@YGXPAUUI_OBJECT@@@Z ; game_type_hilight_selection
PUBLIC	?initialise_game_type_screen@@YGXXZ		; initialise_game_type_screen
END
