; Listing generated by Microsoft (R) Optimizing Compiler Version 19.16.27045.0 

	TITLE	c:\users\nhv90\projects\eech\aphavoc\source\entity\special\group\group.c
	.686P
	.XMM
	include listing.inc
	.model	flat

INCLUDELIB OLDNAMES

PUBLIC	?group_callsign_names@@3PAUGROUP_CALLSIGN_NAME_TYPE@@A ; group_callsign_names
PUBLIC	??_C@_05INJOKMGD@Angel@				; `string'
PUBLIC	??_C@_06ECPHLOIG@Apollo@			; `string'
PUBLIC	??_C@_06LFBADCEI@Archer@			; `string'
PUBLIC	??_C@_07PICMBPKH@Banshee@			; `string'
PUBLIC	??_C@_0L@MEJDOLNL@Bloodhound@			; `string'
PUBLIC	??_C@_07LBLCFOMO@Bulldog@			; `string'
PUBLIC	??_C@_07DAMIFFEP@Charger@			; `string'
PUBLIC	??_C@_07IMBBPGLN@Cheetah@			; `string'
PUBLIC	??_C@_09HFHEFMOM@Chieftain@			; `string'
PUBLIC	??_C@_05GGCPBPFC@Cobra@				; `string'
PUBLIC	??_C@_05BAJAFMOF@Comet@				; `string'
PUBLIC	??_C@_06CCBGMMPL@Condor@			; `string'
PUBLIC	??_C@_06CNANOIIM@Cougar@			; `string'
PUBLIC	??_C@_06IJHJLPBP@Cowboy@			; `string'
PUBLIC	??_C@_09NHDGGHBB@Darkhorse@			; `string'
PUBLIC	??_C@_05PKJPALPB@Demon@				; `string'
PUBLIC	??_C@_06LCCDMAOM@Dodger@			; `string'
PUBLIC	??_C@_06COGLIGFC@Dragon@			; `string'
PUBLIC	??_C@_05EKEMPJGC@Eagle@				; `string'
PUBLIC	??_C@_0L@KPKAOMBH@Eight?9Ball@			; `string'
PUBLIC	??_C@_08GBDKHDHI@Farsight@			; `string'
PUBLIC	??_C@_08LAPJNHAD@Fireball@			; `string'
PUBLIC	??_C@_08KLCMPLJO@Firebird@			; `string'
PUBLIC	??_C@_07MGBJGBAB@Firefox@			; `string'
PUBLIC	??_C@_0L@FPMNLDO@Freelancer@			; `string'
PUBLIC	??_C@_05ECONJKNH@Gator@				; `string'
PUBLIC	??_C@_08ELAHAPJB@Gauntlet@			; `string'
PUBLIC	??_C@_0L@CFIAOBNI@Ghostrider@			; `string'
PUBLIC	??_C@_09IIIKJBPO@Gladiator@			; `string'
PUBLIC	??_C@_07FCCJLMDG@Goliath@			; `string'
PUBLIC	??_C@_05GKHKCKKK@Goose@				; `string'
PUBLIC	??_C@_07PKPDAOLG@Hawkeye@			; `string'
PUBLIC	??_C@_07LBAKIKOJ@Hellcat@			; `string'
PUBLIC	??_C@_06NPNCGLLF@Hunter@			; `string'
PUBLIC	??_C@_06GCKPJHNJ@Jaguar@			; `string'
PUBLIC	??_C@_06NDOLCLDE@Jester@			; `string'
PUBLIC	??_C@_07LEJIDMLG@Jupiter@			; `string'
PUBLIC	??_C@_0L@HBEGIEOA@Juggernaut@			; `string'
PUBLIC	??_C@_07PACCOBHI@Kestrel@			; `string'
PUBLIC	??_C@_06HOBEGAAN@Lancer@			; `string'
PUBLIC	??_C@_04NOBJAHLG@Lima@				; `string'
PUBLIC	??_C@_06ODAOAABB@Maniac@			; `string'
PUBLIC	??_C@_06FKMMMLK@Mantis@				; `string'
PUBLIC	??_C@_06JHDANNHM@Mauler@			; `string'
PUBLIC	??_C@_07JMNKBLJA@Mercury@			; `string'
PUBLIC	??_C@_06FBOMOHED@Merlin@			; `string'
PUBLIC	??_C@_07NMJILPAB@Milkman@			; `string'
PUBLIC	??_C@_07PMJOLKGK@Mustang@			; `string'
PUBLIC	??_C@_09DDMFHDNE@Nightmare@			; `string'
PUBLIC	??_C@_07HBBBHBHH@Panther@			; `string'
PUBLIC	??_C@_07LPGNOABP@Patriot@			; `string'
PUBLIC	??_C@_07OFINGKDN@Phantom@			; `string'
PUBLIC	??_C@_07KEMLBHAB@Phoenix@			; `string'
PUBLIC	??_C@_08OMOCEDLJ@Preacher@			; `string'
PUBLIC	??_C@_06CHFOMGOI@Python@			; `string'
PUBLIC	??_C@_06FGHMEEIN@Raptor@			; `string'
PUBLIC	??_C@_0M@LNDBEIHA@Rattlesnake@			; `string'
PUBLIC	??_C@_09EAPIDKNL@Razorback@			; `string'
PUBLIC	??_C@_0L@BBNNMEOA@Razorworks@			; `string'
PUBLIC	??_C@_06BCJIKKCI@Reaper@			; `string'
PUBLIC	??_C@_08KBDFECAK@Renegade@			; `string'
PUBLIC	??_C@_05LOKFGGKM@Sabre@				; `string'
PUBLIC	??_C@_06BDBMMIBK@Savage@			; `string'
PUBLIC	??_C@_06KHOKADBJ@Shadow@			; `string'
PUBLIC	??_C@_07BLNFDIEN@Sheriff@			; `string'
PUBLIC	??_C@_06IANOJNCI@Shogun@			; `string'
PUBLIC	??_C@_08BEHMIHLK@Snowball@			; `string'
PUBLIC	??_C@_09FHKNOJJG@Spartakus@			; `string'
PUBLIC	??_C@_08OGJKIIIN@Spectrum@			; `string'
PUBLIC	??_C@_07HJALAEIF@Stalker@			; `string'
PUBLIC	??_C@_08LCPMOHG@Stingray@			; `string'
PUBLIC	??_C@_07DEKJPLMA@Striker@			; `string'
PUBLIC	??_C@_07GIONELDB@Sundown@			; `string'
PUBLIC	??_C@_09ENFBHKI@Swamp?9Fox@			; `string'
PUBLIC	??_C@_07MOJLCPGJ@Tempest@			; `string'
PUBLIC	??_C@_0M@IEKADNOM@Tiger?9Shark@			; `string'
PUBLIC	??_C@_09DACOLFFB@Touchdown@			; `string'
PUBLIC	??_C@_07GADMPKJI@Vampire@			; `string'
PUBLIC	??_C@_07HDHBEBBE@Vertigo@			; `string'
PUBLIC	??_C@_09NHFALIGP@Vigilante@			; `string'
PUBLIC	??_C@_06MNFEEHAB@Viking@			; `string'
PUBLIC	??_C@_06NFPMDKDO@Voodoo@			; `string'
PUBLIC	??_C@_06LOEDEFOB@Vulcan@			; `string'
PUBLIC	??_C@_07NHLONPAH@Vulture@			; `string'
PUBLIC	??_C@_07FNAKILNO@Warlock@			; `string'
PUBLIC	??_C@_07MHHGFOFG@Warlord@			; `string'
PUBLIC	??_C@_07DFKLKNJN@Warrior@			; `string'
PUBLIC	??_C@_07ODEBIINL@Wildcat@			; `string'
PUBLIC	??_C@_08CCGFAIJD@Wolfpack@			; `string'
PUBLIC	??_C@_0BE@CLCBKHBL@NUM_GROUP_CALLSIGNS@		; `string'
;	COMDAT ??_C@_0BE@CLCBKHBL@NUM_GROUP_CALLSIGNS@
CONST	SEGMENT
??_C@_0BE@CLCBKHBL@NUM_GROUP_CALLSIGNS@ DB 'NUM_GROUP_CALLSIGNS', 00H ; `string'
CONST	ENDS
;	COMDAT ??_C@_08CCGFAIJD@Wolfpack@
CONST	SEGMENT
??_C@_08CCGFAIJD@Wolfpack@ DB 'Wolfpack', 00H		; `string'
CONST	ENDS
;	COMDAT ??_C@_07ODEBIINL@Wildcat@
CONST	SEGMENT
??_C@_07ODEBIINL@Wildcat@ DB 'Wildcat', 00H		; `string'
CONST	ENDS
;	COMDAT ??_C@_07DFKLKNJN@Warrior@
CONST	SEGMENT
??_C@_07DFKLKNJN@Warrior@ DB 'Warrior', 00H		; `string'
CONST	ENDS
;	COMDAT ??_C@_07MHHGFOFG@Warlord@
CONST	SEGMENT
??_C@_07MHHGFOFG@Warlord@ DB 'Warlord', 00H		; `string'
CONST	ENDS
;	COMDAT ??_C@_07FNAKILNO@Warlock@
CONST	SEGMENT
??_C@_07FNAKILNO@Warlock@ DB 'Warlock', 00H		; `string'
CONST	ENDS
;	COMDAT ??_C@_07NHLONPAH@Vulture@
CONST	SEGMENT
??_C@_07NHLONPAH@Vulture@ DB 'Vulture', 00H		; `string'
CONST	ENDS
;	COMDAT ??_C@_06LOEDEFOB@Vulcan@
CONST	SEGMENT
??_C@_06LOEDEFOB@Vulcan@ DB 'Vulcan', 00H		; `string'
CONST	ENDS
;	COMDAT ??_C@_06NFPMDKDO@Voodoo@
CONST	SEGMENT
??_C@_06NFPMDKDO@Voodoo@ DB 'Voodoo', 00H		; `string'
CONST	ENDS
;	COMDAT ??_C@_06MNFEEHAB@Viking@
CONST	SEGMENT
??_C@_06MNFEEHAB@Viking@ DB 'Viking', 00H		; `string'
CONST	ENDS
;	COMDAT ??_C@_09NHFALIGP@Vigilante@
CONST	SEGMENT
??_C@_09NHFALIGP@Vigilante@ DB 'Vigilante', 00H		; `string'
CONST	ENDS
;	COMDAT ??_C@_07HDHBEBBE@Vertigo@
CONST	SEGMENT
??_C@_07HDHBEBBE@Vertigo@ DB 'Vertigo', 00H		; `string'
CONST	ENDS
;	COMDAT ??_C@_07GADMPKJI@Vampire@
CONST	SEGMENT
??_C@_07GADMPKJI@Vampire@ DB 'Vampire', 00H		; `string'
CONST	ENDS
;	COMDAT ??_C@_09DACOLFFB@Touchdown@
CONST	SEGMENT
??_C@_09DACOLFFB@Touchdown@ DB 'Touchdown', 00H		; `string'
CONST	ENDS
;	COMDAT ??_C@_0M@IEKADNOM@Tiger?9Shark@
CONST	SEGMENT
??_C@_0M@IEKADNOM@Tiger?9Shark@ DB 'Tiger-Shark', 00H	; `string'
CONST	ENDS
;	COMDAT ??_C@_07MOJLCPGJ@Tempest@
CONST	SEGMENT
??_C@_07MOJLCPGJ@Tempest@ DB 'Tempest', 00H		; `string'
CONST	ENDS
;	COMDAT ??_C@_09ENFBHKI@Swamp?9Fox@
CONST	SEGMENT
??_C@_09ENFBHKI@Swamp?9Fox@ DB 'Swamp-Fox', 00H		; `string'
CONST	ENDS
;	COMDAT ??_C@_07GIONELDB@Sundown@
CONST	SEGMENT
??_C@_07GIONELDB@Sundown@ DB 'Sundown', 00H		; `string'
CONST	ENDS
;	COMDAT ??_C@_07DEKJPLMA@Striker@
CONST	SEGMENT
??_C@_07DEKJPLMA@Striker@ DB 'Striker', 00H		; `string'
CONST	ENDS
;	COMDAT ??_C@_08LCPMOHG@Stingray@
CONST	SEGMENT
??_C@_08LCPMOHG@Stingray@ DB 'Stingray', 00H		; `string'
CONST	ENDS
;	COMDAT ??_C@_07HJALAEIF@Stalker@
CONST	SEGMENT
??_C@_07HJALAEIF@Stalker@ DB 'Stalker', 00H		; `string'
CONST	ENDS
;	COMDAT ??_C@_08OGJKIIIN@Spectrum@
CONST	SEGMENT
??_C@_08OGJKIIIN@Spectrum@ DB 'Spectrum', 00H		; `string'
CONST	ENDS
;	COMDAT ??_C@_09FHKNOJJG@Spartakus@
CONST	SEGMENT
??_C@_09FHKNOJJG@Spartakus@ DB 'Spartakus', 00H		; `string'
CONST	ENDS
;	COMDAT ??_C@_08BEHMIHLK@Snowball@
CONST	SEGMENT
??_C@_08BEHMIHLK@Snowball@ DB 'Snowball', 00H		; `string'
CONST	ENDS
;	COMDAT ??_C@_06IANOJNCI@Shogun@
CONST	SEGMENT
??_C@_06IANOJNCI@Shogun@ DB 'Shogun', 00H		; `string'
CONST	ENDS
;	COMDAT ??_C@_07BLNFDIEN@Sheriff@
CONST	SEGMENT
??_C@_07BLNFDIEN@Sheriff@ DB 'Sheriff', 00H		; `string'
CONST	ENDS
;	COMDAT ??_C@_06KHOKADBJ@Shadow@
CONST	SEGMENT
??_C@_06KHOKADBJ@Shadow@ DB 'Shadow', 00H		; `string'
CONST	ENDS
;	COMDAT ??_C@_06BDBMMIBK@Savage@
CONST	SEGMENT
??_C@_06BDBMMIBK@Savage@ DB 'Savage', 00H		; `string'
CONST	ENDS
;	COMDAT ??_C@_05LOKFGGKM@Sabre@
CONST	SEGMENT
??_C@_05LOKFGGKM@Sabre@ DB 'Sabre', 00H			; `string'
CONST	ENDS
;	COMDAT ??_C@_08KBDFECAK@Renegade@
CONST	SEGMENT
??_C@_08KBDFECAK@Renegade@ DB 'Renegade', 00H		; `string'
CONST	ENDS
;	COMDAT ??_C@_06BCJIKKCI@Reaper@
CONST	SEGMENT
??_C@_06BCJIKKCI@Reaper@ DB 'Reaper', 00H		; `string'
CONST	ENDS
;	COMDAT ??_C@_0L@BBNNMEOA@Razorworks@
CONST	SEGMENT
??_C@_0L@BBNNMEOA@Razorworks@ DB 'Razorworks', 00H	; `string'
CONST	ENDS
;	COMDAT ??_C@_09EAPIDKNL@Razorback@
CONST	SEGMENT
??_C@_09EAPIDKNL@Razorback@ DB 'Razorback', 00H		; `string'
CONST	ENDS
;	COMDAT ??_C@_0M@LNDBEIHA@Rattlesnake@
CONST	SEGMENT
??_C@_0M@LNDBEIHA@Rattlesnake@ DB 'Rattlesnake', 00H	; `string'
CONST	ENDS
;	COMDAT ??_C@_06FGHMEEIN@Raptor@
CONST	SEGMENT
??_C@_06FGHMEEIN@Raptor@ DB 'Raptor', 00H		; `string'
CONST	ENDS
;	COMDAT ??_C@_06CHFOMGOI@Python@
CONST	SEGMENT
??_C@_06CHFOMGOI@Python@ DB 'Python', 00H		; `string'
CONST	ENDS
;	COMDAT ??_C@_08OMOCEDLJ@Preacher@
CONST	SEGMENT
??_C@_08OMOCEDLJ@Preacher@ DB 'Preacher', 00H		; `string'
CONST	ENDS
;	COMDAT ??_C@_07KEMLBHAB@Phoenix@
CONST	SEGMENT
??_C@_07KEMLBHAB@Phoenix@ DB 'Phoenix', 00H		; `string'
CONST	ENDS
;	COMDAT ??_C@_07OFINGKDN@Phantom@
CONST	SEGMENT
??_C@_07OFINGKDN@Phantom@ DB 'Phantom', 00H		; `string'
CONST	ENDS
;	COMDAT ??_C@_07LPGNOABP@Patriot@
CONST	SEGMENT
??_C@_07LPGNOABP@Patriot@ DB 'Patriot', 00H		; `string'
CONST	ENDS
;	COMDAT ??_C@_07HBBBHBHH@Panther@
CONST	SEGMENT
??_C@_07HBBBHBHH@Panther@ DB 'Panther', 00H		; `string'
CONST	ENDS
;	COMDAT ??_C@_09DDMFHDNE@Nightmare@
CONST	SEGMENT
??_C@_09DDMFHDNE@Nightmare@ DB 'Nightmare', 00H		; `string'
CONST	ENDS
;	COMDAT ??_C@_07PMJOLKGK@Mustang@
CONST	SEGMENT
??_C@_07PMJOLKGK@Mustang@ DB 'Mustang', 00H		; `string'
CONST	ENDS
;	COMDAT ??_C@_07NMJILPAB@Milkman@
CONST	SEGMENT
??_C@_07NMJILPAB@Milkman@ DB 'Milkman', 00H		; `string'
CONST	ENDS
;	COMDAT ??_C@_06FBOMOHED@Merlin@
CONST	SEGMENT
??_C@_06FBOMOHED@Merlin@ DB 'Merlin', 00H		; `string'
CONST	ENDS
;	COMDAT ??_C@_07JMNKBLJA@Mercury@
CONST	SEGMENT
??_C@_07JMNKBLJA@Mercury@ DB 'Mercury', 00H		; `string'
CONST	ENDS
;	COMDAT ??_C@_06JHDANNHM@Mauler@
CONST	SEGMENT
??_C@_06JHDANNHM@Mauler@ DB 'Mauler', 00H		; `string'
CONST	ENDS
;	COMDAT ??_C@_06FKMMMLK@Mantis@
CONST	SEGMENT
??_C@_06FKMMMLK@Mantis@ DB 'Mantis', 00H		; `string'
CONST	ENDS
;	COMDAT ??_C@_06ODAOAABB@Maniac@
CONST	SEGMENT
??_C@_06ODAOAABB@Maniac@ DB 'Maniac', 00H		; `string'
CONST	ENDS
;	COMDAT ??_C@_04NOBJAHLG@Lima@
CONST	SEGMENT
??_C@_04NOBJAHLG@Lima@ DB 'Lima', 00H			; `string'
CONST	ENDS
;	COMDAT ??_C@_06HOBEGAAN@Lancer@
CONST	SEGMENT
??_C@_06HOBEGAAN@Lancer@ DB 'Lancer', 00H		; `string'
CONST	ENDS
;	COMDAT ??_C@_07PACCOBHI@Kestrel@
CONST	SEGMENT
??_C@_07PACCOBHI@Kestrel@ DB 'Kestrel', 00H		; `string'
CONST	ENDS
;	COMDAT ??_C@_0L@HBEGIEOA@Juggernaut@
CONST	SEGMENT
??_C@_0L@HBEGIEOA@Juggernaut@ DB 'Juggernaut', 00H	; `string'
CONST	ENDS
;	COMDAT ??_C@_07LEJIDMLG@Jupiter@
CONST	SEGMENT
??_C@_07LEJIDMLG@Jupiter@ DB 'Jupiter', 00H		; `string'
CONST	ENDS
;	COMDAT ??_C@_06NDOLCLDE@Jester@
CONST	SEGMENT
??_C@_06NDOLCLDE@Jester@ DB 'Jester', 00H		; `string'
CONST	ENDS
;	COMDAT ??_C@_06GCKPJHNJ@Jaguar@
CONST	SEGMENT
??_C@_06GCKPJHNJ@Jaguar@ DB 'Jaguar', 00H		; `string'
CONST	ENDS
;	COMDAT ??_C@_06NPNCGLLF@Hunter@
CONST	SEGMENT
??_C@_06NPNCGLLF@Hunter@ DB 'Hunter', 00H		; `string'
CONST	ENDS
;	COMDAT ??_C@_07LBAKIKOJ@Hellcat@
CONST	SEGMENT
??_C@_07LBAKIKOJ@Hellcat@ DB 'Hellcat', 00H		; `string'
CONST	ENDS
;	COMDAT ??_C@_07PKPDAOLG@Hawkeye@
CONST	SEGMENT
??_C@_07PKPDAOLG@Hawkeye@ DB 'Hawkeye', 00H		; `string'
CONST	ENDS
;	COMDAT ??_C@_05GKHKCKKK@Goose@
CONST	SEGMENT
??_C@_05GKHKCKKK@Goose@ DB 'Goose', 00H			; `string'
CONST	ENDS
;	COMDAT ??_C@_07FCCJLMDG@Goliath@
CONST	SEGMENT
??_C@_07FCCJLMDG@Goliath@ DB 'Goliath', 00H		; `string'
CONST	ENDS
;	COMDAT ??_C@_09IIIKJBPO@Gladiator@
CONST	SEGMENT
??_C@_09IIIKJBPO@Gladiator@ DB 'Gladiator', 00H		; `string'
CONST	ENDS
;	COMDAT ??_C@_0L@CFIAOBNI@Ghostrider@
CONST	SEGMENT
??_C@_0L@CFIAOBNI@Ghostrider@ DB 'Ghostrider', 00H	; `string'
CONST	ENDS
;	COMDAT ??_C@_08ELAHAPJB@Gauntlet@
CONST	SEGMENT
??_C@_08ELAHAPJB@Gauntlet@ DB 'Gauntlet', 00H		; `string'
CONST	ENDS
;	COMDAT ??_C@_05ECONJKNH@Gator@
CONST	SEGMENT
??_C@_05ECONJKNH@Gator@ DB 'Gator', 00H			; `string'
CONST	ENDS
;	COMDAT ??_C@_0L@FPMNLDO@Freelancer@
CONST	SEGMENT
??_C@_0L@FPMNLDO@Freelancer@ DB 'Freelancer', 00H	; `string'
CONST	ENDS
;	COMDAT ??_C@_07MGBJGBAB@Firefox@
CONST	SEGMENT
??_C@_07MGBJGBAB@Firefox@ DB 'Firefox', 00H		; `string'
CONST	ENDS
;	COMDAT ??_C@_08KLCMPLJO@Firebird@
CONST	SEGMENT
??_C@_08KLCMPLJO@Firebird@ DB 'Firebird', 00H		; `string'
CONST	ENDS
;	COMDAT ??_C@_08LAPJNHAD@Fireball@
CONST	SEGMENT
??_C@_08LAPJNHAD@Fireball@ DB 'Fireball', 00H		; `string'
CONST	ENDS
;	COMDAT ??_C@_08GBDKHDHI@Farsight@
CONST	SEGMENT
??_C@_08GBDKHDHI@Farsight@ DB 'Farsight', 00H		; `string'
CONST	ENDS
;	COMDAT ??_C@_0L@KPKAOMBH@Eight?9Ball@
CONST	SEGMENT
??_C@_0L@KPKAOMBH@Eight?9Ball@ DB 'Eight-Ball', 00H	; `string'
CONST	ENDS
;	COMDAT ??_C@_05EKEMPJGC@Eagle@
CONST	SEGMENT
??_C@_05EKEMPJGC@Eagle@ DB 'Eagle', 00H			; `string'
CONST	ENDS
;	COMDAT ??_C@_06COGLIGFC@Dragon@
CONST	SEGMENT
??_C@_06COGLIGFC@Dragon@ DB 'Dragon', 00H		; `string'
CONST	ENDS
;	COMDAT ??_C@_06LCCDMAOM@Dodger@
CONST	SEGMENT
??_C@_06LCCDMAOM@Dodger@ DB 'Dodger', 00H		; `string'
CONST	ENDS
;	COMDAT ??_C@_05PKJPALPB@Demon@
CONST	SEGMENT
??_C@_05PKJPALPB@Demon@ DB 'Demon', 00H			; `string'
CONST	ENDS
;	COMDAT ??_C@_09NHDGGHBB@Darkhorse@
CONST	SEGMENT
??_C@_09NHDGGHBB@Darkhorse@ DB 'Darkhorse', 00H		; `string'
CONST	ENDS
;	COMDAT ??_C@_06IJHJLPBP@Cowboy@
CONST	SEGMENT
??_C@_06IJHJLPBP@Cowboy@ DB 'Cowboy', 00H		; `string'
CONST	ENDS
;	COMDAT ??_C@_06CNANOIIM@Cougar@
CONST	SEGMENT
??_C@_06CNANOIIM@Cougar@ DB 'Cougar', 00H		; `string'
CONST	ENDS
;	COMDAT ??_C@_06CCBGMMPL@Condor@
CONST	SEGMENT
??_C@_06CCBGMMPL@Condor@ DB 'Condor', 00H		; `string'
CONST	ENDS
;	COMDAT ??_C@_05BAJAFMOF@Comet@
CONST	SEGMENT
??_C@_05BAJAFMOF@Comet@ DB 'Comet', 00H			; `string'
CONST	ENDS
;	COMDAT ??_C@_05GGCPBPFC@Cobra@
CONST	SEGMENT
??_C@_05GGCPBPFC@Cobra@ DB 'Cobra', 00H			; `string'
CONST	ENDS
;	COMDAT ??_C@_09HFHEFMOM@Chieftain@
CONST	SEGMENT
??_C@_09HFHEFMOM@Chieftain@ DB 'Chieftain', 00H		; `string'
CONST	ENDS
;	COMDAT ??_C@_07IMBBPGLN@Cheetah@
CONST	SEGMENT
??_C@_07IMBBPGLN@Cheetah@ DB 'Cheetah', 00H		; `string'
CONST	ENDS
;	COMDAT ??_C@_07DAMIFFEP@Charger@
CONST	SEGMENT
??_C@_07DAMIFFEP@Charger@ DB 'Charger', 00H		; `string'
CONST	ENDS
;	COMDAT ??_C@_07LBLCFOMO@Bulldog@
CONST	SEGMENT
??_C@_07LBLCFOMO@Bulldog@ DB 'Bulldog', 00H		; `string'
CONST	ENDS
;	COMDAT ??_C@_0L@MEJDOLNL@Bloodhound@
CONST	SEGMENT
??_C@_0L@MEJDOLNL@Bloodhound@ DB 'Bloodhound', 00H	; `string'
CONST	ENDS
;	COMDAT ??_C@_07PICMBPKH@Banshee@
CONST	SEGMENT
??_C@_07PICMBPKH@Banshee@ DB 'Banshee', 00H		; `string'
CONST	ENDS
;	COMDAT ??_C@_06LFBADCEI@Archer@
CONST	SEGMENT
??_C@_06LFBADCEI@Archer@ DB 'Archer', 00H		; `string'
CONST	ENDS
;	COMDAT ??_C@_06ECPHLOIG@Apollo@
CONST	SEGMENT
??_C@_06ECPHLOIG@Apollo@ DB 'Apollo', 00H		; `string'
CONST	ENDS
;	COMDAT ??_C@_05INJOKMGD@Angel@
CONST	SEGMENT
??_C@_05INJOKMGD@Angel@ DB 'Angel', 00H			; `string'
?group_callsign_names@@3PAUGROUP_CALLSIGN_NAME_TYPE@@A DD FLAT:??_C@_05INJOKMGD@Angel@ ; group_callsign_names
	DB	00H
	DB	00H
	DB	00H
	ORG $+1
	DD	FLAT:??_C@_06ECPHLOIG@Apollo@
	DB	00H
	DB	00H
	DB	00H
	ORG $+1
	DD	FLAT:??_C@_06LFBADCEI@Archer@
	DB	00H
	DB	00H
	DB	00H
	ORG $+1
	DD	FLAT:??_C@_07PICMBPKH@Banshee@
	DB	00H
	DB	00H
	DB	00H
	ORG $+1
	DD	FLAT:??_C@_0L@MEJDOLNL@Bloodhound@
	DB	00H
	DB	00H
	DB	00H
	ORG $+1
	DD	FLAT:??_C@_07LBLCFOMO@Bulldog@
	DB	00H
	DB	00H
	DB	00H
	ORG $+1
	DD	FLAT:??_C@_07DAMIFFEP@Charger@
	DB	00H
	DB	00H
	DB	00H
	ORG $+1
	DD	FLAT:??_C@_07IMBBPGLN@Cheetah@
	DB	00H
	DB	00H
	DB	00H
	ORG $+1
	DD	FLAT:??_C@_09HFHEFMOM@Chieftain@
	DB	00H
	DB	00H
	DB	00H
	ORG $+1
	DD	FLAT:??_C@_05GGCPBPFC@Cobra@
	DB	00H
	DB	00H
	DB	00H
	ORG $+1
	DD	FLAT:??_C@_05BAJAFMOF@Comet@
	DB	00H
	DB	00H
	DB	00H
	ORG $+1
	DD	FLAT:??_C@_06CCBGMMPL@Condor@
	DB	00H
	DB	00H
	DB	00H
	ORG $+1
	DD	FLAT:??_C@_06CNANOIIM@Cougar@
	DB	00H
	DB	00H
	DB	00H
	ORG $+1
	DD	FLAT:??_C@_06IJHJLPBP@Cowboy@
	DB	00H
	DB	00H
	DB	00H
	ORG $+1
	DD	FLAT:??_C@_09NHDGGHBB@Darkhorse@
	DB	00H
	DB	00H
	DB	00H
	ORG $+1
	DD	FLAT:??_C@_05PKJPALPB@Demon@
	DB	00H
	DB	00H
	DB	00H
	ORG $+1
	DD	FLAT:??_C@_06LCCDMAOM@Dodger@
	DB	00H
	DB	00H
	DB	00H
	ORG $+1
	DD	FLAT:??_C@_06COGLIGFC@Dragon@
	DB	00H
	DB	00H
	DB	00H
	ORG $+1
	DD	FLAT:??_C@_05EKEMPJGC@Eagle@
	DB	00H
	DB	00H
	DB	00H
	ORG $+1
	DD	FLAT:??_C@_0L@KPKAOMBH@Eight?9Ball@
	DB	00H
	DB	00H
	DB	00H
	ORG $+1
	DD	FLAT:??_C@_08GBDKHDHI@Farsight@
	DB	00H
	DB	00H
	DB	00H
	ORG $+1
	DD	FLAT:??_C@_08LAPJNHAD@Fireball@
	DB	00H
	DB	00H
	DB	00H
	ORG $+1
	DD	FLAT:??_C@_08KLCMPLJO@Firebird@
	DB	00H
	DB	00H
	DB	00H
	ORG $+1
	DD	FLAT:??_C@_07MGBJGBAB@Firefox@
	DB	00H
	DB	00H
	DB	00H
	ORG $+1
	DD	FLAT:??_C@_0L@FPMNLDO@Freelancer@
	DB	00H
	DB	00H
	DB	00H
	ORG $+1
	DD	FLAT:??_C@_05ECONJKNH@Gator@
	DB	00H
	DB	00H
	DB	00H
	ORG $+1
	DD	FLAT:??_C@_08ELAHAPJB@Gauntlet@
	DB	00H
	DB	00H
	DB	00H
	ORG $+1
	DD	FLAT:??_C@_0L@CFIAOBNI@Ghostrider@
	DB	00H
	DB	00H
	DB	00H
	ORG $+1
	DD	FLAT:??_C@_09IIIKJBPO@Gladiator@
	DB	00H
	DB	00H
	DB	00H
	ORG $+1
	DD	FLAT:??_C@_07FCCJLMDG@Goliath@
	DB	00H
	DB	00H
	DB	00H
	ORG $+1
	DD	FLAT:??_C@_05GKHKCKKK@Goose@
	DB	00H
	DB	00H
	DB	00H
	ORG $+1
	DD	FLAT:??_C@_07PKPDAOLG@Hawkeye@
	DB	00H
	DB	00H
	DB	00H
	ORG $+1
	DD	FLAT:??_C@_07LBAKIKOJ@Hellcat@
	DB	00H
	DB	00H
	DB	00H
	ORG $+1
	DD	FLAT:??_C@_06NPNCGLLF@Hunter@
	DB	00H
	DB	00H
	DB	00H
	ORG $+1
	DD	FLAT:??_C@_06GCKPJHNJ@Jaguar@
	DB	00H
	DB	00H
	DB	00H
	ORG $+1
	DD	FLAT:??_C@_06NDOLCLDE@Jester@
	DB	00H
	DB	00H
	DB	00H
	ORG $+1
	DD	FLAT:??_C@_07LEJIDMLG@Jupiter@
	DB	00H
	DB	00H
	DB	00H
	ORG $+1
	DD	FLAT:??_C@_0L@HBEGIEOA@Juggernaut@
	DB	00H
	DB	00H
	DB	00H
	ORG $+1
	DD	FLAT:??_C@_07PACCOBHI@Kestrel@
	DB	00H
	DB	00H
	DB	00H
	ORG $+1
	DD	FLAT:??_C@_06HOBEGAAN@Lancer@
	DB	00H
	DB	00H
	DB	00H
	ORG $+1
	DD	FLAT:??_C@_04NOBJAHLG@Lima@
	DB	00H
	DB	00H
	DB	00H
	ORG $+1
	DD	FLAT:??_C@_06ODAOAABB@Maniac@
	DB	00H
	DB	00H
	DB	00H
	ORG $+1
	DD	FLAT:??_C@_06FKMMMLK@Mantis@
	DB	00H
	DB	00H
	DB	00H
	ORG $+1
	DD	FLAT:??_C@_06JHDANNHM@Mauler@
	DB	00H
	DB	00H
	DB	00H
	ORG $+1
	DD	FLAT:??_C@_07JMNKBLJA@Mercury@
	DB	00H
	DB	00H
	DB	00H
	ORG $+1
	DD	FLAT:??_C@_06FBOMOHED@Merlin@
	DB	00H
	DB	00H
	DB	00H
	ORG $+1
	DD	FLAT:??_C@_07NMJILPAB@Milkman@
	DB	00H
	DB	00H
	DB	00H
	ORG $+1
	DD	FLAT:??_C@_07PMJOLKGK@Mustang@
	DB	00H
	DB	00H
	DB	00H
	ORG $+1
	DD	FLAT:??_C@_09DDMFHDNE@Nightmare@
	DB	00H
	DB	00H
	DB	00H
	ORG $+1
	DD	FLAT:??_C@_07HBBBHBHH@Panther@
	DB	00H
	DB	00H
	DB	00H
	ORG $+1
	DD	FLAT:??_C@_07LPGNOABP@Patriot@
	DB	00H
	DB	00H
	DB	00H
	ORG $+1
	DD	FLAT:??_C@_07OFINGKDN@Phantom@
	DB	00H
	DB	00H
	DB	00H
	ORG $+1
	DD	FLAT:??_C@_07KEMLBHAB@Phoenix@
	DB	00H
	DB	00H
	DB	00H
	ORG $+1
	DD	FLAT:??_C@_08OMOCEDLJ@Preacher@
	DB	00H
	DB	00H
	DB	00H
	ORG $+1
	DD	FLAT:??_C@_06CHFOMGOI@Python@
	DB	00H
	DB	00H
	DB	00H
	ORG $+1
	DD	FLAT:??_C@_06FGHMEEIN@Raptor@
	DB	00H
	DB	00H
	DB	00H
	ORG $+1
	DD	FLAT:??_C@_0M@LNDBEIHA@Rattlesnake@
	DB	00H
	DB	00H
	DB	00H
	ORG $+1
	DD	FLAT:??_C@_09EAPIDKNL@Razorback@
	DB	00H
	DB	00H
	DB	00H
	ORG $+1
	DD	FLAT:??_C@_0L@BBNNMEOA@Razorworks@
	DB	00H
	DB	00H
	DB	00H
	ORG $+1
	DD	FLAT:??_C@_06BCJIKKCI@Reaper@
	DB	00H
	DB	00H
	DB	00H
	ORG $+1
	DD	FLAT:??_C@_08KBDFECAK@Renegade@
	DB	00H
	DB	00H
	DB	00H
	ORG $+1
	DD	FLAT:??_C@_05LOKFGGKM@Sabre@
	DB	00H
	DB	00H
	DB	00H
	ORG $+1
	DD	FLAT:??_C@_06BDBMMIBK@Savage@
	DB	00H
	DB	00H
	DB	00H
	ORG $+1
	DD	FLAT:??_C@_06KHOKADBJ@Shadow@
	DB	00H
	DB	00H
	DB	00H
	ORG $+1
	DD	FLAT:??_C@_07BLNFDIEN@Sheriff@
	DB	00H
	DB	00H
	DB	00H
	ORG $+1
	DD	FLAT:??_C@_06IANOJNCI@Shogun@
	DB	00H
	DB	00H
	DB	00H
	ORG $+1
	DD	FLAT:??_C@_08BEHMIHLK@Snowball@
	DB	00H
	DB	00H
	DB	00H
	ORG $+1
	DD	FLAT:??_C@_09FHKNOJJG@Spartakus@
	DB	00H
	DB	00H
	DB	00H
	ORG $+1
	DD	FLAT:??_C@_08OGJKIIIN@Spectrum@
	DB	00H
	DB	00H
	DB	00H
	ORG $+1
	DD	FLAT:??_C@_07HJALAEIF@Stalker@
	DB	00H
	DB	00H
	DB	00H
	ORG $+1
	DD	FLAT:??_C@_08LCPMOHG@Stingray@
	DB	00H
	DB	00H
	DB	00H
	ORG $+1
	DD	FLAT:??_C@_07DEKJPLMA@Striker@
	DB	00H
	DB	00H
	DB	00H
	ORG $+1
	DD	FLAT:??_C@_07GIONELDB@Sundown@
	DB	00H
	DB	00H
	DB	00H
	ORG $+1
	DD	FLAT:??_C@_09ENFBHKI@Swamp?9Fox@
	DB	00H
	DB	00H
	DB	00H
	ORG $+1
	DD	FLAT:??_C@_07MOJLCPGJ@Tempest@
	DB	00H
	DB	00H
	DB	00H
	ORG $+1
	DD	FLAT:??_C@_0M@IEKADNOM@Tiger?9Shark@
	DB	00H
	DB	00H
	DB	00H
	ORG $+1
	DD	FLAT:??_C@_09DACOLFFB@Touchdown@
	DB	00H
	DB	00H
	DB	00H
	ORG $+1
	DD	FLAT:??_C@_07GADMPKJI@Vampire@
	DB	00H
	DB	00H
	DB	00H
	ORG $+1
	DD	FLAT:??_C@_07HDHBEBBE@Vertigo@
	DB	00H
	DB	00H
	DB	00H
	ORG $+1
	DD	FLAT:??_C@_09NHFALIGP@Vigilante@
	DB	00H
	DB	00H
	DB	00H
	ORG $+1
	DD	FLAT:??_C@_06MNFEEHAB@Viking@
	DB	00H
	DB	00H
	DB	00H
	ORG $+1
	DD	FLAT:??_C@_05DIOCBCKJ@Viper@
	DB	00H
	DB	00H
	DB	00H
	ORG $+1
	DD	FLAT:??_C@_06NFPMDKDO@Voodoo@
	DB	00H
	DB	00H
	DB	00H
	ORG $+1
	DD	FLAT:??_C@_06LOEDEFOB@Vulcan@
	DB	00H
	DB	00H
	DB	00H
	ORG $+1
	DD	FLAT:??_C@_07NHLONPAH@Vulture@
	DB	00H
	DB	00H
	DB	00H
	ORG $+1
	DD	FLAT:??_C@_07FNAKILNO@Warlock@
	DB	00H
	DB	00H
	DB	00H
	ORG $+1
	DD	FLAT:??_C@_07MHHGFOFG@Warlord@
	DB	00H
	DB	00H
	DB	00H
	ORG $+1
	DD	FLAT:??_C@_07DFKLKNJN@Warrior@
	DB	00H
	DB	00H
	DB	00H
	ORG $+1
	DD	FLAT:??_C@_07ODEBIINL@Wildcat@
	DB	00H
	DB	00H
	DB	00H
	ORG $+1
	DD	FLAT:??_C@_08CCGFAIJD@Wolfpack@
	DB	00H
	DB	00H
	DB	00H
	ORG $+1
	DD	FLAT:??_C@_0BE@CLCBKHBL@NUM_GROUP_CALLSIGNS@
	DB	00H
	DB	00H
	DB	00H
	ORG $+1
PUBLIC	?initialise_group_callsign_database@@YGXXZ	; initialise_group_callsign_database
PUBLIC	?group_kill_all_members@@YGXPAUENTITY@@@Z	; group_kill_all_members
PUBLIC	?group_terminate_all_tasks@@YGXPAUENTITY@@@Z	; group_terminate_all_tasks
PUBLIC	?get_group_suitable_for_player@@YGHPAUENTITY@@0@Z ; get_group_suitable_for_player
PUBLIC	?set_group_verbose_operational_state@@YGXPAUENTITY@@H@Z ; set_group_verbose_operational_state
PUBLIC	?group_task_specific_retaliation_checks@@YGHPAUENTITY@@0H@Z ; group_task_specific_retaliation_checks
PUBLIC	?get_group_at_road_node@@YGPAUENTITY@@H@Z	; get_group_at_road_node
PUBLIC	?group_return_to_base@@YGXPAUENTITY@@@Z		; group_return_to_base
PUBLIC	?kill_client_server_group_entity@@YGXPAUENTITY@@@Z ; kill_client_server_group_entity
PUBLIC	?free_group_callsign@@YGXPAUENTITY@@@Z		; free_group_callsign
PUBLIC	?assign_group_callsign@@YGHPAUENTITY@@@Z	; assign_group_callsign
PUBLIC	?check_group_task_type@@YGHPAUENTITY@@H@Z	; check_group_task_type
PUBLIC	?check_group_task_type_valid_members@@YGHPAUENTITY@@H@Z ; check_group_task_type_valid_members
PUBLIC	?assess_group_supplies@@YGXPAUENTITY@@@Z	; assess_group_supplies
PUBLIC	?create_group_emergency_transfer_task@@YGHPAUENTITY@@@Z ; create_group_emergency_transfer_task
PUBLIC	?amalgamate_groups@@YGHPAUENTITY@@0@Z		; amalgamate_groups
PUBLIC	?group_destroy_all_members@@YGXPAUENTITY@@@Z	; group_destroy_all_members
PUBLIC	?assess_group_task_locality_factor@@YGHPAUENTITY@@0PAM@Z ; assess_group_task_locality_factor
PUBLIC	?get_local_group_member_count@@YGHPAUENTITY@@@Z	; get_local_group_member_count
PUBLIC	?set_group_member_numbers@@YGXPAUENTITY@@@Z	; set_group_member_numbers
END
