; Listing generated by Microsoft (R) Optimizing Compiler Version 19.16.27045.0 

	TITLE	c:\users\nhv90\projects\eech\aphavoc\source\gunships\avionics\havoc\ha_avlmp.c
	.686P
	.XMM
	include listing.inc
	.model	flat

INCLUDELIB OLDNAMES

PUBLIC	??_C@_0BJ@OCEKHJAL@Invalid?5threat?5type?5?$DN?5?$CFd@ ; `string'
;	COMDAT ??_C@_0BJ@OCEKHJAL@Invalid?5threat?5type?5?$DN?5?$CFd@
CONST	SEGMENT
??_C@_0BJ@OCEKHJAL@Invalid?5threat?5type?5?$DN?5?$CFd@ DB 'Invalid threat'
	DB	' type = %d', 00H				; `string'
PUBLIC	?activate_havoc_master_caution_lamp@@YGXXZ	; activate_havoc_master_caution_lamp
PUBLIC	?deactivate_havoc_master_caution_lamp@@YGXXZ	; deactivate_havoc_master_caution_lamp
PUBLIC	?initialise_havoc_lamp_avionics@@YGXXZ		; initialise_havoc_lamp_avionics
PUBLIC	?deinitialise_havoc_lamp_avionics@@YGXXZ	; deinitialise_havoc_lamp_avionics
PUBLIC	?update_havoc_lamp_avionics@@YGXXZ		; update_havoc_lamp_avionics
?master_caution_alert@@3HA DD 01H DUP (?)		; master_caution_alert
?engine_damage_imminent_status@@3HA DD 01H DUP (?)	; engine_damage_imminent_status
?previous_engine_damage_imminent_status@@3HA DD 01H DUP (?) ; previous_engine_damage_imminent_status
?master_caution_flash_timer@@3MA DD 01H DUP (?)		; master_caution_flash_timer
?master_caution_sound_timer@@3MA DD 01H DUP (?)		; master_caution_sound_timer
?closest_missile_flash_state@@3HA DD 01H DUP (?)	; closest_missile_flash_state
?closest_missile_flash_timer@@3MA DD 01H DUP (?)	; closest_missile_flash_timer
?weapon_armed_flash_state@@3HA DD 01H DUP (?)		; weapon_armed_flash_state
?weapon_armed_flash_timer@@3MA DD 01H DUP (?)		; weapon_armed_flash_timer
_BSS	ENDS
END
