; Listing generated by Microsoft (R) Optimizing Compiler Version 19.16.27045.0 

	TITLE	c:\users\nhv90\projects\eech\aphavoc\source\gunships\avionics\havoc\ha_radar.c
	.686P
	.XMM
	include listing.inc
	.model	flat

INCLUDELIB OLDNAMES

PUBLIC	?radar_range_havoc@@3PAMA			; radar_range_havoc
PUBLIC	?HAVOC_RADAR_SCAN_RANGE_6000@@3MA		; HAVOC_RADAR_SCAN_RANGE_6000
PUBLIC	?HAVOC_RADAR_SCAN_RANGE_4000@@3MA		; HAVOC_RADAR_SCAN_RANGE_4000
PUBLIC	?HAVOC_RADAR_SCAN_RANGE_2000@@3MA		; HAVOC_RADAR_SCAN_RANGE_2000
PUBLIC	?HAVOC_RADAR_SCAN_RANGE_1000@@3MA		; HAVOC_RADAR_SCAN_RANGE_1000
?radar_range_havoc@@3PAMA DD 04H DUP (?)		; radar_range_havoc
?HAVOC_RADAR_SCAN_RANGE_6000@@3MA DD 01H DUP (?)	; HAVOC_RADAR_SCAN_RANGE_6000
?HAVOC_RADAR_SCAN_RANGE_4000@@3MA DD 01H DUP (?)	; HAVOC_RADAR_SCAN_RANGE_4000
?HAVOC_RADAR_SCAN_RANGE_2000@@3MA DD 01H DUP (?)	; HAVOC_RADAR_SCAN_RANGE_2000
?HAVOC_RADAR_SCAN_RANGE_1000@@3MA DD 01H DUP (?)	; HAVOC_RADAR_SCAN_RANGE_1000
_BSS	ENDS
PUBLIC	?centre_havoc_air_radar@@YGXXZ			; centre_havoc_air_radar
PUBLIC	?update_havoc_air_radar@@YGXXZ			; update_havoc_air_radar
PUBLIC	?centre_havoc_ground_radar@@YGXXZ		; centre_havoc_ground_radar
PUBLIC	?update_havoc_ground_radar@@YGXXZ		; update_havoc_ground_radar
PUBLIC	?deinitialise_havoc_radar@@YGXXZ		; deinitialise_havoc_radar
PUBLIC	?initialise_havoc_radar@@YGXXZ			; initialise_havoc_radar
END
