; Listing generated by Microsoft (R) Optimizing Compiler Version 19.16.27045.0 

	TITLE	c:\users\nhv90\projects\eech\aphavoc\source\entity\mobile\aircraft\helicop\helicop.c
	.686P
	.XMM
	include listing.inc
	.model	flat

INCLUDELIB OLDNAMES

PUBLIC	?gunship_entity@@3PAUENTITY@@A			; gunship_entity
PUBLIC	?gunship_current_sector@@3PAUSECTOR@@A		; gunship_current_sector
PUBLIC	??_C@_0N@NLMBCFFH@input?5events@		; `string'
PUBLIC	??_C@_0L@BEIPCALH@Mission?5?$CFs@		; `string'
PUBLIC	??_C@_0CD@IMCJODJH@HELICOP?3?5unknown?5task?5completed@ ; `string'
?gunship_entity@@3PAUENTITY@@A DD 01H DUP (?)		; gunship_entity
?gunship_current_sector@@3PAUSECTOR@@A DD 01H DUP (?)	; gunship_current_sector
_BSS	ENDS
;	COMDAT ??_C@_0CD@IMCJODJH@HELICOP?3?5unknown?5task?5completed@
CONST	SEGMENT
??_C@_0CD@IMCJODJH@HELICOP?3?5unknown?5task?5completed@ DB 'HELICOP: unkn'
	DB	'own task completed %d', 00H			; `string'
CONST	ENDS
;	COMDAT ??_C@_0L@BEIPCALH@Mission?5?$CFs@
CONST	SEGMENT
??_C@_0L@BEIPCALH@Mission?5?$CFs@ DB 'Mission %s', 00H	; `string'
CONST	ENDS
;	COMDAT ??_C@_0N@NLMBCFFH@input?5events@
CONST	SEGMENT
??_C@_0N@NLMBCFFH@input?5events@ DB 'input events', 00H	; `string'
PUBLIC	?helicopter_within_keysite_area@@YGHPAUENTITY@@@Z ; helicopter_within_keysite_area
PUBLIC	?get_helicopter_allowed_to_rearm@@YGHPAUENTITY@@@Z ; get_helicopter_allowed_to_rearm
PUBLIC	?transmit_player_recon_data@@YGXPAUENTITY@@@Z	; transmit_player_recon_data
PUBLIC	?get_local_entity_suitable_for_player@@YGHPAUENTITY@@0@Z ; get_local_entity_suitable_for_player
PUBLIC	?play_helicopter_winding_rotor_sounds@@YGXPAUENTITY@@HH@Z ; play_helicopter_winding_rotor_sounds
PUBLIC	?notify_gunship_entity_mission_completed@@YGXPAUENTITY@@0@Z ; notify_gunship_entity_mission_completed
PUBLIC	?restore_helicopter_entity@@YGXPAUENTITY@@PAUVEC3D@@W4OPERATIONAL_STATE_TYPES@@@Z ; restore_helicopter_entity
PUBLIC	?set_gunship_entity_to_external_view_entity@@YGXPAUEVENT@@@Z ; set_gunship_entity_to_external_view_entity
PUBLIC	?update_local_helicopter_rotor_sounds@@YGXPAUENTITY@@@Z ; update_local_helicopter_rotor_sounds
PUBLIC	?kill_helicopter_rotor_sound_effects@@YGXPAUENTITY@@@Z ; kill_helicopter_rotor_sound_effects
PUBLIC	?helicopter_assume_player_control@@YGXPAUENTITY@@@Z ; helicopter_assume_player_control
PUBLIC	?helicopter_release_player_control@@YGXPAUENTITY@@@Z ; helicopter_release_player_control
PUBLIC	?set_raw_gunship_entity@@YGXPAUENTITY@@@Z	; set_raw_gunship_entity
PUBLIC	?notify_gunship_entity_mission_terminated@@YGXPAUENTITY@@0@Z ; notify_gunship_entity_mission_terminated
PUBLIC	?player_mission_logged@@YGHXZ			; player_mission_logged
PUBLIC	?set_gunship_entity@@YGXPAUENTITY@@@Z		; set_gunship_entity
PUBLIC	?create_helicopter_rotor_sound_effects@@YGXPAUENTITY@@@Z ; create_helicopter_rotor_sound_effects
PUBLIC	?assign_entity_to_user@@YGXPAUENTITY@@@Z	; assign_entity_to_user
?mission_logged@@3HA DD 01H DUP (?)			; mission_logged
_BSS	ENDS
END
