; Listing generated by Microsoft (R) Optimizing Compiler Version 19.16.27045.0 

	TITLE	c:\users\nhv90\projects\eech\aphavoc\source\gunships\cockpits\hind\hi_3dvckpt.c
	.686P
	.XMM
	include listing.inc
	.model	flat

INCLUDELIB OLDNAMES

PUBLIC	?switch_animations@@3PAUcockpit_switch@@A	; switch_animations
;	COMDAT ?fan_speed@?1??animate_fan@@YGXXZ@4MA
_BSS	SEGMENT
?fan_speed@?1??animate_fan@@YGXXZ@4MA DD 01H DUP (?)	; `animate_fan'::`2'::fan_speed
?switch_animations@@3PAUcockpit_switch@@A DB 048H DUP (?) ; switch_animations
_BSS	ENDS
PUBLIC	?draw_hind_external_3d_cockpit@@YGXIPAE@Z	; draw_hind_external_3d_cockpit
PUBLIC	?draw_hind_internal_3d_cockpit@@YGXI@Z		; draw_hind_internal_3d_cockpit
PUBLIC	?damage_hind_3d_cockpit_main_rotors@@YGXH@Z	; damage_hind_3d_cockpit_main_rotors
PUBLIC	?restore_hind_3d_cockpit_main_rotors@@YGXXZ	; restore_hind_3d_cockpit_main_rotors
PUBLIC	?initialise_hind_3d_cockpit@@YGXXZ		; initialise_hind_3d_cockpit
PUBLIC	?deinitialise_hind_3d_cockpit@@YGXXZ		; deinitialise_hind_3d_cockpit
PUBLIC	?update_hind_3d_cockpit@@YGXXZ			; update_hind_3d_cockpit
PUBLIC	?move_by_rate@@YGMMMM@Z				; move_by_rate
PUBLIC	?get_hind_3d_cockpit_hud_view_position@@YGXPAM00@Z ; get_hind_3d_cockpit_hud_view_position
PUBLIC	?toggle_mi24_cockpit_doors@@YGXXZ		; toggle_mi24_cockpit_doors
PUBLIC	?toggle_mi24_cockpit_fan@@YGXXZ			; toggle_mi24_cockpit_fan
?virtual_pilot_cockpit_inst3d@@3PAUOBJECT_3D_INSTANCE@@A DD 01H DUP (?) ; virtual_pilot_cockpit_inst3d
?virtual_cockpit_canopy_inst3d@@3PAUOBJECT_3D_INSTANCE@@A DD 01H DUP (?) ; virtual_cockpit_canopy_inst3d
?virtual_cockpit_pilot_door_inst3d@@3PAUOBJECT_3D_INSTANCE@@A DD 01H DUP (?) ; virtual_cockpit_pilot_door_inst3d
?virtual_cockpit_external_inst3d@@3PAUOBJECT_3D_INSTANCE@@A DD 01H DUP (?) ; virtual_cockpit_external_inst3d
?virtual_cockpit_canopy_reflection_inst3d@@3PAUOBJECT_3D_INSTANCE@@A DD 01H DUP (?) ; virtual_cockpit_canopy_reflection_inst3d
?virtual_cockpit_canopy_details_inst3d@@3PAUOBJECT_3D_INSTANCE@@A DD 01H DUP (?) ; virtual_cockpit_canopy_details_inst3d
?virtual_cockpit_hud_glass_inst3d@@3PAUOBJECT_3D_INSTANCE@@A DD 01H DUP (?) ; virtual_cockpit_hud_glass_inst3d
?virtual_cockpit_hud_display_inst3d@@3PAUOBJECT_3D_INSTANCE@@A DD 01H DUP (?) ; virtual_cockpit_hud_display_inst3d
?virtual_cockpit_map_display_inst3d@@3PAUOBJECT_3D_INSTANCE@@A DD 01H DUP (?) ; virtual_cockpit_map_display_inst3d
?virtual_cockpit_pilot_instruments_inst3d@@3PAUOBJECT_3D_INSTANCE@@A DD 01H DUP (?) ; virtual_cockpit_pilot_instruments_inst3d
?virtual_cockpit_pilot_secondary_instruments_inst3d@@3PAUOBJECT_3D_INSTANCE@@A DD 01H DUP (?) ; virtual_cockpit_pilot_secondary_instruments_inst3d
?virtual_cockpit_warning_lamps_inst3d@@3PAUOBJECT_3D_INSTANCE@@A DD 01H DUP (?) ; virtual_cockpit_warning_lamps_inst3d
?virtual_cockpit_main_rotor_inst3d@@3PAUOBJECT_3D_INSTANCE@@A DD 01H DUP (?) ; virtual_cockpit_main_rotor_inst3d
?virtual_cockpit_adi_inst3d@@3PAUOBJECT_3D_INSTANCE@@A DD 01H DUP (?) ; virtual_cockpit_adi_inst3d
?virtual_cockpit_hsi_inst3d@@3PAUOBJECT_3D_INSTANCE@@A DD 01H DUP (?) ; virtual_cockpit_hsi_inst3d
?virtual_cockpit_ekran_display_inst3d@@3PAUOBJECT_3D_INSTANCE@@A DD 01H DUP (?) ; virtual_cockpit_ekran_display_inst3d
?virtual_cockpit_compass_inst3d@@3PAUOBJECT_3D_INSTANCE@@A DD 01H DUP (?) ; virtual_cockpit_compass_inst3d
?high_detail@@3PAUOBJECT_3D_SUB_INSTANCE@@A DD 01H DUP (?) ; high_detail
?door_high_detail@@3PAUOBJECT_3D_SUB_INSTANCE@@A DD 01H DUP (?) ; door_high_detail
?door_handle@@3PAUOBJECT_3D_SUB_INSTANCE@@A DD 01H DUP (?) ; door_handle
?fan_object@@3PAUOBJECT_3D_SUB_INSTANCE@@A DD 01H DUP (?) ; fan_object
?spinning_fan_object@@3PAUOBJECT_3D_SUB_INSTANCE@@A DD 01H DUP (?) ; spinning_fan_object
?compass_object@@3PAUOBJECT_3D_SUB_INSTANCE@@A DD 01H DUP (?) ; compass_object
?airspeed_needle@@3PAUOBJECT_3D_SUB_INSTANCE@@A DD 01H DUP (?) ; airspeed_needle
?vvi_needle@@3PAUOBJECT_3D_SUB_INSTANCE@@A DD 01H DUP (?) ; vvi_needle
?radar_altimeter@@3PAUOBJECT_3D_SUB_INSTANCE@@A DD 01H DUP (?) ; radar_altimeter
?barometric_altimeter_short@@3PAUOBJECT_3D_SUB_INSTANCE@@A DD 01H DUP (?) ; barometric_altimeter_short
?barometric_altimeter_long@@3PAUOBJECT_3D_SUB_INSTANCE@@A DD 01H DUP (?) ; barometric_altimeter_long
?bank_indicator@@3PAUOBJECT_3D_SUB_INSTANCE@@A DD 01H DUP (?) ; bank_indicator
?hover_indicator_speed@@3PAUOBJECT_3D_SUB_INSTANCE@@A DD 01H DUP (?) ; hover_indicator_speed
?hover_indicator_sideways@@3PAUOBJECT_3D_SUB_INSTANCE@@A DD 01H DUP (?) ; hover_indicator_sideways
?hover_indicator_vvi@@3PAUOBJECT_3D_SUB_INSTANCE@@A DD 01H DUP (?) ; hover_indicator_vvi
?pitch_ladder_pitch@@3PAUOBJECT_3D_SUB_INSTANCE@@A DD 01H DUP (?) ; pitch_ladder_pitch
?pitch_ladder_roll@@3PAUOBJECT_3D_SUB_INSTANCE@@A DD 01H DUP (?) ; pitch_ladder_roll
?horizon_ball@@3PAUOBJECT_3D_SUB_INSTANCE@@A DD 01H DUP (?) ; horizon_ball
?pilot_head_object@@3PAUOBJECT_3D_SUB_INSTANCE@@A DD 01H DUP (?) ; pilot_head_object
?hud_view_object@@3PAUOBJECT_3D_SUB_INSTANCE@@A DD 01H DUP (?) ; hud_view_object
?map_view_object@@3PAUOBJECT_3D_SUB_INSTANCE@@A DD 01H DUP (?) ; map_view_object
?shutoff_valve_left@@3PAUOBJECT_3D_SUB_INSTANCE@@A DD 01H DUP (?) ; shutoff_valve_left
?shutoff_valve_right@@3PAUOBJECT_3D_SUB_INSTANCE@@A DD 01H DUP (?) ; shutoff_valve_right
?rotor_brake@@3PAUOBJECT_3D_SUB_INSTANCE@@A DD 01H DUP (?) ; rotor_brake
?rotor_rpm@@3PAUOBJECT_3D_SUB_INSTANCE@@A DD 01H DUP (?) ; rotor_rpm
?left_n1_rpm@@3PAUOBJECT_3D_SUB_INSTANCE@@A DD 01H DUP (?) ; left_n1_rpm
?right_n1_rpm@@3PAUOBJECT_3D_SUB_INSTANCE@@A DD 01H DUP (?) ; right_n1_rpm
?left_temperature@@3PAUOBJECT_3D_SUB_INSTANCE@@A DD 01H DUP (?) ; left_temperature
?left_temperature_small@@3PAUOBJECT_3D_SUB_INSTANCE@@A DD 01H DUP (?) ; left_temperature_small
?right_temperature@@3PAUOBJECT_3D_SUB_INSTANCE@@A DD 01H DUP (?) ; right_temperature
?right_temperature_small@@3PAUOBJECT_3D_SUB_INSTANCE@@A DD 01H DUP (?) ; right_temperature_small
?radio_compass@@3PAUOBJECT_3D_SUB_INSTANCE@@A DD 01H DUP (?) ; radio_compass
?compass_waypoint_needle@@3PAUOBJECT_3D_SUB_INSTANCE@@A DD 01H DUP (?) ; compass_waypoint_needle
?compass_waypoint_heading_needle@@3PAUOBJECT_3D_SUB_INSTANCE@@A DD 01H DUP (?) ; compass_waypoint_heading_needle
?epr_limits@@3PAUOBJECT_3D_SUB_INSTANCE@@A DD 01H DUP (?) ; epr_limits
?left_epr_needle@@3PAUOBJECT_3D_SUB_INSTANCE@@A DD 01H DUP (?) ; left_epr_needle
?right_epr_needle@@3PAUOBJECT_3D_SUB_INSTANCE@@A DD 01H DUP (?) ; right_epr_needle
?blade_pitch_needle@@3PAUOBJECT_3D_SUB_INSTANCE@@A DD 01H DUP (?) ; blade_pitch_needle
?g_force@@3PAUOBJECT_3D_SUB_INSTANCE@@A DD 01H DUP (?)	; g_force
?sidewind@@3PAUOBJECT_3D_SUB_INSTANCE@@A DD 01H DUP (?)	; sidewind
?fuel_quantity@@3PAUOBJECT_3D_SUB_INSTANCE@@A DD 01H DUP (?) ; fuel_quantity
?primary_hydraulic_psi@@3PAUOBJECT_3D_SUB_INSTANCE@@A DD 01H DUP (?) ; primary_hydraulic_psi
?secondary_hydraulic_psi@@3PAUOBJECT_3D_SUB_INSTANCE@@A DD 01H DUP (?) ; secondary_hydraulic_psi
?gear_hydraulic_psi@@3PAUOBJECT_3D_SUB_INSTANCE@@A DD 01H DUP (?) ; gear_hydraulic_psi
?clock_hour_hand@@3PAUOBJECT_3D_SUB_INSTANCE@@A DD 01H DUP (?) ; clock_hour_hand
?clock_minute_hand@@3PAUOBJECT_3D_SUB_INSTANCE@@A DD 01H DUP (?) ; clock_minute_hand
?clock_second_hand@@3PAUOBJECT_3D_SUB_INSTANCE@@A DD 01H DUP (?) ; clock_second_hand
?waypoint_indicator@@3PAUOBJECT_3D_SUB_INSTANCE@@A DD 01H DUP (?) ; waypoint_indicator
?map_background@@3PAUOBJECT_3D_SUB_INSTANCE@@A DD 01H DUP (?) ; map_background
?map_scale@@3PAUOBJECT_3D_SUB_INSTANCE@@A DD 01H DUP (?) ; map_scale
?map_caret@@3PAUOBJECT_3D_SUB_INSTANCE@@A DD 01H DUP (?) ; map_caret
?left_engine_oil_pressure@@3PAUOBJECT_3D_SUB_INSTANCE@@A DD 01H DUP (?) ; left_engine_oil_pressure
?left_engine_oil_temperature@@3PAUOBJECT_3D_SUB_INSTANCE@@A DD 01H DUP (?) ; left_engine_oil_temperature
?right_engine_oil_pressure@@3PAUOBJECT_3D_SUB_INSTANCE@@A DD 01H DUP (?) ; right_engine_oil_pressure
?right_engine_oil_temperature@@3PAUOBJECT_3D_SUB_INSTANCE@@A DD 01H DUP (?) ; right_engine_oil_temperature
?gear_lever@@3PAUOBJECT_3D_SUB_INSTANCE@@A DD 01H DUP (?) ; gear_lever
?collective@@3PAUOBJECT_3D_SUB_INSTANCE@@A DD 01H DUP (?) ; collective
?collective_throttle@@3PAUOBJECT_3D_SUB_INSTANCE@@A DD 01H DUP (?) ; collective_throttle
?pedal_link@@3PAUOBJECT_3D_SUB_INSTANCE@@A DD 01H DUP (?) ; pedal_link
?left_pedal@@3PAUOBJECT_3D_SUB_INSTANCE@@A DD 01H DUP (?) ; left_pedal
?right_pedal@@3PAUOBJECT_3D_SUB_INSTANCE@@A DD 01H DUP (?) ; right_pedal
?apu_rpm_needle@@3PAUOBJECT_3D_SUB_INSTANCE@@A DD 01H DUP (?) ; apu_rpm_needle
?apu_start_switch@@3PAUOBJECT_3D_SUB_INSTANCE@@A DD 01H DUP (?) ; apu_start_switch
?apu_stop_switch@@3PAUOBJECT_3D_SUB_INSTANCE@@A DD 01H DUP (?) ; apu_stop_switch
?apu_ready_light@@3PAUOBJECT_3D_SUB_INSTANCE@@A DD 01H DUP (?) ; apu_ready_light
?apu_rpm_light@@3PAUOBJECT_3D_SUB_INSTANCE@@A DD 01H DUP (?) ; apu_rpm_light
?apu_oil_psi_light@@3PAUOBJECT_3D_SUB_INSTANCE@@A DD 01H DUP (?) ; apu_oil_psi_light
?apu_bleedair_lights@@3PAUOBJECT_3D_SUB_INSTANCE@@A DD 01H DUP (?) ; apu_bleedair_lights
?engine_start_switch@@3PAUOBJECT_3D_SUB_INSTANCE@@A DD 01H DUP (?) ; engine_start_switch
?engine_select_switch@@3PAUOBJECT_3D_SUB_INSTANCE@@A DD 01H DUP (?) ; engine_select_switch
?engine_start_light@@3PAUOBJECT_3D_SUB_INSTANCE@@A DD 01H DUP (?) ; engine_start_light
?weapon_ready_light@@3PAUOBJECT_3D_SUB_INSTANCE@@A DD 01H DUP (?) ; weapon_ready_light
?weapon_not_ready_light@@3PAUOBJECT_3D_SUB_INSTANCE@@A DD 01H DUP (?) ; weapon_not_ready_light
?weapon_min_range_light@@3PAUOBJECT_3D_SUB_INSTANCE@@A DD 01H DUP (?) ; weapon_min_range_light
?left_battery_ammeter@@3PAUOBJECT_3D_SUB_INSTANCE@@A DD 01H DUP (?) ; left_battery_ammeter
?right_battery_ammeter@@3PAUOBJECT_3D_SUB_INSTANCE@@A DD 01H DUP (?) ; right_battery_ammeter
?apu_ammeter@@3PAUOBJECT_3D_SUB_INSTANCE@@A DD 01H DUP (?) ; apu_ammeter
?voltmeter@@3PAUOBJECT_3D_SUB_INSTANCE@@A DD 01H DUP (?) ; voltmeter
?left_generator_ammeter@@3PAUOBJECT_3D_SUB_INSTANCE@@A DD 01H DUP (?) ; left_generator_ammeter
?right_generator_ammeter@@3PAUOBJECT_3D_SUB_INSTANCE@@A DD 01H DUP (?) ; right_generator_ammeter
?left_wheel_down_light@@3PAUOBJECT_3D_SUB_INSTANCE@@A DD 01H DUP (?) ; left_wheel_down_light
?right_wheel_down_light@@3PAUOBJECT_3D_SUB_INSTANCE@@A DD 01H DUP (?) ; right_wheel_down_light
?nose_wheel_down_light@@3PAUOBJECT_3D_SUB_INSTANCE@@A DD 01H DUP (?) ; nose_wheel_down_light
?wheels_up_light@@3PAUOBJECT_3D_SUB_INSTANCE@@A DD 01H DUP (?) ; wheels_up_light
?gear_operational_light@@3PAUOBJECT_3D_SUB_INSTANCE@@A DD 01H DUP (?) ; gear_operational_light
?gear_fail_light@@3PAUOBJECT_3D_SUB_INSTANCE@@A DD 01H DUP (?) ; gear_fail_light
?cockpit_open_light@@3PAUOBJECT_3D_SUB_INSTANCE@@A DD 01H DUP (?) ; cockpit_open_light
?cockpit_sealed_light@@3PAUOBJECT_3D_SUB_INSTANCE@@A DD 01H DUP (?) ; cockpit_sealed_light
?park_brake_light@@3PAUOBJECT_3D_SUB_INSTANCE@@A DD 01H DUP (?) ; park_brake_light
?auto_hover_light@@3PAUOBJECT_3D_SUB_INSTANCE@@A DD 01H DUP (?) ; auto_hover_light
?auto_pilot_light@@3PAUOBJECT_3D_SUB_INSTANCE@@A DD 01H DUP (?) ; auto_pilot_light
?auto_pilot_off_light@@3PAUOBJECT_3D_SUB_INSTANCE@@A DD 01H DUP (?) ; auto_pilot_off_light
?auto_altitude_light@@3PAUOBJECT_3D_SUB_INSTANCE@@A DD 01H DUP (?) ; auto_altitude_light
?auto_altitude_off_light@@3PAUOBJECT_3D_SUB_INSTANCE@@A DD 01H DUP (?) ; auto_altitude_off_light
?external_light_lamps@@3PAUOBJECT_3D_SUB_INSTANCE@@A DD 01H DUP (?) ; external_light_lamps
?left_outer_pylon_light@@3PAUOBJECT_3D_SUB_INSTANCE@@A DD 01H DUP (?) ; left_outer_pylon_light
?left_inner_pylon_light@@3PAUOBJECT_3D_SUB_INSTANCE@@A DD 01H DUP (?) ; left_inner_pylon_light
?right_inner_pylon_light@@3PAUOBJECT_3D_SUB_INSTANCE@@A DD 01H DUP (?) ; right_inner_pylon_light
?right_outer_pylon_light@@3PAUOBJECT_3D_SUB_INSTANCE@@A DD 01H DUP (?) ; right_outer_pylon_light
?fire_light@@3PAUOBJECT_3D_SUB_INSTANCE@@A DD 01H DUP (?) ; fire_light
?left_engine_fire_light@@3PAUOBJECT_3D_SUB_INSTANCE@@A DD 01H DUP (?) ; left_engine_fire_light
?right_engine_fire_light@@3PAUOBJECT_3D_SUB_INSTANCE@@A DD 01H DUP (?) ; right_engine_fire_light
?left_engine_fail_light@@3PAUOBJECT_3D_SUB_INSTANCE@@A DD 01H DUP (?) ; left_engine_fail_light
?right_engine_fail_light@@3PAUOBJECT_3D_SUB_INSTANCE@@A DD 01H DUP (?) ; right_engine_fail_light
?over_stress_light@@3PAUOBJECT_3D_SUB_INSTANCE@@A DD 01H DUP (?) ; over_stress_light
?low_fuel_lights@@3PAUOBJECT_3D_SUB_INSTANCE@@A DD 01H DUP (?) ; low_fuel_lights
?gyro_fail_lights@@3PAUOBJECT_3D_SUB_INSTANCE@@A DD 01H DUP (?) ; gyro_fail_lights
?left_engine_over_temperature_light@@3PAUOBJECT_3D_SUB_INSTANCE@@A DD 01H DUP (?) ; left_engine_over_temperature_light
?right_engine_over_temperature_light@@3PAUOBJECT_3D_SUB_INSTANCE@@A DD 01H DUP (?) ; right_engine_over_temperature_light
?left_engine_extinguisher1_light@@3PAUOBJECT_3D_SUB_INSTANCE@@A DD 01H DUP (?) ; left_engine_extinguisher1_light
?left_engine_extinguisher2_light@@3PAUOBJECT_3D_SUB_INSTANCE@@A DD 01H DUP (?) ; left_engine_extinguisher2_light
?right_engine_extinguisher1_light@@3PAUOBJECT_3D_SUB_INSTANCE@@A DD 01H DUP (?) ; right_engine_extinguisher1_light
?right_engine_extinguisher2_light@@3PAUOBJECT_3D_SUB_INSTANCE@@A DD 01H DUP (?) ; right_engine_extinguisher2_light
?rwr_above_light@@3PAUOBJECT_3D_SUB_INSTANCE@@A DD 01H DUP (?) ; rwr_above_light
?rwr_airborne_light@@3PAUOBJECT_3D_SUB_INSTANCE@@A DD 01H DUP (?) ; rwr_airborne_light
?rwr_below_light@@3PAUOBJECT_3D_SUB_INSTANCE@@A DD 01H DUP (?) ; rwr_below_light
?rwr_left10_light@@3PAUOBJECT_3D_SUB_INSTANCE@@A DD 01H DUP (?) ; rwr_left10_light
?rwr_left30_light@@3PAUOBJECT_3D_SUB_INSTANCE@@A DD 01H DUP (?) ; rwr_left30_light
?rwr_left50_light@@3PAUOBJECT_3D_SUB_INSTANCE@@A DD 01H DUP (?) ; rwr_left50_light
?rwr_left90_light@@3PAUOBJECT_3D_SUB_INSTANCE@@A DD 01H DUP (?) ; rwr_left90_light
?rwr_left_rear_light@@3PAUOBJECT_3D_SUB_INSTANCE@@A DD 01H DUP (?) ; rwr_left_rear_light
?rwr_long_range_light@@3PAUOBJECT_3D_SUB_INSTANCE@@A DD 01H DUP (?) ; rwr_long_range_light
?rwr_medium_range_light@@3PAUOBJECT_3D_SUB_INSTANCE@@A DD 01H DUP (?) ; rwr_medium_range_light
?rwr_missile_launch_light@@3PAUOBJECT_3D_SUB_INSTANCE@@A DD 01H DUP (?) ; rwr_missile_launch_light
?rwr_right10_light@@3PAUOBJECT_3D_SUB_INSTANCE@@A DD 01H DUP (?) ; rwr_right10_light
?rwr_right30_light@@3PAUOBJECT_3D_SUB_INSTANCE@@A DD 01H DUP (?) ; rwr_right30_light
?rwr_right50_light@@3PAUOBJECT_3D_SUB_INSTANCE@@A DD 01H DUP (?) ; rwr_right50_light
?rwr_right90_light@@3PAUOBJECT_3D_SUB_INSTANCE@@A DD 01H DUP (?) ; rwr_right90_light
?rwr_right_rear_light@@3PAUOBJECT_3D_SUB_INSTANCE@@A DD 01H DUP (?) ; rwr_right_rear_light
?rwr_short_range_light@@3PAUOBJECT_3D_SUB_INSTANCE@@A DD 01H DUP (?) ; rwr_short_range_light
?rwr_signal_strength1@@3PAUOBJECT_3D_SUB_INSTANCE@@A DD 01H DUP (?) ; rwr_signal_strength1
?rwr_signal_strength10@@3PAUOBJECT_3D_SUB_INSTANCE@@A DD 01H DUP (?) ; rwr_signal_strength10
?rwr_signal_strength11@@3PAUOBJECT_3D_SUB_INSTANCE@@A DD 01H DUP (?) ; rwr_signal_strength11
?rwr_signal_strength12@@3PAUOBJECT_3D_SUB_INSTANCE@@A DD 01H DUP (?) ; rwr_signal_strength12
?rwr_signal_strength13@@3PAUOBJECT_3D_SUB_INSTANCE@@A DD 01H DUP (?) ; rwr_signal_strength13
?rwr_signal_strength14@@3PAUOBJECT_3D_SUB_INSTANCE@@A DD 01H DUP (?) ; rwr_signal_strength14
?rwr_signal_strength15@@3PAUOBJECT_3D_SUB_INSTANCE@@A DD 01H DUP (?) ; rwr_signal_strength15
?rwr_signal_strength2@@3PAUOBJECT_3D_SUB_INSTANCE@@A DD 01H DUP (?) ; rwr_signal_strength2
?rwr_signal_strength3@@3PAUOBJECT_3D_SUB_INSTANCE@@A DD 01H DUP (?) ; rwr_signal_strength3
?rwr_signal_strength4@@3PAUOBJECT_3D_SUB_INSTANCE@@A DD 01H DUP (?) ; rwr_signal_strength4
?rwr_signal_strength5@@3PAUOBJECT_3D_SUB_INSTANCE@@A DD 01H DUP (?) ; rwr_signal_strength5
?rwr_signal_strength6@@3PAUOBJECT_3D_SUB_INSTANCE@@A DD 01H DUP (?) ; rwr_signal_strength6
?rwr_signal_strength7@@3PAUOBJECT_3D_SUB_INSTANCE@@A DD 01H DUP (?) ; rwr_signal_strength7
?rwr_signal_strength8@@3PAUOBJECT_3D_SUB_INSTANCE@@A DD 01H DUP (?) ; rwr_signal_strength8
?rwr_signal_strength9@@3PAUOBJECT_3D_SUB_INSTANCE@@A DD 01H DUP (?) ; rwr_signal_strength9
?fuel_switches@@3PAUOBJECT_3D_SUB_INSTANCE@@A DD 01H DUP (?) ; fuel_switches
?external_light_switches@@3PAUOBJECT_3D_SUB_INSTANCE@@A DD 01H DUP (?) ; external_light_switches
?radio_navigation_switches@@3PAUOBJECT_3D_SUB_INSTANCE@@A DD 01H DUP (?) ; radio_navigation_switches
?weapon_select_switch@@3PAUOBJECT_3D_SUB_INSTANCE@@A DD 01H DUP (?) ; weapon_select_switch
?master_arm_switches@@3PAUOBJECT_3D_SUB_INSTANCE@@A DD 01H DUP (?) ; master_arm_switches
?rocket_salvo_switch@@3PAUOBJECT_3D_SUB_INSTANCE@@A DD 01H DUP (?) ; rocket_salvo_switch
?horizontal_air_data_vanes@@3PAUOBJECT_3D_SUB_INSTANCE@@A DD 01H DUP (?) ; horizontal_air_data_vanes
?vertical_air_data_vanes@@3PAUOBJECT_3D_SUB_INSTANCE@@A DD 01H DUP (?) ; vertical_air_data_vanes
?head_limits@@3PAY01UVEC3D@@A DB 030H DUP (?)		; head_limits
?cockpit_fan_enabled@@3HA DD 01H DUP (?)		; cockpit_fan_enabled
?door_handle_timer@@3MA DD 01H DUP (?)			; door_handle_timer
?door_state@@3MA DD 01H DUP (?)				; door_state
?x_head_g_movement@@3MA DD 01H DUP (?)			; x_head_g_movement
?y_head_g_movement@@3MA DD 01H DUP (?)			; y_head_g_movement
?over_stress_light_value@@3MA DD 01H DUP (?)		; over_stress_light_value
?random_vibration_x@@3MA DD 01H DUP (?)			; random_vibration_x
?random_vibration_y@@3MA DD 01H DUP (?)			; random_vibration_y
_BSS	ENDS
?open_door@@3HA DD 01H					; open_door
END
