; Listing generated by Microsoft (R) Optimizing Compiler Version 19.16.27045.0 

	TITLE	c:\users\nhv90\projects\eech\aphavoc\source\gunships\avionics\hind\hi_avlmp.c
	.686P
	.XMM
	include listing.inc
	.model	flat

INCLUDELIB OLDNAMES

PUBLIC	?activate_hind_master_caution_lamp@@YGXXZ	; activate_hind_master_caution_lamp
PUBLIC	?deactivate_hind_master_caution_lamp@@YGXXZ	; deactivate_hind_master_caution_lamp
PUBLIC	?initialise_hind_lamp_avionics@@YGXXZ		; initialise_hind_lamp_avionics
PUBLIC	?deinitialise_hind_lamp_avionics@@YGXXZ		; deinitialise_hind_lamp_avionics
PUBLIC	?update_hind_lamp_avionics@@YGXXZ		; update_hind_lamp_avionics
?master_caution_alert@@3HA DD 01H DUP (?)		; master_caution_alert
?engine_damage_imminent_status@@3HA DD 01H DUP (?)	; engine_damage_imminent_status
?previous_engine_damage_imminent_status@@3HA DD 01H DUP (?) ; previous_engine_damage_imminent_status
?master_caution_flash_timer@@3MA DD 01H DUP (?)		; master_caution_flash_timer
?master_caution_sound_timer@@3MA DD 01H DUP (?)		; master_caution_sound_timer
?weapon_armed_flash_state@@3HA DD 01H DUP (?)		; weapon_armed_flash_state
?weapon_armed_flash_timer@@3MA DD 01H DUP (?)		; weapon_armed_flash_timer
_BSS	ENDS
END
