; Listing generated by Microsoft (R) Optimizing Compiler Version 19.16.27045.0 

	TITLE	c:\users\nhv90\projects\eech\aphavoc\source\gunships\avionics\hokum\hk_eo.c
	.686P
	.XMM
	include listing.inc
	.model	flat

INCLUDELIB OLDNAMES

PUBLIC	?hokum_periscope@@3UEO_PARAMS_DYNAMIC_MOVE@@A	; hokum_periscope
PUBLIC	?hokum_llltv@@3UEO_PARAMS_DYNAMIC_MOVE@@A	; hokum_llltv
PUBLIC	?hokum_flir@@3UEO_PARAMS_DYNAMIC_MOVE@@A	; hokum_flir
?hokum_periscope@@3UEO_PARAMS_DYNAMIC_MOVE@@A DB 0cH DUP (?) ; hokum_periscope
?hokum_llltv@@3UEO_PARAMS_DYNAMIC_MOVE@@A DB 0cH DUP (?) ; hokum_llltv
?hokum_flir@@3UEO_PARAMS_DYNAMIC_MOVE@@A DB 0cH DUP (?)	; hokum_flir
_BSS	ENDS
PUBLIC	?slave_hokum_eo_to_current_target@@YGXXZ	; slave_hokum_eo_to_current_target
PUBLIC	?animate_hokum_virtual_cockpit_eo@@YGXPAUOBJECT_3D_INSTANCE@@@Z ; animate_hokum_virtual_cockpit_eo
PUBLIC	?centre_hokum_eo@@YGXXZ				; centre_hokum_eo
PUBLIC	?update_hokum_eo@@YGXPAUEO_PARAMS_DYNAMIC_MOVE@@@Z ; update_hokum_eo
PUBLIC	?get_hokum_eo_relative_centred_viewpoint@@YGXPAUVIEWPOINT@@@Z ; get_hokum_eo_relative_centred_viewpoint
PUBLIC	?deinitialise_hokum_eo@@YGXXZ			; deinitialise_hokum_eo
PUBLIC	?initialise_hokum_eo@@YGXXZ			; initialise_hokum_eo
PUBLIC	?inc_hokum_eo_zoom@@YGXXZ			; inc_hokum_eo_zoom
PUBLIC	?dec_hokum_eo_zoom@@YGXXZ			; dec_hokum_eo_zoom
PUBLIC	?toggle_hokum_eo_system@@YGXXZ			; toggle_hokum_eo_system
PUBLIC	?get_hokum_eo_centred_viewpoint@@YGXPAUVIEWPOINT@@@Z ; get_hokum_eo_centred_viewpoint
PUBLIC	?animate_hokum_eo@@YGXPAUOBJECT_3D_INSTANCE@@@Z	; animate_hokum_eo
END
