; Listing generated by Microsoft (R) Optimizing Compiler Version 19.16.27045.0 

	TITLE	c:\users\nhv90\projects\eech\aphavoc\source\gunships\cockpits\hokum\hk_pilot.c
	.686P
	.XMM
	include listing.inc
	.model	flat

INCLUDELIB OLDNAMES

PUBLIC	??_C@_0CF@NBHNDOKH@GRAPHICS?2COCKPITS?2HOKUM?2JOYSTIC@ ; `string'
PUBLIC	??_C@_0CE@DBBEGHOL@GRAPHICS?2COCKPITS?2HOKUM?2FOREARM@ ; `string'
PUBLIC	??_C@_0CF@BGDOJGAE@GRAPHICS?2COCKPITS?2HOKUM?2SHOULDE@ ; `string'
;	COMDAT ??_C@_0CF@BGDOJGAE@GRAPHICS?2COCKPITS?2HOKUM?2SHOULDE@
CONST	SEGMENT
??_C@_0CF@BGDOJGAE@GRAPHICS?2COCKPITS?2HOKUM?2SHOULDE@ DB 'GRAPHICS\COCKP'
	DB	'ITS\HOKUM\SHOULDER.MOT', 00H		; `string'
CONST	ENDS
;	COMDAT ??_C@_0CE@DBBEGHOL@GRAPHICS?2COCKPITS?2HOKUM?2FOREARM@
CONST	SEGMENT
??_C@_0CE@DBBEGHOL@GRAPHICS?2COCKPITS?2HOKUM?2FOREARM@ DB 'GRAPHICS\COCKP'
	DB	'ITS\HOKUM\FOREARM.MOT', 00H			; `string'
CONST	ENDS
;	COMDAT ??_C@_0CF@NBHNDOKH@GRAPHICS?2COCKPITS?2HOKUM?2JOYSTIC@
CONST	SEGMENT
??_C@_0CF@NBHNDOKH@GRAPHICS?2COCKPITS?2HOKUM?2JOYSTIC@ DB 'GRAPHICS\COCKP'
	DB	'ITS\HOKUM\JOYSTICK.MOT', 00H		; `string'
PUBLIC	?get_hokum_pilot_head_pitch_datum@@YGMXZ	; get_hokum_pilot_head_pitch_datum
PUBLIC	?initialise_hokum_pilot_animation@@YGXXZ	; initialise_hokum_pilot_animation
PUBLIC	?deinitialise_hokum_pilot_animation@@YGXXZ	; deinitialise_hokum_pilot_animation
PUBLIC	?update_hokum_pilot_animation@@YGXXZ		; update_hokum_pilot_animation
PUBLIC	?set_hokum_pilot_head_position@@YGXXZ		; set_hokum_pilot_head_position
PUBLIC	?reset_hokum_pilot_eject_sequence@@YGXXZ	; reset_hokum_pilot_eject_sequence
?pilot_head_anim_frame@@3MA DD 01H DUP (?)		; pilot_head_anim_frame
?pilot_head_anim_pause@@3MA DD 01H DUP (?)		; pilot_head_anim_pause
?previous_pilot_head_tilt_angle@@3MA DD 01H DUP (?)	; previous_pilot_head_tilt_angle
?pilot_nvg_anim_frame@@3MA DD 01H DUP (?)		; pilot_nvg_anim_frame
?eject_timer@@3MA DD 01H DUP (?)			; eject_timer
?eject_stage@@3HA DD 01H DUP (?)			; eject_stage
?pilot_main_anim_mode@@3W4PILOT_MAIN_ANIM_MODES@@A DD 01H DUP (?) ; pilot_main_anim_mode
?pilot_main_anim_frame@@3MA DD 01H DUP (?)		; pilot_main_anim_frame
?cyclic_x_position@@3MA DD 01H DUP (?)			; cyclic_x_position
?cyclic_y_position@@3MA DD 01H DUP (?)			; cyclic_y_position
?collective_position@@3MA DD 01H DUP (?)		; collective_position
?pedal_position@@3MA DD 01H DUP (?)			; pedal_position
?previous_cyclic_x_position@@3MA DD 01H DUP (?)		; previous_cyclic_x_position
?previous_cyclic_y_position@@3MA DD 01H DUP (?)		; previous_cyclic_y_position
?previous_collective_position@@3MA DD 01H DUP (?)	; previous_collective_position
?previous_pedal_position@@3MA DD 01H DUP (?)		; previous_pedal_position
?pilot_rest_anim_mode@@3W4PILOT_REST_ANIM_MODES@@A DD 01H DUP (?) ; pilot_rest_anim_mode
?previous_random_pilot_rest_anim_mode@@3W4PILOT_REST_ANIM_MODES@@A DD 01H DUP (?) ; previous_random_pilot_rest_anim_mode
?pilot_rest_anim_frame@@3MA DD 01H DUP (?)		; pilot_rest_anim_frame
?pilot_rest_anim_delay@@3MA DD 01H DUP (?)		; pilot_rest_anim_delay
?right_arm_joystick_motion@@3PAUMOTION_DATA@@A DB 01b18H DUP (?) ; right_arm_joystick_motion
?right_arm_forearm_motion@@3PAUMOTION_DATA@@A DB 01b18H DUP (?) ; right_arm_forearm_motion
?right_arm_shoulder_motion@@3PAUMOTION_DATA@@A DB 01b18H DUP (?) ; right_arm_shoulder_motion
_BSS	ENDS
?pilot_main_anim_mode_taking_controls_anim_data@@3UPILOT_ANIM_DATA@@A DD 03da3d70ar ; 0.08 ; pilot_main_anim_mode_taking_controls_anim_data
	DD	03df5c28fr			; 0.12
	DD	03f000000r			; 0.5
	DD	03f000000r			; 0.5
	DD	03f000000r			; 0.5
	DD	03f000000r			; 0.5
	DD	00H
	ORG $+4
	DD	00H
	ORG $+4
	DD	00H
	DD	038H
?pilot_main_anim_mode_moving_controls_from_centre1_anim_data@@3UPILOT_ANIM_DATA@@A DD 000000000r ; 0 ; pilot_main_anim_mode_moving_controls_from_centre1_anim_data
	DD	000000000r			; 0
	DD	03f000000r			; 0.5
	DD	03f000000r			; 0.5
	DD	03f000000r			; 0.5
	DD	03f000000r			; 0.5
	DD	01H
	ORG $+4
	DD	01H
	ORG $+4
	DD	01H
	DD	00H
?pilot_main_anim_mode_moving_controls_from_centre2_anim_data@@3UPILOT_ANIM_DATA@@A DD 000000000r ; 0 ; pilot_main_anim_mode_moving_controls_from_centre2_anim_data
	DD	000000000r			; 0
	DD	000000000r			; 0
	DD	000000000r			; 0
	DD	000000000r			; 0
	DD	000000000r			; 0
	DD	01H
	ORG $+4
	DD	01H
	ORG $+4
	DD	01H
	DD	00H
?pilot_main_anim_mode_hands_on_controls_anim_data@@3UPILOT_ANIM_DATA@@A DD 000000000r ; 0 ; pilot_main_anim_mode_hands_on_controls_anim_data
	DD	000000000r			; 0
	DD	000000000r			; 0
	DD	000000000r			; 0
	DD	000000000r			; 0
	DD	000000000r			; 0
	DD	01H
	ORG $+4
	DD	01H
	ORG $+4
	DD	01H
	DD	00H
?pilot_main_anim_mode_moving_controls_to_centre1_anim_data@@3UPILOT_ANIM_DATA@@A DD 000000000r ; 0 ; pilot_main_anim_mode_moving_controls_to_centre1_anim_data
	DD	000000000r			; 0
	DD	000000000r			; 0
	DD	000000000r			; 0
	DD	000000000r			; 0
	DD	000000000r			; 0
	DD	01H
	ORG $+4
	DD	01H
	ORG $+4
	DD	01H
	DD	00H
?pilot_main_anim_mode_moving_controls_to_centre2_anim_data@@3UPILOT_ANIM_DATA@@A DD 000000000r ; 0 ; pilot_main_anim_mode_moving_controls_to_centre2_anim_data
	DD	000000000r			; 0
	DD	03f000000r			; 0.5
	DD	03f000000r			; 0.5
	DD	03f000000r			; 0.5
	DD	03f000000r			; 0.5
	DD	01H
	ORG $+4
	DD	01H
	ORG $+4
	DD	01H
	DD	00H
?pilot_main_anim_mode_releasing_controls_anim_data@@3UPILOT_ANIM_DATA@@A DD 03da3d70ar ; 0.08 ; pilot_main_anim_mode_releasing_controls_anim_data
	DD	03df5c28fr			; 0.12
	DD	03f000000r			; 0.5
	DD	03f000000r			; 0.5
	DD	03f000000r			; 0.5
	DD	03f000000r			; 0.5
	DD	00H
	ORG $+4
	DD	00H
	ORG $+4
	DD	00H
	DD	038H
?pilot_main_anim_mode_left_hand_to_nvg_anim_data@@3UPILOT_ANIM_DATA@@A DD 03f19999ar ; 0.6 ; pilot_main_anim_mode_left_hand_to_nvg_anim_data
	DD	03f2e147br			; 0.68
	DD	000000000r			; 0
	DD	000000000r			; 0
	DD	03f000000r			; 0.5
	DD	000000000r			; 0
	DD	01H
	ORG $+4
	DD	00H
	ORG $+4
	DD	01H
	DD	08H
?pilot_main_anim_mode_collective_to_centre1_anim_data@@3UPILOT_ANIM_DATA@@A DD 000000000r ; 0 ; pilot_main_anim_mode_collective_to_centre1_anim_data
	DD	000000000r			; 0
	DD	000000000r			; 0
	DD	000000000r			; 0
	DD	000000000r			; 0
	DD	000000000r			; 0
	DD	01H
	ORG $+4
	DD	01H
	ORG $+4
	DD	01H
	DD	00H
?pilot_main_anim_mode_collective_to_centre2_anim_data@@3UPILOT_ANIM_DATA@@A DD 000000000r ; 0 ; pilot_main_anim_mode_collective_to_centre2_anim_data
	DD	000000000r			; 0
	DD	000000000r			; 0
	DD	000000000r			; 0
	DD	03f000000r			; 0.5
	DD	000000000r			; 0
	DD	01H
	ORG $+4
	DD	01H
	ORG $+4
	DD	01H
	DD	00H
?pilot_main_anim_mode_collective_from_centre1_anim_data@@3UPILOT_ANIM_DATA@@A DD 000000000r ; 0 ; pilot_main_anim_mode_collective_from_centre1_anim_data
	DD	000000000r			; 0
	DD	000000000r			; 0
	DD	000000000r			; 0
	DD	03f000000r			; 0.5
	DD	000000000r			; 0
	DD	01H
	ORG $+4
	DD	01H
	ORG $+4
	DD	01H
	DD	00H
?pilot_main_anim_mode_collective_from_centre2_anim_data@@3UPILOT_ANIM_DATA@@A DD 000000000r ; 0 ; pilot_main_anim_mode_collective_from_centre2_anim_data
	DD	000000000r			; 0
	DD	000000000r			; 0
	DD	000000000r			; 0
	DD	000000000r			; 0
	DD	000000000r			; 0
	DD	01H
	ORG $+4
	DD	01H
	ORG $+4
	DD	01H
	DD	00H
?pilot_rest_anim_mode_none_anim_data@@3UPILOT_ANIM_DATA@@A DD 000000000r ; 0 ; pilot_rest_anim_mode_none_anim_data
	DD	000000000r			; 0
	DD	03f000000r			; 0.5
	DD	03f000000r			; 0.5
	DD	03f000000r			; 0.5
	DD	03f000000r			; 0.5
	DD	00H
	ORG $+4
	DD	00H
	ORG $+4
	DD	00H
	DD	00H
?pilot_rest_anim_mode_right_hand_to_upper_switch_anim_data@@3UPILOT_ANIM_DATA@@A DD 03df5c28fr ; 0.12 ; pilot_rest_anim_mode_right_hand_to_upper_switch_anim_data
	DD	03e4ccccdr			; 0.2
	DD	03f000000r			; 0.5
	DD	03f000000r			; 0.5
	DD	03f000000r			; 0.5
	DD	03f000000r			; 0.5
	DD	00H
	ORG $+4
	DD	00H
	ORG $+4
	DD	00H
	DD	012H
?pilot_rest_anim_mode_right_hand_to_calculator_anim_data@@3UPILOT_ANIM_DATA@@A DD 03e4ccccdr ; 0.2 ; pilot_rest_anim_mode_right_hand_to_calculator_anim_data
	DD	03e8f5c29r			; 0.28
	DD	03f000000r			; 0.5
	DD	03f000000r			; 0.5
	DD	03f000000r			; 0.5
	DD	03f000000r			; 0.5
	DD	00H
	ORG $+4
	DD	00H
	ORG $+4
	DD	00H
	DD	01eH
?pilot_rest_anim_mode_left_hand_to_hud_switch_anim_data@@3UPILOT_ANIM_DATA@@A DD 03e8f5c29r ; 0.28 ; pilot_rest_anim_mode_left_hand_to_hud_switch_anim_data
	DD	03eb851ecr			; 0.36
	DD	03f000000r			; 0.5
	DD	03f000000r			; 0.5
	DD	03f000000r			; 0.5
	DD	03f000000r			; 0.5
	DD	00H
	ORG $+4
	DD	00H
	ORG $+4
	DD	00H
	DD	0aH
?pilot_rest_anim_mode_left_hand_to_nvg_anim_data@@3UPILOT_ANIM_DATA@@A DD 03eb851ecr ; 0.36 ; pilot_rest_anim_mode_left_hand_to_nvg_anim_data
	DD	03ee147aer			; 0.44
	DD	03f000000r			; 0.5
	DD	03f000000r			; 0.5
	DD	03f000000r			; 0.5
	DD	03f000000r			; 0.5
	DD	00H
	ORG $+4
	DD	00H
	ORG $+4
	DD	00H
	DD	08H
?pilot_rest_anim_mode_both_hands_pull_eject_anim_data@@3UPILOT_ANIM_DATA@@A DD 03ee147aer ; 0.44 ; pilot_rest_anim_mode_both_hands_pull_eject_anim_data
	DD	03f000000r			; 0.5
	DD	03f000000r			; 0.5
	DD	03f000000r			; 0.5
	DD	03f000000r			; 0.5
	DD	03f000000r			; 0.5
	DD	00H
	ORG $+4
	DD	00H
	ORG $+4
	DD	00H
	DD	07aH
?pilot_rest_anim_mode_head_look_down_anim_data@@3UPILOT_ANIM_DATA@@A DD 03f428f5cr ; 0.76 ; pilot_rest_anim_mode_head_look_down_anim_data
	DD	03f4ccccdr			; 0.8
	DD	03f000000r			; 0.5
	DD	03f000000r			; 0.5
	DD	03f000000r			; 0.5
	DD	03f000000r			; 0.5
	DD	00H
	ORG $+4
	DD	00H
	ORG $+4
	DD	00H
	DD	02H
?pilot_rest_anim_mode_head_look_down_left_anim_data@@3UPILOT_ANIM_DATA@@A DD 03f2e147br ; 0.68 ; pilot_rest_anim_mode_head_look_down_left_anim_data
	DD	03f3851ecr			; 0.72
	DD	03f000000r			; 0.5
	DD	03f000000r			; 0.5
	DD	03f000000r			; 0.5
	DD	03f000000r			; 0.5
	DD	00H
	ORG $+4
	DD	00H
	ORG $+4
	DD	00H
	DD	02H
?pilot_rest_anim_mode_head_look_down_right_anim_data@@3UPILOT_ANIM_DATA@@A DD 03f3851ecr ; 0.72 ; pilot_rest_anim_mode_head_look_down_right_anim_data
	DD	03f428f5cr			; 0.76
	DD	03f000000r			; 0.5
	DD	03f000000r			; 0.5
	DD	03f000000r			; 0.5
	DD	03f000000r			; 0.5
	DD	00H
	ORG $+4
	DD	00H
	ORG $+4
	DD	00H
	DD	02H
?pilot_rest_anim_mode_head_look_up_anim_data@@3UPILOT_ANIM_DATA@@A DD 03f4ccccdr ; 0.8 ; pilot_rest_anim_mode_head_look_up_anim_data
	DD	03f570a3dr			; 0.84
	DD	03f000000r			; 0.5
	DD	03f000000r			; 0.5
	DD	03f000000r			; 0.5
	DD	03f000000r			; 0.5
	DD	00H
	ORG $+4
	DD	00H
	ORG $+4
	DD	00H
	DD	02H
?pilot_rest_anim_mode_head_look_up_left_anim_data@@3UPILOT_ANIM_DATA@@A DD 03f6b851fr ; 0.92 ; pilot_rest_anim_mode_head_look_up_left_anim_data
	DD	03f75c28fr			; 0.96
	DD	03f000000r			; 0.5
	DD	03f000000r			; 0.5
	DD	03f000000r			; 0.5
	DD	03f000000r			; 0.5
	DD	00H
	ORG $+4
	DD	00H
	ORG $+4
	DD	00H
	DD	02H
?pilot_rest_anim_mode_head_look_up_right_anim_data@@3UPILOT_ANIM_DATA@@A DD 03f75c28fr ; 0.96 ; pilot_rest_anim_mode_head_look_up_right_anim_data
	DD	03f800000r			; 1
	DD	03f000000r			; 0.5
	DD	03f000000r			; 0.5
	DD	03f000000r			; 0.5
	DD	03f000000r			; 0.5
	DD	00H
	ORG $+4
	DD	00H
	ORG $+4
	DD	00H
	DD	02H
?pilot_rest_anim_mode_head_look_left_anim_data@@3UPILOT_ANIM_DATA@@A DD 03f570a3dr ; 0.84 ; pilot_rest_anim_mode_head_look_left_anim_data
	DD	03f6147aer			; 0.88
	DD	03f000000r			; 0.5
	DD	03f000000r			; 0.5
	DD	03f000000r			; 0.5
	DD	03f000000r			; 0.5
	DD	00H
	ORG $+4
	DD	00H
	ORG $+4
	DD	00H
	DD	02H
?pilot_rest_anim_mode_head_look_right_anim_data@@3UPILOT_ANIM_DATA@@A DD 03f6147aer ; 0.88 ; pilot_rest_anim_mode_head_look_right_anim_data
	DD	03f6b851fr			; 0.92
	DD	03f000000r			; 0.5
	DD	03f000000r			; 0.5
	DD	03f000000r			; 0.5
	DD	03f000000r			; 0.5
	DD	00H
	ORG $+4
	DD	00H
	ORG $+4
	DD	00H
	DD	02H
END
