; Listing generated by Microsoft (R) Optimizing Compiler Version 19.16.27045.0 

	TITLE	c:\users\nhv90\projects\eech\aphavoc\source\gunships\avionics\hokum\hk_tgt.c
	.686P
	.XMM
	include listing.inc
	.model	flat

INCLUDELIB OLDNAMES

PUBLIC	?centre_hokum_target_acquisition_system@@YGXXZ	; centre_hokum_target_acquisition_system
PUBLIC	?toggle_hokum_show_allied_targets@@YGXXZ	; toggle_hokum_show_allied_targets
PUBLIC	?toggle_hokum_auto_target@@YGXXZ		; toggle_hokum_auto_target
PUBLIC	?toggle_hokum_lock_target@@YGXXZ		; toggle_hokum_lock_target
PUBLIC	?hokum_target_acquisition_system_misc_function1@@YGXXZ ; hokum_target_acquisition_system_misc_function1
PUBLIC	?hokum_target_acquisition_system_misc_function2@@YGXXZ ; hokum_target_acquisition_system_misc_function2
PUBLIC	?set_hokum_lock_target@@YGXH@Z			; set_hokum_lock_target
PUBLIC	?select_hokum_target_acquisition_system@@YGXW4TARGET_ACQUISITION_SYSTEMS@@@Z ; select_hokum_target_acquisition_system
PUBLIC	?initialise_hokum_target_acquisition_systems@@YGXXZ ; initialise_hokum_target_acquisition_systems
PUBLIC	?deinitialise_hokum_target_acquisition_systems@@YGXXZ ; deinitialise_hokum_target_acquisition_systems
PUBLIC	?update_hokum_target_acquisition_system@@YGXXZ	; update_hokum_target_acquisition_system
END
