; Listing generated by Microsoft (R) Optimizing Compiler Version 19.16.27045.0 

	TITLE	c:\users\nhv90\projects\eech\aphavoc\source\gunships\dynamics\hokum\ho_dyn.c
	.686P
	.XMM
	include listing.inc
	.model	flat

INCLUDELIB OLDNAMES

PUBLIC	??_C@_0BJ@GKCIPEIG@?4?4?2common?2data?2hokum?4dyn@ ; `string'
;	COMDAT ?desired_force@?LD@??update_attitude_dynamics@@YGXXZ@4MA
_BSS	SEGMENT
?desired_force@?LD@??update_attitude_dynamics@@YGXXZ@4MA DD 01H DUP (?) ; `update_attitude_dynamics'::`179'::desired_force
_BSS	ENDS
;	COMDAT ?force@?LD@??update_attitude_dynamics@@YGXXZ@4MA
_BSS	SEGMENT
?force@?LD@??update_attitude_dynamics@@YGXXZ@4MA DD 01H DUP (?) ; `update_attitude_dynamics'::`179'::force
_BSS	ENDS
;	COMDAT ?time@?DG@??update_attitude_dynamics@@YGXXZ@4MA
_BSS	SEGMENT
?time@?DG@??update_attitude_dynamics@@YGXXZ@4MA DD 01H DUP (?) ; `update_attitude_dynamics'::`54'::time
_BSS	ENDS
;	COMDAT ?time@?BM@??update_main_rotor_rpm_dynamics@@YGXXZ@4MA
_BSS	SEGMENT
?time@?BM@??update_main_rotor_rpm_dynamics@@YGXXZ@4MA DD 01H DUP (?) ; `update_main_rotor_rpm_dynamics'::`28'::time
_BSS	ENDS
;	COMDAT ??_C@_0BJ@GKCIPEIG@?4?4?2common?2data?2hokum?4dyn@
CONST	SEGMENT
??_C@_0BJ@GKCIPEIG@?4?4?2common?2data?2hokum?4dyn@ DB '..\common\data\hok'
	DB	'um.dyn', 00H				; `string'
PUBLIC	?initialise_hokum_advanced_dynamics@@YGXPAUENTITY@@@Z ; initialise_hokum_advanced_dynamics
PUBLIC	?update_hokum_advanced_dynamics@@YGXXZ		; update_hokum_advanced_dynamics
PUBLIC	?hokum_restore_damage_values@@YGXXZ		; hokum_restore_damage_values
?advanced_flight_dynamics@@3UDYNAMICS_TYPE@@A DB 02540H DUP (?) ; advanced_flight_dynamics
?right_g_e_force@@3MA DD 01H DUP (?)			; right_g_e_force
?left_g_e_force@@3MA DD 01H DUP (?)			; left_g_e_force
?back_g_e_force@@3MA DD 01H DUP (?)			; back_g_e_force
?front_g_e_force@@3MA DD 01H DUP (?)			; front_g_e_force
?this_reaction_force@@3MA DD 01H DUP (?)		; this_reaction_force
_BSS	ENDS
END
