; Listing generated by Microsoft (R) Optimizing Compiler Version 19.16.27045.0 

	TITLE	c:\users\nhv90\projects\eech\aphavoc\source\gunships\cockpits\kiowa\ki_vckpt.c
	.686P
	.XMM
	include listing.inc
	.model	flat

INCLUDELIB OLDNAMES

PUBLIC	?get_kiowa_display_viewpoint@@YGXW4VIEW_MODES@@@Z ; get_kiowa_display_viewpoint
PUBLIC	?get_kiowa_crew_viewpoint@@YGXXZ		; get_kiowa_crew_viewpoint
PUBLIC	?draw_kiowa_virtual_cockpit@@YGXXZ		; draw_kiowa_virtual_cockpit
PUBLIC	?pre_render_kiowa_virtual_cockpit_displays@@YGXXZ ; pre_render_kiowa_virtual_cockpit_displays
PUBLIC	?damage_kiowa_virtual_cockpit_main_rotors@@YGXH@Z ; damage_kiowa_virtual_cockpit_main_rotors
PUBLIC	?restore_kiowa_virtual_cockpit_main_rotors@@YGXXZ ; restore_kiowa_virtual_cockpit_main_rotors
PUBLIC	?initialise_kiowa_virtual_cockpit@@YGXXZ	; initialise_kiowa_virtual_cockpit
PUBLIC	?deinitialise_kiowa_virtual_cockpit@@YGXXZ	; deinitialise_kiowa_virtual_cockpit
PUBLIC	?update_kiowa_virtual_cockpit@@YGXXZ		; update_kiowa_virtual_cockpit
?virtual_cockpit_inst3d_detail_level_normal_inst3d@@3PAUOBJECT_3D_INSTANCE@@A DD 01H DUP (?) ; virtual_cockpit_inst3d_detail_level_normal_inst3d
?virtual_cockpit_inst3d_detail_level_glass_inst3d@@3PAUOBJECT_3D_INSTANCE@@A DD 01H DUP (?) ; virtual_cockpit_inst3d_detail_level_glass_inst3d
?x_head_g_movement@@3MA DD 01H DUP (?)			; x_head_g_movement
?y_head_g_movement@@3MA DD 01H DUP (?)			; y_head_g_movement
?random_vibration_x@@3MA DD 01H DUP (?)			; random_vibration_x
?random_vibration_y@@3MA DD 01H DUP (?)			; random_vibration_y
_BSS	ENDS
END
