; Listing generated by Microsoft (R) Optimizing Compiler Version 19.16.27045.0 

	TITLE	c:\users\nhv90\projects\eech\aphavoc\source\entity\special\landing\landing.c
	.686P
	.XMM
	include listing.inc
	.model	flat

INCLUDELIB OLDNAMES

PUBLIC	?check_landing_route_lock_clear@@YGHPAUENTITY@@0@Z ; check_landing_route_lock_clear
PUBLIC	?play_landing_clear_for_takeoff_speech@@YGXPAUENTITY@@@Z ; play_landing_clear_for_takeoff_speech
PUBLIC	?get_local_group_member_landing_entity_from_task@@YGPAUENTITY@@PAU1@@Z ; get_local_group_member_landing_entity_from_task
PUBLIC	?get_local_group_member_landing_entity_from_keysite@@YGPAUENTITY@@PAU1@@Z ; get_local_group_member_landing_entity_from_keysite
PUBLIC	?release_mobile_entity_landing_locks@@YGXPAUENTITY@@@Z ; release_mobile_entity_landing_locks
PUBLIC	?get_local_landing_entity_task@@YGPAUENTITY@@PAU1@H@Z ; get_local_landing_entity_task
PUBLIC	?get_local_entity_landing_entity@@YGPAUENTITY@@PAU1@H@Z ; get_local_entity_landing_entity
PUBLIC	?get_local_landing_entity_route@@YGPAUENTITY@@PAU1@H@Z ; get_local_landing_entity_route
END
