; Listing generated by Microsoft (R) Optimizing Compiler Version 19.16.27045.0 

	TITLE	c:\users\nhv90\projects\eech\aphavoc\source\ui_menu\main\main_sc.c
	.686P
	.XMM
	include listing.inc
	.model	flat

INCLUDELIB OLDNAMES

PUBLIC	?main_screen@@3PAUUI_OBJECT@@A			; main_screen
PUBLIC	?main_screen_texture@@3PAUTEXTURE_GRAPHIC@@A	; main_screen_texture
PUBLIC	?list_box_graphic@@3PAUTEXTURE_GRAPHIC@@A	; list_box_graphic
PUBLIC	?text_option_bdrop@@3PAUTEXTURE_GRAPHIC@@A	; text_option_bdrop
PUBLIC	?options_box_large@@3PAUTEXTURE_GRAPHIC@@A	; options_box_large
PUBLIC	??_C@_0CB@JKLBNLPM@graphics?2ui?2cohokum?2boxsmall?4ps@ ; `string'
PUBLIC	??_C@_0BP@COLOGJP@graphics?2ui?2cohokum?2boxmed?4psd@ ; `string'
PUBLIC	??_C@_0CB@HNBMMBHH@graphics?2ui?2cohokum?2boxlarge?4ps@ ; `string'
PUBLIC	??_C@_0CB@JAHFCPOM@graphics?2ui?2cohokum?2boxexlrg?4ps@ ; `string'
PUBLIC	??_C@_0CA@PIOFFCNI@graphics?2ui?2cohokum?2Boxtext?4psd@ ; `string'
PUBLIC	??_C@_0CA@IBNEMMDO@graphics?2ui?2cohokum?2bstripe?4psd@ ; `string'
PUBLIC	??_C@_0CA@DIKEHBKH@graphics?2ui?2cohokum?2BoxList?4psd@ ; `string'
PUBLIC	??_C@_0CF@IIOEIONG@graphics?2ui?2cohokum?2map?2sbcklis@ ; `string'
PUBLIC	??_C@_0CF@HCHCFKBM@graphics?2ui?2cohokum?2map?2scrolbl@ ; `string'
PUBLIC	??_C@_0CF@ELOMEIFK@graphics?2ui?2cohokum?2map?2arrupbl@ ; `string'
PUBLIC	??_C@_0CF@OHOBMPEF@graphics?2ui?2cohokum?2map?2arrdwbl@ ; `string'
PUBLIC	??_C@_0M@FNEMKEAO@Main?5Screen@			; `string'
PUBLIC	??_C@_0P@JAJAJOP@Options?5Screen@		; `string'
PUBLIC	?text_box_graphic@@3PAUTEXTURE_GRAPHIC@@A	; text_box_graphic
PUBLIC	?options_box_extra_large@@3PAUTEXTURE_GRAPHIC@@A ; options_box_extra_large
PUBLIC	?options_box_medium@@3PAUTEXTURE_GRAPHIC@@A	; options_box_medium
PUBLIC	?options_box_small@@3PAUTEXTURE_GRAPHIC@@A	; options_box_small
PUBLIC	?credits_button@@3PAUUI_OBJECT@@A		; credits_button
PUBLIC	?pilots_button@@3PAUUI_OBJECT@@A		; pilots_button
?main_screen@@3PAUUI_OBJECT@@A DD 01H DUP (?)		; main_screen
?main_screen_texture@@3PAUTEXTURE_GRAPHIC@@A DD 01H DUP (?) ; main_screen_texture
?list_box_graphic@@3PAUTEXTURE_GRAPHIC@@A DD 01H DUP (?) ; list_box_graphic
?text_option_bdrop@@3PAUTEXTURE_GRAPHIC@@A DD 01H DUP (?) ; text_option_bdrop
?options_box_large@@3PAUTEXTURE_GRAPHIC@@A DD 01H DUP (?) ; options_box_large
?text_box_graphic@@3PAUTEXTURE_GRAPHIC@@A DD 01H DUP (?) ; text_box_graphic
?options_box_extra_large@@3PAUTEXTURE_GRAPHIC@@A DD 01H DUP (?) ; options_box_extra_large
?options_box_medium@@3PAUTEXTURE_GRAPHIC@@A DD 01H DUP (?) ; options_box_medium
?options_box_small@@3PAUTEXTURE_GRAPHIC@@A DD 01H DUP (?) ; options_box_small
?credits_button@@3PAUUI_OBJECT@@A DD 01H DUP (?)	; credits_button
?pilots_button@@3PAUUI_OBJECT@@A DD 01H DUP (?)		; pilots_button
_BSS	ENDS
;	COMDAT ??_C@_0P@JAJAJOP@Options?5Screen@
CONST	SEGMENT
??_C@_0P@JAJAJOP@Options?5Screen@ DB 'Options Screen', 00H ; `string'
CONST	ENDS
;	COMDAT ??_C@_0M@FNEMKEAO@Main?5Screen@
CONST	SEGMENT
??_C@_0M@FNEMKEAO@Main?5Screen@ DB 'Main Screen', 00H	; `string'
CONST	ENDS
;	COMDAT ??_C@_0CF@OHOBMPEF@graphics?2ui?2cohokum?2map?2arrdwbl@
CONST	SEGMENT
??_C@_0CF@OHOBMPEF@graphics?2ui?2cohokum?2map?2arrdwbl@ DB 'graphics\ui\c'
	DB	'ohokum\map\arrdwblu.psd', 00H		; `string'
CONST	ENDS
;	COMDAT ??_C@_0CF@ELOMEIFK@graphics?2ui?2cohokum?2map?2arrupbl@
CONST	SEGMENT
??_C@_0CF@ELOMEIFK@graphics?2ui?2cohokum?2map?2arrupbl@ DB 'graphics\ui\c'
	DB	'ohokum\map\arrupblu.psd', 00H		; `string'
CONST	ENDS
;	COMDAT ??_C@_0CF@HCHCFKBM@graphics?2ui?2cohokum?2map?2scrolbl@
CONST	SEGMENT
??_C@_0CF@HCHCFKBM@graphics?2ui?2cohokum?2map?2scrolbl@ DB 'graphics\ui\c'
	DB	'ohokum\map\scrolblu.psd', 00H		; `string'
CONST	ENDS
;	COMDAT ??_C@_0CF@IIOEIONG@graphics?2ui?2cohokum?2map?2sbcklis@
CONST	SEGMENT
??_C@_0CF@IIOEIONG@graphics?2ui?2cohokum?2map?2sbcklis@ DB 'graphics\ui\c'
	DB	'ohokum\map\sbcklist.psd', 00H		; `string'
CONST	ENDS
;	COMDAT ??_C@_0CA@DIKEHBKH@graphics?2ui?2cohokum?2BoxList?4psd@
CONST	SEGMENT
??_C@_0CA@DIKEHBKH@graphics?2ui?2cohokum?2BoxList?4psd@ DB 'graphics\ui\c'
	DB	'ohokum\BoxList.psd', 00H			; `string'
CONST	ENDS
;	COMDAT ??_C@_0CA@IBNEMMDO@graphics?2ui?2cohokum?2bstripe?4psd@
CONST	SEGMENT
??_C@_0CA@IBNEMMDO@graphics?2ui?2cohokum?2bstripe?4psd@ DB 'graphics\ui\c'
	DB	'ohokum\bstripe.psd', 00H			; `string'
CONST	ENDS
;	COMDAT ??_C@_0CA@PIOFFCNI@graphics?2ui?2cohokum?2Boxtext?4psd@
CONST	SEGMENT
??_C@_0CA@PIOFFCNI@graphics?2ui?2cohokum?2Boxtext?4psd@ DB 'graphics\ui\c'
	DB	'ohokum\Boxtext.psd', 00H			; `string'
CONST	ENDS
;	COMDAT ??_C@_0CB@JAHFCPOM@graphics?2ui?2cohokum?2boxexlrg?4ps@
CONST	SEGMENT
??_C@_0CB@JAHFCPOM@graphics?2ui?2cohokum?2boxexlrg?4ps@ DB 'graphics\ui\c'
	DB	'ohokum\boxexlrg.psd', 00H			; `string'
CONST	ENDS
;	COMDAT ??_C@_0CB@HNBMMBHH@graphics?2ui?2cohokum?2boxlarge?4ps@
CONST	SEGMENT
??_C@_0CB@HNBMMBHH@graphics?2ui?2cohokum?2boxlarge?4ps@ DB 'graphics\ui\c'
	DB	'ohokum\boxlarge.psd', 00H			; `string'
CONST	ENDS
;	COMDAT ??_C@_0BP@COLOGJP@graphics?2ui?2cohokum?2boxmed?4psd@
CONST	SEGMENT
??_C@_0BP@COLOGJP@graphics?2ui?2cohokum?2boxmed?4psd@ DB 'graphics\ui\coh'
	DB	'okum\boxmed.psd', 00H			; `string'
CONST	ENDS
;	COMDAT ??_C@_0CB@JKLBNLPM@graphics?2ui?2cohokum?2boxsmall?4ps@
CONST	SEGMENT
??_C@_0CB@JKLBNLPM@graphics?2ui?2cohokum?2boxsmall?4ps@ DB 'graphics\ui\c'
	DB	'ohokum\boxsmall.psd', 00H			; `string'
PUBLIC	?initialise_main_screen@@YGXXZ			; initialise_main_screen
PUBLIC	?set_ui_list_spacing_proportional_to_font@@YGXPAUUI_OBJECT@@M@Z ; set_ui_list_spacing_proportional_to_font
PUBLIC	?set_frontend_slider_graphics@@YGXPAUUI_OBJECT@@@Z ; set_frontend_slider_graphics
?frontend_slider_bar_graphic@@3PAUTEXTURE_GRAPHIC@@A DD 01H DUP (?) ; frontend_slider_bar_graphic
?frontend_slider_bdrop_graphic@@3PAUTEXTURE_GRAPHIC@@A DD 01H DUP (?) ; frontend_slider_bdrop_graphic
?frontend_slider_bar_highlighted_graphic@@3PAUTEXTURE_GRAPHIC@@A DD 01H DUP (?) ; frontend_slider_bar_highlighted_graphic
?frontend_slider_bar_selected_graphic@@3PAUTEXTURE_GRAPHIC@@A DD 01H DUP (?) ; frontend_slider_bar_selected_graphic
?frontend_slider_up_graphic@@3PAUTEXTURE_GRAPHIC@@A DD 01H DUP (?) ; frontend_slider_up_graphic
?frontend_slider_up_highlighted_graphic@@3PAUTEXTURE_GRAPHIC@@A DD 01H DUP (?) ; frontend_slider_up_highlighted_graphic
?frontend_slider_up_selected_graphic@@3PAUTEXTURE_GRAPHIC@@A DD 01H DUP (?) ; frontend_slider_up_selected_graphic
?frontend_slider_down_graphic@@3PAUTEXTURE_GRAPHIC@@A DD 01H DUP (?) ; frontend_slider_down_graphic
?frontend_slider_down_highlighted_graphic@@3PAUTEXTURE_GRAPHIC@@A DD 01H DUP (?) ; frontend_slider_down_highlighted_graphic
?frontend_slider_down_selected_graphic@@3PAUTEXTURE_GRAPHIC@@A DD 01H DUP (?) ; frontend_slider_down_selected_graphic
_BSS	ENDS
END
