; Listing generated by Microsoft (R) Optimizing Compiler Version 19.16.27045.0 

	TITLE	c:\users\nhv90\projects\eech\aphavoc\source\entity\mobile\mb_msgs.c
	.686P
	.XMM
	include listing.inc
	.model	flat

INCLUDELIB OLDNAMES

PUBLIC	??_C@_0BG@PFNEBFLH@ADVISE_TRANSMIT_RECON@	; `string'
?last_waypoint_attack_wingman_comment@@3PAHA DD 03H DUP (?) ; last_waypoint_attack_wingman_comment
?last_waypoint_attack_cpg_comment@@3PAHA DD 03H DUP (?)	; last_waypoint_attack_cpg_comment
_BSS	ENDS
;	COMDAT ??_C@_0BG@PFNEBFLH@ADVISE_TRANSMIT_RECON@
CONST	SEGMENT
??_C@_0BG@PFNEBFLH@ADVISE_TRANSMIT_RECON@ DB 'ADVISE_TRANSMIT_RECON', 00H ; `string'
?num_waypoint_attack_wingman_comments@@3PAHA DD 00H	; num_waypoint_attack_wingman_comments
	DD	03H
	DD	03H
?num_waypoint_attack_cpg_comments@@3PAHA DD 00H		; num_waypoint_attack_cpg_comments
	DD	03H
	DD	03H
PUBLIC	?overload_mobile_message_responses@@YGXW4ENTITY_TYPES@@@Z ; overload_mobile_message_responses
?waypoint_attack_cpg_comments@@3PAUSPEECH_INSTANCE_TYPE@@A DD 05eH ; waypoint_attack_cpg_comments
	DD	09H
	DD	064H
	DD	00H
	DD	05fH
	DD	09H
	DD	064H
	DD	00H
	DD	060H
	DD	09H
	DD	064H
	DD	00H
?waypoint_attack_wingman_comments@@3PAUSPEECH_INSTANCE_TYPE@@A DD 08H ; waypoint_attack_wingman_comments
	DD	07H
	DD	064H
	DD	02H
	DD	09H
	DD	07H
	DD	064H
	DD	02H
	DD	0aH
	DD	07H
	DD	064H
	DD	02H
END
