; Listing generated by Microsoft (R) Optimizing Compiler Version 19.16.27045.0 

	TITLE	c:\users\nhv90\projects\eech\aphavoc\source\ui_menu\menus.c
	.686P
	.XMM
	include listing.inc
	.model	flat

INCLUDELIB OLDNAMES

PUBLIC	??_C@_0BO@FFEFLDEB@MENUS?4C?3?5parent?5has?50?5x?5size?$CB@ ; `string'
;	COMDAT ??_C@_0BO@FFEFLDEB@MENUS?4C?3?5parent?5has?50?5x?5size?$CB@
CONST	SEGMENT
??_C@_0BO@FFEFLDEB@MENUS?4C?3?5parent?5has?50?5x?5size?$CB@ DB 'MENUS.C: '
	DB	'parent has 0 x size!', 00H			; `string'
PUBLIC	?set_ui_frontend_list_object_highlightable@@YGXPAUUI_OBJECT@@@Z ; set_ui_frontend_list_object_highlightable
PUBLIC	?set_text_option_backdrop_object@@YGXPAUUI_OBJECT@@0@Z ; set_text_option_backdrop_object
PUBLIC	?preprocess_translation_object_size@@YGXPAUUI_OBJECT@@0PAPBDHW4RESIZE_UI_OBJECT_TYPES@@@Z ; preprocess_translation_object_size
PUBLIC	?process_ingame_text_object_size@@YGXPAUUI_OBJECT@@0PAPBDHW4RESIZE_UI_OBJECT_TYPES@@@Z ; process_ingame_text_object_size
PUBLIC	?initialise_ui_menus@@YGXXZ			; initialise_ui_menus
END
