; Listing generated by Microsoft (R) Optimizing Compiler Version 19.16.27045.0 

	TITLE	c:\users\nhv90\projects\eech\aphavoc\source\entity\mobile\mobile.c
	.686P
	.XMM
	include listing.inc
	.model	flat

INCLUDELIB OLDNAMES

PUBLIC	??_C@_0DA@LCNDHBIA@MOBILE?3?5can?8t?5set?5operational?5s@ ; `string'
;	COMDAT ??_C@_0DA@LCNDHBIA@MOBILE?3?5can?8t?5set?5operational?5s@
CONST	SEGMENT
??_C@_0DA@LCNDHBIA@MOBILE?3?5can?8t?5set?5operational?5s@ DB 'MOBILE: can'
	DB	'''t set operational state for %s (%d)', 00H	; `string'
PUBLIC	?play_mobile_under_attack_speech@@YGXPAUENTITY@@0@Z ; play_mobile_under_attack_speech
PUBLIC	?update_mobile_sprite_light_timers@@YGXXZ	; update_mobile_sprite_light_timers
PUBLIC	?insert_mobile_into_takeoff_route@@YGHPAUENTITY@@0@Z ; insert_mobile_into_takeoff_route
PUBLIC	?mobile_check_all_members_taken_off@@YGHPAUENTITY@@@Z ; mobile_check_all_members_taken_off
PUBLIC	?credit_client_server_mobile_kill@@YGXPAUENTITY@@0@Z ; credit_client_server_mobile_kill
PUBLIC	?mobile_terrain_adjust_waypoint_height@@YGMPAUENTITY@@PAUVEC3D@@M@Z ; mobile_terrain_adjust_waypoint_height
PUBLIC	?calculate_mobile_death_timer_value@@YGMPAUENTITY@@@Z ; calculate_mobile_death_timer_value
END
