; Listing generated by Microsoft (R) Optimizing Compiler Version 19.16.27045.0 

	TITLE	c:\users\nhv90\projects\eech\aphavoc\source\ui_menu\modcredits\modcredits.c
	.686P
	.XMM
	include listing.inc
	.model	flat

INCLUDELIB OLDNAMES

PUBLIC	?modcredits_screen@@3PAUUI_OBJECT@@A		; modcredits_screen
PUBLIC	??_C@_0CD@NJNCHLMG@graphics?2ui?2cohokum?2Modcredits?4@ ; `string'
PUBLIC	??_C@_07MLJKMGJK@UI_BACK@			; `string'
PUBLIC	?modcredits_screen_graphic@@3PAUTEXTURE_GRAPHIC@@A ; modcredits_screen_graphic
?modcredits_screen@@3PAUUI_OBJECT@@A DD 01H DUP (?)	; modcredits_screen
?modcredits_screen_graphic@@3PAUTEXTURE_GRAPHIC@@A DD 01H DUP (?) ; modcredits_screen_graphic
_BSS	ENDS
;	COMDAT ??_C@_07MLJKMGJK@UI_BACK@
CONST	SEGMENT
??_C@_07MLJKMGJK@UI_BACK@ DB 'UI_BACK', 00H		; `string'
CONST	ENDS
;	COMDAT ??_C@_0CD@NJNCHLMG@graphics?2ui?2cohokum?2Modcredits?4@
CONST	SEGMENT
??_C@_0CD@NJNCHLMG@graphics?2ui?2cohokum?2Modcredits?4@ DB 'graphics\ui\c'
	DB	'ohokum\Modcredits.psd', 00H			; `string'
PUBLIC	?notify_modcredits_screen@@YGXPAUUI_OBJECT@@PAX@Z ; notify_modcredits_screen
PUBLIC	?initialise_modcredits_screen@@YGXXZ		; initialise_modcredits_screen
END
