; Listing generated by Microsoft (R) Optimizing Compiler Version 19.16.27045.0 

	TITLE	c:\users\nhv90\projects\eech\modules\graphics\mouseptr.c
	.686P
	.XMM
	include listing.inc
	.model	flat

INCLUDELIB OLDNAMES

PUBLIC	?saved_back_screen_mouse_rectangle@@3UtagRECT@@A ; saved_back_screen_mouse_rectangle
PUBLIC	?saved_back_screen_screen_rectangle@@3UtagRECT@@A ; saved_back_screen_screen_rectangle
PUBLIC	?saved_screen_mouse_rectangle@@3UtagRECT@@A	; saved_screen_mouse_rectangle
PUBLIC	?saved_screen_screen_rectangle@@3UtagRECT@@A	; saved_screen_screen_rectangle
PUBLIC	?mouse_trail_positions_array@@3PAUMOUSE_TRAIL_POSITION@@A ; mouse_trail_positions_array
PUBLIC	?mouse_graphic_needs_restoring@@3HA		; mouse_graphic_needs_restoring
?saved_back_screen_mouse_rectangle@@3UtagRECT@@A DB 010H DUP (?) ; saved_back_screen_mouse_rectangle
?saved_back_screen_screen_rectangle@@3UtagRECT@@A DB 010H DUP (?) ; saved_back_screen_screen_rectangle
?saved_screen_mouse_rectangle@@3UtagRECT@@A DB 010H DUP (?) ; saved_screen_mouse_rectangle
?saved_screen_screen_rectangle@@3UtagRECT@@A DB 010H DUP (?) ; saved_screen_screen_rectangle
?mouse_trail_positions_array@@3PAUMOUSE_TRAIL_POSITION@@A DB 01000H DUP (?) ; mouse_trail_positions_array
?mouse_graphic_needs_restoring@@3HA DD 01H DUP (?)	; mouse_graphic_needs_restoring
_BSS	ENDS
?mouse_pointer_height@@3HA DD 014H			; mouse_pointer_height
?mouse_pointer_width@@3HA DD 0aH			; mouse_pointer_width
PUBLIC	?restore_screen_under_mouse_pointer@@YGXXZ	; restore_screen_under_mouse_pointer
PUBLIC	?save_frontbuffer_screen_under_mouse_pointer@@YGXHH@Z ; save_frontbuffer_screen_under_mouse_pointer
PUBLIC	?draw_raw_mouse_pointer@@YGXHH@Z		; draw_raw_mouse_pointer
PUBLIC	?get_mouse_graphic_on@@YGHXZ			; get_mouse_graphic_on
PUBLIC	?update_mouse_pointer@@YGXXZ			; update_mouse_pointer
PUBLIC	?initialise_mouse_pointer@@YGXPAG@Z		; initialise_mouse_pointer
PUBLIC	?set_mouse_graphic_off@@YGXXZ			; set_mouse_graphic_off
PUBLIC	?set_mouse_graphic_on@@YGXXZ			; set_mouse_graphic_on
?mouse_graphic_position_x@@3HA DD 01H DUP (?)		; mouse_graphic_position_x
?mouse_graphic_position_y@@3HA DD 01H DUP (?)		; mouse_graphic_position_y
?mouse_graphic_on@@3HA DD 01H DUP (?)			; mouse_graphic_on
?mouse_graphic_drawn@@3HA DD 01H DUP (?)		; mouse_graphic_drawn
?mouse_pointer_screen@@3PAUSCREEN@@A DD 01H DUP (?)	; mouse_pointer_screen
?mouse_pointer_background@@3PAUSCREEN@@A DD 01H DUP (?)	; mouse_pointer_background
_BSS	ENDS
END
