; Listing generated by Microsoft (R) Optimizing Compiler Version 19.16.27045.0 

	TITLE	c:\users\nhv90\projects\eech\aphavoc\source\misc\msg_in.c
	.686P
	.XMM
	include listing.inc
	.model	flat

INCLUDELIB OLDNAMES

PUBLIC	??_C@_0CB@FJHDHJFF@MESSAGE?3?5Unknown?5message?5type?5?$CF@ ; `string'
PUBLIC	??_C@_0BB@HMCGNGHF@?$CFs?5?$CI?$CFs?51?9?$CFd?$CJ?3?5?$CFs@ ; `string'
PUBLIC	??_C@_0M@IMLPLBM@?$CFs?51?9?$CFd?3?5?$CFs@	; `string'
PUBLIC	??_C@_07IAFACCAD@?$CFs?5?3?5?$CFs@		; `string'
PUBLIC	??_C@_09DBGCPOJB@?$CFs?51?9?$CFd?3?5@		; `string'
PUBLIC	??_C@_0M@GGBAKKFK@?$CFs?$CFs?5?$CFs?5?$CFd?5@	; `string'
PUBLIC	??_C@_09ONNBFJGN@No?5damage@			; `string'
PUBLIC	??_C@_0O@LAABLPCG@Slight?5damage@		; `string'
PUBLIC	??_C@_0BA@OGBLOPBA@Moderate?5damage@		; `string'
PUBLIC	??_C@_0N@GDPEJOII@Heavy?5damage@		; `string'
PUBLIC	??_C@_0BA@OIFMPHDI@Critical?5damage@		; `string'
PUBLIC	??_C@_0N@JJCLPCKK@destroyed?5by@		; `string'
PUBLIC	??_C@_0BA@DCNJBCDL@under?5attack?5by@		; `string'
PUBLIC	??_C@_0N@JIGEGLMG@?$CFs?0?5?$CFs?5?$CFs?5?$CFs@	; `string'
PUBLIC	??_C@_02LFBAPLBM@by@				; `string'
PUBLIC	??_C@_0M@HKJEMFMD@?$CFs?5?$CFs?5?$CFs?5?$CFs@	; `string'
PUBLIC	??_C@_0M@KPOKLKIM@captured?5by@			; `string'
PUBLIC	??_C@_09OMEHJBAL@destroyed@			; `string'
PUBLIC	??_C@_0P@OKCGHNEC@?$FL?$CF02d?3?$CF02d?$FN?5?$CFs@ ; `string'
;	COMDAT ?flag@?1??play_radio_message_negative_response@@YGXPAUENTITY@@HMM@Z@4HA
_BSS	SEGMENT
?flag@?1??play_radio_message_negative_response@@YGXPAUENTITY@@HMM@Z@4HA DD 01H DUP (?) ; `play_radio_message_negative_response'::`2'::flag
_BSS	ENDS
;	COMDAT ?val@?1??play_radio_message_affirmative_response@@YGXPAUENTITY@@HMM@Z@4HA
_BSS	SEGMENT
?val@?1??play_radio_message_affirmative_response@@YGXPAUENTITY@@HMM@Z@4HA DD 01H DUP (?) ; `play_radio_message_affirmative_response'::`2'::val
_BSS	ENDS
;	COMDAT ??_C@_0P@OKCGHNEC@?$FL?$CF02d?3?$CF02d?$FN?5?$CFs@
CONST	SEGMENT
??_C@_0P@OKCGHNEC@?$FL?$CF02d?3?$CF02d?$FN?5?$CFs@ DB '[%02d:%02d] %s', 00H ; `string'
CONST	ENDS
;	COMDAT ??_C@_09OMEHJBAL@destroyed@
CONST	SEGMENT
??_C@_09OMEHJBAL@destroyed@ DB 'destroyed', 00H		; `string'
CONST	ENDS
;	COMDAT ??_C@_0M@KPOKLKIM@captured?5by@
CONST	SEGMENT
??_C@_0M@KPOKLKIM@captured?5by@ DB 'captured by', 00H	; `string'
CONST	ENDS
;	COMDAT ??_C@_0M@HKJEMFMD@?$CFs?5?$CFs?5?$CFs?5?$CFs@
CONST	SEGMENT
??_C@_0M@HKJEMFMD@?$CFs?5?$CFs?5?$CFs?5?$CFs@ DB '%s %s %s %s', 00H ; `string'
CONST	ENDS
;	COMDAT ??_C@_02LFBAPLBM@by@
CONST	SEGMENT
??_C@_02LFBAPLBM@by@ DB 'by', 00H			; `string'
CONST	ENDS
;	COMDAT ??_C@_0N@JIGEGLMG@?$CFs?0?5?$CFs?5?$CFs?5?$CFs@
CONST	SEGMENT
??_C@_0N@JIGEGLMG@?$CFs?0?5?$CFs?5?$CFs?5?$CFs@ DB '%s, %s %s %s', 00H ; `string'
CONST	ENDS
;	COMDAT ??_C@_0BA@DCNJBCDL@under?5attack?5by@
CONST	SEGMENT
??_C@_0BA@DCNJBCDL@under?5attack?5by@ DB 'under attack by', 00H ; `string'
CONST	ENDS
;	COMDAT ??_C@_0N@JJCLPCKK@destroyed?5by@
CONST	SEGMENT
??_C@_0N@JJCLPCKK@destroyed?5by@ DB 'destroyed by', 00H	; `string'
CONST	ENDS
;	COMDAT ??_C@_0BA@OIFMPHDI@Critical?5damage@
CONST	SEGMENT
??_C@_0BA@OIFMPHDI@Critical?5damage@ DB 'Critical damage', 00H ; `string'
CONST	ENDS
;	COMDAT ??_C@_0N@GDPEJOII@Heavy?5damage@
CONST	SEGMENT
??_C@_0N@GDPEJOII@Heavy?5damage@ DB 'Heavy damage', 00H	; `string'
CONST	ENDS
;	COMDAT ??_C@_0BA@OGBLOPBA@Moderate?5damage@
CONST	SEGMENT
??_C@_0BA@OGBLOPBA@Moderate?5damage@ DB 'Moderate damage', 00H ; `string'
CONST	ENDS
;	COMDAT ??_C@_0O@LAABLPCG@Slight?5damage@
CONST	SEGMENT
??_C@_0O@LAABLPCG@Slight?5damage@ DB 'Slight damage', 00H ; `string'
CONST	ENDS
;	COMDAT ??_C@_09ONNBFJGN@No?5damage@
CONST	SEGMENT
??_C@_09ONNBFJGN@No?5damage@ DB 'No damage', 00H	; `string'
CONST	ENDS
;	COMDAT ??_C@_0M@GGBAKKFK@?$CFs?$CFs?5?$CFs?5?$CFd?5@
CONST	SEGMENT
??_C@_0M@GGBAKKFK@?$CFs?$CFs?5?$CFs?5?$CFd?5@ DB '%s%s %s %d ', 00H ; `string'
CONST	ENDS
;	COMDAT ??_C@_09DBGCPOJB@?$CFs?51?9?$CFd?3?5@
CONST	SEGMENT
??_C@_09DBGCPOJB@?$CFs?51?9?$CFd?3?5@ DB '%s 1-%d: ', 00H ; `string'
CONST	ENDS
;	COMDAT ??_C@_07IAFACCAD@?$CFs?5?3?5?$CFs@
CONST	SEGMENT
??_C@_07IAFACCAD@?$CFs?5?3?5?$CFs@ DB '%s : %s', 00H	; `string'
CONST	ENDS
;	COMDAT ??_C@_0M@IMLPLBM@?$CFs?51?9?$CFd?3?5?$CFs@
CONST	SEGMENT
??_C@_0M@IMLPLBM@?$CFs?51?9?$CFd?3?5?$CFs@ DB '%s 1-%d: %s', 00H ; `string'
CONST	ENDS
;	COMDAT ??_C@_0BB@HMCGNGHF@?$CFs?5?$CI?$CFs?51?9?$CFd?$CJ?3?5?$CFs@
CONST	SEGMENT
??_C@_0BB@HMCGNGHF@?$CFs?5?$CI?$CFs?51?9?$CFd?$CJ?3?5?$CFs@ DB '%s (%s 1-'
	DB	'%d): %s', 00H				; `string'
CONST	ENDS
;	COMDAT ??_C@_0CB@FJHDHJFF@MESSAGE?3?5Unknown?5message?5type?5?$CF@
CONST	SEGMENT
??_C@_0CB@FJHDHJFF@MESSAGE?3?5Unknown?5message?5type?5?$CF@ DB 'MESSAGE: '
	DB	'Unknown message type %d', 00H		; `string'
PUBLIC	?process_message_attack_pfz@@YGXPAUENTITY@@0@Z	; process_message_attack_pfz
PUBLIC	?get_current_display_message@@YGPAUMESSAGE_LOG_TYPE@@XZ ; get_current_display_message
PUBLIC	?get_message_log_number_of_messages@@YGHXZ	; get_message_log_number_of_messages
PUBLIC	?get_message_log@@YGPAUMESSAGE_LOG_TYPE@@H@Z	; get_message_log
PUBLIC	?get_incoming_in_flight_message_flag@@YGHXZ	; get_incoming_in_flight_message_flag
PUBLIC	?display_in_flight_incoming_messages@@YGXXZ	; display_in_flight_incoming_messages
PUBLIC	?initialise_message_log@@YGXXZ			; initialise_message_log
PUBLIC	?deinitialise_message_log@@YGXXZ		; deinitialise_message_log
PUBLIC	?update_message_log@@YGXXZ			; update_message_log
PUBLIC	?display_last_received_message@@YGXPAUEVENT@@@Z	; display_last_received_message
PUBLIC	?pack_local_message_log@@YGXW4PACK_MODES@@@Z	; pack_local_message_log
PUBLIC	?unpack_local_message_log@@YGXW4PACK_MODES@@@Z	; unpack_local_message_log
PUBLIC	?set_incoming_message@@YGXPAUENTITY@@0W4MESSAGE_TEXT_TYPES@@PAD@Z ; set_incoming_message
PUBLIC	?process_radio_message@@YGXPAUENTITY@@W4MESSAGE_CATEGORIES@@H@Z ; process_radio_message
PUBLIC	?play_client_server_radio_message_response@@YGXPAUENTITY@@HMM@Z ; play_client_server_radio_message_response
?current_message_timer@@3MA DD 01H DUP (?)		; current_message_timer
?message_log@@3PAUMESSAGE_LOG_TYPE@@A DD 01H DUP (?)	; message_log
?num_messages@@3HA DD 01H DUP (?)			; num_messages
?max_messages@@3HA DD 01H DUP (?)			; max_messages
?group_wingman_cycle_forwards@@3HA DD 01H DUP (?)	; group_wingman_cycle_forwards
?message_side_colour@@3PAUREAL_COLOUR@@A DD 03H DUP (?)	; message_side_colour
_BSS	ENDS
;	COMDAT ?s@?1??unpack_local_message_log@@YGXW4PACK_MODES@@@Z@4PADA
_BSS	SEGMENT
?s@?1??unpack_local_message_log@@YGXW4PACK_MODES@@@Z@4PADA DB 0a4H DUP (?) ; `unpack_local_message_log'::`2'::s
_BSS	ENDS
?current_message@@3HA DD 0ffffffffH			; current_message
END
