; Listing generated by Microsoft (R) Optimizing Compiler Version 19.16.27045.0 

	TITLE	c:\users\nhv90\projects\eech\aphavoc\source\ui_menu\multiop\mult_fn.c
	.686P
	.XMM
	include listing.inc
	.model	flat

INCLUDELIB OLDNAMES

PUBLIC	??_C@_0N@GHHPHBFB@MP_CONNECTED@			; `string'
PUBLIC	??_C@_09NGFKAJIO@MP_STATUS@			; `string'
PUBLIC	??_C@_0BG@HNHNDLOK@MP_INVALID_PROPERTIES@	; `string'
PUBLIC	??_C@_0M@ENPANIEJ@MP_INTERNET@			; `string'
PUBLIC	??_C@_09ENJGLPJC@MP_SERIAL@			; `string'
PUBLIC	??_C@_08PIAFACLK@MP_MODEM@			; `string'
PUBLIC	??_C@_06JEAIKIO@MP_IPX@				; `string'
PUBLIC	??_C@_0BH@FHHJHLIC@MP_NO_SERVICE_PROVIDER@	; `string'
PUBLIC	??_C@_0BD@CJDKJGAI@No?5Modem?5Installed@	; `string'
PUBLIC	??_C@_0P@INKGIJFC@MP_UNCONNECTED@		; `string'
PUBLIC	??_C@_0BE@HOBDPNNO@MP_WAITING_FOR_CALL@		; `string'
PUBLIC	??_C@_0BB@CMENCCMM@MP_FINDING_GAMES@		; `string'
PUBLIC	??_C@_0BB@DAGKNNDH@MP_JOINING_GAMES@		; `string'
PUBLIC	??_C@_0BA@KHABAAKJ@MP_CONNECTED_AT@		; `string'
PUBLIC	??_C@_09NBKJFNCI@?$CFs?3?5?$CFs?5?$CFd@		; `string'
PUBLIC	??_C@_0DI@BECOOMCC@Server?5has?5got?5a?5problem?0?5reque@ ; `string'
PUBLIC	??_C@_0O@OEHCPNLP@MP_CONNECTING@		; `string'
PUBLIC	??_C@_0DH@LBDAIGEB@How?5can?5you?5exit?5this?5screen?5wi@ ; `string'
PUBLIC	?current_modem@@3PAUMODEM_NAMES@@A		; current_modem
PUBLIC	?current_active_service@@3PAUSERVICE_PROVIDER_TABLE_TYPE@@A ; current_active_service
PUBLIC	?modem_state@@3W4MODEM_INITIALISE_VALUES@@A	; modem_state
EXTRN	_DPSPGUID_IPX:BYTE
EXTRN	_DPSPGUID_MODEM:BYTE
EXTRN	_DPSPGUID_SERIAL:BYTE
;	COMDAT ?update_ticks@?1??multiplayer_modem_connection_update_function@@YGXXZ@4IA
_BSS	SEGMENT
?update_ticks@?1??multiplayer_modem_connection_update_function@@YGXXZ@4IA DD 01H DUP (?) ; `multiplayer_modem_connection_update_function'::`2'::update_ticks
_BSS	ENDS
;	COMDAT ?update_ticks@?1??multiplayer_modem_answer_update_function@@YGXXZ@4IA
_BSS	SEGMENT
?update_ticks@?1??multiplayer_modem_answer_update_function@@YGXXZ@4IA DD 01H DUP (?) ; `multiplayer_modem_answer_update_function'::`2'::update_ticks
_BSS	ENDS
;	COMDAT ?update_ticks@?1??multiplayer_modem_dial_update_function@@YGXXZ@4IA
_BSS	SEGMENT
?update_ticks@?1??multiplayer_modem_dial_update_function@@YGXXZ@4IA DD 01H DUP (?) ; `multiplayer_modem_dial_update_function'::`2'::update_ticks
?current_modem@@3PAUMODEM_NAMES@@A DD 01H DUP (?)	; current_modem
?current_active_service@@3PAUSERVICE_PROVIDER_TABLE_TYPE@@A DD 01H DUP (?) ; current_active_service
?modem_state@@3W4MODEM_INITIALISE_VALUES@@A DD 01H DUP (?) ; modem_state
_BSS	ENDS
;	COMDAT ??_C@_0DH@LBDAIGEB@How?5can?5you?5exit?5this?5screen?5wi@
CONST	SEGMENT
??_C@_0DH@LBDAIGEB@How?5can?5you?5exit?5this?5screen?5wi@ DB 'How can you'
	DB	' exit this screen without a button to exit?', 00H ; `string'
CONST	ENDS
;	COMDAT ??_C@_0O@OEHCPNLP@MP_CONNECTING@
CONST	SEGMENT
??_C@_0O@OEHCPNLP@MP_CONNECTING@ DB 'MP_CONNECTING', 00H ; `string'
CONST	ENDS
;	COMDAT ??_C@_0DI@BECOOMCC@Server?5has?5got?5a?5problem?0?5reque@
CONST	SEGMENT
??_C@_0DI@BECOOMCC@Server?5has?5got?5a?5problem?0?5reque@ DB 'Server has '
	DB	'got a problem, request campaing restart.  %s', 00H ; `string'
CONST	ENDS
;	COMDAT ??_C@_09NBKJFNCI@?$CFs?3?5?$CFs?5?$CFd@
CONST	SEGMENT
??_C@_09NBKJFNCI@?$CFs?3?5?$CFs?5?$CFd@ DB '%s: %s %d', 00H ; `string'
CONST	ENDS
;	COMDAT ??_C@_0BA@KHABAAKJ@MP_CONNECTED_AT@
CONST	SEGMENT
??_C@_0BA@KHABAAKJ@MP_CONNECTED_AT@ DB 'MP_CONNECTED_AT', 00H ; `string'
CONST	ENDS
;	COMDAT ??_C@_0BB@DAGKNNDH@MP_JOINING_GAMES@
CONST	SEGMENT
??_C@_0BB@DAGKNNDH@MP_JOINING_GAMES@ DB 'MP_JOINING_GAMES', 00H ; `string'
CONST	ENDS
;	COMDAT ??_C@_0BB@CMENCCMM@MP_FINDING_GAMES@
CONST	SEGMENT
??_C@_0BB@CMENCCMM@MP_FINDING_GAMES@ DB 'MP_FINDING_GAMES', 00H ; `string'
CONST	ENDS
;	COMDAT ??_C@_0BE@HOBDPNNO@MP_WAITING_FOR_CALL@
CONST	SEGMENT
??_C@_0BE@HOBDPNNO@MP_WAITING_FOR_CALL@ DB 'MP_WAITING_FOR_CALL', 00H ; `string'
CONST	ENDS
;	COMDAT ??_C@_0P@INKGIJFC@MP_UNCONNECTED@
CONST	SEGMENT
??_C@_0P@INKGIJFC@MP_UNCONNECTED@ DB 'MP_UNCONNECTED', 00H ; `string'
CONST	ENDS
;	COMDAT ??_C@_0BD@CJDKJGAI@No?5Modem?5Installed@
CONST	SEGMENT
??_C@_0BD@CJDKJGAI@No?5Modem?5Installed@ DB 'No Modem Installed', 00H ; `string'
CONST	ENDS
;	COMDAT ??_C@_0BH@FHHJHLIC@MP_NO_SERVICE_PROVIDER@
CONST	SEGMENT
??_C@_0BH@FHHJHLIC@MP_NO_SERVICE_PROVIDER@ DB 'MP_NO_SERVICE_PROVIDER', 00H ; `string'
CONST	ENDS
;	COMDAT ??_C@_06JEAIKIO@MP_IPX@
CONST	SEGMENT
??_C@_06JEAIKIO@MP_IPX@ DB 'MP_IPX', 00H		; `string'
CONST	ENDS
;	COMDAT ??_C@_08PIAFACLK@MP_MODEM@
CONST	SEGMENT
??_C@_08PIAFACLK@MP_MODEM@ DB 'MP_MODEM', 00H		; `string'
CONST	ENDS
;	COMDAT ??_C@_09ENJGLPJC@MP_SERIAL@
CONST	SEGMENT
??_C@_09ENJGLPJC@MP_SERIAL@ DB 'MP_SERIAL', 00H		; `string'
CONST	ENDS
;	COMDAT ??_C@_0M@ENPANIEJ@MP_INTERNET@
CONST	SEGMENT
??_C@_0M@ENPANIEJ@MP_INTERNET@ DB 'MP_INTERNET', 00H	; `string'
CONST	ENDS
;	COMDAT ??_C@_0BG@HNHNDLOK@MP_INVALID_PROPERTIES@
CONST	SEGMENT
??_C@_0BG@HNHNDLOK@MP_INVALID_PROPERTIES@ DB 'MP_INVALID_PROPERTIES', 00H ; `string'
CONST	ENDS
;	COMDAT ??_C@_09NGFKAJIO@MP_STATUS@
CONST	SEGMENT
??_C@_09NGFKAJIO@MP_STATUS@ DB 'MP_STATUS', 00H		; `string'
CONST	ENDS
;	COMDAT ??_C@_0N@GHHPHBFB@MP_CONNECTED@
CONST	SEGMENT
??_C@_0N@GHHPHBFB@MP_CONNECTED@ DB 'MP_CONNECTED', 00H	; `string'
PUBLIC	?store_multiplayer_options@@YGXXZ		; store_multiplayer_options
PUBLIC	?install_global_options_service_provider@@YGXXZ	; install_global_options_service_provider
PUBLIC	?start_service_provider@@YGXPAUSERVICE_PROVIDER_TABLE_TYPE@@@Z ; start_service_provider
PUBLIC	?notify_connection_type_button@@YGXPAUUI_OBJECT@@PAX@Z ; notify_connection_type_button
PUBLIC	?initialise_service_provider_connection@@YGXXZ	; initialise_service_provider_connection
PUBLIC	?notify_modem_answer_function@@YGXPAUUI_OBJECT@@PAX@Z ; notify_modem_answer_function
PUBLIC	?notify_modem_dial_function@@YGXPAUUI_OBJECT@@PAX@Z ; notify_modem_dial_function
PUBLIC	?notify_modem_cancel_function@@YGXPAUUI_OBJECT@@PAX@Z ; notify_modem_cancel_function
PUBLIC	?validate_modem_connection@@YGXXZ		; validate_modem_connection
PUBLIC	?notify_multi_player_setup@@YGXXZ		; notify_multi_player_setup
PUBLIC	?set_serial_connection_status@@YGXXZ		; set_serial_connection_status
END
