; Listing generated by Microsoft (R) Optimizing Compiler Version 19.16.27045.0 

	TITLE	c:\users\nhv90\projects\eech\aphavoc\source\ui_menu\options\op_commn.c
	.686P
	.XMM
	include listing.inc
	.model	flat

INCLUDELIB OLDNAMES

PUBLIC	?option_page_ok_button@@3PAUUI_OBJECT@@A	; option_page_ok_button
PUBLIC	?option_page_ok_button_reasons@@3HA		; option_page_ok_button_reasons
PUBLIC	?ghost_multiplayer_option_button@@3PAUUI_OBJECT@@A ; ghost_multiplayer_option_button
PUBLIC	??_C@_0O@MMGMFNDB@Realism?5Title@		; `string'
PUBLIC	??_C@_0L@BIMOBEIN@SOUND?5MENU@			; `string'
PUBLIC	??_C@_0O@CMENFGPI@DYNAMICS?5MENU@		; `string'
PUBLIC	??_C@_0BA@IDLKIDFO@CONTROLLER?5MENU@		; `string'
PUBLIC	??_C@_0P@BIONMHDC@UI_MULTIPLAYER@		; `string'
PUBLIC	??_C@_07EKAIBOKF@Restart@			; `string'
?option_page_ok_button@@3PAUUI_OBJECT@@A DD 01H DUP (?)	; option_page_ok_button
?option_page_ok_button_reasons@@3HA DD 01H DUP (?)	; option_page_ok_button_reasons
?ghost_multiplayer_option_button@@3PAUUI_OBJECT@@A DD 01H DUP (?) ; ghost_multiplayer_option_button
_BSS	ENDS
;	COMDAT ??_C@_07EKAIBOKF@Restart@
CONST	SEGMENT
??_C@_07EKAIBOKF@Restart@ DB 'Restart', 00H		; `string'
CONST	ENDS
;	COMDAT ??_C@_0P@BIONMHDC@UI_MULTIPLAYER@
CONST	SEGMENT
??_C@_0P@BIONMHDC@UI_MULTIPLAYER@ DB 'UI_MULTIPLAYER', 00H ; `string'
CONST	ENDS
;	COMDAT ??_C@_0BA@IDLKIDFO@CONTROLLER?5MENU@
CONST	SEGMENT
??_C@_0BA@IDLKIDFO@CONTROLLER?5MENU@ DB 'CONTROLLER MENU', 00H ; `string'
CONST	ENDS
;	COMDAT ??_C@_0O@CMENFGPI@DYNAMICS?5MENU@
CONST	SEGMENT
??_C@_0O@CMENFGPI@DYNAMICS?5MENU@ DB 'DYNAMICS MENU', 00H ; `string'
CONST	ENDS
;	COMDAT ??_C@_0L@BIMOBEIN@SOUND?5MENU@
CONST	SEGMENT
??_C@_0L@BIMOBEIN@SOUND?5MENU@ DB 'SOUND MENU', 00H	; `string'
CONST	ENDS
;	COMDAT ??_C@_0O@MMGMFNDB@Realism?5Title@
CONST	SEGMENT
??_C@_0O@MMGMFNDB@Realism?5Title@ DB 'Realism Title', 00H ; `string'
PUBLIC	?set_option_page_ok_button_reason@@YGXW4OPTION_PAGE_OK_BUTTON_REASON@@H@Z ; set_option_page_ok_button_reason
PUBLIC	?define_options_screen_common_objects@@YGXXZ	; define_options_screen_common_objects
END
