; Listing generated by Microsoft (R) Optimizing Compiler Version 19.16.27045.0 

	TITLE	c:\users\nhv90\projects\eech\aphavoc\source\ui_menu\player\play_gn.c
	.686P
	.XMM
	include listing.inc
	.model	flat

INCLUDELIB OLDNAMES

PUBLIC	??_C@_0P@GOEIDLBI@Aircraft?5kills@		; `string'
PUBLIC	??_C@_0BB@PGGDALNK@Helicopter?5kills@		; `string'
PUBLIC	??_C@_0N@OBGHGPHF@Ground?5Kills@		; `string'
PUBLIC	??_C@_0O@CLPOICOD@?5?5Air?5defence@		; `string'
PUBLIC	??_C@_08ILDDDMMF@?5?5Armour@			; `string'
PUBLIC	??_C@_0M@FBKFAPD@?5?5Artillery@			; `string'
PUBLIC	??_C@_09EOMMEIMJ@Sea?5Kills@			; `string'
PUBLIC	??_C@_0M@HKADIJJM@Fratricides@			; `string'
PUBLIC	??_C@_03NDEAONJP@?5?5?5@			; `string'
PUBLIC	??_C@_0BB@DKPFAEL@Helicopters?5lost@		; `string'
PUBLIC	??_C@_03EIHDHNE@KIA@				; `string'
PUBLIC	??_C@_0P@FGEIGIED@Missions?5Flown@		; `string'
PUBLIC	??_C@_0N@GPPIJFNH@Success?5Rate@		; `string'
PUBLIC	??_C@_0BB@KDFKFOIO@Successful?5Tours@		; `string'
PUBLIC	?general_log_output_list@@3PAUUI_OBJECT@@A	; general_log_output_list
PUBLIC	?general_log_output_list_area@@3PAUUI_OBJECT@@A	; general_log_output_list_area
PUBLIC	?general_log_text_list@@3PAUUI_OBJECT@@A	; general_log_text_list
PUBLIC	?general_log_text_list_area@@3PAUUI_OBJECT@@A	; general_log_text_list_area
?general_log_output_list@@3PAUUI_OBJECT@@A DD 01H DUP (?) ; general_log_output_list
?general_log_output_list_area@@3PAUUI_OBJECT@@A DD 01H DUP (?) ; general_log_output_list_area
?general_log_text_list@@3PAUUI_OBJECT@@A DD 01H DUP (?)	; general_log_text_list
?general_log_text_list_area@@3PAUUI_OBJECT@@A DD 01H DUP (?) ; general_log_text_list_area
_BSS	ENDS
;	COMDAT ??_C@_0BB@KDFKFOIO@Successful?5Tours@
CONST	SEGMENT
??_C@_0BB@KDFKFOIO@Successful?5Tours@ DB 'Successful Tours', 00H ; `string'
CONST	ENDS
;	COMDAT ??_C@_0N@GPPIJFNH@Success?5Rate@
CONST	SEGMENT
??_C@_0N@GPPIJFNH@Success?5Rate@ DB 'Success Rate', 00H	; `string'
CONST	ENDS
;	COMDAT ??_C@_0P@FGEIGIED@Missions?5Flown@
CONST	SEGMENT
??_C@_0P@FGEIGIED@Missions?5Flown@ DB 'Missions Flown', 00H ; `string'
CONST	ENDS
;	COMDAT ??_C@_03EIHDHNE@KIA@
CONST	SEGMENT
??_C@_03EIHDHNE@KIA@ DB 'KIA', 00H			; `string'
CONST	ENDS
;	COMDAT ??_C@_0BB@DKPFAEL@Helicopters?5lost@
CONST	SEGMENT
??_C@_0BB@DKPFAEL@Helicopters?5lost@ DB 'Helicopters lost', 00H ; `string'
CONST	ENDS
;	COMDAT ??_C@_03NDEAONJP@?5?5?5@
CONST	SEGMENT
??_C@_03NDEAONJP@?5?5?5@ DB '   ', 00H			; `string'
CONST	ENDS
;	COMDAT ??_C@_0M@HKADIJJM@Fratricides@
CONST	SEGMENT
??_C@_0M@HKADIJJM@Fratricides@ DB 'Fratricides', 00H	; `string'
CONST	ENDS
;	COMDAT ??_C@_09EOMMEIMJ@Sea?5Kills@
CONST	SEGMENT
??_C@_09EOMMEIMJ@Sea?5Kills@ DB 'Sea Kills', 00H	; `string'
CONST	ENDS
;	COMDAT ??_C@_0M@FBKFAPD@?5?5Artillery@
CONST	SEGMENT
??_C@_0M@FBKFAPD@?5?5Artillery@ DB '  Artillery', 00H	; `string'
CONST	ENDS
;	COMDAT ??_C@_08ILDDDMMF@?5?5Armour@
CONST	SEGMENT
??_C@_08ILDDDMMF@?5?5Armour@ DB '  Armour', 00H		; `string'
CONST	ENDS
;	COMDAT ??_C@_0O@CLPOICOD@?5?5Air?5defence@
CONST	SEGMENT
??_C@_0O@CLPOICOD@?5?5Air?5defence@ DB '  Air defence', 00H ; `string'
CONST	ENDS
;	COMDAT ??_C@_0N@OBGHGPHF@Ground?5Kills@
CONST	SEGMENT
??_C@_0N@OBGHGPHF@Ground?5Kills@ DB 'Ground Kills', 00H	; `string'
CONST	ENDS
;	COMDAT ??_C@_0BB@PGGDALNK@Helicopter?5kills@
CONST	SEGMENT
??_C@_0BB@PGGDALNK@Helicopter?5kills@ DB 'Helicopter kills', 00H ; `string'
CONST	ENDS
;	COMDAT ??_C@_0P@GOEIDLBI@Aircraft?5kills@
CONST	SEGMENT
??_C@_0P@GOEIDLBI@Aircraft?5kills@ DB 'Aircraft kills', 00H ; `string'
PUBLIC	?define_general_log_page_objects@@YGXXZ		; define_general_log_page_objects
PUBLIC	?rebuild_general_log_list@@YGXPAUPLAYER_LOG_TYPE@@H@Z ; rebuild_general_log_list
PUBLIC	?notify_show_general_log_page@@YGXPAUUI_OBJECT@@@Z ; notify_show_general_log_page
END
