; Listing generated by Microsoft (R) Optimizing Compiler Version 19.16.27045.0 

	TITLE	c:\users\nhv90\projects\eech\aphavoc\source\ui_menu\player\play_wp.c
	.686P
	.XMM
	include listing.inc
	.model	flat

INCLUDELIB OLDNAMES

PUBLIC	??_C@_06GANGLKEK@WEAPON@			; `string'
PUBLIC	??_C@_05EBJPIPBG@FIRED@				; `string'
PUBLIC	??_C@_03CBIHHOCO@HIT@				; `string'
PUBLIC	??_C@_03KAEFJBBN@EFF@				; `string'
;	COMDAT ??_C@_03KAEFJBBN@EFF@
CONST	SEGMENT
??_C@_03KAEFJBBN@EFF@ DB 'EFF', 00H			; `string'
CONST	ENDS
;	COMDAT ??_C@_03CBIHHOCO@HIT@
CONST	SEGMENT
??_C@_03CBIHHOCO@HIT@ DB 'HIT', 00H			; `string'
CONST	ENDS
;	COMDAT ??_C@_05EBJPIPBG@FIRED@
CONST	SEGMENT
??_C@_05EBJPIPBG@FIRED@ DB 'FIRED', 00H			; `string'
CONST	ENDS
;	COMDAT ??_C@_06GANGLKEK@WEAPON@
CONST	SEGMENT
??_C@_06GANGLKEK@WEAPON@ DB 'WEAPON', 00H		; `string'
PUBLIC	?define_weapon_log_page_objects@@YGXXZ		; define_weapon_log_page_objects
PUBLIC	?notify_show_weapon_log_page@@YGXPAUUI_OBJECT@@@Z ; notify_show_weapon_log_page
PUBLIC	?rebuild_weapon_log_list@@YGXPAUPLAYER_LOG_TYPE@@H@Z ; rebuild_weapon_log_list
?weapon_list_area@@3PAUUI_OBJECT@@A DD 01H DUP (?)	; weapon_list_area
?weapon_type_list@@3PAUUI_OBJECT@@A DD 01H DUP (?)	; weapon_type_list
?weapon_hit_list@@3PAUUI_OBJECT@@A DD 01H DUP (?)	; weapon_hit_list
?weapon_fired_list@@3PAUUI_OBJECT@@A DD 01H DUP (?)	; weapon_fired_list
?weapon_eff_list@@3PAUUI_OBJECT@@A DD 01H DUP (?)	; weapon_eff_list
_BSS	ENDS
END
