; Listing generated by Microsoft (R) Optimizing Compiler Version 19.16.27045.0 

	TITLE	c:\users\nhv90\projects\eech\modules\graphics\psdread.c
	.686P
	.XMM
	include listing.inc
	.model	flat

INCLUDELIB OLDNAMES

PUBLIC	?psd_layers@@3PAUPSD_LAYER_INFO@@A		; psd_layers
PUBLIC	?number_of_psd_layers@@3HA			; number_of_psd_layers
PUBLIC	??_C@_0L@LBAOFDNG@?$CF?4?$CKs?2?$CFs?2?$CFs@	; `string'
PUBLIC	??_C@_04GELLELDE@8BPS@				; `string'
PUBLIC	??_C@_0CE@NONIEFE@File?5not?5a?5photoshop?5psd?5format@ ; `string'
PUBLIC	??_C@_0CH@MOIKMHFA@File?5not?5correct?5photoshop?5vers@ ; `string'
PUBLIC	??_C@_0CL@NBADNBNH@Unsupported?5number?5of?5bits?5per?5@ ; `string'
PUBLIC	??_C@_0CA@NKFEDGIF@Unsupported?5image?5mode?3?5?$CI?$CFd?$CJ?5?$CFs@ ; `string'
PUBLIC	??_C@_04KDANOMBE@8BIM@				; `string'
PUBLIC	??_C@_0DC@IFJIPEEO@File?5not?5a?5photoshop?5multi?9laye@ ; `string'
PUBLIC	??_C@_0EJ@PPNKFPMK@Layer?5not?5same?5size?5as?5main?5ima@ ; `string'
PUBLIC	?psd_palette@@3PAUREAL_COLOUR@@A		; psd_palette
?psd_layers@@3PAUPSD_LAYER_INFO@@A DB 019c0H DUP (?)	; psd_layers
?number_of_psd_layers@@3HA DD 01H DUP (?)		; number_of_psd_layers
?psd_palette@@3PAUREAL_COLOUR@@A DD 0100H DUP (?)	; psd_palette
_BSS	ENDS
;	COMDAT ??_C@_0EJ@PPNKFPMK@Layer?5not?5same?5size?5as?5main?5ima@
CONST	SEGMENT
??_C@_0EJ@PPNKFPMK@Layer?5not?5same?5size?5as?5main?5ima@ DB 'Layer not s'
	DB	'ame size as main image: ( %d, %d ) -> ( %d, %d ), ( %s ) - %s'
	DB	00H						; `string'
CONST	ENDS
;	COMDAT ??_C@_0DC@IFJIPEEO@File?5not?5a?5photoshop?5multi?9laye@
CONST	SEGMENT
??_C@_0DC@IFJIPEEO@File?5not?5a?5photoshop?5multi?9laye@ DB 'File not a p'
	DB	'hotoshop multi-layered psd format: %s', 00H	; `string'
CONST	ENDS
;	COMDAT ??_C@_04KDANOMBE@8BIM@
CONST	SEGMENT
??_C@_04KDANOMBE@8BIM@ DB '8BIM', 00H			; `string'
CONST	ENDS
;	COMDAT ??_C@_0CA@NKFEDGIF@Unsupported?5image?5mode?3?5?$CI?$CFd?$CJ?5?$CFs@
CONST	SEGMENT
??_C@_0CA@NKFEDGIF@Unsupported?5image?5mode?3?5?$CI?$CFd?$CJ?5?$CFs@ DB 'U'
	DB	'nsupported image mode: (%d) %s', 00H	; `string'
CONST	ENDS
;	COMDAT ??_C@_0CL@NBADNBNH@Unsupported?5number?5of?5bits?5per?5@
CONST	SEGMENT
??_C@_0CL@NBADNBNH@Unsupported?5number?5of?5bits?5per?5@ DB 'Unsupported '
	DB	'number of bits per channel: %s', 00H	; `string'
CONST	ENDS
;	COMDAT ??_C@_0CH@MOIKMHFA@File?5not?5correct?5photoshop?5vers@
CONST	SEGMENT
??_C@_0CH@MOIKMHFA@File?5not?5correct?5photoshop?5vers@ DB 'File not corr'
	DB	'ect photoshop version: %s', 00H		; `string'
CONST	ENDS
;	COMDAT ??_C@_0CE@NONIEFE@File?5not?5a?5photoshop?5psd?5format@
CONST	SEGMENT
??_C@_0CE@NONIEFE@File?5not?5a?5photoshop?5psd?5format@ DB 'File not a ph'
	DB	'otoshop psd format: %s', 00H		; `string'
CONST	ENDS
;	COMDAT ??_C@_04GELLELDE@8BPS@
CONST	SEGMENT
??_C@_04GELLELDE@8BPS@ DB '8BPS', 00H			; `string'
CONST	ENDS
;	COMDAT ??_C@_0L@LBAOFDNG@?$CF?4?$CKs?2?$CFs?2?$CFs@
CONST	SEGMENT
??_C@_0L@LBAOFDNG@?$CF?4?$CKs?2?$CFs?2?$CFs@ DB '%.*s\%s\%s', 00H ; `string'
PUBLIC	?initialise_psd_layers@@YGXXZ			; initialise_psd_layers
PUBLIC	?load_psd_file@@YGPAXPBDPAH11@Z			; load_psd_file
END
