; Listing generated by Microsoft (R) Optimizing Compiler Version 19.16.27045.0 

	TITLE	c:\users\nhv90\projects\eech\aphavoc\source\entity\fixed\pylon\py_dbase.c
	.686P
	.XMM
	include listing.inc
	.model	flat

INCLUDELIB OLDNAMES

PUBLIC	?pylon_attachment_database@@3PAUPYLON_ATTACHMENT_DATA@@A ; pylon_attachment_database
PUBLIC	??_C@_0CM@PGHCLHLL@Fixed?5sub?5type?5?$CFd?5is?5not?5a?5vali@ ; `string'
;	COMDAT ??_C@_0CM@PGHCLHLL@Fixed?5sub?5type?5?$CFd?5is?5not?5a?5vali@
CONST	SEGMENT
??_C@_0CM@PGHCLHLL@Fixed?5sub?5type?5?$CFd?5is?5not?5a?5vali@ DB 'Fixed s'
	DB	'ub type %d is not a valid pylon type', 00H	; `string'
?pylon_attachment_database@@3PAUPYLON_ATTACHMENT_DATA@@A DD 04d9H ; pylon_attachment_database
	DB	02H
	DB	02H
	DB	00H
	DB	00H
	DB	01H
	DB	01H
	ORG $+2
	DD	0c134cccdr			; -11.3
	DD	041e66666r			; 28.8
	DD	000000000r			; 0
	DD	04134cccdr			; 11.3
	DD	041e66666r			; 28.8
	DD	000000000r			; 0
	DD	0c1826666r			; -16.3
	DD	041e66666r			; 28.8
	DD	000000000r			; 0
	DD	041826666r			; 16.3
	DD	041e66666r			; 28.8
	DD	000000000r			; 0
	DD	0c134cccdr			; -11.3
	DD	0421e0000r			; 39.5
	DD	000000000r			; 0
	DD	04134cccdr			; 11.3
	DD	0421e0000r			; 39.5
	DD	000000000r			; 0
	DD	04dbH
	DB	02H
	DB	02H
	DB	00H
	DB	00H
	DB	01H
	DB	01H
	ORG $+2
	DD	0c134cccdr			; -11.3
	DD	041e66666r			; 28.8
	DD	000000000r			; 0
	DD	04134cccdr			; 11.3
	DD	041e66666r			; 28.8
	DD	000000000r			; 0
	DD	0c1826666r			; -16.3
	DD	041e66666r			; 28.8
	DD	000000000r			; 0
	DD	041826666r			; 16.3
	DD	041e66666r			; 28.8
	DD	000000000r			; 0
	DD	0c134cccdr			; -11.3
	DD	0421e0000r			; 39.5
	DD	000000000r			; 0
	DD	04134cccdr			; 11.3
	DD	0421e0000r			; 39.5
	DD	000000000r			; 0
	DD	04dbH
	DB	02H
	DB	02H
	DB	00H
	DB	00H
	DB	01H
	DB	01H
	ORG $+2
	DD	04134cccdr			; 11.3
	DD	041e66666r			; 28.8
	DD	000000000r			; 0
	DD	0c134cccdr			; -11.3
	DD	041e66666r			; 28.8
	DD	000000000r			; 0
	DD	041826666r			; 16.3
	DD	041e66666r			; 28.8
	DD	000000000r			; 0
	DD	0c1826666r			; -16.3
	DD	041e66666r			; 28.8
	DD	000000000r			; 0
	DD	04134cccdr			; 11.3
	DD	0421e0000r			; 39.5
	DD	000000000r			; 0
	DD	0c134cccdr			; -11.3
	DD	0421e0000r			; 39.5
	DD	000000000r			; 0
PUBLIC	?initialise_pylon_database@@YGXXZ		; initialise_pylon_database
PUBLIC	?get_pylon_sub_type@@YG?AW4PYLON_TYPES@@H@Z	; get_pylon_sub_type
PUBLIC	?get_pylon_sag_value@@YGMH@Z			; get_pylon_sag_value
?pylon_sag_lookup_table@@3PAMA DD 06H DUP (?)		; pylon_sag_lookup_table
_BSS	ENDS
?pylon_type_conversion_table@@3PAUPYLON_TYPE_CONVERSION_TABLE@@A DD 08H ; pylon_type_conversion_table
	DD	00H
	DD	09H
	DD	01H
	DD	07H
	DD	02H
	DD	0ffffffffH
	ORG $+4
END
