; Listing generated by Microsoft (R) Optimizing Compiler Version 19.16.27045.0 

	TITLE	c:\users\nhv90\projects\eech\aphavoc\source\entity\special\regen\rg_updt.c
	.686P
	.XMM
	include listing.inc
	.model	flat

INCLUDELIB OLDNAMES

PUBLIC	??_C@_0DM@LGKDBHII@RG_UPDT?3?5illegal?5regen?5sub?5type@ ; `string'
PUBLIC	??_C@_0BN@CHKCOPAF@RG_UPDT?3?5Unknown?5entity?5type@ ; `string'
PUBLIC	??_C@_0DC@CHFBAEFP@RG_UPDT?3?5Invalid?5Side?5?$CFd?5For?5De@ ; `string'
;	COMDAT ??_C@_0DC@CHFBAEFP@RG_UPDT?3?5Invalid?5Side?5?$CFd?5For?5De@
CONST	SEGMENT
??_C@_0DC@CHFBAEFP@RG_UPDT?3?5Invalid?5Side?5?$CFd?5For?5De@ DB 'RG_UPDT:'
	DB	' Invalid Side %d For Default Entity Regen', 00H ; `string'
CONST	ENDS
;	COMDAT ??_C@_0BN@CHKCOPAF@RG_UPDT?3?5Unknown?5entity?5type@
CONST	SEGMENT
??_C@_0BN@CHKCOPAF@RG_UPDT?3?5Unknown?5entity?5type@ DB 'RG_UPDT: Unknown'
	DB	' entity type', 00H				; `string'
CONST	ENDS
;	COMDAT ??_C@_0DM@LGKDBHII@RG_UPDT?3?5illegal?5regen?5sub?5type@
CONST	SEGMENT
??_C@_0DM@LGKDBHII@RG_UPDT?3?5illegal?5regen?5sub?5type@ DB 'RG_UPDT: ill'
	DB	'egal regen sub type: ENTITY_SUB_TYPE_REGEN_NONE', 00H ; `string'
PUBLIC	?initialise_regen_queues@@YGXXZ			; initialise_regen_queues
PUBLIC	?regen_update@@YGPAUENTITY@@PAU1@@Z		; regen_update
PUBLIC	?overload_regen_update_functions@@YGXXZ		; overload_regen_update_functions
PUBLIC	?increment_regen_queue_size@@YGHW4ENTITY_SIDES@@W4ENTITY_TYPES@@H@Z ; increment_regen_queue_size
PUBLIC	?add_default_entity_to_regen_queue@@YGXW4ENTITY_SIDES@@H@Z ; add_default_entity_to_regen_queue
PUBLIC	?add_entity_to_regen_queue@@YGXW4ENTITY_SIDES@@W4ENTITY_TYPES@@HH@Z ; add_entity_to_regen_queue
END
