; Listing generated by Microsoft (R) Optimizing Compiler Version 19.16.27045.0 

	TITLE	c:\users\nhv90\projects\eech\modules\graphics\screens.c
	.686P
	.XMM
	include listing.inc
	.model	flat

INCLUDELIB OLDNAMES

PUBLIC	?video_screen@@3PAUSCREEN@@A			; video_screen
PUBLIC	?active_screen@@3PAUSCREEN@@A			; active_screen
PUBLIC	?active_screen_alpha_mask@@3HA			; active_screen_alpha_mask
PUBLIC	?active_screen_alpha_shift@@3HA			; active_screen_alpha_shift
PUBLIC	?active_screen_green_shift@@3HA			; active_screen_green_shift
PUBLIC	?active_screen_blue_shift@@3HA			; active_screen_blue_shift
PUBLIC	?active_screen_blue_mask@@3HA			; active_screen_blue_mask
PUBLIC	?active_screen_red_shift@@3HA			; active_screen_red_shift
PUBLIC	?active_screen_red_mask@@3HA			; active_screen_red_mask
PUBLIC	?active_screen_green_mask@@3HA			; active_screen_green_mask
PUBLIC	??_C@_0BN@BDMMBHCE@Run?5out?5of?5available?5screens@ ; `string'
PUBLIC	??_C@_0BP@MDKCMJBC@Unable?5to?5create?5a?5free?5screen@ ; `string'
PUBLIC	?user_screen_alpha_mask@@3HA			; user_screen_alpha_mask
PUBLIC	?user_screen_alpha_shift@@3HA			; user_screen_alpha_shift
PUBLIC	?user_screen_blue_mask@@3HA			; user_screen_blue_mask
PUBLIC	?user_screen_blue_shift@@3HA			; user_screen_blue_shift
PUBLIC	?user_screen_green_mask@@3HA			; user_screen_green_mask
PUBLIC	?user_screen_green_shift@@3HA			; user_screen_green_shift
PUBLIC	?user_screen_red_mask@@3HA			; user_screen_red_mask
PUBLIC	?user_screen_red_shift@@3HA			; user_screen_red_shift
PUBLIC	?screen_array@@3PAUSCREEN@@A			; screen_array
?video_screen@@3PAUSCREEN@@A DD 01H DUP (?)		; video_screen
?active_screen@@3PAUSCREEN@@A DD 01H DUP (?)		; active_screen
?active_screen_alpha_mask@@3HA DD 01H DUP (?)		; active_screen_alpha_mask
?active_screen_alpha_shift@@3HA DD 01H DUP (?)		; active_screen_alpha_shift
?active_screen_green_shift@@3HA DD 01H DUP (?)		; active_screen_green_shift
?active_screen_blue_shift@@3HA DD 01H DUP (?)		; active_screen_blue_shift
?active_screen_blue_mask@@3HA DD 01H DUP (?)		; active_screen_blue_mask
?active_screen_red_shift@@3HA DD 01H DUP (?)		; active_screen_red_shift
?active_screen_red_mask@@3HA DD 01H DUP (?)		; active_screen_red_mask
?active_screen_green_mask@@3HA DD 01H DUP (?)		; active_screen_green_mask
?user_screen_alpha_mask@@3HA DD 01H DUP (?)		; user_screen_alpha_mask
?user_screen_alpha_shift@@3HA DD 01H DUP (?)		; user_screen_alpha_shift
?user_screen_blue_mask@@3HA DD 01H DUP (?)		; user_screen_blue_mask
?user_screen_blue_shift@@3HA DD 01H DUP (?)		; user_screen_blue_shift
?user_screen_green_mask@@3HA DD 01H DUP (?)		; user_screen_green_mask
?user_screen_green_shift@@3HA DD 01H DUP (?)		; user_screen_green_shift
?user_screen_red_mask@@3HA DD 01H DUP (?)		; user_screen_red_mask
?user_screen_red_shift@@3HA DD 01H DUP (?)		; user_screen_red_shift
?screen_array@@3PAUSCREEN@@A DB 060000H DUP (?)		; screen_array
_BSS	ENDS
;	COMDAT ??_C@_0BP@MDKCMJBC@Unable?5to?5create?5a?5free?5screen@
CONST	SEGMENT
??_C@_0BP@MDKCMJBC@Unable?5to?5create?5a?5free?5screen@ DB 'Unable to cre'
	DB	'ate a free screen', 00H			; `string'
CONST	ENDS
;	COMDAT ??_C@_0BN@BDMMBHCE@Run?5out?5of?5available?5screens@
CONST	SEGMENT
??_C@_0BN@BDMMBHCE@Run?5out?5of?5available?5screens@ DB 'Run out of avail'
	DB	'able screens', 00H				; `string'
PUBLIC	?restore_graphics_screens@@YGXXZ		; restore_graphics_screens
PUBLIC	?get_screen_locked@@YGHPAUSCREEN@@@Z		; get_screen_locked
PUBLIC	?set_user_screen_pixel_format@@YGXPAUSCREEN@@@Z	; set_user_screen_pixel_format
PUBLIC	?set_screen_pixel_format@@YGXXZ			; set_screen_pixel_format
PUBLIC	?create_video_screen@@YGXHHPAUIDirectDrawSurface7@@@Z ; create_video_screen
PUBLIC	?create_screen@@YGPAUSCREEN@@HHH@Z		; create_screen
PUBLIC	?initialise_system_graphics_screens@@YGXXZ	; initialise_system_graphics_screens
PUBLIC	?get_free_screen@@YGPAUSCREEN@@XZ		; get_free_screen
PUBLIC	?get_screen_pixel_format@@YGXPAH000@Z		; get_screen_pixel_format
PUBLIC	?get_screen_data@@YGPAEPAUSCREEN@@@Z		; get_screen_data
PUBLIC	?get_screen_pitch@@YGHPAUSCREEN@@@Z		; get_screen_pitch
PUBLIC	?get_screen_pixel_width@@YGHPAUSCREEN@@@Z	; get_screen_pixel_width
PUBLIC	?blit_screens@@YGXPAUSCREEN@@0HHHHHHHH@Z	; blit_screens
PUBLIC	?get_screen_rgba_masks@@YGXPAUSCREEN@@PAI111@Z	; get_screen_rgba_masks
PUBLIC	?create_user_3dvisual_texture_screen@@YGPAUSCREEN@@HHH@Z ; create_user_3dvisual_texture_screen
PUBLIC	?create_user_texture_screen@@YGPAUSCREEN@@HHHH@Z ; create_user_texture_screen
PUBLIC	?set_system_texture_screen@@YGXPAUSCREEN@@H@Z	; set_system_texture_screen
PUBLIC	?create_screen_for_system_texture@@YGPAUSCREEN@@H@Z ; create_screen_for_system_texture
PUBLIC	?create_system_texture_screen@@YGPAUSCREEN@@HHHH@Z ; create_system_texture_screen
PUBLIC	?destroy_screen@@YGHPAUSCREEN@@@Z		; destroy_screen
PUBLIC	?clear_screen@@YGXXZ				; clear_screen
PUBLIC	?get_active_screen@@YGPAUSCREEN@@XZ		; get_active_screen
PUBLIC	?lock_screen@@YGHPAUSCREEN@@@Z			; lock_screen
PUBLIC	?unlock_screen@@YGHPAUSCREEN@@@Z		; unlock_screen
PUBLIC	?get_screen_width@@YGHPAUSCREEN@@@Z		; get_screen_width
PUBLIC	?get_screen_height@@YGHPAUSCREEN@@@Z		; get_screen_height
PUBLIC	?set_block@@YGXHHHHUREAL_COLOUR@@@Z		; set_block
PUBLIC	?set_3d_render_target@@YGHPAUSCREEN@@@Z		; set_3d_render_target
PUBLIC	?set_active_screen@@YGHPAUSCREEN@@@Z		; set_active_screen
PUBLIC	?finalise_3d_render_target_texture@@YGXPAUSCREEN@@@Z ; finalise_3d_render_target_texture
?video_screen_structure@@3USCREEN@@A DB 030H DUP (?)	; video_screen_structure
?display_screen_structure@@3USCREEN@@A DB 030H DUP (?)	; display_screen_structure
_BSS	ENDS
END
