; Listing generated by Microsoft (R) Optimizing Compiler Version 19.16.27045.0 

	TITLE	c:\users\nhv90\projects\eech\aphavoc\source\entity\special\effect\soundeff\se_snd.c
	.686P
	.XMM
	include listing.inc
	.model	flat

INCLUDELIB OLDNAMES

PUBLIC	??_C@_0O@MAAGBJBO@Sound?5Effects@		; `string'
PUBLIC	??_C@_0P@OIBOADCF@Warning?5System@		; `string'
PUBLIC	??_C@_0BA@EJDACHAL@Co?9Pilot?5Speech@		; `string'
PUBLIC	??_C@_0P@NFDJINGK@Wingmen?5Speech@		; `string'
PUBLIC	??_C@_0BE@BHBPMPD@Air?5Traffic?5Control@	; `string'
PUBLIC	??_C@_0BE@KBCDLBPO@Forward?5Air?5Control@	; `string'
PUBLIC	??_C@_0P@BAFHIMAJ@Ground?5Control@		; `string'
PUBLIC	?ui_sounds_muted@@3HA				; ui_sounds_muted
?ui_sounds_muted@@3HA DD 01H DUP (?)			; ui_sounds_muted
_BSS	ENDS
;	COMDAT ??_C@_0P@BAFHIMAJ@Ground?5Control@
CONST	SEGMENT
??_C@_0P@BAFHIMAJ@Ground?5Control@ DB 'Ground Control', 00H ; `string'
CONST	ENDS
;	COMDAT ??_C@_0BE@KBCDLBPO@Forward?5Air?5Control@
CONST	SEGMENT
??_C@_0BE@KBCDLBPO@Forward?5Air?5Control@ DB 'Forward Air Control', 00H ; `string'
CONST	ENDS
;	COMDAT ??_C@_0BE@BHBPMPD@Air?5Traffic?5Control@
CONST	SEGMENT
??_C@_0BE@BHBPMPD@Air?5Traffic?5Control@ DB 'Air Traffic Control', 00H ; `string'
CONST	ENDS
;	COMDAT ??_C@_0P@NFDJINGK@Wingmen?5Speech@
CONST	SEGMENT
??_C@_0P@NFDJINGK@Wingmen?5Speech@ DB 'Wingmen Speech', 00H ; `string'
CONST	ENDS
;	COMDAT ??_C@_0BA@EJDACHAL@Co?9Pilot?5Speech@
CONST	SEGMENT
??_C@_0BA@EJDACHAL@Co?9Pilot?5Speech@ DB 'Co-Pilot Speech', 00H ; `string'
CONST	ENDS
;	COMDAT ??_C@_0P@OIBOADCF@Warning?5System@
CONST	SEGMENT
??_C@_0P@OIBOADCF@Warning?5System@ DB 'Warning System', 00H ; `string'
CONST	ENDS
;	COMDAT ??_C@_0O@MAAGBJBO@Sound?5Effects@
CONST	SEGMENT
??_C@_0O@MAAGBJBO@Sound?5Effects@ DB 'Sound Effects', 00H ; `string'
PUBLIC	?initialise_sound_channels@@YGXXZ		; initialise_sound_channels
PUBLIC	?set_sound_channel_muted@@YGXHH@Z		; set_sound_channel_muted
PUBLIC	?get_sound_channel_muted@@YGHH@Z		; get_sound_channel_muted
PUBLIC	?set_sound_channel_volume@@YGXHH@Z		; set_sound_channel_volume
PUBLIC	?get_sound_channel_volume@@YGHH@Z		; get_sound_channel_volume
PUBLIC	?get_sound_channel_name@@YGPBDH@Z		; get_sound_channel_name
PUBLIC	?overload_sound_effect_sound_functions@@YGXXZ	; overload_sound_effect_sound_functions
?sound_channel_info@@3PAUSOUND_CHANNEL_INFO_TYPE@@A DD 00H ; sound_channel_info
	DD	0aH
	DD	FLAT:??_C@_0O@MAAGBJBO@Sound?5Effects@
	DD	00H
	DD	0aH
	DD	FLAT:??_C@_0P@OIBOADCF@Warning?5System@
	DD	00H
	DD	0aH
	DD	FLAT:??_C@_0BA@EJDACHAL@Co?9Pilot?5Speech@
	DD	00H
	DD	0aH
	DD	FLAT:??_C@_0P@NFDJINGK@Wingmen?5Speech@
	DD	00H
	DD	0aH
	DD	FLAT:??_C@_0BE@BHBPMPD@Air?5Traffic?5Control@
	DD	00H
	DD	0aH
	DD	FLAT:??_C@_0BE@KBCDLBPO@Forward?5Air?5Control@
	DD	00H
	DD	0aH
	DD	FLAT:??_C@_0P@BAFHIMAJ@Ground?5Control@
END
