; Listing generated by Microsoft (R) Optimizing Compiler Version 19.16.27045.0 

	TITLE	c:\users\nhv90\projects\eech\aphavoc\source\entity\special\session\session.c
	.686P
	.XMM
	include listing.inc
	.model	flat

INCLUDELIB OLDNAMES

PUBLIC	??_C@_0DA@HHINHKAH@SESSION?3?5No?5time?5of?5day?5specifi@ ; `string'
PUBLIC	??_C@_0EN@HCHDLBPK@c?3?2users?2nhv90?2projects?2eech?2ap@ ; `string'
PUBLIC	??_C@_0BG@EFCJJKAA@get_session_entity?5?$CI?$CJ@ ; `string'
PUBLIC	?session_entity@@3PAUENTITY@@A			; session_entity
PUBLIC	?weather_wind_speed@@3MA			; weather_wind_speed
PUBLIC	?weather_wind_radius_max@@3MA			; weather_wind_radius_max
PUBLIC	?weather_wind_radius_min@@3MA			; weather_wind_radius_min
PUBLIC	?weather_rain_speed@@3MA			; weather_rain_speed
PUBLIC	?weather_rain_radius_max@@3MA			; weather_rain_radius_max
PUBLIC	?weather_rain_radius_min@@3MA			; weather_rain_radius_min
?session_entity@@3PAUENTITY@@A DD 01H DUP (?)		; session_entity
_BSS	ENDS
;	COMDAT ??_C@_0BG@EFCJJKAA@get_session_entity?5?$CI?$CJ@
CONST	SEGMENT
??_C@_0BG@EFCJJKAA@get_session_entity?5?$CI?$CJ@ DB 'get_session_entity ('
	DB	')', 00H					; `string'
CONST	ENDS
;	COMDAT ??_C@_0EN@HCHDLBPK@c?3?2users?2nhv90?2projects?2eech?2ap@
CONST	SEGMENT
??_C@_0EN@HCHDLBPK@c?3?2users?2nhv90?2projects?2eech?2ap@ DB 'c:\users\nh'
	DB	'v90\projects\eech\aphavoc\source\entity\special\session\sessi'
	DB	'on.c', 00H					; `string'
CONST	ENDS
;	COMDAT ??_C@_0DA@HHINHKAH@SESSION?3?5No?5time?5of?5day?5specifi@
CONST	SEGMENT
??_C@_0DA@HHINHKAH@SESSION?3?5No?5time?5of?5day?5specifi@ DB 'SESSION: No'
	DB	' time of day specified for preset %d', 00H	; `string'
?random_session_start_times@@3PAMA DD 044e10000r ; 1800	; random_session_start_times
	DD	0469ab000r			; 19800
	DD	046fd2000r			; 32400
	DD	04728c000r			; 43200
	DD	04752f000r			; 54000
	DD	047761800r			; 63000
?wind_gust_modulation_amounts@@3PAMA DD 03e800000r ; 0.25 ; wind_gust_modulation_amounts
	DD	0bd4ccccdr			; -0.05
	DD	0be800000r			; -0.25
	DD	03d4ccccdr			; 0.05
	DD	0bc23d70ar			; -0.01
	DD	03e19999ar			; 0.15
?weather_wind_speed@@3MA DD 0434e25e0r		; 206.148 ; weather_wind_speed
?weather_wind_radius_max@@3MA DD 047fa0000r	; 128000 ; weather_wind_radius_max
?weather_wind_radius_min@@3MA DD 045fa0000r	; 8000	; weather_wind_radius_min
?weather_rain_speed@@3MA DD 04339887dr		; 185.533 ; weather_rain_speed
?weather_rain_radius_max@@3MA DD 047c35000r	; 100000 ; weather_rain_radius_max
?weather_rain_radius_min@@3MA DD 0459c4000r	; 5000	; weather_rain_radius_min
PUBLIC	?get_simple_session_weather_at_point@@YG?AW4WEATHERMODES@@PAUVEC3D@@@Z ; get_simple_session_weather_at_point
PUBLIC	?get_session_weather_at_point@@YGXPAUVEC3D@@PAW4WEATHERMODES@@1PAM@Z ; get_session_weather_at_point
PUBLIC	?get_session_preset_time_of_day@@YGMW4SESSION_TIME_OF_DAY_SETTINGS@@@Z ; get_session_preset_time_of_day
PUBLIC	?get_session_random_start_time_of_day@@YGMXZ	; get_session_random_start_time_of_day
PUBLIC	?get_segment_time_of_day@@YGMW4DAY_SEGMENT_TYPES@@@Z ; get_segment_time_of_day
PUBLIC	?get_day_segment_type@@YG?AW4DAY_SEGMENT_TYPES@@M@Z ; get_day_segment_type
PUBLIC	?calculate_session_time_of_day@@YGMPAUENTITY@@PAH@Z ; calculate_session_time_of_day
PUBLIC	?set_session_entity@@YGXPAUENTITY@@@Z		; set_session_entity
PUBLIC	?get_session_wind_velocity_at_point@@YGMPAUVEC3D@@0@Z ; get_session_wind_velocity_at_point
PUBLIC	?set_session_random_weather_mode@@YGXPAUENTITY@@@Z ; set_session_random_weather_mode
PUBLIC	?set_session_fixed_weather_mode@@YGXPAUENTITY@@W4WEATHERMODES@@@Z ; set_session_fixed_weather_mode
PUBLIC	?attach_session_sound_effects@@YGXPAUENTITY@@@Z	; attach_session_sound_effects
PUBLIC	?check_point_inside_population_area@@YGHPAUVEC3D@@@Z ; check_point_inside_population_area
?session_preset_time_of_day_table@@3PAUSESSION_PRESET_TIME_OF_DAY_TABLE@@A DD 02H ; session_preset_time_of_day_table
	DD	046a1b800r			; 20700
	DD	03H
	DD	047266800r			; 42600
	DD	04H
	DD	04757a000r			; 55200
	DD	05H
	DD	0477d2000r			; 64800
	DD	06H
	DD	047a6fe00r			; 85500
	DD	0ffffffffH
	ORG $+4
END
