; Listing generated by Microsoft (R) Optimizing Compiler Version 19.16.27045.0 

	TITLE	c:\users\nhv90\projects\eech\aphavoc\source\ui_menu\session\sess_sc.c
	.686P
	.XMM
	include listing.inc
	.model	flat

INCLUDELIB OLDNAMES

PUBLIC	?session_list@@3PAUUI_OBJECT@@A			; session_list
PUBLIC	?session_briefing_overlay@@3PAUUI_OBJECT@@A	; session_briefing_overlay
PUBLIC	?session_briefing_area@@3PAUUI_OBJECT@@A	; session_briefing_area
PUBLIC	?session_screen_next_button@@3PAUUI_OBJECT@@A	; session_screen_next_button
PUBLIC	?session_screen_next_bdrop@@3PAUUI_OBJECT@@A	; session_screen_next_bdrop
PUBLIC	?session_screen_continue_button@@3PAUUI_OBJECT@@A ; session_screen_continue_button
PUBLIC	?session_screen_continue_bdrop@@3PAUUI_OBJECT@@A ; session_screen_continue_bdrop
PUBLIC	?session_info_list@@3PAUUI_OBJECT@@A		; session_info_list
PUBLIC	?session_screen@@3PAUUI_OBJECT@@A		; session_screen
PUBLIC	??_C@_07FFOFCADM@Session@			; `string'
PUBLIC	??_C@_07NEGCNMML@PROCEED@			; `string'
PUBLIC	?session_name_input@@3PAUUI_OBJECT@@A		; session_name_input
PUBLIC	?session_name_entry_area@@3PAUUI_OBJECT@@A	; session_name_entry_area
PUBLIC	?session_list_area@@3PAUUI_OBJECT@@A		; session_list_area
PUBLIC	?session_list_bdrop@@3PAUUI_OBJECT@@A		; session_list_bdrop
PUBLIC	?session_screen_rename_button@@3PAUUI_OBJECT@@A	; session_screen_rename_button
PUBLIC	?session_screen_delete_button@@3PAUUI_OBJECT@@A	; session_screen_delete_button
PUBLIC	?session_screen_back_button@@3PAUUI_OBJECT@@A	; session_screen_back_button
PUBLIC	?session_screen_graphic@@3PAUTEXTURE_GRAPHIC@@A	; session_screen_graphic
?session_list@@3PAUUI_OBJECT@@A DD 01H DUP (?)		; session_list
?session_briefing_overlay@@3PAUUI_OBJECT@@A DD 01H DUP (?) ; session_briefing_overlay
?session_briefing_area@@3PAUUI_OBJECT@@A DD 01H DUP (?)	; session_briefing_area
?session_screen_next_button@@3PAUUI_OBJECT@@A DD 01H DUP (?) ; session_screen_next_button
?session_screen_next_bdrop@@3PAUUI_OBJECT@@A DD 01H DUP (?) ; session_screen_next_bdrop
?session_screen_continue_button@@3PAUUI_OBJECT@@A DD 01H DUP (?) ; session_screen_continue_button
?session_screen_continue_bdrop@@3PAUUI_OBJECT@@A DD 01H DUP (?) ; session_screen_continue_bdrop
?session_info_list@@3PAUUI_OBJECT@@A DD 01H DUP (?)	; session_info_list
?session_screen@@3PAUUI_OBJECT@@A DD 01H DUP (?)	; session_screen
?session_name_input@@3PAUUI_OBJECT@@A DD 01H DUP (?)	; session_name_input
?session_name_entry_area@@3PAUUI_OBJECT@@A DD 01H DUP (?) ; session_name_entry_area
?session_list_area@@3PAUUI_OBJECT@@A DD 01H DUP (?)	; session_list_area
?session_list_bdrop@@3PAUUI_OBJECT@@A DD 01H DUP (?)	; session_list_bdrop
?session_screen_rename_button@@3PAUUI_OBJECT@@A DD 01H DUP (?) ; session_screen_rename_button
?session_screen_delete_button@@3PAUUI_OBJECT@@A DD 01H DUP (?) ; session_screen_delete_button
?session_screen_back_button@@3PAUUI_OBJECT@@A DD 01H DUP (?) ; session_screen_back_button
?session_screen_graphic@@3PAUTEXTURE_GRAPHIC@@A DD 01H DUP (?) ; session_screen_graphic
_BSS	ENDS
;	COMDAT ??_C@_07NEGCNMML@PROCEED@
CONST	SEGMENT
??_C@_07NEGCNMML@PROCEED@ DB 'PROCEED', 00H		; `string'
CONST	ENDS
;	COMDAT ??_C@_07FFOFCADM@Session@
CONST	SEGMENT
??_C@_07FFOFCADM@Session@ DB 'Session', 00H		; `string'
PUBLIC	?initialise_session_screen@@YGXXZ		; initialise_session_screen
END
