; Listing generated by Microsoft (R) Optimizing Compiler Version 19.16.27045.0 

	TITLE	c:\users\nhv90\projects\eech\modules\graphics\shadfill.c
	.686P
	.XMM
	include listing.inc
	.model	flat

INCLUDELIB OLDNAMES

PUBLIC	?top_to_middle_edge@@3UTRIANGLE_EDGE_DATA@@A	; top_to_middle_edge
PUBLIC	?middle_to_bottom_edge@@3UTRIANGLE_EDGE_DATA@@A	; middle_to_bottom_edge
PUBLIC	?triangle_points@@3PAUTRIANGLE_POINT_DATA@@A	; triangle_points
PUBLIC	?top_to_bottom_edge@@3UTRIANGLE_EDGE_DATA@@A	; top_to_bottom_edge
PUBLIC	?triangle_gradients_points@@3PAPAUVERTEX@@A	; triangle_gradients_points
PUBLIC	?triangle_point2@@3PAUVERTEX@@A			; triangle_point2
PUBLIC	?triangle_point1@@3PAUVERTEX@@A			; triangle_point1
PUBLIC	?triangle_point0@@3PAUVERTEX@@A			; triangle_point0
PUBLIC	?shadow_screen@@3PAEA				; shadow_screen
?top_to_middle_edge@@3UTRIANGLE_EDGE_DATA@@A DB 01cH DUP (?) ; top_to_middle_edge
?middle_to_bottom_edge@@3UTRIANGLE_EDGE_DATA@@A DB 01cH DUP (?) ; middle_to_bottom_edge
	ALIGN	8

?triangle_points@@3PAUTRIANGLE_POINT_DATA@@A DQ 03H DUP (?) ; triangle_points
?top_to_bottom_edge@@3UTRIANGLE_EDGE_DATA@@A DB 01cH DUP (?) ; top_to_bottom_edge
?triangle_gradients_points@@3PAPAUVERTEX@@A DD 03H DUP (?) ; triangle_gradients_points
?triangle_point2@@3PAUVERTEX@@A DD 01H DUP (?)		; triangle_point2
?triangle_point1@@3PAUVERTEX@@A DD 01H DUP (?)		; triangle_point1
?triangle_point0@@3PAUVERTEX@@A DD 01H DUP (?)		; triangle_point0
?shadow_screen@@3PAEA DB 04000H DUP (?)			; shadow_screen
_BSS	ENDS
END
