; Listing generated by Microsoft (R) Optimizing Compiler Version 19.16.27045.0 

	TITLE	c:\users\nhv90\projects\eech\aphavoc\source\sharedmem.c
	.686P
	.XMM
	include listing.inc
	.model	flat

INCLUDELIB OLDNAMES

PUBLIC	??_C@_0BB@PJOMDND@EECHSharedMemory@		; `string'
PUBLIC	?gPtrSharedMemory@@3PAUshared_memory_t@@A	; gPtrSharedMemory
EXTRN	__imp__strcpy_s:PROC
EXTRN	__imp__UnmapViewOfFile@4:PROC
EXTRN	__imp__CloseHandle@4:PROC
EXTRN	__imp__MapViewOfFile@20:PROC
EXTRN	__imp__CreateFileMappingA@24:PROC
?gPtrSharedMemory@@3PAUshared_memory_t@@A DD 01H DUP (?) ; gPtrSharedMemory
_BSS	ENDS
;	COMDAT ??_C@_0BB@PJOMDND@EECHSharedMemory@
CONST	SEGMENT
??_C@_0BB@PJOMDND@EECHSharedMemory@ DB 'EECHSharedMemory', 00H ; `string'
PUBLIC	?Initialise_Shared_Memory@@YGHXZ		; Initialise_Shared_Memory
PUBLIC	?update_ekran_shared_mem@@YGXPAD000@Z		; update_ekran_shared_mem
PUBLIC	?update_dynamics_shared_mem@@YGXXZ		; update_dynamics_shared_mem
PUBLIC	?update_waypoint_shared_mem@@YGXXZ		; update_waypoint_shared_mem
PUBLIC	?update_weapon_load_shared_mem@@YGXXZ		; update_weapon_load_shared_mem
PUBLIC	?update_apache_avionics_shared_mem@@YGXXZ	; update_apache_avionics_shared_mem
PUBLIC	?update_havoc_avionics_shared_mem@@YGXXZ	; update_havoc_avionics_shared_mem
PUBLIC	?update_comanche_avionics_shared_mem@@YGXXZ	; update_comanche_avionics_shared_mem
PUBLIC	?update_hokum_avionics_shared_mem@@YGXXZ	; update_hokum_avionics_shared_mem
PUBLIC	?update_blackhawk_avionics_shared_mem@@YGXXZ	; update_blackhawk_avionics_shared_mem
PUBLIC	?update_hind_avionics_shared_mem@@YGXXZ		; update_hind_avionics_shared_mem
PUBLIC	?update_ah64a_avionics_shared_mem@@YGXXZ	; update_ah64a_avionics_shared_mem
PUBLIC	?update_ka50_avionics_shared_mem@@YGXXZ		; update_ka50_avionics_shared_mem
PUBLIC	?update_viper_avionics_shared_mem@@YGXXZ	; update_viper_avionics_shared_mem
PUBLIC	?update_kiowa_avionics_shared_mem@@YGXXZ	; update_kiowa_avionics_shared_mem
PUBLIC	?update_default_avionics_shared_mem@@YGXXZ	; update_default_avionics_shared_mem
PUBLIC	?update_upfront_display_shared_mem@@YGXPAD000@Z	; update_upfront_display_shared_mem
PUBLIC	?DeInitialise_Shared_Memory@@YGXXZ		; DeInitialise_Shared_Memory
?gHandleSharedMemory@@3PAXA DD 01H DUP (?)		; gHandleSharedMemory
_BSS	ENDS
END
