; Listing generated by Microsoft (R) Optimizing Compiler Version 19.16.27045.0 

	TITLE	c:\users\nhv90\projects\eech\aphavoc\source\entity\special\effect\smokelst\sl_draw.c
	.686P
	.XMM
	include listing.inc
	.model	flat

INCLUDELIB OLDNAMES

PUBLIC	??_C@_0DK@KBOCOJDL@SMOKE?5LIST?5?3?5trying?5to?5draw?5smo@ ; `string'
;	COMDAT ??_C@_0DK@KBOCOJDL@SMOKE?5LIST?5?3?5trying?5to?5draw?5smo@
CONST	SEGMENT
??_C@_0DK@KBOCOJDL@SMOKE?5LIST?5?3?5trying?5to?5draw?5smo@ DB 'SMOKE LIST'
	DB	' : trying to draw smoke trail with only 1 point', 00H ; `string'
PUBLIC	?overload_smoke_list_draw_functions@@YGXXZ	; overload_smoke_list_draw_functions
PUBLIC	?initialise_smoke_list_draw_arrays@@YGXXZ	; initialise_smoke_list_draw_arrays
PUBLIC	?deinitialise_smoke_list_draw_arrays@@YGXXZ	; deinitialise_smoke_list_draw_arrays
?number_of_trail_points@@3HA DD 01H DUP (?)		; number_of_trail_points
?trail_data@@3PAPAUSMOKE_TRAIL_DATA@@A DD 02H DUP (?)	; trail_data
?trail_points@@3PAUVEC3D@@A DD 01H DUP (?)		; trail_points
?trail_lifetimes@@3PAMA DD 01H DUP (?)			; trail_lifetimes
?trail_radius@@3PAMA DD 01H DUP (?)			; trail_radius
_BSS	ENDS
END
