; Listing generated by Microsoft (R) Optimizing Compiler Version 19.16.27045.0 

	TITLE	c:\users\nhv90\projects\eech\aphavoc\source\ui_menu\sessparm\sparm_sc.c
	.686P
	.XMM
	include listing.inc
	.model	flat

INCLUDELIB OLDNAMES

PUBLIC	??_C@_07NPCGECPI@Passive@			; `string'
PUBLIC	??_C@_07IDNGOJIN@Hostile@			; `string'
PUBLIC	??_C@_06BEOPDEGP@Random@			; `string'
PUBLIC	??_C@_04LNPEFOPB@Dawn@				; `string'
PUBLIC	??_C@_06HKKLINL@Midday@				; `string'
PUBLIC	??_C@_09ILILHJG@Afternoon@			; `string'
PUBLIC	??_C@_04BIPBMCKA@Dusk@				; `string'
PUBLIC	??_C@_08ILMMEOKB@Midnight@			; `string'
PUBLIC	??_C@_08DMMJCAML@Variable@			; `string'
PUBLIC	??_C@_04PCFBEJFA@Good@				; `string'
PUBLIC	??_C@_04DHPLNOLG@Fair@				; `string'
PUBLIC	??_C@_04DMAJLHBF@Poor@				; `string'
PUBLIC	??_C@_06ENLKNGPJ@Season@			; `string'
PUBLIC	??_C@_0M@FFOELDDC@Time?5Of?5Day@		; `string'
PUBLIC	??_C@_0M@OAOKKMLA@Environment@			; `string'
PUBLIC	??_C@_0BB@HCEPBHEJ@Infinite?5Weapons@		; `string'
PUBLIC	??_C@_0O@BMJIBDDH@Infinite?5Fuel@		; `string'
PUBLIC	??_C@_0L@OEIJOBGL@Collisions@			; `string'
PUBLIC	??_C@_0P@DKHJFDGI@Weapons?5Damage@		; `string'
PUBLIC	??_C@_0CF@HKCNLHMH@SPARM_SC?3?5Invalid?5weather?5setti@ ; `string'
PUBLIC	??_C@_0CJ@HAKIIPDH@SPARM_SC?3?5Invalid?5time?5of?5day?5s@ ; `string'
PUBLIC	?realism_suppress_ai_fire_button@@3PAUUI_OBJECT@@A ; realism_suppress_ai_fire_button
PUBLIC	?realism_suppress_ai_fire_area@@3PAUUI_OBJECT@@A ; realism_suppress_ai_fire_area
PUBLIC	?realism_weapons_damage_button@@3PAUUI_OBJECT@@A ; realism_weapons_damage_button
PUBLIC	?realism_weapons_damage_area@@3PAUUI_OBJECT@@A	; realism_weapons_damage_area
PUBLIC	?realism_collisions_button@@3PAUUI_OBJECT@@A	; realism_collisions_button
PUBLIC	?realism_collisions_area@@3PAUUI_OBJECT@@A	; realism_collisions_area
PUBLIC	?realism_inf_fuel_button@@3PAUUI_OBJECT@@A	; realism_inf_fuel_button
PUBLIC	?realism_inf_fuel_title@@3PAUUI_OBJECT@@A	; realism_inf_fuel_title
PUBLIC	?realism_inf_fuel_area@@3PAUUI_OBJECT@@A	; realism_inf_fuel_area
PUBLIC	?realism_inf_weapons_button@@3PAUUI_OBJECT@@A	; realism_inf_weapons_button
PUBLIC	?realism_inf_weapons_title@@3PAUUI_OBJECT@@A	; realism_inf_weapons_title
PUBLIC	?realism_inf_weapons_area@@3PAUUI_OBJECT@@A	; realism_inf_weapons_area
PUBLIC	?weather_button@@3PAUUI_OBJECT@@A		; weather_button
PUBLIC	?weather_area@@3PAUUI_OBJECT@@A			; weather_area
PUBLIC	?time_of_day_button@@3PAUUI_OBJECT@@A		; time_of_day_button
PUBLIC	?time_of_day_area@@3PAUUI_OBJECT@@A		; time_of_day_area
PUBLIC	?season_button@@3PAUUI_OBJECT@@A		; season_button
PUBLIC	?season_area@@3PAUUI_OBJECT@@A			; season_area
PUBLIC	?session_parameters_area@@3PAUUI_OBJECT@@A	; session_parameters_area
EXTRN	__imp___itoa:PROC
?realism_suppress_ai_fire_button@@3PAUUI_OBJECT@@A DD 01H DUP (?) ; realism_suppress_ai_fire_button
?realism_suppress_ai_fire_area@@3PAUUI_OBJECT@@A DD 01H DUP (?) ; realism_suppress_ai_fire_area
?realism_weapons_damage_button@@3PAUUI_OBJECT@@A DD 01H DUP (?) ; realism_weapons_damage_button
?realism_weapons_damage_area@@3PAUUI_OBJECT@@A DD 01H DUP (?) ; realism_weapons_damage_area
?realism_collisions_button@@3PAUUI_OBJECT@@A DD 01H DUP (?) ; realism_collisions_button
?realism_collisions_area@@3PAUUI_OBJECT@@A DD 01H DUP (?) ; realism_collisions_area
?realism_inf_fuel_button@@3PAUUI_OBJECT@@A DD 01H DUP (?) ; realism_inf_fuel_button
?realism_inf_fuel_title@@3PAUUI_OBJECT@@A DD 01H DUP (?) ; realism_inf_fuel_title
?realism_inf_fuel_area@@3PAUUI_OBJECT@@A DD 01H DUP (?)	; realism_inf_fuel_area
?realism_inf_weapons_button@@3PAUUI_OBJECT@@A DD 01H DUP (?) ; realism_inf_weapons_button
?realism_inf_weapons_title@@3PAUUI_OBJECT@@A DD 01H DUP (?) ; realism_inf_weapons_title
?realism_inf_weapons_area@@3PAUUI_OBJECT@@A DD 01H DUP (?) ; realism_inf_weapons_area
?weather_button@@3PAUUI_OBJECT@@A DD 01H DUP (?)	; weather_button
?weather_area@@3PAUUI_OBJECT@@A DD 01H DUP (?)		; weather_area
?time_of_day_button@@3PAUUI_OBJECT@@A DD 01H DUP (?)	; time_of_day_button
?time_of_day_area@@3PAUUI_OBJECT@@A DD 01H DUP (?)	; time_of_day_area
?season_button@@3PAUUI_OBJECT@@A DD 01H DUP (?)		; season_button
?season_area@@3PAUUI_OBJECT@@A DD 01H DUP (?)		; season_area
?session_parameters_area@@3PAUUI_OBJECT@@A DD 01H DUP (?) ; session_parameters_area
_BSS	ENDS
;	COMDAT ??_C@_0CJ@HAKIIPDH@SPARM_SC?3?5Invalid?5time?5of?5day?5s@
CONST	SEGMENT
??_C@_0CJ@HAKIIPDH@SPARM_SC?3?5Invalid?5time?5of?5day?5s@ DB 'SPARM_SC: I'
	DB	'nvalid time of day setting %d', 00H		; `string'
CONST	ENDS
;	COMDAT ??_C@_0CF@HKCNLHMH@SPARM_SC?3?5Invalid?5weather?5setti@
CONST	SEGMENT
??_C@_0CF@HKCNLHMH@SPARM_SC?3?5Invalid?5weather?5setti@ DB 'SPARM_SC: Inv'
	DB	'alid weather setting %d', 00H		; `string'
CONST	ENDS
;	COMDAT ??_C@_0P@DKHJFDGI@Weapons?5Damage@
CONST	SEGMENT
??_C@_0P@DKHJFDGI@Weapons?5Damage@ DB 'Weapons Damage', 00H ; `string'
CONST	ENDS
;	COMDAT ??_C@_0L@OEIJOBGL@Collisions@
CONST	SEGMENT
??_C@_0L@OEIJOBGL@Collisions@ DB 'Collisions', 00H	; `string'
CONST	ENDS
;	COMDAT ??_C@_0O@BMJIBDDH@Infinite?5Fuel@
CONST	SEGMENT
??_C@_0O@BMJIBDDH@Infinite?5Fuel@ DB 'Infinite Fuel', 00H ; `string'
CONST	ENDS
;	COMDAT ??_C@_0BB@HCEPBHEJ@Infinite?5Weapons@
CONST	SEGMENT
??_C@_0BB@HCEPBHEJ@Infinite?5Weapons@ DB 'Infinite Weapons', 00H ; `string'
CONST	ENDS
;	COMDAT ??_C@_0M@OAOKKMLA@Environment@
CONST	SEGMENT
??_C@_0M@OAOKKMLA@Environment@ DB 'Environment', 00H	; `string'
CONST	ENDS
;	COMDAT ??_C@_0M@FFOELDDC@Time?5Of?5Day@
CONST	SEGMENT
??_C@_0M@FFOELDDC@Time?5Of?5Day@ DB 'Time Of Day', 00H	; `string'
CONST	ENDS
;	COMDAT ??_C@_06ENLKNGPJ@Season@
CONST	SEGMENT
??_C@_06ENLKNGPJ@Season@ DB 'Season', 00H		; `string'
CONST	ENDS
;	COMDAT ??_C@_04DMAJLHBF@Poor@
CONST	SEGMENT
??_C@_04DMAJLHBF@Poor@ DB 'Poor', 00H			; `string'
CONST	ENDS
;	COMDAT ??_C@_04DHPLNOLG@Fair@
CONST	SEGMENT
??_C@_04DHPLNOLG@Fair@ DB 'Fair', 00H			; `string'
CONST	ENDS
;	COMDAT ??_C@_04PCFBEJFA@Good@
CONST	SEGMENT
??_C@_04PCFBEJFA@Good@ DB 'Good', 00H			; `string'
CONST	ENDS
;	COMDAT ??_C@_08DMMJCAML@Variable@
CONST	SEGMENT
??_C@_08DMMJCAML@Variable@ DB 'Variable', 00H		; `string'
CONST	ENDS
;	COMDAT ??_C@_08ILMMEOKB@Midnight@
CONST	SEGMENT
??_C@_08ILMMEOKB@Midnight@ DB 'Midnight', 00H		; `string'
CONST	ENDS
;	COMDAT ??_C@_04BIPBMCKA@Dusk@
CONST	SEGMENT
??_C@_04BIPBMCKA@Dusk@ DB 'Dusk', 00H			; `string'
CONST	ENDS
;	COMDAT ??_C@_09ILILHJG@Afternoon@
CONST	SEGMENT
??_C@_09ILILHJG@Afternoon@ DB 'Afternoon', 00H		; `string'
CONST	ENDS
;	COMDAT ??_C@_06HKKLINL@Midday@
CONST	SEGMENT
??_C@_06HKKLINL@Midday@ DB 'Midday', 00H		; `string'
CONST	ENDS
;	COMDAT ??_C@_04LNPEFOPB@Dawn@
CONST	SEGMENT
??_C@_04LNPEFOPB@Dawn@ DB 'Dawn', 00H			; `string'
CONST	ENDS
;	COMDAT ??_C@_06BEOPDEGP@Random@
CONST	SEGMENT
??_C@_06BEOPDEGP@Random@ DB 'Random', 00H		; `string'
CONST	ENDS
;	COMDAT ??_C@_07IDNGOJIN@Hostile@
CONST	SEGMENT
??_C@_07IDNGOJIN@Hostile@ DB 'Hostile', 00H		; `string'
CONST	ENDS
;	COMDAT ??_C@_07NPCGECPI@Passive@
CONST	SEGMENT
??_C@_07NPCGECPI@Passive@ DB 'Passive', 00H		; `string'
PUBLIC	?notify_realism_suppress_ai_fire_function@@YGXPAUUI_OBJECT@@PAX@Z ; notify_realism_suppress_ai_fire_function
PUBLIC	?notify_realism_weapons_damage_function@@YGXPAUUI_OBJECT@@PAX@Z ; notify_realism_weapons_damage_function
PUBLIC	?notify_realism_collisions_function@@YGXPAUUI_OBJECT@@PAX@Z ; notify_realism_collisions_function
PUBLIC	?notify_realism_inf_fuel_function@@YGXPAUUI_OBJECT@@PAX@Z ; notify_realism_inf_fuel_function
PUBLIC	?notify_realism_inf_weapons_function@@YGXPAUUI_OBJECT@@PAX@Z ; notify_realism_inf_weapons_function
PUBLIC	?notify_weather_function@@YGXPAUUI_OBJECT@@PAX@Z ; notify_weather_function
PUBLIC	?notify_time_of_day_function@@YGXPAUUI_OBJECT@@PAX@Z ; notify_time_of_day_function
PUBLIC	?notify_season_function@@YGXPAUUI_OBJECT@@PAX@Z	; notify_season_function
PUBLIC	?notify_session_parameters@@YGXXZ		; notify_session_parameters
PUBLIC	?notify_clear_all_session_parameters@@YGXXZ	; notify_clear_all_session_parameters
PUBLIC	?define_session_parameter_objects@@YGXXZ	; define_session_parameter_objects
PUBLIC	?process_restore_session_setup_options@@YGXXZ	; process_restore_session_setup_options
PUBLIC	?process_host_session_setup_options@@YGXXZ	; process_host_session_setup_options
?boolean_text@@3PAPBDA DD 02H DUP (?)			; boolean_text
?suppress_ai_fire_text@@3PAPBDA DD 02H DUP (?)		; suppress_ai_fire_text
?time_of_day_text@@3PAPBDA DD 06H DUP (?)		; time_of_day_text
?weather_text@@3PAPBDA DD 04H DUP (?)			; weather_text
?season_text@@3PAPBDA DD 04H DUP (?)			; season_text
_BSS	ENDS
END
