; Listing generated by Microsoft (R) Optimizing Compiler Version 19.16.27045.0 

	TITLE	c:\users\nhv90\projects\eech\aphavoc\source\ai\taskgen\taskgen.c
	.686P
	.XMM
	include listing.inc
	.model	flat

INCLUDELIB OLDNAMES

PUBLIC	?terminator_point@@3UVEC3D@@A			; terminator_point
PUBLIC	??_C@_0EB@GFEDFFF@c?3?2users?2nhv90?2projects?2eech?2ap@ ; `string'
;	COMDAT ??_C@_0EB@GFEDFFF@c?3?2users?2nhv90?2projects?2eech?2ap@
CONST	SEGMENT
??_C@_0EB@GFEDFFF@c?3?2users?2nhv90?2projects?2eech?2ap@ DB 'c:\users\nhv'
	DB	'90\projects\eech\aphavoc\source\ai\taskgen\taskgen.c', 00H ; `string'
?terminator_point@@3UVEC3D@@A DD 0bf800000r	; -1	; terminator_point
	DD	0bf800000r			; -1
	DD	0bf800000r			; -1
PUBLIC	?sin@@YGMM@Z					; sin
PUBLIC	_sinf
PUBLIC	?cos@@YGMM@Z					; cos
PUBLIC	_cosf
PUBLIC	?validate_task_generation@@YGHW4ENTITY_SIDES@@H@Z ; validate_task_generation
PUBLIC	?create_user_task@@YGPAUENTITY@@PAU1@HPAUVEC3D@@00@Z ; create_user_task
PUBLIC	?create_troop_movement_capture_task@@YGPAUENTITY@@W4ENTITY_SIDES@@PAUVEC3D@@PAU1@22@Z ; create_troop_movement_capture_task
PUBLIC	?create_supply_task@@YGPAUENTITY@@PAU1@00W4MOVEMENT_TYPES@@M00@Z ; create_supply_task
PUBLIC	?create_repair_task@@YGPAUENTITY@@W4ENTITY_SIDES@@PAUVEC3D@@PAU1@M22@Z ; create_repair_task
PUBLIC	?create_ground_force_task@@YGPAUENTITY@@HPAU1@HHM00@Z ; create_ground_force_task
PUBLIC	?create_escort_task@@YGPAUENTITY@@PAU1@HM00@Z	; create_escort_task
PUBLIC	?create_task@@YAPAUENTITY@@HW4ENTITY_SIDES@@W4MOVEMENT_TYPES@@PAU1@22HMM2MZZ ; create_task
PUBLIC	?create_cap_task@@YGPAUENTITY@@W4ENTITY_SIDES@@PAU1@1HMM11@Z ; create_cap_task
PUBLIC	?create_barcap_task@@YGPAUENTITY@@W4ENTITY_SIDES@@PAU1@1HPAUVEC3D@@MM11@Z ; create_barcap_task
PUBLIC	?create_bda_task@@YGPAUENTITY@@W4ENTITY_SIDES@@PAU1@1HM11@Z ; create_bda_task
PUBLIC	?create_bai_task@@YGPAUENTITY@@W4ENTITY_SIDES@@PAU1@1HM11@Z ; create_bai_task
PUBLIC	?create_recon_task@@YGPAUENTITY@@W4ENTITY_SIDES@@PAU1@1HM11@Z ; create_recon_task
PUBLIC	?create_close_air_support_task@@YGPAUENTITY@@W4ENTITY_SIDES@@PAU1@1HM11@Z ; create_close_air_support_task
PUBLIC	?create_ground_strike_task@@YGPAUENTITY@@W4ENTITY_SIDES@@PAU1@1HM11@Z ; create_ground_strike_task
PUBLIC	?create_anti_ship_strike_task@@YGPAUENTITY@@W4ENTITY_SIDES@@PAU1@1HM11@Z ; create_anti_ship_strike_task
PUBLIC	?create_oca_strike_task@@YGPAUENTITY@@W4ENTITY_SIDES@@PAU1@1HM11@Z ; create_oca_strike_task
PUBLIC	?create_oca_sweep_task@@YGPAUENTITY@@W4ENTITY_SIDES@@PAU1@1HM11@Z ; create_oca_sweep_task
PUBLIC	?create_troop_insertion_task@@YGPAUENTITY@@W4ENTITY_SIDES@@PAU1@1HM11@Z ; create_troop_insertion_task
PUBLIC	?create_sead_task@@YGPAUENTITY@@W4ENTITY_SIDES@@PAU1@1HM11@Z ; create_sead_task
PUBLIC	?create_transfer_task@@YGPAUENTITY@@W4ENTITY_SIDES@@HMPAU1@1@Z ; create_transfer_task
PUBLIC	?create_troop_movement_patrol_task@@YGPAUENTITY@@W4ENTITY_SIDES@@PAU1@@Z ; create_troop_movement_patrol_task
END
