; Listing generated by Microsoft (R) Optimizing Compiler Version 19.16.27045.0 

	TITLE	c:\users\nhv90\projects\eech\aphavoc\source\entity\special\task\task.c
	.686P
	.XMM
	include listing.inc
	.model	flat

INCLUDELIB OLDNAMES

PUBLIC	??_C@_0BL@FCMGHEEI@TASK?3?5Unknown?5Task?5Type?5?$CFd@ ; `string'
PUBLIC	??_C@_0BM@EIELJNHH@TASK?3?5Invalid?5Task?5State?5?$CFd@ ; `string'
PUBLIC	??_C@_07NBCGADJA@Unknown@			; `string'
;	COMDAT ??_C@_07NBCGADJA@Unknown@
CONST	SEGMENT
??_C@_07NBCGADJA@Unknown@ DB 'Unknown', 00H		; `string'
CONST	ENDS
;	COMDAT ??_C@_0BM@EIELJNHH@TASK?3?5Invalid?5Task?5State?5?$CFd@
CONST	SEGMENT
??_C@_0BM@EIELJNHH@TASK?3?5Invalid?5Task?5State?5?$CFd@ DB 'TASK: Invalid'
	DB	' Task State %d', 00H			; `string'
CONST	ENDS
;	COMDAT ??_C@_0BL@FCMGHEEI@TASK?3?5Unknown?5Task?5Type?5?$CFd@
CONST	SEGMENT
??_C@_0BL@FCMGHEEI@TASK?3?5Unknown?5Task?5Type?5?$CFd@ DB 'TASK: Unknown '
	DB	'Task Type %d', 00H				; `string'
?completed_task_expire_time@@3MA DD 044960000r	; 1200	; completed_task_expire_time
PUBLIC	?get_task_objective_mfd_display_string@@YGXPAUENTITY@@PAD@Z ; get_task_objective_mfd_display_string
PUBLIC	?get_task_objective_string@@YGPBDPAUENTITY@@@Z	; get_task_objective_string
PUBLIC	?get_completed_task_expire_time@@YGMXZ		; get_completed_task_expire_time
PUBLIC	?get_task_estimated_route_duration@@YGMPAUENTITY@@@Z ; get_task_estimated_route_duration
PUBLIC	?award_points_for_task_completion@@YGHPAUENTITY@@@Z ; award_points_for_task_completion
PUBLIC	?assess_task_completeness@@YG?AW4TASK_COMPLETED_TYPES@@PAUENTITY@@W4TASK_TERMINATED_TYPES@@@Z ; assess_task_completeness
PUBLIC	?add_kill_to_task@@YGXPAUENTITY@@00@Z		; add_kill_to_task
PUBLIC	?add_loss_to_task@@YGXPAUENTITY@@00@Z		; add_loss_to_task
PUBLIC	?get_local_entity_current_task@@YGPAUENTITY@@PAU1@@Z ; get_local_entity_current_task
PUBLIC	?get_local_entity_primary_task@@YGPAUENTITY@@PAU1@@Z ; get_local_entity_primary_task
PUBLIC	?find_most_suitable_keysite_for_task@@YGPAUENTITY@@HW4ENTITY_SIDES@@PAUVEC3D@@H@Z ; find_most_suitable_keysite_for_task
PUBLIC	?assess_task_difficulty@@YGHPAUENTITY@@PAH1@Z	; assess_task_difficulty
PUBLIC	?get_local_task_list_type@@YG?AW4LIST_TYPES@@PAUENTITY@@@Z ; get_local_task_list_type
PUBLIC	?get_local_group_primary_task@@YGPAUENTITY@@PAU1@@Z ; get_local_group_primary_task
PUBLIC	?entity_is_object_of_task@@YGHPAUENTITY@@HW4ENTITY_SIDES@@@Z ; entity_is_object_of_task
PUBLIC	?get_task_friendly_fire_incidents@@YGHPAUENTITY@@@Z ; get_task_friendly_fire_incidents
END
