; Listing generated by Microsoft (R) Optimizing Compiler Version 19.16.27045.0 

	TITLE	c:\users\nhv90\projects\eech\modules\3d\terrain\terrsel.c
	.686P
	.XMM
	include listing.inc
	.model	flat

INCLUDELIB OLDNAMES

PUBLIC	?terrain_3d_simple_elevation_memory_map@@3PAEA	; terrain_3d_simple_elevation_memory_map
PUBLIC	?terrain_3d_simple_elevation_memory_mapped@@3HA	; terrain_3d_simple_elevation_memory_mapped
PUBLIC	?terrain_3d_simple_elevation_grid@@3PAMA	; terrain_3d_simple_elevation_grid
PUBLIC	?terrain_3d_simple_elevation_height@@3HA	; terrain_3d_simple_elevation_height
PUBLIC	?terrain_3d_simple_elevation_width@@3HA		; terrain_3d_simple_elevation_width
PUBLIC	?terrain_3d_simple_elevation_z_grid_size_reciprocal@@3MA ; terrain_3d_simple_elevation_z_grid_size_reciprocal
PUBLIC	?terrain_3d_simple_elevation_x_grid_size_reciprocal@@3MA ; terrain_3d_simple_elevation_x_grid_size_reciprocal
PUBLIC	?terrain_3d_simple_elevation_z_grid_size@@3MA	; terrain_3d_simple_elevation_z_grid_size
PUBLIC	?terrain_3d_simple_elevation_x_grid_size@@3MA	; terrain_3d_simple_elevation_x_grid_size
?terrain_3d_simple_elevation_memory_map@@3PAEA DD 01H DUP (?) ; terrain_3d_simple_elevation_memory_map
?terrain_3d_simple_elevation_memory_mapped@@3HA DD 01H DUP (?) ; terrain_3d_simple_elevation_memory_mapped
?terrain_3d_simple_elevation_grid@@3PAMA DD 01H DUP (?)	; terrain_3d_simple_elevation_grid
?terrain_3d_simple_elevation_height@@3HA DD 01H DUP (?)	; terrain_3d_simple_elevation_height
?terrain_3d_simple_elevation_width@@3HA DD 01H DUP (?)	; terrain_3d_simple_elevation_width
?terrain_3d_simple_elevation_z_grid_size_reciprocal@@3MA DD 01H DUP (?) ; terrain_3d_simple_elevation_z_grid_size_reciprocal
?terrain_3d_simple_elevation_x_grid_size_reciprocal@@3MA DD 01H DUP (?) ; terrain_3d_simple_elevation_x_grid_size_reciprocal
?terrain_3d_simple_elevation_z_grid_size@@3MA DD 01H DUP (?) ; terrain_3d_simple_elevation_z_grid_size
?terrain_3d_simple_elevation_x_grid_size@@3MA DD 01H DUP (?) ; terrain_3d_simple_elevation_x_grid_size
_BSS	ENDS
PUBLIC	?initialise_terrain_simple_elevation@@YGXXZ	; initialise_terrain_simple_elevation
PUBLIC	?load_terrain_simple_elevation@@YGHPBD@Z	; load_terrain_simple_elevation
PUBLIC	?generate_terrain_simple_elevation@@YGXM@Z	; generate_terrain_simple_elevation
PUBLIC	?save_terrain_simple_elevation@@YGXPBD@Z	; save_terrain_simple_elevation
PUBLIC	?get_3d_terrain_fast_elevation@@YGMMM@Z		; get_3d_terrain_fast_elevation
PUBLIC	?unload_terrain_simple_elevation_grid@@YGXXZ	; unload_terrain_simple_elevation_grid
?num_simple_elevation_tests@@3HA DD 01H DUP (?)		; num_simple_elevation_tests
_BSS	ENDS
END
