; Listing generated by Microsoft (R) Optimizing Compiler Version 19.16.27045.0 

	TITLE	c:\users\nhv90\projects\eech\modules\3d\terrain\terrdrcl.c
	.686P
	.XMM
	include listing.inc
	.model	flat

INCLUDELIB OLDNAMES

PUBLIC	?draw_3d_terrain_twopass_texture_x_clipped_strip_word_face@@YGXH@Z ; draw_3d_terrain_twopass_texture_x_clipped_strip_word_face
PUBLIC	?draw_3d_terrain_twopass_clipped_strip_byte_face@@YGXH@Z ; draw_3d_terrain_twopass_clipped_strip_byte_face
PUBLIC	?draw_3d_terrain_twopass_colour_clipped_fan_byte_face@@YGXH@Z ; draw_3d_terrain_twopass_colour_clipped_fan_byte_face
PUBLIC	?draw_3d_terrain_texture_z_clipped_fan_byte_face@@YGXH@Z ; draw_3d_terrain_texture_z_clipped_fan_byte_face
PUBLIC	?draw_3d_terrain_twopass_texture_x_colour_clipped_fan_word_face@@YGXH@Z ; draw_3d_terrain_twopass_texture_x_colour_clipped_fan_word_face
PUBLIC	?draw_3d_terrain_twopass_texture_x_colour_clipped_strip_byte_face@@YGXH@Z ; draw_3d_terrain_twopass_texture_x_colour_clipped_strip_byte_face
PUBLIC	?draw_3d_terrain_clipped_strip_word_face@@YGXH@Z ; draw_3d_terrain_clipped_strip_word_face
PUBLIC	?draw_3d_terrain_twopass_texture_z_colour_clipped_strip_byte_face@@YGXH@Z ; draw_3d_terrain_twopass_texture_z_colour_clipped_strip_byte_face
PUBLIC	?draw_3d_terrain_colour_clipped_fan_byte_face@@YGXH@Z ; draw_3d_terrain_colour_clipped_fan_byte_face
PUBLIC	?draw_3d_terrain_clipped_fan_byte_face@@YGXH@Z	; draw_3d_terrain_clipped_fan_byte_face
PUBLIC	?draw_3d_terrain_colour_clipped_fan_word_face@@YGXH@Z ; draw_3d_terrain_colour_clipped_fan_word_face
PUBLIC	?draw_3d_terrain_twopass_texture_x_colour_clipped_fan_byte_face@@YGXH@Z ; draw_3d_terrain_twopass_texture_x_colour_clipped_fan_byte_face
PUBLIC	?draw_3d_terrain_texture_x_colour_clipped_strip_word_face@@YGXH@Z ; draw_3d_terrain_texture_x_colour_clipped_strip_word_face
PUBLIC	?draw_3d_terrain_texture_z_colour_clipped_strip_byte_face@@YGXH@Z ; draw_3d_terrain_texture_z_colour_clipped_strip_byte_face
PUBLIC	?draw_3d_terrain_texture_z_colour_clipped_fan_word_face@@YGXH@Z ; draw_3d_terrain_texture_z_colour_clipped_fan_word_face
PUBLIC	?draw_3d_terrain_texture_x_colour_clipped_strip_byte_face@@YGXH@Z ; draw_3d_terrain_texture_x_colour_clipped_strip_byte_face
PUBLIC	?draw_3d_terrain_texture_z_colour_clipped_fan_byte_face@@YGXH@Z ; draw_3d_terrain_texture_z_colour_clipped_fan_byte_face
PUBLIC	?draw_3d_terrain_clipped_fan_word_face@@YGXH@Z	; draw_3d_terrain_clipped_fan_word_face
PUBLIC	?draw_3d_terrain_twopass_texture_z_clipped_fan_byte_face@@YGXH@Z ; draw_3d_terrain_twopass_texture_z_clipped_fan_byte_face
PUBLIC	?draw_3d_terrain_texture_x_clipped_strip_word_face@@YGXH@Z ; draw_3d_terrain_texture_x_clipped_strip_word_face
PUBLIC	?draw_3d_terrain_twopass_colour_clipped_fan_word_face@@YGXH@Z ; draw_3d_terrain_twopass_colour_clipped_fan_word_face
PUBLIC	?draw_3d_terrain_twopass_texture_x_colour_clipped_strip_word_face@@YGXH@Z ; draw_3d_terrain_twopass_texture_x_colour_clipped_strip_word_face
PUBLIC	?draw_3d_terrain_texture_z_clipped_fan_word_face@@YGXH@Z ; draw_3d_terrain_texture_z_clipped_fan_word_face
PUBLIC	?draw_3d_terrain_twopass_texture_x_clipped_fan_byte_face@@YGXH@Z ; draw_3d_terrain_twopass_texture_x_clipped_fan_byte_face
PUBLIC	?draw_3d_terrain_texture_x_clipped_fan_byte_face@@YGXH@Z ; draw_3d_terrain_texture_x_clipped_fan_byte_face
PUBLIC	?draw_3d_terrain_twopass_colour_clipped_strip_word_face@@YGXH@Z ; draw_3d_terrain_twopass_colour_clipped_strip_word_face
PUBLIC	?draw_3d_terrain_twopass_texture_z_clipped_strip_word_face@@YGXH@Z ; draw_3d_terrain_twopass_texture_z_clipped_strip_word_face
PUBLIC	?draw_3d_terrain_texture_z_clipped_strip_byte_face@@YGXH@Z ; draw_3d_terrain_texture_z_clipped_strip_byte_face
PUBLIC	?draw_3d_terrain_twopass_texture_z_colour_clipped_fan_byte_face@@YGXH@Z ; draw_3d_terrain_twopass_texture_z_colour_clipped_fan_byte_face
PUBLIC	?draw_3d_terrain_twopass_texture_z_colour_clipped_strip_word_face@@YGXH@Z ; draw_3d_terrain_twopass_texture_z_colour_clipped_strip_word_face
PUBLIC	?draw_3d_terrain_twopass_texture_z_clipped_strip_byte_face@@YGXH@Z ; draw_3d_terrain_twopass_texture_z_clipped_strip_byte_face
PUBLIC	?draw_3d_terrain_twopass_texture_x_clipped_fan_word_face@@YGXH@Z ; draw_3d_terrain_twopass_texture_x_clipped_fan_word_face
PUBLIC	?draw_3d_terrain_clipped_strip_byte_face@@YGXH@Z ; draw_3d_terrain_clipped_strip_byte_face
PUBLIC	?draw_3d_terrain_twopass_clipped_strip_word_face@@YGXH@Z ; draw_3d_terrain_twopass_clipped_strip_word_face
PUBLIC	?draw_3d_terrain_texture_z_clipped_strip_word_face@@YGXH@Z ; draw_3d_terrain_texture_z_clipped_strip_word_face
PUBLIC	?draw_3d_terrain_texture_x_colour_clipped_fan_byte_face@@YGXH@Z ; draw_3d_terrain_texture_x_colour_clipped_fan_byte_face
PUBLIC	?draw_3d_terrain_twopass_clipped_fan_word_face@@YGXH@Z ; draw_3d_terrain_twopass_clipped_fan_word_face
PUBLIC	?draw_3d_terrain_texture_z_colour_clipped_strip_word_face@@YGXH@Z ; draw_3d_terrain_texture_z_colour_clipped_strip_word_face
PUBLIC	?draw_3d_terrain_colour_clipped_strip_word_face@@YGXH@Z ; draw_3d_terrain_colour_clipped_strip_word_face
PUBLIC	?draw_3d_terrain_twopass_texture_x_clipped_strip_byte_face@@YGXH@Z ; draw_3d_terrain_twopass_texture_x_clipped_strip_byte_face
PUBLIC	?draw_3d_terrain_twopass_clipped_fan_byte_face@@YGXH@Z ; draw_3d_terrain_twopass_clipped_fan_byte_face
PUBLIC	?draw_3d_terrain_twopass_texture_z_colour_clipped_fan_word_face@@YGXH@Z ; draw_3d_terrain_twopass_texture_z_colour_clipped_fan_word_face
PUBLIC	?draw_3d_terrain_colour_clipped_strip_byte_face@@YGXH@Z ; draw_3d_terrain_colour_clipped_strip_byte_face
PUBLIC	?draw_3d_terrain_twopass_texture_z_clipped_fan_word_face@@YGXH@Z ; draw_3d_terrain_twopass_texture_z_clipped_fan_word_face
PUBLIC	?draw_3d_terrain_texture_x_clipped_strip_byte_face@@YGXH@Z ; draw_3d_terrain_texture_x_clipped_strip_byte_face
PUBLIC	?draw_3d_terrain_texture_x_colour_clipped_fan_word_face@@YGXH@Z ; draw_3d_terrain_texture_x_colour_clipped_fan_word_face
PUBLIC	?draw_3d_terrain_twopass_colour_clipped_strip_byte_face@@YGXH@Z ; draw_3d_terrain_twopass_colour_clipped_strip_byte_face
PUBLIC	?draw_3d_terrain_texture_x_clipped_fan_word_face@@YGXH@Z ; draw_3d_terrain_texture_x_clipped_fan_word_face
END
