; Listing generated by Microsoft (R) Optimizing Compiler Version 19.16.27045.0 

	TITLE	c:\users\nhv90\projects\eech\modules\3d\terrain\terrtype.c
	.686P
	.XMM
	include listing.inc
	.model	flat

INCLUDELIB OLDNAMES

PUBLIC	?terrain_type_information@@3PAUTERRAIN_TYPE_INFO@@A ; terrain_type_information
PUBLIC	??_C@_0O@DCAMCMDE@TERRAIN_SEA_1@		; `string'
PUBLIC	??_C@_0BA@EEKPDLHD@COLOUR_PASS_SEA@		; `string'
PUBLIC	??_C@_0O@BBEHGFKB@TERRAIN_BEACH@		; `string'
PUBLIC	??_C@_0M@LDEJELLC@COLOUR_PASS@			; `string'
PUBLIC	??_C@_0BB@BDNEEDDA@TERRAIN_DETAIL_4@		; `string'
PUBLIC	??_C@_0P@EOGCBCMK@CH_TERRAIN_CP1@		; `string'
PUBLIC	??_C@_0BG@EOMIBGLD@TERRAIN_TREE_CANOPY_1@	; `string'
PUBLIC	??_C@_0BD@KHLAAODF@TERRAIN_THAI_CITY4@		; `string'
PUBLIC	??_C@_0BD@OIPBJIPC@TERRAIN_THAI_CITY3@		; `string'
PUBLIC	??_C@_0BD@PBOKKJLD@TERRAIN_THAI_CITY2@		; `string'
PUBLIC	??_C@_0BD@NKMHPKHA@TERRAIN_THAI_CITY1@		; `string'
PUBLIC	??_C@_0BB@IALPPKNP@TERRAIN_BW_CITY4@		; `string'
PUBLIC	??_C@_0BB@MPPOGMBI@TERRAIN_BW_CITY3@		; `string'
PUBLIC	??_C@_0BB@NGOFFNFJ@TERRAIN_BW_CITY2@		; `string'
PUBLIC	??_C@_0BB@PNMIAOJK@TERRAIN_BW_CITY1@		; `string'
PUBLIC	??_C@_0BE@EOMJEIPI@TERRAIN_DETAIL_ROAD@		; `string'
PUBLIC	??_C@_0BB@OHLOCNHA@COLOUR_PASS_WALL@		; `string'
PUBLIC	??_C@_0BI@HCKGLJHJ@TERRAIN_THAI_DIRT_TRACK@	; `string'
PUBLIC	??_C@_0BH@LCADFALJ@TERRAIN_THAILAND_RIVER@	; `string'
PUBLIC	??_C@_0BF@GFEKLLKL@TERRAIN_MUSTARDFIELD@	; `string'
PUBLIC	??_C@_0BH@JNGNCFED@TERRAIN_PLOUGHED1FIELD@	; `string'
PUBLIC	??_C@_0BH@KMIFDPNO@TERRAIN_PLOUGHED2FIELD@	; `string'
PUBLIC	??_C@_0BC@KJPKDFNB@TERRAIN_CORNFIELD@		; `string'
PUBLIC	??_C@_0BD@DPOGMPFD@TERRAIN_WHEATFIELD@		; `string'
PUBLIC	??_C@_0BI@KPJCKJLC@TERRAIN_LIGHTGREENFIELD@	; `string'
PUBLIC	??_C@_0BH@BEINOGAP@TERRAIN_DARKGREENFIELD@	; `string'
PUBLIC	??_C@_0P@BKMAGCLI@TERRAIN_SWAMP1@		; `string'
PUBLIC	??_C@_0P@DBONDBHL@TERRAIN_SWAMP2@		; `string'
PUBLIC	??_C@_0BB@NLCHJFOM@TERRAIN_HIGHLAND@		; `string'
PUBLIC	??_C@_0BB@ILJMAEMJ@COLOUR_PASS_ROCK@		; `string'
PUBLIC	??_C@_07MGCPDNLD@DEFAULT@			; `string'
PUBLIC	??_C@_0BD@MIKAIJBD@ENVIRO_YEMEN_SMALL@		; `string'
PUBLIC	??_C@_0BD@BIEFPCFF@TERRAIN_CUBA_CITY4@		; `string'
PUBLIC	??_C@_0BD@FHAEGEJC@TERRAIN_CUBA_CITY3@		; `string'
PUBLIC	??_C@_0BD@EOBPFFND@TERRAIN_CUBA_CITY2@		; `string'
PUBLIC	??_C@_0BD@GFDCAGBA@TERRAIN_CUBA_CITY1@		; `string'
PUBLIC	??_C@_0BD@HAICHOLH@TERRAIN_THAI_TRACK@		; `string'
PUBLIC	??_C@_0O@KOAPGDHE@TERRAIN_RIVER@		; `string'
PUBLIC	??_C@_0O@PGGFIOAG@TERRAIN_SCRUB@		; `string'
PUBLIC	??_C@_0BG@IGFCFCHF@COLOUR_PASS_MOUNTAINS@	; `string'
PUBLIC	??_C@_0BD@BMPINLKM@TERRAIN_BARE_ROCK2@		; `string'
PUBLIC	??_C@_0N@JANIPHBF@TERRAIN_SNOW@			; `string'
PUBLIC	??_C@_0BB@OBCNOOCF@COLOUR_PASS_SNOW@		; `string'
PUBLIC	??_C@_0BE@HJIDJHBJ@COLOUR_PASS_GRG_SEA@		; `string'
PUBLIC	??_C@_0BC@IFNGCBJM@TERRAIN_GRG_CITY4@		; `string'
PUBLIC	??_C@_0BC@MKJHLHFL@TERRAIN_GRG_CITY3@		; `string'
PUBLIC	??_C@_0BC@NDIMIGBK@TERRAIN_GRG_CITY2@		; `string'
PUBLIC	??_C@_0BC@PIKBNFNJ@TERRAIN_GRG_CITY1@		; `string'
PUBLIC	??_C@_0BI@EBJMGEFE@COLOUR_PASS_SEA_LEBANON@	; `string'
PUBLIC	??_C@_0BE@CBPBIHAE@COLOUR_PASS_LEBANON@		; `string'
PUBLIC	??_C@_0BH@IMANJLMO@TERRAIN_DETAIL_LEBANON@	; `string'
PUBLIC	??_C@_0BM@NCJBOGKD@TERRAIN_TREE_CANOPY_LEBANON@	; `string'
PUBLIC	??_C@_0BL@LIHLPOJG@COLOUR_PASS_FOREST_LEBANON@	; `string'
PUBLIC	??_C@_0BE@JDCCELCI@CP_LEBANON_V2_CITY1@		; `string'
PUBLIC	??_C@_0BE@LIAPBIOL@CP_LEBANON_V2_CITY2@		; `string'
PUBLIC	??_C@_0BE@KBBECJKK@CP_LEBANON_V2_CITY3@		; `string'
PUBLIC	??_C@_0BE@OOFFLPGN@CP_LEBANON_V2_CITY4@		; `string'
PUBLIC	??_C@_0BE@LMHLPLCF@BW_LEBANON_V2_CITY1@		; `string'
PUBLIC	??_C@_0BE@JHFGKIOG@BW_LEBANON_V2_CITY2@		; `string'
PUBLIC	??_C@_0BE@IOENJJKH@BW_LEBANON_V2_CITY3@		; `string'
PUBLIC	??_C@_0BE@MBAMAPGA@BW_LEBANON_V2_CITY4@		; `string'
PUBLIC	??_C@_0BJ@LBCKHBIJ@COLOUR_PASS_ROCK_LEBANON@	; `string'
PUBLIC	??_C@_0BK@LGOINMMJ@COLOUR_PASS_SCRUB_LEBANON@	; `string'
PUBLIC	??_C@_0BK@BGKABACE@TERRAIN_BARE_ROCK_LEBANON@	; `string'
PUBLIC	??_C@_0BF@DGPHNMHH@TERRAIN_SNOW_LEBANON@	; `string'
PUBLIC	??_C@_0BF@MCHGDFIO@TERRAIN_WALL_LEBANON@	; `string'
PUBLIC	??_C@_06OPNEJFKO@DESERT@			; `string'
PUBLIC	??_C@_0BF@MBOPLBDO@TERRAIN_YEMEN_GRITTY@	; `string'
PUBLIC	??_C@_0BJ@OILJFHJP@COLOUR_PASS_YEMEN_BAKED2@	; `string'
PUBLIC	??_C@_0M@JLGKMFHJ@YEMEN_CITY3@			; `string'
PUBLIC	??_C@_0M@KJFMKHPL@YEMEN_CITY1@			; `string'
PUBLIC	??_C@_0BE@KGIMOHE@TERRAIN_YEMEN_STONY@		; `string'
PUBLIC	??_C@_0BE@BGLJBDBC@TERRAIN_YEMEN_BAKED@		; `string'
PUBLIC	??_C@_0BE@JFJMKOBJ@TERRAIN_YEMEN_LUNAR@		; `string'
PUBLIC	??_C@_0BC@GNMAAAJL@COLOUR_PASS_SWAMP@		; `string'
PUBLIC	??_C@_0BF@KLJKPJCE@TERRAIN_TYPE_INVALID@	; `string'
PUBLIC	??_C@_0BD@MHNACIBO@TERRAIN_TYPE_RIVER@		; `string'
PUBLIC	??_C@_0BH@CPJGKDBB@TERRAIN_TYPE_RESERVOIR@	; `string'
PUBLIC	??_C@_0BE@CFAMEMDA@TERRAIN_TYPE_TRENCH@		; `string'
PUBLIC	??_C@_0BI@CGKOGCNM@TERRAIN_TYPE_RIVER_BANK@	; `string'
PUBLIC	??_C@_0BL@CALCHMPL@TERRAIN_TYPE_TRENCH_SIDE_X@	; `string'
PUBLIC	??_C@_0BL@BCIEBOHJ@TERRAIN_TYPE_TRENCH_SIDE_Z@	; `string'
PUBLIC	??_C@_0BB@FPPNMNNO@TERRAIN_TYPE_SEA@		; `string'
PUBLIC	??_C@_0BD@HIJICOML@TERRAIN_TYPE_BEACH@		; `string'
PUBLIC	??_C@_0BC@JDKPFICG@TERRAIN_TYPE_LAND@		; `string'
PUBLIC	??_C@_0BE@ONOHCPDO@TERRAIN_TYPE_FIELD1@		; `string'
PUBLIC	??_C@_0BE@MGMKHMPN@TERRAIN_TYPE_FIELD2@		; `string'
PUBLIC	??_C@_0BE@NPNBENLM@TERRAIN_TYPE_FIELD3@		; `string'
PUBLIC	??_C@_0BE@JAJANLHL@TERRAIN_TYPE_FIELD4@		; `string'
PUBLIC	??_C@_0BE@IJILOKDK@TERRAIN_TYPE_FIELD5@		; `string'
PUBLIC	??_C@_0BE@KCKGLJPJ@TERRAIN_TYPE_FIELD6@		; `string'
PUBLIC	??_C@_0BE@LLLNIILI@TERRAIN_TYPE_FIELD7@		; `string'
PUBLIC	??_C@_0BE@DMCFJEHH@TERRAIN_TYPE_FIELD8@		; `string'
PUBLIC	??_C@_0BE@CFDOKFDG@TERRAIN_TYPE_FIELD9@		; `string'
PUBLIC	??_C@_0BF@BOMKMMHH@TERRAIN_TYPE_FIELD10@	; `string'
PUBLIC	??_C@_0BF@HNBPNDG@TERRAIN_TYPE_FIELD11@		; `string'
PUBLIC	??_C@_0BL@MOMONHC@TERRAIN_TYPE_ALTERED_LAND1@	; `string'
PUBLIC	??_C@_0BL@CHMBLOLB@TERRAIN_TYPE_ALTERED_LAND2@	; `string'
PUBLIC	??_C@_0BL@DONKIPPA@TERRAIN_TYPE_ALTERED_LAND3@	; `string'
PUBLIC	??_C@_0BK@PCJPECFI@TERRAIN_TYPE_FOREST_FLOOR@	; `string'
PUBLIC	??_C@_0BH@HFDPPOFP@TERRAIN_TYPE_ROAD_BANK@	; `string'
PUBLIC	??_C@_0BH@FNPHHABP@TERRAIN_TYPE_RAIL_BANK@	; `string'
PUBLIC	??_C@_0BK@KNLKGHGP@TERRAIN_TYPE_HEDGE_SIDE_X@	; `string'
PUBLIC	??_C@_0BK@JPIMAFON@TERRAIN_TYPE_HEDGE_SIDE_Z@	; `string'
PUBLIC	??_C@_0BJ@HBMCFKFF@TERRAIN_TYPE_WALL_SIDE_X@	; `string'
PUBLIC	??_C@_0BJ@EDPEDINH@TERRAIN_TYPE_WALL_SIDE_Z@	; `string'
PUBLIC	??_C@_0CC@PEGNDAIM@TERRAIN_TYPE_FOREST_SIDE_BOTTOM@ ; `string'
PUBLIC	??_C@_0CC@MGFLFCAO@TERRAIN_TYPE_FOREST_SIDE_BOTTOM@ ; `string'
PUBLIC	??_C@_0BP@EFKAHKGH@TERRAIN_TYPE_FOREST_SIDE_MID_X@ ; `string'
PUBLIC	??_C@_0BP@HHJGBIOF@TERRAIN_TYPE_FOREST_SIDE_MID_Z@ ; `string'
PUBLIC	??_C@_0BP@DBECBMFM@TERRAIN_TYPE_FOREST_SIDE_TOP_X@ ; `string'
PUBLIC	??_C@_0BP@DHEHONO@TERRAIN_TYPE_FOREST_SIDE_TOP_Z@ ; `string'
PUBLIC	??_C@_0BM@GKIIMCDG@TERRAIN_TYPE_BUILT_UP_AREA1@	; `string'
PUBLIC	??_C@_0BM@EBKFJBPF@TERRAIN_TYPE_BUILT_UP_AREA2@	; `string'
PUBLIC	??_C@_0BM@FILOKALE@TERRAIN_TYPE_BUILT_UP_AREA3@	; `string'
PUBLIC	??_C@_0BM@BHPPDGHD@TERRAIN_TYPE_BUILT_UP_AREA4@	; `string'
PUBLIC	??_C@_0BC@KHPMEBML@TERRAIN_TYPE_ROAD@		; `string'
PUBLIC	??_C@_0BD@FEPKNHBM@TERRAIN_TYPE_TRACK@		; `string'
PUBLIC	??_C@_0BC@IBOJONEI@TERRAIN_TYPE_RAIL@		; `string'
PUBLIC	??_C@_0BG@MNGHPFJM@TERRAIN_TYPE_WALL_TOP@	; `string'
PUBLIC	??_C@_0BH@FMJLAFNH@TERRAIN_TYPE_HEDGE_TOP@	; `string'
PUBLIC	??_C@_0BI@PDIAFKJK@TERRAIN_TYPE_FOREST_TOP@	; `string'
PUBLIC	??_C@_0BJ@JMINDAAA@TEMP_TERRAIN_TYPE_FRINGE@	; `string'
PUBLIC	??_C@_0BN@OFDKHGHN@TEMP_TERRAIN_TYPE_POWER_LINE@ ; `string'
PUBLIC	??_C@_0CB@LFGMNIFC@TEMP_TERRAIN_TYPE_TELEPHONE_LIN@ ; `string'
PUBLIC	??_C@_0BL@GDJOCCFH@TEMP_TERRAIN_TYPE_SEA_BANK@	; `string'
PUBLIC	??_C@_0CA@JALJOMDF@TEMP_TERRAIN_TYPE_COASTAL_RIVER@ ; `string'
PUBLIC	??_C@_0BM@GGBBLNBN@TEMP_TERRAIN_TYPE_BEACH_MID@	; `string'
PUBLIC	??_C@_0CG@EJFONOKM@TEMP_TERRAIN_TYPE_STEPPED_RIVER@ ; `string'
PUBLIC	??_C@_0CG@BPAEHJCK@TEMP_TERRAIN_TYPE_STEPPED_RIVER@ ; `string'
PUBLIC	??_C@_0CG@CNDCBLKI@TEMP_TERRAIN_TYPE_STEPPED_RIVER@ ; `string'
PUBLIC	??_C@_0BH@IIDMCDBA@TEMP_TERRAIN_TYPE_LAKE@	; `string'
PUBLIC	??_C@_0CA@CALDPDJD@TEMP_TERRAIN_TYPE_FOREST_SIDE_X@ ; `string'
PUBLIC	??_C@_0CA@BCIFJBBB@TEMP_TERRAIN_TYPE_FOREST_SIDE_Z@ ; `string'
PUBLIC	??_C@_0BK@IOKMOMKC@TEMP_TERRAIN_TYPE_OFFROAD@	; `string'
PUBLIC	??_C@_0CF@MDCLHAEG@TEMP_TERRAIN_TYPE_POLITICAL_BOU@ ; `string'
PUBLIC	??_C@_0CF@IBMDLBFC@TEMP_TERRAIN_TYPE_BUILT_UP_AREA@ ; `string'
PUBLIC	??_C@_0BC@MNJDHKFE@TERRAIN_TYPE_LAST@		; `string'
PUBLIC	??_C@_0L@GAEOMBKJ@terrtype?4c@			; `string'
PUBLIC	??_C@_0P@CBMAAOCK@NOISEMAP_FIELD@		; `string'
PUBLIC	??_C@_0BF@CENFCBOJ@NOISEMAP_TREE_CANOPY@	; `string'
PUBLIC	??_C@_0O@KMHDEPEJ@NOISEMAP_SAND@		; `string'
PUBLIC	??_C@_0O@JEDNHELK@NOISEMAP_SNOW@		; `string'
PUBLIC	??_C@_0P@GADHIMJA@NOISEMAP_GRASS@		; `string'
PUBLIC	??_C@_08JGBMEEAM@NOISEMAP@			; `string'
PUBLIC	??_C@_0P@CCNGCKHH@NOISEMAP_WATER@		; `string'
PUBLIC	??_C@_0P@FHCKDOFL@NOISEMAP_BEACH@		; `string'
PUBLIC	??_C@_0BE@PCKHIBHJ@CH_TERRAIN_DRY_MUD1@		; `string'
PUBLIC	??_C@_0N@JGELDEEA@TERRAIN_WALL@			; `string'
PUBLIC	??_C@_0BO@FDKKCFKA@noisemap?5array?5out?5of?5bounds?$CB@ ; `string'
PUBLIC	?terrain_type_names@@3PAUTERRAIN_TYPE_NAME@@A	; terrain_type_names
PUBLIC	?terrain_dual_pass_rendering_enabled@@3HA	; terrain_dual_pass_rendering_enabled
?terrain_type_information@@3PAUTERRAIN_TYPE_INFO@@A DB 0d90H DUP (?) ; terrain_type_information
_BSS	ENDS
;	COMDAT ??_C@_0BO@FDKKCFKA@noisemap?5array?5out?5of?5bounds?$CB@
CONST	SEGMENT
??_C@_0BO@FDKKCFKA@noisemap?5array?5out?5of?5bounds?$CB@ DB 'noisemap arr'
	DB	'ay out of bounds!', 00H			; `string'
CONST	ENDS
;	COMDAT ??_C@_0N@JGELDEEA@TERRAIN_WALL@
CONST	SEGMENT
??_C@_0N@JGELDEEA@TERRAIN_WALL@ DB 'TERRAIN_WALL', 00H	; `string'
CONST	ENDS
;	COMDAT ??_C@_0BE@PCKHIBHJ@CH_TERRAIN_DRY_MUD1@
CONST	SEGMENT
??_C@_0BE@PCKHIBHJ@CH_TERRAIN_DRY_MUD1@ DB 'CH_TERRAIN_DRY_MUD1', 00H ; `string'
CONST	ENDS
;	COMDAT ??_C@_0P@FHCKDOFL@NOISEMAP_BEACH@
CONST	SEGMENT
??_C@_0P@FHCKDOFL@NOISEMAP_BEACH@ DB 'NOISEMAP_BEACH', 00H ; `string'
CONST	ENDS
;	COMDAT ??_C@_0P@CCNGCKHH@NOISEMAP_WATER@
CONST	SEGMENT
??_C@_0P@CCNGCKHH@NOISEMAP_WATER@ DB 'NOISEMAP_WATER', 00H ; `string'
CONST	ENDS
;	COMDAT ??_C@_08JGBMEEAM@NOISEMAP@
CONST	SEGMENT
??_C@_08JGBMEEAM@NOISEMAP@ DB 'NOISEMAP', 00H		; `string'
CONST	ENDS
;	COMDAT ??_C@_0P@GADHIMJA@NOISEMAP_GRASS@
CONST	SEGMENT
??_C@_0P@GADHIMJA@NOISEMAP_GRASS@ DB 'NOISEMAP_GRASS', 00H ; `string'
CONST	ENDS
;	COMDAT ??_C@_0O@JEDNHELK@NOISEMAP_SNOW@
CONST	SEGMENT
??_C@_0O@JEDNHELK@NOISEMAP_SNOW@ DB 'NOISEMAP_SNOW', 00H ; `string'
CONST	ENDS
;	COMDAT ??_C@_0O@KMHDEPEJ@NOISEMAP_SAND@
CONST	SEGMENT
??_C@_0O@KMHDEPEJ@NOISEMAP_SAND@ DB 'NOISEMAP_SAND', 00H ; `string'
CONST	ENDS
;	COMDAT ??_C@_0BF@CENFCBOJ@NOISEMAP_TREE_CANOPY@
CONST	SEGMENT
??_C@_0BF@CENFCBOJ@NOISEMAP_TREE_CANOPY@ DB 'NOISEMAP_TREE_CANOPY', 00H ; `string'
CONST	ENDS
;	COMDAT ??_C@_0P@CBMAAOCK@NOISEMAP_FIELD@
CONST	SEGMENT
??_C@_0P@CBMAAOCK@NOISEMAP_FIELD@ DB 'NOISEMAP_FIELD', 00H ; `string'
CONST	ENDS
;	COMDAT ??_C@_0L@GAEOMBKJ@terrtype?4c@
CONST	SEGMENT
??_C@_0L@GAEOMBKJ@terrtype?4c@ DB 'terrtype.c', 00H	; `string'
CONST	ENDS
;	COMDAT ??_C@_0BC@MNJDHKFE@TERRAIN_TYPE_LAST@
CONST	SEGMENT
??_C@_0BC@MNJDHKFE@TERRAIN_TYPE_LAST@ DB 'TERRAIN_TYPE_LAST', 00H ; `string'
CONST	ENDS
;	COMDAT ??_C@_0CF@IBMDLBFC@TEMP_TERRAIN_TYPE_BUILT_UP_AREA@
CONST	SEGMENT
??_C@_0CF@IBMDLBFC@TEMP_TERRAIN_TYPE_BUILT_UP_AREA@ DB 'TEMP_TERRAIN_TYPE'
	DB	'_BUILT_UP_AREA_BANK', 00H			; `string'
CONST	ENDS
;	COMDAT ??_C@_0CF@MDCLHAEG@TEMP_TERRAIN_TYPE_POLITICAL_BOU@
CONST	SEGMENT
??_C@_0CF@MDCLHAEG@TEMP_TERRAIN_TYPE_POLITICAL_BOU@ DB 'TEMP_TERRAIN_TYPE'
	DB	'_POLITICAL_BOUNDARY', 00H			; `string'
CONST	ENDS
;	COMDAT ??_C@_0BK@IOKMOMKC@TEMP_TERRAIN_TYPE_OFFROAD@
CONST	SEGMENT
??_C@_0BK@IOKMOMKC@TEMP_TERRAIN_TYPE_OFFROAD@ DB 'TEMP_TERRAIN_TYPE_OFFRO'
	DB	'AD', 00H					; `string'
CONST	ENDS
;	COMDAT ??_C@_0CA@BCIFJBBB@TEMP_TERRAIN_TYPE_FOREST_SIDE_Z@
CONST	SEGMENT
??_C@_0CA@BCIFJBBB@TEMP_TERRAIN_TYPE_FOREST_SIDE_Z@ DB 'TEMP_TERRAIN_TYPE'
	DB	'_FOREST_SIDE_Z', 00H			; `string'
CONST	ENDS
;	COMDAT ??_C@_0CA@CALDPDJD@TEMP_TERRAIN_TYPE_FOREST_SIDE_X@
CONST	SEGMENT
??_C@_0CA@CALDPDJD@TEMP_TERRAIN_TYPE_FOREST_SIDE_X@ DB 'TEMP_TERRAIN_TYPE'
	DB	'_FOREST_SIDE_X', 00H			; `string'
CONST	ENDS
;	COMDAT ??_C@_0BH@IIDMCDBA@TEMP_TERRAIN_TYPE_LAKE@
CONST	SEGMENT
??_C@_0BH@IIDMCDBA@TEMP_TERRAIN_TYPE_LAKE@ DB 'TEMP_TERRAIN_TYPE_LAKE', 00H ; `string'
CONST	ENDS
;	COMDAT ??_C@_0CG@CNDCBLKI@TEMP_TERRAIN_TYPE_STEPPED_RIVER@
CONST	SEGMENT
??_C@_0CG@CNDCBLKI@TEMP_TERRAIN_TYPE_STEPPED_RIVER@ DB 'TEMP_TERRAIN_TYPE'
	DB	'_STEPPED_RIVER_BANK7', 00H			; `string'
CONST	ENDS
;	COMDAT ??_C@_0CG@BPAEHJCK@TEMP_TERRAIN_TYPE_STEPPED_RIVER@
CONST	SEGMENT
??_C@_0CG@BPAEHJCK@TEMP_TERRAIN_TYPE_STEPPED_RIVER@ DB 'TEMP_TERRAIN_TYPE'
	DB	'_STEPPED_RIVER_BANK5', 00H			; `string'
CONST	ENDS
;	COMDAT ??_C@_0CG@EJFONOKM@TEMP_TERRAIN_TYPE_STEPPED_RIVER@
CONST	SEGMENT
??_C@_0CG@EJFONOKM@TEMP_TERRAIN_TYPE_STEPPED_RIVER@ DB 'TEMP_TERRAIN_TYPE'
	DB	'_STEPPED_RIVER_BANK3', 00H			; `string'
CONST	ENDS
;	COMDAT ??_C@_0BM@GGBBLNBN@TEMP_TERRAIN_TYPE_BEACH_MID@
CONST	SEGMENT
??_C@_0BM@GGBBLNBN@TEMP_TERRAIN_TYPE_BEACH_MID@ DB 'TEMP_TERRAIN_TYPE_BEA'
	DB	'CH_MID', 00H				; `string'
CONST	ENDS
;	COMDAT ??_C@_0CA@JALJOMDF@TEMP_TERRAIN_TYPE_COASTAL_RIVER@
CONST	SEGMENT
??_C@_0CA@JALJOMDF@TEMP_TERRAIN_TYPE_COASTAL_RIVER@ DB 'TEMP_TERRAIN_TYPE'
	DB	'_COASTAL_RIVER', 00H			; `string'
CONST	ENDS
;	COMDAT ??_C@_0BL@GDJOCCFH@TEMP_TERRAIN_TYPE_SEA_BANK@
CONST	SEGMENT
??_C@_0BL@GDJOCCFH@TEMP_TERRAIN_TYPE_SEA_BANK@ DB 'TEMP_TERRAIN_TYPE_SEA_'
	DB	'BANK', 00H					; `string'
CONST	ENDS
;	COMDAT ??_C@_0CB@LFGMNIFC@TEMP_TERRAIN_TYPE_TELEPHONE_LIN@
CONST	SEGMENT
??_C@_0CB@LFGMNIFC@TEMP_TERRAIN_TYPE_TELEPHONE_LIN@ DB 'TEMP_TERRAIN_TYPE'
	DB	'_TELEPHONE_LINE', 00H			; `string'
CONST	ENDS
;	COMDAT ??_C@_0BN@OFDKHGHN@TEMP_TERRAIN_TYPE_POWER_LINE@
CONST	SEGMENT
??_C@_0BN@OFDKHGHN@TEMP_TERRAIN_TYPE_POWER_LINE@ DB 'TEMP_TERRAIN_TYPE_PO'
	DB	'WER_LINE', 00H				; `string'
CONST	ENDS
;	COMDAT ??_C@_0BJ@JMINDAAA@TEMP_TERRAIN_TYPE_FRINGE@
CONST	SEGMENT
??_C@_0BJ@JMINDAAA@TEMP_TERRAIN_TYPE_FRINGE@ DB 'TEMP_TERRAIN_TYPE_FRINGE'
	DB	00H						; `string'
CONST	ENDS
;	COMDAT ??_C@_0BI@PDIAFKJK@TERRAIN_TYPE_FOREST_TOP@
CONST	SEGMENT
??_C@_0BI@PDIAFKJK@TERRAIN_TYPE_FOREST_TOP@ DB 'TERRAIN_TYPE_FOREST_TOP', 00H ; `string'
CONST	ENDS
;	COMDAT ??_C@_0BH@FMJLAFNH@TERRAIN_TYPE_HEDGE_TOP@
CONST	SEGMENT
??_C@_0BH@FMJLAFNH@TERRAIN_TYPE_HEDGE_TOP@ DB 'TERRAIN_TYPE_HEDGE_TOP', 00H ; `string'
CONST	ENDS
;	COMDAT ??_C@_0BG@MNGHPFJM@TERRAIN_TYPE_WALL_TOP@
CONST	SEGMENT
??_C@_0BG@MNGHPFJM@TERRAIN_TYPE_WALL_TOP@ DB 'TERRAIN_TYPE_WALL_TOP', 00H ; `string'
CONST	ENDS
;	COMDAT ??_C@_0BC@IBOJONEI@TERRAIN_TYPE_RAIL@
CONST	SEGMENT
??_C@_0BC@IBOJONEI@TERRAIN_TYPE_RAIL@ DB 'TERRAIN_TYPE_RAIL', 00H ; `string'
CONST	ENDS
;	COMDAT ??_C@_0BD@FEPKNHBM@TERRAIN_TYPE_TRACK@
CONST	SEGMENT
??_C@_0BD@FEPKNHBM@TERRAIN_TYPE_TRACK@ DB 'TERRAIN_TYPE_TRACK', 00H ; `string'
CONST	ENDS
;	COMDAT ??_C@_0BC@KHPMEBML@TERRAIN_TYPE_ROAD@
CONST	SEGMENT
??_C@_0BC@KHPMEBML@TERRAIN_TYPE_ROAD@ DB 'TERRAIN_TYPE_ROAD', 00H ; `string'
CONST	ENDS
;	COMDAT ??_C@_0BM@BHPPDGHD@TERRAIN_TYPE_BUILT_UP_AREA4@
CONST	SEGMENT
??_C@_0BM@BHPPDGHD@TERRAIN_TYPE_BUILT_UP_AREA4@ DB 'TERRAIN_TYPE_BUILT_UP'
	DB	'_AREA4', 00H				; `string'
CONST	ENDS
;	COMDAT ??_C@_0BM@FILOKALE@TERRAIN_TYPE_BUILT_UP_AREA3@
CONST	SEGMENT
??_C@_0BM@FILOKALE@TERRAIN_TYPE_BUILT_UP_AREA3@ DB 'TERRAIN_TYPE_BUILT_UP'
	DB	'_AREA3', 00H				; `string'
CONST	ENDS
;	COMDAT ??_C@_0BM@EBKFJBPF@TERRAIN_TYPE_BUILT_UP_AREA2@
CONST	SEGMENT
??_C@_0BM@EBKFJBPF@TERRAIN_TYPE_BUILT_UP_AREA2@ DB 'TERRAIN_TYPE_BUILT_UP'
	DB	'_AREA2', 00H				; `string'
CONST	ENDS
;	COMDAT ??_C@_0BM@GKIIMCDG@TERRAIN_TYPE_BUILT_UP_AREA1@
CONST	SEGMENT
??_C@_0BM@GKIIMCDG@TERRAIN_TYPE_BUILT_UP_AREA1@ DB 'TERRAIN_TYPE_BUILT_UP'
	DB	'_AREA1', 00H				; `string'
CONST	ENDS
;	COMDAT ??_C@_0BP@DHEHONO@TERRAIN_TYPE_FOREST_SIDE_TOP_Z@
CONST	SEGMENT
??_C@_0BP@DHEHONO@TERRAIN_TYPE_FOREST_SIDE_TOP_Z@ DB 'TERRAIN_TYPE_FOREST'
	DB	'_SIDE_TOP_Z', 00H				; `string'
CONST	ENDS
;	COMDAT ??_C@_0BP@DBECBMFM@TERRAIN_TYPE_FOREST_SIDE_TOP_X@
CONST	SEGMENT
??_C@_0BP@DBECBMFM@TERRAIN_TYPE_FOREST_SIDE_TOP_X@ DB 'TERRAIN_TYPE_FORES'
	DB	'T_SIDE_TOP_X', 00H				; `string'
CONST	ENDS
;	COMDAT ??_C@_0BP@HHJGBIOF@TERRAIN_TYPE_FOREST_SIDE_MID_Z@
CONST	SEGMENT
??_C@_0BP@HHJGBIOF@TERRAIN_TYPE_FOREST_SIDE_MID_Z@ DB 'TERRAIN_TYPE_FORES'
	DB	'T_SIDE_MID_Z', 00H				; `string'
CONST	ENDS
;	COMDAT ??_C@_0BP@EFKAHKGH@TERRAIN_TYPE_FOREST_SIDE_MID_X@
CONST	SEGMENT
??_C@_0BP@EFKAHKGH@TERRAIN_TYPE_FOREST_SIDE_MID_X@ DB 'TERRAIN_TYPE_FORES'
	DB	'T_SIDE_MID_X', 00H				; `string'
CONST	ENDS
;	COMDAT ??_C@_0CC@MGFLFCAO@TERRAIN_TYPE_FOREST_SIDE_BOTTOM@
CONST	SEGMENT
??_C@_0CC@MGFLFCAO@TERRAIN_TYPE_FOREST_SIDE_BOTTOM@ DB 'TERRAIN_TYPE_FORE'
	DB	'ST_SIDE_BOTTOM_Z', 00H			; `string'
CONST	ENDS
;	COMDAT ??_C@_0CC@PEGNDAIM@TERRAIN_TYPE_FOREST_SIDE_BOTTOM@
CONST	SEGMENT
??_C@_0CC@PEGNDAIM@TERRAIN_TYPE_FOREST_SIDE_BOTTOM@ DB 'TERRAIN_TYPE_FORE'
	DB	'ST_SIDE_BOTTOM_X', 00H			; `string'
CONST	ENDS
;	COMDAT ??_C@_0BJ@EDPEDINH@TERRAIN_TYPE_WALL_SIDE_Z@
CONST	SEGMENT
??_C@_0BJ@EDPEDINH@TERRAIN_TYPE_WALL_SIDE_Z@ DB 'TERRAIN_TYPE_WALL_SIDE_Z'
	DB	00H						; `string'
CONST	ENDS
;	COMDAT ??_C@_0BJ@HBMCFKFF@TERRAIN_TYPE_WALL_SIDE_X@
CONST	SEGMENT
??_C@_0BJ@HBMCFKFF@TERRAIN_TYPE_WALL_SIDE_X@ DB 'TERRAIN_TYPE_WALL_SIDE_X'
	DB	00H						; `string'
CONST	ENDS
;	COMDAT ??_C@_0BK@JPIMAFON@TERRAIN_TYPE_HEDGE_SIDE_Z@
CONST	SEGMENT
??_C@_0BK@JPIMAFON@TERRAIN_TYPE_HEDGE_SIDE_Z@ DB 'TERRAIN_TYPE_HEDGE_SIDE'
	DB	'_Z', 00H					; `string'
CONST	ENDS
;	COMDAT ??_C@_0BK@KNLKGHGP@TERRAIN_TYPE_HEDGE_SIDE_X@
CONST	SEGMENT
??_C@_0BK@KNLKGHGP@TERRAIN_TYPE_HEDGE_SIDE_X@ DB 'TERRAIN_TYPE_HEDGE_SIDE'
	DB	'_X', 00H					; `string'
CONST	ENDS
;	COMDAT ??_C@_0BH@FNPHHABP@TERRAIN_TYPE_RAIL_BANK@
CONST	SEGMENT
??_C@_0BH@FNPHHABP@TERRAIN_TYPE_RAIL_BANK@ DB 'TERRAIN_TYPE_RAIL_BANK', 00H ; `string'
CONST	ENDS
;	COMDAT ??_C@_0BH@HFDPPOFP@TERRAIN_TYPE_ROAD_BANK@
CONST	SEGMENT
??_C@_0BH@HFDPPOFP@TERRAIN_TYPE_ROAD_BANK@ DB 'TERRAIN_TYPE_ROAD_BANK', 00H ; `string'
CONST	ENDS
;	COMDAT ??_C@_0BK@PCJPECFI@TERRAIN_TYPE_FOREST_FLOOR@
CONST	SEGMENT
??_C@_0BK@PCJPECFI@TERRAIN_TYPE_FOREST_FLOOR@ DB 'TERRAIN_TYPE_FOREST_FLO'
	DB	'OR', 00H					; `string'
CONST	ENDS
;	COMDAT ??_C@_0BL@DONKIPPA@TERRAIN_TYPE_ALTERED_LAND3@
CONST	SEGMENT
??_C@_0BL@DONKIPPA@TERRAIN_TYPE_ALTERED_LAND3@ DB 'TERRAIN_TYPE_ALTERED_L'
	DB	'AND3', 00H					; `string'
CONST	ENDS
;	COMDAT ??_C@_0BL@CHMBLOLB@TERRAIN_TYPE_ALTERED_LAND2@
CONST	SEGMENT
??_C@_0BL@CHMBLOLB@TERRAIN_TYPE_ALTERED_LAND2@ DB 'TERRAIN_TYPE_ALTERED_L'
	DB	'AND2', 00H					; `string'
CONST	ENDS
;	COMDAT ??_C@_0BL@MOMONHC@TERRAIN_TYPE_ALTERED_LAND1@
CONST	SEGMENT
??_C@_0BL@MOMONHC@TERRAIN_TYPE_ALTERED_LAND1@ DB 'TERRAIN_TYPE_ALTERED_LA'
	DB	'ND1', 00H					; `string'
CONST	ENDS
;	COMDAT ??_C@_0BF@HNBPNDG@TERRAIN_TYPE_FIELD11@
CONST	SEGMENT
??_C@_0BF@HNBPNDG@TERRAIN_TYPE_FIELD11@ DB 'TERRAIN_TYPE_FIELD11', 00H ; `string'
CONST	ENDS
;	COMDAT ??_C@_0BF@BOMKMMHH@TERRAIN_TYPE_FIELD10@
CONST	SEGMENT
??_C@_0BF@BOMKMMHH@TERRAIN_TYPE_FIELD10@ DB 'TERRAIN_TYPE_FIELD10', 00H ; `string'
CONST	ENDS
;	COMDAT ??_C@_0BE@CFDOKFDG@TERRAIN_TYPE_FIELD9@
CONST	SEGMENT
??_C@_0BE@CFDOKFDG@TERRAIN_TYPE_FIELD9@ DB 'TERRAIN_TYPE_FIELD9', 00H ; `string'
CONST	ENDS
;	COMDAT ??_C@_0BE@DMCFJEHH@TERRAIN_TYPE_FIELD8@
CONST	SEGMENT
??_C@_0BE@DMCFJEHH@TERRAIN_TYPE_FIELD8@ DB 'TERRAIN_TYPE_FIELD8', 00H ; `string'
CONST	ENDS
;	COMDAT ??_C@_0BE@LLLNIILI@TERRAIN_TYPE_FIELD7@
CONST	SEGMENT
??_C@_0BE@LLLNIILI@TERRAIN_TYPE_FIELD7@ DB 'TERRAIN_TYPE_FIELD7', 00H ; `string'
CONST	ENDS
;	COMDAT ??_C@_0BE@KCKGLJPJ@TERRAIN_TYPE_FIELD6@
CONST	SEGMENT
??_C@_0BE@KCKGLJPJ@TERRAIN_TYPE_FIELD6@ DB 'TERRAIN_TYPE_FIELD6', 00H ; `string'
CONST	ENDS
;	COMDAT ??_C@_0BE@IJILOKDK@TERRAIN_TYPE_FIELD5@
CONST	SEGMENT
??_C@_0BE@IJILOKDK@TERRAIN_TYPE_FIELD5@ DB 'TERRAIN_TYPE_FIELD5', 00H ; `string'
CONST	ENDS
;	COMDAT ??_C@_0BE@JAJANLHL@TERRAIN_TYPE_FIELD4@
CONST	SEGMENT
??_C@_0BE@JAJANLHL@TERRAIN_TYPE_FIELD4@ DB 'TERRAIN_TYPE_FIELD4', 00H ; `string'
CONST	ENDS
;	COMDAT ??_C@_0BE@NPNBENLM@TERRAIN_TYPE_FIELD3@
CONST	SEGMENT
??_C@_0BE@NPNBENLM@TERRAIN_TYPE_FIELD3@ DB 'TERRAIN_TYPE_FIELD3', 00H ; `string'
CONST	ENDS
;	COMDAT ??_C@_0BE@MGMKHMPN@TERRAIN_TYPE_FIELD2@
CONST	SEGMENT
??_C@_0BE@MGMKHMPN@TERRAIN_TYPE_FIELD2@ DB 'TERRAIN_TYPE_FIELD2', 00H ; `string'
CONST	ENDS
;	COMDAT ??_C@_0BE@ONOHCPDO@TERRAIN_TYPE_FIELD1@
CONST	SEGMENT
??_C@_0BE@ONOHCPDO@TERRAIN_TYPE_FIELD1@ DB 'TERRAIN_TYPE_FIELD1', 00H ; `string'
CONST	ENDS
;	COMDAT ??_C@_0BC@JDKPFICG@TERRAIN_TYPE_LAND@
CONST	SEGMENT
??_C@_0BC@JDKPFICG@TERRAIN_TYPE_LAND@ DB 'TERRAIN_TYPE_LAND', 00H ; `string'
CONST	ENDS
;	COMDAT ??_C@_0BD@HIJICOML@TERRAIN_TYPE_BEACH@
CONST	SEGMENT
??_C@_0BD@HIJICOML@TERRAIN_TYPE_BEACH@ DB 'TERRAIN_TYPE_BEACH', 00H ; `string'
CONST	ENDS
;	COMDAT ??_C@_0BB@FPPNMNNO@TERRAIN_TYPE_SEA@
CONST	SEGMENT
??_C@_0BB@FPPNMNNO@TERRAIN_TYPE_SEA@ DB 'TERRAIN_TYPE_SEA', 00H ; `string'
CONST	ENDS
;	COMDAT ??_C@_0BL@BCIEBOHJ@TERRAIN_TYPE_TRENCH_SIDE_Z@
CONST	SEGMENT
??_C@_0BL@BCIEBOHJ@TERRAIN_TYPE_TRENCH_SIDE_Z@ DB 'TERRAIN_TYPE_TRENCH_SI'
	DB	'DE_Z', 00H					; `string'
CONST	ENDS
;	COMDAT ??_C@_0BL@CALCHMPL@TERRAIN_TYPE_TRENCH_SIDE_X@
CONST	SEGMENT
??_C@_0BL@CALCHMPL@TERRAIN_TYPE_TRENCH_SIDE_X@ DB 'TERRAIN_TYPE_TRENCH_SI'
	DB	'DE_X', 00H					; `string'
CONST	ENDS
;	COMDAT ??_C@_0BI@CGKOGCNM@TERRAIN_TYPE_RIVER_BANK@
CONST	SEGMENT
??_C@_0BI@CGKOGCNM@TERRAIN_TYPE_RIVER_BANK@ DB 'TERRAIN_TYPE_RIVER_BANK', 00H ; `string'
CONST	ENDS
;	COMDAT ??_C@_0BE@CFAMEMDA@TERRAIN_TYPE_TRENCH@
CONST	SEGMENT
??_C@_0BE@CFAMEMDA@TERRAIN_TYPE_TRENCH@ DB 'TERRAIN_TYPE_TRENCH', 00H ; `string'
CONST	ENDS
;	COMDAT ??_C@_0BH@CPJGKDBB@TERRAIN_TYPE_RESERVOIR@
CONST	SEGMENT
??_C@_0BH@CPJGKDBB@TERRAIN_TYPE_RESERVOIR@ DB 'TERRAIN_TYPE_RESERVOIR', 00H ; `string'
CONST	ENDS
;	COMDAT ??_C@_0BD@MHNACIBO@TERRAIN_TYPE_RIVER@
CONST	SEGMENT
??_C@_0BD@MHNACIBO@TERRAIN_TYPE_RIVER@ DB 'TERRAIN_TYPE_RIVER', 00H ; `string'
CONST	ENDS
;	COMDAT ??_C@_0BF@KLJKPJCE@TERRAIN_TYPE_INVALID@
CONST	SEGMENT
??_C@_0BF@KLJKPJCE@TERRAIN_TYPE_INVALID@ DB 'TERRAIN_TYPE_INVALID', 00H ; `string'
CONST	ENDS
;	COMDAT ??_C@_0BC@GNMAAAJL@COLOUR_PASS_SWAMP@
CONST	SEGMENT
??_C@_0BC@GNMAAAJL@COLOUR_PASS_SWAMP@ DB 'COLOUR_PASS_SWAMP', 00H ; `string'
CONST	ENDS
;	COMDAT ??_C@_0BE@JFJMKOBJ@TERRAIN_YEMEN_LUNAR@
CONST	SEGMENT
??_C@_0BE@JFJMKOBJ@TERRAIN_YEMEN_LUNAR@ DB 'TERRAIN_YEMEN_LUNAR', 00H ; `string'
CONST	ENDS
;	COMDAT ??_C@_0BE@BGLJBDBC@TERRAIN_YEMEN_BAKED@
CONST	SEGMENT
??_C@_0BE@BGLJBDBC@TERRAIN_YEMEN_BAKED@ DB 'TERRAIN_YEMEN_BAKED', 00H ; `string'
CONST	ENDS
;	COMDAT ??_C@_0BE@KGIMOHE@TERRAIN_YEMEN_STONY@
CONST	SEGMENT
??_C@_0BE@KGIMOHE@TERRAIN_YEMEN_STONY@ DB 'TERRAIN_YEMEN_STONY', 00H ; `string'
CONST	ENDS
;	COMDAT ??_C@_0M@KJFMKHPL@YEMEN_CITY1@
CONST	SEGMENT
??_C@_0M@KJFMKHPL@YEMEN_CITY1@ DB 'YEMEN_CITY1', 00H	; `string'
CONST	ENDS
;	COMDAT ??_C@_0M@JLGKMFHJ@YEMEN_CITY3@
CONST	SEGMENT
??_C@_0M@JLGKMFHJ@YEMEN_CITY3@ DB 'YEMEN_CITY3', 00H	; `string'
CONST	ENDS
;	COMDAT ??_C@_0BJ@OILJFHJP@COLOUR_PASS_YEMEN_BAKED2@
CONST	SEGMENT
??_C@_0BJ@OILJFHJP@COLOUR_PASS_YEMEN_BAKED2@ DB 'COLOUR_PASS_YEMEN_BAKED2'
	DB	00H						; `string'
CONST	ENDS
;	COMDAT ??_C@_0BF@MBOPLBDO@TERRAIN_YEMEN_GRITTY@
CONST	SEGMENT
??_C@_0BF@MBOPLBDO@TERRAIN_YEMEN_GRITTY@ DB 'TERRAIN_YEMEN_GRITTY', 00H ; `string'
CONST	ENDS
;	COMDAT ??_C@_06OPNEJFKO@DESERT@
CONST	SEGMENT
??_C@_06OPNEJFKO@DESERT@ DB 'DESERT', 00H		; `string'
CONST	ENDS
;	COMDAT ??_C@_0BF@MCHGDFIO@TERRAIN_WALL_LEBANON@
CONST	SEGMENT
??_C@_0BF@MCHGDFIO@TERRAIN_WALL_LEBANON@ DB 'TERRAIN_WALL_LEBANON', 00H ; `string'
CONST	ENDS
;	COMDAT ??_C@_0BF@DGPHNMHH@TERRAIN_SNOW_LEBANON@
CONST	SEGMENT
??_C@_0BF@DGPHNMHH@TERRAIN_SNOW_LEBANON@ DB 'TERRAIN_SNOW_LEBANON', 00H ; `string'
CONST	ENDS
;	COMDAT ??_C@_0BK@BGKABACE@TERRAIN_BARE_ROCK_LEBANON@
CONST	SEGMENT
??_C@_0BK@BGKABACE@TERRAIN_BARE_ROCK_LEBANON@ DB 'TERRAIN_BARE_ROCK_LEBAN'
	DB	'ON', 00H					; `string'
CONST	ENDS
;	COMDAT ??_C@_0BK@LGOINMMJ@COLOUR_PASS_SCRUB_LEBANON@
CONST	SEGMENT
??_C@_0BK@LGOINMMJ@COLOUR_PASS_SCRUB_LEBANON@ DB 'COLOUR_PASS_SCRUB_LEBAN'
	DB	'ON', 00H					; `string'
CONST	ENDS
;	COMDAT ??_C@_0BJ@LBCKHBIJ@COLOUR_PASS_ROCK_LEBANON@
CONST	SEGMENT
??_C@_0BJ@LBCKHBIJ@COLOUR_PASS_ROCK_LEBANON@ DB 'COLOUR_PASS_ROCK_LEBANON'
	DB	00H						; `string'
CONST	ENDS
;	COMDAT ??_C@_0BE@MBAMAPGA@BW_LEBANON_V2_CITY4@
CONST	SEGMENT
??_C@_0BE@MBAMAPGA@BW_LEBANON_V2_CITY4@ DB 'BW_LEBANON_V2_CITY4', 00H ; `string'
CONST	ENDS
;	COMDAT ??_C@_0BE@IOENJJKH@BW_LEBANON_V2_CITY3@
CONST	SEGMENT
??_C@_0BE@IOENJJKH@BW_LEBANON_V2_CITY3@ DB 'BW_LEBANON_V2_CITY3', 00H ; `string'
CONST	ENDS
;	COMDAT ??_C@_0BE@JHFGKIOG@BW_LEBANON_V2_CITY2@
CONST	SEGMENT
??_C@_0BE@JHFGKIOG@BW_LEBANON_V2_CITY2@ DB 'BW_LEBANON_V2_CITY2', 00H ; `string'
CONST	ENDS
;	COMDAT ??_C@_0BE@LMHLPLCF@BW_LEBANON_V2_CITY1@
CONST	SEGMENT
??_C@_0BE@LMHLPLCF@BW_LEBANON_V2_CITY1@ DB 'BW_LEBANON_V2_CITY1', 00H ; `string'
CONST	ENDS
;	COMDAT ??_C@_0BE@OOFFLPGN@CP_LEBANON_V2_CITY4@
CONST	SEGMENT
??_C@_0BE@OOFFLPGN@CP_LEBANON_V2_CITY4@ DB 'CP_LEBANON_V2_CITY4', 00H ; `string'
CONST	ENDS
;	COMDAT ??_C@_0BE@KBBECJKK@CP_LEBANON_V2_CITY3@
CONST	SEGMENT
??_C@_0BE@KBBECJKK@CP_LEBANON_V2_CITY3@ DB 'CP_LEBANON_V2_CITY3', 00H ; `string'
CONST	ENDS
;	COMDAT ??_C@_0BE@LIAPBIOL@CP_LEBANON_V2_CITY2@
CONST	SEGMENT
??_C@_0BE@LIAPBIOL@CP_LEBANON_V2_CITY2@ DB 'CP_LEBANON_V2_CITY2', 00H ; `string'
CONST	ENDS
;	COMDAT ??_C@_0BE@JDCCELCI@CP_LEBANON_V2_CITY1@
CONST	SEGMENT
??_C@_0BE@JDCCELCI@CP_LEBANON_V2_CITY1@ DB 'CP_LEBANON_V2_CITY1', 00H ; `string'
CONST	ENDS
;	COMDAT ??_C@_0BL@LIHLPOJG@COLOUR_PASS_FOREST_LEBANON@
CONST	SEGMENT
??_C@_0BL@LIHLPOJG@COLOUR_PASS_FOREST_LEBANON@ DB 'COLOUR_PASS_FOREST_LEB'
	DB	'ANON', 00H					; `string'
CONST	ENDS
;	COMDAT ??_C@_0BM@NCJBOGKD@TERRAIN_TREE_CANOPY_LEBANON@
CONST	SEGMENT
??_C@_0BM@NCJBOGKD@TERRAIN_TREE_CANOPY_LEBANON@ DB 'TERRAIN_TREE_CANOPY_L'
	DB	'EBANON', 00H				; `string'
CONST	ENDS
;	COMDAT ??_C@_0BH@IMANJLMO@TERRAIN_DETAIL_LEBANON@
CONST	SEGMENT
??_C@_0BH@IMANJLMO@TERRAIN_DETAIL_LEBANON@ DB 'TERRAIN_DETAIL_LEBANON', 00H ; `string'
CONST	ENDS
;	COMDAT ??_C@_0BE@CBPBIHAE@COLOUR_PASS_LEBANON@
CONST	SEGMENT
??_C@_0BE@CBPBIHAE@COLOUR_PASS_LEBANON@ DB 'COLOUR_PASS_LEBANON', 00H ; `string'
CONST	ENDS
;	COMDAT ??_C@_0BI@EBJMGEFE@COLOUR_PASS_SEA_LEBANON@
CONST	SEGMENT
??_C@_0BI@EBJMGEFE@COLOUR_PASS_SEA_LEBANON@ DB 'COLOUR_PASS_SEA_LEBANON', 00H ; `string'
CONST	ENDS
;	COMDAT ??_C@_0BC@PIKBNFNJ@TERRAIN_GRG_CITY1@
CONST	SEGMENT
??_C@_0BC@PIKBNFNJ@TERRAIN_GRG_CITY1@ DB 'TERRAIN_GRG_CITY1', 00H ; `string'
CONST	ENDS
;	COMDAT ??_C@_0BC@NDIMIGBK@TERRAIN_GRG_CITY2@
CONST	SEGMENT
??_C@_0BC@NDIMIGBK@TERRAIN_GRG_CITY2@ DB 'TERRAIN_GRG_CITY2', 00H ; `string'
CONST	ENDS
;	COMDAT ??_C@_0BC@MKJHLHFL@TERRAIN_GRG_CITY3@
CONST	SEGMENT
??_C@_0BC@MKJHLHFL@TERRAIN_GRG_CITY3@ DB 'TERRAIN_GRG_CITY3', 00H ; `string'
CONST	ENDS
;	COMDAT ??_C@_0BC@IFNGCBJM@TERRAIN_GRG_CITY4@
CONST	SEGMENT
??_C@_0BC@IFNGCBJM@TERRAIN_GRG_CITY4@ DB 'TERRAIN_GRG_CITY4', 00H ; `string'
CONST	ENDS
;	COMDAT ??_C@_0BE@HJIDJHBJ@COLOUR_PASS_GRG_SEA@
CONST	SEGMENT
??_C@_0BE@HJIDJHBJ@COLOUR_PASS_GRG_SEA@ DB 'COLOUR_PASS_GRG_SEA', 00H ; `string'
CONST	ENDS
;	COMDAT ??_C@_0BB@OBCNOOCF@COLOUR_PASS_SNOW@
CONST	SEGMENT
??_C@_0BB@OBCNOOCF@COLOUR_PASS_SNOW@ DB 'COLOUR_PASS_SNOW', 00H ; `string'
CONST	ENDS
;	COMDAT ??_C@_0N@JANIPHBF@TERRAIN_SNOW@
CONST	SEGMENT
??_C@_0N@JANIPHBF@TERRAIN_SNOW@ DB 'TERRAIN_SNOW', 00H	; `string'
CONST	ENDS
;	COMDAT ??_C@_0BD@BMPINLKM@TERRAIN_BARE_ROCK2@
CONST	SEGMENT
??_C@_0BD@BMPINLKM@TERRAIN_BARE_ROCK2@ DB 'TERRAIN_BARE_ROCK2', 00H ; `string'
CONST	ENDS
;	COMDAT ??_C@_0BG@IGFCFCHF@COLOUR_PASS_MOUNTAINS@
CONST	SEGMENT
??_C@_0BG@IGFCFCHF@COLOUR_PASS_MOUNTAINS@ DB 'COLOUR_PASS_MOUNTAINS', 00H ; `string'
CONST	ENDS
;	COMDAT ??_C@_0O@PGGFIOAG@TERRAIN_SCRUB@
CONST	SEGMENT
??_C@_0O@PGGFIOAG@TERRAIN_SCRUB@ DB 'TERRAIN_SCRUB', 00H ; `string'
CONST	ENDS
;	COMDAT ??_C@_0O@KOAPGDHE@TERRAIN_RIVER@
CONST	SEGMENT
??_C@_0O@KOAPGDHE@TERRAIN_RIVER@ DB 'TERRAIN_RIVER', 00H ; `string'
CONST	ENDS
;	COMDAT ??_C@_0BD@HAICHOLH@TERRAIN_THAI_TRACK@
CONST	SEGMENT
??_C@_0BD@HAICHOLH@TERRAIN_THAI_TRACK@ DB 'TERRAIN_THAI_TRACK', 00H ; `string'
CONST	ENDS
;	COMDAT ??_C@_0BD@GFDCAGBA@TERRAIN_CUBA_CITY1@
CONST	SEGMENT
??_C@_0BD@GFDCAGBA@TERRAIN_CUBA_CITY1@ DB 'TERRAIN_CUBA_CITY1', 00H ; `string'
CONST	ENDS
;	COMDAT ??_C@_0BD@EOBPFFND@TERRAIN_CUBA_CITY2@
CONST	SEGMENT
??_C@_0BD@EOBPFFND@TERRAIN_CUBA_CITY2@ DB 'TERRAIN_CUBA_CITY2', 00H ; `string'
CONST	ENDS
;	COMDAT ??_C@_0BD@FHAEGEJC@TERRAIN_CUBA_CITY3@
CONST	SEGMENT
??_C@_0BD@FHAEGEJC@TERRAIN_CUBA_CITY3@ DB 'TERRAIN_CUBA_CITY3', 00H ; `string'
CONST	ENDS
;	COMDAT ??_C@_0BD@BIEFPCFF@TERRAIN_CUBA_CITY4@
CONST	SEGMENT
??_C@_0BD@BIEFPCFF@TERRAIN_CUBA_CITY4@ DB 'TERRAIN_CUBA_CITY4', 00H ; `string'
CONST	ENDS
;	COMDAT ??_C@_0BD@MIKAIJBD@ENVIRO_YEMEN_SMALL@
CONST	SEGMENT
??_C@_0BD@MIKAIJBD@ENVIRO_YEMEN_SMALL@ DB 'ENVIRO_YEMEN_SMALL', 00H ; `string'
CONST	ENDS
;	COMDAT ??_C@_07MGCPDNLD@DEFAULT@
CONST	SEGMENT
??_C@_07MGCPDNLD@DEFAULT@ DB 'DEFAULT', 00H		; `string'
CONST	ENDS
;	COMDAT ??_C@_0BB@ILJMAEMJ@COLOUR_PASS_ROCK@
CONST	SEGMENT
??_C@_0BB@ILJMAEMJ@COLOUR_PASS_ROCK@ DB 'COLOUR_PASS_ROCK', 00H ; `string'
CONST	ENDS
;	COMDAT ??_C@_0BB@NLCHJFOM@TERRAIN_HIGHLAND@
CONST	SEGMENT
??_C@_0BB@NLCHJFOM@TERRAIN_HIGHLAND@ DB 'TERRAIN_HIGHLAND', 00H ; `string'
CONST	ENDS
;	COMDAT ??_C@_0P@DBONDBHL@TERRAIN_SWAMP2@
CONST	SEGMENT
??_C@_0P@DBONDBHL@TERRAIN_SWAMP2@ DB 'TERRAIN_SWAMP2', 00H ; `string'
CONST	ENDS
;	COMDAT ??_C@_0P@BKMAGCLI@TERRAIN_SWAMP1@
CONST	SEGMENT
??_C@_0P@BKMAGCLI@TERRAIN_SWAMP1@ DB 'TERRAIN_SWAMP1', 00H ; `string'
CONST	ENDS
;	COMDAT ??_C@_0BH@BEINOGAP@TERRAIN_DARKGREENFIELD@
CONST	SEGMENT
??_C@_0BH@BEINOGAP@TERRAIN_DARKGREENFIELD@ DB 'TERRAIN_DARKGREENFIELD', 00H ; `string'
CONST	ENDS
;	COMDAT ??_C@_0BI@KPJCKJLC@TERRAIN_LIGHTGREENFIELD@
CONST	SEGMENT
??_C@_0BI@KPJCKJLC@TERRAIN_LIGHTGREENFIELD@ DB 'TERRAIN_LIGHTGREENFIELD', 00H ; `string'
CONST	ENDS
;	COMDAT ??_C@_0BD@DPOGMPFD@TERRAIN_WHEATFIELD@
CONST	SEGMENT
??_C@_0BD@DPOGMPFD@TERRAIN_WHEATFIELD@ DB 'TERRAIN_WHEATFIELD', 00H ; `string'
CONST	ENDS
;	COMDAT ??_C@_0BC@KJPKDFNB@TERRAIN_CORNFIELD@
CONST	SEGMENT
??_C@_0BC@KJPKDFNB@TERRAIN_CORNFIELD@ DB 'TERRAIN_CORNFIELD', 00H ; `string'
CONST	ENDS
;	COMDAT ??_C@_0BH@KMIFDPNO@TERRAIN_PLOUGHED2FIELD@
CONST	SEGMENT
??_C@_0BH@KMIFDPNO@TERRAIN_PLOUGHED2FIELD@ DB 'TERRAIN_PLOUGHED2FIELD', 00H ; `string'
CONST	ENDS
;	COMDAT ??_C@_0BH@JNGNCFED@TERRAIN_PLOUGHED1FIELD@
CONST	SEGMENT
??_C@_0BH@JNGNCFED@TERRAIN_PLOUGHED1FIELD@ DB 'TERRAIN_PLOUGHED1FIELD', 00H ; `string'
CONST	ENDS
;	COMDAT ??_C@_0BF@GFEKLLKL@TERRAIN_MUSTARDFIELD@
CONST	SEGMENT
??_C@_0BF@GFEKLLKL@TERRAIN_MUSTARDFIELD@ DB 'TERRAIN_MUSTARDFIELD', 00H ; `string'
CONST	ENDS
;	COMDAT ??_C@_0BH@LCADFALJ@TERRAIN_THAILAND_RIVER@
CONST	SEGMENT
??_C@_0BH@LCADFALJ@TERRAIN_THAILAND_RIVER@ DB 'TERRAIN_THAILAND_RIVER', 00H ; `string'
CONST	ENDS
;	COMDAT ??_C@_0BI@HCKGLJHJ@TERRAIN_THAI_DIRT_TRACK@
CONST	SEGMENT
??_C@_0BI@HCKGLJHJ@TERRAIN_THAI_DIRT_TRACK@ DB 'TERRAIN_THAI_DIRT_TRACK', 00H ; `string'
CONST	ENDS
;	COMDAT ??_C@_0BB@OHLOCNHA@COLOUR_PASS_WALL@
CONST	SEGMENT
??_C@_0BB@OHLOCNHA@COLOUR_PASS_WALL@ DB 'COLOUR_PASS_WALL', 00H ; `string'
CONST	ENDS
;	COMDAT ??_C@_0BE@EOMJEIPI@TERRAIN_DETAIL_ROAD@
CONST	SEGMENT
??_C@_0BE@EOMJEIPI@TERRAIN_DETAIL_ROAD@ DB 'TERRAIN_DETAIL_ROAD', 00H ; `string'
CONST	ENDS
;	COMDAT ??_C@_0BB@PNMIAOJK@TERRAIN_BW_CITY1@
CONST	SEGMENT
??_C@_0BB@PNMIAOJK@TERRAIN_BW_CITY1@ DB 'TERRAIN_BW_CITY1', 00H ; `string'
CONST	ENDS
;	COMDAT ??_C@_0BB@NGOFFNFJ@TERRAIN_BW_CITY2@
CONST	SEGMENT
??_C@_0BB@NGOFFNFJ@TERRAIN_BW_CITY2@ DB 'TERRAIN_BW_CITY2', 00H ; `string'
CONST	ENDS
;	COMDAT ??_C@_0BB@MPPOGMBI@TERRAIN_BW_CITY3@
CONST	SEGMENT
??_C@_0BB@MPPOGMBI@TERRAIN_BW_CITY3@ DB 'TERRAIN_BW_CITY3', 00H ; `string'
CONST	ENDS
;	COMDAT ??_C@_0BB@IALPPKNP@TERRAIN_BW_CITY4@
CONST	SEGMENT
??_C@_0BB@IALPPKNP@TERRAIN_BW_CITY4@ DB 'TERRAIN_BW_CITY4', 00H ; `string'
CONST	ENDS
;	COMDAT ??_C@_0BD@NKMHPKHA@TERRAIN_THAI_CITY1@
CONST	SEGMENT
??_C@_0BD@NKMHPKHA@TERRAIN_THAI_CITY1@ DB 'TERRAIN_THAI_CITY1', 00H ; `string'
CONST	ENDS
;	COMDAT ??_C@_0BD@PBOKKJLD@TERRAIN_THAI_CITY2@
CONST	SEGMENT
??_C@_0BD@PBOKKJLD@TERRAIN_THAI_CITY2@ DB 'TERRAIN_THAI_CITY2', 00H ; `string'
CONST	ENDS
;	COMDAT ??_C@_0BD@OIPBJIPC@TERRAIN_THAI_CITY3@
CONST	SEGMENT
??_C@_0BD@OIPBJIPC@TERRAIN_THAI_CITY3@ DB 'TERRAIN_THAI_CITY3', 00H ; `string'
CONST	ENDS
;	COMDAT ??_C@_0BD@KHLAAODF@TERRAIN_THAI_CITY4@
CONST	SEGMENT
??_C@_0BD@KHLAAODF@TERRAIN_THAI_CITY4@ DB 'TERRAIN_THAI_CITY4', 00H ; `string'
CONST	ENDS
;	COMDAT ??_C@_0BG@EOMIBGLD@TERRAIN_TREE_CANOPY_1@
CONST	SEGMENT
??_C@_0BG@EOMIBGLD@TERRAIN_TREE_CANOPY_1@ DB 'TERRAIN_TREE_CANOPY_1', 00H ; `string'
CONST	ENDS
;	COMDAT ??_C@_0P@EOGCBCMK@CH_TERRAIN_CP1@
CONST	SEGMENT
??_C@_0P@EOGCBCMK@CH_TERRAIN_CP1@ DB 'CH_TERRAIN_CP1', 00H ; `string'
CONST	ENDS
;	COMDAT ??_C@_0BB@BDNEEDDA@TERRAIN_DETAIL_4@
CONST	SEGMENT
??_C@_0BB@BDNEEDDA@TERRAIN_DETAIL_4@ DB 'TERRAIN_DETAIL_4', 00H ; `string'
CONST	ENDS
;	COMDAT ??_C@_0M@LDEJELLC@COLOUR_PASS@
CONST	SEGMENT
??_C@_0M@LDEJELLC@COLOUR_PASS@ DB 'COLOUR_PASS', 00H	; `string'
CONST	ENDS
;	COMDAT ??_C@_0O@BBEHGFKB@TERRAIN_BEACH@
CONST	SEGMENT
??_C@_0O@BBEHGFKB@TERRAIN_BEACH@ DB 'TERRAIN_BEACH', 00H ; `string'
CONST	ENDS
;	COMDAT ??_C@_0BA@EEKPDLHD@COLOUR_PASS_SEA@
CONST	SEGMENT
??_C@_0BA@EEKPDLHD@COLOUR_PASS_SEA@ DB 'COLOUR_PASS_SEA', 00H ; `string'
CONST	ENDS
;	COMDAT ??_C@_0O@DCAMCMDE@TERRAIN_SEA_1@
CONST	SEGMENT
??_C@_0O@DCAMCMDE@TERRAIN_SEA_1@ DB 'TERRAIN_SEA_1', 00H ; `string'
?terrain_dual_pass_rendering_enabled@@3HA DD 01H	; terrain_dual_pass_rendering_enabled
?terrain_type_names@@3PAUTERRAIN_TYPE_NAME@@A DD 00H	; terrain_type_names
	DD	FLAT:??_C@_0BF@KLJKPJCE@TERRAIN_TYPE_INVALID@
	DD	01H
	DD	FLAT:??_C@_0BD@MHNACIBO@TERRAIN_TYPE_RIVER@
	DD	02H
	DD	FLAT:??_C@_0BH@CPJGKDBB@TERRAIN_TYPE_RESERVOIR@
	DD	03H
	DD	FLAT:??_C@_0BE@CFAMEMDA@TERRAIN_TYPE_TRENCH@
	DD	04H
	DD	FLAT:??_C@_0BI@CGKOGCNM@TERRAIN_TYPE_RIVER_BANK@
	DD	05H
	DD	FLAT:??_C@_0BL@CALCHMPL@TERRAIN_TYPE_TRENCH_SIDE_X@
	DD	06H
	DD	FLAT:??_C@_0BL@BCIEBOHJ@TERRAIN_TYPE_TRENCH_SIDE_Z@
	DD	07H
	DD	FLAT:??_C@_0BB@FPPNMNNO@TERRAIN_TYPE_SEA@
	DD	08H
	DD	FLAT:??_C@_0BD@HIJICOML@TERRAIN_TYPE_BEACH@
	DD	09H
	DD	FLAT:??_C@_0BC@JDKPFICG@TERRAIN_TYPE_LAND@
	DD	0aH
	DD	FLAT:??_C@_0BE@ONOHCPDO@TERRAIN_TYPE_FIELD1@
	DD	0bH
	DD	FLAT:??_C@_0BE@MGMKHMPN@TERRAIN_TYPE_FIELD2@
	DD	0cH
	DD	FLAT:??_C@_0BE@NPNBENLM@TERRAIN_TYPE_FIELD3@
	DD	0dH
	DD	FLAT:??_C@_0BE@JAJANLHL@TERRAIN_TYPE_FIELD4@
	DD	0eH
	DD	FLAT:??_C@_0BE@IJILOKDK@TERRAIN_TYPE_FIELD5@
	DD	0fH
	DD	FLAT:??_C@_0BE@KCKGLJPJ@TERRAIN_TYPE_FIELD6@
	DD	010H
	DD	FLAT:??_C@_0BE@LLLNIILI@TERRAIN_TYPE_FIELD7@
	DD	011H
	DD	FLAT:??_C@_0BE@DMCFJEHH@TERRAIN_TYPE_FIELD8@
	DD	012H
	DD	FLAT:??_C@_0BE@CFDOKFDG@TERRAIN_TYPE_FIELD9@
	DD	013H
	DD	FLAT:??_C@_0BF@BOMKMMHH@TERRAIN_TYPE_FIELD10@
	DD	014H
	DD	FLAT:??_C@_0BF@HNBPNDG@TERRAIN_TYPE_FIELD11@
	DD	015H
	DD	FLAT:??_C@_0BL@MOMONHC@TERRAIN_TYPE_ALTERED_LAND1@
	DD	016H
	DD	FLAT:??_C@_0BL@CHMBLOLB@TERRAIN_TYPE_ALTERED_LAND2@
	DD	017H
	DD	FLAT:??_C@_0BL@DONKIPPA@TERRAIN_TYPE_ALTERED_LAND3@
	DD	018H
	DD	FLAT:??_C@_0BK@PCJPECFI@TERRAIN_TYPE_FOREST_FLOOR@
	DD	019H
	DD	FLAT:??_C@_0BH@HFDPPOFP@TERRAIN_TYPE_ROAD_BANK@
	DD	01aH
	DD	FLAT:??_C@_0BH@FNPHHABP@TERRAIN_TYPE_RAIL_BANK@
	DD	01bH
	DD	FLAT:??_C@_0BK@KNLKGHGP@TERRAIN_TYPE_HEDGE_SIDE_X@
	DD	01cH
	DD	FLAT:??_C@_0BK@JPIMAFON@TERRAIN_TYPE_HEDGE_SIDE_Z@
	DD	01dH
	DD	FLAT:??_C@_0BJ@HBMCFKFF@TERRAIN_TYPE_WALL_SIDE_X@
	DD	01eH
	DD	FLAT:??_C@_0BJ@EDPEDINH@TERRAIN_TYPE_WALL_SIDE_Z@
	DD	01fH
	DD	FLAT:??_C@_0CC@PEGNDAIM@TERRAIN_TYPE_FOREST_SIDE_BOTTOM@
	DD	020H
	DD	FLAT:??_C@_0CC@MGFLFCAO@TERRAIN_TYPE_FOREST_SIDE_BOTTOM@
	DD	021H
	DD	FLAT:??_C@_0BP@EFKAHKGH@TERRAIN_TYPE_FOREST_SIDE_MID_X@
	DD	022H
	DD	FLAT:??_C@_0BP@HHJGBIOF@TERRAIN_TYPE_FOREST_SIDE_MID_Z@
	DD	023H
	DD	FLAT:??_C@_0BP@DBECBMFM@TERRAIN_TYPE_FOREST_SIDE_TOP_X@
	DD	024H
	DD	FLAT:??_C@_0BP@DHEHONO@TERRAIN_TYPE_FOREST_SIDE_TOP_Z@
	DD	025H
	DD	FLAT:??_C@_0BM@GKIIMCDG@TERRAIN_TYPE_BUILT_UP_AREA1@
	DD	026H
	DD	FLAT:??_C@_0BM@EBKFJBPF@TERRAIN_TYPE_BUILT_UP_AREA2@
	DD	027H
	DD	FLAT:??_C@_0BM@FILOKALE@TERRAIN_TYPE_BUILT_UP_AREA3@
	DD	028H
	DD	FLAT:??_C@_0BM@BHPPDGHD@TERRAIN_TYPE_BUILT_UP_AREA4@
	DD	029H
	DD	FLAT:??_C@_0BC@KHPMEBML@TERRAIN_TYPE_ROAD@
	DD	02aH
	DD	FLAT:??_C@_0BD@FEPKNHBM@TERRAIN_TYPE_TRACK@
	DD	02bH
	DD	FLAT:??_C@_0BC@IBOJONEI@TERRAIN_TYPE_RAIL@
	DD	02cH
	DD	FLAT:??_C@_0BG@MNGHPFJM@TERRAIN_TYPE_WALL_TOP@
	DD	02dH
	DD	FLAT:??_C@_0BH@FMJLAFNH@TERRAIN_TYPE_HEDGE_TOP@
	DD	02eH
	DD	FLAT:??_C@_0BI@PDIAFKJK@TERRAIN_TYPE_FOREST_TOP@
	DD	02fH
	DD	FLAT:??_C@_0BJ@JMINDAAA@TEMP_TERRAIN_TYPE_FRINGE@
	DD	030H
	DD	FLAT:??_C@_0BN@OFDKHGHN@TEMP_TERRAIN_TYPE_POWER_LINE@
	DD	031H
	DD	FLAT:??_C@_0CB@LFGMNIFC@TEMP_TERRAIN_TYPE_TELEPHONE_LIN@
	DD	032H
	DD	FLAT:??_C@_0BL@GDJOCCFH@TEMP_TERRAIN_TYPE_SEA_BANK@
	DD	033H
	DD	FLAT:??_C@_0CA@JALJOMDF@TEMP_TERRAIN_TYPE_COASTAL_RIVER@
	DD	034H
	DD	FLAT:??_C@_0BM@GGBBLNBN@TEMP_TERRAIN_TYPE_BEACH_MID@
	DD	035H
	DD	FLAT:??_C@_0CG@EJFONOKM@TEMP_TERRAIN_TYPE_STEPPED_RIVER@
	DD	036H
	DD	FLAT:??_C@_0CG@BPAEHJCK@TEMP_TERRAIN_TYPE_STEPPED_RIVER@
	DD	037H
	DD	FLAT:??_C@_0CG@CNDCBLKI@TEMP_TERRAIN_TYPE_STEPPED_RIVER@
	DD	038H
	DD	FLAT:??_C@_0BH@IIDMCDBA@TEMP_TERRAIN_TYPE_LAKE@
	DD	039H
	DD	FLAT:??_C@_0CA@CALDPDJD@TEMP_TERRAIN_TYPE_FOREST_SIDE_X@
	DD	03aH
	DD	FLAT:??_C@_0CA@BCIFJBBB@TEMP_TERRAIN_TYPE_FOREST_SIDE_Z@
	DD	03bH
	DD	FLAT:??_C@_0BK@IOKMOMKC@TEMP_TERRAIN_TYPE_OFFROAD@
	DD	03cH
	DD	FLAT:??_C@_0CF@MDCLHAEG@TEMP_TERRAIN_TYPE_POLITICAL_BOU@
	DD	03dH
	DD	FLAT:??_C@_0CF@IBMDLBFC@TEMP_TERRAIN_TYPE_BUILT_UP_AREA@
	DD	03eH
	DD	FLAT:??_C@_0BC@MNJDHKFE@TERRAIN_TYPE_LAST@
PUBLIC	?texture_gamma_correction@@YGMH@Z		; texture_gamma_correction
PUBLIC	?set_terrain_type_textures@@YGXHHHMMMMMHHHW4SURFACE_TYPES@@@Z ; set_terrain_type_textures
PUBLIC	?get_3d_terrain_dual_pass_rendering@@YGHXZ	; get_3d_terrain_dual_pass_rendering
PUBLIC	?set_3d_terrain_dual_pass_rendering@@YGXH@Z	; set_3d_terrain_dual_pass_rendering
PUBLIC	?initialise_3d_terrain_rendering_routines@@YGXH@Z ; initialise_3d_terrain_rendering_routines
PUBLIC	?initialise_3d_terrain_map_specific_texture_indices@@YGXXZ ; initialise_3d_terrain_map_specific_texture_indices
PUBLIC	?initialise_3d_terrain_types@@YGXXZ		; initialise_3d_terrain_types
PUBLIC	?get_terrain_surface_type@@YGHH@Z		; get_terrain_surface_type
PUBLIC	?initialise_noisemaps@@YGXXZ			; initialise_noisemaps
?terrain_texture_road_bank_detail@@3HA DD 01H DUP (?)	; terrain_texture_road_bank_detail
?terrain_texture_builtup_area4_colour_pass@@3HA DD 01H DUP (?) ; terrain_texture_builtup_area4_colour_pass
?terrain_texture_river_bank_colour_pass@@3HA DD 01H DUP (?) ; terrain_texture_river_bank_colour_pass
?terrain_texture_hedge_detail@@3HA DD 01H DUP (?)	; terrain_texture_hedge_detail
?terrain_texture_builtup_area3_infrared_colour_pass@@3HA DD 01H DUP (?) ; terrain_texture_builtup_area3_infrared_colour_pass
?terrain_surface_sea@@3W4SURFACE_TYPES@@A DD 01H DUP (?) ; terrain_surface_sea
?terrain_texture_trench_colour_pass@@3HA DD 01H DUP (?)	; terrain_texture_trench_colour_pass
?terrain_texture_field1_colour_pass@@3HA DD 01H DUP (?)	; terrain_texture_field1_colour_pass
?terrain_texture_field5_colour_pass@@3HA DD 01H DUP (?)	; terrain_texture_field5_colour_pass
?terrain_texture_field5_detail@@3HA DD 01H DUP (?)	; terrain_texture_field5_detail
?terrain_surface_builtup_area2@@3W4SURFACE_TYPES@@A DD 01H DUP (?) ; terrain_surface_builtup_area2
?terrain_texture_field10_detail@@3HA DD 01H DUP (?)	; terrain_texture_field10_detail
?terrain_surface_field3@@3W4SURFACE_TYPES@@A DD 01H DUP (?) ; terrain_surface_field3
?terrain_texture_builtup_area3_colour_pass@@3HA DD 01H DUP (?) ; terrain_texture_builtup_area3_colour_pass
?terrain_surface_field4@@3W4SURFACE_TYPES@@A DD 01H DUP (?) ; terrain_surface_field4
?terrain_surface_field5@@3W4SURFACE_TYPES@@A DD 01H DUP (?) ; terrain_surface_field5
?terrain_surface_track@@3W4SURFACE_TYPES@@A DD 01H DUP (?) ; terrain_surface_track
?terrain_texture_field1_detail@@3HA DD 01H DUP (?)	; terrain_texture_field1_detail
?terrain_texture_builtup_area3_infrared_detail@@3HA DD 01H DUP (?) ; terrain_texture_builtup_area3_infrared_detail
?terrain_texture_wall_detail@@3HA DD 01H DUP (?)	; terrain_texture_wall_detail
?terrain_texture_forest_bottom_detail@@3HA DD 01H DUP (?) ; terrain_texture_forest_bottom_detail
?terrain_texture_wall_colour_pass@@3HA DD 01H DUP (?)	; terrain_texture_wall_colour_pass
?terrain_texture_field10_colour_pass@@3HA DD 01H DUP (?) ; terrain_texture_field10_colour_pass
?terrain_texture_altered_land3_detail@@3HA DD 01H DUP (?) ; terrain_texture_altered_land3_detail
?terrain_texture_field8_detail@@3HA DD 01H DUP (?)	; terrain_texture_field8_detail
?terrain_texture_field7_colour_pass@@3HA DD 01H DUP (?)	; terrain_texture_field7_colour_pass
?terrain_surface_field10@@3W4SURFACE_TYPES@@A DD 01H DUP (?) ; terrain_surface_field10
?terrain_surface_altered_land1@@3W4SURFACE_TYPES@@A DD 01H DUP (?) ; terrain_surface_altered_land1
?terrain_texture_builtup_area3_detail@@3HA DD 01H DUP (?) ; terrain_texture_builtup_area3_detail
?textures_with_noisemap@@3PAU<unnamed-type-textures_with_noisemap>@@A DQ 040H DUP (?) ; textures_with_noisemap
?terrain_surface_altered_land3@@3W4SURFACE_TYPES@@A DD 01H DUP (?) ; terrain_surface_altered_land3
?terrain_texture_field6_colour_pass@@3HA DD 01H DUP (?)	; terrain_texture_field6_colour_pass
?terrain_texture_altered_land1_colour_pass@@3HA DD 01H DUP (?) ; terrain_texture_altered_land1_colour_pass
?terrain_surface_field2@@3W4SURFACE_TYPES@@A DD 01H DUP (?) ; terrain_surface_field2
?terrain_surface_builtup_area1_infrared@@3W4SURFACE_TYPES@@A DD 01H DUP (?) ; terrain_surface_builtup_area1_infrared
?terrain_texture_river_colour_pass@@3HA DD 01H DUP (?)	; terrain_texture_river_colour_pass
?terrain_texture_road_colour_pass@@3HA DD 01H DUP (?)	; terrain_texture_road_colour_pass
?terrain_texture_field3_detail@@3HA DD 01H DUP (?)	; terrain_texture_field3_detail
?terrain_texture_builtup_area1_colour_pass@@3HA DD 01H DUP (?) ; terrain_texture_builtup_area1_colour_pass
?terrain_texture_field4_detail@@3HA DD 01H DUP (?)	; terrain_texture_field4_detail
?terrain_texture_builtup_area1_infrared_detail@@3HA DD 01H DUP (?) ; terrain_texture_builtup_area1_infrared_detail
?terrain_texture_altered_land2_detail@@3HA DD 01H DUP (?) ; terrain_texture_altered_land2_detail
?terrain_texture_field7_detail@@3HA DD 01H DUP (?)	; terrain_texture_field7_detail
?terrain_texture_forest_bottom_colour_pass@@3HA DD 01H DUP (?) ; terrain_texture_forest_bottom_colour_pass
?terrain_texture_track_detail@@3HA DD 01H DUP (?)	; terrain_texture_track_detail
?terrain_texture_forest_middle_detail@@3HA DD 01H DUP (?) ; terrain_texture_forest_middle_detail
?terrain_texture_rail_bank_detail@@3HA DD 01H DUP (?)	; terrain_texture_rail_bank_detail
?change_river_texture@@3HA DD 01H DUP (?)		; change_river_texture
?terrain_surface_trench@@3W4SURFACE_TYPES@@A DD 01H DUP (?) ; terrain_surface_trench
?terrain_texture_altered_land2_colour_pass@@3HA DD 01H DUP (?) ; terrain_texture_altered_land2_colour_pass
?terrain_texture_reservoir_detail@@3HA DD 01H DUP (?)	; terrain_texture_reservoir_detail
?terrain_texture_beach_detail@@3HA DD 01H DUP (?)	; terrain_texture_beach_detail
?terrain_texture_field8_colour_pass@@3HA DD 01H DUP (?)	; terrain_texture_field8_colour_pass
?terrain_surface_field11@@3W4SURFACE_TYPES@@A DD 01H DUP (?) ; terrain_surface_field11
?terrain_surface_builtup_area4_infrared@@3W4SURFACE_TYPES@@A DD 01H DUP (?) ; terrain_surface_builtup_area4_infrared
?terrain_surface_reservoir@@3W4SURFACE_TYPES@@A DD 01H DUP (?) ; terrain_surface_reservoir
?terrain_texture_field11_colour_pass@@3HA DD 01H DUP (?) ; terrain_texture_field11_colour_pass
?terrain_texture_forest_middle_colour_pass@@3HA DD 01H DUP (?) ; terrain_texture_forest_middle_colour_pass
?terrain_texture_land_detail@@3HA DD 01H DUP (?)	; terrain_texture_land_detail
?terrain_surface_river@@3W4SURFACE_TYPES@@A DD 01H DUP (?) ; terrain_surface_river
?terrain_surface_builtup_area3@@3W4SURFACE_TYPES@@A DD 01H DUP (?) ; terrain_surface_builtup_area3
?terrain_texture_builtup_area1_infrared_colour_pass@@3HA DD 01H DUP (?) ; terrain_texture_builtup_area1_infrared_colour_pass
?terrain_surface_builtup_area4@@3W4SURFACE_TYPES@@A DD 01H DUP (?) ; terrain_surface_builtup_area4
?terrain_texture_builtup_area2_detail@@3HA DD 01H DUP (?) ; terrain_texture_builtup_area2_detail
?terrain_texture_builtup_area4_detail@@3HA DD 01H DUP (?) ; terrain_texture_builtup_area4_detail
?terrain_texture_forest_top_detail@@3HA DD 01H DUP (?)	; terrain_texture_forest_top_detail
?terrain_texture_river_bank_detail@@3HA DD 01H DUP (?)	; terrain_texture_river_bank_detail
?terrain_texture_builtup_area4_infrared_colour_pass@@3HA DD 01H DUP (?) ; terrain_texture_builtup_area4_infrared_colour_pass
?terrain_surface_builtup_area2_infrared@@3W4SURFACE_TYPES@@A DD 01H DUP (?) ; terrain_surface_builtup_area2_infrared
?terrain_texture_builtup_area2_infrared_colour_pass@@3HA DD 01H DUP (?) ; terrain_texture_builtup_area2_infrared_colour_pass
?terrain_surface_wall@@3W4SURFACE_TYPES@@A DD 01H DUP (?) ; terrain_surface_wall
?terrain_texture_forest_detail@@3HA DD 01H DUP (?)	; terrain_texture_forest_detail
?terrain_texture_field9_colour_pass@@3HA DD 01H DUP (?)	; terrain_texture_field9_colour_pass
?terrain_texture_rail_detail@@3HA DD 01H DUP (?)	; terrain_texture_rail_detail
?terrain_texture_builtup_area2_infrared_detail@@3HA DD 01H DUP (?) ; terrain_texture_builtup_area2_infrared_detail
?terrain_texture_sea_colour_pass@@3HA DD 01H DUP (?)	; terrain_texture_sea_colour_pass
?terrain_texture_builtup_area1_detail@@3HA DD 01H DUP (?) ; terrain_texture_builtup_area1_detail
?terrain_surface_forest@@3W4SURFACE_TYPES@@A DD 01H DUP (?) ; terrain_surface_forest
?terrain_surface_field6@@3W4SURFACE_TYPES@@A DD 01H DUP (?) ; terrain_surface_field6
?terrain_surface_land@@3W4SURFACE_TYPES@@A DD 01H DUP (?) ; terrain_surface_land
?terrain_texture_altered_land1_detail@@3HA DD 01H DUP (?) ; terrain_texture_altered_land1_detail
?terrain_texture_field4_colour_pass@@3HA DD 01H DUP (?)	; terrain_texture_field4_colour_pass
?change_reservoir_texture@@3HA DD 01H DUP (?)		; change_reservoir_texture
?terrain_surface_road@@3W4SURFACE_TYPES@@A DD 01H DUP (?) ; terrain_surface_road
?terrain_texture_sea_detail@@3HA DD 01H DUP (?)		; terrain_texture_sea_detail
?terrain_texture_beach_colour_pass@@3HA DD 01H DUP (?)	; terrain_texture_beach_colour_pass
?terrain_surface_field8@@3W4SURFACE_TYPES@@A DD 01H DUP (?) ; terrain_surface_field8
?terrain_texture_trench_detail@@3HA DD 01H DUP (?)	; terrain_texture_trench_detail
?terrain_texture_forest_top_colour_pass@@3HA DD 01H DUP (?) ; terrain_texture_forest_top_colour_pass
?terrain_texture_altered_land3_colour_pass@@3HA DD 01H DUP (?) ; terrain_texture_altered_land3_colour_pass
?terrain_surface_field7@@3W4SURFACE_TYPES@@A DD 01H DUP (?) ; terrain_surface_field7
?terrain_texture_field6_detail@@3HA DD 01H DUP (?)	; terrain_texture_field6_detail
?terrain_surface_river_bank@@3W4SURFACE_TYPES@@A DD 01H DUP (?) ; terrain_surface_river_bank
?terrain_surface_hedge@@3W4SURFACE_TYPES@@A DD 01H DUP (?) ; terrain_surface_hedge
?terrain_texture_reservoir_colour_pass@@3HA DD 01H DUP (?) ; terrain_texture_reservoir_colour_pass
?terrain_surface_altered_land2@@3W4SURFACE_TYPES@@A DD 01H DUP (?) ; terrain_surface_altered_land2
?terrain_surface_beach@@3W4SURFACE_TYPES@@A DD 01H DUP (?) ; terrain_surface_beach
?terrain_surface_field1@@3W4SURFACE_TYPES@@A DD 01H DUP (?) ; terrain_surface_field1
?terrain_surface_rail@@3W4SURFACE_TYPES@@A DD 01H DUP (?) ; terrain_surface_rail
?terrain_texture_field11_detail@@3HA DD 01H DUP (?)	; terrain_texture_field11_detail
?terrain_texture_land_colour_pass@@3HA DD 01H DUP (?)	; terrain_texture_land_colour_pass
?terrain_texture_field9_detail@@3HA DD 01H DUP (?)	; terrain_texture_field9_detail
?terrain_texture_track_colour_pass@@3HA DD 01H DUP (?)	; terrain_texture_track_colour_pass
?terrain_texture_builtup_area4_infrared_detail@@3HA DD 01H DUP (?) ; terrain_texture_builtup_area4_infrared_detail
?terrain_texture_forest_colour_pass@@3HA DD 01H DUP (?)	; terrain_texture_forest_colour_pass
?terrain_texture_river_detail@@3HA DD 01H DUP (?)	; terrain_texture_river_detail
?change_sea_texture@@3HA DD 01H DUP (?)			; change_sea_texture
?terrain_surface_builtup_area3_infrared@@3W4SURFACE_TYPES@@A DD 01H DUP (?) ; terrain_surface_builtup_area3_infrared
?terrain_texture_rail_bank_colour_pass@@3HA DD 01H DUP (?) ; terrain_texture_rail_bank_colour_pass
?terrain_texture_hedge_colour_pass@@3HA DD 01H DUP (?)	; terrain_texture_hedge_colour_pass
?terrain_texture_field2_detail@@3HA DD 01H DUP (?)	; terrain_texture_field2_detail
?terrain_surface_rail_bank@@3W4SURFACE_TYPES@@A DD 01H DUP (?) ; terrain_surface_rail_bank
?terrain_texture_rail_colour_pass@@3HA DD 01H DUP (?)	; terrain_texture_rail_colour_pass
?terrain_texture_field2_colour_pass@@3HA DD 01H DUP (?)	; terrain_texture_field2_colour_pass
?terrain_texture_road_bank_colour_pass@@3HA DD 01H DUP (?) ; terrain_texture_road_bank_colour_pass
?terrain_texture_builtup_area2_colour_pass@@3HA DD 01H DUP (?) ; terrain_texture_builtup_area2_colour_pass
?terrain_texture_field3_colour_pass@@3HA DD 01H DUP (?)	; terrain_texture_field3_colour_pass
?terrain_surface_field9@@3W4SURFACE_TYPES@@A DD 01H DUP (?) ; terrain_surface_field9
?terrain_surface_builtup_area1@@3W4SURFACE_TYPES@@A DD 01H DUP (?) ; terrain_surface_builtup_area1
?terrain_surface_road_bank@@3W4SURFACE_TYPES@@A DD 01H DUP (?) ; terrain_surface_road_bank
?terrain_texture_road_detail@@3HA DD 01H DUP (?)	; terrain_texture_road_detail
_BSS	ENDS
?delay_count@@3HA DD 01H				; delay_count
END
