; Listing generated by Microsoft (R) Optimizing Compiler Version 19.16.27045.0 

	TITLE	c:\users\nhv90\projects\eech\modules\3d\terrain\terrre.c
	.686P
	.XMM
	include listing.inc
	.model	flat

INCLUDELIB OLDNAMES

PUBLIC	?render_3d_terrain_word_fan@@YGXH@Z		; render_3d_terrain_word_fan
PUBLIC	?render_3d_terrain_byte_fan@@YGXH@Z		; render_3d_terrain_byte_fan
PUBLIC	?render_3d_terrain_word_strip@@YGXH@Z		; render_3d_terrain_word_strip
PUBLIC	?render_3d_terrain_byte_strip@@YGXH@Z		; render_3d_terrain_byte_strip
PUBLIC	?render_3d_terrain_texture_zy_word_fan@@YGXH@Z	; render_3d_terrain_texture_zy_word_fan
PUBLIC	?render_3d_terrain_texture_zy_byte_fan@@YGXH@Z	; render_3d_terrain_texture_zy_byte_fan
PUBLIC	?render_3d_terrain_texture_xy_word_fan@@YGXH@Z	; render_3d_terrain_texture_xy_word_fan
PUBLIC	?render_3d_terrain_texture_xy_byte_fan@@YGXH@Z	; render_3d_terrain_texture_xy_byte_fan
PUBLIC	?render_3d_terrain_texture_zy_word_strip@@YGXH@Z ; render_3d_terrain_texture_zy_word_strip
PUBLIC	?render_3d_terrain_texture_zy_byte_strip@@YGXH@Z ; render_3d_terrain_texture_zy_byte_strip
PUBLIC	?render_3d_terrain_texture_xy_word_strip@@YGXH@Z ; render_3d_terrain_texture_xy_word_strip
PUBLIC	?render_3d_terrain_texture_xy_byte_strip@@YGXH@Z ; render_3d_terrain_texture_xy_byte_strip
PUBLIC	?render_3d_terrain_word_colour_fan@@YGXH@Z	; render_3d_terrain_word_colour_fan
PUBLIC	?render_3d_terrain_byte_colour_fan@@YGXH@Z	; render_3d_terrain_byte_colour_fan
PUBLIC	?render_3d_terrain_word_colour_strip@@YGXH@Z	; render_3d_terrain_word_colour_strip
PUBLIC	?render_3d_terrain_byte_colour_strip@@YGXH@Z	; render_3d_terrain_byte_colour_strip
PUBLIC	?render_3d_terrain_texture_zy_word_colour_fan@@YGXH@Z ; render_3d_terrain_texture_zy_word_colour_fan
PUBLIC	?render_3d_terrain_texture_zy_byte_colour_fan@@YGXH@Z ; render_3d_terrain_texture_zy_byte_colour_fan
PUBLIC	?render_3d_terrain_texture_xy_word_colour_fan@@YGXH@Z ; render_3d_terrain_texture_xy_word_colour_fan
PUBLIC	?render_3d_terrain_texture_xy_byte_colour_fan@@YGXH@Z ; render_3d_terrain_texture_xy_byte_colour_fan
PUBLIC	?render_3d_terrain_texture_zy_word_colour_strip@@YGXH@Z ; render_3d_terrain_texture_zy_word_colour_strip
PUBLIC	?render_3d_terrain_texture_zy_byte_colour_strip@@YGXH@Z ; render_3d_terrain_texture_zy_byte_colour_strip
PUBLIC	?render_3d_terrain_texture_xy_word_colour_strip@@YGXH@Z ; render_3d_terrain_texture_xy_word_colour_strip
PUBLIC	?render_3d_terrain_texture_xy_byte_colour_strip@@YGXH@Z ; render_3d_terrain_texture_xy_byte_colour_strip
PUBLIC	?render_3d_terrain_secondary_word_fan@@YGXH@Z	; render_3d_terrain_secondary_word_fan
PUBLIC	?render_3d_terrain_secondary_byte_fan@@YGXH@Z	; render_3d_terrain_secondary_byte_fan
PUBLIC	?render_3d_terrain_secondary_word_strip@@YGXH@Z	; render_3d_terrain_secondary_word_strip
PUBLIC	?render_3d_terrain_secondary_byte_strip@@YGXH@Z	; render_3d_terrain_secondary_byte_strip
PUBLIC	?render_3d_terrain_secondary_texture_zy_word_fan@@YGXH@Z ; render_3d_terrain_secondary_texture_zy_word_fan
PUBLIC	?render_3d_terrain_secondary_texture_zy_byte_fan@@YGXH@Z ; render_3d_terrain_secondary_texture_zy_byte_fan
PUBLIC	?render_3d_terrain_secondary_texture_xy_word_fan@@YGXH@Z ; render_3d_terrain_secondary_texture_xy_word_fan
PUBLIC	?render_3d_terrain_secondary_texture_xy_byte_fan@@YGXH@Z ; render_3d_terrain_secondary_texture_xy_byte_fan
PUBLIC	?render_3d_terrain_secondary_texture_zy_word_strip@@YGXH@Z ; render_3d_terrain_secondary_texture_zy_word_strip
PUBLIC	?render_3d_terrain_secondary_texture_zy_byte_strip@@YGXH@Z ; render_3d_terrain_secondary_texture_zy_byte_strip
PUBLIC	?render_3d_terrain_secondary_texture_xy_word_strip@@YGXH@Z ; render_3d_terrain_secondary_texture_xy_word_strip
PUBLIC	?render_3d_terrain_secondary_texture_xy_byte_strip@@YGXH@Z ; render_3d_terrain_secondary_texture_xy_byte_strip
PUBLIC	?terrain_3d_copy_and_recolour_polygon@@YGPAUVERTEX@@PAU1@@Z ; terrain_3d_copy_and_recolour_polygon
PUBLIC	?render_3d_terrain_secondary_vertex_polygon@@YGXPAUVERTEX@@@Z ; render_3d_terrain_secondary_vertex_polygon
END
