; Listing generated by Microsoft (R) Optimizing Compiler Version 19.16.27045.0 

	TITLE	c:\users\nhv90\projects\eech\modules\system\time.c
	.686P
	.XMM
	include listing.inc
	.model	flat

INCLUDELIB OLDNAMES

PUBLIC	??_C@_0DD@NDMCHNNP@Coordinated?5Universal?5Time?5not?5@ ; `string'
PUBLIC	?locked_frame_rate@@3HA				; locked_frame_rate
PUBLIC	?system_delta_time_average@@3MA			; system_delta_time_average
PUBLIC	?system_delta_time@@3MA				; system_delta_time
PUBLIC	?system_one_over_delta_time@@3MA		; system_one_over_delta_time
EXTRN	__imp__GetSystemTime@4:PROC
EXTRN	__imp___gmtime64:PROC
?locked_frame_rate@@3HA DD 01H DUP (?)			; locked_frame_rate
_BSS	ENDS
;	COMDAT ??_C@_0DD@NDMCHNNP@Coordinated?5Universal?5Time?5not?5@
CONST	SEGMENT
??_C@_0DD@NDMCHNNP@Coordinated?5Universal?5Time?5not?5@ DB 'Coordinated U'
	DB	'niversal Time not supported by system', 00H	; `string'
?system_delta_time_average@@3MA DD 03dcccccdr	; 0.1	; system_delta_time_average
?system_delta_time@@3MA DD 03dcccccdr		; 0.1	; system_delta_time
?system_one_over_delta_time@@3MA DD 041200000r	; 10	; system_one_over_delta_time
PUBLIC	?get_delta_time_average@@YGMXZ			; get_delta_time_average
PUBLIC	?reset_delta_time@@YGXXZ			; reset_delta_time
PUBLIC	?debug_watch_delta_time@@YGXXZ			; debug_watch_delta_time
PUBLIC	?unlock_frame_rate@@YGXXZ			; unlock_frame_rate
PUBLIC	?lock_frame_rate@@YGXM@Z			; lock_frame_rate
PUBLIC	?get_system_time_of_day@@YGHXZ			; get_system_time_of_day
PUBLIC	?get_system_date@@YGXPAH00@Z			; get_system_date
PUBLIC	?set_manual_delta_time@@YGXM@Z			; set_manual_delta_time
PUBLIC	?set_delta_time@@YGXXZ				; set_delta_time
PUBLIC	?get_system_time@@YGIXZ				; get_system_time
?system_delta_time_history@@3PAMA DD 0c8H DUP (?)	; system_delta_time_history
?system_delta_time_history_position@@3HA DD 01H DUP (?)	; system_delta_time_history_position
?last_time_value@@3KA DD 01H DUP (?)			; last_time_value
_BSS	ENDS
?locked_one_over_delta_time@@3MA DD 041c80000r	; 25	; locked_one_over_delta_time
?locked_delta_time@@3MA DD 03d23d70ar		; 0.04	; locked_delta_time
END
