; Listing generated by Microsoft (R) Optimizing Compiler Version 19.16.27045.0 

	TITLE	c:\users\nhv90\projects\eech\aphavoc\source\ui_menu\session\uisess_fn.c
	.686P
	.XMM
	include listing.inc
	.model	flat

INCLUDELIB OLDNAMES

PUBLIC	??_C@_0BA@GEAIGGEE@session?5invalid@		; `string'
PUBLIC	??_C@_0DG@IOFKECEF@ERROR?3?5session_list_function?0?5u@ ; `string'
PUBLIC	??_C@_08PMJNNAEG@No?5Games@			; `string'
PUBLIC	?campaign_selection@@3HA			; campaign_selection
EXTRN	__imp__rename:PROC
;	COMDAT ?update_ticks@?1??session_update_session_list@@YGXXZ@4IA
_BSS	SEGMENT
?update_ticks@?1??session_update_session_list@@YGXXZ@4IA DD 01H DUP (?) ; `session_update_session_list'::`2'::update_ticks
?campaign_selection@@3HA DD 01H DUP (?)			; campaign_selection
_BSS	ENDS
;	COMDAT ??_C@_08PMJNNAEG@No?5Games@
CONST	SEGMENT
??_C@_08PMJNNAEG@No?5Games@ DB 'No Games', 00H		; `string'
CONST	ENDS
;	COMDAT ??_C@_0DG@IOFKECEF@ERROR?3?5session_list_function?0?5u@
CONST	SEGMENT
??_C@_0DG@IOFKECEF@ERROR?3?5session_list_function?0?5u@ DB 'ERROR: sessio'
	DB	'n_list_function, unknown session_type %d', 00H ; `string'
CONST	ENDS
;	COMDAT ??_C@_0BA@GEAIGGEE@session?5invalid@
CONST	SEGMENT
??_C@_0BA@GEAIGGEE@session?5invalid@ DB 'session invalid', 00H ; `string'
PUBLIC	?notify_session_screen@@YGXPAUUI_OBJECT@@PAX@Z	; notify_session_screen
PUBLIC	?notify_session_rename_button@@YGXPAUUI_OBJECT@@PAX@Z ; notify_session_rename_button
PUBLIC	?notify_session_delete_button@@YGXPAUUI_OBJECT@@PAX@Z ; notify_session_delete_button
PUBLIC	?session_name_input_function@@YGXPAUUI_OBJECT@@PAX@Z ; session_name_input_function
PUBLIC	?notify_session_next_button@@YGXPAUUI_OBJECT@@PAX@Z ; notify_session_next_button
PUBLIC	?notify_session_continue_button@@YGXPAUUI_OBJECT@@PAX@Z ; notify_session_continue_button
PUBLIC	?notify_session_back_button@@YGXPAUUI_OBJECT@@PAX@Z ; notify_session_back_button
PUBLIC	?session_list_rescan_function@@YGXPAUUI_OBJECT@@PAX@Z ; session_list_rescan_function
PUBLIC	?session_update_session_list@@YGXXZ		; session_update_session_list
PUBLIC	?session_list_function@@YGXPAUUI_OBJECT@@PAX@Z	; session_list_function
END
