; Listing generated by Microsoft (R) Optimizing Compiler Version 19.16.27045.0 

	TITLE	c:\users\nhv90\projects\eech\modules\maths\vector.c
	.686P
	.XMM
	include listing.inc
	.model	flat

INCLUDELIB OLDNAMES

PUBLIC	?line_line_2d_intercept@@YGHPBUVEC2D@@000PAU1@@Z ; line_line_2d_intercept
PUBLIC	?invert_3d_vector@@YGXPAUVEC3D@@@Z		; invert_3d_vector
PUBLIC	?get_2d_unit_vector_dot_product@@YGMPBUVEC2D@@0@Z ; get_2d_unit_vector_dot_product
PUBLIC	?copy_double_vec3d_to_vec3d@@YGXPBUDOUBLE_VEC3D@@PAUVEC3D@@@Z ; copy_double_vec3d_to_vec3d
PUBLIC	?rotate_3d_vector@@YGXPAUVEC3D@@M@Z		; rotate_3d_vector
PUBLIC	?normalise_any_2d_vector@@YGMPAUVEC2D@@@Z	; normalise_any_2d_vector
PUBLIC	?rotate_2d_vector@@YGXPAUVEC2D@@M@Z		; rotate_2d_vector
PUBLIC	?get_3d_unit_vector_from_heading_and_pitch@@YGXPAUVEC3D@@MM@Z ; get_3d_unit_vector_from_heading_and_pitch
PUBLIC	?get_3d_vector_cross_product@@YGXPAUVEC3D@@PBU1@1@Z ; get_3d_vector_cross_product
PUBLIC	?get_3d_vector_cube_cube_intersect@@YGHPBUVEC3D@@000@Z ; get_3d_vector_cube_cube_intersect
PUBLIC	?line_line_3d_intercept@@YG?AW4LINE_LINE_INTERCEPT_RESULT_TYPES@@PBUVEC3D@@000PAU2@1@Z ; line_line_3d_intercept
PUBLIC	?get_3d_perp_dist_of_point_from_line@@YGMPBUVEC3D@@00PAU1@@Z ; get_3d_perp_dist_of_point_from_line
PUBLIC	?get_3d_unit_vector_dot_product@@YGMPBUVEC3D@@0@Z ; get_3d_unit_vector_dot_product
PUBLIC	?get_heading_and_pitch_from_3d_unit_vector@@YGXPBUVEC3D@@PAM1@Z ; get_heading_and_pitch_from_3d_unit_vector
PUBLIC	?get_3d_vector_dot_product@@YGMPBUVEC3D@@0@Z	; get_3d_vector_dot_product
PUBLIC	?get_3d_line_triangle_intersection@@YGHPBUVEC3D@@0000PAU1@1@Z ; get_3d_line_triangle_intersection
PUBLIC	?get_3d_line_quad_intersection@@YGHPBUVEC3D@@00000PAU1@1@Z ; get_3d_line_quad_intersection
PUBLIC	?normalise_3d_vector_given_magnitude@@YGXPAUVEC3D@@M@Z ; normalise_3d_vector_given_magnitude
PUBLIC	?normalise_any_3d_vector@@YGMPAUVEC3D@@@Z	; normalise_any_3d_vector
PUBLIC	?normalise_3d_vector@@YGMPAUVEC3D@@@Z		; normalise_3d_vector
PUBLIC	?get_3d_vector_magnitude@@YGMPBUVEC3D@@@Z	; get_3d_vector_magnitude
END
