; Listing generated by Microsoft (R) Optimizing Compiler Version 19.16.27045.0 

	TITLE	c:\users\nhv90\projects\eech\aphavoc\source\gunships\views\vm_headmovement.c
	.686P
	.XMM
	include listing.inc
	.model	flat

INCLUDELIB OLDNAMES

?command_line_viewpoint_aft_limit@@3PAY01MA DD 0becccccdr ; -0.4 ; command_line_viewpoint_aft_limit
	DD	0becccccdr			; -0.4
	DD	0be800000r			; -0.25
	DD	0be800000r			; -0.25
	DD	0be800000r			; -0.25
	DD	0be800000r			; -0.25
	DD	0be800000r			; -0.25
	DD	0be800000r			; -0.25
	DD	0be800000r			; -0.25
	DD	0be800000r			; -0.25
	DD	0be800000r			; -0.25
	DD	0be800000r			; -0.25
	DD	0be800000r			; -0.25
	DD	0be800000r			; -0.25
	DD	0be800000r			; -0.25
	DD	0be800000r			; -0.25
	ORG $+16
?command_line_viewpoint_fore_limit@@3PAY01MA DD 03ecccccdr ; 0.4 ; command_line_viewpoint_fore_limit
	DD	03ecccccdr			; 0.4
	DD	03e800000r			; 0.25
	DD	03e800000r			; 0.25
	DD	03e800000r			; 0.25
	DD	03e800000r			; 0.25
	DD	03e800000r			; 0.25
	DD	03e800000r			; 0.25
	DD	03e800000r			; 0.25
	DD	03e800000r			; 0.25
	DD	03e800000r			; 0.25
	DD	03e800000r			; 0.25
	DD	03e800000r			; 0.25
	DD	03e800000r			; 0.25
	DD	03e800000r			; 0.25
	DD	03e800000r			; 0.25
	ORG $+16
?command_line_viewpoint_down_limit@@3PAY01MA DD 0be800000r ; -0.25 ; command_line_viewpoint_down_limit
	DD	0be800000r			; -0.25
	DD	0be800000r			; -0.25
	DD	0be800000r			; -0.25
	DD	0be800000r			; -0.25
	DD	0be800000r			; -0.25
	DD	0be800000r			; -0.25
	DD	0be800000r			; -0.25
	DD	0be800000r			; -0.25
	DD	0be800000r			; -0.25
	DD	0be800000r			; -0.25
	DD	0be800000r			; -0.25
	DD	0be800000r			; -0.25
	DD	0be800000r			; -0.25
	DD	0be800000r			; -0.25
	DD	0be800000r			; -0.25
	ORG $+16
?command_line_viewpoint_up_limit@@3PAY01MA DD 03e800000r ; 0.25 ; command_line_viewpoint_up_limit
	DD	03e800000r			; 0.25
	DD	03e800000r			; 0.25
	DD	03e800000r			; 0.25
	DD	03e800000r			; 0.25
	DD	03e800000r			; 0.25
	DD	03e800000r			; 0.25
	DD	03e800000r			; 0.25
	DD	03e800000r			; 0.25
	DD	03e800000r			; 0.25
	DD	03e800000r			; 0.25
	DD	03e800000r			; 0.25
	DD	03e800000r			; 0.25
	DD	03e800000r			; 0.25
	DD	03e800000r			; 0.25
	DD	03e800000r			; 0.25
	ORG $+16
?command_line_viewpoint_right_limit@@3PAY01MA DD 0be800000r ; -0.25 ; command_line_viewpoint_right_limit
	DD	0be800000r			; -0.25
	DD	0be800000r			; -0.25
	DD	0be800000r			; -0.25
	DD	0be800000r			; -0.25
	DD	0be800000r			; -0.25
	DD	0be800000r			; -0.25
	DD	0be800000r			; -0.25
	DD	0be800000r			; -0.25
	DD	0be800000r			; -0.25
	DD	0be800000r			; -0.25
	DD	0be800000r			; -0.25
	DD	0be800000r			; -0.25
	DD	0be800000r			; -0.25
	DD	0be800000r			; -0.25
	DD	0be800000r			; -0.25
	ORG $+16
?command_line_viewpoint_left_limit@@3PAY01MA DD 03e800000r ; 0.25 ; command_line_viewpoint_left_limit
	DD	03e800000r			; 0.25
	DD	03e800000r			; 0.25
	DD	03e800000r			; 0.25
	DD	03e800000r			; 0.25
	DD	03e800000r			; 0.25
	DD	03e800000r			; 0.25
	DD	03e800000r			; 0.25
	DD	03e800000r			; 0.25
	DD	03e800000r			; 0.25
	DD	03e800000r			; 0.25
	DD	03e800000r			; 0.25
	DD	03e800000r			; 0.25
	DD	03e800000r			; 0.25
	DD	03e800000r			; 0.25
	DD	03e800000r			; 0.25
	ORG $+16
PUBLIC	?getViewpointOffsetZ@@YGMM@Z			; getViewpointOffsetZ
PUBLIC	?getViewpointOffsetX@@YGMM@Z			; getViewpointOffsetX
PUBLIC	?getViewpointOffsetY@@YGMM@Z			; getViewpointOffsetY
END
