; Listing generated by Microsoft (R) Optimizing Compiler Version 19.16.27045.0 

	TITLE	c:\users\nhv90\projects\eech\aphavoc\source\gunships\views\vm_menu.c
	.686P
	.XMM
	include listing.inc
	.model	flat

INCLUDELIB OLDNAMES

PUBLIC	??_C@_03HFJGAJFE@All@				; `string'
PUBLIC	??_C@_07LONCHGDE@Wingmen@			; `string'
PUBLIC	??_C@_0BD@GGECGFHJ@Available?5gunships@		; `string'
PUBLIC	??_C@_06KKLIBEMA@Allied@			; `string'
PUBLIC	??_C@_05IFKAJBFC@Enemy@				; `string'
PUBLIC	??_C@_0BD@OJFNOMKE@Combat?5Helicopters@		; `string'
PUBLIC	??_C@_0BG@FIEBJAHH@Transport?5Helicopters@	; `string'
PUBLIC	??_C@_0BA@BBMGNKPG@Combat?5Aircraft@		; `string'
PUBLIC	??_C@_0BD@FKKIPNEA@Transport?5Aircraft@		; `string'
PUBLIC	??_C@_0BA@OBAEOJG@Combat?5Vehicles@		; `string'
PUBLIC	??_C@_0BC@DELNHDII@Air?5Defence?5Units@		; `string'
PUBLIC	??_C@_0BD@EFHOGJCA@Transport?5Vehicles@		; `string'
PUBLIC	??_C@_0P@DCPJMOP@AH?91T?5SeaCobra@		; `string'
PUBLIC	??_C@_0BB@FFDGNCDO@AH?91W?5SuperCobra@		; `string'
PUBLIC	??_C@_0M@FGNDKDEE@Ka?950?5Hokum@		; `string'
PUBLIC	??_C@_0O@CFDNJFNK@Ka?952?5Hokum?5B@		; `string'
PUBLIC	??_C@_0BB@PGDCGKE@UH?960?5Black?5Hawk@		; `string'
PUBLIC	??_C@_0BF@HOIPFOFL@F?916?5Fighting?5Falcon@	; `string'
PUBLIC	??_C@_0O@NNLDHEFN@F?1A?918?5Hornet@		; `string'
PUBLIC	??_C@_0O@EOMHJIGB@M1037?5Avenger@		; `string'
PUBLIC	??_C@_0BC@MNOGAEMN@Infantry?5with?5SAM@		; `string'
PUBLIC	??_C@_09IICECODF@OHP?5Class@			; `string'
PUBLIC	??_C@_0EF@BPDGKPMJ@c?3?2users?2nhv90?2projects?2eech?2ap@ ; `string'
PUBLIC	??_C@_0BL@LBJJGOGD@get_match_view_search?5?$CIen?$CJ@ ; `string'
PUBLIC	??_C@_0DC@JMKMLLIM@widen_view_search_params?5?9?5fail@ ; `string'
PUBLIC	??_C@_02LFNMGJAP@en@				; `string'
PUBLIC	??_C@_0BA@LGKANPKH@Side?3?5?$CICtrl?5F5?$CJ@	; `string'
PUBLIC	??_C@_0BE@IDCCALDP@Category?3?5?$CICtrl?5F6?$CJ@ ; `string'
PUBLIC	??_C@_0BA@HDKBNPIE@Type?3?5?$CICtrl?5F7?$CJ@	; `string'
PUBLIC	??_C@_0CB@MIBMODEN@Object?5?$CI1234?5objects?$CJ?3?5?$CICtrl?5F8@ ; `string'
PUBLIC	??_C@_0N@JJLBMOAG@Previous?5?4?4?4@		; `string'
PUBLIC	??_C@_08GAGBNJEP@Next?5?4?4?4@			; `string'
PUBLIC	??_C@_04MKLLAHO@50Km@				; `string'
PUBLIC	??_C@_05HMINLNLI@100Km@				; `string'
PUBLIC	??_C@_07DJMIGIHO@Invalid@			; `string'
PUBLIC	??_C@_0BG@PADOJLDE@Select?5Object?5To?5View@	; `string'
PUBLIC	??_C@_06BGCPIGGC@View?3?5@			; `string'
PUBLIC	??_C@_02KNHHEEKP@?5?5@				; `string'
PUBLIC	??_C@_0BO@MHDFCGPG@?$CIAlt?$CLF5?5Alt?$CLF6?5Alt?$CLF7?5Alt?$CLF8?$CJ@ ; `string'
PUBLIC	??_C@_07JHDBFNO@Range?3?5@			; `string'
PUBLIC	??_C@_0O@GAGKGBHB@?$CIAlt?$CL?9?5Alt?$CL?$DN?$CJ@ ; `string'
PUBLIC	??_C@_05IPPEIGNP@Side?3@			; `string'
PUBLIC	??_C@_0L@OLCCINAP@?5?$CICtrl?$CLF5?$CJ@		; `string'
PUBLIC	??_C@_09GCFIHICK@Category?3@			; `string'
PUBLIC	??_C@_0L@OJGEDDFG@?5?$CICtrl?$CLF6?$CJ@		; `string'
PUBLIC	??_C@_05CNGKOBCN@Type?3@			; `string'
PUBLIC	??_C@_0L@OIKGFJGB@?5?$CICtrl?$CLF7?$CJ@		; `string'
PUBLIC	??_C@_0BD@COMFKIOJ@Object?5?$CI1?5object?$CJ?3@	; `string'
PUBLIC	??_C@_0BF@ILHFGDJG@Object?5?$CI?$CFd?5objects?$CJ?3@ ; `string'
PUBLIC	??_C@_0L@ODPKBOFM@?5?$CICtrl?$CLF8?$CJ@		; `string'
PUBLIC	??_C@_0L@HOJFHHHE@?$CI1?5object?$CJ@		; `string'
PUBLIC	??_C@_0N@HIOBHMCC@?$CI?$CFd?5objects?$CJ@	; `string'
PUBLIC	??_C@_0DA@OEBJHIAO@View?3?$CFs?5Range?3?$CFs?5Side?3?$CFs?5Catego@ ; `string'
PUBLIC	??_C@_05HICHAHBH@View?3@			; `string'
PUBLIC	??_C@_07PPAPLHIF@?5Range?3@			; `string'
PUBLIC	??_C@_06GMOHMBJO@?5Side?3@			; `string'
PUBLIC	??_C@_0L@GMMJCOGH@?5Category?3@			; `string'
PUBLIC	??_C@_06MOHJKGGM@?5Type?3@			; `string'
PUBLIC	??_C@_0M@HGPGNLAP@?5?$CI1?5object?$CJ@		; `string'
PUBLIC	??_C@_0O@GLEKDLLP@?5?$CI?$CFd?5objects?$CJ@	; `string'
;	COMDAT ??_C@_0O@GLEKDLLP@?5?$CI?$CFd?5objects?$CJ@
CONST	SEGMENT
??_C@_0O@GLEKDLLP@?5?$CI?$CFd?5objects?$CJ@ DB ' (%d objects)', 00H ; `string'
CONST	ENDS
;	COMDAT ??_C@_0M@HGPGNLAP@?5?$CI1?5object?$CJ@
CONST	SEGMENT
??_C@_0M@HGPGNLAP@?5?$CI1?5object?$CJ@ DB ' (1 object)', 00H ; `string'
CONST	ENDS
;	COMDAT ??_C@_06MOHJKGGM@?5Type?3@
CONST	SEGMENT
??_C@_06MOHJKGGM@?5Type?3@ DB ' Type:', 00H		; `string'
CONST	ENDS
;	COMDAT ??_C@_0L@GMMJCOGH@?5Category?3@
CONST	SEGMENT
??_C@_0L@GMMJCOGH@?5Category?3@ DB ' Category:', 00H	; `string'
CONST	ENDS
;	COMDAT ??_C@_06GMOHMBJO@?5Side?3@
CONST	SEGMENT
??_C@_06GMOHMBJO@?5Side?3@ DB ' Side:', 00H		; `string'
CONST	ENDS
;	COMDAT ??_C@_07PPAPLHIF@?5Range?3@
CONST	SEGMENT
??_C@_07PPAPLHIF@?5Range?3@ DB ' Range:', 00H		; `string'
CONST	ENDS
;	COMDAT ??_C@_05HICHAHBH@View?3@
CONST	SEGMENT
??_C@_05HICHAHBH@View?3@ DB 'View:', 00H		; `string'
CONST	ENDS
;	COMDAT ??_C@_0DA@OEBJHIAO@View?3?$CFs?5Range?3?$CFs?5Side?3?$CFs?5Catego@
CONST	SEGMENT
??_C@_0DA@OEBJHIAO@View?3?$CFs?5Range?3?$CFs?5Side?3?$CFs?5Catego@ DB 'Vi'
	DB	'ew:%s Range:%s Side:%s Category:%s Type:%s %s', 00H ; `string'
CONST	ENDS
;	COMDAT ??_C@_0N@HIOBHMCC@?$CI?$CFd?5objects?$CJ@
CONST	SEGMENT
??_C@_0N@HIOBHMCC@?$CI?$CFd?5objects?$CJ@ DB '(%d objects)', 00H ; `string'
CONST	ENDS
;	COMDAT ??_C@_0L@HOJFHHHE@?$CI1?5object?$CJ@
CONST	SEGMENT
??_C@_0L@HOJFHHHE@?$CI1?5object?$CJ@ DB '(1 object)', 00H ; `string'
CONST	ENDS
;	COMDAT ??_C@_0L@ODPKBOFM@?5?$CICtrl?$CLF8?$CJ@
CONST	SEGMENT
??_C@_0L@ODPKBOFM@?5?$CICtrl?$CLF8?$CJ@ DB ' (Ctrl+F8)', 00H ; `string'
CONST	ENDS
;	COMDAT ??_C@_0BF@ILHFGDJG@Object?5?$CI?$CFd?5objects?$CJ?3@
CONST	SEGMENT
??_C@_0BF@ILHFGDJG@Object?5?$CI?$CFd?5objects?$CJ?3@ DB 'Object (%d objec'
	DB	'ts):', 00H					; `string'
CONST	ENDS
;	COMDAT ??_C@_0BD@COMFKIOJ@Object?5?$CI1?5object?$CJ?3@
CONST	SEGMENT
??_C@_0BD@COMFKIOJ@Object?5?$CI1?5object?$CJ?3@ DB 'Object (1 object):', 00H ; `string'
CONST	ENDS
;	COMDAT ??_C@_0L@OIKGFJGB@?5?$CICtrl?$CLF7?$CJ@
CONST	SEGMENT
??_C@_0L@OIKGFJGB@?5?$CICtrl?$CLF7?$CJ@ DB ' (Ctrl+F7)', 00H ; `string'
CONST	ENDS
;	COMDAT ??_C@_05CNGKOBCN@Type?3@
CONST	SEGMENT
??_C@_05CNGKOBCN@Type?3@ DB 'Type:', 00H		; `string'
CONST	ENDS
;	COMDAT ??_C@_0L@OJGEDDFG@?5?$CICtrl?$CLF6?$CJ@
CONST	SEGMENT
??_C@_0L@OJGEDDFG@?5?$CICtrl?$CLF6?$CJ@ DB ' (Ctrl+F6)', 00H ; `string'
CONST	ENDS
;	COMDAT ??_C@_09GCFIHICK@Category?3@
CONST	SEGMENT
??_C@_09GCFIHICK@Category?3@ DB 'Category:', 00H	; `string'
CONST	ENDS
;	COMDAT ??_C@_0L@OLCCINAP@?5?$CICtrl?$CLF5?$CJ@
CONST	SEGMENT
??_C@_0L@OLCCINAP@?5?$CICtrl?$CLF5?$CJ@ DB ' (Ctrl+F5)', 00H ; `string'
CONST	ENDS
;	COMDAT ??_C@_05IPPEIGNP@Side?3@
CONST	SEGMENT
??_C@_05IPPEIGNP@Side?3@ DB 'Side:', 00H		; `string'
CONST	ENDS
;	COMDAT ??_C@_0O@GAGKGBHB@?$CIAlt?$CL?9?5Alt?$CL?$DN?$CJ@
CONST	SEGMENT
??_C@_0O@GAGKGBHB@?$CIAlt?$CL?9?5Alt?$CL?$DN?$CJ@ DB '(Alt+- Alt+=)', 00H ; `string'
CONST	ENDS
;	COMDAT ??_C@_07JHDBFNO@Range?3?5@
CONST	SEGMENT
??_C@_07JHDBFNO@Range?3?5@ DB 'Range: ', 00H		; `string'
CONST	ENDS
;	COMDAT ??_C@_0BO@MHDFCGPG@?$CIAlt?$CLF5?5Alt?$CLF6?5Alt?$CLF7?5Alt?$CLF8?$CJ@
CONST	SEGMENT
??_C@_0BO@MHDFCGPG@?$CIAlt?$CLF5?5Alt?$CLF6?5Alt?$CLF7?5Alt?$CLF8?$CJ@ DB '('
	DB	'Alt+F5 Alt+F6 Alt+F7 Alt+F8)', 00H		; `string'
CONST	ENDS
;	COMDAT ??_C@_02KNHHEEKP@?5?5@
CONST	SEGMENT
??_C@_02KNHHEEKP@?5?5@ DB '  ', 00H			; `string'
CONST	ENDS
;	COMDAT ??_C@_06BGCPIGGC@View?3?5@
CONST	SEGMENT
??_C@_06BGCPIGGC@View?3?5@ DB 'View: ', 00H		; `string'
CONST	ENDS
;	COMDAT ??_C@_0BG@PADOJLDE@Select?5Object?5To?5View@
CONST	SEGMENT
??_C@_0BG@PADOJLDE@Select?5Object?5To?5View@ DB 'Select Object To View', 00H ; `string'
CONST	ENDS
;	COMDAT ??_C@_07DJMIGIHO@Invalid@
CONST	SEGMENT
??_C@_07DJMIGIHO@Invalid@ DB 'Invalid', 00H		; `string'
CONST	ENDS
;	COMDAT ??_C@_05HMINLNLI@100Km@
CONST	SEGMENT
??_C@_05HMINLNLI@100Km@ DB '100Km', 00H			; `string'
CONST	ENDS
;	COMDAT ??_C@_04MKLLAHO@50Km@
CONST	SEGMENT
??_C@_04MKLLAHO@50Km@ DB '50Km', 00H			; `string'
CONST	ENDS
;	COMDAT ??_C@_08GAGBNJEP@Next?5?4?4?4@
CONST	SEGMENT
??_C@_08GAGBNJEP@Next?5?4?4?4@ DB 'Next ...', 00H	; `string'
CONST	ENDS
;	COMDAT ??_C@_0N@JJLBMOAG@Previous?5?4?4?4@
CONST	SEGMENT
??_C@_0N@JJLBMOAG@Previous?5?4?4?4@ DB 'Previous ...', 00H ; `string'
CONST	ENDS
;	COMDAT ??_C@_0CB@MIBMODEN@Object?5?$CI1234?5objects?$CJ?3?5?$CICtrl?5F8@
CONST	SEGMENT
??_C@_0CB@MIBMODEN@Object?5?$CI1234?5objects?$CJ?3?5?$CICtrl?5F8@ DB 'Obj'
	DB	'ect (1234 objects): (Ctrl F8)', 00H		; `string'
CONST	ENDS
;	COMDAT ??_C@_0BA@HDKBNPIE@Type?3?5?$CICtrl?5F7?$CJ@
CONST	SEGMENT
??_C@_0BA@HDKBNPIE@Type?3?5?$CICtrl?5F7?$CJ@ DB 'Type: (Ctrl F7)', 00H ; `string'
CONST	ENDS
;	COMDAT ??_C@_0BE@IDCCALDP@Category?3?5?$CICtrl?5F6?$CJ@
CONST	SEGMENT
??_C@_0BE@IDCCALDP@Category?3?5?$CICtrl?5F6?$CJ@ DB 'Category: (Ctrl F6)', 00H ; `string'
CONST	ENDS
;	COMDAT ??_C@_0BA@LGKANPKH@Side?3?5?$CICtrl?5F5?$CJ@
CONST	SEGMENT
??_C@_0BA@LGKANPKH@Side?3?5?$CICtrl?5F5?$CJ@ DB 'Side: (Ctrl F5)', 00H ; `string'
CONST	ENDS
;	COMDAT ??_C@_02LFNMGJAP@en@
CONST	SEGMENT
??_C@_02LFNMGJAP@en@ DB 'en', 00H			; `string'
CONST	ENDS
;	COMDAT ??_C@_0DC@JMKMLLIM@widen_view_search_params?5?9?5fail@
CONST	SEGMENT
??_C@_0DC@JMKMLLIM@widen_view_search_params?5?9?5fail@ DB 'widen_view_sea'
	DB	'rch_params - failed to find a match', 00H	; `string'
CONST	ENDS
;	COMDAT ??_C@_0BL@LBJJGOGD@get_match_view_search?5?$CIen?$CJ@
CONST	SEGMENT
??_C@_0BL@LBJJGOGD@get_match_view_search?5?$CIen?$CJ@ DB 'get_match_view_'
	DB	'search (en)', 00H				; `string'
CONST	ENDS
;	COMDAT ??_C@_0EF@BPDGKPMJ@c?3?2users?2nhv90?2projects?2eech?2ap@
CONST	SEGMENT
??_C@_0EF@BPDGKPMJ@c?3?2users?2nhv90?2projects?2eech?2ap@ DB 'c:\users\nh'
	DB	'v90\projects\eech\aphavoc\source\gunships\views\vm_menu.c', 00H ; `string'
CONST	ENDS
;	COMDAT ??_C@_09IICECODF@OHP?5Class@
CONST	SEGMENT
??_C@_09IICECODF@OHP?5Class@ DB 'OHP Class', 00H	; `string'
CONST	ENDS
;	COMDAT ??_C@_0BC@MNOGAEMN@Infantry?5with?5SAM@
CONST	SEGMENT
??_C@_0BC@MNOGAEMN@Infantry?5with?5SAM@ DB 'Infantry with SAM', 00H ; `string'
CONST	ENDS
;	COMDAT ??_C@_0O@EOMHJIGB@M1037?5Avenger@
CONST	SEGMENT
??_C@_0O@EOMHJIGB@M1037?5Avenger@ DB 'M1037 Avenger', 00H ; `string'
CONST	ENDS
;	COMDAT ??_C@_0O@NNLDHEFN@F?1A?918?5Hornet@
CONST	SEGMENT
??_C@_0O@NNLDHEFN@F?1A?918?5Hornet@ DB 'F/A-18 Hornet', 00H ; `string'
CONST	ENDS
;	COMDAT ??_C@_0BF@HOIPFOFL@F?916?5Fighting?5Falcon@
CONST	SEGMENT
??_C@_0BF@HOIPFOFL@F?916?5Fighting?5Falcon@ DB 'F-16 Fighting Falcon', 00H ; `string'
CONST	ENDS
;	COMDAT ??_C@_0BB@PGDCGKE@UH?960?5Black?5Hawk@
CONST	SEGMENT
??_C@_0BB@PGDCGKE@UH?960?5Black?5Hawk@ DB 'UH-60 Black Hawk', 00H ; `string'
CONST	ENDS
;	COMDAT ??_C@_0O@CFDNJFNK@Ka?952?5Hokum?5B@
CONST	SEGMENT
??_C@_0O@CFDNJFNK@Ka?952?5Hokum?5B@ DB 'Ka-52 Hokum B', 00H ; `string'
CONST	ENDS
;	COMDAT ??_C@_0M@FGNDKDEE@Ka?950?5Hokum@
CONST	SEGMENT
??_C@_0M@FGNDKDEE@Ka?950?5Hokum@ DB 'Ka-50 Hokum', 00H	; `string'
CONST	ENDS
;	COMDAT ??_C@_0BB@FFDGNCDO@AH?91W?5SuperCobra@
CONST	SEGMENT
??_C@_0BB@FFDGNCDO@AH?91W?5SuperCobra@ DB 'AH-1W SuperCobra', 00H ; `string'
CONST	ENDS
;	COMDAT ??_C@_0P@DCPJMOP@AH?91T?5SeaCobra@
CONST	SEGMENT
??_C@_0P@DCPJMOP@AH?91T?5SeaCobra@ DB 'AH-1T SeaCobra', 00H ; `string'
CONST	ENDS
;	COMDAT ??_C@_0BD@EFHOGJCA@Transport?5Vehicles@
CONST	SEGMENT
??_C@_0BD@EFHOGJCA@Transport?5Vehicles@ DB 'Transport Vehicles', 00H ; `string'
CONST	ENDS
;	COMDAT ??_C@_0BC@DELNHDII@Air?5Defence?5Units@
CONST	SEGMENT
??_C@_0BC@DELNHDII@Air?5Defence?5Units@ DB 'Air Defence Units', 00H ; `string'
CONST	ENDS
;	COMDAT ??_C@_0BA@OBAEOJG@Combat?5Vehicles@
CONST	SEGMENT
??_C@_0BA@OBAEOJG@Combat?5Vehicles@ DB 'Combat Vehicles', 00H ; `string'
CONST	ENDS
;	COMDAT ??_C@_0BD@FKKIPNEA@Transport?5Aircraft@
CONST	SEGMENT
??_C@_0BD@FKKIPNEA@Transport?5Aircraft@ DB 'Transport Aircraft', 00H ; `string'
CONST	ENDS
;	COMDAT ??_C@_0BA@BBMGNKPG@Combat?5Aircraft@
CONST	SEGMENT
??_C@_0BA@BBMGNKPG@Combat?5Aircraft@ DB 'Combat Aircraft', 00H ; `string'
CONST	ENDS
;	COMDAT ??_C@_0BG@FIEBJAHH@Transport?5Helicopters@
CONST	SEGMENT
??_C@_0BG@FIEBJAHH@Transport?5Helicopters@ DB 'Transport Helicopters', 00H ; `string'
CONST	ENDS
;	COMDAT ??_C@_0BD@OJFNOMKE@Combat?5Helicopters@
CONST	SEGMENT
??_C@_0BD@OJFNOMKE@Combat?5Helicopters@ DB 'Combat Helicopters', 00H ; `string'
CONST	ENDS
;	COMDAT ??_C@_05IFKAJBFC@Enemy@
CONST	SEGMENT
??_C@_05IFKAJBFC@Enemy@ DB 'Enemy', 00H			; `string'
CONST	ENDS
;	COMDAT ??_C@_06KKLIBEMA@Allied@
CONST	SEGMENT
??_C@_06KKLIBEMA@Allied@ DB 'Allied', 00H		; `string'
CONST	ENDS
;	COMDAT ??_C@_0BD@GGECGFHJ@Available?5gunships@
CONST	SEGMENT
??_C@_0BD@GGECGFHJ@Available?5gunships@ DB 'Available gunships', 00H ; `string'
CONST	ENDS
;	COMDAT ??_C@_07LONCHGDE@Wingmen@
CONST	SEGMENT
??_C@_07LONCHGDE@Wingmen@ DB 'Wingmen', 00H		; `string'
CONST	ENDS
;	COMDAT ??_C@_03HFJGAJFE@All@
CONST	SEGMENT
??_C@_03HFJGAJFE@All@ DB 'All', 00H			; `string'
?group_names@@3PAPBDA DD FLAT:??_C@_03HFJGAJFE@All@	; group_names
	DD	FLAT:??_C@_07LONCHGDE@Wingmen@
	DD	FLAT:??_C@_07OLBIDKLK@Players@
	DD	FLAT:??_C@_0BD@GGECGFHJ@Available?5gunships@
PUBLIC	?update_view_menu@@YGXXZ			; update_view_menu
PUBLIC	?initialise_view_menu@@YGXXZ			; initialise_view_menu
PUBLIC	?deinitialise_view_menu@@YGXXZ			; deinitialise_view_menu
PUBLIC	?display_view_menu_search_string@@YGXMM@Z	; display_view_menu_search_string
PUBLIC	?display_view_menu@@YGXXZ			; display_view_menu
PUBLIC	?select_view_menu_next_side@@YGXXZ		; select_view_menu_next_side
PUBLIC	?select_view_menu_previous_side_event@@YGXXZ	; select_view_menu_previous_side_event
PUBLIC	?select_view_menu_next_category@@YGXXZ		; select_view_menu_next_category
PUBLIC	?select_view_menu_previous_category@@YGXXZ	; select_view_menu_previous_category
PUBLIC	?select_view_menu_next_type@@YGXXZ		; select_view_menu_next_type
PUBLIC	?select_view_menu_previous_type@@YGXXZ		; select_view_menu_previous_type
PUBLIC	?select_view_menu_next_object@@YGXXZ		; select_view_menu_next_object
PUBLIC	?select_view_menu_previous_object_event@@YGXXZ	; select_view_menu_previous_object_event
PUBLIC	?select_view_menu_view_players_padlock@@YGHXZ	; select_view_menu_view_players_padlock
PUBLIC	?select_view_menu_view_all@@YGXXZ		; select_view_menu_view_all
PUBLIC	?select_view_menu_view_wingmen@@YGHXZ		; select_view_menu_view_wingmen
PUBLIC	?select_view_menu_view_players@@YGXXZ		; select_view_menu_view_players
PUBLIC	?select_view_menu_view_available_gunships@@YGXXZ ; select_view_menu_view_available_gunships
PUBLIC	?select_next_view_menu_range@@YGXXZ		; select_next_view_menu_range
PUBLIC	?select_previous_view_menu_range@@YGXXZ		; select_previous_view_menu_range
PUBLIC	?get_view_menu_display_visible_status@@YGHXZ	; get_view_menu_display_visible_status
PUBLIC	?select_view_menu_view_players_target@@YGHXZ	; select_view_menu_view_players_target
PUBLIC	?set_view_menu_to_match_external_view_entity@@YGXXZ ; set_view_menu_to_match_external_view_entity
PUBLIC	?notify_view_menu_of_view_list_change@@YGXPAUENTITY@@@Z ; notify_view_menu_of_view_list_change
PUBLIC	?get_entity_available_from_view_menu@@YGHPAUENTITY@@@Z ; get_entity_available_from_view_menu
PUBLIC	?select_view_menu_view_players_gunship@@YGHXZ	; select_view_menu_view_players_gunship
PUBLIC	?set_view_menu_display_visible_status@@YGXH@Z	; set_view_menu_display_visible_status
?initialised@@3HA DD 01H DUP (?)			; initialised
?display_enabled@@3HA DD 01H DUP (?)			; display_enabled
?side_list_width@@3MA DD 01H DUP (?)			; side_list_width
?category_list_width@@3MA DD 01H DUP (?)		; category_list_width
?type_list_width@@3MA DD 01H DUP (?)			; type_list_width
?object_list_width@@3MA DD 01H DUP (?)			; object_list_width
?view_menu_x_start@@3MA DD 01H DUP (?)			; view_menu_x_start
?group_counters@@3PAHA DD 04H DUP (?)			; group_counters
?side_counters@@3PAHA DD 03H DUP (?)			; side_counters
?category_counters@@3PAHA DD 0bH DUP (?)		; category_counters
?type_counters@@3PAHA DD 042H DUP (?)			; type_counters
?search@@3UVIEW_SEARCH@@A DB 018H DUP (?)		; search
?refresh_timer@@3MA DD 01H DUP (?)			; refresh_timer
?entity_being_destroyed@@3PAUENTITY@@A DD 01H DUP (?)	; entity_being_destroyed
_BSS	ENDS
?side_names@@3PAPBDA DD FLAT:??_C@_03HFJGAJFE@All@	; side_names
	DD	FLAT:??_C@_06KKLIBEMA@Allied@
	DD	FLAT:??_C@_05IFKAJBFC@Enemy@
?category_names@@3PAPBDA DD FLAT:??_C@_03HFJGAJFE@All@	; category_names
	DD	FLAT:??_C@_0BD@OJFNOMKE@Combat?5Helicopters@
	DD	FLAT:??_C@_0BG@FIEBJAHH@Transport?5Helicopters@
	DD	FLAT:??_C@_0BA@BBMGNKPG@Combat?5Aircraft@
	DD	FLAT:??_C@_0BD@FKKIPNEA@Transport?5Aircraft@
	DD	FLAT:??_C@_0BA@OBAEOJG@Combat?5Vehicles@
	DD	FLAT:??_C@_09DOIKKMF@Artillery@
	DD	FLAT:??_C@_0BC@DELNHDII@Air?5Defence?5Units@
	DD	FLAT:??_C@_0BD@EFHOGJCA@Transport?5Vehicles@
	DD	FLAT:??_C@_08OOLPMJMC@Infantry@
	DD	FLAT:??_C@_08FKEKBPMG@Warships@
?type_names@@3PAPBDA DD FLAT:??_C@_03HFJGAJFE@All@	; type_names
	DD	FLAT:??_C@_0P@DCPJMOP@AH?91T?5SeaCobra@
	DD	FLAT:??_C@_0BB@FFDGNCDO@AH?91W?5SuperCobra@
	DD	FLAT:??_C@_0M@LNAKPMDD@AH?91Z?5Viper@
	DD	FLAT:??_C@_0O@DIGLKOAG@AH?964A?5Apache@
	DD	FLAT:??_C@_0BG@PMDMLBDI@AH?964D?5Apache?5Longbow@
	DD	FLAT:??_C@_0BC@OPNKIMOL@CH?946E?5Sea?5Knight@
	DD	FLAT:??_C@_0O@IPEEMJHG@Ka?929?5Helix?5B@
	DD	FLAT:??_C@_0M@FGNDKDEE@Ka?950?5Hokum@
	DD	FLAT:??_C@_0O@CFDNJFNK@Ka?952?5Hokum?5B@
	DD	FLAT:??_C@_0M@JAEACALD@Mi?924V?5Hind@
	DD	FLAT:??_C@_0P@GCAILKDK@Mi?928N?5Havoc?5B@
	DD	FLAT:??_C@_0N@LGCDJEMA@MV?922?5Osprey@
	DD	FLAT:??_C@_0BF@JMGOEFFE@OH?958D?5Kiowa?5Warrior@
	DD	FLAT:??_C@_0BA@ELFLMCKL@RAH?966?5Comanche@
	DD	FLAT:??_C@_0BB@PGDCGKE@UH?960?5Black?5Hawk@
	DD	FLAT:??_C@_0BH@HHFPCBFH@CH?93?5Jolly?5Green?5Giant@
	DD	FLAT:??_C@_0P@MGLDNANL@CH?947D?5Chinook@
	DD	FLAT:??_C@_0BG@HELDIHBH@CH?953E?5Super?5Stallion@
	DD	FLAT:??_C@_09OHNJAEBD@Mi?96?5Hook@
	DD	FLAT:??_C@_09FLBBEJN@Mi?917?5Hip@
	DD	FLAT:??_C@_0BC@BNHOGBOJ@A?910A?5Thunderbolt@
	DD	FLAT:??_C@_0O@FAGOHGDI@AV?98B?5Harrier@
	DD	FLAT:??_C@_0BF@HOIPFOFL@F?916?5Fighting?5Falcon@
	DD	FLAT:??_C@_0O@NNLDHEFN@F?1A?918?5Hornet@
	DD	FLAT:??_C@_0P@KPHKDAHF@MiG?929?5Fulcrum@
	DD	FLAT:??_C@_0P@JFDJHCDM@Su?925?5Frogfoot@
	DD	FLAT:??_C@_0O@BNKKHBOP@Su?933?5Flanker@
	DD	FLAT:??_C@_0BB@GAPMNJGC@Yak?941?5Freestyle@
	DD	FLAT:??_C@_0L@EGLEOOLN@An?912B?5Cub@
	DD	FLAT:??_C@_0BF@LBKGHOFJ@C?917?5Globemaster?5III@
	DD	FLAT:??_C@_0BD@NPAGDOEP@C?9130J?5Hercules?5II@
	DD	FLAT:??_C@_0BB@GPMBJGNM@Il?976MD?5Candid?9B@
	DD	FLAT:??_C@_05LKCGOHKD@BMP?92@
	DD	FLAT:??_C@_05KDDNNGOC@BMP?93@
	DD	FLAT:??_C@_06OJKJBCIG@BRDM?92@
	DD	FLAT:??_C@_06MDKNGHKD@BTR?980@
	DD	FLAT:??_C@_0M@KIBOHMNN@M1A2?5Abrams@
	DD	FLAT:??_C@_0N@HFENHMJF@M2A2?5Bradley@
	DD	FLAT:??_C@_06GKJOJFMP@M113A2@
	DD	FLAT:??_C@_0N@KJEDBONG@M1025?5HumVee@
	DD	FLAT:??_C@_05DGELGDMH@T?980U@
	DD	FLAT:??_C@_04BAKJEBFF@2S19@
	DD	FLAT:??_C@_0L@KPJHBLPD@BM?921?5Grad@
	DD	FLAT:??_C@_06DIEDFMBL@M109A2@
	DD	FLAT:??_C@_09NIDOIGPJ@M270?5MLRS@
	DD	FLAT:??_C@_0BA@OAOBEOEB@M48A1?5Chaparral@
	DD	FLAT:??_C@_0M@JEPFBCAM@M163?5Vulcan@
	DD	FLAT:??_C@_0O@EOMHJIGB@M1037?5Avenger@
	DD	FLAT:??_C@_0N@OHKFHHCO@SA?913?5Gopher@
	DD	FLAT:??_C@_0N@MMMLBBBD@SA?919?5Grison@
	DD	FLAT:??_C@_0L@GBIDKOKC@M978?5HEMTT@
	DD	FLAT:??_C@_0BA@LJICEGMD@M923A1?5Big?5Foot@
	DD	FLAT:??_C@_0M@HEOBIBLO@M998?5HumVee@
	DD	FLAT:??_C@_08JAIHMHKJ@UAZ?9469B@
	DD	FLAT:??_C@_09DIOOOPIO@Ural?94320@
	DD	FLAT:??_C@_0BB@JHDKMKHO@Ural?5Fuel?5Tanker@
	DD	FLAT:??_C@_08OOLPMJMC@Infantry@
	DD	FLAT:??_C@_0BC@MNOGAEMN@Infantry?5with?5SAM@
	DD	FLAT:??_C@_0L@IEPEHALE@Aist?5Class@
	DD	FLAT:??_C@_0L@PLKEBELG@Kiev?5Class@
	DD	FLAT:??_C@_0BA@PBJBDIPJ@Krivak?5II?5Class@
	DD	FLAT:??_C@_03LKGJFNOO@LCU@
	DD	FLAT:??_C@_04IHHDLBEI@LCAC@
	DD	FLAT:??_C@_09IICECODF@OHP?5Class@
	DD	FLAT:??_C@_0N@FBCLPJPA@Tarawa?5Class@
END
