; Listing generated by Microsoft (R) Optimizing Compiler Version 19.16.27045.0 

	TITLE	c:\users\nhv90\projects\eech\aphavoc\source\gunships\views\vm_vckpt.c
	.686P
	.XMM
	include listing.inc
	.model	flat

INCLUDELIB OLDNAMES

PUBLIC	??_C@_0CJ@POFEAPGC@Invalid?5padlock?5mode?5?$DN?5PADLOCK_@ ; `string'
PUBLIC	??_C@_0BA@MDJGGDBO@Padlock?5wingman@		; `string'
PUBLIC	??_C@_0L@GGIILOHB@?$CFs?5?$CFs?51?9?$CFd@	; `string'
PUBLIC	??_C@_05DNDNCJEB@?5?$CI?$CFs?$CJ@		; `string'
PUBLIC	??_C@_0BD@BAAMBMDH@Padlock?5air?5threat@	; `string'
PUBLIC	??_C@_0BG@FIFEBCIA@Padlock?5ground?5threat@	; `string'
PUBLIC	??_C@_0BB@PGIHANNI@Padlock?5incoming@		; `string'
PUBLIC	??_C@_0BB@GBKEOHKL@Padlock?5waypoint@		; `string'
PUBLIC	??_C@_07IFDOOICA@?$CFs?5?8?$CFc?8@		; `string'
PUBLIC	??_C@_0BK@FCBJMFAH@Invalid?5padlock?5mode?5?$DN?5?$CFd@ ; `string'
PUBLIC	?inset_mode@@3W4PADLOCK_MODES@@A		; inset_mode
?inset_mode@@3W4PADLOCK_MODES@@A DD 01H DUP (?)		; inset_mode
_BSS	ENDS
;	COMDAT ?previous_mouse_update_flag@?BD@??update_virtual_cockpit_view@@YGXXZ@4HA
_DATA	SEGMENT
?previous_mouse_update_flag@?BD@??update_virtual_cockpit_view@@YGXXZ@4HA DD 01H ; `update_virtual_cockpit_view'::`19'::previous_mouse_update_flag
_DATA	ENDS
;	COMDAT ??_C@_0BK@FCBJMFAH@Invalid?5padlock?5mode?5?$DN?5?$CFd@
CONST	SEGMENT
??_C@_0BK@FCBJMFAH@Invalid?5padlock?5mode?5?$DN?5?$CFd@ DB 'Invalid padlo'
	DB	'ck mode = %d', 00H				; `string'
CONST	ENDS
;	COMDAT ??_C@_07IFDOOICA@?$CFs?5?8?$CFc?8@
CONST	SEGMENT
??_C@_07IFDOOICA@?$CFs?5?8?$CFc?8@ DB '%s ''%c''', 00H	; `string'
CONST	ENDS
;	COMDAT ??_C@_0BB@GBKEOHKL@Padlock?5waypoint@
CONST	SEGMENT
??_C@_0BB@GBKEOHKL@Padlock?5waypoint@ DB 'Padlock waypoint', 00H ; `string'
CONST	ENDS
;	COMDAT ??_C@_0BB@PGIHANNI@Padlock?5incoming@
CONST	SEGMENT
??_C@_0BB@PGIHANNI@Padlock?5incoming@ DB 'Padlock incoming', 00H ; `string'
CONST	ENDS
;	COMDAT ??_C@_0BG@FIFEBCIA@Padlock?5ground?5threat@
CONST	SEGMENT
??_C@_0BG@FIFEBCIA@Padlock?5ground?5threat@ DB 'Padlock ground threat', 00H ; `string'
CONST	ENDS
;	COMDAT ??_C@_0BD@BAAMBMDH@Padlock?5air?5threat@
CONST	SEGMENT
??_C@_0BD@BAAMBMDH@Padlock?5air?5threat@ DB 'Padlock air threat', 00H ; `string'
CONST	ENDS
;	COMDAT ??_C@_05DNDNCJEB@?5?$CI?$CFs?$CJ@
CONST	SEGMENT
??_C@_05DNDNCJEB@?5?$CI?$CFs?$CJ@ DB ' (%s)', 00H	; `string'
CONST	ENDS
;	COMDAT ??_C@_0L@GGIILOHB@?$CFs?5?$CFs?51?9?$CFd@
CONST	SEGMENT
??_C@_0L@GGIILOHB@?$CFs?5?$CFs?51?9?$CFd@ DB '%s %s 1-%d', 00H ; `string'
CONST	ENDS
;	COMDAT ??_C@_0BA@MDJGGDBO@Padlock?5wingman@
CONST	SEGMENT
??_C@_0BA@MDJGGDBO@Padlock?5wingman@ DB 'Padlock wingman', 00H ; `string'
CONST	ENDS
;	COMDAT ??_C@_0CJ@POFEAPGC@Invalid?5padlock?5mode?5?$DN?5PADLOCK_@
CONST	SEGMENT
??_C@_0CJ@POFEAPGC@Invalid?5padlock?5mode?5?$DN?5PADLOCK_@ DB 'Invalid pa'
	DB	'dlock mode = PADLOCK_MODE_NONE', 00H	; `string'
PUBLIC	?update_virtual_cockpit_view@@YGXXZ		; update_virtual_cockpit_view
PUBLIC	?update_virtual_cockpit_padlock_view@@YGXXZ	; update_virtual_cockpit_padlock_view
PUBLIC	?update_virtual_cockpit_track_target_view@@YGXXZ ; update_virtual_cockpit_track_target_view
PUBLIC	?update_virtual_cockpit_crew_view@@YGXXZ	; update_virtual_cockpit_crew_view
PUBLIC	?update_virtual_cockpit_hud_view@@YGXXZ		; update_virtual_cockpit_hud_view
PUBLIC	?update_virtual_cockpit_periscope_view@@YGXXZ	; update_virtual_cockpit_periscope_view
PUBLIC	?update_virtual_cockpit_display_view@@YGXXZ	; update_virtual_cockpit_display_view
PUBLIC	?get_players_padlock@@YGPAUENTITY@@XZ		; get_players_padlock
PUBLIC	?leave_padlock_view@@YGXXZ			; leave_padlock_view
PUBLIC	?leave_seat_position@@YGXW4VIEW_MODES@@0@Z	; leave_seat_position
PUBLIC	?initialise_virtual_cockpit_view@@YGXXZ		; initialise_virtual_cockpit_view
PUBLIC	?deinitialise_virtual_cockpit_view@@YGXXZ	; deinitialise_virtual_cockpit_view
PUBLIC	?get_inset@@YGPAUENTITY@@XZ			; get_inset
PUBLIC	?switch_seat_position@@YGXXZ			; switch_seat_position
PUBLIC	?get_padlock_mode@@YG?AW4PADLOCK_MODES@@XZ	; get_padlock_mode
PUBLIC	?select_inset_view_event@@YGXW4PADLOCK_MODES@@@Z ; select_inset_view_event
PUBLIC	?draw_virtual_cockpit_3d_display_view@@YGXXZ	; draw_virtual_cockpit_3d_display_view
PUBLIC	?draw_virtual_cockpit_3d_hud_view@@YGXXZ	; draw_virtual_cockpit_3d_hud_view
PUBLIC	?draw_virtual_cockpit_3d_periscope_view@@YGXXZ	; draw_virtual_cockpit_3d_periscope_view
PUBLIC	?draw_virtual_cockpit_3d_view@@YGXXZ		; draw_virtual_cockpit_3d_view
PUBLIC	?draw_virtual_cockpit_3d_crew_view@@YGXXZ	; draw_virtual_cockpit_3d_crew_view
PUBLIC	?draw_night_vision_mask@@YGXXZ			; draw_night_vision_mask
PUBLIC	?set_pilot_seat_position@@YGXXZ			; set_pilot_seat_position
PUBLIC	?set_co_pilot_seat_position@@YGXXZ		; set_co_pilot_seat_position
PUBLIC	?get_pilot_head_viewpoint@@YGXXZ		; get_pilot_head_viewpoint
PUBLIC	?get_pilot_head_heading_and_pitch_to_target@@YGXPAUENTITY@@@Z ; get_pilot_head_heading_and_pitch_to_target
PUBLIC	?select_padlock_view_event@@YGXW4PADLOCK_MODES@@@Z ; select_padlock_view_event
PUBLIC	?reinitialise_virtual_cockpit_view@@YGXXZ	; reinitialise_virtual_cockpit_view
?padlock_mode@@3W4PADLOCK_MODES@@A DD 01H DUP (?)	; padlock_mode
_BSS	ENDS
END
