; Listing generated by Microsoft (R) Optimizing Compiler Version 19.16.27045.0 

	TITLE	c:\users\nhv90\projects\eech\aphavoc\source\entity\mobile\weapon\weapon.c
	.686P
	.XMM
	include listing.inc
	.model	flat

INCLUDELIB OLDNAMES

PUBLIC	??_C@_0CA@CJHFGCNA@WEAPON_AIMING_TYPE_NONE?5invalid@ ; `string'
PUBLIC	??_C@_0DJ@MGJJNOPJ@Cannot?5locate?5device?5to?5rotate?5@ ; `string'
;	COMDAT ??_C@_0DJ@MGJJNOPJ@Cannot?5locate?5device?5to?5rotate?5@
CONST	SEGMENT
??_C@_0DJ@MGJJNOPJ@Cannot?5locate?5device?5to?5rotate?5@ DB 'Cannot locat'
	DB	'e device to rotate (name = %s, package = %d)', 00H ; `string'
CONST	ENDS
;	COMDAT ??_C@_0CA@CJHFGCNA@WEAPON_AIMING_TYPE_NONE?5invalid@
CONST	SEGMENT
??_C@_0CA@CJHFGCNA@WEAPON_AIMING_TYPE_NONE?5invalid@ DB 'WEAPON_AIMING_TY'
	DB	'PE_NONE invalid', 00H			; `string'
PUBLIC	?create_weapon_launched_sound_effects@@YGXPAUENTITY@@H@Z ; create_weapon_launched_sound_effects
PUBLIC	?get_local_entity_weapon_salvo_size@@YGHPAUENTITY@@H@Z ; get_local_entity_weapon_salvo_size
PUBLIC	?get_target_intercept_point@@YGXPAUENTITY@@0HPAUVEC3D@@@Z ; get_target_intercept_point
PUBLIC	?get_local_entity_selected_weapon_viewpoint@@YGHPAUENTITY@@PAUVIEWPOINT@@@Z ; get_local_entity_selected_weapon_viewpoint
PUBLIC	?get_local_entity_selected_weapon_to_target_offsets@@YGHPAUENTITY@@PAM1@Z ; get_local_entity_selected_weapon_to_target_offsets
PUBLIC	?get_number_of_pods_firing@@YGIPAUENTITY@@H@Z	; get_number_of_pods_firing
PUBLIC	?detach_local_entity_weapon@@YGXPAUENTITY@@HHPAUVIEWPOINT@@@Z ; detach_local_entity_weapon
PUBLIC	?get_next_pylon_to_launch@@YGHHW4WEAPON_CONFIG_TYPES@@PAUWEAPON_PACKAGE_STATUS@@PAH@Z ; get_next_pylon_to_launch
PUBLIC	?guidance_type_can_use_point_lock@@YGHW4WEAPON_GUIDANCE_TYPES@@@Z ; guidance_type_can_use_point_lock
PUBLIC	?suppress_ineffective_ship_weapons@@YGXPAUENTITY@@@Z ; suppress_ineffective_ship_weapons
PUBLIC	?update_entity_weapon_systems@@YGXPAUENTITY@@@Z	; update_entity_weapon_systems
PUBLIC	?update_entity_weapon_system_weapon_and_target_vectors@@YGXPAUENTITY@@@Z ; update_entity_weapon_system_weapon_and_target_vectors
PUBLIC	?animate_and_draw_entity_muzzle_flash_effect@@YGXPAUENTITY@@@Z ; animate_and_draw_entity_muzzle_flash_effect
PUBLIC	?get_local_entity_weapon_available@@YGHPAUENTITY@@H@Z ; get_local_entity_weapon_available
PUBLIC	?load_local_entity_weapon_config@@YGXPAUENTITY@@@Z ; load_local_entity_weapon_config
END
