; Listing generated by Microsoft (R) Optimizing Compiler Version 19.16.27045.0 

	TITLE	c:\users\nhv90\projects\eech\aphavoc\source\entity\special\waypoint\wp_char.c
	.686P
	.XMM
	include listing.inc
	.model	flat

INCLUDELIB OLDNAMES

PUBLIC	??_C@_0CG@CCIJHCEB@Invalid?5waypoint?5entity?5sub?9typ@ ; `string'
PUBLIC	??_C@_0EO@ENDMOEGM@c?3?2users?2nhv90?2projects?2eech?2ap@ ; `string'
;	COMDAT ??_C@_0EO@ENDMOEGM@c?3?2users?2nhv90?2projects?2eech?2ap@
CONST	SEGMENT
??_C@_0EO@ENDMOEGM@c?3?2users?2nhv90?2projects?2eech?2ap@ DB 'c:\users\nh'
	DB	'v90\projects\eech\aphavoc\source\entity\special\waypoint\wp_c'
	DB	'har.c', 00H					; `string'
CONST	ENDS
;	COMDAT ??_C@_0CG@CCIJHCEB@Invalid?5waypoint?5entity?5sub?9typ@
CONST	SEGMENT
??_C@_0CG@CCIJHCEB@Invalid?5waypoint?5entity?5sub?9typ@ DB 'Invalid waypo'
	DB	'int entity sub-type = %d', 00H		; `string'
PUBLIC	?overload_waypoint_char_value_functions@@YGXXZ	; overload_waypoint_char_value_functions
PUBLIC	?get_waypoint_sub_type_tag@@YGDH@Z		; get_waypoint_sub_type_tag
PUBLIC	?update_client_server_entity_waypoint_list_tags@@YGXPAUENTITY@@@Z ; update_client_server_entity_waypoint_list_tags
PUBLIC	?update_local_entity_waypoint_list_tags@@YGXPAUENTITY@@@Z ; update_local_entity_waypoint_list_tags
PUBLIC	?reset_waypoint_tags@@YGXXZ			; reset_waypoint_tags
?nav_tag@@3DA DB 01H DUP (?)				; nav_tag
	ALIGN	4

?target_tag@@3DA DB 01H DUP (?)				; target_tag
_BSS	ENDS
END
