; Listing generated by Microsoft (R) Optimizing Compiler Version 19.16.27045.0 

	TITLE	c:\users\nhv90\projects\eech\modules\graphics\zbuffer.c
	.686P
	.XMM
	include listing.inc
	.model	flat

INCLUDELIB OLDNAMES

PUBLIC	?zbuffer_constant@@3NA				; zbuffer_constant
PUBLIC	?zbuffer_factor@@3NA				; zbuffer_factor
PUBLIC	?zbuffer_default_comparison@@3W4_D3DCMPFUNC@@A	; zbuffer_default_comparison
PUBLIC	?zbuffer_constant_normal_bias@@3NA		; zbuffer_constant_normal_bias
PUBLIC	?zbuffer_constant_elevated_bias@@3NA		; zbuffer_constant_elevated_bias
PUBLIC	?zbuffer_constant_shadow_bias_decrement@@3NA	; zbuffer_constant_shadow_bias_decrement
PUBLIC	?zbuffer_shadow_comparison@@3W4_D3DCMPFUNC@@A	; zbuffer_shadow_comparison
PUBLIC	?zbuffer_constant_shadow_bias@@3NA		; zbuffer_constant_shadow_bias
PUBLIC	?zbuffer_constant_lowered_bias@@3NA		; zbuffer_constant_lowered_bias
	ALIGN	8

?zbuffer_constant@@3NA DQ 01H DUP (?)			; zbuffer_constant
?zbuffer_factor@@3NA DQ 01H DUP (?)			; zbuffer_factor
?zbuffer_constant_normal_bias@@3NA DQ 01H DUP (?)	; zbuffer_constant_normal_bias
?zbuffer_constant_elevated_bias@@3NA DQ 01H DUP (?)	; zbuffer_constant_elevated_bias
?zbuffer_constant_shadow_bias_decrement@@3NA DQ 01H DUP (?) ; zbuffer_constant_shadow_bias_decrement
?zbuffer_constant_shadow_bias@@3NA DQ 01H DUP (?)	; zbuffer_constant_shadow_bias
?zbuffer_constant_lowered_bias@@3NA DQ 01H DUP (?)	; zbuffer_constant_lowered_bias
_BSS	ENDS
?zbuffer_default_comparison@@3W4_D3DCMPFUNC@@A DD 04H	; zbuffer_default_comparison
?zbuffer_shadow_comparison@@3W4_D3DCMPFUNC@@A DD 02H	; zbuffer_shadow_comparison
PUBLIC	?set_zbuffer_parameters@@YGXMMMM@Z		; set_zbuffer_parameters
PUBLIC	?clear_zbuffer_screen@@YGXXZ			; clear_zbuffer_screen
PUBLIC	?clear_zbuffer_screen_using_viewport@@YGXXZ	; clear_zbuffer_screen_using_viewport
END
