; Listing generated by Microsoft (R) Optimizing Compiler Version 19.16.27045.0 

	TITLE	c:\users\nhv90\projects\eech\aphavoc\source\ui_menu\czone\zone_sc.c
	.686P
	.XMM
	include listing.inc
	.model	flat

INCLUDELIB OLDNAMES

PUBLIC	??_C@_0L@OBCFCENC@?$CFs?2terrain@		; `string'
PUBLIC	??_C@_0CA@POKKBJID@ZONE_FN?3?5unable?5to?5load?5terrain@ ; `string'
PUBLIC	?combat_zone_screen@@3PAUUI_OBJECT@@A		; combat_zone_screen
PUBLIC	?combat_zone_text_area@@3PAUUI_OBJECT@@A	; combat_zone_text_area
?combat_zone_screen@@3PAUUI_OBJECT@@A DD 01H DUP (?)	; combat_zone_screen
?combat_zone_text_area@@3PAUUI_OBJECT@@A DD 01H DUP (?)	; combat_zone_text_area
_BSS	ENDS
;	COMDAT ??_C@_0CA@POKKBJID@ZONE_FN?3?5unable?5to?5load?5terrain@
CONST	SEGMENT
??_C@_0CA@POKKBJID@ZONE_FN?3?5unable?5to?5load?5terrain@ DB 'ZONE_FN: una'
	DB	'ble to load terrain', 00H			; `string'
CONST	ENDS
;	COMDAT ??_C@_0L@OBCFCENC@?$CFs?2terrain@
CONST	SEGMENT
??_C@_0L@OBCFCENC@?$CFs?2terrain@ DB '%s\terrain', 00H	; `string'
?briefing_red_forces@@3HA DD 01H			; briefing_red_forces
PUBLIC	?initialise_combat_zone_screen@@YGXXZ		; initialise_combat_zone_screen
PUBLIC	?load_3d_terrain_game_data@@YGXXZ		; load_3d_terrain_game_data
END
